ARM GAS  C:\Users\86158\AppData\Local\Temp\ccP8sDIW.s 			page 1


   1              		.cpu cortex-m4
   2              		.arch armv7e-m
   3              		.fpu fpv4-sp-d16
   4              		.eabi_attribute 27, 1
   5              		.eabi_attribute 28, 1
   6              		.eabi_attribute 20, 1
   7              		.eabi_attribute 21, 1
   8              		.eabi_attribute 23, 3
   9              		.eabi_attribute 24, 1
  10              		.eabi_attribute 25, 1
  11              		.eabi_attribute 26, 1
  12              		.eabi_attribute 30, 1
  13              		.eabi_attribute 34, 1
  14              		.eabi_attribute 18, 4
  15              		.file	"calculate.c"
  16              		.text
  17              	.Ltext0:
  18              		.cfi_sections	.debug_frame
  19              		.global	__aeabi_f2d
  20              		.section	.rodata.calcul_read_data.str1.4,"aMS",%progbits,1
  21              		.align	2
  22              	.LC0:
  23 0000 74656D70 		.ascii	"temp:%.1f cap:%.2f\012\000"
  23      3A252E31 
  23      66206361 
  23      703A252E 
  23      32660A00 
  24              		.align	2
  25              	.LC1:
  26 0014 63686563 		.ascii	"check rtc 29\241\346 ADC %.1f error!\012\000"
  26      6B207274 
  26      63203239 
  26      A1E62041 
  26      44432025 
  27              		.align	2
  28              	.LC2:
  29 0034 63686563 		.ascii	"check rtc -40\241\346 ADC %.1f error!\012\000"
  29      6B207274 
  29      63202D34 
  29      30A1E620 
  29      41444320 
  30 0055 000000   		.align	2
  31              	.LC3:
  32 0058 63686563 		.ascii	"check rtc 85\241\346 ADC %.1f error!\012\000"
  32      6B207274 
  32      63203835 
  32      A1E62041 
  32      44432025 
  33              		.align	2
  34              	.LC4:
  35 0078 63686563 		.ascii	"check record cap error!\012\000"
  35      6B207265 
  35      636F7264 
  35      20636170 
  35      20657272 
  36              		.section	.text.calcul_read_data,"ax",%progbits
  37              		.align	1
ARM GAS  C:\Users\86158\AppData\Local\Temp\ccP8sDIW.s 			page 2


  38              		.global	calcul_read_data
  39              		.syntax unified
  40              		.thumb
  41              		.thumb_func
  43              	calcul_read_data:
  44              	.LVL0:
  45              	.LFB235:
  46              		.file 1 "App/Src/calculate.c"
   1:App/Src/calculate.c **** #include "main.h"
   2:App/Src/calculate.c **** #include <math.h>
   3:App/Src/calculate.c **** #include "calculate.h"
   4:App/Src/calculate.c **** #include "flash.h"
   5:App/Src/calculate.c **** #include "rtc.h"
   6:App/Src/calculate.c **** #include <string.h>
   7:App/Src/calculate.c **** 
   8:App/Src/calculate.c **** #define TEST_NUMBER   5
   9:App/Src/calculate.c **** #define FIND_CENTER_TEMP_ERROR			30
  10:App/Src/calculate.c **** 
  11:App/Src/calculate.c **** typedef struct {
  12:App/Src/calculate.c **** 	float A;
  13:App/Src/calculate.c **** 	float B;
  14:App/Src/calculate.c **** 	float X0;
  15:App/Src/calculate.c **** 	float C;
  16:App/Src/calculate.c **** 	uint8_t mode;
  17:App/Src/calculate.c **** } Parameter;
  18:App/Src/calculate.c **** static float g_result[TEST_NUMBER] = {0};
  19:App/Src/calculate.c **** static float g_input[TEST_NUMBER] = {0};
  20:App/Src/calculate.c **** static Parameter g_left = {0}, g_right = {0};
  21:App/Src/calculate.c **** 	
  22:App/Src/calculate.c **** static TestResult g_testData = {0};
  23:App/Src/calculate.c **** float initTempExample[TEST_NUMBER] = {118.4, 178.4, 240.4, 310.8, 359.4};
  24:App/Src/calculate.c **** float initCapExample[TEST_NUMBER] = {220, 380, 480, 380, 220};
  25:App/Src/calculate.c **** uint8_t calcul_read_data(uint8_t rtcNum)
  26:App/Src/calculate.c **** {
  47              		.loc 1 26 1 view -0
  48              		.cfi_startproc
  49              		@ args = 0, pretend = 0, frame = 0
  50              		@ frame_needed = 0, uses_anonymous_args = 0
  27:App/Src/calculate.c **** 	uint8_t i;
  51              		.loc 1 27 2 view .LVU1
  28:App/Src/calculate.c **** 	if (rtcNum == 0 || rtcNum > MAX_CHIP_NUMBER) { return 0; }
  52              		.loc 1 28 2 view .LVU2
  53              		.loc 1 28 18 is_stmt 0 view .LVU3
  54 0000 431E     		subs	r3, r0, #1
  55 0002 DBB2     		uxtb	r3, r3
  56              		.loc 1 28 5 view .LVU4
  57 0004 312B     		cmp	r3, #49
  58 0006 01D9     		bls	.L27
  59              		.loc 1 28 56 view .LVU5
  60 0008 0020     		movs	r0, #0
  61              	.LVL1:
  29:App/Src/calculate.c **** 	flash_test_data_read(&g_testData, rtcNum, TEST_DOT_TEMP);
  30:App/Src/calculate.c **** 	flash_test_data_read(&g_testData, rtcNum, TEST_DOT_CAP);
  31:App/Src/calculate.c **** 	for (i = 0; i < TEST_NUMBER; i++) {
  32:App/Src/calculate.c **** 		g_input[i] = g_testData.testDotTemp[i];
  33:App/Src/calculate.c **** 		g_result[i] = g_testData.testDotCap[i];
  34:App/Src/calculate.c **** 		// g_input[i] = initTempExample[i];
ARM GAS  C:\Users\86158\AppData\Local\Temp\ccP8sDIW.s 			page 3


  35:App/Src/calculate.c **** 		// g_result[i] = initCapExample[i];
  36:App/Src/calculate.c **** 		UsbPrintf("temp:%.1f cap:%.2f\n", g_input[i], g_result[i]);
  37:App/Src/calculate.c **** 	}
  38:App/Src/calculate.c **** 	g_result[TEST_RTC_TEMP_Z85] -= 4;						//2024.08.09 chenxuezhong 依据实测数据修正，使得中心点上移1
  39:App/Src/calculate.c **** 	if (g_input[TEST_RTC_TEMP_Z29] < 200 || g_input[TEST_RTC_TEMP_Z29] > 270) {
  40:App/Src/calculate.c **** 		UsbPrintf("check rtc 29℃ ADC %.1f error!\n", g_input[TEST_RTC_TEMP_Z29]);
  41:App/Src/calculate.c **** 		log_printf("check rtc 29℃ ADC %.1f error!\n", g_input[TEST_RTC_TEMP_Z29]);
  42:App/Src/calculate.c **** 		return 0;
  43:App/Src/calculate.c **** 	}
  44:App/Src/calculate.c **** 	if ((g_input[TEST_RTC_TEMP_Z29] > g_input[TEST_RTC_TEMP_F40] + 146) || (g_input[TEST_RTC_TEMP_Z29]
  45:App/Src/calculate.c **** 		UsbPrintf("check rtc -40℃ ADC %.1f error!\n", g_input[TEST_RTC_TEMP_F40]);
  46:App/Src/calculate.c **** 		log_printf("check rtc -40℃ ADC %.1f error!\n", g_input[TEST_RTC_TEMP_F40]);
  47:App/Src/calculate.c **** 		return 0;
  48:App/Src/calculate.c **** 	}
  49:App/Src/calculate.c **** 	// if ((g_input[TEST_RTC_TEMP_Z29] > g_input[TEST_RTC_TEMP_F10] + 86) || (g_input[TEST_RTC_TEMP_Z2
  50:App/Src/calculate.c **** 	// 	UsbPrintf("check rtc -10℃ ADC %.1f error!\n", g_input[TEST_RTC_TEMP_F10]);
  51:App/Src/calculate.c **** 	// 	log_printf("check rtc -10℃ ADC %.1f error!\n", g_input[TEST_RTC_TEMP_F10]);
  52:App/Src/calculate.c **** 	// 	return 0;
  53:App/Src/calculate.c **** 	// }
  54:App/Src/calculate.c **** 	// if ((g_input[TEST_RTC_TEMP_Z60] > g_input[TEST_RTC_TEMP_Z29] + 86) || (g_input[TEST_RTC_TEMP_Z6
  55:App/Src/calculate.c **** 	// 	UsbPrintf("check rtc 60℃ ADC %.1f error!\n", g_input[TEST_RTC_TEMP_Z60]);
  56:App/Src/calculate.c **** 	// 	log_printf("check rtc 60℃ ADC %.1f error!\n", g_input[TEST_RTC_TEMP_Z60]);
  57:App/Src/calculate.c **** 	// 	return 0;
  58:App/Src/calculate.c **** 	// }
  59:App/Src/calculate.c **** 	if ((g_input[TEST_RTC_TEMP_Z85] > g_input[TEST_RTC_TEMP_Z29] + 136) || (g_input[TEST_RTC_TEMP_Z85]
  60:App/Src/calculate.c **** 		UsbPrintf("check rtc 85℃ ADC %.1f error!\n", g_input[TEST_RTC_TEMP_Z85]);
  61:App/Src/calculate.c **** 		log_printf("check rtc 85℃ ADC %.1f error!\n", g_input[TEST_RTC_TEMP_Z85]);
  62:App/Src/calculate.c **** 		return 0;
  63:App/Src/calculate.c **** 	}
  64:App/Src/calculate.c **** 
  65:App/Src/calculate.c **** 	for (i = 0; i < TEST_NUMBER; i++) {
  66:App/Src/calculate.c **** 		if (i == TEST_RTC_TEMP_F10 || i == TEST_RTC_TEMP_Z60) { continue; }
  67:App/Src/calculate.c **** 		if (g_result[i] >= SD8800_CAP_LIST_MAX || g_result[i] <= 105) {
  68:App/Src/calculate.c **** 			UsbPrintf("check record cap error!\n");
  69:App/Src/calculate.c **** 			log_printf("check record cap error!\n");
  70:App/Src/calculate.c **** 			return 0;
  71:App/Src/calculate.c **** 		}
  72:App/Src/calculate.c **** 	}
  73:App/Src/calculate.c **** 	return 1;
  74:App/Src/calculate.c **** }
  62              		.loc 1 74 1 view .LVU6
  63 000a 7047     		bx	lr
  64              	.LVL2:
  65              	.L27:
  26:App/Src/calculate.c **** 	uint8_t i;
  66              		.loc 1 26 1 view .LVU7
  67 000c F0B5     		push	{r4, r5, r6, r7, lr}
  68              	.LCFI0:
  69              		.cfi_def_cfa_offset 20
  70              		.cfi_offset 4, -20
  71              		.cfi_offset 5, -16
  72              		.cfi_offset 6, -12
  73              		.cfi_offset 7, -8
  74              		.cfi_offset 14, -4
  75 000e 83B0     		sub	sp, sp, #12
  76              	.LCFI1:
  77              		.cfi_def_cfa_offset 32
ARM GAS  C:\Users\86158\AppData\Local\Temp\ccP8sDIW.s 			page 4


  78 0010 0446     		mov	r4, r0
  29:App/Src/calculate.c **** 	flash_test_data_read(&g_testData, rtcNum, TEST_DOT_TEMP);
  79              		.loc 1 29 2 is_stmt 1 view .LVU8
  80 0012 6E4D     		ldr	r5, .L29
  81 0014 0822     		movs	r2, #8
  82 0016 0146     		mov	r1, r0
  83 0018 2846     		mov	r0, r5
  84              	.LVL3:
  29:App/Src/calculate.c **** 	flash_test_data_read(&g_testData, rtcNum, TEST_DOT_TEMP);
  85              		.loc 1 29 2 is_stmt 0 view .LVU9
  86 001a FFF7FEFF 		bl	flash_test_data_read
  87              	.LVL4:
  30:App/Src/calculate.c **** 	for (i = 0; i < TEST_NUMBER; i++) {
  88              		.loc 1 30 2 is_stmt 1 view .LVU10
  89 001e 1C22     		movs	r2, #28
  90 0020 2146     		mov	r1, r4
  91 0022 2846     		mov	r0, r5
  92 0024 FFF7FEFF 		bl	flash_test_data_read
  93              	.LVL5:
  31:App/Src/calculate.c **** 		g_input[i] = g_testData.testDotTemp[i];
  94              		.loc 1 31 2 view .LVU11
  31:App/Src/calculate.c **** 		g_input[i] = g_testData.testDotTemp[i];
  95              		.loc 1 31 9 is_stmt 0 view .LVU12
  96 0028 0024     		movs	r4, #0
  31:App/Src/calculate.c **** 		g_input[i] = g_testData.testDotTemp[i];
  97              		.loc 1 31 2 view .LVU13
  98 002a 20E0     		b	.L3
  99              	.LVL6:
 100              	.L4:
  32:App/Src/calculate.c **** 		g_result[i] = g_testData.testDotCap[i];
 101              		.loc 1 32 3 is_stmt 1 discriminator 3 view .LVU14
  32:App/Src/calculate.c **** 		g_result[i] = g_testData.testDotCap[i];
 102              		.loc 1 32 38 is_stmt 0 discriminator 3 view .LVU15
 103 002c 674B     		ldr	r3, .L29
 104 002e A21C     		adds	r2, r4, #2
 105 0030 03EB8202 		add	r2, r3, r2, lsl #2
 106 0034 1068     		ldr	r0, [r2]	@ float
  32:App/Src/calculate.c **** 		g_result[i] = g_testData.testDotCap[i];
 107              		.loc 1 32 14 discriminator 3 view .LVU16
 108 0036 664A     		ldr	r2, .L29+4
 109 0038 02EB8402 		add	r2, r2, r4, lsl #2
 110 003c 1060     		str	r0, [r2]	@ float
  33:App/Src/calculate.c **** 		// g_input[i] = initTempExample[i];
 111              		.loc 1 33 3 is_stmt 1 discriminator 3 view .LVU17
  33:App/Src/calculate.c **** 		// g_input[i] = initTempExample[i];
 112              		.loc 1 33 38 is_stmt 0 discriminator 3 view .LVU18
 113 003e A21D     		adds	r2, r4, #6
 114 0040 03EB8203 		add	r3, r3, r2, lsl #2
 115 0044 5D68     		ldr	r5, [r3, #4]	@ float
  33:App/Src/calculate.c **** 		// g_input[i] = initTempExample[i];
 116              		.loc 1 33 15 discriminator 3 view .LVU19
 117 0046 634B     		ldr	r3, .L29+8
 118 0048 03EB8403 		add	r3, r3, r4, lsl #2
 119 004c 1D60     		str	r5, [r3]	@ float
  36:App/Src/calculate.c **** 	}
 120              		.loc 1 36 3 is_stmt 1 discriminator 3 view .LVU20
 121 004e FFF7FEFF 		bl	__aeabi_f2d
ARM GAS  C:\Users\86158\AppData\Local\Temp\ccP8sDIW.s 			page 5


 122              	.LVL7:
 123 0052 0646     		mov	r6, r0
 124 0054 0F46     		mov	r7, r1
 125 0056 2846     		mov	r0, r5	@ float
 126 0058 FFF7FEFF 		bl	__aeabi_f2d
 127              	.LVL8:
 128 005c CDE90001 		strd	r0, [sp]
 129 0060 3246     		mov	r2, r6
 130 0062 3B46     		mov	r3, r7
 131 0064 5C48     		ldr	r0, .L29+12
 132 0066 FFF7FEFF 		bl	UsbPrintf
 133              	.LVL9:
  31:App/Src/calculate.c **** 		g_input[i] = g_testData.testDotTemp[i];
 134              		.loc 1 31 31 discriminator 3 view .LVU21
  31:App/Src/calculate.c **** 		g_input[i] = g_testData.testDotTemp[i];
 135              		.loc 1 31 32 is_stmt 0 discriminator 3 view .LVU22
 136 006a 0134     		adds	r4, r4, #1
 137              	.LVL10:
  31:App/Src/calculate.c **** 		g_input[i] = g_testData.testDotTemp[i];
 138              		.loc 1 31 32 discriminator 3 view .LVU23
 139 006c E4B2     		uxtb	r4, r4
 140              	.LVL11:
 141              	.L3:
  31:App/Src/calculate.c **** 		g_input[i] = g_testData.testDotTemp[i];
 142              		.loc 1 31 14 is_stmt 1 discriminator 1 view .LVU24
  31:App/Src/calculate.c **** 		g_input[i] = g_testData.testDotTemp[i];
 143              		.loc 1 31 2 is_stmt 0 discriminator 1 view .LVU25
 144 006e 042C     		cmp	r4, #4
 145 0070 DCD9     		bls	.L4
  38:App/Src/calculate.c **** 	if (g_input[TEST_RTC_TEMP_Z29] < 200 || g_input[TEST_RTC_TEMP_Z29] > 270) {
 146              		.loc 1 38 2 is_stmt 1 view .LVU26
  38:App/Src/calculate.c **** 	if (g_input[TEST_RTC_TEMP_Z29] < 200 || g_input[TEST_RTC_TEMP_Z29] > 270) {
 147              		.loc 1 38 30 is_stmt 0 view .LVU27
 148 0072 584B     		ldr	r3, .L29+8
 149 0074 D3ED047A 		vldr.32	s15, [r3, #16]
 150 0078 B1EE007A 		vmov.f32	s14, #4.0e+0
 151 007c 77EEC77A 		vsub.f32	s15, s15, s14
 152 0080 C3ED047A 		vstr.32	s15, [r3, #16]
  39:App/Src/calculate.c **** 		UsbPrintf("check rtc 29℃ ADC %.1f error!\n", g_input[TEST_RTC_TEMP_Z29]);
 153              		.loc 1 39 2 is_stmt 1 view .LVU28
  39:App/Src/calculate.c **** 		UsbPrintf("check rtc 29℃ ADC %.1f error!\n", g_input[TEST_RTC_TEMP_Z29]);
 154              		.loc 1 39 13 is_stmt 0 view .LVU29
 155 0084 524B     		ldr	r3, .L29+4
 156 0086 D3ED027A 		vldr.32	s15, [r3, #8]
  39:App/Src/calculate.c **** 		UsbPrintf("check rtc 29℃ ADC %.1f error!\n", g_input[TEST_RTC_TEMP_Z29]);
 157              		.loc 1 39 5 view .LVU30
 158 008a 9FED547A 		vldr.32	s14, .L29+16
 159 008e F4EEC77A 		vcmpe.f32	s15, s14
 160 0092 F1EE10FA 		vmrs	APSR_nzcv, FPSCR
 161 0096 32D4     		bmi	.L5
  39:App/Src/calculate.c **** 		UsbPrintf("check rtc 29℃ ADC %.1f error!\n", g_input[TEST_RTC_TEMP_Z29]);
 162              		.loc 1 39 39 discriminator 1 view .LVU31
 163 0098 9FED517A 		vldr.32	s14, .L29+20
 164 009c F4EEC77A 		vcmpe.f32	s15, s14
 165 00a0 F1EE10FA 		vmrs	APSR_nzcv, FPSCR
 166 00a4 2BDC     		bgt	.L5
  44:App/Src/calculate.c **** 		UsbPrintf("check rtc -40℃ ADC %.1f error!\n", g_input[TEST_RTC_TEMP_F40]);
ARM GAS  C:\Users\86158\AppData\Local\Temp\ccP8sDIW.s 			page 6


 167              		.loc 1 44 2 is_stmt 1 view .LVU32
  44:App/Src/calculate.c **** 		UsbPrintf("check rtc -40℃ ADC %.1f error!\n", g_input[TEST_RTC_TEMP_F40]);
 168              		.loc 1 44 43 is_stmt 0 view .LVU33
 169 00a6 4A4B     		ldr	r3, .L29+4
 170 00a8 D3ED006A 		vldr.32	s13, [r3]
  44:App/Src/calculate.c **** 		UsbPrintf("check rtc -40℃ ADC %.1f error!\n", g_input[TEST_RTC_TEMP_F40]);
 171              		.loc 1 44 63 view .LVU34
 172 00ac 9FED4D7A 		vldr.32	s14, .L29+24
 173 00b0 36EE877A 		vadd.f32	s14, s13, s14
  44:App/Src/calculate.c **** 		UsbPrintf("check rtc -40℃ ADC %.1f error!\n", g_input[TEST_RTC_TEMP_F40]);
 174              		.loc 1 44 5 view .LVU35
 175 00b4 F4EEC77A 		vcmpe.f32	s15, s14
 176 00b8 F1EE10FA 		vmrs	APSR_nzcv, FPSCR
 177 00bc 35DC     		bgt	.L8
  44:App/Src/calculate.c **** 		UsbPrintf("check rtc -40℃ ADC %.1f error!\n", g_input[TEST_RTC_TEMP_F40]);
 178              		.loc 1 44 130 discriminator 1 view .LVU36
 179 00be 9FED4A7A 		vldr.32	s14, .L29+28
 180 00c2 36EE877A 		vadd.f32	s14, s13, s14
  44:App/Src/calculate.c **** 		UsbPrintf("check rtc -40℃ ADC %.1f error!\n", g_input[TEST_RTC_TEMP_F40]);
 181              		.loc 1 44 70 discriminator 1 view .LVU37
 182 00c6 F4EEC77A 		vcmpe.f32	s15, s14
 183 00ca F1EE10FA 		vmrs	APSR_nzcv, FPSCR
 184 00ce 2CD4     		bmi	.L8
  59:App/Src/calculate.c **** 		UsbPrintf("check rtc 85℃ ADC %.1f error!\n", g_input[TEST_RTC_TEMP_Z85]);
 185              		.loc 1 59 2 is_stmt 1 view .LVU38
  59:App/Src/calculate.c **** 		UsbPrintf("check rtc 85℃ ADC %.1f error!\n", g_input[TEST_RTC_TEMP_Z85]);
 186              		.loc 1 59 14 is_stmt 0 view .LVU39
 187 00d0 3F4B     		ldr	r3, .L29+4
 188 00d2 D3ED046A 		vldr.32	s13, [r3, #16]
  59:App/Src/calculate.c **** 		UsbPrintf("check rtc 85℃ ADC %.1f error!\n", g_input[TEST_RTC_TEMP_Z85]);
 189              		.loc 1 59 63 view .LVU40
 190 00d6 9FED457A 		vldr.32	s14, .L29+32
 191 00da 37EE877A 		vadd.f32	s14, s15, s14
  59:App/Src/calculate.c **** 		UsbPrintf("check rtc 85℃ ADC %.1f error!\n", g_input[TEST_RTC_TEMP_Z85]);
 192              		.loc 1 59 5 view .LVU41
 193 00de F4EEC76A 		vcmpe.f32	s13, s14
 194 00e2 F1EE10FA 		vmrs	APSR_nzcv, FPSCR
 195 00e6 35DC     		bgt	.L11
  59:App/Src/calculate.c **** 		UsbPrintf("check rtc 85℃ ADC %.1f error!\n", g_input[TEST_RTC_TEMP_Z85]);
 196              		.loc 1 59 130 discriminator 1 view .LVU42
 197 00e8 9FED417A 		vldr.32	s14, .L29+36
 198 00ec 77EE877A 		vadd.f32	s15, s15, s14
  59:App/Src/calculate.c **** 		UsbPrintf("check rtc 85℃ ADC %.1f error!\n", g_input[TEST_RTC_TEMP_Z85]);
 199              		.loc 1 59 70 discriminator 1 view .LVU43
 200 00f0 F4EEE76A 		vcmpe.f32	s13, s15
 201 00f4 F1EE10FA 		vmrs	APSR_nzcv, FPSCR
 202 00f8 2CD4     		bmi	.L11
  65:App/Src/calculate.c **** 		if (i == TEST_RTC_TEMP_F10 || i == TEST_RTC_TEMP_Z60) { continue; }
 203              		.loc 1 65 9 view .LVU44
 204 00fa 0023     		movs	r3, #0
 205 00fc 41E0     		b	.L12
 206              	.L5:
  40:App/Src/calculate.c **** 		log_printf("check rtc 29℃ ADC %.1f error!\n", g_input[TEST_RTC_TEMP_Z29]);
 207              		.loc 1 40 3 is_stmt 1 view .LVU45
 208 00fe 17EE900A 		vmov	r0, s15
 209 0102 FFF7FEFF 		bl	__aeabi_f2d
 210              	.LVL12:
ARM GAS  C:\Users\86158\AppData\Local\Temp\ccP8sDIW.s 			page 7


 211 0106 0246     		mov	r2, r0
 212 0108 0B46     		mov	r3, r1
 213 010a 3A4C     		ldr	r4, .L29+40
 214              	.LVL13:
  40:App/Src/calculate.c **** 		log_printf("check rtc 29℃ ADC %.1f error!\n", g_input[TEST_RTC_TEMP_Z29]);
 215              		.loc 1 40 3 is_stmt 0 view .LVU46
 216 010c 2046     		mov	r0, r4
 217 010e FFF7FEFF 		bl	UsbPrintf
 218              	.LVL14:
  41:App/Src/calculate.c **** 		return 0;
 219              		.loc 1 41 3 is_stmt 1 view .LVU47
 220 0112 2F4B     		ldr	r3, .L29+4
 221 0114 9868     		ldr	r0, [r3, #8]	@ float
 222 0116 FFF7FEFF 		bl	__aeabi_f2d
 223              	.LVL15:
 224 011a 0246     		mov	r2, r0
 225 011c 0B46     		mov	r3, r1
 226 011e 2046     		mov	r0, r4
 227 0120 FFF7FEFF 		bl	log_printf
 228              	.LVL16:
  42:App/Src/calculate.c **** 	}
 229              		.loc 1 42 3 view .LVU48
  42:App/Src/calculate.c **** 	}
 230              		.loc 1 42 10 is_stmt 0 view .LVU49
 231 0124 0020     		movs	r0, #0
 232              	.L2:
 233              		.loc 1 74 1 view .LVU50
 234 0126 03B0     		add	sp, sp, #12
 235              	.LCFI2:
 236              		.cfi_remember_state
 237              		.cfi_def_cfa_offset 20
 238              		@ sp needed
 239 0128 F0BD     		pop	{r4, r5, r6, r7, pc}
 240              	.LVL17:
 241              	.L8:
 242              	.LCFI3:
 243              		.cfi_restore_state
  45:App/Src/calculate.c **** 		log_printf("check rtc -40℃ ADC %.1f error!\n", g_input[TEST_RTC_TEMP_F40]);
 244              		.loc 1 45 3 is_stmt 1 view .LVU51
 245 012a 16EE900A 		vmov	r0, s13
 246 012e FFF7FEFF 		bl	__aeabi_f2d
 247              	.LVL18:
 248 0132 0246     		mov	r2, r0
 249 0134 0B46     		mov	r3, r1
 250 0136 304C     		ldr	r4, .L29+44
 251              	.LVL19:
  45:App/Src/calculate.c **** 		log_printf("check rtc -40℃ ADC %.1f error!\n", g_input[TEST_RTC_TEMP_F40]);
 252              		.loc 1 45 3 is_stmt 0 view .LVU52
 253 0138 2046     		mov	r0, r4
 254 013a FFF7FEFF 		bl	UsbPrintf
 255              	.LVL20:
  46:App/Src/calculate.c **** 		return 0;
 256              		.loc 1 46 3 is_stmt 1 view .LVU53
 257 013e 244B     		ldr	r3, .L29+4
 258 0140 1868     		ldr	r0, [r3]	@ float
 259 0142 FFF7FEFF 		bl	__aeabi_f2d
 260              	.LVL21:
ARM GAS  C:\Users\86158\AppData\Local\Temp\ccP8sDIW.s 			page 8


 261 0146 0246     		mov	r2, r0
 262 0148 0B46     		mov	r3, r1
 263 014a 2046     		mov	r0, r4
 264 014c FFF7FEFF 		bl	log_printf
 265              	.LVL22:
  47:App/Src/calculate.c **** 	}
 266              		.loc 1 47 3 view .LVU54
  47:App/Src/calculate.c **** 	}
 267              		.loc 1 47 10 is_stmt 0 view .LVU55
 268 0150 0020     		movs	r0, #0
 269 0152 E8E7     		b	.L2
 270              	.LVL23:
 271              	.L11:
  60:App/Src/calculate.c **** 		log_printf("check rtc 85℃ ADC %.1f error!\n", g_input[TEST_RTC_TEMP_Z85]);
 272              		.loc 1 60 3 is_stmt 1 view .LVU56
 273 0154 16EE900A 		vmov	r0, s13
 274 0158 FFF7FEFF 		bl	__aeabi_f2d
 275              	.LVL24:
 276 015c 0246     		mov	r2, r0
 277 015e 0B46     		mov	r3, r1
 278 0160 264C     		ldr	r4, .L29+48
 279              	.LVL25:
  60:App/Src/calculate.c **** 		log_printf("check rtc 85℃ ADC %.1f error!\n", g_input[TEST_RTC_TEMP_Z85]);
 280              		.loc 1 60 3 is_stmt 0 view .LVU57
 281 0162 2046     		mov	r0, r4
 282 0164 FFF7FEFF 		bl	UsbPrintf
 283              	.LVL26:
  61:App/Src/calculate.c **** 		return 0;
 284              		.loc 1 61 3 is_stmt 1 view .LVU58
 285 0168 194B     		ldr	r3, .L29+4
 286 016a 1869     		ldr	r0, [r3, #16]	@ float
 287 016c FFF7FEFF 		bl	__aeabi_f2d
 288              	.LVL27:
 289 0170 0246     		mov	r2, r0
 290 0172 0B46     		mov	r3, r1
 291 0174 2046     		mov	r0, r4
 292 0176 FFF7FEFF 		bl	log_printf
 293              	.LVL28:
  62:App/Src/calculate.c **** 	}
 294              		.loc 1 62 3 view .LVU59
  62:App/Src/calculate.c **** 	}
 295              		.loc 1 62 10 is_stmt 0 view .LVU60
 296 017a 0020     		movs	r0, #0
 297 017c D3E7     		b	.L2
 298              	.LVL29:
 299              	.L14:
  65:App/Src/calculate.c **** 		if (i == TEST_RTC_TEMP_F10 || i == TEST_RTC_TEMP_Z60) { continue; }
 300              		.loc 1 65 31 is_stmt 1 discriminator 2 view .LVU61
  65:App/Src/calculate.c **** 		if (i == TEST_RTC_TEMP_F10 || i == TEST_RTC_TEMP_Z60) { continue; }
 301              		.loc 1 65 32 is_stmt 0 discriminator 2 view .LVU62
 302 017e 0133     		adds	r3, r3, #1
 303              	.LVL30:
  65:App/Src/calculate.c **** 		if (i == TEST_RTC_TEMP_F10 || i == TEST_RTC_TEMP_Z60) { continue; }
 304              		.loc 1 65 32 discriminator 2 view .LVU63
 305 0180 DBB2     		uxtb	r3, r3
 306              	.LVL31:
 307              	.L12:
ARM GAS  C:\Users\86158\AppData\Local\Temp\ccP8sDIW.s 			page 9


  65:App/Src/calculate.c **** 		if (i == TEST_RTC_TEMP_F10 || i == TEST_RTC_TEMP_Z60) { continue; }
 308              		.loc 1 65 14 is_stmt 1 discriminator 1 view .LVU64
  65:App/Src/calculate.c **** 		if (i == TEST_RTC_TEMP_F10 || i == TEST_RTC_TEMP_Z60) { continue; }
 309              		.loc 1 65 2 is_stmt 0 discriminator 1 view .LVU65
 310 0182 042B     		cmp	r3, #4
 311 0184 1FD8     		bhi	.L28
  66:App/Src/calculate.c **** 		if (g_result[i] >= SD8800_CAP_LIST_MAX || g_result[i] <= 105) {
 312              		.loc 1 66 3 is_stmt 1 view .LVU66
  66:App/Src/calculate.c **** 		if (g_result[i] >= SD8800_CAP_LIST_MAX || g_result[i] <= 105) {
 313              		.loc 1 66 6 is_stmt 0 view .LVU67
 314 0186 012B     		cmp	r3, #1
 315 0188 F9D0     		beq	.L14
  66:App/Src/calculate.c **** 		if (g_result[i] >= SD8800_CAP_LIST_MAX || g_result[i] <= 105) {
 316              		.loc 1 66 30 discriminator 2 view .LVU68
 317 018a 032B     		cmp	r3, #3
 318 018c F7D0     		beq	.L14
  67:App/Src/calculate.c **** 			UsbPrintf("check record cap error!\n");
 319              		.loc 1 67 3 is_stmt 1 view .LVU69
  67:App/Src/calculate.c **** 			UsbPrintf("check record cap error!\n");
 320              		.loc 1 67 15 is_stmt 0 view .LVU70
 321 018e 114A     		ldr	r2, .L29+8
 322 0190 02EB8302 		add	r2, r2, r3, lsl #2
 323 0194 D2ED007A 		vldr.32	s15, [r2]
  67:App/Src/calculate.c **** 			UsbPrintf("check record cap error!\n");
 324              		.loc 1 67 6 view .LVU71
 325 0198 9FED197A 		vldr.32	s14, .L29+52
 326 019c F4EEC77A 		vcmpe.f32	s15, s14
 327 01a0 F1EE10FA 		vmrs	APSR_nzcv, FPSCR
 328 01a4 06DA     		bge	.L15
  67:App/Src/calculate.c **** 			UsbPrintf("check record cap error!\n");
 329              		.loc 1 67 42 discriminator 1 view .LVU72
 330 01a6 9FED177A 		vldr.32	s14, .L29+56
 331 01aa F4EEC77A 		vcmpe.f32	s15, s14
 332 01ae F1EE10FA 		vmrs	APSR_nzcv, FPSCR
 333 01b2 E4D8     		bhi	.L14
 334              	.L15:
  68:App/Src/calculate.c **** 			log_printf("check record cap error!\n");
 335              		.loc 1 68 4 is_stmt 1 view .LVU73
 336 01b4 144C     		ldr	r4, .L29+60
 337 01b6 2046     		mov	r0, r4
 338 01b8 FFF7FEFF 		bl	UsbPrintf
 339              	.LVL32:
  69:App/Src/calculate.c **** 			return 0;
 340              		.loc 1 69 4 view .LVU74
 341 01bc 2046     		mov	r0, r4
 342 01be FFF7FEFF 		bl	log_printf
 343              	.LVL33:
  70:App/Src/calculate.c **** 		}
 344              		.loc 1 70 4 view .LVU75
  70:App/Src/calculate.c **** 		}
 345              		.loc 1 70 11 is_stmt 0 view .LVU76
 346 01c2 0020     		movs	r0, #0
 347 01c4 AFE7     		b	.L2
 348              	.LVL34:
 349              	.L28:
  73:App/Src/calculate.c **** }
 350              		.loc 1 73 9 view .LVU77
ARM GAS  C:\Users\86158\AppData\Local\Temp\ccP8sDIW.s 			page 10


 351 01c6 0120     		movs	r0, #1
 352 01c8 ADE7     		b	.L2
 353              	.L30:
 354 01ca 00BF     		.align	2
 355              	.L29:
 356 01cc 00000000 		.word	.LANCHOR0
 357 01d0 00000000 		.word	.LANCHOR1
 358 01d4 00000000 		.word	.LANCHOR2
 359 01d8 00000000 		.word	.LC0
 360 01dc 00004843 		.word	1128792064
 361 01e0 00008743 		.word	1132920832
 362 01e4 00001243 		.word	1125253120
 363 01e8 0000E442 		.word	1122238464
 364 01ec 00000843 		.word	1124597760
 365 01f0 0000D042 		.word	1120927744
 366 01f4 14000000 		.word	.LC1
 367 01f8 34000000 		.word	.LC2
 368 01fc 58000000 		.word	.LC3
 369 0200 00001244 		.word	1142030336
 370 0204 0000D242 		.word	1121058816
 371 0208 78000000 		.word	.LC4
 372              		.cfi_endproc
 373              	.LFE235:
 375              		.section	.rodata.find_crystal_center.str1.4,"aMS",%progbits,1
 376              		.align	2
 377              	.LC5:
 378 0000 74656D70 		.ascii	"temp:%.1f, ppm:%.1f\012\000"
 378      3A252E31 
 378      662C2070 
 378      706D3A25 
 378      2E31660A 
 379 0015 000000   		.align	2
 380              	.LC6:
 381 0018 63686563 		.ascii	"check find center ppm error\012\000"
 381      6B206669 
 381      6E642063 
 381      656E7465 
 381      72207070 
 382              		.global	__aeabi_d2f
 383 0035 000000   		.align	2
 384              	.LC7:
 385 0038 63656E74 		.ascii	"center:%.2f\012\000"
 385      65723A25 
 385      2E32660A 
 385      00
 386              		.global	__aeabi_dmul
 387              		.global	__aeabi_dadd
 388              		.section	.text.find_crystal_center,"ax",%progbits
 389              		.align	1
 390              		.global	find_crystal_center
 391              		.syntax unified
 392              		.thumb
 393              		.thumb_func
 395              	find_crystal_center:
 396              	.LVL35:
 397              	.LFB236:
  75:App/Src/calculate.c **** 
ARM GAS  C:\Users\86158\AppData\Local\Temp\ccP8sDIW.s 			page 11


  76:App/Src/calculate.c **** uint8_t find_crystal_center(uint8_t rtcNum)
  77:App/Src/calculate.c **** {
 398              		.loc 1 77 1 is_stmt 1 view -0
 399              		.cfi_startproc
 400              		@ args = 0, pretend = 0, frame = 8
 401              		@ frame_needed = 0, uses_anonymous_args = 0
 402              		.loc 1 77 1 is_stmt 0 view .LVU79
 403 0000 F0B5     		push	{r4, r5, r6, r7, lr}
 404              	.LCFI4:
 405              		.cfi_def_cfa_offset 20
 406              		.cfi_offset 4, -20
 407              		.cfi_offset 5, -16
 408              		.cfi_offset 6, -12
 409              		.cfi_offset 7, -8
 410              		.cfi_offset 14, -4
 411 0002 2DED028B 		vpush.64	{d8}
 412              	.LCFI5:
 413              		.cfi_def_cfa_offset 28
 414              		.cfi_offset 80, -28
 415              		.cfi_offset 81, -24
 416 0006 85B0     		sub	sp, sp, #20
 417              	.LCFI6:
 418              		.cfi_def_cfa_offset 48
 419 0008 0146     		mov	r1, r0
  78:App/Src/calculate.c **** 	float ppm[2] = {0};
 420              		.loc 1 78 2 is_stmt 1 view .LVU80
 421              		.loc 1 78 8 is_stmt 0 view .LVU81
 422 000a 0023     		movs	r3, #0
 423 000c 0293     		str	r3, [sp, #8]
 424 000e 0393     		str	r3, [sp, #12]
  79:App/Src/calculate.c **** 	float center = 0;
 425              		.loc 1 79 2 is_stmt 1 view .LVU82
 426              	.LVL36:
  80:App/Src/calculate.c **** 	float quick;
 427              		.loc 1 80 2 view .LVU83
  81:App/Src/calculate.c **** 	flash_test_data_read(&g_testData, rtcNum, TEST_CENTER);
 428              		.loc 1 81 2 view .LVU84
 429 0010 574C     		ldr	r4, .L43+8
 430 0012 3A22     		movs	r2, #58
 431 0014 2046     		mov	r0, r4
 432              	.LVL37:
 433              		.loc 1 81 2 is_stmt 0 view .LVU85
 434 0016 FFF7FEFF 		bl	flash_test_data_read
 435              	.LVL38:
  82:App/Src/calculate.c **** 	ppm[0] = g_testData.testCenter[0];
 436              		.loc 1 82 2 is_stmt 1 view .LVU86
 437              		.loc 1 82 32 is_stmt 0 view .LVU87
 438 001a D4ED0F8A 		vldr.32	s17, [r4, #60]
 439              		.loc 1 82 9 view .LVU88
 440 001e CDED028A 		vstr.32	s17, [sp, #8]
  83:App/Src/calculate.c **** 	ppm[1] = g_testData.testCenter[1];
 441              		.loc 1 83 2 is_stmt 1 view .LVU89
 442              		.loc 1 83 32 is_stmt 0 view .LVU90
 443 0022 94ED108A 		vldr.32	s16, [r4, #64]
 444              		.loc 1 83 9 view .LVU91
 445 0026 8DED038A 		vstr.32	s16, [sp, #12]
  84:App/Src/calculate.c **** 	UsbPrintf("temp:%.1f, ppm:%.1f\n", g_input[TEST_RTC_TEMP_F10], ppm[0]);
ARM GAS  C:\Users\86158\AppData\Local\Temp\ccP8sDIW.s 			page 12


 446              		.loc 1 84 2 is_stmt 1 view .LVU92
 447              		.loc 1 84 44 is_stmt 0 view .LVU93
 448 002a 524F     		ldr	r7, .L43+12
 449              		.loc 1 84 2 view .LVU94
 450 002c 7868     		ldr	r0, [r7, #4]	@ float
 451 002e FFF7FEFF 		bl	__aeabi_f2d
 452              	.LVL39:
 453 0032 0446     		mov	r4, r0
 454 0034 0D46     		mov	r5, r1
 455 0036 504E     		ldr	r6, .L43+16
 456 0038 18EE900A 		vmov	r0, s17
 457 003c FFF7FEFF 		bl	__aeabi_f2d
 458              	.LVL40:
 459 0040 CDE90001 		strd	r0, [sp]
 460 0044 2246     		mov	r2, r4
 461 0046 2B46     		mov	r3, r5
 462 0048 3046     		mov	r0, r6
 463 004a FFF7FEFF 		bl	UsbPrintf
 464              	.LVL41:
  85:App/Src/calculate.c **** 	UsbPrintf("temp:%.1f, ppm:%.1f\n", g_input[TEST_RTC_TEMP_Z60], ppm[1]);
 465              		.loc 1 85 2 is_stmt 1 view .LVU95
 466 004e F868     		ldr	r0, [r7, #12]	@ float
 467 0050 FFF7FEFF 		bl	__aeabi_f2d
 468              	.LVL42:
 469 0054 0446     		mov	r4, r0
 470 0056 0D46     		mov	r5, r1
 471 0058 18EE100A 		vmov	r0, s16
 472 005c FFF7FEFF 		bl	__aeabi_f2d
 473              	.LVL43:
 474 0060 CDE90001 		strd	r0, [sp]
 475 0064 2246     		mov	r2, r4
 476 0066 2B46     		mov	r3, r5
 477 0068 3046     		mov	r0, r6
 478 006a FFF7FEFF 		bl	UsbPrintf
 479              	.LVL44:
  86:App/Src/calculate.c **** 	quick = ppm[0] / ppm[1];
 480              		.loc 1 86 2 view .LVU96
 481              		.loc 1 86 8 is_stmt 0 view .LVU97
 482 006e C8EE887A 		vdiv.f32	s15, s17, s16
 483              	.LVL45:
  87:App/Src/calculate.c **** 	if (quick <= 0 ) {
 484              		.loc 1 87 2 is_stmt 1 view .LVU98
 485              		.loc 1 87 5 is_stmt 0 view .LVU99
 486 0072 F5EEC07A 		vcmpe.f32	s15, #0
 487 0076 F1EE10FA 		vmrs	APSR_nzcv, FPSCR
 488 007a 65D9     		bls	.L42
  88:App/Src/calculate.c **** 		UsbPrintf("check find center ppm error\n");
  89:App/Src/calculate.c **** 		return 0;
  90:App/Src/calculate.c **** 	}
  91:App/Src/calculate.c **** 	quick = sqrt(quick);
 489              		.loc 1 91 2 is_stmt 1 view .LVU100
 490              		.loc 1 91 10 is_stmt 0 view .LVU101
 491 007c 17EE900A 		vmov	r0, s15
 492 0080 FFF7FEFF 		bl	__aeabi_f2d
 493              	.LVL46:
 494              		.loc 1 91 10 view .LVU102
 495 0084 41EC100B 		vmov	d0, r0, r1
ARM GAS  C:\Users\86158\AppData\Local\Temp\ccP8sDIW.s 			page 13


 496 0088 FFF7FEFF 		bl	sqrt
 497              	.LVL47:
 498 008c 51EC100B 		vmov	r0, r1, d0
 499              		.loc 1 91 8 view .LVU103
 500 0090 FFF7FEFF 		bl	__aeabi_d2f
 501              	.LVL48:
 502 0094 07EE900A 		vmov	s15, r0
 503              	.LVL49:
  92:App/Src/calculate.c **** 	center = (g_input[TEST_RTC_TEMP_F10] + quick * g_input[TEST_RTC_TEMP_Z60]) / (1 + quick);
 504              		.loc 1 92 2 is_stmt 1 view .LVU104
 505              		.loc 1 92 19 is_stmt 0 view .LVU105
 506 0098 364E     		ldr	r6, .L43+12
 507 009a 96ED017A 		vldr.32	s14, [r6, #4]
 508              		.loc 1 92 56 view .LVU106
 509 009e D6ED036A 		vldr.32	s13, [r6, #12]
 510              		.loc 1 92 47 view .LVU107
 511 00a2 66EEA76A 		vmul.f32	s13, s13, s15
 512              		.loc 1 92 39 view .LVU108
 513 00a6 37EE267A 		vadd.f32	s14, s14, s13
 514              		.loc 1 92 82 view .LVU109
 515 00aa F7EE006A 		vmov.f32	s13, #1.0e+0
 516 00ae 77EEA67A 		vadd.f32	s15, s15, s13
 517              		.loc 1 92 9 view .LVU110
 518 00b2 C7EE278A 		vdiv.f32	s17, s14, s15
 519              	.LVL50:
  93:App/Src/calculate.c **** 	UsbPrintf("center:%.2f\n", center);	
 520              		.loc 1 93 2 is_stmt 1 view .LVU111
 521 00b6 18EE900A 		vmov	r0, s17
 522              	.LVL51:
 523              		.loc 1 93 2 is_stmt 0 view .LVU112
 524 00ba FFF7FEFF 		bl	__aeabi_f2d
 525              	.LVL52:
 526 00be 0446     		mov	r4, r0
 527 00c0 0D46     		mov	r5, r1
 528 00c2 2E4F     		ldr	r7, .L43+20
 529 00c4 0246     		mov	r2, r0
 530 00c6 0B46     		mov	r3, r1
 531 00c8 3846     		mov	r0, r7
 532 00ca FFF7FEFF 		bl	UsbPrintf
 533              	.LVL53:
  94:App/Src/calculate.c **** 	log_printf("center:%.2f\n", center);
 534              		.loc 1 94 2 is_stmt 1 view .LVU113
 535 00ce 2246     		mov	r2, r4
 536 00d0 2B46     		mov	r3, r5
 537 00d2 3846     		mov	r0, r7
 538 00d4 FFF7FEFF 		bl	log_printf
 539              	.LVL54:
  95:App/Src/calculate.c **** 	if ((center < g_input[TEST_RTC_TEMP_Z29] - FIND_CENTER_TEMP_ERROR) || (center > g_input[TEST_RTC_T
 540              		.loc 1 95 2 view .LVU114
 541              		.loc 1 95 23 is_stmt 0 view .LVU115
 542 00d8 96ED028A 		vldr.32	s16, [r6, #8]
 543              		.loc 1 95 43 view .LVU116
 544 00dc F3EE0E7A 		vmov.f32	s15, #3.0e+1
 545 00e0 78EE677A 		vsub.f32	s15, s16, s15
 546              		.loc 1 95 5 view .LVU117
 547 00e4 F4EEE87A 		vcmpe.f32	s15, s17
 548 00e8 F1EE10FA 		vmrs	APSR_nzcv, FPSCR
ARM GAS  C:\Users\86158\AppData\Local\Temp\ccP8sDIW.s 			page 14


 549 00ec 31DC     		bgt	.L35
 550              		.loc 1 95 109 discriminator 1 view .LVU118
 551 00ee F3EE0E7A 		vmov.f32	s15, #3.0e+1
 552 00f2 78EE277A 		vadd.f32	s15, s16, s15
 553              		.loc 1 95 69 discriminator 1 view .LVU119
 554 00f6 F4EEE87A 		vcmpe.f32	s15, s17
 555 00fa F1EE10FA 		vmrs	APSR_nzcv, FPSCR
 556 00fe 28D4     		bmi	.L35
  96:App/Src/calculate.c **** 		UsbPrintf("check find center ppm error\n");
  97:App/Src/calculate.c **** 		log_printf("check find center ppm error\n");
  98:App/Src/calculate.c **** 		return 0;
  99:App/Src/calculate.c **** 	}
 100:App/Src/calculate.c **** 	g_result[TEST_RTC_TEMP_Z29] = g_result[TEST_RTC_TEMP_Z29] + (center - g_input[TEST_RTC_TEMP_Z29]) 
 557              		.loc 1 100 2 is_stmt 1 view .LVU120
 558              		.loc 1 100 40 is_stmt 0 view .LVU121
 559 0100 1F4E     		ldr	r6, .L43+24
 560 0102 B068     		ldr	r0, [r6, #8]	@ float
 561 0104 FFF7FEFF 		bl	__aeabi_f2d
 562              	.LVL55:
 563 0108 0446     		mov	r4, r0
 564 010a 0D46     		mov	r5, r1
 565              		.loc 1 100 70 view .LVU122
 566 010c 38EEC88A 		vsub.f32	s16, s17, s16
 567              		.loc 1 100 100 view .LVU123
 568 0110 68EE087A 		vmul.f32	s15, s16, s16
 569 0114 17EE900A 		vmov	r0, s15
 570 0118 FFF7FEFF 		bl	__aeabi_f2d
 571              	.LVL56:
 572              		.loc 1 100 140 view .LVU124
 573 011c 12A3     		adr	r3, .L43
 574 011e D3E90023 		ldrd	r2, [r3]
 575 0122 FFF7FEFF 		bl	__aeabi_dmul
 576              	.LVL57:
 577 0126 0246     		mov	r2, r0
 578 0128 0B46     		mov	r3, r1
 579              		.loc 1 100 60 view .LVU125
 580 012a 2046     		mov	r0, r4
 581 012c 2946     		mov	r1, r5
 582 012e FFF7FEFF 		bl	__aeabi_dadd
 583              	.LVL58:
 584 0132 FFF7FEFF 		bl	__aeabi_d2f
 585              	.LVL59:
 586              		.loc 1 100 30 view .LVU126
 587 0136 B060     		str	r0, [r6, #8]	@ float
 101:App/Src/calculate.c **** 	g_input[TEST_RTC_TEMP_Z29] = center;
 588              		.loc 1 101 2 is_stmt 1 view .LVU127
 589              		.loc 1 101 29 is_stmt 0 view .LVU128
 590 0138 0E4B     		ldr	r3, .L43+12
 591 013a C3ED028A 		vstr.32	s17, [r3, #8]
 102:App/Src/calculate.c **** 	return 1;
 592              		.loc 1 102 2 is_stmt 1 view .LVU129
 593              		.loc 1 102 9 is_stmt 0 view .LVU130
 594 013e 0120     		movs	r0, #1
 595              	.LVL60:
 596              	.L34:
 103:App/Src/calculate.c **** }
 597              		.loc 1 103 1 view .LVU131
ARM GAS  C:\Users\86158\AppData\Local\Temp\ccP8sDIW.s 			page 15


 598 0140 05B0     		add	sp, sp, #20
 599              	.LCFI7:
 600              		.cfi_remember_state
 601              		.cfi_def_cfa_offset 28
 602              		@ sp needed
 603 0142 BDEC028B 		vldm	sp!, {d8}
 604              	.LCFI8:
 605              		.cfi_restore 80
 606              		.cfi_restore 81
 607              		.cfi_def_cfa_offset 20
 608 0146 F0BD     		pop	{r4, r5, r6, r7, pc}
 609              	.LVL61:
 610              	.L42:
 611              	.LCFI9:
 612              		.cfi_restore_state
  88:App/Src/calculate.c **** 		return 0;
 613              		.loc 1 88 3 is_stmt 1 view .LVU132
 614 0148 0E48     		ldr	r0, .L43+28
 615 014a FFF7FEFF 		bl	UsbPrintf
 616              	.LVL62:
  89:App/Src/calculate.c **** 	}
 617              		.loc 1 89 3 view .LVU133
  89:App/Src/calculate.c **** 	}
 618              		.loc 1 89 10 is_stmt 0 view .LVU134
 619 014e 0020     		movs	r0, #0
 620 0150 F6E7     		b	.L34
 621              	.LVL63:
 622              	.L35:
  96:App/Src/calculate.c **** 		log_printf("check find center ppm error\n");
 623              		.loc 1 96 3 is_stmt 1 view .LVU135
 624 0152 0C4C     		ldr	r4, .L43+28
 625 0154 2046     		mov	r0, r4
 626 0156 FFF7FEFF 		bl	UsbPrintf
 627              	.LVL64:
  97:App/Src/calculate.c **** 		return 0;
 628              		.loc 1 97 3 view .LVU136
 629 015a 2046     		mov	r0, r4
 630 015c FFF7FEFF 		bl	log_printf
 631              	.LVL65:
  98:App/Src/calculate.c **** 	}
 632              		.loc 1 98 3 view .LVU137
  98:App/Src/calculate.c **** 	}
 633              		.loc 1 98 10 is_stmt 0 view .LVU138
 634 0160 0020     		movs	r0, #0
 635 0162 EDE7     		b	.L34
 636              	.L44:
 637 0164 AFF30080 		.align	3
 638              	.L43:
 639 0168 BA490C02 		.word	34359738
 640 016c 2B87963F 		.word	1066829611
 641 0170 00000000 		.word	.LANCHOR0
 642 0174 00000000 		.word	.LANCHOR1
 643 0178 00000000 		.word	.LC5
 644 017c 38000000 		.word	.LC7
 645 0180 00000000 		.word	.LANCHOR2
 646 0184 18000000 		.word	.LC6
 647              		.cfi_endproc
ARM GAS  C:\Users\86158\AppData\Local\Temp\ccP8sDIW.s 			page 16


 648              	.LFE236:
 650              		.section	.text.find_crystal_center_bad,"ax",%progbits
 651              		.align	1
 652              		.global	find_crystal_center_bad
 653              		.syntax unified
 654              		.thumb
 655              		.thumb_func
 657              	find_crystal_center_bad:
 658              	.LVL66:
 659              	.LFB237:
 104:App/Src/calculate.c **** 
 105:App/Src/calculate.c **** uint8_t find_crystal_center_bad(uint8_t rtcNum)
 106:App/Src/calculate.c **** {
 660              		.loc 1 106 1 is_stmt 1 view -0
 661              		.cfi_startproc
 662              		@ args = 0, pretend = 0, frame = 8
 663              		@ frame_needed = 0, uses_anonymous_args = 0
 664              		.loc 1 106 1 is_stmt 0 view .LVU140
 665 0000 F0B5     		push	{r4, r5, r6, r7, lr}
 666              	.LCFI10:
 667              		.cfi_def_cfa_offset 20
 668              		.cfi_offset 4, -20
 669              		.cfi_offset 5, -16
 670              		.cfi_offset 6, -12
 671              		.cfi_offset 7, -8
 672              		.cfi_offset 14, -4
 673 0002 2DED028B 		vpush.64	{d8}
 674              	.LCFI11:
 675              		.cfi_def_cfa_offset 28
 676              		.cfi_offset 80, -28
 677              		.cfi_offset 81, -24
 678 0006 85B0     		sub	sp, sp, #20
 679              	.LCFI12:
 680              		.cfi_def_cfa_offset 48
 681 0008 0146     		mov	r1, r0
 107:App/Src/calculate.c **** 	float ppm[2] = {0};
 682              		.loc 1 107 2 is_stmt 1 view .LVU141
 683              		.loc 1 107 8 is_stmt 0 view .LVU142
 684 000a 0023     		movs	r3, #0
 685 000c 0293     		str	r3, [sp, #8]
 686 000e 0393     		str	r3, [sp, #12]
 108:App/Src/calculate.c **** 	float center = 0;
 687              		.loc 1 108 2 is_stmt 1 view .LVU143
 688              	.LVL67:
 109:App/Src/calculate.c **** 	float quick;
 689              		.loc 1 109 2 view .LVU144
 110:App/Src/calculate.c **** 	flash_test_data_read(&g_testData, rtcNum, TEST_CENTER);
 690              		.loc 1 110 2 view .LVU145
 691 0010 574C     		ldr	r4, .L57+8
 692 0012 3A22     		movs	r2, #58
 693 0014 2046     		mov	r0, r4
 694              	.LVL68:
 695              		.loc 1 110 2 is_stmt 0 view .LVU146
 696 0016 FFF7FEFF 		bl	flash_test_data_read
 697              	.LVL69:
 111:App/Src/calculate.c **** 	ppm[0] = g_testData.testCenter[0];
 698              		.loc 1 111 2 is_stmt 1 view .LVU147
ARM GAS  C:\Users\86158\AppData\Local\Temp\ccP8sDIW.s 			page 17


 699              		.loc 1 111 32 is_stmt 0 view .LVU148
 700 001a D4ED0F8A 		vldr.32	s17, [r4, #60]
 701              		.loc 1 111 9 view .LVU149
 702 001e CDED028A 		vstr.32	s17, [sp, #8]
 112:App/Src/calculate.c **** 	ppm[1] = g_testData.testCenter[1];
 703              		.loc 1 112 2 is_stmt 1 view .LVU150
 704              		.loc 1 112 32 is_stmt 0 view .LVU151
 705 0022 94ED108A 		vldr.32	s16, [r4, #64]
 706              		.loc 1 112 9 view .LVU152
 707 0026 8DED038A 		vstr.32	s16, [sp, #12]
 113:App/Src/calculate.c **** 	UsbPrintf("temp:%.1f, ppm:%.1f\n", g_input[TEST_RTC_TEMP_F40], ppm[0]);
 708              		.loc 1 113 2 is_stmt 1 view .LVU153
 709              		.loc 1 113 44 is_stmt 0 view .LVU154
 710 002a 524F     		ldr	r7, .L57+12
 711              		.loc 1 113 2 view .LVU155
 712 002c 3868     		ldr	r0, [r7]	@ float
 713 002e FFF7FEFF 		bl	__aeabi_f2d
 714              	.LVL70:
 715 0032 0446     		mov	r4, r0
 716 0034 0D46     		mov	r5, r1
 717 0036 504E     		ldr	r6, .L57+16
 718 0038 18EE900A 		vmov	r0, s17
 719 003c FFF7FEFF 		bl	__aeabi_f2d
 720              	.LVL71:
 721 0040 CDE90001 		strd	r0, [sp]
 722 0044 2246     		mov	r2, r4
 723 0046 2B46     		mov	r3, r5
 724 0048 3046     		mov	r0, r6
 725 004a FFF7FEFF 		bl	UsbPrintf
 726              	.LVL72:
 114:App/Src/calculate.c **** 	UsbPrintf("temp:%.1f, ppm:%.1f\n", g_input[TEST_RTC_TEMP_Z85], ppm[1]);
 727              		.loc 1 114 2 is_stmt 1 view .LVU156
 728 004e 3869     		ldr	r0, [r7, #16]	@ float
 729 0050 FFF7FEFF 		bl	__aeabi_f2d
 730              	.LVL73:
 731 0054 0446     		mov	r4, r0
 732 0056 0D46     		mov	r5, r1
 733 0058 18EE100A 		vmov	r0, s16
 734 005c FFF7FEFF 		bl	__aeabi_f2d
 735              	.LVL74:
 736 0060 CDE90001 		strd	r0, [sp]
 737 0064 2246     		mov	r2, r4
 738 0066 2B46     		mov	r3, r5
 739 0068 3046     		mov	r0, r6
 740 006a FFF7FEFF 		bl	UsbPrintf
 741              	.LVL75:
 115:App/Src/calculate.c **** 	quick = ppm[0] / ppm[1];
 742              		.loc 1 115 2 view .LVU157
 743              		.loc 1 115 8 is_stmt 0 view .LVU158
 744 006e C8EE887A 		vdiv.f32	s15, s17, s16
 745              	.LVL76:
 116:App/Src/calculate.c **** 	if (quick <= 0 ) {
 746              		.loc 1 116 2 is_stmt 1 view .LVU159
 747              		.loc 1 116 5 is_stmt 0 view .LVU160
 748 0072 F5EEC07A 		vcmpe.f32	s15, #0
 749 0076 F1EE10FA 		vmrs	APSR_nzcv, FPSCR
 750 007a 65D9     		bls	.L56
ARM GAS  C:\Users\86158\AppData\Local\Temp\ccP8sDIW.s 			page 18


 117:App/Src/calculate.c **** 		UsbPrintf("check find center ppm error\n");
 118:App/Src/calculate.c **** 		return 0;
 119:App/Src/calculate.c **** 	}
 120:App/Src/calculate.c **** 	quick = sqrt(quick);
 751              		.loc 1 120 2 is_stmt 1 view .LVU161
 752              		.loc 1 120 10 is_stmt 0 view .LVU162
 753 007c 17EE900A 		vmov	r0, s15
 754 0080 FFF7FEFF 		bl	__aeabi_f2d
 755              	.LVL77:
 756              		.loc 1 120 10 view .LVU163
 757 0084 41EC100B 		vmov	d0, r0, r1
 758 0088 FFF7FEFF 		bl	sqrt
 759              	.LVL78:
 760 008c 51EC100B 		vmov	r0, r1, d0
 761              		.loc 1 120 8 view .LVU164
 762 0090 FFF7FEFF 		bl	__aeabi_d2f
 763              	.LVL79:
 764 0094 07EE900A 		vmov	s15, r0
 765              	.LVL80:
 121:App/Src/calculate.c **** 	center = (g_input[TEST_RTC_TEMP_F40] + quick * g_input[TEST_RTC_TEMP_Z85]) / (1 + quick);
 766              		.loc 1 121 2 is_stmt 1 view .LVU165
 767              		.loc 1 121 19 is_stmt 0 view .LVU166
 768 0098 364E     		ldr	r6, .L57+12
 769 009a 96ED007A 		vldr.32	s14, [r6]
 770              		.loc 1 121 56 view .LVU167
 771 009e D6ED046A 		vldr.32	s13, [r6, #16]
 772              		.loc 1 121 47 view .LVU168
 773 00a2 66EEA76A 		vmul.f32	s13, s13, s15
 774              		.loc 1 121 39 view .LVU169
 775 00a6 37EE267A 		vadd.f32	s14, s14, s13
 776              		.loc 1 121 82 view .LVU170
 777 00aa F7EE006A 		vmov.f32	s13, #1.0e+0
 778 00ae 77EEA67A 		vadd.f32	s15, s15, s13
 779              		.loc 1 121 9 view .LVU171
 780 00b2 C7EE278A 		vdiv.f32	s17, s14, s15
 781              	.LVL81:
 122:App/Src/calculate.c **** 	UsbPrintf("center:%.2f\n", center);	
 782              		.loc 1 122 2 is_stmt 1 view .LVU172
 783 00b6 18EE900A 		vmov	r0, s17
 784              	.LVL82:
 785              		.loc 1 122 2 is_stmt 0 view .LVU173
 786 00ba FFF7FEFF 		bl	__aeabi_f2d
 787              	.LVL83:
 788 00be 0446     		mov	r4, r0
 789 00c0 0D46     		mov	r5, r1
 790 00c2 2E4F     		ldr	r7, .L57+20
 791 00c4 0246     		mov	r2, r0
 792 00c6 0B46     		mov	r3, r1
 793 00c8 3846     		mov	r0, r7
 794 00ca FFF7FEFF 		bl	UsbPrintf
 795              	.LVL84:
 123:App/Src/calculate.c **** 	log_printf("center:%.2f\n", center);
 796              		.loc 1 123 2 is_stmt 1 view .LVU174
 797 00ce 2246     		mov	r2, r4
 798 00d0 2B46     		mov	r3, r5
 799 00d2 3846     		mov	r0, r7
 800 00d4 FFF7FEFF 		bl	log_printf
ARM GAS  C:\Users\86158\AppData\Local\Temp\ccP8sDIW.s 			page 19


 801              	.LVL85:
 124:App/Src/calculate.c **** 	if ((center < g_input[TEST_RTC_TEMP_Z29] - FIND_CENTER_TEMP_ERROR) || (center > g_input[TEST_RTC_T
 802              		.loc 1 124 2 view .LVU175
 803              		.loc 1 124 23 is_stmt 0 view .LVU176
 804 00d8 96ED028A 		vldr.32	s16, [r6, #8]
 805              		.loc 1 124 43 view .LVU177
 806 00dc F3EE0E7A 		vmov.f32	s15, #3.0e+1
 807 00e0 78EE677A 		vsub.f32	s15, s16, s15
 808              		.loc 1 124 5 view .LVU178
 809 00e4 F4EEE87A 		vcmpe.f32	s15, s17
 810 00e8 F1EE10FA 		vmrs	APSR_nzcv, FPSCR
 811 00ec 31DC     		bgt	.L49
 812              		.loc 1 124 109 discriminator 1 view .LVU179
 813 00ee F3EE0E7A 		vmov.f32	s15, #3.0e+1
 814 00f2 78EE277A 		vadd.f32	s15, s16, s15
 815              		.loc 1 124 69 discriminator 1 view .LVU180
 816 00f6 F4EEE87A 		vcmpe.f32	s15, s17
 817 00fa F1EE10FA 		vmrs	APSR_nzcv, FPSCR
 818 00fe 28D4     		bmi	.L49
 125:App/Src/calculate.c **** 		UsbPrintf("check find center ppm error\n");
 126:App/Src/calculate.c **** 		log_printf("check find center ppm error\n");
 127:App/Src/calculate.c **** 		return 0;
 128:App/Src/calculate.c **** 	}
 129:App/Src/calculate.c **** 	g_result[TEST_RTC_TEMP_Z29] = g_result[TEST_RTC_TEMP_Z29] + (center - g_input[TEST_RTC_TEMP_Z29]) 
 819              		.loc 1 129 2 is_stmt 1 view .LVU181
 820              		.loc 1 129 40 is_stmt 0 view .LVU182
 821 0100 1F4E     		ldr	r6, .L57+24
 822 0102 B068     		ldr	r0, [r6, #8]	@ float
 823 0104 FFF7FEFF 		bl	__aeabi_f2d
 824              	.LVL86:
 825 0108 0446     		mov	r4, r0
 826 010a 0D46     		mov	r5, r1
 827              		.loc 1 129 70 view .LVU183
 828 010c 38EEC88A 		vsub.f32	s16, s17, s16
 829              		.loc 1 129 100 view .LVU184
 830 0110 68EE087A 		vmul.f32	s15, s16, s16
 831 0114 17EE900A 		vmov	r0, s15
 832 0118 FFF7FEFF 		bl	__aeabi_f2d
 833              	.LVL87:
 834              		.loc 1 129 140 view .LVU185
 835 011c 12A3     		adr	r3, .L57
 836 011e D3E90023 		ldrd	r2, [r3]
 837 0122 FFF7FEFF 		bl	__aeabi_dmul
 838              	.LVL88:
 839 0126 0246     		mov	r2, r0
 840 0128 0B46     		mov	r3, r1
 841              		.loc 1 129 60 view .LVU186
 842 012a 2046     		mov	r0, r4
 843 012c 2946     		mov	r1, r5
 844 012e FFF7FEFF 		bl	__aeabi_dadd
 845              	.LVL89:
 846 0132 FFF7FEFF 		bl	__aeabi_d2f
 847              	.LVL90:
 848              		.loc 1 129 30 view .LVU187
 849 0136 B060     		str	r0, [r6, #8]	@ float
 130:App/Src/calculate.c **** 	g_input[TEST_RTC_TEMP_Z29] = center;
 850              		.loc 1 130 2 is_stmt 1 view .LVU188
ARM GAS  C:\Users\86158\AppData\Local\Temp\ccP8sDIW.s 			page 20


 851              		.loc 1 130 29 is_stmt 0 view .LVU189
 852 0138 0E4B     		ldr	r3, .L57+12
 853 013a C3ED028A 		vstr.32	s17, [r3, #8]
 131:App/Src/calculate.c **** 	return 1;
 854              		.loc 1 131 2 is_stmt 1 view .LVU190
 855              		.loc 1 131 9 is_stmt 0 view .LVU191
 856 013e 0120     		movs	r0, #1
 857              	.LVL91:
 858              	.L48:
 132:App/Src/calculate.c **** }
 859              		.loc 1 132 1 view .LVU192
 860 0140 05B0     		add	sp, sp, #20
 861              	.LCFI13:
 862              		.cfi_remember_state
 863              		.cfi_def_cfa_offset 28
 864              		@ sp needed
 865 0142 BDEC028B 		vldm	sp!, {d8}
 866              	.LCFI14:
 867              		.cfi_restore 80
 868              		.cfi_restore 81
 869              		.cfi_def_cfa_offset 20
 870 0146 F0BD     		pop	{r4, r5, r6, r7, pc}
 871              	.LVL92:
 872              	.L56:
 873              	.LCFI15:
 874              		.cfi_restore_state
 117:App/Src/calculate.c **** 		return 0;
 875              		.loc 1 117 3 is_stmt 1 view .LVU193
 876 0148 0E48     		ldr	r0, .L57+28
 877 014a FFF7FEFF 		bl	UsbPrintf
 878              	.LVL93:
 118:App/Src/calculate.c **** 	}
 879              		.loc 1 118 3 view .LVU194
 118:App/Src/calculate.c **** 	}
 880              		.loc 1 118 10 is_stmt 0 view .LVU195
 881 014e 0020     		movs	r0, #0
 882 0150 F6E7     		b	.L48
 883              	.LVL94:
 884              	.L49:
 125:App/Src/calculate.c **** 		log_printf("check find center ppm error\n");
 885              		.loc 1 125 3 is_stmt 1 view .LVU196
 886 0152 0C4C     		ldr	r4, .L57+28
 887 0154 2046     		mov	r0, r4
 888 0156 FFF7FEFF 		bl	UsbPrintf
 889              	.LVL95:
 126:App/Src/calculate.c **** 		return 0;
 890              		.loc 1 126 3 view .LVU197
 891 015a 2046     		mov	r0, r4
 892 015c FFF7FEFF 		bl	log_printf
 893              	.LVL96:
 127:App/Src/calculate.c **** 	}
 894              		.loc 1 127 3 view .LVU198
 127:App/Src/calculate.c **** 	}
 895              		.loc 1 127 10 is_stmt 0 view .LVU199
 896 0160 0020     		movs	r0, #0
 897 0162 EDE7     		b	.L48
 898              	.L58:
ARM GAS  C:\Users\86158\AppData\Local\Temp\ccP8sDIW.s 			page 21


 899 0164 AFF30080 		.align	3
 900              	.L57:
 901 0168 BA490C02 		.word	34359738
 902 016c 2B87963F 		.word	1066829611
 903 0170 00000000 		.word	.LANCHOR0
 904 0174 00000000 		.word	.LANCHOR1
 905 0178 00000000 		.word	.LC5
 906 017c 38000000 		.word	.LC7
 907 0180 00000000 		.word	.LANCHOR2
 908 0184 18000000 		.word	.LC6
 909              		.cfi_endproc
 910              	.LFE237:
 912              		.section	.text.copy_parameter,"ax",%progbits
 913              		.align	1
 914              		.global	copy_parameter
 915              		.syntax unified
 916              		.thumb
 917              		.thumb_func
 919              	copy_parameter:
 920              	.LVL97:
 921              	.LFB238:
 133:App/Src/calculate.c **** 
 134:App/Src/calculate.c **** void copy_parameter(Parameter* target, Parameter* source)
 135:App/Src/calculate.c **** {
 922              		.loc 1 135 1 is_stmt 1 view -0
 923              		.cfi_startproc
 924              		@ args = 0, pretend = 0, frame = 0
 925              		@ frame_needed = 0, uses_anonymous_args = 0
 926              		@ link register save eliminated.
 136:App/Src/calculate.c **** 		target->A = source->A;
 927              		.loc 1 136 3 view .LVU201
 928              		.loc 1 136 21 is_stmt 0 view .LVU202
 929 0000 0B68     		ldr	r3, [r1]	@ float
 930              		.loc 1 136 13 view .LVU203
 931 0002 0360     		str	r3, [r0]	@ float
 137:App/Src/calculate.c **** 		target->B = source->B;
 932              		.loc 1 137 3 is_stmt 1 view .LVU204
 933              		.loc 1 137 21 is_stmt 0 view .LVU205
 934 0004 4B68     		ldr	r3, [r1, #4]	@ float
 935              		.loc 1 137 13 view .LVU206
 936 0006 4360     		str	r3, [r0, #4]	@ float
 138:App/Src/calculate.c **** 		target->C = source->C;
 937              		.loc 1 138 3 is_stmt 1 view .LVU207
 938              		.loc 1 138 21 is_stmt 0 view .LVU208
 939 0008 CB68     		ldr	r3, [r1, #12]	@ float
 940              		.loc 1 138 13 view .LVU209
 941 000a C360     		str	r3, [r0, #12]	@ float
 139:App/Src/calculate.c **** 		target->X0 = source->X0;
 942              		.loc 1 139 3 is_stmt 1 view .LVU210
 943              		.loc 1 139 22 is_stmt 0 view .LVU211
 944 000c 8B68     		ldr	r3, [r1, #8]	@ float
 945              		.loc 1 139 14 view .LVU212
 946 000e 8360     		str	r3, [r0, #8]	@ float
 140:App/Src/calculate.c **** 		target->mode = source->mode;
 947              		.loc 1 140 3 is_stmt 1 view .LVU213
 948              		.loc 1 140 24 is_stmt 0 view .LVU214
 949 0010 0B7C     		ldrb	r3, [r1, #16]	@ zero_extendqisi2
ARM GAS  C:\Users\86158\AppData\Local\Temp\ccP8sDIW.s 			page 22


 950              		.loc 1 140 16 view .LVU215
 951 0012 0374     		strb	r3, [r0, #16]
 141:App/Src/calculate.c **** }
 952              		.loc 1 141 1 view .LVU216
 953 0014 7047     		bx	lr
 954              		.cfi_endproc
 955              	.LFE238:
 957              		.section	.text.chip_temp_function,"ax",%progbits
 958              		.align	1
 959              		.global	chip_temp_function
 960              		.syntax unified
 961              		.thumb
 962              		.thumb_func
 964              	chip_temp_function:
 965              	.LVL98:
 966              	.LFB239:
 142:App/Src/calculate.c **** 
 143:App/Src/calculate.c **** float chip_temp_function(float tem, Parameter cac)
 144:App/Src/calculate.c **** {
 967              		.loc 1 144 1 is_stmt 1 view -0
 968              		.cfi_startproc
 969              		@ args = 20, pretend = 16, frame = 0
 970              		@ frame_needed = 0, uses_anonymous_args = 0
 971              		.loc 1 144 1 is_stmt 0 view .LVU218
 972 0000 84B0     		sub	sp, sp, #16
 973              	.LCFI16:
 974              		.cfi_def_cfa_offset 16
 975 0002 70B5     		push	{r4, r5, r6, lr}
 976              	.LCFI17:
 977              		.cfi_def_cfa_offset 32
 978              		.cfi_offset 4, -32
 979              		.cfi_offset 5, -28
 980              		.cfi_offset 6, -24
 981              		.cfi_offset 14, -20
 982 0004 04AC     		add	r4, sp, #16
 983 0006 84E80F00 		stm	r4, {r0, r1, r2, r3}
 145:App/Src/calculate.c **** 		float target, quick;
 984              		.loc 1 145 3 is_stmt 1 view .LVU219
 146:App/Src/calculate.c **** 		if (cac.B != 0)	{
 985              		.loc 1 146 3 view .LVU220
 986              		.loc 1 146 10 is_stmt 0 view .LVU221
 987 000a DDED057A 		vldr.32	s15, [sp, #20]
 988              		.loc 1 146 6 view .LVU222
 989 000e F5EE407A 		vcmp.f32	s15, #0
 990 0012 F1EE10FA 		vmrs	APSR_nzcv, FPSCR
 991 0016 31D0     		beq	.L64
 147:App/Src/calculate.c **** 				quick = (float)(tem - cac.X0) / cac.B;
 992              		.loc 1 147 5 is_stmt 1 view .LVU223
 993              		.loc 1 147 30 is_stmt 0 view .LVU224
 994 0018 9DED067A 		vldr.32	s14, [sp, #24]
 995              		.loc 1 147 13 view .LVU225
 996 001c 30EE470A 		vsub.f32	s0, s0, s14
 997              	.LVL99:
 998              		.loc 1 147 11 view .LVU226
 999 0020 C0EE277A 		vdiv.f32	s15, s0, s15
 1000 0024 17EE906A 		vmov	r6, s15
 1001              	.LVL100:
ARM GAS  C:\Users\86158\AppData\Local\Temp\ccP8sDIW.s 			page 23


 1002              	.L61:
 148:App/Src/calculate.c **** 		} else {
 149:App/Src/calculate.c **** 				quick = 0;
 150:App/Src/calculate.c **** 		}
 151:App/Src/calculate.c **** 		if (cac.mode == 0) {
 1003              		.loc 1 151 3 is_stmt 1 view .LVU227
 1004              		.loc 1 151 10 is_stmt 0 view .LVU228
 1005 0028 9DF82030 		ldrb	r3, [sp, #32]	@ zero_extendqisi2
 1006              		.loc 1 151 6 view .LVU229
 1007 002c 43BB     		cbnz	r3, .L62
 152:App/Src/calculate.c **** 			target = cac.A  * log(cosh(quick)) + cac.C;
 1008              		.loc 1 152 4 is_stmt 1 view .LVU230
 1009              		.loc 1 152 16 is_stmt 0 view .LVU231
 1010 002e 0498     		ldr	r0, [sp, #16]	@ float
 1011 0030 FFF7FEFF 		bl	__aeabi_f2d
 1012              	.LVL101:
 1013 0034 0446     		mov	r4, r0
 1014 0036 0D46     		mov	r5, r1
 1015              		.loc 1 152 22 view .LVU232
 1016 0038 3046     		mov	r0, r6	@ float
 1017 003a FFF7FEFF 		bl	__aeabi_f2d
 1018              	.LVL102:
 1019 003e 41EC100B 		vmov	d0, r0, r1
 1020 0042 FFF7FEFF 		bl	cosh
 1021              	.LVL103:
 1022 0046 FFF7FEFF 		bl	log
 1023              	.LVL104:
 1024 004a 53EC102B 		vmov	r2, r3, d0
 1025              		.loc 1 152 20 view .LVU233
 1026 004e 2046     		mov	r0, r4
 1027 0050 2946     		mov	r1, r5
 1028 0052 FFF7FEFF 		bl	__aeabi_dmul
 1029              	.LVL105:
 1030 0056 0446     		mov	r4, r0
 1031 0058 0D46     		mov	r5, r1
 1032              		.loc 1 152 44 view .LVU234
 1033 005a 0798     		ldr	r0, [sp, #28]	@ float
 1034 005c FFF7FEFF 		bl	__aeabi_f2d
 1035              	.LVL106:
 1036 0060 0246     		mov	r2, r0
 1037 0062 0B46     		mov	r3, r1
 1038              		.loc 1 152 39 view .LVU235
 1039 0064 2046     		mov	r0, r4
 1040 0066 2946     		mov	r1, r5
 1041 0068 FFF7FEFF 		bl	__aeabi_dadd
 1042              	.LVL107:
 1043              		.loc 1 152 11 view .LVU236
 1044 006c FFF7FEFF 		bl	__aeabi_d2f
 1045              	.LVL108:
 1046 0070 00EE100A 		vmov	s0, r0
 1047              	.LVL109:
 1048              	.L60:
 153:App/Src/calculate.c **** 		} else {
 154:App/Src/calculate.c **** 			target = cac.A  * cosh(quick) + cac.C;
 155:App/Src/calculate.c **** 		}
 156:App/Src/calculate.c **** 		return target;
 157:App/Src/calculate.c **** }
ARM GAS  C:\Users\86158\AppData\Local\Temp\ccP8sDIW.s 			page 24


 1049              		.loc 1 157 1 view .LVU237
 1050 0074 BDE87040 		pop	{r4, r5, r6, lr}
 1051              	.LCFI18:
 1052              		.cfi_remember_state
 1053              		.cfi_restore 14
 1054              		.cfi_restore 6
 1055              		.cfi_restore 5
 1056              		.cfi_restore 4
 1057              		.cfi_def_cfa_offset 16
 1058              	.LVL110:
 1059              		.loc 1 157 1 view .LVU238
 1060 0078 04B0     		add	sp, sp, #16
 1061              	.LCFI19:
 1062              		.cfi_def_cfa_offset 0
 1063 007a 7047     		bx	lr
 1064              	.LVL111:
 1065              	.L64:
 1066              	.LCFI20:
 1067              		.cfi_restore_state
 149:App/Src/calculate.c **** 		}
 1068              		.loc 1 149 11 view .LVU239
 1069 007c 0026     		movs	r6, #0
 1070 007e D3E7     		b	.L61
 1071              	.LVL112:
 1072              	.L62:
 154:App/Src/calculate.c **** 		}
 1073              		.loc 1 154 4 is_stmt 1 view .LVU240
 154:App/Src/calculate.c **** 		}
 1074              		.loc 1 154 16 is_stmt 0 view .LVU241
 1075 0080 0498     		ldr	r0, [sp, #16]	@ float
 1076 0082 FFF7FEFF 		bl	__aeabi_f2d
 1077              	.LVL113:
 1078 0086 0446     		mov	r4, r0
 1079 0088 0D46     		mov	r5, r1
 154:App/Src/calculate.c **** 		}
 1080              		.loc 1 154 22 view .LVU242
 1081 008a 3046     		mov	r0, r6	@ float
 1082 008c FFF7FEFF 		bl	__aeabi_f2d
 1083              	.LVL114:
 1084 0090 41EC100B 		vmov	d0, r0, r1
 1085 0094 FFF7FEFF 		bl	cosh
 1086              	.LVL115:
 1087 0098 53EC102B 		vmov	r2, r3, d0
 154:App/Src/calculate.c **** 		}
 1088              		.loc 1 154 20 view .LVU243
 1089 009c 2046     		mov	r0, r4
 1090 009e 2946     		mov	r1, r5
 1091 00a0 FFF7FEFF 		bl	__aeabi_dmul
 1092              	.LVL116:
 1093 00a4 0446     		mov	r4, r0
 1094 00a6 0D46     		mov	r5, r1
 154:App/Src/calculate.c **** 		}
 1095              		.loc 1 154 39 view .LVU244
 1096 00a8 0798     		ldr	r0, [sp, #28]	@ float
 1097 00aa FFF7FEFF 		bl	__aeabi_f2d
 1098              	.LVL117:
 1099 00ae 0246     		mov	r2, r0
ARM GAS  C:\Users\86158\AppData\Local\Temp\ccP8sDIW.s 			page 25


 1100 00b0 0B46     		mov	r3, r1
 154:App/Src/calculate.c **** 		}
 1101              		.loc 1 154 34 view .LVU245
 1102 00b2 2046     		mov	r0, r4
 1103 00b4 2946     		mov	r1, r5
 1104 00b6 FFF7FEFF 		bl	__aeabi_dadd
 1105              	.LVL118:
 154:App/Src/calculate.c **** 		}
 1106              		.loc 1 154 11 view .LVU246
 1107 00ba FFF7FEFF 		bl	__aeabi_d2f
 1108              	.LVL119:
 1109 00be 00EE100A 		vmov	s0, r0
 1110              	.LVL120:
 156:App/Src/calculate.c **** }
 1111              		.loc 1 156 3 is_stmt 1 view .LVU247
 156:App/Src/calculate.c **** }
 1112              		.loc 1 156 10 is_stmt 0 view .LVU248
 1113 00c2 D7E7     		b	.L60
 1114              		.cfi_endproc
 1115              	.LFE239:
 1117              		.global	__aeabi_ddiv
 1118              		.section	.rodata.init_para_3dot.str1.4,"aMS",%progbits,1
 1119              		.align	2
 1120              	.LC8:
 1121 0000 6C656674 		.ascii	"left:\011A:%.2f, B:%.2f, C:%.2f; X0:%.2f, mode:%d\012"
 1121      3A09413A 
 1121      252E3266 
 1121      2C20423A 
 1121      252E3266 
 1122 002f 00       		.ascii	"\000"
 1123              		.global	__aeabi_dsub
 1124              		.align	2
 1125              	.LC9:
 1126 0030 72696768 		.ascii	"right:\011A:%.2f, B:%.2f, C:%.2f; X0:%.2f, mode:%d\012"
 1126      743A0941 
 1126      3A252E32 
 1126      662C2042 
 1126      3A252E32 
 1127 0060 00       		.ascii	"\000"
 1128 0061 000000   		.align	2
 1129              	.LC10:
 1130 0064 70617261 		.ascii	"parameter 3dot init success!\012\000"
 1130      6D657465 
 1130      72203364 
 1130      6F742069 
 1130      6E697420 
 1131              		.section	.text.init_para_3dot,"ax",%progbits
 1132              		.align	1
 1133              		.global	init_para_3dot
 1134              		.syntax unified
 1135              		.thumb
 1136              		.thumb_func
 1138              	init_para_3dot:
 1139              	.LFB240:
 158:App/Src/calculate.c **** 
 159:App/Src/calculate.c **** uint8_t init_para_3dot(void)
 160:App/Src/calculate.c **** {
ARM GAS  C:\Users\86158\AppData\Local\Temp\ccP8sDIW.s 			page 26


 1140              		.loc 1 160 1 is_stmt 1 view -0
 1141              		.cfi_startproc
 1142              		@ args = 0, pretend = 0, frame = 32
 1143              		@ frame_needed = 0, uses_anonymous_args = 0
 1144 0000 2DE9F04F 		push	{r4, r5, r6, r7, r8, r9, r10, fp, lr}
 1145              	.LCFI21:
 1146              		.cfi_def_cfa_offset 36
 1147              		.cfi_offset 4, -36
 1148              		.cfi_offset 5, -32
 1149              		.cfi_offset 6, -28
 1150              		.cfi_offset 7, -24
 1151              		.cfi_offset 8, -20
 1152              		.cfi_offset 9, -16
 1153              		.cfi_offset 10, -12
 1154              		.cfi_offset 11, -8
 1155              		.cfi_offset 14, -4
 1156 0004 2DED028B 		vpush.64	{d8}
 1157              	.LCFI22:
 1158              		.cfi_def_cfa_offset 44
 1159              		.cfi_offset 80, -44
 1160              		.cfi_offset 81, -40
 1161 0008 91B0     		sub	sp, sp, #68
 1162              	.LCFI23:
 1163              		.cfi_def_cfa_offset 112
 161:App/Src/calculate.c **** 	Parameter cac = {0};
 1164              		.loc 1 161 2 view .LVU250
 1165              		.loc 1 161 12 is_stmt 0 view .LVU251
 1166 000a 0024     		movs	r4, #0
 1167 000c 0B94     		str	r4, [sp, #44]
 1168 000e 0C94     		str	r4, [sp, #48]
 1169 0010 0D94     		str	r4, [sp, #52]
 1170 0012 0E94     		str	r4, [sp, #56]
 1171 0014 0F94     		str	r4, [sp, #60]
 162:App/Src/calculate.c **** 
 163:App/Src/calculate.c **** 	cac.X0 = g_input[TEST_RTC_TEMP_Z29];
 1172              		.loc 1 163 2 is_stmt 1 view .LVU252
 1173              		.loc 1 163 18 is_stmt 0 view .LVU253
 1174 0016 654E     		ldr	r6, .L68
 1175 0018 D6ED028A 		vldr.32	s17, [r6, #8]
 1176              		.loc 1 163 9 view .LVU254
 1177 001c CDED0D8A 		vstr.32	s17, [sp, #52]
 164:App/Src/calculate.c **** 	cac.C = g_result[TEST_RTC_TEMP_Z29];
 1178              		.loc 1 164 2 is_stmt 1 view .LVU255
 1179              		.loc 1 164 18 is_stmt 0 view .LVU256
 1180 0020 634D     		ldr	r5, .L68+4
 1181 0022 D5ED027A 		vldr.32	s15, [r5, #8]
 1182              		.loc 1 164 8 view .LVU257
 1183 0026 CDED0E7A 		vstr.32	s15, [sp, #56]
 165:App/Src/calculate.c **** 	cac.B = 110;// 
 1184              		.loc 1 165 2 is_stmt 1 view .LVU258
 1185              		.loc 1 165 8 is_stmt 0 view .LVU259
 1186 002a 9FED628A 		vldr.32	s16, .L68+8
 1187 002e 8DED0C8A 		vstr.32	s16, [sp, #48]
 166:App/Src/calculate.c **** 	cac.A = (g_result[TEST_RTC_TEMP_F40] - cac.C) / log(cosh((g_input[TEST_RTC_TEMP_F40] - cac.X0) / c
 1188              		.loc 1 166 2 is_stmt 1 view .LVU260
 1189              		.loc 1 166 19 is_stmt 0 view .LVU261
 1190 0032 95ED007A 		vldr.32	s14, [r5]
ARM GAS  C:\Users\86158\AppData\Local\Temp\ccP8sDIW.s 			page 27


 1191              		.loc 1 166 39 view .LVU262
 1192 0036 77EE677A 		vsub.f32	s15, s14, s15
 1193 003a 17EE900A 		vmov	r0, s15
 1194 003e FFF7FEFF 		bl	__aeabi_f2d
 1195              	.LVL121:
 1196 0042 8046     		mov	r8, r0
 1197 0044 8946     		mov	r9, r1
 1198              		.loc 1 166 67 view .LVU263
 1199 0046 D6ED007A 		vldr.32	s15, [r6]
 1200              		.loc 1 166 87 view .LVU264
 1201 004a 77EEE87A 		vsub.f32	s15, s15, s17
 1202              		.loc 1 166 50 view .LVU265
 1203 004e C7EE887A 		vdiv.f32	s15, s15, s16
 1204 0052 17EE900A 		vmov	r0, s15
 1205 0056 FFF7FEFF 		bl	__aeabi_f2d
 1206              	.LVL122:
 1207 005a 41EC100B 		vmov	d0, r0, r1
 1208 005e FFF7FEFF 		bl	cosh
 1209              	.LVL123:
 1210 0062 FFF7FEFF 		bl	log
 1211              	.LVL124:
 1212 0066 53EC102B 		vmov	r2, r3, d0
 1213              		.loc 1 166 48 view .LVU266
 1214 006a 4046     		mov	r0, r8
 1215 006c 4946     		mov	r1, r9
 1216 006e FFF7FEFF 		bl	__aeabi_ddiv
 1217              	.LVL125:
 1218 0072 FFF7FEFF 		bl	__aeabi_d2f
 1219              	.LVL126:
 1220              		.loc 1 166 8 view .LVU267
 1221 0076 0B90     		str	r0, [sp, #44]	@ float
 167:App/Src/calculate.c **** 	cac.mode = 0;
 1222              		.loc 1 167 2 is_stmt 1 view .LVU268
 1223              		.loc 1 167 11 is_stmt 0 view .LVU269
 1224 0078 8DF83C40 		strb	r4, [sp, #60]
 168:App/Src/calculate.c **** 	copy_parameter(&g_left, &cac);
 1225              		.loc 1 168 2 is_stmt 1 view .LVU270
 1226 007c 4E4C     		ldr	r4, .L68+12
 1227 007e 0BA9     		add	r1, sp, #44
 1228 0080 2046     		mov	r0, r4
 1229 0082 FFF7FEFF 		bl	copy_parameter
 1230              	.LVL127:
 169:App/Src/calculate.c **** 
 170:App/Src/calculate.c **** 	UsbPrintf("left:\tA:%.2f, B:%.2f, C:%.2f; X0:%.2f, mode:%d\n", g_left.A, g_left.B, g_left.C, g_lef
 1231              		.loc 1 170 2 view .LVU271
 1232              		.loc 1 170 81 is_stmt 0 view .LVU272
 1233 0086 6768     		ldr	r7, [r4, #4]	@ float
 1234              		.loc 1 170 91 view .LVU273
 1235 0088 D4F80CA0 		ldr	r10, [r4, #12]	@ float
 1236              		.loc 1 170 101 view .LVU274
 1237 008c D4F80880 		ldr	r8, [r4, #8]	@ float
 1238              		.loc 1 170 112 view .LVU275
 1239 0090 94F810B0 		ldrb	fp, [r4, #16]	@ zero_extendqisi2
 1240              		.loc 1 170 2 view .LVU276
 1241 0094 2068     		ldr	r0, [r4]	@ float
 1242 0096 FFF7FEFF 		bl	__aeabi_f2d
 1243              	.LVL128:
ARM GAS  C:\Users\86158\AppData\Local\Temp\ccP8sDIW.s 			page 28


 1244 009a CDE90801 		strd	r0, [sp, #32]
 1245 009e CDF818B0 		str	fp, [sp, #24]
 1246 00a2 4046     		mov	r0, r8	@ float
 1247 00a4 FFF7FEFF 		bl	__aeabi_f2d
 1248              	.LVL129:
 1249 00a8 CDE90401 		strd	r0, [sp, #16]
 1250 00ac 5046     		mov	r0, r10	@ float
 1251 00ae FFF7FEFF 		bl	__aeabi_f2d
 1252              	.LVL130:
 1253 00b2 CDE90201 		strd	r0, [sp, #8]
 1254 00b6 3846     		mov	r0, r7	@ float
 1255 00b8 FFF7FEFF 		bl	__aeabi_f2d
 1256              	.LVL131:
 1257 00bc CDE90001 		strd	r0, [sp]
 1258 00c0 DDE90823 		ldrd	r2, [sp, #32]
 1259 00c4 3D48     		ldr	r0, .L68+16
 1260 00c6 FFF7FEFF 		bl	UsbPrintf
 1261              	.LVL132:
 171:App/Src/calculate.c **** 
 172:App/Src/calculate.c **** //-------------------------------------------------------------------------------------------------
 173:App/Src/calculate.c **** 	cac.X0 = g_input[TEST_RTC_TEMP_Z29];
 1262              		.loc 1 173 2 is_stmt 1 view .LVU277
 1263              		.loc 1 173 18 is_stmt 0 view .LVU278
 1264 00ca D6ED028A 		vldr.32	s17, [r6, #8]
 1265              		.loc 1 173 9 view .LVU279
 1266 00ce CDED0D8A 		vstr.32	s17, [sp, #52]
 174:App/Src/calculate.c **** 	cac.B = 100;// 
 1267              		.loc 1 174 2 is_stmt 1 view .LVU280
 1268              		.loc 1 174 8 is_stmt 0 view .LVU281
 1269 00d2 9FED3B8A 		vldr.32	s16, .L68+20
 1270 00d6 8DED0C8A 		vstr.32	s16, [sp, #48]
 175:App/Src/calculate.c **** 	cac.A = (g_result[TEST_RTC_TEMP_Z29] - g_result[TEST_RTC_TEMP_Z85]) / (1 - cosh((g_input[TEST_RTC_
 1271              		.loc 1 175 2 is_stmt 1 view .LVU282
 1272              		.loc 1 175 19 is_stmt 0 view .LVU283
 1273 00da 95ED027A 		vldr.32	s14, [r5, #8]
 1274              		.loc 1 175 49 view .LVU284
 1275 00de D5ED047A 		vldr.32	s15, [r5, #16]
 1276              		.loc 1 175 39 view .LVU285
 1277 00e2 77EE677A 		vsub.f32	s15, s14, s15
 1278 00e6 17EE900A 		vmov	r0, s15
 1279 00ea FFF7FEFF 		bl	__aeabi_f2d
 1280              	.LVL133:
 1281 00ee 8046     		mov	r8, r0
 1282 00f0 8946     		mov	r9, r1
 1283              		.loc 1 175 90 view .LVU286
 1284 00f2 D6ED047A 		vldr.32	s15, [r6, #16]
 1285              		.loc 1 175 110 view .LVU287
 1286 00f6 77EEE87A 		vsub.f32	s15, s15, s17
 1287              		.loc 1 175 77 view .LVU288
 1288 00fa C7EE887A 		vdiv.f32	s15, s15, s16
 1289 00fe 17EE900A 		vmov	r0, s15
 1290 0102 FFF7FEFF 		bl	__aeabi_f2d
 1291              	.LVL134:
 1292 0106 41EC100B 		vmov	d0, r0, r1
 1293 010a FFF7FEFF 		bl	cosh
 1294              	.LVL135:
 1295 010e 53EC102B 		vmov	r2, r3, d0
ARM GAS  C:\Users\86158\AppData\Local\Temp\ccP8sDIW.s 			page 29


 1296              		.loc 1 175 75 view .LVU289
 1297 0112 0020     		movs	r0, #0
 1298 0114 2B49     		ldr	r1, .L68+24
 1299 0116 FFF7FEFF 		bl	__aeabi_dsub
 1300              	.LVL136:
 1301 011a 0246     		mov	r2, r0
 1302 011c 0B46     		mov	r3, r1
 1303              		.loc 1 175 70 view .LVU290
 1304 011e 4046     		mov	r0, r8
 1305 0120 4946     		mov	r1, r9
 1306 0122 FFF7FEFF 		bl	__aeabi_ddiv
 1307              	.LVL137:
 1308 0126 FFF7FEFF 		bl	__aeabi_d2f
 1309              	.LVL138:
 1310 012a 07EE900A 		vmov	s15, r0
 1311              		.loc 1 175 8 view .LVU291
 1312 012e 0B90     		str	r0, [sp, #44]	@ float
 176:App/Src/calculate.c **** 	cac.C = g_result[TEST_RTC_TEMP_Z29] - cac.A;
 1313              		.loc 1 176 2 is_stmt 1 view .LVU292
 1314              		.loc 1 176 18 is_stmt 0 view .LVU293
 1315 0130 95ED027A 		vldr.32	s14, [r5, #8]
 1316              		.loc 1 176 38 view .LVU294
 1317 0134 77EE677A 		vsub.f32	s15, s14, s15
 1318              		.loc 1 176 8 view .LVU295
 1319 0138 CDED0E7A 		vstr.32	s15, [sp, #56]
 177:App/Src/calculate.c **** 	cac.mode = 1;
 1320              		.loc 1 177 2 is_stmt 1 view .LVU296
 1321              		.loc 1 177 11 is_stmt 0 view .LVU297
 1322 013c 0126     		movs	r6, #1
 1323 013e 8DF83C60 		strb	r6, [sp, #60]
 178:App/Src/calculate.c **** 	copy_parameter(&g_right, &cac);
 1324              		.loc 1 178 2 is_stmt 1 view .LVU298
 1325 0142 214C     		ldr	r4, .L68+28
 1326 0144 0BA9     		add	r1, sp, #44
 1327 0146 2046     		mov	r0, r4
 1328 0148 FFF7FEFF 		bl	copy_parameter
 1329              	.LVL139:
 179:App/Src/calculate.c **** 
 180:App/Src/calculate.c **** 	UsbPrintf("right:\tA:%.2f, B:%.2f, C:%.2f; X0:%.2f, mode:%d\n", g_right.A, g_right.B, g_right.C, g
 1330              		.loc 1 180 2 view .LVU299
 1331              		.loc 1 180 84 is_stmt 0 view .LVU300
 1332 014c D4F80480 		ldr	r8, [r4, #4]	@ float
 1333              		.loc 1 180 95 view .LVU301
 1334 0150 D4F80C90 		ldr	r9, [r4, #12]	@ float
 1335              		.loc 1 180 106 view .LVU302
 1336 0154 A768     		ldr	r7, [r4, #8]	@ float
 1337              		.loc 1 180 118 view .LVU303
 1338 0156 94F810A0 		ldrb	r10, [r4, #16]	@ zero_extendqisi2
 1339              		.loc 1 180 2 view .LVU304
 1340 015a 2068     		ldr	r0, [r4]	@ float
 1341 015c FFF7FEFF 		bl	__aeabi_f2d
 1342              	.LVL140:
 1343 0160 0446     		mov	r4, r0
 1344 0162 0D46     		mov	r5, r1
 1345 0164 CDF818A0 		str	r10, [sp, #24]
 1346 0168 3846     		mov	r0, r7	@ float
 1347 016a FFF7FEFF 		bl	__aeabi_f2d
ARM GAS  C:\Users\86158\AppData\Local\Temp\ccP8sDIW.s 			page 30


 1348              	.LVL141:
 1349 016e CDE90401 		strd	r0, [sp, #16]
 1350 0172 4846     		mov	r0, r9	@ float
 1351 0174 FFF7FEFF 		bl	__aeabi_f2d
 1352              	.LVL142:
 1353 0178 CDE90201 		strd	r0, [sp, #8]
 1354 017c 4046     		mov	r0, r8	@ float
 1355 017e FFF7FEFF 		bl	__aeabi_f2d
 1356              	.LVL143:
 1357 0182 CDE90001 		strd	r0, [sp]
 1358 0186 2246     		mov	r2, r4
 1359 0188 2B46     		mov	r3, r5
 1360 018a 1048     		ldr	r0, .L68+32
 1361 018c FFF7FEFF 		bl	UsbPrintf
 1362              	.LVL144:
 181:App/Src/calculate.c **** 
 182:App/Src/calculate.c **** 	log_printf("parameter 3dot init success!\n");
 1363              		.loc 1 182 2 is_stmt 1 view .LVU305
 1364 0190 0F4C     		ldr	r4, .L68+36
 1365 0192 2046     		mov	r0, r4
 1366 0194 FFF7FEFF 		bl	log_printf
 1367              	.LVL145:
 183:App/Src/calculate.c **** 	UsbPrintf("parameter 3dot init success!\n");
 1368              		.loc 1 183 2 view .LVU306
 1369 0198 2046     		mov	r0, r4
 1370 019a FFF7FEFF 		bl	UsbPrintf
 1371              	.LVL146:
 184:App/Src/calculate.c **** 	return 1;
 1372              		.loc 1 184 2 view .LVU307
 185:App/Src/calculate.c **** }
 1373              		.loc 1 185 1 is_stmt 0 view .LVU308
 1374 019e 3046     		mov	r0, r6
 1375 01a0 11B0     		add	sp, sp, #68
 1376              	.LCFI24:
 1377              		.cfi_def_cfa_offset 44
 1378              		@ sp needed
 1379 01a2 BDEC028B 		vldm	sp!, {d8}
 1380              	.LCFI25:
 1381              		.cfi_restore 80
 1382              		.cfi_restore 81
 1383              		.cfi_def_cfa_offset 36
 1384 01a6 BDE8F08F 		pop	{r4, r5, r6, r7, r8, r9, r10, fp, pc}
 1385              	.L69:
 1386 01aa 00BF     		.align	2
 1387              	.L68:
 1388 01ac 00000000 		.word	.LANCHOR1
 1389 01b0 00000000 		.word	.LANCHOR2
 1390 01b4 0000DC42 		.word	1121714176
 1391 01b8 00000000 		.word	.LANCHOR3
 1392 01bc 00000000 		.word	.LC8
 1393 01c0 0000C842 		.word	1120403456
 1394 01c4 0000F03F 		.word	1072693248
 1395 01c8 00000000 		.word	.LANCHOR4
 1396 01cc 30000000 		.word	.LC9
 1397 01d0 64000000 		.word	.LC10
 1398              		.cfi_endproc
 1399              	.LFE240:
ARM GAS  C:\Users\86158\AppData\Local\Temp\ccP8sDIW.s 			page 31


 1401              		.section	.rodata.init_para_5dot.str1.4,"aMS",%progbits,1
 1402              		.align	2
 1403              	.LC11:
 1404 0000 6D696E3A 		.ascii	"min:%.2f, max:%.2f\012\000"
 1404      252E3266 
 1404      2C206D61 
 1404      783A252E 
 1404      32660A00 
 1405              		.global	__aeabi_dcmplt
 1406              		.align	2
 1407              	.LC12:
 1408 0014 6C656674 		.ascii	"left para use mode 0\012\000"
 1408      20706172 
 1408      61207573 
 1408      65206D6F 
 1408      64652030 
 1409              		.global	__aeabi_dcmple
 1410 002a 0000     		.align	2
 1411              	.LC13:
 1412 002c 6D696E20 		.ascii	"min error:%.2f\012\000"
 1412      6572726F 
 1412      723A252E 
 1412      32660A00 
 1413              		.align	2
 1414              	.LC14:
 1415 003c 63686563 		.ascii	"check left para error, step 1!\012\000"
 1415      6B206C65 
 1415      66742070 
 1415      61726120 
 1415      6572726F 
 1416              		.align	2
 1417              	.LC15:
 1418 005c 6C656674 		.ascii	"left para use mode 1\012\000"
 1418      20706172 
 1418      61207573 
 1418      65206D6F 
 1418      64652031 
 1419 0072 0000     		.align	2
 1420              	.LC16:
 1421 0074 63686563 		.ascii	"check left para error, step 2!\012\000"
 1421      6B206C65 
 1421      66742070 
 1421      61726120 
 1421      6572726F 
 1422              		.align	2
 1423              	.LC17:
 1424 0094 63686563 		.ascii	"check left para error, step 0!\012\000"
 1424      6B206C65 
 1424      66742070 
 1424      61726120 
 1424      6572726F 
 1425              		.align	2
 1426              	.LC18:
 1427 00b4 72696768 		.ascii	"right para use mode 0\012\000"
 1427      74207061 
 1427      72612075 
 1427      7365206D 
ARM GAS  C:\Users\86158\AppData\Local\Temp\ccP8sDIW.s 			page 32


 1427      6F646520 
 1428 00cb 00       		.align	2
 1429              	.LC19:
 1430 00cc 63686563 		.ascii	"check right para error, step 1!\012\000"
 1430      6B207269 
 1430      67687420 
 1430      70617261 
 1430      20657272 
 1431 00ed 000000   		.align	2
 1432              	.LC20:
 1433 00f0 72696768 		.ascii	"right para use mode 1\012\000"
 1433      74207061 
 1433      72612075 
 1433      7365206D 
 1433      6F646520 
 1434 0107 00       		.align	2
 1435              	.LC21:
 1436 0108 63686563 		.ascii	"check right para error, step 2!\012\000"
 1436      6B207269 
 1436      67687420 
 1436      70617261 
 1436      20657272 
 1437 0129 000000   		.align	2
 1438              	.LC22:
 1439 012c 63686563 		.ascii	"check right para error, step 0!\012\000"
 1439      6B207269 
 1439      67687420 
 1439      70617261 
 1439      20657272 
 1440 014d 000000   		.align	2
 1441              	.LC23:
 1442 0150 70617261 		.ascii	"parameter init success!\012\000"
 1442      6D657465 
 1442      7220696E 
 1442      69742073 
 1442      75636365 
 1443              		.section	.text.init_para_5dot,"ax",%progbits
 1444              		.align	1
 1445              		.global	init_para_5dot
 1446              		.syntax unified
 1447              		.thumb
 1448              		.thumb_func
 1450              	init_para_5dot:
 1451              	.LFB241:
 186:App/Src/calculate.c **** 
 187:App/Src/calculate.c **** uint8_t init_para_5dot(void)
 188:App/Src/calculate.c **** {
 1452              		.loc 1 188 1 is_stmt 1 view -0
 1453              		.cfi_startproc
 1454              		@ args = 0, pretend = 0, frame = 24
 1455              		@ frame_needed = 0, uses_anonymous_args = 0
 1456 0000 2DE9F043 		push	{r4, r5, r6, r7, r8, r9, lr}
 1457              	.LCFI26:
 1458              		.cfi_def_cfa_offset 28
 1459              		.cfi_offset 4, -28
 1460              		.cfi_offset 5, -24
 1461              		.cfi_offset 6, -20
ARM GAS  C:\Users\86158\AppData\Local\Temp\ccP8sDIW.s 			page 33


 1462              		.cfi_offset 7, -16
 1463              		.cfi_offset 8, -12
 1464              		.cfi_offset 9, -8
 1465              		.cfi_offset 14, -4
 1466 0004 2DED048B 		vpush.64	{d8, d9}
 1467              	.LCFI27:
 1468              		.cfi_def_cfa_offset 44
 1469              		.cfi_offset 80, -44
 1470              		.cfi_offset 81, -40
 1471              		.cfi_offset 82, -36
 1472              		.cfi_offset 83, -32
 1473 0008 8FB0     		sub	sp, sp, #60
 1474              	.LCFI28:
 1475              		.cfi_def_cfa_offset 104
 189:App/Src/calculate.c **** 	int i;
 1476              		.loc 1 189 2 view .LVU310
 190:App/Src/calculate.c **** 	float minB, maxB;
 1477              		.loc 1 190 2 view .LVU311
 191:App/Src/calculate.c **** 	float minError, maxError, error;
 1478              		.loc 1 191 2 view .LVU312
 192:App/Src/calculate.c **** 	Parameter cac = {0};
 1479              		.loc 1 192 2 view .LVU313
 1480              		.loc 1 192 12 is_stmt 0 view .LVU314
 1481 000a 0023     		movs	r3, #0
 1482 000c 0993     		str	r3, [sp, #36]
 1483 000e 0A93     		str	r3, [sp, #40]
 1484 0010 0B93     		str	r3, [sp, #44]
 1485 0012 0C93     		str	r3, [sp, #48]
 1486 0014 0D93     		str	r3, [sp, #52]
 193:App/Src/calculate.c **** 
 194:App/Src/calculate.c **** 	cac.X0 = g_input[TEST_RTC_TEMP_Z29];
 1487              		.loc 1 194 2 is_stmt 1 view .LVU315
 1488              		.loc 1 194 18 is_stmt 0 view .LVU316
 1489 0016 D64D     		ldr	r5, .L187+16
 1490 0018 95ED029A 		vldr.32	s18, [r5, #8]
 1491              		.loc 1 194 9 view .LVU317
 1492 001c 8DED0B9A 		vstr.32	s18, [sp, #44]
 195:App/Src/calculate.c **** 	cac.C = g_result[TEST_RTC_TEMP_Z29];
 1493              		.loc 1 195 2 is_stmt 1 view .LVU318
 1494              		.loc 1 195 18 is_stmt 0 view .LVU319
 1495 0020 D44C     		ldr	r4, .L187+20
 1496 0022 D4ED027A 		vldr.32	s15, [r4, #8]
 1497              		.loc 1 195 8 view .LVU320
 1498 0026 CDED0C7A 		vstr.32	s15, [sp, #48]
 196:App/Src/calculate.c **** 	minB = 10;
 1499              		.loc 1 196 2 is_stmt 1 view .LVU321
 1500              	.LVL147:
 197:App/Src/calculate.c **** 	maxB = 990;
 1501              		.loc 1 197 2 view .LVU322
 198:App/Src/calculate.c **** 
 199:App/Src/calculate.c **** 	cac.B = minB;// 
 1502              		.loc 1 199 2 view .LVU323
 1503              		.loc 1 199 8 is_stmt 0 view .LVU324
 1504 002a F2EE048A 		vmov.f32	s17, #1.0e+1
 1505 002e CDED0A8A 		vstr.32	s17, [sp, #40]
 200:App/Src/calculate.c **** 	cac.A = (g_result[TEST_RTC_TEMP_F40] - cac.C) / log(cosh((g_input[TEST_RTC_TEMP_F40] - cac.X0) / c
 1506              		.loc 1 200 2 is_stmt 1 view .LVU325
ARM GAS  C:\Users\86158\AppData\Local\Temp\ccP8sDIW.s 			page 34


 1507              		.loc 1 200 19 is_stmt 0 view .LVU326
 1508 0032 94ED007A 		vldr.32	s14, [r4]
 1509              		.loc 1 200 39 view .LVU327
 1510 0036 77EE677A 		vsub.f32	s15, s14, s15
 1511 003a 17EE900A 		vmov	r0, s15
 1512 003e FFF7FEFF 		bl	__aeabi_f2d
 1513              	.LVL148:
 1514 0042 0646     		mov	r6, r0
 1515 0044 0F46     		mov	r7, r1
 1516              		.loc 1 200 67 view .LVU328
 1517 0046 D5ED007A 		vldr.32	s15, [r5]
 1518              		.loc 1 200 87 view .LVU329
 1519 004a 77EEC97A 		vsub.f32	s15, s15, s18
 1520              		.loc 1 200 50 view .LVU330
 1521 004e C7EEA87A 		vdiv.f32	s15, s15, s17
 1522 0052 17EE900A 		vmov	r0, s15
 1523 0056 FFF7FEFF 		bl	__aeabi_f2d
 1524              	.LVL149:
 1525 005a 41EC100B 		vmov	d0, r0, r1
 1526 005e FFF7FEFF 		bl	cosh
 1527              	.LVL150:
 1528 0062 FFF7FEFF 		bl	log
 1529              	.LVL151:
 1530 0066 53EC102B 		vmov	r2, r3, d0
 1531              		.loc 1 200 48 view .LVU331
 1532 006a 3046     		mov	r0, r6
 1533 006c 3946     		mov	r1, r7
 1534 006e FFF7FEFF 		bl	__aeabi_ddiv
 1535              	.LVL152:
 1536 0072 FFF7FEFF 		bl	__aeabi_d2f
 1537              	.LVL153:
 1538              		.loc 1 200 8 view .LVU332
 1539 0076 0990     		str	r0, [sp, #36]	@ float
 201:App/Src/calculate.c **** 	minError = cac.A * log(cosh((g_input[TEST_RTC_TEMP_F10] - cac.X0) / cac.B)) + cac.C - g_result[TES
 1540              		.loc 1 201 2 is_stmt 1 view .LVU333
 1541              		.loc 1 201 16 is_stmt 0 view .LVU334
 1542 0078 FFF7FEFF 		bl	__aeabi_f2d
 1543              	.LVL154:
 1544 007c 0646     		mov	r6, r0
 1545 007e 0F46     		mov	r7, r1
 1546              		.loc 1 201 38 view .LVU335
 1547 0080 D5ED017A 		vldr.32	s15, [r5, #4]
 1548              		.loc 1 201 63 view .LVU336
 1549 0084 9DED0B7A 		vldr.32	s14, [sp, #44]
 1550              		.loc 1 201 58 view .LVU337
 1551 0088 77EEC77A 		vsub.f32	s15, s15, s14
 1552              		.loc 1 201 21 view .LVU338
 1553 008c 9DED0A7A 		vldr.32	s14, [sp, #40]
 1554 0090 C7EE877A 		vdiv.f32	s15, s15, s14
 1555 0094 17EE900A 		vmov	r0, s15
 1556 0098 FFF7FEFF 		bl	__aeabi_f2d
 1557              	.LVL155:
 1558 009c 41EC100B 		vmov	d0, r0, r1
 1559 00a0 FFF7FEFF 		bl	cosh
 1560              	.LVL156:
 1561 00a4 FFF7FEFF 		bl	log
 1562              	.LVL157:
ARM GAS  C:\Users\86158\AppData\Local\Temp\ccP8sDIW.s 			page 35


 1563 00a8 53EC102B 		vmov	r2, r3, d0
 1564              		.loc 1 201 19 view .LVU339
 1565 00ac 3046     		mov	r0, r6
 1566 00ae 3946     		mov	r1, r7
 1567 00b0 FFF7FEFF 		bl	__aeabi_dmul
 1568              	.LVL158:
 1569 00b4 0646     		mov	r6, r0
 1570 00b6 0F46     		mov	r7, r1
 1571              		.loc 1 201 83 view .LVU340
 1572 00b8 DDED0C9A 		vldr.32	s19, [sp, #48]
 1573 00bc 19EE900A 		vmov	r0, s19
 1574 00c0 FFF7FEFF 		bl	__aeabi_f2d
 1575              	.LVL159:
 1576 00c4 0246     		mov	r2, r0
 1577 00c6 0B46     		mov	r3, r1
 1578              		.loc 1 201 78 view .LVU341
 1579 00c8 3046     		mov	r0, r6
 1580 00ca 3946     		mov	r1, r7
 1581 00cc FFF7FEFF 		bl	__aeabi_dadd
 1582              	.LVL160:
 1583 00d0 0646     		mov	r6, r0
 1584 00d2 0F46     		mov	r7, r1
 1585              		.loc 1 201 96 view .LVU342
 1586 00d4 6068     		ldr	r0, [r4, #4]	@ float
 1587 00d6 FFF7FEFF 		bl	__aeabi_f2d
 1588              	.LVL161:
 1589 00da 0246     		mov	r2, r0
 1590 00dc 0B46     		mov	r3, r1
 1591              		.loc 1 201 86 view .LVU343
 1592 00de 3046     		mov	r0, r6
 1593 00e0 3946     		mov	r1, r7
 1594 00e2 FFF7FEFF 		bl	__aeabi_dsub
 1595              	.LVL162:
 1596              		.loc 1 201 11 view .LVU344
 1597 00e6 FFF7FEFF 		bl	__aeabi_d2f
 1598              	.LVL163:
 1599 00ea 08EE900A 		vmov	s17, r0
 1600              	.LVL164:
 202:App/Src/calculate.c **** 	cac.B = maxB;// 
 1601              		.loc 1 202 2 is_stmt 1 view .LVU345
 1602              		.loc 1 202 8 is_stmt 0 view .LVU346
 1603 00ee 9FEDA29A 		vldr.32	s18, .L187+24
 1604 00f2 8DED0A9A 		vstr.32	s18, [sp, #40]
 203:App/Src/calculate.c **** 	cac.A = (g_result[TEST_RTC_TEMP_F40] - cac.C) / log(cosh((g_input[TEST_RTC_TEMP_F40] - cac.X0) / c
 1605              		.loc 1 203 2 is_stmt 1 view .LVU347
 1606              		.loc 1 203 19 is_stmt 0 view .LVU348
 1607 00f6 D4ED007A 		vldr.32	s15, [r4]
 1608              		.loc 1 203 39 view .LVU349
 1609 00fa 77EEE97A 		vsub.f32	s15, s15, s19
 1610 00fe 17EE900A 		vmov	r0, s15
 1611              	.LVL165:
 1612              		.loc 1 203 39 view .LVU350
 1613 0102 FFF7FEFF 		bl	__aeabi_f2d
 1614              	.LVL166:
 1615 0106 0646     		mov	r6, r0
 1616 0108 0F46     		mov	r7, r1
 1617              		.loc 1 203 67 view .LVU351
ARM GAS  C:\Users\86158\AppData\Local\Temp\ccP8sDIW.s 			page 36


 1618 010a D5ED007A 		vldr.32	s15, [r5]
 1619              		.loc 1 203 92 view .LVU352
 1620 010e 9DED0B7A 		vldr.32	s14, [sp, #44]
 1621              		.loc 1 203 87 view .LVU353
 1622 0112 77EEC77A 		vsub.f32	s15, s15, s14
 1623              		.loc 1 203 50 view .LVU354
 1624 0116 C7EE897A 		vdiv.f32	s15, s15, s18
 1625 011a 17EE900A 		vmov	r0, s15
 1626 011e FFF7FEFF 		bl	__aeabi_f2d
 1627              	.LVL167:
 1628 0122 41EC100B 		vmov	d0, r0, r1
 1629 0126 FFF7FEFF 		bl	cosh
 1630              	.LVL168:
 1631 012a FFF7FEFF 		bl	log
 1632              	.LVL169:
 1633 012e 53EC102B 		vmov	r2, r3, d0
 1634              		.loc 1 203 48 view .LVU355
 1635 0132 3046     		mov	r0, r6
 1636 0134 3946     		mov	r1, r7
 1637 0136 FFF7FEFF 		bl	__aeabi_ddiv
 1638              	.LVL170:
 1639 013a FFF7FEFF 		bl	__aeabi_d2f
 1640              	.LVL171:
 1641              		.loc 1 203 8 view .LVU356
 1642 013e 0990     		str	r0, [sp, #36]	@ float
 204:App/Src/calculate.c **** 	maxError = cac.A * log(cosh((g_input[TEST_RTC_TEMP_F10] - cac.X0) / cac.B)) + cac.C - g_result[TES
 1643              		.loc 1 204 2 is_stmt 1 view .LVU357
 1644              		.loc 1 204 16 is_stmt 0 view .LVU358
 1645 0140 FFF7FEFF 		bl	__aeabi_f2d
 1646              	.LVL172:
 1647 0144 0646     		mov	r6, r0
 1648 0146 0F46     		mov	r7, r1
 1649              		.loc 1 204 38 view .LVU359
 1650 0148 D5ED017A 		vldr.32	s15, [r5, #4]
 1651              		.loc 1 204 63 view .LVU360
 1652 014c 9DED0B7A 		vldr.32	s14, [sp, #44]
 1653              		.loc 1 204 58 view .LVU361
 1654 0150 77EEC77A 		vsub.f32	s15, s15, s14
 1655              		.loc 1 204 21 view .LVU362
 1656 0154 9DED0A7A 		vldr.32	s14, [sp, #40]
 1657 0158 C7EE877A 		vdiv.f32	s15, s15, s14
 1658 015c 17EE900A 		vmov	r0, s15
 1659 0160 FFF7FEFF 		bl	__aeabi_f2d
 1660              	.LVL173:
 1661 0164 41EC100B 		vmov	d0, r0, r1
 1662 0168 FFF7FEFF 		bl	cosh
 1663              	.LVL174:
 1664 016c FFF7FEFF 		bl	log
 1665              	.LVL175:
 1666 0170 53EC102B 		vmov	r2, r3, d0
 1667              		.loc 1 204 19 view .LVU363
 1668 0174 3046     		mov	r0, r6
 1669 0176 3946     		mov	r1, r7
 1670 0178 FFF7FEFF 		bl	__aeabi_dmul
 1671              	.LVL176:
 1672 017c 0646     		mov	r6, r0
 1673 017e 0F46     		mov	r7, r1
ARM GAS  C:\Users\86158\AppData\Local\Temp\ccP8sDIW.s 			page 37


 1674              		.loc 1 204 83 view .LVU364
 1675 0180 0C98     		ldr	r0, [sp, #48]	@ float
 1676 0182 FFF7FEFF 		bl	__aeabi_f2d
 1677              	.LVL177:
 1678 0186 0246     		mov	r2, r0
 1679 0188 0B46     		mov	r3, r1
 1680              		.loc 1 204 78 view .LVU365
 1681 018a 3046     		mov	r0, r6
 1682 018c 3946     		mov	r1, r7
 1683 018e FFF7FEFF 		bl	__aeabi_dadd
 1684              	.LVL178:
 1685 0192 0646     		mov	r6, r0
 1686 0194 0F46     		mov	r7, r1
 1687              		.loc 1 204 96 view .LVU366
 1688 0196 6068     		ldr	r0, [r4, #4]	@ float
 1689 0198 FFF7FEFF 		bl	__aeabi_f2d
 1690              	.LVL179:
 1691 019c 0246     		mov	r2, r0
 1692 019e 0B46     		mov	r3, r1
 1693              		.loc 1 204 86 view .LVU367
 1694 01a0 3046     		mov	r0, r6
 1695 01a2 3946     		mov	r1, r7
 1696 01a4 FFF7FEFF 		bl	__aeabi_dsub
 1697              	.LVL180:
 1698              		.loc 1 204 11 view .LVU368
 1699 01a8 FFF7FEFF 		bl	__aeabi_d2f
 1700              	.LVL181:
 1701 01ac 09EE100A 		vmov	s18, r0
 1702              	.LVL182:
 205:App/Src/calculate.c **** 	UsbPrintf("min:%.2f, max:%.2f\n", minError, maxError);
 1703              		.loc 1 205 2 is_stmt 1 view .LVU369
 1704 01b0 18EE900A 		vmov	r0, s17
 1705              	.LVL183:
 1706              		.loc 1 205 2 is_stmt 0 view .LVU370
 1707 01b4 FFF7FEFF 		bl	__aeabi_f2d
 1708              	.LVL184:
 1709 01b8 0446     		mov	r4, r0
 1710 01ba 0D46     		mov	r5, r1
 1711 01bc 19EE100A 		vmov	r0, s18
 1712 01c0 FFF7FEFF 		bl	__aeabi_f2d
 1713              	.LVL185:
 1714 01c4 CDE90001 		strd	r0, [sp]
 1715 01c8 2246     		mov	r2, r4
 1716 01ca 2B46     		mov	r3, r5
 1717 01cc 6B48     		ldr	r0, .L187+28
 1718 01ce FFF7FEFF 		bl	UsbPrintf
 1719              	.LVL186:
 206:App/Src/calculate.c **** 	if ((minError >= 0 && maxError < 0 ) || (minError <= 0 && maxError > 0) || fabs(maxError) < 0.1) {
 1720              		.loc 1 206 2 is_stmt 1 view .LVU371
 1721              		.loc 1 206 5 is_stmt 0 view .LVU372
 1722 01d2 F5EEC08A 		vcmpe.f32	s17, #0
 1723 01d6 F1EE10FA 		vmrs	APSR_nzcv, FPSCR
 1724 01da 04DB     		blt	.L71
 1725              		.loc 1 206 21 discriminator 1 view .LVU373
 1726 01dc B5EEC09A 		vcmpe.f32	s18, #0
 1727 01e0 F1EE10FA 		vmrs	APSR_nzcv, FPSCR
 1728 01e4 12D4     		bmi	.L73
ARM GAS  C:\Users\86158\AppData\Local\Temp\ccP8sDIW.s 			page 38


 1729              	.L71:
 1730              		.loc 1 206 39 discriminator 3 view .LVU374
 1731 01e6 F5EEC08A 		vcmpe.f32	s17, #0
 1732 01ea F1EE10FA 		vmrs	APSR_nzcv, FPSCR
 1733 01ee 16D9     		bls	.L179
 1734              	.L74:
 1735              		.loc 1 206 77 discriminator 6 view .LVU375
 1736 01f0 F0EEC97A 		vabs.f32	s15, s18
 1737 01f4 17EE900A 		vmov	r0, s15
 1738 01f8 FFF7FEFF 		bl	__aeabi_f2d
 1739              	.LVL187:
 1740              		.loc 1 206 74 discriminator 6 view .LVU376
 1741 01fc 58A3     		adr	r3, .L187
 1742 01fe D3E90023 		ldrd	r2, [r3]
 1743 0202 FFF7FEFF 		bl	__aeabi_dcmplt
 1744              	.LVL188:
 1745 0206 0028     		cmp	r0, #0
 1746 0208 00F01C82 		beq	.L170
 1747              	.L73:
 207:App/Src/calculate.c **** 		UsbPrintf("left para use mode 0\n");
 1748              		.loc 1 207 3 is_stmt 1 view .LVU377
 1749 020c 5C48     		ldr	r0, .L187+32
 1750 020e FFF7FEFF 		bl	UsbPrintf
 1751              	.LVL189:
 208:App/Src/calculate.c **** 		for (i = 0; i < 20; i++) {
 1752              		.loc 1 208 3 view .LVU378
 197:App/Src/calculate.c **** 
 1753              		.loc 1 197 7 is_stmt 0 view .LVU379
 1754 0212 9FED599A 		vldr.32	s18, .L187+24
 1755              	.LVL190:
 196:App/Src/calculate.c **** 	maxB = 990;
 1756              		.loc 1 196 7 view .LVU380
 1757 0216 F2EE049A 		vmov.f32	s19, #1.0e+1
 1758              		.loc 1 208 10 view .LVU381
 1759 021a 0026     		movs	r6, #0
 1760              		.loc 1 208 3 view .LVU382
 1761 021c 0EE0     		b	.L78
 1762              	.LVL191:
 1763              	.L179:
 206:App/Src/calculate.c **** 		UsbPrintf("left para use mode 0\n");
 1764              		.loc 1 206 57 discriminator 4 view .LVU383
 1765 021e B5EEC09A 		vcmpe.f32	s18, #0
 1766 0222 F1EE10FA 		vmrs	APSR_nzcv, FPSCR
 1767 0226 F1DC     		bgt	.L73
 1768 0228 E2E7     		b	.L74
 1769              	.LVL192:
 1770              	.L80:
 209:App/Src/calculate.c **** 			cac.B = (minB + maxB) / 2;
 210:App/Src/calculate.c **** 			cac.A = (g_result[TEST_RTC_TEMP_F40] - cac.C) / log(cosh((g_input[TEST_RTC_TEMP_F40] - cac.X0) /
 211:App/Src/calculate.c **** 			error = cac.A * log(cosh((g_input[TEST_RTC_TEMP_F10] - cac.X0) / cac.B)) + cac.C - g_result[TEST
 212:App/Src/calculate.c **** 			if (fabs(error) <= 0.2) {
 213:App/Src/calculate.c **** 				break;
 214:App/Src/calculate.c **** 			} else {
 215:App/Src/calculate.c **** 				if ((minError >= 0 && error >= 0) || (minError <= 0 && error <= 0)) {
 1771              		.loc 1 215 39 discriminator 3 view .LVU384
 1772 022a F5EEC08A 		vcmpe.f32	s17, #0
 1773 022e F1EE10FA 		vmrs	APSR_nzcv, FPSCR
ARM GAS  C:\Users\86158\AppData\Local\Temp\ccP8sDIW.s 			page 39


 1774 0232 40F28B80 		bls	.L180
 1775              	.L83:
 216:App/Src/calculate.c **** 					minB = cac.B;
 217:App/Src/calculate.c **** 				} else {
 218:App/Src/calculate.c **** 					maxB = cac.B;
 1776              		.loc 1 218 6 is_stmt 1 view .LVU385
 1777              		.loc 1 218 11 is_stmt 0 view .LVU386
 1778 0236 9DED0A9A 		vldr.32	s18, [sp, #40]
 1779              	.LVL193:
 1780              	.L86:
 208:App/Src/calculate.c **** 			cac.B = (minB + maxB) / 2;
 1781              		.loc 1 208 23 is_stmt 1 discriminator 2 view .LVU387
 208:App/Src/calculate.c **** 			cac.B = (minB + maxB) / 2;
 1782              		.loc 1 208 24 is_stmt 0 discriminator 2 view .LVU388
 1783 023a 0136     		adds	r6, r6, #1
 1784              	.LVL194:
 1785              	.L78:
 208:App/Src/calculate.c **** 			cac.B = (minB + maxB) / 2;
 1786              		.loc 1 208 15 is_stmt 1 discriminator 1 view .LVU389
 208:App/Src/calculate.c **** 			cac.B = (minB + maxB) / 2;
 1787              		.loc 1 208 3 is_stmt 0 discriminator 1 view .LVU390
 1788 023c 132E     		cmp	r6, #19
 1789 023e 00F3A180 		bgt	.L79
 209:App/Src/calculate.c **** 			cac.B = (minB + maxB) / 2;
 1790              		.loc 1 209 4 is_stmt 1 view .LVU391
 209:App/Src/calculate.c **** 			cac.B = (minB + maxB) / 2;
 1791              		.loc 1 209 18 is_stmt 0 view .LVU392
 1792 0242 39EE898A 		vadd.f32	s16, s19, s18
 1793              	.LVL195:
 209:App/Src/calculate.c **** 			cac.B = (minB + maxB) / 2;
 1794              		.loc 1 209 26 view .LVU393
 1795 0246 F6EE007A 		vmov.f32	s15, #5.0e-1
 1796 024a 28EE278A 		vmul.f32	s16, s16, s15
 209:App/Src/calculate.c **** 			cac.B = (minB + maxB) / 2;
 1797              		.loc 1 209 10 view .LVU394
 1798 024e 8DED0A8A 		vstr.32	s16, [sp, #40]
 210:App/Src/calculate.c **** 			error = cac.A * log(cosh((g_input[TEST_RTC_TEMP_F10] - cac.X0) / cac.B)) + cac.C - g_result[TEST
 1799              		.loc 1 210 4 is_stmt 1 view .LVU395
 210:App/Src/calculate.c **** 			error = cac.A * log(cosh((g_input[TEST_RTC_TEMP_F10] - cac.X0) / cac.B)) + cac.C - g_result[TEST
 1800              		.loc 1 210 21 is_stmt 0 view .LVU396
 1801 0252 484F     		ldr	r7, .L187+20
 1802 0254 97ED007A 		vldr.32	s14, [r7]
 210:App/Src/calculate.c **** 			error = cac.A * log(cosh((g_input[TEST_RTC_TEMP_F10] - cac.X0) / cac.B)) + cac.C - g_result[TEST
 1803              		.loc 1 210 41 view .LVU397
 1804 0258 DDED0C7A 		vldr.32	s15, [sp, #48]
 1805 025c 77EE677A 		vsub.f32	s15, s14, s15
 1806 0260 17EE900A 		vmov	r0, s15
 1807 0264 FFF7FEFF 		bl	__aeabi_f2d
 1808              	.LVL196:
 1809 0268 0446     		mov	r4, r0
 1810 026a 0D46     		mov	r5, r1
 210:App/Src/calculate.c **** 			error = cac.A * log(cosh((g_input[TEST_RTC_TEMP_F10] - cac.X0) / cac.B)) + cac.C - g_result[TEST
 1811              		.loc 1 210 69 view .LVU398
 1812 026c DFF80081 		ldr	r8, .L187+16
 1813 0270 D8ED007A 		vldr.32	s15, [r8]
 210:App/Src/calculate.c **** 			error = cac.A * log(cosh((g_input[TEST_RTC_TEMP_F10] - cac.X0) / cac.B)) + cac.C - g_result[TEST
 1814              		.loc 1 210 94 view .LVU399
ARM GAS  C:\Users\86158\AppData\Local\Temp\ccP8sDIW.s 			page 40


 1815 0274 9DED0B7A 		vldr.32	s14, [sp, #44]
 210:App/Src/calculate.c **** 			error = cac.A * log(cosh((g_input[TEST_RTC_TEMP_F10] - cac.X0) / cac.B)) + cac.C - g_result[TEST
 1816              		.loc 1 210 89 view .LVU400
 1817 0278 77EEC77A 		vsub.f32	s15, s15, s14
 210:App/Src/calculate.c **** 			error = cac.A * log(cosh((g_input[TEST_RTC_TEMP_F10] - cac.X0) / cac.B)) + cac.C - g_result[TEST
 1818              		.loc 1 210 52 view .LVU401
 1819 027c C7EE887A 		vdiv.f32	s15, s15, s16
 1820 0280 17EE900A 		vmov	r0, s15
 1821 0284 FFF7FEFF 		bl	__aeabi_f2d
 1822              	.LVL197:
 1823 0288 41EC100B 		vmov	d0, r0, r1
 1824 028c FFF7FEFF 		bl	cosh
 1825              	.LVL198:
 1826 0290 FFF7FEFF 		bl	log
 1827              	.LVL199:
 1828 0294 53EC102B 		vmov	r2, r3, d0
 210:App/Src/calculate.c **** 			error = cac.A * log(cosh((g_input[TEST_RTC_TEMP_F10] - cac.X0) / cac.B)) + cac.C - g_result[TEST
 1829              		.loc 1 210 50 view .LVU402
 1830 0298 2046     		mov	r0, r4
 1831 029a 2946     		mov	r1, r5
 1832 029c FFF7FEFF 		bl	__aeabi_ddiv
 1833              	.LVL200:
 1834 02a0 FFF7FEFF 		bl	__aeabi_d2f
 1835              	.LVL201:
 210:App/Src/calculate.c **** 			error = cac.A * log(cosh((g_input[TEST_RTC_TEMP_F10] - cac.X0) / cac.B)) + cac.C - g_result[TEST
 1836              		.loc 1 210 10 view .LVU403
 1837 02a4 0990     		str	r0, [sp, #36]	@ float
 211:App/Src/calculate.c **** 			if (fabs(error) <= 0.2) {
 1838              		.loc 1 211 4 is_stmt 1 view .LVU404
 211:App/Src/calculate.c **** 			if (fabs(error) <= 0.2) {
 1839              		.loc 1 211 15 is_stmt 0 view .LVU405
 1840 02a6 FFF7FEFF 		bl	__aeabi_f2d
 1841              	.LVL202:
 1842 02aa 0446     		mov	r4, r0
 1843 02ac 0D46     		mov	r5, r1
 211:App/Src/calculate.c **** 			if (fabs(error) <= 0.2) {
 1844              		.loc 1 211 37 view .LVU406
 1845 02ae D8ED017A 		vldr.32	s15, [r8, #4]
 211:App/Src/calculate.c **** 			if (fabs(error) <= 0.2) {
 1846              		.loc 1 211 62 view .LVU407
 1847 02b2 9DED0B7A 		vldr.32	s14, [sp, #44]
 211:App/Src/calculate.c **** 			if (fabs(error) <= 0.2) {
 1848              		.loc 1 211 57 view .LVU408
 1849 02b6 77EEC77A 		vsub.f32	s15, s15, s14
 211:App/Src/calculate.c **** 			if (fabs(error) <= 0.2) {
 1850              		.loc 1 211 20 view .LVU409
 1851 02ba 9DED0A7A 		vldr.32	s14, [sp, #40]
 1852 02be C7EE877A 		vdiv.f32	s15, s15, s14
 1853 02c2 17EE900A 		vmov	r0, s15
 1854 02c6 FFF7FEFF 		bl	__aeabi_f2d
 1855              	.LVL203:
 1856 02ca 41EC100B 		vmov	d0, r0, r1
 1857 02ce FFF7FEFF 		bl	cosh
 1858              	.LVL204:
 1859 02d2 FFF7FEFF 		bl	log
 1860              	.LVL205:
 1861 02d6 53EC102B 		vmov	r2, r3, d0
ARM GAS  C:\Users\86158\AppData\Local\Temp\ccP8sDIW.s 			page 41


 211:App/Src/calculate.c **** 			if (fabs(error) <= 0.2) {
 1862              		.loc 1 211 18 view .LVU410
 1863 02da 2046     		mov	r0, r4
 1864 02dc 2946     		mov	r1, r5
 1865 02de FFF7FEFF 		bl	__aeabi_dmul
 1866              	.LVL206:
 1867 02e2 0446     		mov	r4, r0
 1868 02e4 0D46     		mov	r5, r1
 211:App/Src/calculate.c **** 			if (fabs(error) <= 0.2) {
 1869              		.loc 1 211 82 view .LVU411
 1870 02e6 0C98     		ldr	r0, [sp, #48]	@ float
 1871 02e8 FFF7FEFF 		bl	__aeabi_f2d
 1872              	.LVL207:
 1873 02ec 0246     		mov	r2, r0
 1874 02ee 0B46     		mov	r3, r1
 211:App/Src/calculate.c **** 			if (fabs(error) <= 0.2) {
 1875              		.loc 1 211 77 view .LVU412
 1876 02f0 2046     		mov	r0, r4
 1877 02f2 2946     		mov	r1, r5
 1878 02f4 FFF7FEFF 		bl	__aeabi_dadd
 1879              	.LVL208:
 1880 02f8 0446     		mov	r4, r0
 1881 02fa 0D46     		mov	r5, r1
 211:App/Src/calculate.c **** 			if (fabs(error) <= 0.2) {
 1882              		.loc 1 211 95 view .LVU413
 1883 02fc 7868     		ldr	r0, [r7, #4]	@ float
 1884 02fe FFF7FEFF 		bl	__aeabi_f2d
 1885              	.LVL209:
 1886 0302 0246     		mov	r2, r0
 1887 0304 0B46     		mov	r3, r1
 211:App/Src/calculate.c **** 			if (fabs(error) <= 0.2) {
 1888              		.loc 1 211 85 view .LVU414
 1889 0306 2046     		mov	r0, r4
 1890 0308 2946     		mov	r1, r5
 1891 030a FFF7FEFF 		bl	__aeabi_dsub
 1892              	.LVL210:
 211:App/Src/calculate.c **** 			if (fabs(error) <= 0.2) {
 1893              		.loc 1 211 10 view .LVU415
 1894 030e FFF7FEFF 		bl	__aeabi_d2f
 1895              	.LVL211:
 1896 0312 08EE100A 		vmov	s16, r0
 1897              	.LVL212:
 212:App/Src/calculate.c **** 				break;
 1898              		.loc 1 212 4 is_stmt 1 view .LVU416
 212:App/Src/calculate.c **** 				break;
 1899              		.loc 1 212 8 is_stmt 0 view .LVU417
 1900 0316 F0EEC87A 		vabs.f32	s15, s16
 1901 031a 17EE900A 		vmov	r0, s15
 1902              	.LVL213:
 212:App/Src/calculate.c **** 				break;
 1903              		.loc 1 212 8 view .LVU418
 1904 031e FFF7FEFF 		bl	__aeabi_f2d
 1905              	.LVL214:
 212:App/Src/calculate.c **** 				break;
 1906              		.loc 1 212 7 view .LVU419
 1907 0322 11A3     		adr	r3, .L187+8
 1908 0324 D3E90023 		ldrd	r2, [r3]
ARM GAS  C:\Users\86158\AppData\Local\Temp\ccP8sDIW.s 			page 42


 1909 0328 FFF7FEFF 		bl	__aeabi_dcmple
 1910              	.LVL215:
 1911 032c 50BB     		cbnz	r0, .L79
 215:App/Src/calculate.c **** 					minB = cac.B;
 1912              		.loc 1 215 5 is_stmt 1 view .LVU420
 215:App/Src/calculate.c **** 					minB = cac.B;
 1913              		.loc 1 215 8 is_stmt 0 view .LVU421
 1914 032e F5EEC08A 		vcmpe.f32	s17, #0
 1915 0332 F1EE10FA 		vmrs	APSR_nzcv, FPSCR
 1916 0336 FFF678AF 		blt	.L80
 215:App/Src/calculate.c **** 					minB = cac.B;
 1917              		.loc 1 215 24 discriminator 1 view .LVU422
 1918 033a B5EEC08A 		vcmpe.f32	s16, #0
 1919 033e F1EE10FA 		vmrs	APSR_nzcv, FPSCR
 1920 0342 FFF672AF 		blt	.L80
 1921              	.L82:
 216:App/Src/calculate.c **** 				} else {
 1922              		.loc 1 216 6 is_stmt 1 view .LVU423
 216:App/Src/calculate.c **** 				} else {
 1923              		.loc 1 216 11 is_stmt 0 view .LVU424
 1924 0346 DDED0A9A 		vldr.32	s19, [sp, #40]
 1925              	.LVL216:
 216:App/Src/calculate.c **** 				} else {
 1926              		.loc 1 216 11 view .LVU425
 1927 034a 76E7     		b	.L86
 1928              	.L180:
 215:App/Src/calculate.c **** 					minB = cac.B;
 1929              		.loc 1 215 57 discriminator 4 view .LVU426
 1930 034c B5EEC08A 		vcmpe.f32	s16, #0
 1931 0350 F1EE10FA 		vmrs	APSR_nzcv, FPSCR
 1932 0354 3FF66FAF 		bhi	.L83
 1933 0358 F5E7     		b	.L82
 1934              	.L188:
 1935 035a 00BFAFF3 		.align	3
 1935      0080
 1936              	.L187:
 1937 0360 9A999999 		.word	-1717986918
 1938 0364 9999B93F 		.word	1069128089
 1939 0368 9A999999 		.word	-1717986918
 1940 036c 9999C93F 		.word	1070176665
 1941 0370 00000000 		.word	.LANCHOR1
 1942 0374 00000000 		.word	.LANCHOR2
 1943 0378 00807744 		.word	1148682240
 1944 037c 00000000 		.word	.LC11
 1945 0380 14000000 		.word	.LC12
 1946              	.L79:
 219:App/Src/calculate.c **** 				}
 220:App/Src/calculate.c **** 			}
 221:App/Src/calculate.c **** 		}
 222:App/Src/calculate.c **** 		if (fabs(error) <= 1) {
 1947              		.loc 1 222 3 is_stmt 1 view .LVU427
 1948              		.loc 1 222 7 is_stmt 0 view .LVU428
 1949 0384 F0EEC87A 		vabs.f32	s15, s16
 1950              		.loc 1 222 6 view .LVU429
 1951 0388 B7EE007A 		vmov.f32	s14, #1.0e+0
 1952 038c F4EEC77A 		vcmpe.f32	s15, s14
 1953 0390 F1EE10FA 		vmrs	APSR_nzcv, FPSCR
ARM GAS  C:\Users\86158\AppData\Local\Temp\ccP8sDIW.s 			page 43


 1954 0394 00F23781 		bhi	.L171
 223:App/Src/calculate.c **** 			cac.mode = 0;
 1955              		.loc 1 223 4 is_stmt 1 view .LVU430
 1956              		.loc 1 223 13 is_stmt 0 view .LVU431
 1957 0398 0023     		movs	r3, #0
 1958 039a 8DF83430 		strb	r3, [sp, #52]
 224:App/Src/calculate.c **** 			copy_parameter(&g_left, &cac);
 1959              		.loc 1 224 4 is_stmt 1 view .LVU432
 1960 039e 09A9     		add	r1, sp, #36
 1961 03a0 9F48     		ldr	r0, .L189+8
 1962 03a2 FFF7FEFF 		bl	copy_parameter
 1963              	.LVL217:
 225:App/Src/calculate.c **** 			UsbPrintf("min error:%.2f\n", error);
 1964              		.loc 1 225 4 view .LVU433
 1965 03a6 18EE100A 		vmov	r0, s16
 1966 03aa FFF7FEFF 		bl	__aeabi_f2d
 1967              	.LVL218:
 1968 03ae 0246     		mov	r2, r0
 1969 03b0 0B46     		mov	r3, r1
 1970 03b2 9C48     		ldr	r0, .L189+12
 1971 03b4 FFF7FEFF 		bl	UsbPrintf
 1972              	.LVL219:
 1973              	.L90:
 226:App/Src/calculate.c **** 		} else {
 227:App/Src/calculate.c **** 			UsbPrintf("check left para error, step 1!\n");
 228:App/Src/calculate.c **** 			return 0;
 229:App/Src/calculate.c **** 		}
 230:App/Src/calculate.c **** 	} else {
 231:App/Src/calculate.c **** 		cac.B = minB;// 
 232:App/Src/calculate.c **** 		cac.A = (g_result[TEST_RTC_TEMP_Z29] - g_result[TEST_RTC_TEMP_F40]) / (1 - cosh((g_input[TEST_RTC
 233:App/Src/calculate.c **** 		cac.C = g_result[TEST_RTC_TEMP_Z29] - cac.A;
 234:App/Src/calculate.c **** 		minError = cac.A * cosh((g_input[TEST_RTC_TEMP_F10] - cac.X0) / cac.B) + cac.C - g_result[TEST_RT
 235:App/Src/calculate.c **** 		cac.B = maxB;// 
 236:App/Src/calculate.c **** 		cac.A = (g_result[TEST_RTC_TEMP_Z29] - g_result[TEST_RTC_TEMP_F40]) / (1 - cosh((g_input[TEST_RTC
 237:App/Src/calculate.c **** 		cac.C = g_result[TEST_RTC_TEMP_Z29] - cac.A;
 238:App/Src/calculate.c **** 		maxError = cac.A * cosh((g_input[TEST_RTC_TEMP_F10] - cac.X0) / cac.B) + cac.C - g_result[TEST_RT
 239:App/Src/calculate.c **** 		UsbPrintf("min:%.2f, max:%.2f\n", minError, maxError);
 240:App/Src/calculate.c **** 		if ((minError > 0 && maxError < 0 ) || (minError < 0 && maxError > 0) || fabs(maxError) < 0.1) {
 241:App/Src/calculate.c **** 			UsbPrintf("left para use mode 1\n");
 242:App/Src/calculate.c **** 			for (i = 0; i < 20; i++) {
 243:App/Src/calculate.c **** 				cac.B = (minB + maxB) / 2;
 244:App/Src/calculate.c **** 				cac.A = (g_result[TEST_RTC_TEMP_Z29] - g_result[TEST_RTC_TEMP_F40]) / (1 - cosh((g_input[TEST_R
 245:App/Src/calculate.c **** 				cac.C = g_result[TEST_RTC_TEMP_Z29] - cac.A;
 246:App/Src/calculate.c **** 				error = cac.A * cosh((g_input[TEST_RTC_TEMP_F10] - cac.X0) / cac.B) + cac.C - g_result[TEST_RTC
 247:App/Src/calculate.c **** 				if (fabs(error) <= 0.2) {
 248:App/Src/calculate.c **** 					break;
 249:App/Src/calculate.c **** 				} else {
 250:App/Src/calculate.c **** 					if ((minError >= 0 && error >= 0) || (minError <= 0 && error <= 0)) {
 251:App/Src/calculate.c **** 						minB = cac.B;
 252:App/Src/calculate.c **** 					} else {
 253:App/Src/calculate.c **** 						maxB = cac.B;
 254:App/Src/calculate.c **** 					}
 255:App/Src/calculate.c **** 				}
 256:App/Src/calculate.c **** 			}
 257:App/Src/calculate.c **** 			if (fabs(error) <= 1) {
 258:App/Src/calculate.c **** 				cac.mode = 1;
 259:App/Src/calculate.c **** 				copy_parameter(&g_left, &cac);
ARM GAS  C:\Users\86158\AppData\Local\Temp\ccP8sDIW.s 			page 44


 260:App/Src/calculate.c **** 				UsbPrintf("min error:%.2f\n", error);
 261:App/Src/calculate.c **** 			} else {
 262:App/Src/calculate.c **** 				UsbPrintf("check left para error, step 2!\n");
 263:App/Src/calculate.c **** 				return 0;
 264:App/Src/calculate.c **** 			}
 265:App/Src/calculate.c **** 		} else {
 266:App/Src/calculate.c **** 			UsbPrintf("check left para error, step 0!\n");
 267:App/Src/calculate.c **** 			return 0;
 268:App/Src/calculate.c **** 		}
 269:App/Src/calculate.c **** 	}
 270:App/Src/calculate.c **** 	UsbPrintf("left:\tA:%.2f, B:%.2f, C:%.2f; X0:%.2f, mode:%d\n", g_left.A, g_left.B, g_left.C, g_lef
 1974              		.loc 1 270 2 view .LVU434
 1975              		.loc 1 270 71 is_stmt 0 view .LVU435
 1976 03b8 994B     		ldr	r3, .L189+8
 1977              		.loc 1 270 81 view .LVU436
 1978 03ba 5E68     		ldr	r6, [r3, #4]	@ float
 1979              		.loc 1 270 91 view .LVU437
 1980 03bc DF68     		ldr	r7, [r3, #12]	@ float
 1981              		.loc 1 270 101 view .LVU438
 1982 03be D3F80880 		ldr	r8, [r3, #8]	@ float
 1983              		.loc 1 270 112 view .LVU439
 1984 03c2 93F81090 		ldrb	r9, [r3, #16]	@ zero_extendqisi2
 1985              		.loc 1 270 2 view .LVU440
 1986 03c6 1868     		ldr	r0, [r3]	@ float
 1987 03c8 FFF7FEFF 		bl	__aeabi_f2d
 1988              	.LVL220:
 1989 03cc 0446     		mov	r4, r0
 1990 03ce 0D46     		mov	r5, r1
 1991 03d0 CDF81890 		str	r9, [sp, #24]
 1992 03d4 4046     		mov	r0, r8	@ float
 1993 03d6 FFF7FEFF 		bl	__aeabi_f2d
 1994              	.LVL221:
 1995 03da CDE90401 		strd	r0, [sp, #16]
 1996 03de 3846     		mov	r0, r7	@ float
 1997 03e0 FFF7FEFF 		bl	__aeabi_f2d
 1998              	.LVL222:
 1999 03e4 CDE90201 		strd	r0, [sp, #8]
 2000 03e8 3046     		mov	r0, r6	@ float
 2001 03ea FFF7FEFF 		bl	__aeabi_f2d
 2002              	.LVL223:
 2003 03ee CDE90001 		strd	r0, [sp]
 2004 03f2 2246     		mov	r2, r4
 2005 03f4 2B46     		mov	r3, r5
 2006 03f6 8C48     		ldr	r0, .L189+16
 2007 03f8 FFF7FEFF 		bl	UsbPrintf
 2008              	.LVL224:
 271:App/Src/calculate.c **** 
 272:App/Src/calculate.c **** //-------------------------------------------------------------------------------------------------
 273:App/Src/calculate.c **** 	cac.X0 = g_input[TEST_RTC_TEMP_Z29];
 2009              		.loc 1 273 2 is_stmt 1 view .LVU441
 2010              		.loc 1 273 18 is_stmt 0 view .LVU442
 2011 03fc 8B4D     		ldr	r5, .L189+20
 2012 03fe 95ED029A 		vldr.32	s18, [r5, #8]
 2013              	.LVL225:
 2014              		.loc 1 273 9 view .LVU443
 2015 0402 8DED0B9A 		vstr.32	s18, [sp, #44]
 274:App/Src/calculate.c **** 	cac.C = g_result[TEST_RTC_TEMP_Z29];
ARM GAS  C:\Users\86158\AppData\Local\Temp\ccP8sDIW.s 			page 45


 2016              		.loc 1 274 2 is_stmt 1 view .LVU444
 2017              		.loc 1 274 18 is_stmt 0 view .LVU445
 2018 0406 8A4C     		ldr	r4, .L189+24
 2019 0408 D4ED027A 		vldr.32	s15, [r4, #8]
 2020              		.loc 1 274 8 view .LVU446
 2021 040c CDED0C7A 		vstr.32	s15, [sp, #48]
 275:App/Src/calculate.c **** 	minB = 10;
 2022              		.loc 1 275 2 is_stmt 1 view .LVU447
 2023              	.LVL226:
 276:App/Src/calculate.c **** 	maxB = 990;
 2024              		.loc 1 276 2 view .LVU448
 277:App/Src/calculate.c **** 
 278:App/Src/calculate.c **** 	cac.B = minB;// 
 2025              		.loc 1 278 2 view .LVU449
 2026              		.loc 1 278 8 is_stmt 0 view .LVU450
 2027 0410 F2EE048A 		vmov.f32	s17, #1.0e+1
 2028              	.LVL227:
 2029              		.loc 1 278 8 view .LVU451
 2030 0414 CDED0A8A 		vstr.32	s17, [sp, #40]
 279:App/Src/calculate.c **** 	cac.A = (g_result[TEST_RTC_TEMP_Z85] - cac.C) / log(cosh((g_input[TEST_RTC_TEMP_Z85] - cac.X0) / c
 2031              		.loc 1 279 2 is_stmt 1 view .LVU452
 2032              		.loc 1 279 19 is_stmt 0 view .LVU453
 2033 0418 94ED047A 		vldr.32	s14, [r4, #16]
 2034              		.loc 1 279 39 view .LVU454
 2035 041c 77EE677A 		vsub.f32	s15, s14, s15
 2036 0420 17EE900A 		vmov	r0, s15
 2037 0424 FFF7FEFF 		bl	__aeabi_f2d
 2038              	.LVL228:
 2039 0428 0646     		mov	r6, r0
 2040 042a 0F46     		mov	r7, r1
 2041              		.loc 1 279 67 view .LVU455
 2042 042c D5ED047A 		vldr.32	s15, [r5, #16]
 2043              		.loc 1 279 87 view .LVU456
 2044 0430 77EEC97A 		vsub.f32	s15, s15, s18
 2045              		.loc 1 279 50 view .LVU457
 2046 0434 C7EEA87A 		vdiv.f32	s15, s15, s17
 2047 0438 17EE900A 		vmov	r0, s15
 2048 043c FFF7FEFF 		bl	__aeabi_f2d
 2049              	.LVL229:
 2050 0440 41EC100B 		vmov	d0, r0, r1
 2051 0444 FFF7FEFF 		bl	cosh
 2052              	.LVL230:
 2053 0448 FFF7FEFF 		bl	log
 2054              	.LVL231:
 2055 044c 53EC102B 		vmov	r2, r3, d0
 2056              		.loc 1 279 48 view .LVU458
 2057 0450 3046     		mov	r0, r6
 2058 0452 3946     		mov	r1, r7
 2059 0454 FFF7FEFF 		bl	__aeabi_ddiv
 2060              	.LVL232:
 2061 0458 FFF7FEFF 		bl	__aeabi_d2f
 2062              	.LVL233:
 2063              		.loc 1 279 8 view .LVU459
 2064 045c 0990     		str	r0, [sp, #36]	@ float
 280:App/Src/calculate.c **** 	minError = cac.A * log(cosh((g_input[TEST_RTC_TEMP_Z60] - cac.X0) / cac.B)) + cac.C - g_result[TES
 2065              		.loc 1 280 2 is_stmt 1 view .LVU460
 2066              		.loc 1 280 16 is_stmt 0 view .LVU461
ARM GAS  C:\Users\86158\AppData\Local\Temp\ccP8sDIW.s 			page 46


 2067 045e FFF7FEFF 		bl	__aeabi_f2d
 2068              	.LVL234:
 2069 0462 0646     		mov	r6, r0
 2070 0464 0F46     		mov	r7, r1
 2071              		.loc 1 280 38 view .LVU462
 2072 0466 D5ED037A 		vldr.32	s15, [r5, #12]
 2073              		.loc 1 280 63 view .LVU463
 2074 046a 9DED0B7A 		vldr.32	s14, [sp, #44]
 2075              		.loc 1 280 58 view .LVU464
 2076 046e 77EEC77A 		vsub.f32	s15, s15, s14
 2077              		.loc 1 280 21 view .LVU465
 2078 0472 9DED0A7A 		vldr.32	s14, [sp, #40]
 2079 0476 C7EE877A 		vdiv.f32	s15, s15, s14
 2080 047a 17EE900A 		vmov	r0, s15
 2081 047e FFF7FEFF 		bl	__aeabi_f2d
 2082              	.LVL235:
 2083 0482 41EC100B 		vmov	d0, r0, r1
 2084 0486 FFF7FEFF 		bl	cosh
 2085              	.LVL236:
 2086 048a FFF7FEFF 		bl	log
 2087              	.LVL237:
 2088 048e 53EC102B 		vmov	r2, r3, d0
 2089              		.loc 1 280 19 view .LVU466
 2090 0492 3046     		mov	r0, r6
 2091 0494 3946     		mov	r1, r7
 2092 0496 FFF7FEFF 		bl	__aeabi_dmul
 2093              	.LVL238:
 2094 049a 0646     		mov	r6, r0
 2095 049c 0F46     		mov	r7, r1
 2096              		.loc 1 280 83 view .LVU467
 2097 049e DDED0C9A 		vldr.32	s19, [sp, #48]
 2098 04a2 19EE900A 		vmov	r0, s19
 2099 04a6 FFF7FEFF 		bl	__aeabi_f2d
 2100              	.LVL239:
 2101 04aa 0246     		mov	r2, r0
 2102 04ac 0B46     		mov	r3, r1
 2103              		.loc 1 280 78 view .LVU468
 2104 04ae 3046     		mov	r0, r6
 2105 04b0 3946     		mov	r1, r7
 2106 04b2 FFF7FEFF 		bl	__aeabi_dadd
 2107              	.LVL240:
 2108 04b6 0646     		mov	r6, r0
 2109 04b8 0F46     		mov	r7, r1
 2110              		.loc 1 280 96 view .LVU469
 2111 04ba E068     		ldr	r0, [r4, #12]	@ float
 2112 04bc FFF7FEFF 		bl	__aeabi_f2d
 2113              	.LVL241:
 2114 04c0 0246     		mov	r2, r0
 2115 04c2 0B46     		mov	r3, r1
 2116              		.loc 1 280 86 view .LVU470
 2117 04c4 3046     		mov	r0, r6
 2118 04c6 3946     		mov	r1, r7
 2119 04c8 FFF7FEFF 		bl	__aeabi_dsub
 2120              	.LVL242:
 2121              		.loc 1 280 11 view .LVU471
 2122 04cc FFF7FEFF 		bl	__aeabi_d2f
 2123              	.LVL243:
ARM GAS  C:\Users\86158\AppData\Local\Temp\ccP8sDIW.s 			page 47


 2124 04d0 08EE900A 		vmov	s17, r0
 2125              	.LVL244:
 281:App/Src/calculate.c **** 	cac.B = maxB;// 
 2126              		.loc 1 281 2 is_stmt 1 view .LVU472
 2127              		.loc 1 281 8 is_stmt 0 view .LVU473
 2128 04d4 9FED579A 		vldr.32	s18, .L189+28
 2129 04d8 8DED0A9A 		vstr.32	s18, [sp, #40]
 282:App/Src/calculate.c **** 	cac.A = (g_result[TEST_RTC_TEMP_Z85] - cac.C) / log(cosh((g_input[TEST_RTC_TEMP_Z85] - cac.X0) / c
 2130              		.loc 1 282 2 is_stmt 1 view .LVU474
 2131              		.loc 1 282 19 is_stmt 0 view .LVU475
 2132 04dc D4ED047A 		vldr.32	s15, [r4, #16]
 2133              		.loc 1 282 39 view .LVU476
 2134 04e0 77EEE97A 		vsub.f32	s15, s15, s19
 2135 04e4 17EE900A 		vmov	r0, s15
 2136              	.LVL245:
 2137              		.loc 1 282 39 view .LVU477
 2138 04e8 FFF7FEFF 		bl	__aeabi_f2d
 2139              	.LVL246:
 2140 04ec 0646     		mov	r6, r0
 2141 04ee 0F46     		mov	r7, r1
 2142              		.loc 1 282 67 view .LVU478
 2143 04f0 D5ED047A 		vldr.32	s15, [r5, #16]
 2144              		.loc 1 282 92 view .LVU479
 2145 04f4 9DED0B7A 		vldr.32	s14, [sp, #44]
 2146              		.loc 1 282 87 view .LVU480
 2147 04f8 77EEC77A 		vsub.f32	s15, s15, s14
 2148              		.loc 1 282 50 view .LVU481
 2149 04fc C7EE897A 		vdiv.f32	s15, s15, s18
 2150 0500 17EE900A 		vmov	r0, s15
 2151 0504 FFF7FEFF 		bl	__aeabi_f2d
 2152              	.LVL247:
 2153 0508 41EC100B 		vmov	d0, r0, r1
 2154 050c FFF7FEFF 		bl	cosh
 2155              	.LVL248:
 2156 0510 FFF7FEFF 		bl	log
 2157              	.LVL249:
 2158 0514 53EC102B 		vmov	r2, r3, d0
 2159              		.loc 1 282 48 view .LVU482
 2160 0518 3046     		mov	r0, r6
 2161 051a 3946     		mov	r1, r7
 2162 051c FFF7FEFF 		bl	__aeabi_ddiv
 2163              	.LVL250:
 2164 0520 FFF7FEFF 		bl	__aeabi_d2f
 2165              	.LVL251:
 2166              		.loc 1 282 8 view .LVU483
 2167 0524 0990     		str	r0, [sp, #36]	@ float
 283:App/Src/calculate.c **** 	maxError = cac.A * log(cosh((g_input[TEST_RTC_TEMP_Z60] - cac.X0) / cac.B)) + cac.C - g_result[TES
 2168              		.loc 1 283 2 is_stmt 1 view .LVU484
 2169              		.loc 1 283 16 is_stmt 0 view .LVU485
 2170 0526 FFF7FEFF 		bl	__aeabi_f2d
 2171              	.LVL252:
 2172 052a 0646     		mov	r6, r0
 2173 052c 0F46     		mov	r7, r1
 2174              		.loc 1 283 38 view .LVU486
 2175 052e D5ED037A 		vldr.32	s15, [r5, #12]
 2176              		.loc 1 283 63 view .LVU487
 2177 0532 9DED0B7A 		vldr.32	s14, [sp, #44]
ARM GAS  C:\Users\86158\AppData\Local\Temp\ccP8sDIW.s 			page 48


 2178              		.loc 1 283 58 view .LVU488
 2179 0536 77EEC77A 		vsub.f32	s15, s15, s14
 2180              		.loc 1 283 21 view .LVU489
 2181 053a 9DED0A7A 		vldr.32	s14, [sp, #40]
 2182 053e C7EE877A 		vdiv.f32	s15, s15, s14
 2183 0542 17EE900A 		vmov	r0, s15
 2184 0546 FFF7FEFF 		bl	__aeabi_f2d
 2185              	.LVL253:
 2186 054a 41EC100B 		vmov	d0, r0, r1
 2187 054e FFF7FEFF 		bl	cosh
 2188              	.LVL254:
 2189 0552 FFF7FEFF 		bl	log
 2190              	.LVL255:
 2191 0556 53EC102B 		vmov	r2, r3, d0
 2192              		.loc 1 283 19 view .LVU490
 2193 055a 3046     		mov	r0, r6
 2194 055c 3946     		mov	r1, r7
 2195 055e FFF7FEFF 		bl	__aeabi_dmul
 2196              	.LVL256:
 2197 0562 0646     		mov	r6, r0
 2198 0564 0F46     		mov	r7, r1
 2199              		.loc 1 283 83 view .LVU491
 2200 0566 0C98     		ldr	r0, [sp, #48]	@ float
 2201 0568 FFF7FEFF 		bl	__aeabi_f2d
 2202              	.LVL257:
 2203 056c 0246     		mov	r2, r0
 2204 056e 0B46     		mov	r3, r1
 2205              		.loc 1 283 78 view .LVU492
 2206 0570 3046     		mov	r0, r6
 2207 0572 3946     		mov	r1, r7
 2208 0574 FFF7FEFF 		bl	__aeabi_dadd
 2209              	.LVL258:
 2210 0578 0646     		mov	r6, r0
 2211 057a 0F46     		mov	r7, r1
 2212              		.loc 1 283 96 view .LVU493
 2213 057c E068     		ldr	r0, [r4, #12]	@ float
 2214 057e FFF7FEFF 		bl	__aeabi_f2d
 2215              	.LVL259:
 2216 0582 0246     		mov	r2, r0
 2217 0584 0B46     		mov	r3, r1
 2218              		.loc 1 283 86 view .LVU494
 2219 0586 3046     		mov	r0, r6
 2220 0588 3946     		mov	r1, r7
 2221 058a FFF7FEFF 		bl	__aeabi_dsub
 2222              	.LVL260:
 2223              		.loc 1 283 11 view .LVU495
 2224 058e FFF7FEFF 		bl	__aeabi_d2f
 2225              	.LVL261:
 2226 0592 09EE100A 		vmov	s18, r0
 2227              	.LVL262:
 284:App/Src/calculate.c **** 	UsbPrintf("min:%.2f, max:%.2f\n", minError, maxError);
 2228              		.loc 1 284 2 is_stmt 1 view .LVU496
 2229 0596 18EE900A 		vmov	r0, s17
 2230              	.LVL263:
 2231              		.loc 1 284 2 is_stmt 0 view .LVU497
 2232 059a FFF7FEFF 		bl	__aeabi_f2d
 2233              	.LVL264:
ARM GAS  C:\Users\86158\AppData\Local\Temp\ccP8sDIW.s 			page 49


 2234 059e 0446     		mov	r4, r0
 2235 05a0 0D46     		mov	r5, r1
 2236 05a2 19EE100A 		vmov	r0, s18
 2237 05a6 FFF7FEFF 		bl	__aeabi_f2d
 2238              	.LVL265:
 2239 05aa CDE90001 		strd	r0, [sp]
 2240 05ae 2246     		mov	r2, r4
 2241 05b0 2B46     		mov	r3, r5
 2242 05b2 2148     		ldr	r0, .L189+32
 2243 05b4 FFF7FEFF 		bl	UsbPrintf
 2244              	.LVL266:
 285:App/Src/calculate.c **** 	if ((minError >= 0 && maxError < 0 ) || (minError <= 0 && maxError > 0) || fabs(maxError) < 0.1) {
 2245              		.loc 1 285 2 is_stmt 1 view .LVU498
 2246              		.loc 1 285 5 is_stmt 0 view .LVU499
 2247 05b8 F5EEC08A 		vcmpe.f32	s17, #0
 2248 05bc F1EE10FA 		vmrs	APSR_nzcv, FPSCR
 2249 05c0 04DB     		blt	.L111
 2250              		.loc 1 285 21 discriminator 1 view .LVU500
 2251 05c2 B5EEC09A 		vcmpe.f32	s18, #0
 2252 05c6 F1EE10FA 		vmrs	APSR_nzcv, FPSCR
 2253 05ca 13D4     		bmi	.L113
 2254              	.L111:
 2255              		.loc 1 285 39 discriminator 3 view .LVU501
 2256 05cc F5EEC08A 		vcmpe.f32	s17, #0
 2257 05d0 F1EE10FA 		vmrs	APSR_nzcv, FPSCR
 2258 05d4 40F22C82 		bls	.L181
 2259              	.L114:
 2260              		.loc 1 285 77 discriminator 6 view .LVU502
 2261 05d8 F0EEC97A 		vabs.f32	s15, s18
 2262 05dc 17EE900A 		vmov	r0, s15
 2263 05e0 FFF7FEFF 		bl	__aeabi_f2d
 2264              	.LVL267:
 2265              		.loc 1 285 74 discriminator 6 view .LVU503
 2266 05e4 0CA3     		adr	r3, .L189
 2267 05e6 D3E90023 		ldrd	r2, [r3]
 2268 05ea FFF7FEFF 		bl	__aeabi_dcmplt
 2269              	.LVL268:
 2270 05ee 0028     		cmp	r0, #0
 2271 05f0 00F01E83 		beq	.L174
 2272              	.L113:
 286:App/Src/calculate.c **** 		UsbPrintf("right para use mode 0\n");
 2273              		.loc 1 286 3 is_stmt 1 view .LVU504
 2274 05f4 1148     		ldr	r0, .L189+36
 2275 05f6 FFF7FEFF 		bl	UsbPrintf
 2276              	.LVL269:
 287:App/Src/calculate.c **** 		for (i = 0; i < 20; i++) {
 2277              		.loc 1 287 3 view .LVU505
 276:App/Src/calculate.c **** 
 2278              		.loc 1 276 7 is_stmt 0 view .LVU506
 2279 05fa 9FED0E9A 		vldr.32	s18, .L189+28
 2280              	.LVL270:
 275:App/Src/calculate.c **** 	maxB = 990;
 2281              		.loc 1 275 7 view .LVU507
 2282 05fe F2EE049A 		vmov.f32	s19, #1.0e+1
 2283              		.loc 1 287 10 view .LVU508
 2284 0602 0026     		movs	r6, #0
 2285              		.loc 1 287 3 view .LVU509
ARM GAS  C:\Users\86158\AppData\Local\Temp\ccP8sDIW.s 			page 50


 2286 0604 24E2     		b	.L118
 2287              	.LVL271:
 2288              	.L171:
 227:App/Src/calculate.c **** 			return 0;
 2289              		.loc 1 227 4 is_stmt 1 view .LVU510
 2290 0606 0E48     		ldr	r0, .L189+40
 2291 0608 FFF7FEFF 		bl	UsbPrintf
 2292              	.LVL272:
 228:App/Src/calculate.c **** 		}
 2293              		.loc 1 228 4 view .LVU511
 228:App/Src/calculate.c **** 		}
 2294              		.loc 1 228 11 is_stmt 0 view .LVU512
 2295 060c 0020     		movs	r0, #0
 2296              	.LVL273:
 2297              	.L91:
 288:App/Src/calculate.c **** 			cac.B = (minB + maxB) / 2;
 289:App/Src/calculate.c **** 			cac.A = (g_result[TEST_RTC_TEMP_Z85] - cac.C) / log(cosh((g_input[TEST_RTC_TEMP_Z85] - cac.X0) /
 290:App/Src/calculate.c **** 			error = cac.A * log(cosh((g_input[TEST_RTC_TEMP_Z60] - cac.X0) / cac.B)) + cac.C - g_result[TEST
 291:App/Src/calculate.c **** 			if (fabs(error) <= 0.2) {
 292:App/Src/calculate.c **** 				break;
 293:App/Src/calculate.c **** 			} else {
 294:App/Src/calculate.c **** 				if ((minError >= 0 && error >= 0) || (minError <= 0 && error <= 0)) {
 295:App/Src/calculate.c **** 					minB = cac.B;
 296:App/Src/calculate.c **** 				} else {
 297:App/Src/calculate.c **** 					maxB = cac.B;
 298:App/Src/calculate.c **** 				}
 299:App/Src/calculate.c **** 			}
 300:App/Src/calculate.c **** 		}
 301:App/Src/calculate.c **** 		if (fabs(error) <= 1) {
 302:App/Src/calculate.c **** 			cac.mode = 0;
 303:App/Src/calculate.c **** 			copy_parameter(&g_right, &cac);
 304:App/Src/calculate.c **** 			UsbPrintf("min error:%.2f\n", error);
 305:App/Src/calculate.c **** 		} else {
 306:App/Src/calculate.c **** 			UsbPrintf("check right para error, step 1!\n");
 307:App/Src/calculate.c **** 			return 0;
 308:App/Src/calculate.c **** 		}
 309:App/Src/calculate.c **** 	} else {
 310:App/Src/calculate.c **** 		cac.B = minB;// 
 311:App/Src/calculate.c **** 		cac.A = (g_result[TEST_RTC_TEMP_Z29] - g_result[TEST_RTC_TEMP_Z85]) / (1 - cosh((g_input[TEST_RTC
 312:App/Src/calculate.c **** 		cac.C = g_result[TEST_RTC_TEMP_Z29] - cac.A;
 313:App/Src/calculate.c **** 		minError = cac.A * cosh((g_input[TEST_RTC_TEMP_Z60] - cac.X0) / cac.B) + cac.C - g_result[TEST_RT
 314:App/Src/calculate.c **** 		cac.B = maxB;// 
 315:App/Src/calculate.c **** 		cac.A = (g_result[TEST_RTC_TEMP_Z29] - g_result[TEST_RTC_TEMP_Z85]) / (1 - cosh((g_input[TEST_RTC
 316:App/Src/calculate.c **** 		cac.C = g_result[TEST_RTC_TEMP_Z29] - cac.A;
 317:App/Src/calculate.c **** 		maxError = cac.A * cosh((g_input[TEST_RTC_TEMP_Z60] - cac.X0) / cac.B) + cac.C - g_result[TEST_RT
 318:App/Src/calculate.c **** 		UsbPrintf("min:%.2f, max:%.2f\n", minError, maxError);
 319:App/Src/calculate.c **** 		if ((minError > 0 && maxError < 0 ) || (minError < 0 && maxError > 0) || fabs(maxError) < 0.1) {
 320:App/Src/calculate.c **** 			UsbPrintf("right para use mode 1\n");
 321:App/Src/calculate.c **** 			for (i = 0; i < 20; i++) {
 322:App/Src/calculate.c **** 				cac.B = (minB + maxB) / 2;
 323:App/Src/calculate.c **** 				cac.A = (g_result[TEST_RTC_TEMP_Z29] - g_result[TEST_RTC_TEMP_Z85]) / (1 - cosh((g_input[TEST_R
 324:App/Src/calculate.c **** 				cac.C = g_result[TEST_RTC_TEMP_Z29] - cac.A;
 325:App/Src/calculate.c **** 				error = cac.A * cosh((g_input[TEST_RTC_TEMP_Z60] - cac.X0) / cac.B) + cac.C - g_result[TEST_RTC
 326:App/Src/calculate.c **** 				if (fabs(error) <= 0.2) {
 327:App/Src/calculate.c **** 					break;
 328:App/Src/calculate.c **** 				} else {
 329:App/Src/calculate.c **** 					if ((minError >= 0 && error >= 0) || (minError <= 0 && error <= 0)) {
ARM GAS  C:\Users\86158\AppData\Local\Temp\ccP8sDIW.s 			page 51


 330:App/Src/calculate.c **** 						minB = cac.B;
 331:App/Src/calculate.c **** 					} else {
 332:App/Src/calculate.c **** 						maxB = cac.B;
 333:App/Src/calculate.c **** 					}
 334:App/Src/calculate.c **** 				}
 335:App/Src/calculate.c **** 			}
 336:App/Src/calculate.c **** 			if (fabs(error) <= 1) {
 337:App/Src/calculate.c **** 				cac.mode = 1;
 338:App/Src/calculate.c **** 				copy_parameter(&g_right, &cac);
 339:App/Src/calculate.c **** 				UsbPrintf("min error:%.2f\n", error);
 340:App/Src/calculate.c **** 			} else {
 341:App/Src/calculate.c **** 				UsbPrintf("check right para error, step 2!\n");
 342:App/Src/calculate.c **** 				return 0;
 343:App/Src/calculate.c **** 			}
 344:App/Src/calculate.c **** 		} else {
 345:App/Src/calculate.c **** 			UsbPrintf("check right para error, step 0!\n");
 346:App/Src/calculate.c **** 			return 0;
 347:App/Src/calculate.c **** 		}
 348:App/Src/calculate.c **** 	}
 349:App/Src/calculate.c **** 	UsbPrintf("right:\tA:%.2f, B:%.2f, C:%.2f; X0:%.2f, mode:%d\n", g_right.A, g_right.B, g_right.C, g
 350:App/Src/calculate.c **** 
 351:App/Src/calculate.c **** 	log_printf("parameter init success!\n");
 352:App/Src/calculate.c **** 	UsbPrintf("parameter init success!\n");
 353:App/Src/calculate.c **** 	return 1;
 354:App/Src/calculate.c **** }
 2298              		.loc 1 354 1 view .LVU513
 2299 060e 0FB0     		add	sp, sp, #60
 2300              	.LCFI29:
 2301              		.cfi_remember_state
 2302              		.cfi_def_cfa_offset 44
 2303              		@ sp needed
 2304 0610 BDEC048B 		vldm	sp!, {d8-d9}
 2305              	.LCFI30:
 2306              		.cfi_restore 82
 2307              		.cfi_restore 83
 2308              		.cfi_restore 80
 2309              		.cfi_restore 81
 2310              		.cfi_def_cfa_offset 28
 2311 0614 BDE8F083 		pop	{r4, r5, r6, r7, r8, r9, pc}
 2312              	.L190:
 2313              		.align	3
 2314              	.L189:
 2315 0618 9A999999 		.word	-1717986918
 2316 061c 9999B93F 		.word	1069128089
 2317 0620 00000000 		.word	.LANCHOR3
 2318 0624 2C000000 		.word	.LC13
 2319 0628 00000000 		.word	.LC8
 2320 062c 00000000 		.word	.LANCHOR1
 2321 0630 00000000 		.word	.LANCHOR2
 2322 0634 00807744 		.word	1148682240
 2323 0638 00000000 		.word	.LC11
 2324 063c B4000000 		.word	.LC18
 2325 0640 3C000000 		.word	.LC14
 2326              	.LVL274:
 2327              	.L170:
 2328              	.LCFI31:
 2329              		.cfi_restore_state
ARM GAS  C:\Users\86158\AppData\Local\Temp\ccP8sDIW.s 			page 52


 231:App/Src/calculate.c **** 		cac.A = (g_result[TEST_RTC_TEMP_Z29] - g_result[TEST_RTC_TEMP_F40]) / (1 - cosh((g_input[TEST_RTC
 2330              		.loc 1 231 3 is_stmt 1 view .LVU514
 231:App/Src/calculate.c **** 		cac.A = (g_result[TEST_RTC_TEMP_Z29] - g_result[TEST_RTC_TEMP_F40]) / (1 - cosh((g_input[TEST_RTC
 2331              		.loc 1 231 9 is_stmt 0 view .LVU515
 2332 0644 F2EE048A 		vmov.f32	s17, #1.0e+1
 2333              	.LVL275:
 231:App/Src/calculate.c **** 		cac.A = (g_result[TEST_RTC_TEMP_Z29] - g_result[TEST_RTC_TEMP_F40]) / (1 - cosh((g_input[TEST_RTC
 2334              		.loc 1 231 9 view .LVU516
 2335 0648 CDED0A8A 		vstr.32	s17, [sp, #40]
 232:App/Src/calculate.c **** 		cac.C = g_result[TEST_RTC_TEMP_Z29] - cac.A;
 2336              		.loc 1 232 3 is_stmt 1 view .LVU517
 232:App/Src/calculate.c **** 		cac.C = g_result[TEST_RTC_TEMP_Z29] - cac.A;
 2337              		.loc 1 232 20 is_stmt 0 view .LVU518
 2338 064c E04C     		ldr	r4, .L191+16
 2339 064e 94ED027A 		vldr.32	s14, [r4, #8]
 232:App/Src/calculate.c **** 		cac.C = g_result[TEST_RTC_TEMP_Z29] - cac.A;
 2340              		.loc 1 232 50 view .LVU519
 2341 0652 D4ED007A 		vldr.32	s15, [r4]
 232:App/Src/calculate.c **** 		cac.C = g_result[TEST_RTC_TEMP_Z29] - cac.A;
 2342              		.loc 1 232 40 view .LVU520
 2343 0656 77EE677A 		vsub.f32	s15, s14, s15
 2344 065a 17EE900A 		vmov	r0, s15
 2345 065e FFF7FEFF 		bl	__aeabi_f2d
 2346              	.LVL276:
 2347 0662 0646     		mov	r6, r0
 2348 0664 0F46     		mov	r7, r1
 232:App/Src/calculate.c **** 		cac.C = g_result[TEST_RTC_TEMP_Z29] - cac.A;
 2349              		.loc 1 232 91 view .LVU521
 2350 0666 DB4D     		ldr	r5, .L191+20
 2351 0668 D5ED007A 		vldr.32	s15, [r5]
 232:App/Src/calculate.c **** 		cac.C = g_result[TEST_RTC_TEMP_Z29] - cac.A;
 2352              		.loc 1 232 116 view .LVU522
 2353 066c 9DED0B7A 		vldr.32	s14, [sp, #44]
 232:App/Src/calculate.c **** 		cac.C = g_result[TEST_RTC_TEMP_Z29] - cac.A;
 2354              		.loc 1 232 111 view .LVU523
 2355 0670 77EEC77A 		vsub.f32	s15, s15, s14
 232:App/Src/calculate.c **** 		cac.C = g_result[TEST_RTC_TEMP_Z29] - cac.A;
 2356              		.loc 1 232 78 view .LVU524
 2357 0674 C7EEA87A 		vdiv.f32	s15, s15, s17
 2358 0678 17EE900A 		vmov	r0, s15
 2359 067c FFF7FEFF 		bl	__aeabi_f2d
 2360              	.LVL277:
 2361 0680 41EC100B 		vmov	d0, r0, r1
 2362 0684 FFF7FEFF 		bl	cosh
 2363              	.LVL278:
 2364 0688 53EC102B 		vmov	r2, r3, d0
 232:App/Src/calculate.c **** 		cac.C = g_result[TEST_RTC_TEMP_Z29] - cac.A;
 2365              		.loc 1 232 76 view .LVU525
 2366 068c 0020     		movs	r0, #0
 2367 068e D249     		ldr	r1, .L191+24
 2368 0690 FFF7FEFF 		bl	__aeabi_dsub
 2369              	.LVL279:
 2370 0694 0246     		mov	r2, r0
 2371 0696 0B46     		mov	r3, r1
 232:App/Src/calculate.c **** 		cac.C = g_result[TEST_RTC_TEMP_Z29] - cac.A;
 2372              		.loc 1 232 71 view .LVU526
 2373 0698 3046     		mov	r0, r6
ARM GAS  C:\Users\86158\AppData\Local\Temp\ccP8sDIW.s 			page 53


 2374 069a 3946     		mov	r1, r7
 2375 069c FFF7FEFF 		bl	__aeabi_ddiv
 2376              	.LVL280:
 2377 06a0 FFF7FEFF 		bl	__aeabi_d2f
 2378              	.LVL281:
 2379 06a4 07EE900A 		vmov	s15, r0
 232:App/Src/calculate.c **** 		cac.C = g_result[TEST_RTC_TEMP_Z29] - cac.A;
 2380              		.loc 1 232 9 view .LVU527
 2381 06a8 0990     		str	r0, [sp, #36]	@ float
 233:App/Src/calculate.c **** 		minError = cac.A * cosh((g_input[TEST_RTC_TEMP_F10] - cac.X0) / cac.B) + cac.C - g_result[TEST_RT
 2382              		.loc 1 233 3 is_stmt 1 view .LVU528
 233:App/Src/calculate.c **** 		minError = cac.A * cosh((g_input[TEST_RTC_TEMP_F10] - cac.X0) / cac.B) + cac.C - g_result[TEST_RT
 2383              		.loc 1 233 19 is_stmt 0 view .LVU529
 2384 06aa 94ED027A 		vldr.32	s14, [r4, #8]
 233:App/Src/calculate.c **** 		minError = cac.A * cosh((g_input[TEST_RTC_TEMP_F10] - cac.X0) / cac.B) + cac.C - g_result[TEST_RT
 2385              		.loc 1 233 39 view .LVU530
 2386 06ae 77EE677A 		vsub.f32	s15, s14, s15
 233:App/Src/calculate.c **** 		minError = cac.A * cosh((g_input[TEST_RTC_TEMP_F10] - cac.X0) / cac.B) + cac.C - g_result[TEST_RT
 2387              		.loc 1 233 9 view .LVU531
 2388 06b2 CDED0C7A 		vstr.32	s15, [sp, #48]
 234:App/Src/calculate.c **** 		cac.B = maxB;// 
 2389              		.loc 1 234 3 is_stmt 1 view .LVU532
 234:App/Src/calculate.c **** 		cac.B = maxB;// 
 2390              		.loc 1 234 17 is_stmt 0 view .LVU533
 2391 06b6 FFF7FEFF 		bl	__aeabi_f2d
 2392              	.LVL282:
 2393 06ba 0646     		mov	r6, r0
 2394 06bc 0F46     		mov	r7, r1
 234:App/Src/calculate.c **** 		cac.B = maxB;// 
 2395              		.loc 1 234 35 view .LVU534
 2396 06be D5ED017A 		vldr.32	s15, [r5, #4]
 234:App/Src/calculate.c **** 		cac.B = maxB;// 
 2397              		.loc 1 234 60 view .LVU535
 2398 06c2 9DED0B7A 		vldr.32	s14, [sp, #44]
 234:App/Src/calculate.c **** 		cac.B = maxB;// 
 2399              		.loc 1 234 55 view .LVU536
 2400 06c6 77EEC77A 		vsub.f32	s15, s15, s14
 234:App/Src/calculate.c **** 		cac.B = maxB;// 
 2401              		.loc 1 234 22 view .LVU537
 2402 06ca 9DED0A7A 		vldr.32	s14, [sp, #40]
 2403 06ce C7EE877A 		vdiv.f32	s15, s15, s14
 2404 06d2 17EE900A 		vmov	r0, s15
 2405 06d6 FFF7FEFF 		bl	__aeabi_f2d
 2406              	.LVL283:
 2407 06da 41EC100B 		vmov	d0, r0, r1
 2408 06de FFF7FEFF 		bl	cosh
 2409              	.LVL284:
 2410 06e2 53EC102B 		vmov	r2, r3, d0
 234:App/Src/calculate.c **** 		cac.B = maxB;// 
 2411              		.loc 1 234 20 view .LVU538
 2412 06e6 3046     		mov	r0, r6
 2413 06e8 3946     		mov	r1, r7
 2414 06ea FFF7FEFF 		bl	__aeabi_dmul
 2415              	.LVL285:
 2416 06ee 0646     		mov	r6, r0
 2417 06f0 0F46     		mov	r7, r1
 234:App/Src/calculate.c **** 		cac.B = maxB;// 
ARM GAS  C:\Users\86158\AppData\Local\Temp\ccP8sDIW.s 			page 54


 2418              		.loc 1 234 79 view .LVU539
 2419 06f2 0C98     		ldr	r0, [sp, #48]	@ float
 2420 06f4 FFF7FEFF 		bl	__aeabi_f2d
 2421              	.LVL286:
 2422 06f8 0246     		mov	r2, r0
 2423 06fa 0B46     		mov	r3, r1
 234:App/Src/calculate.c **** 		cac.B = maxB;// 
 2424              		.loc 1 234 74 view .LVU540
 2425 06fc 3046     		mov	r0, r6
 2426 06fe 3946     		mov	r1, r7
 2427 0700 FFF7FEFF 		bl	__aeabi_dadd
 2428              	.LVL287:
 2429 0704 0646     		mov	r6, r0
 2430 0706 0F46     		mov	r7, r1
 234:App/Src/calculate.c **** 		cac.B = maxB;// 
 2431              		.loc 1 234 92 view .LVU541
 2432 0708 6068     		ldr	r0, [r4, #4]	@ float
 2433 070a FFF7FEFF 		bl	__aeabi_f2d
 2434              	.LVL288:
 2435 070e 0246     		mov	r2, r0
 2436 0710 0B46     		mov	r3, r1
 234:App/Src/calculate.c **** 		cac.B = maxB;// 
 2437              		.loc 1 234 82 view .LVU542
 2438 0712 3046     		mov	r0, r6
 2439 0714 3946     		mov	r1, r7
 2440 0716 FFF7FEFF 		bl	__aeabi_dsub
 2441              	.LVL289:
 234:App/Src/calculate.c **** 		cac.B = maxB;// 
 2442              		.loc 1 234 12 view .LVU543
 2443 071a FFF7FEFF 		bl	__aeabi_d2f
 2444              	.LVL290:
 2445 071e 08EE900A 		vmov	s17, r0
 2446              	.LVL291:
 235:App/Src/calculate.c **** 		cac.A = (g_result[TEST_RTC_TEMP_Z29] - g_result[TEST_RTC_TEMP_F40]) / (1 - cosh((g_input[TEST_RTC
 2447              		.loc 1 235 3 is_stmt 1 view .LVU544
 235:App/Src/calculate.c **** 		cac.A = (g_result[TEST_RTC_TEMP_Z29] - g_result[TEST_RTC_TEMP_F40]) / (1 - cosh((g_input[TEST_RTC
 2448              		.loc 1 235 9 is_stmt 0 view .LVU545
 2449 0722 9FEDAE9A 		vldr.32	s18, .L191+28
 2450              	.LVL292:
 235:App/Src/calculate.c **** 		cac.A = (g_result[TEST_RTC_TEMP_Z29] - g_result[TEST_RTC_TEMP_F40]) / (1 - cosh((g_input[TEST_RTC
 2451              		.loc 1 235 9 view .LVU546
 2452 0726 8DED0A9A 		vstr.32	s18, [sp, #40]
 236:App/Src/calculate.c **** 		cac.C = g_result[TEST_RTC_TEMP_Z29] - cac.A;
 2453              		.loc 1 236 3 is_stmt 1 view .LVU547
 236:App/Src/calculate.c **** 		cac.C = g_result[TEST_RTC_TEMP_Z29] - cac.A;
 2454              		.loc 1 236 20 is_stmt 0 view .LVU548
 2455 072a 94ED027A 		vldr.32	s14, [r4, #8]
 236:App/Src/calculate.c **** 		cac.C = g_result[TEST_RTC_TEMP_Z29] - cac.A;
 2456              		.loc 1 236 50 view .LVU549
 2457 072e D4ED007A 		vldr.32	s15, [r4]
 236:App/Src/calculate.c **** 		cac.C = g_result[TEST_RTC_TEMP_Z29] - cac.A;
 2458              		.loc 1 236 40 view .LVU550
 2459 0732 77EE677A 		vsub.f32	s15, s14, s15
 2460 0736 17EE900A 		vmov	r0, s15
 2461              	.LVL293:
 236:App/Src/calculate.c **** 		cac.C = g_result[TEST_RTC_TEMP_Z29] - cac.A;
 2462              		.loc 1 236 40 view .LVU551
ARM GAS  C:\Users\86158\AppData\Local\Temp\ccP8sDIW.s 			page 55


 2463 073a FFF7FEFF 		bl	__aeabi_f2d
 2464              	.LVL294:
 2465 073e 0646     		mov	r6, r0
 2466 0740 0F46     		mov	r7, r1
 236:App/Src/calculate.c **** 		cac.C = g_result[TEST_RTC_TEMP_Z29] - cac.A;
 2467              		.loc 1 236 91 view .LVU552
 2468 0742 D5ED007A 		vldr.32	s15, [r5]
 236:App/Src/calculate.c **** 		cac.C = g_result[TEST_RTC_TEMP_Z29] - cac.A;
 2469              		.loc 1 236 116 view .LVU553
 2470 0746 9DED0B7A 		vldr.32	s14, [sp, #44]
 236:App/Src/calculate.c **** 		cac.C = g_result[TEST_RTC_TEMP_Z29] - cac.A;
 2471              		.loc 1 236 111 view .LVU554
 2472 074a 77EEC77A 		vsub.f32	s15, s15, s14
 236:App/Src/calculate.c **** 		cac.C = g_result[TEST_RTC_TEMP_Z29] - cac.A;
 2473              		.loc 1 236 78 view .LVU555
 2474 074e C7EE897A 		vdiv.f32	s15, s15, s18
 2475 0752 17EE900A 		vmov	r0, s15
 2476 0756 FFF7FEFF 		bl	__aeabi_f2d
 2477              	.LVL295:
 2478 075a 41EC100B 		vmov	d0, r0, r1
 2479 075e FFF7FEFF 		bl	cosh
 2480              	.LVL296:
 2481 0762 53EC102B 		vmov	r2, r3, d0
 236:App/Src/calculate.c **** 		cac.C = g_result[TEST_RTC_TEMP_Z29] - cac.A;
 2482              		.loc 1 236 76 view .LVU556
 2483 0766 0020     		movs	r0, #0
 2484 0768 9B49     		ldr	r1, .L191+24
 2485 076a FFF7FEFF 		bl	__aeabi_dsub
 2486              	.LVL297:
 2487 076e 0246     		mov	r2, r0
 2488 0770 0B46     		mov	r3, r1
 236:App/Src/calculate.c **** 		cac.C = g_result[TEST_RTC_TEMP_Z29] - cac.A;
 2489              		.loc 1 236 71 view .LVU557
 2490 0772 3046     		mov	r0, r6
 2491 0774 3946     		mov	r1, r7
 2492 0776 FFF7FEFF 		bl	__aeabi_ddiv
 2493              	.LVL298:
 2494 077a FFF7FEFF 		bl	__aeabi_d2f
 2495              	.LVL299:
 2496 077e 07EE900A 		vmov	s15, r0
 236:App/Src/calculate.c **** 		cac.C = g_result[TEST_RTC_TEMP_Z29] - cac.A;
 2497              		.loc 1 236 9 view .LVU558
 2498 0782 0990     		str	r0, [sp, #36]	@ float
 237:App/Src/calculate.c **** 		maxError = cac.A * cosh((g_input[TEST_RTC_TEMP_F10] - cac.X0) / cac.B) + cac.C - g_result[TEST_RT
 2499              		.loc 1 237 3 is_stmt 1 view .LVU559
 237:App/Src/calculate.c **** 		maxError = cac.A * cosh((g_input[TEST_RTC_TEMP_F10] - cac.X0) / cac.B) + cac.C - g_result[TEST_RT
 2500              		.loc 1 237 19 is_stmt 0 view .LVU560
 2501 0784 94ED027A 		vldr.32	s14, [r4, #8]
 237:App/Src/calculate.c **** 		maxError = cac.A * cosh((g_input[TEST_RTC_TEMP_F10] - cac.X0) / cac.B) + cac.C - g_result[TEST_RT
 2502              		.loc 1 237 39 view .LVU561
 2503 0788 77EE677A 		vsub.f32	s15, s14, s15
 237:App/Src/calculate.c **** 		maxError = cac.A * cosh((g_input[TEST_RTC_TEMP_F10] - cac.X0) / cac.B) + cac.C - g_result[TEST_RT
 2504              		.loc 1 237 9 view .LVU562
 2505 078c CDED0C7A 		vstr.32	s15, [sp, #48]
 238:App/Src/calculate.c **** 		UsbPrintf("min:%.2f, max:%.2f\n", minError, maxError);
 2506              		.loc 1 238 3 is_stmt 1 view .LVU563
 238:App/Src/calculate.c **** 		UsbPrintf("min:%.2f, max:%.2f\n", minError, maxError);
ARM GAS  C:\Users\86158\AppData\Local\Temp\ccP8sDIW.s 			page 56


 2507              		.loc 1 238 17 is_stmt 0 view .LVU564
 2508 0790 FFF7FEFF 		bl	__aeabi_f2d
 2509              	.LVL300:
 2510 0794 0646     		mov	r6, r0
 2511 0796 0F46     		mov	r7, r1
 238:App/Src/calculate.c **** 		UsbPrintf("min:%.2f, max:%.2f\n", minError, maxError);
 2512              		.loc 1 238 35 view .LVU565
 2513 0798 D5ED017A 		vldr.32	s15, [r5, #4]
 238:App/Src/calculate.c **** 		UsbPrintf("min:%.2f, max:%.2f\n", minError, maxError);
 2514              		.loc 1 238 60 view .LVU566
 2515 079c 9DED0B7A 		vldr.32	s14, [sp, #44]
 238:App/Src/calculate.c **** 		UsbPrintf("min:%.2f, max:%.2f\n", minError, maxError);
 2516              		.loc 1 238 55 view .LVU567
 2517 07a0 77EEC77A 		vsub.f32	s15, s15, s14
 238:App/Src/calculate.c **** 		UsbPrintf("min:%.2f, max:%.2f\n", minError, maxError);
 2518              		.loc 1 238 22 view .LVU568
 2519 07a4 9DED0A7A 		vldr.32	s14, [sp, #40]
 2520 07a8 C7EE877A 		vdiv.f32	s15, s15, s14
 2521 07ac 17EE900A 		vmov	r0, s15
 2522 07b0 FFF7FEFF 		bl	__aeabi_f2d
 2523              	.LVL301:
 2524 07b4 41EC100B 		vmov	d0, r0, r1
 2525 07b8 FFF7FEFF 		bl	cosh
 2526              	.LVL302:
 2527 07bc 53EC102B 		vmov	r2, r3, d0
 238:App/Src/calculate.c **** 		UsbPrintf("min:%.2f, max:%.2f\n", minError, maxError);
 2528              		.loc 1 238 20 view .LVU569
 2529 07c0 3046     		mov	r0, r6
 2530 07c2 3946     		mov	r1, r7
 2531 07c4 FFF7FEFF 		bl	__aeabi_dmul
 2532              	.LVL303:
 2533 07c8 0646     		mov	r6, r0
 2534 07ca 0F46     		mov	r7, r1
 238:App/Src/calculate.c **** 		UsbPrintf("min:%.2f, max:%.2f\n", minError, maxError);
 2535              		.loc 1 238 79 view .LVU570
 2536 07cc 0C98     		ldr	r0, [sp, #48]	@ float
 2537 07ce FFF7FEFF 		bl	__aeabi_f2d
 2538              	.LVL304:
 2539 07d2 0246     		mov	r2, r0
 2540 07d4 0B46     		mov	r3, r1
 238:App/Src/calculate.c **** 		UsbPrintf("min:%.2f, max:%.2f\n", minError, maxError);
 2541              		.loc 1 238 74 view .LVU571
 2542 07d6 3046     		mov	r0, r6
 2543 07d8 3946     		mov	r1, r7
 2544 07da FFF7FEFF 		bl	__aeabi_dadd
 2545              	.LVL305:
 2546 07de 0646     		mov	r6, r0
 2547 07e0 0F46     		mov	r7, r1
 238:App/Src/calculate.c **** 		UsbPrintf("min:%.2f, max:%.2f\n", minError, maxError);
 2548              		.loc 1 238 92 view .LVU572
 2549 07e2 6068     		ldr	r0, [r4, #4]	@ float
 2550 07e4 FFF7FEFF 		bl	__aeabi_f2d
 2551              	.LVL306:
 2552 07e8 0246     		mov	r2, r0
 2553 07ea 0B46     		mov	r3, r1
 238:App/Src/calculate.c **** 		UsbPrintf("min:%.2f, max:%.2f\n", minError, maxError);
 2554              		.loc 1 238 82 view .LVU573
ARM GAS  C:\Users\86158\AppData\Local\Temp\ccP8sDIW.s 			page 57


 2555 07ec 3046     		mov	r0, r6
 2556 07ee 3946     		mov	r1, r7
 2557 07f0 FFF7FEFF 		bl	__aeabi_dsub
 2558              	.LVL307:
 238:App/Src/calculate.c **** 		UsbPrintf("min:%.2f, max:%.2f\n", minError, maxError);
 2559              		.loc 1 238 12 view .LVU574
 2560 07f4 FFF7FEFF 		bl	__aeabi_d2f
 2561              	.LVL308:
 2562 07f8 09EE100A 		vmov	s18, r0
 2563              	.LVL309:
 239:App/Src/calculate.c **** 		if ((minError > 0 && maxError < 0 ) || (minError < 0 && maxError > 0) || fabs(maxError) < 0.1) {
 2564              		.loc 1 239 3 is_stmt 1 view .LVU575
 2565 07fc 18EE900A 		vmov	r0, s17
 2566              	.LVL310:
 239:App/Src/calculate.c **** 		if ((minError > 0 && maxError < 0 ) || (minError < 0 && maxError > 0) || fabs(maxError) < 0.1) {
 2567              		.loc 1 239 3 is_stmt 0 view .LVU576
 2568 0800 FFF7FEFF 		bl	__aeabi_f2d
 2569              	.LVL311:
 2570 0804 0446     		mov	r4, r0
 2571 0806 0D46     		mov	r5, r1
 2572 0808 19EE100A 		vmov	r0, s18
 2573 080c FFF7FEFF 		bl	__aeabi_f2d
 2574              	.LVL312:
 2575 0810 CDE90001 		strd	r0, [sp]
 2576 0814 2246     		mov	r2, r4
 2577 0816 2B46     		mov	r3, r5
 2578 0818 7148     		ldr	r0, .L191+32
 2579 081a FFF7FEFF 		bl	UsbPrintf
 2580              	.LVL313:
 240:App/Src/calculate.c **** 			UsbPrintf("left para use mode 1\n");
 2581              		.loc 1 240 3 is_stmt 1 view .LVU577
 240:App/Src/calculate.c **** 			UsbPrintf("left para use mode 1\n");
 2582              		.loc 1 240 6 is_stmt 0 view .LVU578
 2583 081e F5EEC08A 		vcmpe.f32	s17, #0
 2584 0822 F1EE10FA 		vmrs	APSR_nzcv, FPSCR
 2585 0826 04DD     		ble	.L92
 240:App/Src/calculate.c **** 			UsbPrintf("left para use mode 1\n");
 2586              		.loc 1 240 21 discriminator 1 view .LVU579
 2587 0828 B5EEC09A 		vcmpe.f32	s18, #0
 2588 082c F1EE10FA 		vmrs	APSR_nzcv, FPSCR
 2589 0830 12D4     		bmi	.L94
 2590              	.L92:
 240:App/Src/calculate.c **** 			UsbPrintf("left para use mode 1\n");
 2591              		.loc 1 240 39 discriminator 3 view .LVU580
 2592 0832 F5EEC08A 		vcmpe.f32	s17, #0
 2593 0836 F1EE10FA 		vmrs	APSR_nzcv, FPSCR
 2594 083a 16D4     		bmi	.L182
 2595              	.L95:
 240:App/Src/calculate.c **** 			UsbPrintf("left para use mode 1\n");
 2596              		.loc 1 240 76 discriminator 6 view .LVU581
 2597 083c F0EEC97A 		vabs.f32	s15, s18
 2598 0840 17EE900A 		vmov	r0, s15
 2599 0844 FFF7FEFF 		bl	__aeabi_f2d
 2600              	.LVL314:
 240:App/Src/calculate.c **** 			UsbPrintf("left para use mode 1\n");
 2601              		.loc 1 240 73 discriminator 6 view .LVU582
 2602 0848 5DA3     		adr	r3, .L191
ARM GAS  C:\Users\86158\AppData\Local\Temp\ccP8sDIW.s 			page 58


 2603 084a D3E90023 		ldrd	r2, [r3]
 2604 084e FFF7FEFF 		bl	__aeabi_dcmplt
 2605              	.LVL315:
 2606 0852 0028     		cmp	r0, #0
 2607 0854 00F0E780 		beq	.L172
 2608              	.L94:
 241:App/Src/calculate.c **** 			for (i = 0; i < 20; i++) {
 2609              		.loc 1 241 4 is_stmt 1 view .LVU583
 2610 0858 6248     		ldr	r0, .L191+36
 2611 085a FFF7FEFF 		bl	UsbPrintf
 2612              	.LVL316:
 242:App/Src/calculate.c **** 				cac.B = (minB + maxB) / 2;
 2613              		.loc 1 242 4 view .LVU584
 197:App/Src/calculate.c **** 
 2614              		.loc 1 197 7 is_stmt 0 view .LVU585
 2615 085e 9FED5F9A 		vldr.32	s18, .L191+28
 2616              	.LVL317:
 196:App/Src/calculate.c **** 	maxB = 990;
 2617              		.loc 1 196 7 view .LVU586
 2618 0862 F2EE049A 		vmov.f32	s19, #1.0e+1
 242:App/Src/calculate.c **** 				cac.B = (minB + maxB) / 2;
 2619              		.loc 1 242 11 view .LVU587
 2620 0866 0025     		movs	r5, #0
 242:App/Src/calculate.c **** 				cac.B = (minB + maxB) / 2;
 2621              		.loc 1 242 4 view .LVU588
 2622 0868 0EE0     		b	.L99
 2623              	.LVL318:
 2624              	.L182:
 240:App/Src/calculate.c **** 			UsbPrintf("left para use mode 1\n");
 2625              		.loc 1 240 56 discriminator 4 view .LVU589
 2626 086a B5EEC09A 		vcmpe.f32	s18, #0
 2627 086e F1EE10FA 		vmrs	APSR_nzcv, FPSCR
 2628 0872 F1DC     		bgt	.L94
 2629 0874 E2E7     		b	.L95
 2630              	.LVL319:
 2631              	.L101:
 250:App/Src/calculate.c **** 						minB = cac.B;
 2632              		.loc 1 250 40 discriminator 3 view .LVU590
 2633 0876 F5EEC08A 		vcmpe.f32	s17, #0
 2634 087a F1EE10FA 		vmrs	APSR_nzcv, FPSCR
 2635 087e 40F29580 		bls	.L183
 2636              	.L104:
 253:App/Src/calculate.c **** 					}
 2637              		.loc 1 253 7 is_stmt 1 view .LVU591
 253:App/Src/calculate.c **** 					}
 2638              		.loc 1 253 12 is_stmt 0 view .LVU592
 2639 0882 9DED0A9A 		vldr.32	s18, [sp, #40]
 2640              	.LVL320:
 2641              	.L107:
 242:App/Src/calculate.c **** 				cac.B = (minB + maxB) / 2;
 2642              		.loc 1 242 24 is_stmt 1 discriminator 2 view .LVU593
 242:App/Src/calculate.c **** 				cac.B = (minB + maxB) / 2;
 2643              		.loc 1 242 25 is_stmt 0 discriminator 2 view .LVU594
 2644 0886 0135     		adds	r5, r5, #1
 2645              	.LVL321:
 2646              	.L99:
 242:App/Src/calculate.c **** 				cac.B = (minB + maxB) / 2;
ARM GAS  C:\Users\86158\AppData\Local\Temp\ccP8sDIW.s 			page 59


 2647              		.loc 1 242 16 is_stmt 1 discriminator 1 view .LVU595
 242:App/Src/calculate.c **** 				cac.B = (minB + maxB) / 2;
 2648              		.loc 1 242 4 is_stmt 0 discriminator 1 view .LVU596
 2649 0888 132D     		cmp	r5, #19
 2650 088a 00F3AD80 		bgt	.L100
 243:App/Src/calculate.c **** 				cac.A = (g_result[TEST_RTC_TEMP_Z29] - g_result[TEST_RTC_TEMP_F40]) / (1 - cosh((g_input[TEST_R
 2651              		.loc 1 243 5 is_stmt 1 view .LVU597
 243:App/Src/calculate.c **** 				cac.A = (g_result[TEST_RTC_TEMP_Z29] - g_result[TEST_RTC_TEMP_F40]) / (1 - cosh((g_input[TEST_R
 2652              		.loc 1 243 19 is_stmt 0 view .LVU598
 2653 088e 39EE898A 		vadd.f32	s16, s19, s18
 2654              	.LVL322:
 243:App/Src/calculate.c **** 				cac.A = (g_result[TEST_RTC_TEMP_Z29] - g_result[TEST_RTC_TEMP_F40]) / (1 - cosh((g_input[TEST_R
 2655              		.loc 1 243 27 view .LVU599
 2656 0892 F6EE007A 		vmov.f32	s15, #5.0e-1
 2657 0896 28EE278A 		vmul.f32	s16, s16, s15
 243:App/Src/calculate.c **** 				cac.A = (g_result[TEST_RTC_TEMP_Z29] - g_result[TEST_RTC_TEMP_F40]) / (1 - cosh((g_input[TEST_R
 2658              		.loc 1 243 11 view .LVU600
 2659 089a 8DED0A8A 		vstr.32	s16, [sp, #40]
 244:App/Src/calculate.c **** 				cac.C = g_result[TEST_RTC_TEMP_Z29] - cac.A;
 2660              		.loc 1 244 5 is_stmt 1 view .LVU601
 244:App/Src/calculate.c **** 				cac.C = g_result[TEST_RTC_TEMP_Z29] - cac.A;
 2661              		.loc 1 244 22 is_stmt 0 view .LVU602
 2662 089e 4C4C     		ldr	r4, .L191+16
 2663 08a0 94ED027A 		vldr.32	s14, [r4, #8]
 244:App/Src/calculate.c **** 				cac.C = g_result[TEST_RTC_TEMP_Z29] - cac.A;
 2664              		.loc 1 244 52 view .LVU603
 2665 08a4 D4ED007A 		vldr.32	s15, [r4]
 244:App/Src/calculate.c **** 				cac.C = g_result[TEST_RTC_TEMP_Z29] - cac.A;
 2666              		.loc 1 244 42 view .LVU604
 2667 08a8 77EE677A 		vsub.f32	s15, s14, s15
 2668 08ac 17EE900A 		vmov	r0, s15
 2669 08b0 FFF7FEFF 		bl	__aeabi_f2d
 2670              	.LVL323:
 2671 08b4 0646     		mov	r6, r0
 2672 08b6 0F46     		mov	r7, r1
 244:App/Src/calculate.c **** 				cac.C = g_result[TEST_RTC_TEMP_Z29] - cac.A;
 2673              		.loc 1 244 93 view .LVU605
 2674 08b8 DFF81881 		ldr	r8, .L191+20
 2675 08bc D8ED007A 		vldr.32	s15, [r8]
 244:App/Src/calculate.c **** 				cac.C = g_result[TEST_RTC_TEMP_Z29] - cac.A;
 2676              		.loc 1 244 118 view .LVU606
 2677 08c0 9DED0B7A 		vldr.32	s14, [sp, #44]
 244:App/Src/calculate.c **** 				cac.C = g_result[TEST_RTC_TEMP_Z29] - cac.A;
 2678              		.loc 1 244 113 view .LVU607
 2679 08c4 77EEC77A 		vsub.f32	s15, s15, s14
 244:App/Src/calculate.c **** 				cac.C = g_result[TEST_RTC_TEMP_Z29] - cac.A;
 2680              		.loc 1 244 80 view .LVU608
 2681 08c8 C7EE887A 		vdiv.f32	s15, s15, s16
 2682 08cc 17EE900A 		vmov	r0, s15
 2683 08d0 FFF7FEFF 		bl	__aeabi_f2d
 2684              	.LVL324:
 2685 08d4 41EC100B 		vmov	d0, r0, r1
 2686 08d8 FFF7FEFF 		bl	cosh
 2687              	.LVL325:
 2688 08dc 53EC102B 		vmov	r2, r3, d0
 244:App/Src/calculate.c **** 				cac.C = g_result[TEST_RTC_TEMP_Z29] - cac.A;
 2689              		.loc 1 244 78 view .LVU609
ARM GAS  C:\Users\86158\AppData\Local\Temp\ccP8sDIW.s 			page 60


 2690 08e0 0020     		movs	r0, #0
 2691 08e2 3D49     		ldr	r1, .L191+24
 2692 08e4 FFF7FEFF 		bl	__aeabi_dsub
 2693              	.LVL326:
 2694 08e8 0246     		mov	r2, r0
 2695 08ea 0B46     		mov	r3, r1
 244:App/Src/calculate.c **** 				cac.C = g_result[TEST_RTC_TEMP_Z29] - cac.A;
 2696              		.loc 1 244 73 view .LVU610
 2697 08ec 3046     		mov	r0, r6
 2698 08ee 3946     		mov	r1, r7
 2699 08f0 FFF7FEFF 		bl	__aeabi_ddiv
 2700              	.LVL327:
 2701 08f4 FFF7FEFF 		bl	__aeabi_d2f
 2702              	.LVL328:
 2703 08f8 07EE900A 		vmov	s15, r0
 244:App/Src/calculate.c **** 				cac.C = g_result[TEST_RTC_TEMP_Z29] - cac.A;
 2704              		.loc 1 244 11 view .LVU611
 2705 08fc 0990     		str	r0, [sp, #36]	@ float
 245:App/Src/calculate.c **** 				error = cac.A * cosh((g_input[TEST_RTC_TEMP_F10] - cac.X0) / cac.B) + cac.C - g_result[TEST_RTC
 2706              		.loc 1 245 5 is_stmt 1 view .LVU612
 245:App/Src/calculate.c **** 				error = cac.A * cosh((g_input[TEST_RTC_TEMP_F10] - cac.X0) / cac.B) + cac.C - g_result[TEST_RTC
 2707              		.loc 1 245 21 is_stmt 0 view .LVU613
 2708 08fe 94ED027A 		vldr.32	s14, [r4, #8]
 245:App/Src/calculate.c **** 				error = cac.A * cosh((g_input[TEST_RTC_TEMP_F10] - cac.X0) / cac.B) + cac.C - g_result[TEST_RTC
 2709              		.loc 1 245 41 view .LVU614
 2710 0902 77EE677A 		vsub.f32	s15, s14, s15
 245:App/Src/calculate.c **** 				error = cac.A * cosh((g_input[TEST_RTC_TEMP_F10] - cac.X0) / cac.B) + cac.C - g_result[TEST_RTC
 2711              		.loc 1 245 11 view .LVU615
 2712 0906 CDED0C7A 		vstr.32	s15, [sp, #48]
 246:App/Src/calculate.c **** 				if (fabs(error) <= 0.2) {
 2713              		.loc 1 246 5 is_stmt 1 view .LVU616
 246:App/Src/calculate.c **** 				if (fabs(error) <= 0.2) {
 2714              		.loc 1 246 16 is_stmt 0 view .LVU617
 2715 090a FFF7FEFF 		bl	__aeabi_f2d
 2716              	.LVL329:
 2717 090e 0646     		mov	r6, r0
 2718 0910 0F46     		mov	r7, r1
 246:App/Src/calculate.c **** 				if (fabs(error) <= 0.2) {
 2719              		.loc 1 246 34 view .LVU618
 2720 0912 D8ED017A 		vldr.32	s15, [r8, #4]
 246:App/Src/calculate.c **** 				if (fabs(error) <= 0.2) {
 2721              		.loc 1 246 59 view .LVU619
 2722 0916 9DED0B7A 		vldr.32	s14, [sp, #44]
 246:App/Src/calculate.c **** 				if (fabs(error) <= 0.2) {
 2723              		.loc 1 246 54 view .LVU620
 2724 091a 77EEC77A 		vsub.f32	s15, s15, s14
 246:App/Src/calculate.c **** 				if (fabs(error) <= 0.2) {
 2725              		.loc 1 246 21 view .LVU621
 2726 091e 9DED0A7A 		vldr.32	s14, [sp, #40]
 2727 0922 C7EE877A 		vdiv.f32	s15, s15, s14
 2728 0926 17EE900A 		vmov	r0, s15
 2729 092a FFF7FEFF 		bl	__aeabi_f2d
 2730              	.LVL330:
 2731 092e 41EC100B 		vmov	d0, r0, r1
 2732 0932 FFF7FEFF 		bl	cosh
 2733              	.LVL331:
 2734 0936 53EC102B 		vmov	r2, r3, d0
ARM GAS  C:\Users\86158\AppData\Local\Temp\ccP8sDIW.s 			page 61


 246:App/Src/calculate.c **** 				if (fabs(error) <= 0.2) {
 2735              		.loc 1 246 19 view .LVU622
 2736 093a 3046     		mov	r0, r6
 2737 093c 3946     		mov	r1, r7
 2738 093e FFF7FEFF 		bl	__aeabi_dmul
 2739              	.LVL332:
 2740 0942 0646     		mov	r6, r0
 2741 0944 0F46     		mov	r7, r1
 246:App/Src/calculate.c **** 				if (fabs(error) <= 0.2) {
 2742              		.loc 1 246 78 view .LVU623
 2743 0946 0C98     		ldr	r0, [sp, #48]	@ float
 2744 0948 FFF7FEFF 		bl	__aeabi_f2d
 2745              	.LVL333:
 2746 094c 0246     		mov	r2, r0
 2747 094e 0B46     		mov	r3, r1
 246:App/Src/calculate.c **** 				if (fabs(error) <= 0.2) {
 2748              		.loc 1 246 73 view .LVU624
 2749 0950 3046     		mov	r0, r6
 2750 0952 3946     		mov	r1, r7
 2751 0954 FFF7FEFF 		bl	__aeabi_dadd
 2752              	.LVL334:
 2753 0958 0646     		mov	r6, r0
 2754 095a 0F46     		mov	r7, r1
 246:App/Src/calculate.c **** 				if (fabs(error) <= 0.2) {
 2755              		.loc 1 246 91 view .LVU625
 2756 095c 6068     		ldr	r0, [r4, #4]	@ float
 2757 095e FFF7FEFF 		bl	__aeabi_f2d
 2758              	.LVL335:
 2759 0962 0246     		mov	r2, r0
 2760 0964 0B46     		mov	r3, r1
 246:App/Src/calculate.c **** 				if (fabs(error) <= 0.2) {
 2761              		.loc 1 246 81 view .LVU626
 2762 0966 3046     		mov	r0, r6
 2763 0968 3946     		mov	r1, r7
 2764 096a FFF7FEFF 		bl	__aeabi_dsub
 2765              	.LVL336:
 246:App/Src/calculate.c **** 				if (fabs(error) <= 0.2) {
 2766              		.loc 1 246 11 view .LVU627
 2767 096e FFF7FEFF 		bl	__aeabi_d2f
 2768              	.LVL337:
 2769 0972 08EE100A 		vmov	s16, r0
 2770              	.LVL338:
 247:App/Src/calculate.c **** 					break;
 2771              		.loc 1 247 5 is_stmt 1 view .LVU628
 247:App/Src/calculate.c **** 					break;
 2772              		.loc 1 247 9 is_stmt 0 view .LVU629
 2773 0976 F0EEC87A 		vabs.f32	s15, s16
 2774 097a 17EE900A 		vmov	r0, s15
 2775              	.LVL339:
 247:App/Src/calculate.c **** 					break;
 2776              		.loc 1 247 9 view .LVU630
 2777 097e FFF7FEFF 		bl	__aeabi_f2d
 2778              	.LVL340:
 247:App/Src/calculate.c **** 					break;
 2779              		.loc 1 247 8 view .LVU631
 2780 0982 11A3     		adr	r3, .L191+8
 2781 0984 D3E90023 		ldrd	r2, [r3]
ARM GAS  C:\Users\86158\AppData\Local\Temp\ccP8sDIW.s 			page 62


 2782 0988 FFF7FEFF 		bl	__aeabi_dcmple
 2783              	.LVL341:
 2784 098c 60BB     		cbnz	r0, .L100
 250:App/Src/calculate.c **** 						minB = cac.B;
 2785              		.loc 1 250 6 is_stmt 1 view .LVU632
 250:App/Src/calculate.c **** 						minB = cac.B;
 2786              		.loc 1 250 9 is_stmt 0 view .LVU633
 2787 098e F5EEC08A 		vcmpe.f32	s17, #0
 2788 0992 F1EE10FA 		vmrs	APSR_nzcv, FPSCR
 2789 0996 FFF66EAF 		blt	.L101
 250:App/Src/calculate.c **** 						minB = cac.B;
 2790              		.loc 1 250 25 discriminator 1 view .LVU634
 2791 099a B5EEC08A 		vcmpe.f32	s16, #0
 2792 099e F1EE10FA 		vmrs	APSR_nzcv, FPSCR
 2793 09a2 FFF668AF 		blt	.L101
 2794              	.L103:
 251:App/Src/calculate.c **** 					} else {
 2795              		.loc 1 251 7 is_stmt 1 view .LVU635
 251:App/Src/calculate.c **** 					} else {
 2796              		.loc 1 251 12 is_stmt 0 view .LVU636
 2797 09a6 DDED0A9A 		vldr.32	s19, [sp, #40]
 2798              	.LVL342:
 251:App/Src/calculate.c **** 					} else {
 2799              		.loc 1 251 12 view .LVU637
 2800 09aa 6CE7     		b	.L107
 2801              	.L183:
 250:App/Src/calculate.c **** 						minB = cac.B;
 2802              		.loc 1 250 58 discriminator 4 view .LVU638
 2803 09ac B5EEC08A 		vcmpe.f32	s16, #0
 2804 09b0 F1EE10FA 		vmrs	APSR_nzcv, FPSCR
 2805 09b4 3FF665AF 		bhi	.L104
 2806 09b8 F5E7     		b	.L103
 2807              	.L192:
 2808 09ba 00BFAFF3 		.align	3
 2808      0080
 2809              	.L191:
 2810 09c0 9A999999 		.word	-1717986918
 2811 09c4 9999B93F 		.word	1069128089
 2812 09c8 9A999999 		.word	-1717986918
 2813 09cc 9999C93F 		.word	1070176665
 2814 09d0 00000000 		.word	.LANCHOR2
 2815 09d4 00000000 		.word	.LANCHOR1
 2816 09d8 0000F03F 		.word	1072693248
 2817 09dc 00807744 		.word	1148682240
 2818 09e0 00000000 		.word	.LC11
 2819 09e4 5C000000 		.word	.LC15
 2820              	.L100:
 257:App/Src/calculate.c **** 				cac.mode = 1;
 2821              		.loc 1 257 4 is_stmt 1 view .LVU639
 257:App/Src/calculate.c **** 				cac.mode = 1;
 2822              		.loc 1 257 8 is_stmt 0 view .LVU640
 2823 09e8 F0EEC87A 		vabs.f32	s15, s16
 257:App/Src/calculate.c **** 				cac.mode = 1;
 2824              		.loc 1 257 7 view .LVU641
 2825 09ec B7EE007A 		vmov.f32	s14, #1.0e+0
 2826 09f0 F4EEC77A 		vcmpe.f32	s15, s14
 2827 09f4 F1EE10FA 		vmrs	APSR_nzcv, FPSCR
ARM GAS  C:\Users\86158\AppData\Local\Temp\ccP8sDIW.s 			page 63


 2828 09f8 10D8     		bhi	.L173
 258:App/Src/calculate.c **** 				copy_parameter(&g_left, &cac);
 2829              		.loc 1 258 5 is_stmt 1 view .LVU642
 258:App/Src/calculate.c **** 				copy_parameter(&g_left, &cac);
 2830              		.loc 1 258 14 is_stmt 0 view .LVU643
 2831 09fa 0123     		movs	r3, #1
 2832 09fc 8DF83430 		strb	r3, [sp, #52]
 259:App/Src/calculate.c **** 				UsbPrintf("min error:%.2f\n", error);
 2833              		.loc 1 259 5 is_stmt 1 view .LVU644
 2834 0a00 09A9     		add	r1, sp, #36
 2835 0a02 8148     		ldr	r0, .L193+8
 2836 0a04 FFF7FEFF 		bl	copy_parameter
 2837              	.LVL343:
 260:App/Src/calculate.c **** 			} else {
 2838              		.loc 1 260 5 view .LVU645
 2839 0a08 18EE100A 		vmov	r0, s16
 2840 0a0c FFF7FEFF 		bl	__aeabi_f2d
 2841              	.LVL344:
 2842 0a10 0246     		mov	r2, r0
 2843 0a12 0B46     		mov	r3, r1
 2844 0a14 7D48     		ldr	r0, .L193+12
 2845 0a16 FFF7FEFF 		bl	UsbPrintf
 2846              	.LVL345:
 257:App/Src/calculate.c **** 				cac.mode = 1;
 2847              		.loc 1 257 7 is_stmt 0 view .LVU646
 2848 0a1a CDE4     		b	.L90
 2849              	.L173:
 262:App/Src/calculate.c **** 				return 0;
 2850              		.loc 1 262 5 is_stmt 1 view .LVU647
 2851 0a1c 7C48     		ldr	r0, .L193+16
 2852 0a1e FFF7FEFF 		bl	UsbPrintf
 2853              	.LVL346:
 263:App/Src/calculate.c **** 			}
 2854              		.loc 1 263 5 view .LVU648
 263:App/Src/calculate.c **** 			}
 2855              		.loc 1 263 12 is_stmt 0 view .LVU649
 2856 0a22 0020     		movs	r0, #0
 2857 0a24 F3E5     		b	.L91
 2858              	.LVL347:
 2859              	.L172:
 266:App/Src/calculate.c **** 			return 0;
 2860              		.loc 1 266 4 is_stmt 1 view .LVU650
 2861 0a26 7B48     		ldr	r0, .L193+20
 2862 0a28 FFF7FEFF 		bl	UsbPrintf
 2863              	.LVL348:
 267:App/Src/calculate.c **** 		}
 2864              		.loc 1 267 4 view .LVU651
 267:App/Src/calculate.c **** 		}
 2865              		.loc 1 267 11 is_stmt 0 view .LVU652
 2866 0a2c 0020     		movs	r0, #0
 2867 0a2e EEE5     		b	.L91
 2868              	.LVL349:
 2869              	.L181:
 285:App/Src/calculate.c **** 		UsbPrintf("right para use mode 0\n");
 2870              		.loc 1 285 57 discriminator 4 view .LVU653
 2871 0a30 B5EEC09A 		vcmpe.f32	s18, #0
 2872 0a34 F1EE10FA 		vmrs	APSR_nzcv, FPSCR
ARM GAS  C:\Users\86158\AppData\Local\Temp\ccP8sDIW.s 			page 64


 2873 0a38 3FF7DCAD 		bgt	.L113
 2874 0a3c CCE5     		b	.L114
 2875              	.LVL350:
 2876              	.L120:
 294:App/Src/calculate.c **** 					minB = cac.B;
 2877              		.loc 1 294 39 discriminator 3 view .LVU654
 2878 0a3e F5EEC08A 		vcmpe.f32	s17, #0
 2879 0a42 F1EE10FA 		vmrs	APSR_nzcv, FPSCR
 2880 0a46 40F28B80 		bls	.L184
 2881              	.L123:
 297:App/Src/calculate.c **** 				}
 2882              		.loc 1 297 6 is_stmt 1 view .LVU655
 297:App/Src/calculate.c **** 				}
 2883              		.loc 1 297 11 is_stmt 0 view .LVU656
 2884 0a4a 9DED0A9A 		vldr.32	s18, [sp, #40]
 2885              	.LVL351:
 2886              	.L126:
 287:App/Src/calculate.c **** 			cac.B = (minB + maxB) / 2;
 2887              		.loc 1 287 23 is_stmt 1 discriminator 2 view .LVU657
 287:App/Src/calculate.c **** 			cac.B = (minB + maxB) / 2;
 2888              		.loc 1 287 24 is_stmt 0 discriminator 2 view .LVU658
 2889 0a4e 0136     		adds	r6, r6, #1
 2890              	.LVL352:
 2891              	.L118:
 287:App/Src/calculate.c **** 			cac.B = (minB + maxB) / 2;
 2892              		.loc 1 287 15 is_stmt 1 discriminator 1 view .LVU659
 287:App/Src/calculate.c **** 			cac.B = (minB + maxB) / 2;
 2893              		.loc 1 287 3 is_stmt 0 discriminator 1 view .LVU660
 2894 0a50 132E     		cmp	r6, #19
 2895 0a52 00F38C80 		bgt	.L119
 288:App/Src/calculate.c **** 			cac.A = (g_result[TEST_RTC_TEMP_Z85] - cac.C) / log(cosh((g_input[TEST_RTC_TEMP_Z85] - cac.X0) /
 2896              		.loc 1 288 4 is_stmt 1 view .LVU661
 288:App/Src/calculate.c **** 			cac.A = (g_result[TEST_RTC_TEMP_Z85] - cac.C) / log(cosh((g_input[TEST_RTC_TEMP_Z85] - cac.X0) /
 2897              		.loc 1 288 18 is_stmt 0 view .LVU662
 2898 0a56 39EE898A 		vadd.f32	s16, s19, s18
 2899              	.LVL353:
 288:App/Src/calculate.c **** 			cac.A = (g_result[TEST_RTC_TEMP_Z85] - cac.C) / log(cosh((g_input[TEST_RTC_TEMP_Z85] - cac.X0) /
 2900              		.loc 1 288 26 view .LVU663
 2901 0a5a F6EE007A 		vmov.f32	s15, #5.0e-1
 2902 0a5e 28EE278A 		vmul.f32	s16, s16, s15
 288:App/Src/calculate.c **** 			cac.A = (g_result[TEST_RTC_TEMP_Z85] - cac.C) / log(cosh((g_input[TEST_RTC_TEMP_Z85] - cac.X0) /
 2903              		.loc 1 288 10 view .LVU664
 2904 0a62 8DED0A8A 		vstr.32	s16, [sp, #40]
 289:App/Src/calculate.c **** 			error = cac.A * log(cosh((g_input[TEST_RTC_TEMP_Z60] - cac.X0) / cac.B)) + cac.C - g_result[TEST
 2905              		.loc 1 289 4 is_stmt 1 view .LVU665
 289:App/Src/calculate.c **** 			error = cac.A * log(cosh((g_input[TEST_RTC_TEMP_Z60] - cac.X0) / cac.B)) + cac.C - g_result[TEST
 2906              		.loc 1 289 21 is_stmt 0 view .LVU666
 2907 0a66 6C4F     		ldr	r7, .L193+24
 2908 0a68 97ED047A 		vldr.32	s14, [r7, #16]
 289:App/Src/calculate.c **** 			error = cac.A * log(cosh((g_input[TEST_RTC_TEMP_Z60] - cac.X0) / cac.B)) + cac.C - g_result[TEST
 2909              		.loc 1 289 41 view .LVU667
 2910 0a6c DDED0C7A 		vldr.32	s15, [sp, #48]
 2911 0a70 77EE677A 		vsub.f32	s15, s14, s15
 2912 0a74 17EE900A 		vmov	r0, s15
 2913 0a78 FFF7FEFF 		bl	__aeabi_f2d
 2914              	.LVL354:
 2915 0a7c 0446     		mov	r4, r0
ARM GAS  C:\Users\86158\AppData\Local\Temp\ccP8sDIW.s 			page 65


 2916 0a7e 0D46     		mov	r5, r1
 289:App/Src/calculate.c **** 			error = cac.A * log(cosh((g_input[TEST_RTC_TEMP_Z60] - cac.X0) / cac.B)) + cac.C - g_result[TEST
 2917              		.loc 1 289 69 view .LVU668
 2918 0a80 DFF8A881 		ldr	r8, .L193+44
 2919 0a84 D8ED047A 		vldr.32	s15, [r8, #16]
 289:App/Src/calculate.c **** 			error = cac.A * log(cosh((g_input[TEST_RTC_TEMP_Z60] - cac.X0) / cac.B)) + cac.C - g_result[TEST
 2920              		.loc 1 289 94 view .LVU669
 2921 0a88 9DED0B7A 		vldr.32	s14, [sp, #44]
 289:App/Src/calculate.c **** 			error = cac.A * log(cosh((g_input[TEST_RTC_TEMP_Z60] - cac.X0) / cac.B)) + cac.C - g_result[TEST
 2922              		.loc 1 289 89 view .LVU670
 2923 0a8c 77EEC77A 		vsub.f32	s15, s15, s14
 289:App/Src/calculate.c **** 			error = cac.A * log(cosh((g_input[TEST_RTC_TEMP_Z60] - cac.X0) / cac.B)) + cac.C - g_result[TEST
 2924              		.loc 1 289 52 view .LVU671
 2925 0a90 C7EE887A 		vdiv.f32	s15, s15, s16
 2926 0a94 17EE900A 		vmov	r0, s15
 2927 0a98 FFF7FEFF 		bl	__aeabi_f2d
 2928              	.LVL355:
 2929 0a9c 41EC100B 		vmov	d0, r0, r1
 2930 0aa0 FFF7FEFF 		bl	cosh
 2931              	.LVL356:
 2932 0aa4 FFF7FEFF 		bl	log
 2933              	.LVL357:
 2934 0aa8 53EC102B 		vmov	r2, r3, d0
 289:App/Src/calculate.c **** 			error = cac.A * log(cosh((g_input[TEST_RTC_TEMP_Z60] - cac.X0) / cac.B)) + cac.C - g_result[TEST
 2935              		.loc 1 289 50 view .LVU672
 2936 0aac 2046     		mov	r0, r4
 2937 0aae 2946     		mov	r1, r5
 2938 0ab0 FFF7FEFF 		bl	__aeabi_ddiv
 2939              	.LVL358:
 2940 0ab4 FFF7FEFF 		bl	__aeabi_d2f
 2941              	.LVL359:
 289:App/Src/calculate.c **** 			error = cac.A * log(cosh((g_input[TEST_RTC_TEMP_Z60] - cac.X0) / cac.B)) + cac.C - g_result[TEST
 2942              		.loc 1 289 10 view .LVU673
 2943 0ab8 0990     		str	r0, [sp, #36]	@ float
 290:App/Src/calculate.c **** 			if (fabs(error) <= 0.2) {
 2944              		.loc 1 290 4 is_stmt 1 view .LVU674
 290:App/Src/calculate.c **** 			if (fabs(error) <= 0.2) {
 2945              		.loc 1 290 15 is_stmt 0 view .LVU675
 2946 0aba FFF7FEFF 		bl	__aeabi_f2d
 2947              	.LVL360:
 2948 0abe 0446     		mov	r4, r0
 2949 0ac0 0D46     		mov	r5, r1
 290:App/Src/calculate.c **** 			if (fabs(error) <= 0.2) {
 2950              		.loc 1 290 37 view .LVU676
 2951 0ac2 D8ED037A 		vldr.32	s15, [r8, #12]
 290:App/Src/calculate.c **** 			if (fabs(error) <= 0.2) {
 2952              		.loc 1 290 62 view .LVU677
 2953 0ac6 9DED0B7A 		vldr.32	s14, [sp, #44]
 290:App/Src/calculate.c **** 			if (fabs(error) <= 0.2) {
 2954              		.loc 1 290 57 view .LVU678
 2955 0aca 77EEC77A 		vsub.f32	s15, s15, s14
 290:App/Src/calculate.c **** 			if (fabs(error) <= 0.2) {
 2956              		.loc 1 290 20 view .LVU679
 2957 0ace 9DED0A7A 		vldr.32	s14, [sp, #40]
 2958 0ad2 C7EE877A 		vdiv.f32	s15, s15, s14
 2959 0ad6 17EE900A 		vmov	r0, s15
 2960 0ada FFF7FEFF 		bl	__aeabi_f2d
ARM GAS  C:\Users\86158\AppData\Local\Temp\ccP8sDIW.s 			page 66


 2961              	.LVL361:
 2962 0ade 41EC100B 		vmov	d0, r0, r1
 2963 0ae2 FFF7FEFF 		bl	cosh
 2964              	.LVL362:
 2965 0ae6 FFF7FEFF 		bl	log
 2966              	.LVL363:
 2967 0aea 53EC102B 		vmov	r2, r3, d0
 290:App/Src/calculate.c **** 			if (fabs(error) <= 0.2) {
 2968              		.loc 1 290 18 view .LVU680
 2969 0aee 2046     		mov	r0, r4
 2970 0af0 2946     		mov	r1, r5
 2971 0af2 FFF7FEFF 		bl	__aeabi_dmul
 2972              	.LVL364:
 2973 0af6 0446     		mov	r4, r0
 2974 0af8 0D46     		mov	r5, r1
 290:App/Src/calculate.c **** 			if (fabs(error) <= 0.2) {
 2975              		.loc 1 290 82 view .LVU681
 2976 0afa 0C98     		ldr	r0, [sp, #48]	@ float
 2977 0afc FFF7FEFF 		bl	__aeabi_f2d
 2978              	.LVL365:
 2979 0b00 0246     		mov	r2, r0
 2980 0b02 0B46     		mov	r3, r1
 290:App/Src/calculate.c **** 			if (fabs(error) <= 0.2) {
 2981              		.loc 1 290 77 view .LVU682
 2982 0b04 2046     		mov	r0, r4
 2983 0b06 2946     		mov	r1, r5
 2984 0b08 FFF7FEFF 		bl	__aeabi_dadd
 2985              	.LVL366:
 2986 0b0c 0446     		mov	r4, r0
 2987 0b0e 0D46     		mov	r5, r1
 290:App/Src/calculate.c **** 			if (fabs(error) <= 0.2) {
 2988              		.loc 1 290 95 view .LVU683
 2989 0b10 F868     		ldr	r0, [r7, #12]	@ float
 2990 0b12 FFF7FEFF 		bl	__aeabi_f2d
 2991              	.LVL367:
 2992 0b16 0246     		mov	r2, r0
 2993 0b18 0B46     		mov	r3, r1
 290:App/Src/calculate.c **** 			if (fabs(error) <= 0.2) {
 2994              		.loc 1 290 85 view .LVU684
 2995 0b1a 2046     		mov	r0, r4
 2996 0b1c 2946     		mov	r1, r5
 2997 0b1e FFF7FEFF 		bl	__aeabi_dsub
 2998              	.LVL368:
 290:App/Src/calculate.c **** 			if (fabs(error) <= 0.2) {
 2999              		.loc 1 290 10 view .LVU685
 3000 0b22 FFF7FEFF 		bl	__aeabi_d2f
 3001              	.LVL369:
 3002 0b26 08EE100A 		vmov	s16, r0
 3003              	.LVL370:
 291:App/Src/calculate.c **** 				break;
 3004              		.loc 1 291 4 is_stmt 1 view .LVU686
 291:App/Src/calculate.c **** 				break;
 3005              		.loc 1 291 8 is_stmt 0 view .LVU687
 3006 0b2a F0EEC87A 		vabs.f32	s15, s16
 3007 0b2e 17EE900A 		vmov	r0, s15
 3008              	.LVL371:
 291:App/Src/calculate.c **** 				break;
ARM GAS  C:\Users\86158\AppData\Local\Temp\ccP8sDIW.s 			page 67


 3009              		.loc 1 291 8 view .LVU688
 3010 0b32 FFF7FEFF 		bl	__aeabi_f2d
 3011              	.LVL372:
 291:App/Src/calculate.c **** 				break;
 3012              		.loc 1 291 7 view .LVU689
 3013 0b36 32A3     		adr	r3, .L193
 3014 0b38 D3E90023 		ldrd	r2, [r3]
 3015 0b3c FFF7FEFF 		bl	__aeabi_dcmple
 3016              	.LVL373:
 3017 0b40 A8B9     		cbnz	r0, .L119
 294:App/Src/calculate.c **** 					minB = cac.B;
 3018              		.loc 1 294 5 is_stmt 1 view .LVU690
 294:App/Src/calculate.c **** 					minB = cac.B;
 3019              		.loc 1 294 8 is_stmt 0 view .LVU691
 3020 0b42 F5EEC08A 		vcmpe.f32	s17, #0
 3021 0b46 F1EE10FA 		vmrs	APSR_nzcv, FPSCR
 3022 0b4a FFF678AF 		blt	.L120
 294:App/Src/calculate.c **** 					minB = cac.B;
 3023              		.loc 1 294 24 discriminator 1 view .LVU692
 3024 0b4e B5EEC08A 		vcmpe.f32	s16, #0
 3025 0b52 F1EE10FA 		vmrs	APSR_nzcv, FPSCR
 3026 0b56 FFF672AF 		blt	.L120
 3027              	.L122:
 295:App/Src/calculate.c **** 				} else {
 3028              		.loc 1 295 6 is_stmt 1 view .LVU693
 295:App/Src/calculate.c **** 				} else {
 3029              		.loc 1 295 11 is_stmt 0 view .LVU694
 3030 0b5a DDED0A9A 		vldr.32	s19, [sp, #40]
 3031              	.LVL374:
 295:App/Src/calculate.c **** 				} else {
 3032              		.loc 1 295 11 view .LVU695
 3033 0b5e 76E7     		b	.L126
 3034              	.L184:
 294:App/Src/calculate.c **** 					minB = cac.B;
 3035              		.loc 1 294 57 discriminator 4 view .LVU696
 3036 0b60 B5EEC08A 		vcmpe.f32	s16, #0
 3037 0b64 F1EE10FA 		vmrs	APSR_nzcv, FPSCR
 3038 0b68 3FF66FAF 		bhi	.L123
 3039 0b6c F5E7     		b	.L122
 3040              	.L119:
 301:App/Src/calculate.c **** 			cac.mode = 0;
 3041              		.loc 1 301 3 is_stmt 1 view .LVU697
 301:App/Src/calculate.c **** 			cac.mode = 0;
 3042              		.loc 1 301 7 is_stmt 0 view .LVU698
 3043 0b6e F0EEC87A 		vabs.f32	s15, s16
 301:App/Src/calculate.c **** 			cac.mode = 0;
 3044              		.loc 1 301 6 view .LVU699
 3045 0b72 B7EE007A 		vmov.f32	s14, #1.0e+0
 3046 0b76 F4EEC77A 		vcmpe.f32	s15, s14
 3047 0b7a F1EE10FA 		vmrs	APSR_nzcv, FPSCR
 3048 0b7e 3AD8     		bhi	.L175
 302:App/Src/calculate.c **** 			copy_parameter(&g_right, &cac);
 3049              		.loc 1 302 4 is_stmt 1 view .LVU700
 302:App/Src/calculate.c **** 			copy_parameter(&g_right, &cac);
 3050              		.loc 1 302 13 is_stmt 0 view .LVU701
 3051 0b80 0023     		movs	r3, #0
 3052 0b82 8DF83430 		strb	r3, [sp, #52]
ARM GAS  C:\Users\86158\AppData\Local\Temp\ccP8sDIW.s 			page 68


 303:App/Src/calculate.c **** 			UsbPrintf("min error:%.2f\n", error);
 3053              		.loc 1 303 4 is_stmt 1 view .LVU702
 3054 0b86 09A9     		add	r1, sp, #36
 3055 0b88 2448     		ldr	r0, .L193+28
 3056 0b8a FFF7FEFF 		bl	copy_parameter
 3057              	.LVL375:
 304:App/Src/calculate.c **** 		} else {
 3058              		.loc 1 304 4 view .LVU703
 3059 0b8e 18EE100A 		vmov	r0, s16
 3060 0b92 FFF7FEFF 		bl	__aeabi_f2d
 3061              	.LVL376:
 3062 0b96 0246     		mov	r2, r0
 3063 0b98 0B46     		mov	r3, r1
 3064 0b9a 1C48     		ldr	r0, .L193+12
 3065 0b9c FFF7FEFF 		bl	UsbPrintf
 3066              	.LVL377:
 3067              	.L130:
 349:App/Src/calculate.c **** 
 3068              		.loc 1 349 2 view .LVU704
 349:App/Src/calculate.c **** 
 3069              		.loc 1 349 73 is_stmt 0 view .LVU705
 3070 0ba0 1E4B     		ldr	r3, .L193+28
 349:App/Src/calculate.c **** 
 3071              		.loc 1 349 84 view .LVU706
 3072 0ba2 5E68     		ldr	r6, [r3, #4]	@ float
 349:App/Src/calculate.c **** 
 3073              		.loc 1 349 95 view .LVU707
 3074 0ba4 DF68     		ldr	r7, [r3, #12]	@ float
 349:App/Src/calculate.c **** 
 3075              		.loc 1 349 106 view .LVU708
 3076 0ba6 D3F80880 		ldr	r8, [r3, #8]	@ float
 349:App/Src/calculate.c **** 
 3077              		.loc 1 349 118 view .LVU709
 3078 0baa 93F81090 		ldrb	r9, [r3, #16]	@ zero_extendqisi2
 349:App/Src/calculate.c **** 
 3079              		.loc 1 349 2 view .LVU710
 3080 0bae 1868     		ldr	r0, [r3]	@ float
 3081 0bb0 FFF7FEFF 		bl	__aeabi_f2d
 3082              	.LVL378:
 3083 0bb4 0446     		mov	r4, r0
 3084 0bb6 0D46     		mov	r5, r1
 3085 0bb8 CDF81890 		str	r9, [sp, #24]
 3086 0bbc 4046     		mov	r0, r8	@ float
 3087 0bbe FFF7FEFF 		bl	__aeabi_f2d
 3088              	.LVL379:
 3089 0bc2 CDE90401 		strd	r0, [sp, #16]
 3090 0bc6 3846     		mov	r0, r7	@ float
 3091 0bc8 FFF7FEFF 		bl	__aeabi_f2d
 3092              	.LVL380:
 3093 0bcc CDE90201 		strd	r0, [sp, #8]
 3094 0bd0 3046     		mov	r0, r6	@ float
 3095 0bd2 FFF7FEFF 		bl	__aeabi_f2d
 3096              	.LVL381:
 3097 0bd6 CDE90001 		strd	r0, [sp]
 3098 0bda 2246     		mov	r2, r4
 3099 0bdc 2B46     		mov	r3, r5
 3100 0bde 1048     		ldr	r0, .L193+32
ARM GAS  C:\Users\86158\AppData\Local\Temp\ccP8sDIW.s 			page 69


 3101 0be0 FFF7FEFF 		bl	UsbPrintf
 3102              	.LVL382:
 351:App/Src/calculate.c **** 	UsbPrintf("parameter init success!\n");
 3103              		.loc 1 351 2 is_stmt 1 view .LVU711
 3104 0be4 0F4C     		ldr	r4, .L193+36
 3105 0be6 2046     		mov	r0, r4
 3106 0be8 FFF7FEFF 		bl	log_printf
 3107              	.LVL383:
 352:App/Src/calculate.c **** 	return 1;
 3108              		.loc 1 352 2 view .LVU712
 3109 0bec 2046     		mov	r0, r4
 3110 0bee FFF7FEFF 		bl	UsbPrintf
 3111              	.LVL384:
 353:App/Src/calculate.c **** }
 3112              		.loc 1 353 2 view .LVU713
 353:App/Src/calculate.c **** }
 3113              		.loc 1 353 9 is_stmt 0 view .LVU714
 3114 0bf2 0120     		movs	r0, #1
 3115 0bf4 0BE5     		b	.L91
 3116              	.LVL385:
 3117              	.L175:
 306:App/Src/calculate.c **** 			return 0;
 3118              		.loc 1 306 4 is_stmt 1 view .LVU715
 3119 0bf6 0C48     		ldr	r0, .L193+40
 3120 0bf8 FFF7FEFF 		bl	UsbPrintf
 3121              	.LVL386:
 307:App/Src/calculate.c **** 		}
 3122              		.loc 1 307 4 view .LVU716
 307:App/Src/calculate.c **** 		}
 3123              		.loc 1 307 11 is_stmt 0 view .LVU717
 3124 0bfc 0020     		movs	r0, #0
 3125 0bfe 06E5     		b	.L91
 3126              	.L194:
 3127              		.align	3
 3128              	.L193:
 3129 0c00 9A999999 		.word	-1717986918
 3130 0c04 9999C93F 		.word	1070176665
 3131 0c08 00000000 		.word	.LANCHOR3
 3132 0c0c 2C000000 		.word	.LC13
 3133 0c10 74000000 		.word	.LC16
 3134 0c14 94000000 		.word	.LC17
 3135 0c18 00000000 		.word	.LANCHOR2
 3136 0c1c 00000000 		.word	.LANCHOR4
 3137 0c20 30000000 		.word	.LC9
 3138 0c24 50010000 		.word	.LC23
 3139 0c28 CC000000 		.word	.LC19
 3140 0c2c 00000000 		.word	.LANCHOR1
 3141              	.LVL387:
 3142              	.L174:
 310:App/Src/calculate.c **** 		cac.A = (g_result[TEST_RTC_TEMP_Z29] - g_result[TEST_RTC_TEMP_Z85]) / (1 - cosh((g_input[TEST_RTC
 3143              		.loc 1 310 3 is_stmt 1 view .LVU718
 310:App/Src/calculate.c **** 		cac.A = (g_result[TEST_RTC_TEMP_Z29] - g_result[TEST_RTC_TEMP_Z85]) / (1 - cosh((g_input[TEST_RTC
 3144              		.loc 1 310 9 is_stmt 0 view .LVU719
 3145 0c30 F2EE048A 		vmov.f32	s17, #1.0e+1
 3146              	.LVL388:
 310:App/Src/calculate.c **** 		cac.A = (g_result[TEST_RTC_TEMP_Z29] - g_result[TEST_RTC_TEMP_Z85]) / (1 - cosh((g_input[TEST_RTC
 3147              		.loc 1 310 9 view .LVU720
ARM GAS  C:\Users\86158\AppData\Local\Temp\ccP8sDIW.s 			page 70


 3148 0c34 CDED0A8A 		vstr.32	s17, [sp, #40]
 311:App/Src/calculate.c **** 		cac.C = g_result[TEST_RTC_TEMP_Z29] - cac.A;
 3149              		.loc 1 311 3 is_stmt 1 view .LVU721
 311:App/Src/calculate.c **** 		cac.C = g_result[TEST_RTC_TEMP_Z29] - cac.A;
 3150              		.loc 1 311 20 is_stmt 0 view .LVU722
 3151 0c38 DF4C     		ldr	r4, .L195+16
 3152 0c3a 94ED027A 		vldr.32	s14, [r4, #8]
 311:App/Src/calculate.c **** 		cac.C = g_result[TEST_RTC_TEMP_Z29] - cac.A;
 3153              		.loc 1 311 50 view .LVU723
 3154 0c3e D4ED047A 		vldr.32	s15, [r4, #16]
 311:App/Src/calculate.c **** 		cac.C = g_result[TEST_RTC_TEMP_Z29] - cac.A;
 3155              		.loc 1 311 40 view .LVU724
 3156 0c42 77EE677A 		vsub.f32	s15, s14, s15
 3157 0c46 17EE900A 		vmov	r0, s15
 3158 0c4a FFF7FEFF 		bl	__aeabi_f2d
 3159              	.LVL389:
 3160 0c4e 0646     		mov	r6, r0
 3161 0c50 0F46     		mov	r7, r1
 311:App/Src/calculate.c **** 		cac.C = g_result[TEST_RTC_TEMP_Z29] - cac.A;
 3162              		.loc 1 311 91 view .LVU725
 3163 0c52 DA4D     		ldr	r5, .L195+20
 3164 0c54 D5ED047A 		vldr.32	s15, [r5, #16]
 311:App/Src/calculate.c **** 		cac.C = g_result[TEST_RTC_TEMP_Z29] - cac.A;
 3165              		.loc 1 311 116 view .LVU726
 3166 0c58 9DED0B7A 		vldr.32	s14, [sp, #44]
 311:App/Src/calculate.c **** 		cac.C = g_result[TEST_RTC_TEMP_Z29] - cac.A;
 3167              		.loc 1 311 111 view .LVU727
 3168 0c5c 77EEC77A 		vsub.f32	s15, s15, s14
 311:App/Src/calculate.c **** 		cac.C = g_result[TEST_RTC_TEMP_Z29] - cac.A;
 3169              		.loc 1 311 78 view .LVU728
 3170 0c60 C7EEA87A 		vdiv.f32	s15, s15, s17
 3171 0c64 17EE900A 		vmov	r0, s15
 3172 0c68 FFF7FEFF 		bl	__aeabi_f2d
 3173              	.LVL390:
 3174 0c6c 41EC100B 		vmov	d0, r0, r1
 3175 0c70 FFF7FEFF 		bl	cosh
 3176              	.LVL391:
 3177 0c74 53EC102B 		vmov	r2, r3, d0
 311:App/Src/calculate.c **** 		cac.C = g_result[TEST_RTC_TEMP_Z29] - cac.A;
 3178              		.loc 1 311 76 view .LVU729
 3179 0c78 0020     		movs	r0, #0
 3180 0c7a D149     		ldr	r1, .L195+24
 3181 0c7c FFF7FEFF 		bl	__aeabi_dsub
 3182              	.LVL392:
 3183 0c80 0246     		mov	r2, r0
 3184 0c82 0B46     		mov	r3, r1
 311:App/Src/calculate.c **** 		cac.C = g_result[TEST_RTC_TEMP_Z29] - cac.A;
 3185              		.loc 1 311 71 view .LVU730
 3186 0c84 3046     		mov	r0, r6
 3187 0c86 3946     		mov	r1, r7
 3188 0c88 FFF7FEFF 		bl	__aeabi_ddiv
 3189              	.LVL393:
 3190 0c8c FFF7FEFF 		bl	__aeabi_d2f
 3191              	.LVL394:
 3192 0c90 07EE900A 		vmov	s15, r0
 311:App/Src/calculate.c **** 		cac.C = g_result[TEST_RTC_TEMP_Z29] - cac.A;
 3193              		.loc 1 311 9 view .LVU731
ARM GAS  C:\Users\86158\AppData\Local\Temp\ccP8sDIW.s 			page 71


 3194 0c94 0990     		str	r0, [sp, #36]	@ float
 312:App/Src/calculate.c **** 		minError = cac.A * cosh((g_input[TEST_RTC_TEMP_Z60] - cac.X0) / cac.B) + cac.C - g_result[TEST_RT
 3195              		.loc 1 312 3 is_stmt 1 view .LVU732
 312:App/Src/calculate.c **** 		minError = cac.A * cosh((g_input[TEST_RTC_TEMP_Z60] - cac.X0) / cac.B) + cac.C - g_result[TEST_RT
 3196              		.loc 1 312 19 is_stmt 0 view .LVU733
 3197 0c96 94ED027A 		vldr.32	s14, [r4, #8]
 312:App/Src/calculate.c **** 		minError = cac.A * cosh((g_input[TEST_RTC_TEMP_Z60] - cac.X0) / cac.B) + cac.C - g_result[TEST_RT
 3198              		.loc 1 312 39 view .LVU734
 3199 0c9a 77EE677A 		vsub.f32	s15, s14, s15
 312:App/Src/calculate.c **** 		minError = cac.A * cosh((g_input[TEST_RTC_TEMP_Z60] - cac.X0) / cac.B) + cac.C - g_result[TEST_RT
 3200              		.loc 1 312 9 view .LVU735
 3201 0c9e CDED0C7A 		vstr.32	s15, [sp, #48]
 313:App/Src/calculate.c **** 		cac.B = maxB;// 
 3202              		.loc 1 313 3 is_stmt 1 view .LVU736
 313:App/Src/calculate.c **** 		cac.B = maxB;// 
 3203              		.loc 1 313 17 is_stmt 0 view .LVU737
 3204 0ca2 FFF7FEFF 		bl	__aeabi_f2d
 3205              	.LVL395:
 3206 0ca6 0646     		mov	r6, r0
 3207 0ca8 0F46     		mov	r7, r1
 313:App/Src/calculate.c **** 		cac.B = maxB;// 
 3208              		.loc 1 313 35 view .LVU738
 3209 0caa D5ED037A 		vldr.32	s15, [r5, #12]
 313:App/Src/calculate.c **** 		cac.B = maxB;// 
 3210              		.loc 1 313 60 view .LVU739
 3211 0cae 9DED0B7A 		vldr.32	s14, [sp, #44]
 313:App/Src/calculate.c **** 		cac.B = maxB;// 
 3212              		.loc 1 313 55 view .LVU740
 3213 0cb2 77EEC77A 		vsub.f32	s15, s15, s14
 313:App/Src/calculate.c **** 		cac.B = maxB;// 
 3214              		.loc 1 313 22 view .LVU741
 3215 0cb6 9DED0A7A 		vldr.32	s14, [sp, #40]
 3216 0cba C7EE877A 		vdiv.f32	s15, s15, s14
 3217 0cbe 17EE900A 		vmov	r0, s15
 3218 0cc2 FFF7FEFF 		bl	__aeabi_f2d
 3219              	.LVL396:
 3220 0cc6 41EC100B 		vmov	d0, r0, r1
 3221 0cca FFF7FEFF 		bl	cosh
 3222              	.LVL397:
 3223 0cce 53EC102B 		vmov	r2, r3, d0
 313:App/Src/calculate.c **** 		cac.B = maxB;// 
 3224              		.loc 1 313 20 view .LVU742
 3225 0cd2 3046     		mov	r0, r6
 3226 0cd4 3946     		mov	r1, r7
 3227 0cd6 FFF7FEFF 		bl	__aeabi_dmul
 3228              	.LVL398:
 3229 0cda 0646     		mov	r6, r0
 3230 0cdc 0F46     		mov	r7, r1
 313:App/Src/calculate.c **** 		cac.B = maxB;// 
 3231              		.loc 1 313 79 view .LVU743
 3232 0cde 0C98     		ldr	r0, [sp, #48]	@ float
 3233 0ce0 FFF7FEFF 		bl	__aeabi_f2d
 3234              	.LVL399:
 3235 0ce4 0246     		mov	r2, r0
 3236 0ce6 0B46     		mov	r3, r1
 313:App/Src/calculate.c **** 		cac.B = maxB;// 
 3237              		.loc 1 313 74 view .LVU744
ARM GAS  C:\Users\86158\AppData\Local\Temp\ccP8sDIW.s 			page 72


 3238 0ce8 3046     		mov	r0, r6
 3239 0cea 3946     		mov	r1, r7
 3240 0cec FFF7FEFF 		bl	__aeabi_dadd
 3241              	.LVL400:
 3242 0cf0 0646     		mov	r6, r0
 3243 0cf2 0F46     		mov	r7, r1
 313:App/Src/calculate.c **** 		cac.B = maxB;// 
 3244              		.loc 1 313 92 view .LVU745
 3245 0cf4 E068     		ldr	r0, [r4, #12]	@ float
 3246 0cf6 FFF7FEFF 		bl	__aeabi_f2d
 3247              	.LVL401:
 3248 0cfa 0246     		mov	r2, r0
 3249 0cfc 0B46     		mov	r3, r1
 313:App/Src/calculate.c **** 		cac.B = maxB;// 
 3250              		.loc 1 313 82 view .LVU746
 3251 0cfe 3046     		mov	r0, r6
 3252 0d00 3946     		mov	r1, r7
 3253 0d02 FFF7FEFF 		bl	__aeabi_dsub
 3254              	.LVL402:
 313:App/Src/calculate.c **** 		cac.B = maxB;// 
 3255              		.loc 1 313 12 view .LVU747
 3256 0d06 FFF7FEFF 		bl	__aeabi_d2f
 3257              	.LVL403:
 3258 0d0a 08EE900A 		vmov	s17, r0
 3259              	.LVL404:
 314:App/Src/calculate.c **** 		cac.A = (g_result[TEST_RTC_TEMP_Z29] - g_result[TEST_RTC_TEMP_Z85]) / (1 - cosh((g_input[TEST_RTC
 3260              		.loc 1 314 3 is_stmt 1 view .LVU748
 314:App/Src/calculate.c **** 		cac.A = (g_result[TEST_RTC_TEMP_Z29] - g_result[TEST_RTC_TEMP_Z85]) / (1 - cosh((g_input[TEST_RTC
 3261              		.loc 1 314 9 is_stmt 0 view .LVU749
 3262 0d0e 9FEDAD9A 		vldr.32	s18, .L195+28
 3263              	.LVL405:
 314:App/Src/calculate.c **** 		cac.A = (g_result[TEST_RTC_TEMP_Z29] - g_result[TEST_RTC_TEMP_Z85]) / (1 - cosh((g_input[TEST_RTC
 3264              		.loc 1 314 9 view .LVU750
 3265 0d12 8DED0A9A 		vstr.32	s18, [sp, #40]
 315:App/Src/calculate.c **** 		cac.C = g_result[TEST_RTC_TEMP_Z29] - cac.A;
 3266              		.loc 1 315 3 is_stmt 1 view .LVU751
 315:App/Src/calculate.c **** 		cac.C = g_result[TEST_RTC_TEMP_Z29] - cac.A;
 3267              		.loc 1 315 20 is_stmt 0 view .LVU752
 3268 0d16 94ED027A 		vldr.32	s14, [r4, #8]
 315:App/Src/calculate.c **** 		cac.C = g_result[TEST_RTC_TEMP_Z29] - cac.A;
 3269              		.loc 1 315 50 view .LVU753
 3270 0d1a D4ED047A 		vldr.32	s15, [r4, #16]
 315:App/Src/calculate.c **** 		cac.C = g_result[TEST_RTC_TEMP_Z29] - cac.A;
 3271              		.loc 1 315 40 view .LVU754
 3272 0d1e 77EE677A 		vsub.f32	s15, s14, s15
 3273 0d22 17EE900A 		vmov	r0, s15
 3274              	.LVL406:
 315:App/Src/calculate.c **** 		cac.C = g_result[TEST_RTC_TEMP_Z29] - cac.A;
 3275              		.loc 1 315 40 view .LVU755
 3276 0d26 FFF7FEFF 		bl	__aeabi_f2d
 3277              	.LVL407:
 3278 0d2a 0646     		mov	r6, r0
 3279 0d2c 0F46     		mov	r7, r1
 315:App/Src/calculate.c **** 		cac.C = g_result[TEST_RTC_TEMP_Z29] - cac.A;
 3280              		.loc 1 315 91 view .LVU756
 3281 0d2e D5ED047A 		vldr.32	s15, [r5, #16]
 315:App/Src/calculate.c **** 		cac.C = g_result[TEST_RTC_TEMP_Z29] - cac.A;
ARM GAS  C:\Users\86158\AppData\Local\Temp\ccP8sDIW.s 			page 73


 3282              		.loc 1 315 116 view .LVU757
 3283 0d32 9DED0B7A 		vldr.32	s14, [sp, #44]
 315:App/Src/calculate.c **** 		cac.C = g_result[TEST_RTC_TEMP_Z29] - cac.A;
 3284              		.loc 1 315 111 view .LVU758
 3285 0d36 77EEC77A 		vsub.f32	s15, s15, s14
 315:App/Src/calculate.c **** 		cac.C = g_result[TEST_RTC_TEMP_Z29] - cac.A;
 3286              		.loc 1 315 78 view .LVU759
 3287 0d3a C7EE897A 		vdiv.f32	s15, s15, s18
 3288 0d3e 17EE900A 		vmov	r0, s15
 3289 0d42 FFF7FEFF 		bl	__aeabi_f2d
 3290              	.LVL408:
 3291 0d46 41EC100B 		vmov	d0, r0, r1
 3292 0d4a FFF7FEFF 		bl	cosh
 3293              	.LVL409:
 3294 0d4e 53EC102B 		vmov	r2, r3, d0
 315:App/Src/calculate.c **** 		cac.C = g_result[TEST_RTC_TEMP_Z29] - cac.A;
 3295              		.loc 1 315 76 view .LVU760
 3296 0d52 0020     		movs	r0, #0
 3297 0d54 9A49     		ldr	r1, .L195+24
 3298 0d56 FFF7FEFF 		bl	__aeabi_dsub
 3299              	.LVL410:
 3300 0d5a 0246     		mov	r2, r0
 3301 0d5c 0B46     		mov	r3, r1
 315:App/Src/calculate.c **** 		cac.C = g_result[TEST_RTC_TEMP_Z29] - cac.A;
 3302              		.loc 1 315 71 view .LVU761
 3303 0d5e 3046     		mov	r0, r6
 3304 0d60 3946     		mov	r1, r7
 3305 0d62 FFF7FEFF 		bl	__aeabi_ddiv
 3306              	.LVL411:
 3307 0d66 FFF7FEFF 		bl	__aeabi_d2f
 3308              	.LVL412:
 3309 0d6a 07EE900A 		vmov	s15, r0
 315:App/Src/calculate.c **** 		cac.C = g_result[TEST_RTC_TEMP_Z29] - cac.A;
 3310              		.loc 1 315 9 view .LVU762
 3311 0d6e 0990     		str	r0, [sp, #36]	@ float
 316:App/Src/calculate.c **** 		maxError = cac.A * cosh((g_input[TEST_RTC_TEMP_Z60] - cac.X0) / cac.B) + cac.C - g_result[TEST_RT
 3312              		.loc 1 316 3 is_stmt 1 view .LVU763
 316:App/Src/calculate.c **** 		maxError = cac.A * cosh((g_input[TEST_RTC_TEMP_Z60] - cac.X0) / cac.B) + cac.C - g_result[TEST_RT
 3313              		.loc 1 316 19 is_stmt 0 view .LVU764
 3314 0d70 94ED027A 		vldr.32	s14, [r4, #8]
 316:App/Src/calculate.c **** 		maxError = cac.A * cosh((g_input[TEST_RTC_TEMP_Z60] - cac.X0) / cac.B) + cac.C - g_result[TEST_RT
 3315              		.loc 1 316 39 view .LVU765
 3316 0d74 77EE677A 		vsub.f32	s15, s14, s15
 316:App/Src/calculate.c **** 		maxError = cac.A * cosh((g_input[TEST_RTC_TEMP_Z60] - cac.X0) / cac.B) + cac.C - g_result[TEST_RT
 3317              		.loc 1 316 9 view .LVU766
 3318 0d78 CDED0C7A 		vstr.32	s15, [sp, #48]
 317:App/Src/calculate.c **** 		UsbPrintf("min:%.2f, max:%.2f\n", minError, maxError);
 3319              		.loc 1 317 3 is_stmt 1 view .LVU767
 317:App/Src/calculate.c **** 		UsbPrintf("min:%.2f, max:%.2f\n", minError, maxError);
 3320              		.loc 1 317 17 is_stmt 0 view .LVU768
 3321 0d7c FFF7FEFF 		bl	__aeabi_f2d
 3322              	.LVL413:
 3323 0d80 0646     		mov	r6, r0
 3324 0d82 0F46     		mov	r7, r1
 317:App/Src/calculate.c **** 		UsbPrintf("min:%.2f, max:%.2f\n", minError, maxError);
 3325              		.loc 1 317 35 view .LVU769
 3326 0d84 D5ED037A 		vldr.32	s15, [r5, #12]
ARM GAS  C:\Users\86158\AppData\Local\Temp\ccP8sDIW.s 			page 74


 317:App/Src/calculate.c **** 		UsbPrintf("min:%.2f, max:%.2f\n", minError, maxError);
 3327              		.loc 1 317 60 view .LVU770
 3328 0d88 9DED0B7A 		vldr.32	s14, [sp, #44]
 317:App/Src/calculate.c **** 		UsbPrintf("min:%.2f, max:%.2f\n", minError, maxError);
 3329              		.loc 1 317 55 view .LVU771
 3330 0d8c 77EEC77A 		vsub.f32	s15, s15, s14
 317:App/Src/calculate.c **** 		UsbPrintf("min:%.2f, max:%.2f\n", minError, maxError);
 3331              		.loc 1 317 22 view .LVU772
 3332 0d90 9DED0A7A 		vldr.32	s14, [sp, #40]
 3333 0d94 C7EE877A 		vdiv.f32	s15, s15, s14
 3334 0d98 17EE900A 		vmov	r0, s15
 3335 0d9c FFF7FEFF 		bl	__aeabi_f2d
 3336              	.LVL414:
 3337 0da0 41EC100B 		vmov	d0, r0, r1
 3338 0da4 FFF7FEFF 		bl	cosh
 3339              	.LVL415:
 3340 0da8 53EC102B 		vmov	r2, r3, d0
 317:App/Src/calculate.c **** 		UsbPrintf("min:%.2f, max:%.2f\n", minError, maxError);
 3341              		.loc 1 317 20 view .LVU773
 3342 0dac 3046     		mov	r0, r6
 3343 0dae 3946     		mov	r1, r7
 3344 0db0 FFF7FEFF 		bl	__aeabi_dmul
 3345              	.LVL416:
 3346 0db4 0646     		mov	r6, r0
 3347 0db6 0F46     		mov	r7, r1
 317:App/Src/calculate.c **** 		UsbPrintf("min:%.2f, max:%.2f\n", minError, maxError);
 3348              		.loc 1 317 79 view .LVU774
 3349 0db8 0C98     		ldr	r0, [sp, #48]	@ float
 3350 0dba FFF7FEFF 		bl	__aeabi_f2d
 3351              	.LVL417:
 3352 0dbe 0246     		mov	r2, r0
 3353 0dc0 0B46     		mov	r3, r1
 317:App/Src/calculate.c **** 		UsbPrintf("min:%.2f, max:%.2f\n", minError, maxError);
 3354              		.loc 1 317 74 view .LVU775
 3355 0dc2 3046     		mov	r0, r6
 3356 0dc4 3946     		mov	r1, r7
 3357 0dc6 FFF7FEFF 		bl	__aeabi_dadd
 3358              	.LVL418:
 3359 0dca 0646     		mov	r6, r0
 3360 0dcc 0F46     		mov	r7, r1
 317:App/Src/calculate.c **** 		UsbPrintf("min:%.2f, max:%.2f\n", minError, maxError);
 3361              		.loc 1 317 92 view .LVU776
 3362 0dce E068     		ldr	r0, [r4, #12]	@ float
 3363 0dd0 FFF7FEFF 		bl	__aeabi_f2d
 3364              	.LVL419:
 3365 0dd4 0246     		mov	r2, r0
 3366 0dd6 0B46     		mov	r3, r1
 317:App/Src/calculate.c **** 		UsbPrintf("min:%.2f, max:%.2f\n", minError, maxError);
 3367              		.loc 1 317 82 view .LVU777
 3368 0dd8 3046     		mov	r0, r6
 3369 0dda 3946     		mov	r1, r7
 3370 0ddc FFF7FEFF 		bl	__aeabi_dsub
 3371              	.LVL420:
 317:App/Src/calculate.c **** 		UsbPrintf("min:%.2f, max:%.2f\n", minError, maxError);
 3372              		.loc 1 317 12 view .LVU778
 3373 0de0 FFF7FEFF 		bl	__aeabi_d2f
 3374              	.LVL421:
ARM GAS  C:\Users\86158\AppData\Local\Temp\ccP8sDIW.s 			page 75


 3375 0de4 09EE100A 		vmov	s18, r0
 3376              	.LVL422:
 318:App/Src/calculate.c **** 		if ((minError > 0 && maxError < 0 ) || (minError < 0 && maxError > 0) || fabs(maxError) < 0.1) {
 3377              		.loc 1 318 3 is_stmt 1 view .LVU779
 3378 0de8 18EE900A 		vmov	r0, s17
 3379              	.LVL423:
 318:App/Src/calculate.c **** 		if ((minError > 0 && maxError < 0 ) || (minError < 0 && maxError > 0) || fabs(maxError) < 0.1) {
 3380              		.loc 1 318 3 is_stmt 0 view .LVU780
 3381 0dec FFF7FEFF 		bl	__aeabi_f2d
 3382              	.LVL424:
 3383 0df0 0446     		mov	r4, r0
 3384 0df2 0D46     		mov	r5, r1
 3385 0df4 19EE100A 		vmov	r0, s18
 3386 0df8 FFF7FEFF 		bl	__aeabi_f2d
 3387              	.LVL425:
 3388 0dfc CDE90001 		strd	r0, [sp]
 3389 0e00 2246     		mov	r2, r4
 3390 0e02 2B46     		mov	r3, r5
 3391 0e04 7048     		ldr	r0, .L195+32
 3392 0e06 FFF7FEFF 		bl	UsbPrintf
 3393              	.LVL426:
 319:App/Src/calculate.c **** 			UsbPrintf("right para use mode 1\n");
 3394              		.loc 1 319 3 is_stmt 1 view .LVU781
 319:App/Src/calculate.c **** 			UsbPrintf("right para use mode 1\n");
 3395              		.loc 1 319 6 is_stmt 0 view .LVU782
 3396 0e0a F5EEC08A 		vcmpe.f32	s17, #0
 3397 0e0e F1EE10FA 		vmrs	APSR_nzcv, FPSCR
 3398 0e12 04DD     		ble	.L131
 319:App/Src/calculate.c **** 			UsbPrintf("right para use mode 1\n");
 3399              		.loc 1 319 21 discriminator 1 view .LVU783
 3400 0e14 B5EEC09A 		vcmpe.f32	s18, #0
 3401 0e18 F1EE10FA 		vmrs	APSR_nzcv, FPSCR
 3402 0e1c 12D4     		bmi	.L133
 3403              	.L131:
 319:App/Src/calculate.c **** 			UsbPrintf("right para use mode 1\n");
 3404              		.loc 1 319 39 discriminator 3 view .LVU784
 3405 0e1e F5EEC08A 		vcmpe.f32	s17, #0
 3406 0e22 F1EE10FA 		vmrs	APSR_nzcv, FPSCR
 3407 0e26 16D4     		bmi	.L185
 3408              	.L134:
 319:App/Src/calculate.c **** 			UsbPrintf("right para use mode 1\n");
 3409              		.loc 1 319 76 discriminator 6 view .LVU785
 3410 0e28 F0EEC97A 		vabs.f32	s15, s18
 3411 0e2c 17EE900A 		vmov	r0, s15
 3412 0e30 FFF7FEFF 		bl	__aeabi_f2d
 3413              	.LVL427:
 319:App/Src/calculate.c **** 			UsbPrintf("right para use mode 1\n");
 3414              		.loc 1 319 73 discriminator 6 view .LVU786
 3415 0e34 5CA3     		adr	r3, .L195
 3416 0e36 D3E90023 		ldrd	r2, [r3]
 3417 0e3a FFF7FEFF 		bl	__aeabi_dcmplt
 3418              	.LVL428:
 3419 0e3e 0028     		cmp	r0, #0
 3420 0e40 00F0E680 		beq	.L176
 3421              	.L133:
 320:App/Src/calculate.c **** 			for (i = 0; i < 20; i++) {
 3422              		.loc 1 320 4 is_stmt 1 view .LVU787
ARM GAS  C:\Users\86158\AppData\Local\Temp\ccP8sDIW.s 			page 76


 3423 0e44 6148     		ldr	r0, .L195+36
 3424 0e46 FFF7FEFF 		bl	UsbPrintf
 3425              	.LVL429:
 321:App/Src/calculate.c **** 				cac.B = (minB + maxB) / 2;
 3426              		.loc 1 321 4 view .LVU788
 276:App/Src/calculate.c **** 
 3427              		.loc 1 276 7 is_stmt 0 view .LVU789
 3428 0e4a 9FED5E9A 		vldr.32	s18, .L195+28
 3429              	.LVL430:
 275:App/Src/calculate.c **** 	maxB = 990;
 3430              		.loc 1 275 7 view .LVU790
 3431 0e4e F2EE049A 		vmov.f32	s19, #1.0e+1
 321:App/Src/calculate.c **** 				cac.B = (minB + maxB) / 2;
 3432              		.loc 1 321 11 view .LVU791
 3433 0e52 0025     		movs	r5, #0
 321:App/Src/calculate.c **** 				cac.B = (minB + maxB) / 2;
 3434              		.loc 1 321 4 view .LVU792
 3435 0e54 0EE0     		b	.L138
 3436              	.LVL431:
 3437              	.L185:
 319:App/Src/calculate.c **** 			UsbPrintf("right para use mode 1\n");
 3438              		.loc 1 319 56 discriminator 4 view .LVU793
 3439 0e56 B5EEC09A 		vcmpe.f32	s18, #0
 3440 0e5a F1EE10FA 		vmrs	APSR_nzcv, FPSCR
 3441 0e5e F1DC     		bgt	.L133
 3442 0e60 E2E7     		b	.L134
 3443              	.LVL432:
 3444              	.L140:
 329:App/Src/calculate.c **** 						minB = cac.B;
 3445              		.loc 1 329 40 discriminator 3 view .LVU794
 3446 0e62 F5EEC08A 		vcmpe.f32	s17, #0
 3447 0e66 F1EE10FA 		vmrs	APSR_nzcv, FPSCR
 3448 0e6a 40F29580 		bls	.L186
 3449              	.L143:
 332:App/Src/calculate.c **** 					}
 3450              		.loc 1 332 7 is_stmt 1 view .LVU795
 332:App/Src/calculate.c **** 					}
 3451              		.loc 1 332 12 is_stmt 0 view .LVU796
 3452 0e6e 9DED0A9A 		vldr.32	s18, [sp, #40]
 3453              	.LVL433:
 3454              	.L146:
 321:App/Src/calculate.c **** 				cac.B = (minB + maxB) / 2;
 3455              		.loc 1 321 24 is_stmt 1 discriminator 2 view .LVU797
 321:App/Src/calculate.c **** 				cac.B = (minB + maxB) / 2;
 3456              		.loc 1 321 25 is_stmt 0 discriminator 2 view .LVU798
 3457 0e72 0135     		adds	r5, r5, #1
 3458              	.LVL434:
 3459              	.L138:
 321:App/Src/calculate.c **** 				cac.B = (minB + maxB) / 2;
 3460              		.loc 1 321 16 is_stmt 1 discriminator 1 view .LVU799
 321:App/Src/calculate.c **** 				cac.B = (minB + maxB) / 2;
 3461              		.loc 1 321 4 is_stmt 0 discriminator 1 view .LVU800
 3462 0e74 132D     		cmp	r5, #19
 3463 0e76 00F3AB80 		bgt	.L139
 322:App/Src/calculate.c **** 				cac.A = (g_result[TEST_RTC_TEMP_Z29] - g_result[TEST_RTC_TEMP_Z85]) / (1 - cosh((g_input[TEST_R
 3464              		.loc 1 322 5 is_stmt 1 view .LVU801
 322:App/Src/calculate.c **** 				cac.A = (g_result[TEST_RTC_TEMP_Z29] - g_result[TEST_RTC_TEMP_Z85]) / (1 - cosh((g_input[TEST_R
ARM GAS  C:\Users\86158\AppData\Local\Temp\ccP8sDIW.s 			page 77


 3465              		.loc 1 322 19 is_stmt 0 view .LVU802
 3466 0e7a 39EE898A 		vadd.f32	s16, s19, s18
 3467              	.LVL435:
 322:App/Src/calculate.c **** 				cac.A = (g_result[TEST_RTC_TEMP_Z29] - g_result[TEST_RTC_TEMP_Z85]) / (1 - cosh((g_input[TEST_R
 3468              		.loc 1 322 27 view .LVU803
 3469 0e7e F6EE007A 		vmov.f32	s15, #5.0e-1
 3470 0e82 28EE278A 		vmul.f32	s16, s16, s15
 322:App/Src/calculate.c **** 				cac.A = (g_result[TEST_RTC_TEMP_Z29] - g_result[TEST_RTC_TEMP_Z85]) / (1 - cosh((g_input[TEST_R
 3471              		.loc 1 322 11 view .LVU804
 3472 0e86 8DED0A8A 		vstr.32	s16, [sp, #40]
 323:App/Src/calculate.c **** 				cac.C = g_result[TEST_RTC_TEMP_Z29] - cac.A;
 3473              		.loc 1 323 5 is_stmt 1 view .LVU805
 323:App/Src/calculate.c **** 				cac.C = g_result[TEST_RTC_TEMP_Z29] - cac.A;
 3474              		.loc 1 323 22 is_stmt 0 view .LVU806
 3475 0e8a 4B4C     		ldr	r4, .L195+16
 3476 0e8c 94ED027A 		vldr.32	s14, [r4, #8]
 323:App/Src/calculate.c **** 				cac.C = g_result[TEST_RTC_TEMP_Z29] - cac.A;
 3477              		.loc 1 323 52 view .LVU807
 3478 0e90 D4ED047A 		vldr.32	s15, [r4, #16]
 323:App/Src/calculate.c **** 				cac.C = g_result[TEST_RTC_TEMP_Z29] - cac.A;
 3479              		.loc 1 323 42 view .LVU808
 3480 0e94 77EE677A 		vsub.f32	s15, s14, s15
 3481 0e98 17EE900A 		vmov	r0, s15
 3482 0e9c FFF7FEFF 		bl	__aeabi_f2d
 3483              	.LVL436:
 3484 0ea0 0646     		mov	r6, r0
 3485 0ea2 0F46     		mov	r7, r1
 323:App/Src/calculate.c **** 				cac.C = g_result[TEST_RTC_TEMP_Z29] - cac.A;
 3486              		.loc 1 323 93 view .LVU809
 3487 0ea4 DFF81481 		ldr	r8, .L195+20
 3488 0ea8 D8ED047A 		vldr.32	s15, [r8, #16]
 323:App/Src/calculate.c **** 				cac.C = g_result[TEST_RTC_TEMP_Z29] - cac.A;
 3489              		.loc 1 323 118 view .LVU810
 3490 0eac 9DED0B7A 		vldr.32	s14, [sp, #44]
 323:App/Src/calculate.c **** 				cac.C = g_result[TEST_RTC_TEMP_Z29] - cac.A;
 3491              		.loc 1 323 113 view .LVU811
 3492 0eb0 77EEC77A 		vsub.f32	s15, s15, s14
 323:App/Src/calculate.c **** 				cac.C = g_result[TEST_RTC_TEMP_Z29] - cac.A;
 3493              		.loc 1 323 80 view .LVU812
 3494 0eb4 C7EE887A 		vdiv.f32	s15, s15, s16
 3495 0eb8 17EE900A 		vmov	r0, s15
 3496 0ebc FFF7FEFF 		bl	__aeabi_f2d
 3497              	.LVL437:
 3498 0ec0 41EC100B 		vmov	d0, r0, r1
 3499 0ec4 FFF7FEFF 		bl	cosh
 3500              	.LVL438:
 3501 0ec8 53EC102B 		vmov	r2, r3, d0
 323:App/Src/calculate.c **** 				cac.C = g_result[TEST_RTC_TEMP_Z29] - cac.A;
 3502              		.loc 1 323 78 view .LVU813
 3503 0ecc 0020     		movs	r0, #0
 3504 0ece 3C49     		ldr	r1, .L195+24
 3505 0ed0 FFF7FEFF 		bl	__aeabi_dsub
 3506              	.LVL439:
 3507 0ed4 0246     		mov	r2, r0
 3508 0ed6 0B46     		mov	r3, r1
 323:App/Src/calculate.c **** 				cac.C = g_result[TEST_RTC_TEMP_Z29] - cac.A;
 3509              		.loc 1 323 73 view .LVU814
ARM GAS  C:\Users\86158\AppData\Local\Temp\ccP8sDIW.s 			page 78


 3510 0ed8 3046     		mov	r0, r6
 3511 0eda 3946     		mov	r1, r7
 3512 0edc FFF7FEFF 		bl	__aeabi_ddiv
 3513              	.LVL440:
 3514 0ee0 FFF7FEFF 		bl	__aeabi_d2f
 3515              	.LVL441:
 3516 0ee4 07EE900A 		vmov	s15, r0
 323:App/Src/calculate.c **** 				cac.C = g_result[TEST_RTC_TEMP_Z29] - cac.A;
 3517              		.loc 1 323 11 view .LVU815
 3518 0ee8 0990     		str	r0, [sp, #36]	@ float
 324:App/Src/calculate.c **** 				error = cac.A * cosh((g_input[TEST_RTC_TEMP_Z60] - cac.X0) / cac.B) + cac.C - g_result[TEST_RTC
 3519              		.loc 1 324 5 is_stmt 1 view .LVU816
 324:App/Src/calculate.c **** 				error = cac.A * cosh((g_input[TEST_RTC_TEMP_Z60] - cac.X0) / cac.B) + cac.C - g_result[TEST_RTC
 3520              		.loc 1 324 21 is_stmt 0 view .LVU817
 3521 0eea 94ED027A 		vldr.32	s14, [r4, #8]
 324:App/Src/calculate.c **** 				error = cac.A * cosh((g_input[TEST_RTC_TEMP_Z60] - cac.X0) / cac.B) + cac.C - g_result[TEST_RTC
 3522              		.loc 1 324 41 view .LVU818
 3523 0eee 77EE677A 		vsub.f32	s15, s14, s15
 324:App/Src/calculate.c **** 				error = cac.A * cosh((g_input[TEST_RTC_TEMP_Z60] - cac.X0) / cac.B) + cac.C - g_result[TEST_RTC
 3524              		.loc 1 324 11 view .LVU819
 3525 0ef2 CDED0C7A 		vstr.32	s15, [sp, #48]
 325:App/Src/calculate.c **** 				if (fabs(error) <= 0.2) {
 3526              		.loc 1 325 5 is_stmt 1 view .LVU820
 325:App/Src/calculate.c **** 				if (fabs(error) <= 0.2) {
 3527              		.loc 1 325 16 is_stmt 0 view .LVU821
 3528 0ef6 FFF7FEFF 		bl	__aeabi_f2d
 3529              	.LVL442:
 3530 0efa 0646     		mov	r6, r0
 3531 0efc 0F46     		mov	r7, r1
 325:App/Src/calculate.c **** 				if (fabs(error) <= 0.2) {
 3532              		.loc 1 325 34 view .LVU822
 3533 0efe D8ED037A 		vldr.32	s15, [r8, #12]
 325:App/Src/calculate.c **** 				if (fabs(error) <= 0.2) {
 3534              		.loc 1 325 59 view .LVU823
 3535 0f02 9DED0B7A 		vldr.32	s14, [sp, #44]
 325:App/Src/calculate.c **** 				if (fabs(error) <= 0.2) {
 3536              		.loc 1 325 54 view .LVU824
 3537 0f06 77EEC77A 		vsub.f32	s15, s15, s14
 325:App/Src/calculate.c **** 				if (fabs(error) <= 0.2) {
 3538              		.loc 1 325 21 view .LVU825
 3539 0f0a 9DED0A7A 		vldr.32	s14, [sp, #40]
 3540 0f0e C7EE877A 		vdiv.f32	s15, s15, s14
 3541 0f12 17EE900A 		vmov	r0, s15
 3542 0f16 FFF7FEFF 		bl	__aeabi_f2d
 3543              	.LVL443:
 3544 0f1a 41EC100B 		vmov	d0, r0, r1
 3545 0f1e FFF7FEFF 		bl	cosh
 3546              	.LVL444:
 3547 0f22 53EC102B 		vmov	r2, r3, d0
 325:App/Src/calculate.c **** 				if (fabs(error) <= 0.2) {
 3548              		.loc 1 325 19 view .LVU826
 3549 0f26 3046     		mov	r0, r6
 3550 0f28 3946     		mov	r1, r7
 3551 0f2a FFF7FEFF 		bl	__aeabi_dmul
 3552              	.LVL445:
 3553 0f2e 0646     		mov	r6, r0
 3554 0f30 0F46     		mov	r7, r1
ARM GAS  C:\Users\86158\AppData\Local\Temp\ccP8sDIW.s 			page 79


 325:App/Src/calculate.c **** 				if (fabs(error) <= 0.2) {
 3555              		.loc 1 325 78 view .LVU827
 3556 0f32 0C98     		ldr	r0, [sp, #48]	@ float
 3557 0f34 FFF7FEFF 		bl	__aeabi_f2d
 3558              	.LVL446:
 3559 0f38 0246     		mov	r2, r0
 3560 0f3a 0B46     		mov	r3, r1
 325:App/Src/calculate.c **** 				if (fabs(error) <= 0.2) {
 3561              		.loc 1 325 73 view .LVU828
 3562 0f3c 3046     		mov	r0, r6
 3563 0f3e 3946     		mov	r1, r7
 3564 0f40 FFF7FEFF 		bl	__aeabi_dadd
 3565              	.LVL447:
 3566 0f44 0646     		mov	r6, r0
 3567 0f46 0F46     		mov	r7, r1
 325:App/Src/calculate.c **** 				if (fabs(error) <= 0.2) {
 3568              		.loc 1 325 91 view .LVU829
 3569 0f48 E068     		ldr	r0, [r4, #12]	@ float
 3570 0f4a FFF7FEFF 		bl	__aeabi_f2d
 3571              	.LVL448:
 3572 0f4e 0246     		mov	r2, r0
 3573 0f50 0B46     		mov	r3, r1
 325:App/Src/calculate.c **** 				if (fabs(error) <= 0.2) {
 3574              		.loc 1 325 81 view .LVU830
 3575 0f52 3046     		mov	r0, r6
 3576 0f54 3946     		mov	r1, r7
 3577 0f56 FFF7FEFF 		bl	__aeabi_dsub
 3578              	.LVL449:
 325:App/Src/calculate.c **** 				if (fabs(error) <= 0.2) {
 3579              		.loc 1 325 11 view .LVU831
 3580 0f5a FFF7FEFF 		bl	__aeabi_d2f
 3581              	.LVL450:
 3582 0f5e 08EE100A 		vmov	s16, r0
 3583              	.LVL451:
 326:App/Src/calculate.c **** 					break;
 3584              		.loc 1 326 5 is_stmt 1 view .LVU832
 326:App/Src/calculate.c **** 					break;
 3585              		.loc 1 326 9 is_stmt 0 view .LVU833
 3586 0f62 F0EEC87A 		vabs.f32	s15, s16
 3587 0f66 17EE900A 		vmov	r0, s15
 3588              	.LVL452:
 326:App/Src/calculate.c **** 					break;
 3589              		.loc 1 326 9 view .LVU834
 3590 0f6a FFF7FEFF 		bl	__aeabi_f2d
 3591              	.LVL453:
 326:App/Src/calculate.c **** 					break;
 3592              		.loc 1 326 8 view .LVU835
 3593 0f6e 10A3     		adr	r3, .L195+8
 3594 0f70 D3E90023 		ldrd	r2, [r3]
 3595 0f74 FFF7FEFF 		bl	__aeabi_dcmple
 3596              	.LVL454:
 3597 0f78 50BB     		cbnz	r0, .L139
 329:App/Src/calculate.c **** 						minB = cac.B;
 3598              		.loc 1 329 6 is_stmt 1 view .LVU836
 329:App/Src/calculate.c **** 						minB = cac.B;
 3599              		.loc 1 329 9 is_stmt 0 view .LVU837
 3600 0f7a F5EEC08A 		vcmpe.f32	s17, #0
ARM GAS  C:\Users\86158\AppData\Local\Temp\ccP8sDIW.s 			page 80


 3601 0f7e F1EE10FA 		vmrs	APSR_nzcv, FPSCR
 3602 0f82 FFF66EAF 		blt	.L140
 329:App/Src/calculate.c **** 						minB = cac.B;
 3603              		.loc 1 329 25 discriminator 1 view .LVU838
 3604 0f86 B5EEC08A 		vcmpe.f32	s16, #0
 3605 0f8a F1EE10FA 		vmrs	APSR_nzcv, FPSCR
 3606 0f8e FFF668AF 		blt	.L140
 3607              	.L142:
 330:App/Src/calculate.c **** 					} else {
 3608              		.loc 1 330 7 is_stmt 1 view .LVU839
 330:App/Src/calculate.c **** 					} else {
 3609              		.loc 1 330 12 is_stmt 0 view .LVU840
 3610 0f92 DDED0A9A 		vldr.32	s19, [sp, #40]
 3611              	.LVL455:
 330:App/Src/calculate.c **** 					} else {
 3612              		.loc 1 330 12 view .LVU841
 3613 0f96 6CE7     		b	.L146
 3614              	.L186:
 329:App/Src/calculate.c **** 						minB = cac.B;
 3615              		.loc 1 329 58 discriminator 4 view .LVU842
 3616 0f98 B5EEC08A 		vcmpe.f32	s16, #0
 3617 0f9c F1EE10FA 		vmrs	APSR_nzcv, FPSCR
 3618 0fa0 3FF665AF 		bhi	.L143
 3619 0fa4 F5E7     		b	.L142
 3620              	.L196:
 3621 0fa6 00BF     		.align	3
 3622              	.L195:
 3623 0fa8 9A999999 		.word	-1717986918
 3624 0fac 9999B93F 		.word	1069128089
 3625 0fb0 9A999999 		.word	-1717986918
 3626 0fb4 9999C93F 		.word	1070176665
 3627 0fb8 00000000 		.word	.LANCHOR2
 3628 0fbc 00000000 		.word	.LANCHOR1
 3629 0fc0 0000F03F 		.word	1072693248
 3630 0fc4 00807744 		.word	1148682240
 3631 0fc8 00000000 		.word	.LC11
 3632 0fcc F0000000 		.word	.LC20
 3633              	.L139:
 336:App/Src/calculate.c **** 				cac.mode = 1;
 3634              		.loc 1 336 4 is_stmt 1 view .LVU843
 336:App/Src/calculate.c **** 				cac.mode = 1;
 3635              		.loc 1 336 8 is_stmt 0 view .LVU844
 3636 0fd0 F0EEC87A 		vabs.f32	s15, s16
 336:App/Src/calculate.c **** 				cac.mode = 1;
 3637              		.loc 1 336 7 view .LVU845
 3638 0fd4 B7EE007A 		vmov.f32	s14, #1.0e+0
 3639 0fd8 F4EEC77A 		vcmpe.f32	s15, s14
 3640 0fdc F1EE10FA 		vmrs	APSR_nzcv, FPSCR
 3641 0fe0 10D8     		bhi	.L177
 337:App/Src/calculate.c **** 				copy_parameter(&g_right, &cac);
 3642              		.loc 1 337 5 is_stmt 1 view .LVU846
 337:App/Src/calculate.c **** 				copy_parameter(&g_right, &cac);
 3643              		.loc 1 337 14 is_stmt 0 view .LVU847
 3644 0fe2 0123     		movs	r3, #1
 3645 0fe4 8DF83430 		strb	r3, [sp, #52]
 338:App/Src/calculate.c **** 				UsbPrintf("min error:%.2f\n", error);
 3646              		.loc 1 338 5 is_stmt 1 view .LVU848
ARM GAS  C:\Users\86158\AppData\Local\Temp\ccP8sDIW.s 			page 81


 3647 0fe8 09A9     		add	r1, sp, #36
 3648 0fea 0C48     		ldr	r0, .L197
 3649 0fec FFF7FEFF 		bl	copy_parameter
 3650              	.LVL456:
 339:App/Src/calculate.c **** 			} else {
 3651              		.loc 1 339 5 view .LVU849
 3652 0ff0 18EE100A 		vmov	r0, s16
 3653 0ff4 FFF7FEFF 		bl	__aeabi_f2d
 3654              	.LVL457:
 3655 0ff8 0246     		mov	r2, r0
 3656 0ffa 0B46     		mov	r3, r1
 3657 0ffc 0848     		ldr	r0, .L197+4
 3658 0ffe FFF7FEFF 		bl	UsbPrintf
 3659              	.LVL458:
 336:App/Src/calculate.c **** 				cac.mode = 1;
 3660              		.loc 1 336 7 is_stmt 0 view .LVU850
 3661 1002 CDE5     		b	.L130
 3662              	.L177:
 341:App/Src/calculate.c **** 				return 0;
 3663              		.loc 1 341 5 is_stmt 1 view .LVU851
 3664 1004 0748     		ldr	r0, .L197+8
 3665 1006 FFF7FEFF 		bl	UsbPrintf
 3666              	.LVL459:
 342:App/Src/calculate.c **** 			}
 3667              		.loc 1 342 5 view .LVU852
 342:App/Src/calculate.c **** 			}
 3668              		.loc 1 342 12 is_stmt 0 view .LVU853
 3669 100a 0020     		movs	r0, #0
 3670 100c FFF7FFBA 		b	.L91
 3671              	.LVL460:
 3672              	.L176:
 345:App/Src/calculate.c **** 			return 0;
 3673              		.loc 1 345 4 is_stmt 1 view .LVU854
 3674 1010 0548     		ldr	r0, .L197+12
 3675 1012 FFF7FEFF 		bl	UsbPrintf
 3676              	.LVL461:
 346:App/Src/calculate.c **** 		}
 3677              		.loc 1 346 4 view .LVU855
 346:App/Src/calculate.c **** 		}
 3678              		.loc 1 346 11 is_stmt 0 view .LVU856
 3679 1016 0020     		movs	r0, #0
 3680 1018 FFF7F9BA 		b	.L91
 3681              	.L198:
 3682              		.align	2
 3683              	.L197:
 3684 101c 00000000 		.word	.LANCHOR4
 3685 1020 2C000000 		.word	.LC13
 3686 1024 08010000 		.word	.LC21
 3687 1028 2C010000 		.word	.LC22
 3688              		.cfi_endproc
 3689              	.LFE241:
 3691              		.section	.text.compensate_sd8825_left,"ax",%progbits
 3692              		.align	1
 3693              		.global	compensate_sd8825_left
 3694              		.syntax unified
 3695              		.thumb
 3696              		.thumb_func
ARM GAS  C:\Users\86158\AppData\Local\Temp\ccP8sDIW.s 			page 82


 3698              	compensate_sd8825_left:
 3699              	.LVL462:
 3700              	.LFB242:
 355:App/Src/calculate.c **** 
 356:App/Src/calculate.c **** 
 357:App/Src/calculate.c **** // float compensate_sd8825_left(float nowTemp)//基于20240510测试的数据，计算的一段补偿值，使得5度不
 358:App/Src/calculate.c **** // {
 359:App/Src/calculate.c **** // 	float result, center;
 360:App/Src/calculate.c **** // 	center = (g_input[TEST_RTC_TEMP_Z29] + g_input[TEST_RTC_TEMP_F10]) * 0.5;
 361:App/Src/calculate.c **** // 	result = -3 + 0.003 * (nowTemp - center) * (nowTemp - center);
 362:App/Src/calculate.c **** // 	if (result < 0) {
 363:App/Src/calculate.c **** // 		return result;
 364:App/Src/calculate.c **** // 	} else {
 365:App/Src/calculate.c **** // 		return 0;
 366:App/Src/calculate.c **** // 	}
 367:App/Src/calculate.c **** // }
 368:App/Src/calculate.c **** // float compensate_sd8825_right(float nowTemp)//基于20240510测试的数据，计算的一段补偿值，使得45度
 369:App/Src/calculate.c **** // {
 370:App/Src/calculate.c **** // 	float result, center;
 371:App/Src/calculate.c **** // 	center = (g_input[TEST_RTC_TEMP_Z29] + g_input[TEST_RTC_TEMP_Z60]) * 0.5;
 372:App/Src/calculate.c **** // 	result = 3 - 0.003 * (nowTemp - center) * (nowTemp - center);
 373:App/Src/calculate.c **** // 	if (result > 0) {
 374:App/Src/calculate.c **** // 		return result;
 375:App/Src/calculate.c **** // 	} else {
 376:App/Src/calculate.c **** // 		return 0;
 377:App/Src/calculate.c **** // 	}
 378:App/Src/calculate.c **** // }
 379:App/Src/calculate.c **** 
 380:App/Src/calculate.c **** float compensate_sd8825_left(float nowTemp)//基于20240816测试的数据，计算的一段补偿值，使得5度不要
 381:App/Src/calculate.c **** {
 3701              		.loc 1 381 1 is_stmt 1 view -0
 3702              		.cfi_startproc
 3703              		@ args = 0, pretend = 0, frame = 0
 3704              		@ frame_needed = 0, uses_anonymous_args = 0
 3705              		.loc 1 381 1 is_stmt 0 view .LVU858
 3706 0000 38B5     		push	{r3, r4, r5, lr}
 3707              	.LCFI32:
 3708              		.cfi_def_cfa_offset 16
 3709              		.cfi_offset 3, -16
 3710              		.cfi_offset 4, -12
 3711              		.cfi_offset 5, -8
 3712              		.cfi_offset 14, -4
 382:App/Src/calculate.c **** 	float result, center;
 3713              		.loc 1 382 2 is_stmt 1 view .LVU859
 383:App/Src/calculate.c **** 	center = g_input[TEST_RTC_TEMP_Z29] - 40;
 3714              		.loc 1 383 2 view .LVU860
 3715              		.loc 1 383 18 is_stmt 0 view .LVU861
 3716 0002 174B     		ldr	r3, .L204+8
 3717 0004 D3ED027A 		vldr.32	s15, [r3, #8]
 3718              		.loc 1 383 9 view .LVU862
 3719 0008 9FED167A 		vldr.32	s14, .L204+12
 3720 000c 77EEC77A 		vsub.f32	s15, s15, s14
 3721              	.LVL463:
 384:App/Src/calculate.c **** 	result = -5 + 0.003 * (nowTemp - center) * (nowTemp - center);
 3722              		.loc 1 384 2 is_stmt 1 view .LVU863
 3723              		.loc 1 384 33 is_stmt 0 view .LVU864
 3724 0010 70EE677A 		vsub.f32	s15, s0, s15
ARM GAS  C:\Users\86158\AppData\Local\Temp\ccP8sDIW.s 			page 83


 3725              	.LVL464:
 3726              		.loc 1 384 33 view .LVU865
 3727 0014 17EE900A 		vmov	r0, s15
 3728 0018 FFF7FEFF 		bl	__aeabi_f2d
 3729              	.LVL465:
 3730              		.loc 1 384 33 view .LVU866
 3731 001c 0446     		mov	r4, r0
 3732 001e 0D46     		mov	r5, r1
 3733              		.loc 1 384 22 view .LVU867
 3734 0020 0DA3     		adr	r3, .L204
 3735 0022 D3E90023 		ldrd	r2, [r3]
 3736 0026 FFF7FEFF 		bl	__aeabi_dmul
 3737              	.LVL466:
 3738 002a 0246     		mov	r2, r0
 3739 002c 0B46     		mov	r3, r1
 3740              		.loc 1 384 43 view .LVU868
 3741 002e 2046     		mov	r0, r4
 3742 0030 2946     		mov	r1, r5
 3743 0032 FFF7FEFF 		bl	__aeabi_dmul
 3744              	.LVL467:
 3745              		.loc 1 384 14 view .LVU869
 3746 0036 0022     		movs	r2, #0
 3747 0038 0B4B     		ldr	r3, .L204+16
 3748 003a FFF7FEFF 		bl	__aeabi_dsub
 3749              	.LVL468:
 3750              		.loc 1 384 9 view .LVU870
 3751 003e FFF7FEFF 		bl	__aeabi_d2f
 3752              	.LVL469:
 3753 0042 00EE100A 		vmov	s0, r0
 3754              	.LVL470:
 385:App/Src/calculate.c **** 	if (result < 0) {
 3755              		.loc 1 385 2 is_stmt 1 view .LVU871
 3756              		.loc 1 385 5 is_stmt 0 view .LVU872
 3757 0046 B5EEC00A 		vcmpe.f32	s0, #0
 3758 004a F1EE10FA 		vmrs	APSR_nzcv, FPSCR
 3759 004e 01D4     		bmi	.L199
 386:App/Src/calculate.c **** 		return result;
 387:App/Src/calculate.c **** 	} else {
 388:App/Src/calculate.c **** 		return 0;
 3760              		.loc 1 388 10 view .LVU873
 3761 0050 9FED060A 		vldr.32	s0, .L204+20
 3762              	.L199:
 389:App/Src/calculate.c **** 	}
 390:App/Src/calculate.c **** }
 3763              		.loc 1 390 1 view .LVU874
 3764 0054 38BD     		pop	{r3, r4, r5, pc}
 3765              	.L205:
 3766 0056 00BF     		.align	3
 3767              	.L204:
 3768 0058 FA7E6ABC 		.word	-1133871366
 3769 005c 7493683F 		.word	1063818100
 3770 0060 00000000 		.word	.LANCHOR1
 3771 0064 00002042 		.word	1109393408
 3772 0068 00001440 		.word	1075052544
 3773 006c 00000000 		.word	0
 3774              		.cfi_endproc
 3775              	.LFE242:
ARM GAS  C:\Users\86158\AppData\Local\Temp\ccP8sDIW.s 			page 84


 3777              		.section	.text.compensate_sd8825_right,"ax",%progbits
 3778              		.align	1
 3779              		.global	compensate_sd8825_right
 3780              		.syntax unified
 3781              		.thumb
 3782              		.thumb_func
 3784              	compensate_sd8825_right:
 3785              	.LVL471:
 3786              	.LFB243:
 391:App/Src/calculate.c **** 
 392:App/Src/calculate.c **** float compensate_sd8825_right(float nowTemp)//基于20240816测试的数据，计算的一段补偿值，使得45度不
 393:App/Src/calculate.c **** {
 3787              		.loc 1 393 1 is_stmt 1 view -0
 3788              		.cfi_startproc
 3789              		@ args = 0, pretend = 0, frame = 0
 3790              		@ frame_needed = 0, uses_anonymous_args = 0
 3791              		.loc 1 393 1 is_stmt 0 view .LVU876
 3792 0000 38B5     		push	{r3, r4, r5, lr}
 3793              	.LCFI33:
 3794              		.cfi_def_cfa_offset 16
 3795              		.cfi_offset 3, -16
 3796              		.cfi_offset 4, -12
 3797              		.cfi_offset 5, -8
 3798              		.cfi_offset 14, -4
 394:App/Src/calculate.c **** 	float result, center;
 3799              		.loc 1 394 2 is_stmt 1 view .LVU877
 395:App/Src/calculate.c **** 	center = g_input[TEST_RTC_TEMP_Z29] + 40;
 3800              		.loc 1 395 2 view .LVU878
 3801              		.loc 1 395 18 is_stmt 0 view .LVU879
 3802 0002 194B     		ldr	r3, .L212+8
 3803 0004 D3ED027A 		vldr.32	s15, [r3, #8]
 3804              		.loc 1 395 9 view .LVU880
 3805 0008 9FED187A 		vldr.32	s14, .L212+12
 3806 000c 77EE877A 		vadd.f32	s15, s15, s14
 3807              	.LVL472:
 396:App/Src/calculate.c **** 	result = 5 - 0.003 * (nowTemp - center) * (nowTemp - center);
 3808              		.loc 1 396 2 is_stmt 1 view .LVU881
 3809              		.loc 1 396 32 is_stmt 0 view .LVU882
 3810 0010 70EE677A 		vsub.f32	s15, s0, s15
 3811              	.LVL473:
 3812              		.loc 1 396 32 view .LVU883
 3813 0014 17EE900A 		vmov	r0, s15
 3814 0018 FFF7FEFF 		bl	__aeabi_f2d
 3815              	.LVL474:
 3816              		.loc 1 396 32 view .LVU884
 3817 001c 0446     		mov	r4, r0
 3818 001e 0D46     		mov	r5, r1
 3819              		.loc 1 396 21 view .LVU885
 3820 0020 0FA3     		adr	r3, .L212
 3821 0022 D3E90023 		ldrd	r2, [r3]
 3822 0026 FFF7FEFF 		bl	__aeabi_dmul
 3823              	.LVL475:
 3824 002a 0246     		mov	r2, r0
 3825 002c 0B46     		mov	r3, r1
 3826              		.loc 1 396 42 view .LVU886
 3827 002e 2046     		mov	r0, r4
 3828 0030 2946     		mov	r1, r5
ARM GAS  C:\Users\86158\AppData\Local\Temp\ccP8sDIW.s 			page 85


 3829 0032 FFF7FEFF 		bl	__aeabi_dmul
 3830              	.LVL476:
 3831 0036 0246     		mov	r2, r0
 3832 0038 0B46     		mov	r3, r1
 3833              		.loc 1 396 13 view .LVU887
 3834 003a 0020     		movs	r0, #0
 3835 003c 0C49     		ldr	r1, .L212+16
 3836 003e FFF7FEFF 		bl	__aeabi_dsub
 3837              	.LVL477:
 3838              		.loc 1 396 9 view .LVU888
 3839 0042 FFF7FEFF 		bl	__aeabi_d2f
 3840              	.LVL478:
 3841 0046 00EE100A 		vmov	s0, r0
 3842              	.LVL479:
 397:App/Src/calculate.c **** 	if (result > 0) {
 3843              		.loc 1 397 2 is_stmt 1 view .LVU889
 3844              		.loc 1 397 5 is_stmt 0 view .LVU890
 3845 004a B5EEC00A 		vcmpe.f32	s0, #0
 3846 004e F1EE10FA 		vmrs	APSR_nzcv, FPSCR
 3847 0052 00DD     		ble	.L211
 3848              	.L206:
 398:App/Src/calculate.c **** 		return result;
 399:App/Src/calculate.c **** 	} else {
 400:App/Src/calculate.c **** 		return 0;
 401:App/Src/calculate.c **** 	}
 402:App/Src/calculate.c **** }
 3849              		.loc 1 402 1 view .LVU891
 3850 0054 38BD     		pop	{r3, r4, r5, pc}
 3851              	.L211:
 400:App/Src/calculate.c **** 	}
 3852              		.loc 1 400 10 view .LVU892
 3853 0056 9FED070A 		vldr.32	s0, .L212+20
 3854 005a FBE7     		b	.L206
 3855              	.L213:
 3856 005c AFF30080 		.align	3
 3857              	.L212:
 3858 0060 FA7E6ABC 		.word	-1133871366
 3859 0064 7493683F 		.word	1063818100
 3860 0068 00000000 		.word	.LANCHOR1
 3861 006c 00002042 		.word	1109393408
 3862 0070 00001440 		.word	1075052544
 3863 0074 00000000 		.word	0
 3864              		.cfi_endproc
 3865              	.LFE243:
 3867              		.section	.rodata.calculate_wave1006_temp_cap.str1.4,"aMS",%progbits,1
 3868              		.align	2
 3869              	.LC24:
 3870 0000 73746172 		.ascii	"start calculte rtc %d cap\012\000"
 3870      74206361 
 3870      6C63756C 
 3870      74652072 
 3870      74632025 
 3871 001b 00       		.align	2
 3872              	.LC25:
 3873 001c 6F666673 		.ascii	"offset:%d\012\000"
 3873      65743A25 
 3873      640A00
ARM GAS  C:\Users\86158\AppData\Local\Temp\ccP8sDIW.s 			page 86


 3874 0027 00       		.align	2
 3875              	.LC26:
 3876 0028 6F666673 		.ascii	"offset error! download end!\012\000"
 3876      65742065 
 3876      72726F72 
 3876      2120646F 
 3876      776E6C6F 
 3877 0045 000000   		.align	2
 3878              	.LC27:
 3879 0048 0A63616C 		.ascii	"\012calculte rtc %d cap ok\012\000"
 3879      63756C74 
 3879      65207274 
 3879      63202564 
 3879      20636170 
 3880 0061 000000   		.align	2
 3881              	.LC28:
 3882 0064 63616C63 		.ascii	"calculte rtc %d cap ok\012\000"
 3882      756C7465 
 3882      20727463 
 3882      20256420 
 3882      63617020 
 3883              		.section	.text.calculate_wave1006_temp_cap,"ax",%progbits
 3884              		.align	1
 3885              		.global	calculate_wave1006_temp_cap
 3886              		.syntax unified
 3887              		.thumb
 3888              		.thumb_func
 3890              	calculate_wave1006_temp_cap:
 3891              	.LVL480:
 3892              	.LFB244:
 403:App/Src/calculate.c **** uint8_t calculate_wave1006_temp_cap(uint8_t rtcNum, float* cap_value, int* digtal, uint16_t* offset
 404:App/Src/calculate.c **** {
 3893              		.loc 1 404 1 is_stmt 1 view -0
 3894              		.cfi_startproc
 3895              		@ args = 0, pretend = 0, frame = 0
 3896              		@ frame_needed = 0, uses_anonymous_args = 0
 3897              		.loc 1 404 1 is_stmt 0 view .LVU894
 3898 0000 2DE9F04F 		push	{r4, r5, r6, r7, r8, r9, r10, fp, lr}
 3899              	.LCFI34:
 3900              		.cfi_def_cfa_offset 36
 3901              		.cfi_offset 4, -36
 3902              		.cfi_offset 5, -32
 3903              		.cfi_offset 6, -28
 3904              		.cfi_offset 7, -24
 3905              		.cfi_offset 8, -20
 3906              		.cfi_offset 9, -16
 3907              		.cfi_offset 10, -12
 3908              		.cfi_offset 11, -8
 3909              		.cfi_offset 14, -4
 3910 0004 2DED048B 		vpush.64	{d8, d9}
 3911              	.LCFI35:
 3912              		.cfi_def_cfa_offset 52
 3913              		.cfi_offset 80, -52
 3914              		.cfi_offset 81, -48
 3915              		.cfi_offset 82, -44
 3916              		.cfi_offset 83, -40
 3917 0008 83B0     		sub	sp, sp, #12
ARM GAS  C:\Users\86158\AppData\Local\Temp\ccP8sDIW.s 			page 87


 3918              	.LCFI36:
 3919              		.cfi_def_cfa_offset 64
 3920 000a 8146     		mov	r9, r0
 3921 000c 0D46     		mov	r5, r1
 3922 000e 9246     		mov	r10, r2
 3923 0010 1E46     		mov	r6, r3
 405:App/Src/calculate.c ****     int i;
 3924              		.loc 1 405 5 is_stmt 1 view .LVU895
 406:App/Src/calculate.c **** 	uint16_t adcStart = 0;
 3925              		.loc 1 406 2 view .LVU896
 3926              	.LVL481:
 407:App/Src/calculate.c **** 	float quick, paraK;
 3927              		.loc 1 407 2 view .LVU897
 408:App/Src/calculate.c **** 
 409:App/Src/calculate.c ****     log_printf("start calculte rtc %d cap\n", rtcNum);
 3928              		.loc 1 409 5 view .LVU898
 3929 0012 854C     		ldr	r4, .L237+8
 3930 0014 0146     		mov	r1, r0
 3931              	.LVL482:
 3932              		.loc 1 409 5 is_stmt 0 view .LVU899
 3933 0016 2046     		mov	r0, r4
 3934              	.LVL483:
 3935              		.loc 1 409 5 view .LVU900
 3936 0018 FFF7FEFF 		bl	log_printf
 3937              	.LVL484:
 410:App/Src/calculate.c ****     UsbPrintf("start calculte rtc %d cap\n", rtcNum);
 3938              		.loc 1 410 5 is_stmt 1 view .LVU901
 3939 001c 4946     		mov	r1, r9
 3940 001e 2046     		mov	r0, r4
 3941 0020 FFF7FEFF 		bl	UsbPrintf
 3942              	.LVL485:
 411:App/Src/calculate.c **** 	// flash_test_data_read(&g_testData, rtcNum, CALCUL_FLAG);
 412:App/Src/calculate.c **** 	// if (g_testData.calculFlag == '1') { 
 413:App/Src/calculate.c **** 	// 	log_printf("history success\n");
 414:App/Src/calculate.c **** 	// 	UsbPrintf("history success\n");
 415:App/Src/calculate.c **** 	// 	return 2; 
 416:App/Src/calculate.c **** 	// }
 417:App/Src/calculate.c ****     if (calcul_read_data(rtcNum) == 0) { return 0; }
 3943              		.loc 1 417 5 view .LVU902
 3944              		.loc 1 417 9 is_stmt 0 view .LVU903
 3945 0024 4846     		mov	r0, r9
 3946 0026 FFF7FEFF 		bl	calcul_read_data
 3947              	.LVL486:
 3948              		.loc 1 417 8 view .LVU904
 3949 002a 20B9     		cbnz	r0, .L232
 3950              	.LVL487:
 3951              	.L215:
 418:App/Src/calculate.c **** 
 419:App/Src/calculate.c **** 	// if (find_crystal_center(rtcNum) == 0) { return 0;}
 420:App/Src/calculate.c ****     // if (init_para_5dot() == 0) { return 0; }
 421:App/Src/calculate.c **** 	if (find_crystal_center_bad(rtcNum) == 0) { return 0;}
 422:App/Src/calculate.c ****     if (init_para_3dot() == 0) { return 0; }
 423:App/Src/calculate.c **** 	paraK = (g_result[TEST_RTC_TEMP_Z85] - g_result[TEST_RTC_TEMP_Z29]) / ((g_input[TEST_RTC_TEMP_Z85]
 424:App/Src/calculate.c **** 	flash_test_data_read(&g_testData, rtcNum, TEMP_CONFIG);//读出offset数值
 425:App/Src/calculate.c **** 	*offset = g_testData.tempConfig;
 426:App/Src/calculate.c **** 	log_printf("offset:%d\n", *offset);
 427:App/Src/calculate.c **** 	UsbPrintf("offset:%d\n", *offset);
ARM GAS  C:\Users\86158\AppData\Local\Temp\ccP8sDIW.s 			page 88


 428:App/Src/calculate.c **** 	if (*offset < 50 || *offset > 140) {
 429:App/Src/calculate.c **** 		UsbPrintf("offset error! download end!\n");
 430:App/Src/calculate.c **** 		log_printf("offset error! download end!\n");
 431:App/Src/calculate.c **** 		return 0;
 432:App/Src/calculate.c **** 	}
 433:App/Src/calculate.c **** 	adcStart = (g_testData.tempConfig + 0x30) / 2;//1006芯片otp数据开始位是-60度的ADC,address = 0x30
 434:App/Src/calculate.c ****     for (i = 0; i < 420; i++) {
 435:App/Src/calculate.c **** 		// if (i % 20 == 0) { UsbPrintf("\n[%d]\t", -60 + i / 2); }
 436:App/Src/calculate.c ****         if (adcStart + i < g_input[TEST_RTC_TEMP_Z29]) {
 437:App/Src/calculate.c ****             cap_value[i] = chip_temp_function(adcStart + i, g_left) + compensate_sd8825_left(adcSta
 438:App/Src/calculate.c ****         } else if (adcStart + i <= g_input[TEST_RTC_TEMP_Z85]) {
 439:App/Src/calculate.c ****             cap_value[i] = chip_temp_function(adcStart + i, g_right) + compensate_sd8825_right(adcS
 440:App/Src/calculate.c ****         } else {//超出85℃测试点
 441:App/Src/calculate.c **** 			quick = paraK * (adcStart + i - g_input[TEST_RTC_TEMP_Z29]) * (adcStart + i - g_input[TEST_RTC_T
 442:App/Src/calculate.c **** 			quick = (g_result[TEST_RTC_TEMP_Z29] - quick) * 0.4;
 443:App/Src/calculate.c **** 			digtal[i] = digtal_adj_convert(g_result[TEST_RTC_TEMP_Z29], quick);
 444:App/Src/calculate.c **** 			cap_value[i] = cap_list_number_convert(g_result[TEST_RTC_TEMP_Z29], quick);
 445:App/Src/calculate.c **** 		}
 446:App/Src/calculate.c **** 		if (cap_value[i] < 1) { cap_value[i] = 1;}
 447:App/Src/calculate.c **** 		// UsbPrintf("%d: %d, %.2f\n", adcStart + i, digtal[i], cap_value[i]);
 448:App/Src/calculate.c **** 		// UsbPrintf("%d, %.2f\t", digtal[i], cap_value[i]);
 449:App/Src/calculate.c **** 		// log_printf("%d, %.2f\t", digtal[i], cap_value[i]);
 450:App/Src/calculate.c ****     }
 451:App/Src/calculate.c **** 	UsbPrintf("\ncalculte rtc %d cap ok\n", rtcNum);
 452:App/Src/calculate.c **** 	log_printf("calculte rtc %d cap ok\n", rtcNum);
 453:App/Src/calculate.c **** 	// g_testData.calculFlag = '1';
 454:App/Src/calculate.c **** 	// flash_test_data_write_add(&g_testData, rtcNum, CALCUL_FLAG);
 455:App/Src/calculate.c **** 	// flash_test_data_write_add(&g_testData, rtcNum, CAP_CALCULATE);
 456:App/Src/calculate.c **** 
 457:App/Src/calculate.c ****     return 1;
 458:App/Src/calculate.c **** }
 3952              		.loc 1 458 1 view .LVU905
 3953 002c 03B0     		add	sp, sp, #12
 3954              	.LCFI37:
 3955              		.cfi_remember_state
 3956              		.cfi_def_cfa_offset 52
 3957              		@ sp needed
 3958 002e BDEC048B 		vldm	sp!, {d8-d9}
 3959              	.LCFI38:
 3960              		.cfi_restore 82
 3961              		.cfi_restore 83
 3962              		.cfi_restore 80
 3963              		.cfi_restore 81
 3964              		.cfi_def_cfa_offset 36
 3965 0032 BDE8F08F 		pop	{r4, r5, r6, r7, r8, r9, r10, fp, pc}
 3966              	.LVL488:
 3967              	.L232:
 3968              	.LCFI39:
 3969              		.cfi_restore_state
 421:App/Src/calculate.c ****     if (init_para_3dot() == 0) { return 0; }
 3970              		.loc 1 421 2 is_stmt 1 view .LVU906
 421:App/Src/calculate.c ****     if (init_para_3dot() == 0) { return 0; }
 3971              		.loc 1 421 6 is_stmt 0 view .LVU907
 3972 0036 4846     		mov	r0, r9
 3973 0038 FFF7FEFF 		bl	find_crystal_center_bad
 3974              	.LVL489:
 421:App/Src/calculate.c ****     if (init_para_3dot() == 0) { return 0; }
ARM GAS  C:\Users\86158\AppData\Local\Temp\ccP8sDIW.s 			page 89


 3975              		.loc 1 421 5 view .LVU908
 3976 003c 0028     		cmp	r0, #0
 3977 003e F5D0     		beq	.L215
 422:App/Src/calculate.c **** 	paraK = (g_result[TEST_RTC_TEMP_Z85] - g_result[TEST_RTC_TEMP_Z29]) / ((g_input[TEST_RTC_TEMP_Z85]
 3978              		.loc 1 422 5 is_stmt 1 view .LVU909
 422:App/Src/calculate.c **** 	paraK = (g_result[TEST_RTC_TEMP_Z85] - g_result[TEST_RTC_TEMP_Z29]) / ((g_input[TEST_RTC_TEMP_Z85]
 3979              		.loc 1 422 9 is_stmt 0 view .LVU910
 3980 0040 FFF7FEFF 		bl	init_para_3dot
 3981              	.LVL490:
 422:App/Src/calculate.c **** 	paraK = (g_result[TEST_RTC_TEMP_Z85] - g_result[TEST_RTC_TEMP_Z29]) / ((g_input[TEST_RTC_TEMP_Z85]
 3982              		.loc 1 422 8 view .LVU911
 3983 0044 0028     		cmp	r0, #0
 3984 0046 F1D0     		beq	.L215
 423:App/Src/calculate.c **** 	flash_test_data_read(&g_testData, rtcNum, TEMP_CONFIG);//读出offset数值
 3985              		.loc 1 423 2 is_stmt 1 view .LVU912
 423:App/Src/calculate.c **** 	flash_test_data_read(&g_testData, rtcNum, TEMP_CONFIG);//读出offset数值
 3986              		.loc 1 423 19 is_stmt 0 view .LVU913
 3987 0048 784B     		ldr	r3, .L237+12
 3988 004a 93ED047A 		vldr.32	s14, [r3, #16]
 423:App/Src/calculate.c **** 	flash_test_data_read(&g_testData, rtcNum, TEMP_CONFIG);//读出offset数值
 3989              		.loc 1 423 49 view .LVU914
 3990 004e D3ED027A 		vldr.32	s15, [r3, #8]
 423:App/Src/calculate.c **** 	flash_test_data_read(&g_testData, rtcNum, TEMP_CONFIG);//读出offset数值
 3991              		.loc 1 423 39 view .LVU915
 3992 0052 37EE677A 		vsub.f32	s14, s14, s15
 423:App/Src/calculate.c **** 	flash_test_data_read(&g_testData, rtcNum, TEMP_CONFIG);//读出offset数值
 3993              		.loc 1 423 81 view .LVU916
 3994 0056 764B     		ldr	r3, .L237+16
 3995 0058 D3ED047A 		vldr.32	s15, [r3, #16]
 423:App/Src/calculate.c **** 	flash_test_data_read(&g_testData, rtcNum, TEMP_CONFIG);//读出offset数值
 3996              		.loc 1 423 109 view .LVU917
 3997 005c D3ED026A 		vldr.32	s13, [r3, #8]
 423:App/Src/calculate.c **** 	flash_test_data_read(&g_testData, rtcNum, TEMP_CONFIG);//读出offset数值
 3998              		.loc 1 423 101 view .LVU918
 3999 0060 77EEE67A 		vsub.f32	s15, s15, s13
 423:App/Src/calculate.c **** 	flash_test_data_read(&g_testData, rtcNum, TEMP_CONFIG);//读出offset数值
 4000              		.loc 1 423 130 view .LVU919
 4001 0064 67EEA77A 		vmul.f32	s15, s15, s15
 423:App/Src/calculate.c **** 	flash_test_data_read(&g_testData, rtcNum, TEMP_CONFIG);//读出offset数值
 4002              		.loc 1 423 8 view .LVU920
 4003 0068 87EE279A 		vdiv.f32	s18, s14, s15
 4004              	.LVL491:
 424:App/Src/calculate.c **** 	*offset = g_testData.tempConfig;
 4005              		.loc 1 424 2 is_stmt 1 view .LVU921
 4006 006c 714C     		ldr	r4, .L237+20
 4007 006e 3122     		movs	r2, #49
 4008 0070 4946     		mov	r1, r9
 4009 0072 2046     		mov	r0, r4
 4010 0074 FFF7FEFF 		bl	flash_test_data_read
 4011              	.LVL492:
 425:App/Src/calculate.c **** 	log_printf("offset:%d\n", *offset);
 4012              		.loc 1 425 2 view .LVU922
 425:App/Src/calculate.c **** 	log_printf("offset:%d\n", *offset);
 4013              		.loc 1 425 22 is_stmt 0 view .LVU923
 4014 0078 94F83110 		ldrb	r1, [r4, #49]	@ zero_extendqisi2
 425:App/Src/calculate.c **** 	log_printf("offset:%d\n", *offset);
 4015              		.loc 1 425 10 view .LVU924
ARM GAS  C:\Users\86158\AppData\Local\Temp\ccP8sDIW.s 			page 90


 4016 007c 3180     		strh	r1, [r6]	@ movhi
 426:App/Src/calculate.c **** 	UsbPrintf("offset:%d\n", *offset);
 4017              		.loc 1 426 2 is_stmt 1 view .LVU925
 4018 007e 6E4C     		ldr	r4, .L237+24
 4019 0080 2046     		mov	r0, r4
 4020 0082 FFF7FEFF 		bl	log_printf
 4021              	.LVL493:
 427:App/Src/calculate.c **** 	if (*offset < 50 || *offset > 140) {
 4022              		.loc 1 427 2 view .LVU926
 4023 0086 3188     		ldrh	r1, [r6]
 4024 0088 2046     		mov	r0, r4
 4025 008a FFF7FEFF 		bl	UsbPrintf
 4026              	.LVL494:
 428:App/Src/calculate.c **** 		UsbPrintf("offset error! download end!\n");
 4027              		.loc 1 428 2 view .LVU927
 428:App/Src/calculate.c **** 		UsbPrintf("offset error! download end!\n");
 4028              		.loc 1 428 6 is_stmt 0 view .LVU928
 4029 008e 3388     		ldrh	r3, [r6]
 428:App/Src/calculate.c **** 		UsbPrintf("offset error! download end!\n");
 4030              		.loc 1 428 19 view .LVU929
 4031 0090 323B     		subs	r3, r3, #50
 4032 0092 9BB2     		uxth	r3, r3
 428:App/Src/calculate.c **** 		UsbPrintf("offset error! download end!\n");
 4033              		.loc 1 428 5 view .LVU930
 4034 0094 5A2B     		cmp	r3, #90
 4035 0096 08D8     		bhi	.L233
 433:App/Src/calculate.c ****     for (i = 0; i < 420; i++) {
 4036              		.loc 1 433 2 is_stmt 1 view .LVU931
 433:App/Src/calculate.c ****     for (i = 0; i < 420; i++) {
 4037              		.loc 1 433 24 is_stmt 0 view .LVU932
 4038 0098 664B     		ldr	r3, .L237+20
 4039 009a 93F83180 		ldrb	r8, [r3, #49]	@ zero_extendqisi2
 433:App/Src/calculate.c ****     for (i = 0; i < 420; i++) {
 4040              		.loc 1 433 44 view .LVU933
 4041 009e 08F13008 		add	r8, r8, #48
 4042 00a2 4FEA6808 		asr	r8, r8, #1
 4043              	.LVL495:
 434:App/Src/calculate.c **** 		// if (i % 20 == 0) { UsbPrintf("\n[%d]\t", -60 + i / 2); }
 4044              		.loc 1 434 5 is_stmt 1 view .LVU934
 434:App/Src/calculate.c **** 		// if (i % 20 == 0) { UsbPrintf("\n[%d]\t", -60 + i / 2); }
 4045              		.loc 1 434 12 is_stmt 0 view .LVU935
 4046 00a6 0024     		movs	r4, #0
 434:App/Src/calculate.c **** 		// if (i % 20 == 0) { UsbPrintf("\n[%d]\t", -60 + i / 2); }
 4047              		.loc 1 434 5 view .LVU936
 4048 00a8 7CE0     		b	.L217
 4049              	.LVL496:
 4050              	.L233:
 429:App/Src/calculate.c **** 		log_printf("offset error! download end!\n");
 4051              		.loc 1 429 3 is_stmt 1 view .LVU937
 4052 00aa 644C     		ldr	r4, .L237+28
 4053 00ac 2046     		mov	r0, r4
 4054 00ae FFF7FEFF 		bl	UsbPrintf
 4055              	.LVL497:
 430:App/Src/calculate.c **** 		return 0;
 4056              		.loc 1 430 3 view .LVU938
 4057 00b2 2046     		mov	r0, r4
 4058 00b4 FFF7FEFF 		bl	log_printf
ARM GAS  C:\Users\86158\AppData\Local\Temp\ccP8sDIW.s 			page 91


 4059              	.LVL498:
 431:App/Src/calculate.c **** 	}
 4060              		.loc 1 431 3 view .LVU939
 431:App/Src/calculate.c **** 	}
 4061              		.loc 1 431 10 is_stmt 0 view .LVU940
 4062 00b8 0020     		movs	r0, #0
 4063 00ba B7E7     		b	.L215
 4064              	.LVL499:
 4065              	.L236:
 437:App/Src/calculate.c ****         } else if (adcStart + i <= g_input[TEST_RTC_TEMP_Z85]) {
 4066              		.loc 1 437 13 is_stmt 1 view .LVU941
 437:App/Src/calculate.c ****         } else if (adcStart + i <= g_input[TEST_RTC_TEMP_Z85]) {
 4067              		.loc 1 437 28 is_stmt 0 view .LVU942
 4068 00bc 604B     		ldr	r3, .L237+32
 4069 00be 1A69     		ldr	r2, [r3, #16]
 4070 00c0 0092     		str	r2, [sp]
 4071 00c2 0FCB     		ldm	r3, {r0, r1, r2, r3}
 4072 00c4 B0EE480A 		vmov.f32	s0, s16
 4073 00c8 FFF7FEFF 		bl	chip_temp_function
 4074              	.LVL500:
 4075 00cc F0EE408A 		vmov.f32	s17, s0
 437:App/Src/calculate.c ****         } else if (adcStart + i <= g_input[TEST_RTC_TEMP_Z85]) {
 4076              		.loc 1 437 71 view .LVU943
 4077 00d0 B0EE480A 		vmov.f32	s0, s16
 4078 00d4 FFF7FEFF 		bl	compensate_sd8825_left
 4079              	.LVL501:
 437:App/Src/calculate.c ****         } else if (adcStart + i <= g_input[TEST_RTC_TEMP_Z85]) {
 4080              		.loc 1 437 22 view .LVU944
 4081 00d8 05EB8403 		add	r3, r5, r4, lsl #2
 437:App/Src/calculate.c ****         } else if (adcStart + i <= g_input[TEST_RTC_TEMP_Z85]) {
 4082              		.loc 1 437 69 view .LVU945
 4083 00dc 78EE808A 		vadd.f32	s17, s17, s0
 437:App/Src/calculate.c ****         } else if (adcStart + i <= g_input[TEST_RTC_TEMP_Z85]) {
 4084              		.loc 1 437 26 view .LVU946
 4085 00e0 C3ED008A 		vstr.32	s17, [r3]
 4086 00e4 52E0     		b	.L220
 4087              	.L230:
 441:App/Src/calculate.c **** 			quick = (g_result[TEST_RTC_TEMP_Z29] - quick) * 0.4;
 4088              		.loc 1 441 4 is_stmt 1 view .LVU947
 441:App/Src/calculate.c **** 			quick = (g_result[TEST_RTC_TEMP_Z29] - quick) * 0.4;
 4089              		.loc 1 441 34 is_stmt 0 view .LVU948
 4090 00e6 78EE677A 		vsub.f32	s15, s16, s15
 441:App/Src/calculate.c **** 			quick = (g_result[TEST_RTC_TEMP_Z29] - quick) * 0.4;
 4091              		.loc 1 441 18 view .LVU949
 4092 00ea 27EE897A 		vmul.f32	s14, s15, s18
 441:App/Src/calculate.c **** 			quick = (g_result[TEST_RTC_TEMP_Z29] - quick) * 0.4;
 4093              		.loc 1 441 64 view .LVU950
 4094 00ee 67EE877A 		vmul.f32	s15, s15, s14
 441:App/Src/calculate.c **** 			quick = (g_result[TEST_RTC_TEMP_Z29] - quick) * 0.4;
 4095              		.loc 1 441 120 view .LVU951
 4096 00f2 DFF838B1 		ldr	fp, .L237+12
 4097 00f6 DBED028A 		vldr.32	s17, [fp, #8]
 441:App/Src/calculate.c **** 			quick = (g_result[TEST_RTC_TEMP_Z29] - quick) * 0.4;
 4098              		.loc 1 441 110 view .LVU952
 4099 00fa 77EEA87A 		vadd.f32	s15, s15, s17
 4100 00fe 17EE900A 		vmov	r0, s15
 4101 0102 FFF7FEFF 		bl	__aeabi_f2d
ARM GAS  C:\Users\86158\AppData\Local\Temp\ccP8sDIW.s 			page 92


 4102              	.LVL502:
 4103 0106 0646     		mov	r6, r0
 4104 0108 0F46     		mov	r7, r1
 441:App/Src/calculate.c **** 			quick = (g_result[TEST_RTC_TEMP_Z29] - quick) * 0.4;
 4105              		.loc 1 441 164 view .LVU953
 4106 010a 78EE697A 		vsub.f32	s15, s16, s19
 4107 010e 17EE900A 		vmov	r0, s15
 4108 0112 FFF7FEFF 		bl	__aeabi_f2d
 4109              	.LVL503:
 441:App/Src/calculate.c **** 			quick = (g_result[TEST_RTC_TEMP_Z29] - quick) * 0.4;
 4110              		.loc 1 441 148 view .LVU954
 4111 0116 0022     		movs	r2, #0
 4112 0118 4A4B     		ldr	r3, .L237+36
 4113 011a FFF7FEFF 		bl	__aeabi_dmul
 4114              	.LVL504:
 4115 011e 0246     		mov	r2, r0
 4116 0120 0B46     		mov	r3, r1
 441:App/Src/calculate.c **** 			quick = (g_result[TEST_RTC_TEMP_Z29] - quick) * 0.4;
 4117              		.loc 1 441 140 view .LVU955
 4118 0122 3046     		mov	r0, r6
 4119 0124 3946     		mov	r1, r7
 4120 0126 FFF7FEFF 		bl	__aeabi_dsub
 4121              	.LVL505:
 441:App/Src/calculate.c **** 			quick = (g_result[TEST_RTC_TEMP_Z29] - quick) * 0.4;
 4122              		.loc 1 441 10 view .LVU956
 4123 012a FFF7FEFF 		bl	__aeabi_d2f
 4124              	.LVL506:
 4125 012e 07EE900A 		vmov	s15, r0
 4126              	.LVL507:
 442:App/Src/calculate.c **** 			digtal[i] = digtal_adj_convert(g_result[TEST_RTC_TEMP_Z29], quick);
 4127              		.loc 1 442 4 is_stmt 1 view .LVU957
 442:App/Src/calculate.c **** 			digtal[i] = digtal_adj_convert(g_result[TEST_RTC_TEMP_Z29], quick);
 4128              		.loc 1 442 41 is_stmt 0 view .LVU958
 4129 0132 78EEE77A 		vsub.f32	s15, s17, s15
 4130 0136 17EE900A 		vmov	r0, s15
 4131              	.LVL508:
 442:App/Src/calculate.c **** 			digtal[i] = digtal_adj_convert(g_result[TEST_RTC_TEMP_Z29], quick);
 4132              		.loc 1 442 41 view .LVU959
 4133 013a FFF7FEFF 		bl	__aeabi_f2d
 4134              	.LVL509:
 442:App/Src/calculate.c **** 			digtal[i] = digtal_adj_convert(g_result[TEST_RTC_TEMP_Z29], quick);
 4135              		.loc 1 442 50 view .LVU960
 4136 013e 38A3     		adr	r3, .L237
 4137 0140 D3E90023 		ldrd	r2, [r3]
 4138 0144 FFF7FEFF 		bl	__aeabi_dmul
 4139              	.LVL510:
 442:App/Src/calculate.c **** 			digtal[i] = digtal_adj_convert(g_result[TEST_RTC_TEMP_Z29], quick);
 4140              		.loc 1 442 10 view .LVU961
 4141 0148 FFF7FEFF 		bl	__aeabi_d2f
 4142              	.LVL511:
 4143 014c 08EE100A 		vmov	s16, r0
 4144              	.LVL512:
 443:App/Src/calculate.c **** 			cap_value[i] = cap_list_number_convert(g_result[TEST_RTC_TEMP_Z29], quick);
 4145              		.loc 1 443 4 is_stmt 1 view .LVU962
 443:App/Src/calculate.c **** 			cap_value[i] = cap_list_number_convert(g_result[TEST_RTC_TEMP_Z29], quick);
 4146              		.loc 1 443 10 is_stmt 0 view .LVU963
 4147 0150 A600     		lsls	r6, r4, #2
ARM GAS  C:\Users\86158\AppData\Local\Temp\ccP8sDIW.s 			page 93


 443:App/Src/calculate.c **** 			cap_value[i] = cap_list_number_convert(g_result[TEST_RTC_TEMP_Z29], quick);
 4148              		.loc 1 443 16 view .LVU964
 4149 0152 FCEEE88A 		vcvt.u32.f32	s17, s17
 4150 0156 00EE100A 		vmov	s0, r0
 4151 015a 18EE903A 		vmov	r3, s17	@ int
 4152 015e 98B2     		uxth	r0, r3
 4153              	.LVL513:
 443:App/Src/calculate.c **** 			cap_value[i] = cap_list_number_convert(g_result[TEST_RTC_TEMP_Z29], quick);
 4154              		.loc 1 443 16 view .LVU965
 4155 0160 FFF7FEFF 		bl	digtal_adj_convert
 4156              	.LVL514:
 443:App/Src/calculate.c **** 			cap_value[i] = cap_list_number_convert(g_result[TEST_RTC_TEMP_Z29], quick);
 4157              		.loc 1 443 14 view .LVU966
 4158 0164 4AF82400 		str	r0, [r10, r4, lsl #2]
 444:App/Src/calculate.c **** 		}
 4159              		.loc 1 444 4 is_stmt 1 view .LVU967
 444:App/Src/calculate.c **** 		}
 4160              		.loc 1 444 51 is_stmt 0 view .LVU968
 4161 0168 DBED027A 		vldr.32	s15, [fp, #8]
 444:App/Src/calculate.c **** 		}
 4162              		.loc 1 444 19 view .LVU969
 4163 016c FCEEE77A 		vcvt.u32.f32	s15, s15
 4164 0170 B0EE480A 		vmov.f32	s0, s16
 4165 0174 17EE903A 		vmov	r3, s15	@ int
 4166 0178 98B2     		uxth	r0, r3
 4167 017a FFF7FEFF 		bl	cap_list_number_convert
 4168              	.LVL515:
 4169 017e 07EE900A 		vmov	s15, r0	@ int
 444:App/Src/calculate.c **** 		}
 4170              		.loc 1 444 13 view .LVU970
 4171 0182 2E44     		add	r6, r6, r5
 444:App/Src/calculate.c **** 		}
 4172              		.loc 1 444 17 view .LVU971
 4173 0184 F8EE677A 		vcvt.f32.u32	s15, s15
 4174 0188 C6ED007A 		vstr.32	s15, [r6]
 4175              	.LVL516:
 4176              	.L220:
 446:App/Src/calculate.c **** 		// UsbPrintf("%d: %d, %.2f\n", adcStart + i, digtal[i], cap_value[i]);
 4177              		.loc 1 446 3 is_stmt 1 view .LVU972
 446:App/Src/calculate.c **** 		// UsbPrintf("%d: %d, %.2f\n", adcStart + i, digtal[i], cap_value[i]);
 4178              		.loc 1 446 16 is_stmt 0 view .LVU973
 4179 018c 05EB8403 		add	r3, r5, r4, lsl #2
 4180 0190 93ED007A 		vldr.32	s14, [r3]
 446:App/Src/calculate.c **** 		// UsbPrintf("%d: %d, %.2f\n", adcStart + i, digtal[i], cap_value[i]);
 4181              		.loc 1 446 6 view .LVU974
 4182 0194 F7EE007A 		vmov.f32	s15, #1.0e+0
 4183 0198 B4EEE77A 		vcmpe.f32	s14, s15
 4184 019c F1EE10FA 		vmrs	APSR_nzcv, FPSCR
 4185 01a0 2FD4     		bmi	.L234
 4186              	.L223:
 434:App/Src/calculate.c **** 		// if (i % 20 == 0) { UsbPrintf("\n[%d]\t", -60 + i / 2); }
 4187              		.loc 1 434 26 is_stmt 1 discriminator 2 view .LVU975
 434:App/Src/calculate.c **** 		// if (i % 20 == 0) { UsbPrintf("\n[%d]\t", -60 + i / 2); }
 4188              		.loc 1 434 27 is_stmt 0 discriminator 2 view .LVU976
 4189 01a2 0134     		adds	r4, r4, #1
 4190              	.LVL517:
 4191              	.L217:
ARM GAS  C:\Users\86158\AppData\Local\Temp\ccP8sDIW.s 			page 94


 434:App/Src/calculate.c **** 		// if (i % 20 == 0) { UsbPrintf("\n[%d]\t", -60 + i / 2); }
 4192              		.loc 1 434 17 is_stmt 1 discriminator 1 view .LVU977
 434:App/Src/calculate.c **** 		// if (i % 20 == 0) { UsbPrintf("\n[%d]\t", -60 + i / 2); }
 4193              		.loc 1 434 5 is_stmt 0 discriminator 1 view .LVU978
 4194 01a4 B4F5D27F 		cmp	r4, #420
 4195 01a8 2EDA     		bge	.L235
 436:App/Src/calculate.c ****             cap_value[i] = chip_temp_function(adcStart + i, g_left) + compensate_sd8825_left(adcSta
 4196              		.loc 1 436 9 is_stmt 1 view .LVU979
 436:App/Src/calculate.c ****             cap_value[i] = chip_temp_function(adcStart + i, g_left) + compensate_sd8825_left(adcSta
 4197              		.loc 1 436 22 is_stmt 0 view .LVU980
 4198 01aa 08EB0403 		add	r3, r8, r4
 4199 01ae 08EE103A 		vmov	s16, r3	@ int
 436:App/Src/calculate.c ****             cap_value[i] = chip_temp_function(adcStart + i, g_left) + compensate_sd8825_left(adcSta
 4200              		.loc 1 436 26 view .LVU981
 4201 01b2 B8EEC88A 		vcvt.f32.s32	s16, s16
 436:App/Src/calculate.c ****             cap_value[i] = chip_temp_function(adcStart + i, g_left) + compensate_sd8825_left(adcSta
 4202              		.loc 1 436 35 view .LVU982
 4203 01b6 1E4B     		ldr	r3, .L237+16
 4204 01b8 D3ED027A 		vldr.32	s15, [r3, #8]
 436:App/Src/calculate.c ****             cap_value[i] = chip_temp_function(adcStart + i, g_left) + compensate_sd8825_left(adcSta
 4205              		.loc 1 436 12 view .LVU983
 4206 01bc B4EEE78A 		vcmpe.f32	s16, s15
 4207 01c0 F1EE10FA 		vmrs	APSR_nzcv, FPSCR
 4208 01c4 3FF57AAF 		bmi	.L236
 438:App/Src/calculate.c ****             cap_value[i] = chip_temp_function(adcStart + i, g_right) + compensate_sd8825_right(adcS
 4209              		.loc 1 438 16 is_stmt 1 view .LVU984
 438:App/Src/calculate.c ****             cap_value[i] = chip_temp_function(adcStart + i, g_right) + compensate_sd8825_right(adcS
 4210              		.loc 1 438 43 is_stmt 0 view .LVU985
 4211 01c8 194B     		ldr	r3, .L237+16
 4212 01ca D3ED049A 		vldr.32	s19, [r3, #16]
 438:App/Src/calculate.c ****             cap_value[i] = chip_temp_function(adcStart + i, g_right) + compensate_sd8825_right(adcS
 4213              		.loc 1 438 19 view .LVU986
 4214 01ce B4EEE98A 		vcmpe.f32	s16, s19
 4215 01d2 F1EE10FA 		vmrs	APSR_nzcv, FPSCR
 4216 01d6 86D8     		bhi	.L230
 439:App/Src/calculate.c ****         } else {//超出85℃测试点
 4217              		.loc 1 439 13 is_stmt 1 view .LVU987
 439:App/Src/calculate.c ****         } else {//超出85℃测试点
 4218              		.loc 1 439 28 is_stmt 0 view .LVU988
 4219 01d8 1B4B     		ldr	r3, .L237+40
 4220 01da 1A69     		ldr	r2, [r3, #16]
 4221 01dc 0092     		str	r2, [sp]
 4222 01de 0FCB     		ldm	r3, {r0, r1, r2, r3}
 4223 01e0 B0EE480A 		vmov.f32	s0, s16
 4224 01e4 FFF7FEFF 		bl	chip_temp_function
 4225              	.LVL518:
 4226 01e8 F0EE408A 		vmov.f32	s17, s0
 439:App/Src/calculate.c ****         } else {//超出85℃测试点
 4227              		.loc 1 439 72 view .LVU989
 4228 01ec B0EE480A 		vmov.f32	s0, s16
 4229 01f0 FFF7FEFF 		bl	compensate_sd8825_right
 4230              	.LVL519:
 439:App/Src/calculate.c ****         } else {//超出85℃测试点
 4231              		.loc 1 439 22 view .LVU990
 4232 01f4 05EB8403 		add	r3, r5, r4, lsl #2
 439:App/Src/calculate.c ****         } else {//超出85℃测试点
 4233              		.loc 1 439 70 view .LVU991
ARM GAS  C:\Users\86158\AppData\Local\Temp\ccP8sDIW.s 			page 95


 4234 01f8 78EE808A 		vadd.f32	s17, s17, s0
 439:App/Src/calculate.c ****         } else {//超出85℃测试点
 4235              		.loc 1 439 26 view .LVU992
 4236 01fc C3ED008A 		vstr.32	s17, [r3]
 4237 0200 C4E7     		b	.L220
 4238              	.L234:
 446:App/Src/calculate.c **** 		// UsbPrintf("%d: %d, %.2f\n", adcStart + i, digtal[i], cap_value[i]);
