ARM GAS  C:\Users\86158\AppData\Local\Temp\cc1K5eBH.s 			page 1


   1              		.cpu cortex-m4
   2              		.arch armv7e-m
   3              		.fpu fpv4-sp-d16
   4              		.eabi_attribute 27, 1
   5              		.eabi_attribute 28, 1
   6              		.eabi_attribute 20, 1
   7              		.eabi_attribute 21, 1
   8              		.eabi_attribute 23, 3
   9              		.eabi_attribute 24, 1
  10              		.eabi_attribute 25, 1
  11              		.eabi_attribute 26, 1
  12              		.eabi_attribute 30, 1
  13              		.eabi_attribute 34, 1
  14              		.eabi_attribute 18, 4
  15              		.file	"command.c"
  16              		.text
  17              	.Ltext0:
  18              		.cfi_sections	.debug_frame
  19              		.section	.text.UsbPrintf,"ax",%progbits
  20              		.align	1
  21              		.global	UsbPrintf
  22              		.syntax unified
  23              		.thumb
  24              		.thumb_func
  26              	UsbPrintf:
  27              	.LVL0:
  28              	.LFB238:
  29              		.file 1 "App/Src/command.c"
   1:App/Src/command.c **** #include "command.h"
   2:App/Src/command.c **** #include "main.h"
   3:App/Src/command.c **** #include <string.h>
   4:App/Src/command.c **** #include <stdio.h>
   5:App/Src/command.c **** #include <stdarg.h>
   6:App/Src/command.c **** #include "soft_i2c.h"
   7:App/Src/command.c **** #include "current.h"
   8:App/Src/command.c **** #include "rtc.h"
   9:App/Src/command.c **** #include "task.h"
  10:App/Src/command.c **** #include "temp.h"
  11:App/Src/command.c **** #include "rtc_i2c.h"
  12:App/Src/command.c **** #include "flash.h"
  13:App/Src/command.c **** #include "voltage.h"
  14:App/Src/command.c **** #include "log.h"
  15:App/Src/command.c **** #include "manager.h"
  16:App/Src/command.c **** #include "power.h"
  17:App/Src/command.c **** #include "calculate.h"
  18:App/Src/command.c **** #include "drv_wave1006.h"
  19:App/Src/command.c **** #include <math.h>
  20:App/Src/command.c **** 
  21:App/Src/command.c **** #define UART_RECEIVE_BUFF_NUMBER    200
  22:App/Src/command.c **** #define UART_TRANSMIT_BUFF_NUMBER   300
  23:App/Src/command.c **** #define USB_UART_TICK_CLEAR         100//10ms
  24:App/Src/command.c **** extern FrequencyData g_lastFreq;
  25:App/Src/command.c **** 
  26:App/Src/command.c **** extern UART_HandleTypeDef huart1;
  27:App/Src/command.c **** static uint16_t usb_Rx_Cnt = 0;		//
  28:App/Src/command.c **** static uint8_t usbRxBuf;
  29:App/Src/command.c **** uint8_t g_UsbRxBuff[UART_RECEIVE_BUFF_NUMBER] = {0};
ARM GAS  C:\Users\86158\AppData\Local\Temp\cc1K5eBH.s 			page 2


  30:App/Src/command.c **** uint8_t g_UsbTxBuff[UART_TRANSMIT_BUFF_NUMBER] = {0};
  31:App/Src/command.c **** uint8_t g_UsbATStatus = 0;
  32:App/Src/command.c **** 
  33:App/Src/command.c **** extern UART_HandleTypeDef huart2;
  34:App/Src/command.c **** static uint16_t device_Rx_Cnt = 0;		//
  35:App/Src/command.c **** static uint8_t deviceRxBuf;
  36:App/Src/command.c **** uint8_t g_DeviceRxBuff[UART_RECEIVE_BUFF_NUMBER] = {0};
  37:App/Src/command.c **** uint8_t g_DeviceTxBuff[UART_TRANSMIT_BUFF_NUMBER] = {0};
  38:App/Src/command.c **** uint8_t g_DeviceATStatus = 0;
  39:App/Src/command.c **** uint8_t g_rtcChanenel = 1;
  40:App/Src/command.c **** 
  41:App/Src/command.c **** #define MAX_COMMAND_NUMBER  40
  42:App/Src/command.c **** #define MAX_COMMAND_LENGTH  20
  43:App/Src/command.c **** static char CommandList[MAX_COMMAND_NUMBER][MAX_COMMAND_LENGTH] = {
  44:App/Src/command.c **** 	"AT^HELP",
  45:App/Src/command.c **** 	"AT^VERSION?",
  46:App/Src/command.c **** 	"AT^REALTIME?", 
  47:App/Src/command.c **** 	"AT^SETTIME",
  48:App/Src/command.c **** 	"AT^RTCCURRENT?",
  49:App/Src/command.c **** 	"AT^RTC4096",
  50:App/Src/command.c **** 	"AT^RTCOTP",
  51:App/Src/command.c **** 	"AT^RTCADJCAP",
  52:App/Src/command.c **** 	"AT^RTCMODE",
  53:App/Src/command.c **** 	"AT^FREQTEST",
  54:App/Src/command.c **** 	"AT^READGROUP",
  55:App/Src/command.c **** 	"AT^SYSTEMP?",
  56:App/Src/command.c **** 	"AT^WRITEFLASH",
  57:App/Src/command.c **** 	"AT^READFLASH",
  58:App/Src/command.c **** 	"AT^ERASEFLASH",
  59:App/Src/command.c **** 	"AT^SETCURRENT",
  60:App/Src/command.c **** 	"AT^SYSVOLTAGE",
  61:App/Src/command.c **** 	"AT^SYSTEST",
  62:App/Src/command.c **** 	"AT^TESTMODE?",
  63:App/Src/command.c **** 	"AT^RESULT?",
  64:App/Src/command.c **** 	"AT^TESTFLAG",
  65:App/Src/command.c **** 	"AT^TESTDATA",
  66:App/Src/command.c **** 	"AT^ATTEST",
  67:App/Src/command.c **** 	"AT^MACHINE",
  68:App/Src/command.c **** 	"AT^1006TMODE",
  69:App/Src/command.c **** 	"AT^SD8825INT",
  70:App/Src/command.c **** 	"AT^RTCLOAD",
  71:App/Src/command.c **** 	"AT^HOTVOLTAGE",
  72:App/Src/command.c **** 	"AT^TEMPADC",
  73:App/Src/command.c **** 	"AT^BSN?",
  74:App/Src/command.c **** 	"AT^SETBSN",
  75:App/Src/command.c **** 	"AT^CSN?",
  76:App/Src/command.c **** 	"AT^SETCSN",
  77:App/Src/command.c **** };
  78:App/Src/command.c **** void UsbPrintf(char* fmt,...)  
  79:App/Src/command.c **** {  
  30              		.loc 1 79 1 view -0
  31              		.cfi_startproc
  32              		@ args = 4, pretend = 16, frame = 8
  33              		@ frame_needed = 0, uses_anonymous_args = 1
  34              		.loc 1 79 1 is_stmt 0 view .LVU1
  35 0000 0FB4     		push	{r0, r1, r2, r3}
  36              	.LCFI0:
ARM GAS  C:\Users\86158\AppData\Local\Temp\cc1K5eBH.s 			page 3


  37              		.cfi_def_cfa_offset 16
  38              		.cfi_offset 0, -16
  39              		.cfi_offset 1, -12
  40              		.cfi_offset 2, -8
  41              		.cfi_offset 3, -4
  42 0002 F0B5     		push	{r4, r5, r6, r7, lr}
  43              	.LCFI1:
  44              		.cfi_def_cfa_offset 36
  45              		.cfi_offset 4, -36
  46              		.cfi_offset 5, -32
  47              		.cfi_offset 6, -28
  48              		.cfi_offset 7, -24
  49              		.cfi_offset 14, -20
  50 0004 83B0     		sub	sp, sp, #12
  51              	.LCFI2:
  52              		.cfi_def_cfa_offset 48
  53 0006 08AD     		add	r5, sp, #32
  54 0008 55F8047B 		ldr	r7, [r5], #4
  80:App/Src/command.c **** 	va_list ap;//
  55              		.loc 1 80 2 is_stmt 1 view .LVU2
  81:App/Src/command.c **** 	memset(g_UsbTxBuff, 0, UART_TRANSMIT_BUFF_NUMBER);
  56              		.loc 1 81 2 view .LVU3
  57 000c 0E4C     		ldr	r4, .L3
  58 000e 4FF49676 		mov	r6, #300
  59 0012 3246     		mov	r2, r6
  60 0014 0021     		movs	r1, #0
  61 0016 2046     		mov	r0, r4
  62 0018 FFF7FEFF 		bl	memset
  63              	.LVL1:
  82:App/Src/command.c **** 	va_start(ap, fmt);//
  64              		.loc 1 82 2 view .LVU4
  65 001c 0195     		str	r5, [sp, #4]
  83:App/Src/command.c **** 	vsnprintf((char*)g_UsbTxBuff, UART_TRANSMIT_BUFF_NUMBER, fmt, ap);//
  66              		.loc 1 83 2 view .LVU5
  67 001e 2B46     		mov	r3, r5
  68 0020 3A46     		mov	r2, r7
  69 0022 3146     		mov	r1, r6
  70 0024 2046     		mov	r0, r4
  71 0026 FFF7FEFF 		bl	vsnprintf
  72              	.LVL2:
  84:App/Src/command.c **** 	va_end(ap);
  73              		.loc 1 84 2 view .LVU6
  85:App/Src/command.c **** 	HAL_UART_Transmit(&huart1, g_UsbTxBuff, strlen((char*)g_UsbTxBuff), 1000);
  74              		.loc 1 85 2 view .LVU7
  75              		.loc 1 85 42 is_stmt 0 view .LVU8
  76 002a 2046     		mov	r0, r4
  77 002c FFF7FEFF 		bl	strlen
  78              	.LVL3:
  79              		.loc 1 85 2 view .LVU9
  80 0030 4FF47A73 		mov	r3, #1000
  81 0034 82B2     		uxth	r2, r0
  82 0036 2146     		mov	r1, r4
  83 0038 0448     		ldr	r0, .L3+4
  84 003a FFF7FEFF 		bl	HAL_UART_Transmit
  85              	.LVL4:
  86:App/Src/command.c **** }
  86              		.loc 1 86 1 view .LVU10
ARM GAS  C:\Users\86158\AppData\Local\Temp\cc1K5eBH.s 			page 4


  87 003e 03B0     		add	sp, sp, #12
  88              	.LCFI3:
  89              		.cfi_def_cfa_offset 36
  90              		@ sp needed
  91 0040 BDE8F040 		pop	{r4, r5, r6, r7, lr}
  92              	.LCFI4:
  93              		.cfi_restore 14
  94              		.cfi_restore 7
  95              		.cfi_restore 6
  96              		.cfi_restore 5
  97              		.cfi_restore 4
  98              		.cfi_def_cfa_offset 16
  99 0044 04B0     		add	sp, sp, #16
 100              	.LCFI5:
 101              		.cfi_restore 3
 102              		.cfi_restore 2
 103              		.cfi_restore 1
 104              		.cfi_restore 0
 105              		.cfi_def_cfa_offset 0
 106 0046 7047     		bx	lr
 107              	.L4:
 108              		.align	2
 109              	.L3:
 110 0048 00000000 		.word	.LANCHOR0
 111 004c 00000000 		.word	huart1
 112              		.cfi_endproc
 113              	.LFE238:
 115              		.section	.rodata.AT_HELP_Handle.str1.4,"aMS",%progbits,1
 116              		.align	2
 117              	.LC0:
 118 0000 25642E20 		.ascii	"%d. %s\012\000"
 118      25730A00 
 119              		.align	2
 120              	.LC1:
 121 0008 636F6D6D 		.ascii	"command number: %d\012\000"
 121      616E6420 
 121      6E756D62 
 121      65723A20 
 121      25640A00 
 122              		.section	.text.AT_HELP_Handle,"ax",%progbits
 123              		.align	1
 124              		.global	AT_HELP_Handle
 125              		.syntax unified
 126              		.thumb
 127              		.thumb_func
 129              	AT_HELP_Handle:
 130              	.LVL5:
 131              	.LFB244:
  87:App/Src/command.c **** 
  88:App/Src/command.c **** void DevicePrintf(char* fmt,...)  
  89:App/Src/command.c **** {  
  90:App/Src/command.c **** 	va_list ap;//
  91:App/Src/command.c **** 	memset(g_DeviceTxBuff, 0, UART_TRANSMIT_BUFF_NUMBER);
  92:App/Src/command.c **** 	va_start(ap, fmt);//
  93:App/Src/command.c **** 	vsnprintf((char*)g_DeviceTxBuff, UART_TRANSMIT_BUFF_NUMBER, fmt, ap);//
  94:App/Src/command.c **** 	va_end(ap);
  95:App/Src/command.c **** 	HAL_UART_Transmit(&huart2, g_DeviceTxBuff, strlen((char*)g_DeviceTxBuff), 1000);
ARM GAS  C:\Users\86158\AppData\Local\Temp\cc1K5eBH.s 			page 5


  96:App/Src/command.c **** }
  97:App/Src/command.c **** 
  98:App/Src/command.c **** void UsartInit(void)
  99:App/Src/command.c **** {
 100:App/Src/command.c **** 	HAL_UART_Receive_IT(&huart1, &usbRxBuf, 1);		
 101:App/Src/command.c ****     memset(g_UsbRxBuff, 0x00, sizeof(g_UsbRxBuff));
 102:App/Src/command.c **** 	memset(g_UsbTxBuff, 0x00, sizeof(g_UsbTxBuff));
 103:App/Src/command.c **** 	HAL_UART_Receive_IT(&huart2, &deviceRxBuf, 1);		
 104:App/Src/command.c ****     memset(g_DeviceRxBuff, 0x00, sizeof(g_DeviceRxBuff));
 105:App/Src/command.c **** 	memset(g_DeviceTxBuff, 0x00, sizeof(g_DeviceTxBuff));
 106:App/Src/command.c **** 	rtc_group_power(g_rtcChanenel, POWER_I2C);
 107:App/Src/command.c **** 	ControlInit();
 108:App/Src/command.c **** 	DevicePrintf(":FUNC \"FREQ\"\n");
 109:App/Src/command.c ****     HAL_Delay(100);
 110:App/Src/command.c **** 	DevicePrintf(":FREQ:ARM 300mS\n");
 111:App/Src/command.c ****     HAL_Delay(100);
 112:App/Src/command.c **** 	DevicePrintf(":INP:FILT 1\n");
 113:App/Src/command.c ****     HAL_Delay(100);
 114:App/Src/command.c **** 	DevicePrintf(":EVEN:LEV +1.50V\n");
 115:App/Src/command.c ****     HAL_Delay(100);
 116:App/Src/command.c **** 	DevicePrintf(":SLOP NEG\n");
 117:App/Src/command.c ****     HAL_Delay(100);
 118:App/Src/command.c **** 
 119:App/Src/command.c ****     UsbPrintf("usb usart init success......\n");
 120:App/Src/command.c **** 	HAL_GPIO_WritePin(GPIOE, GPIO_PIN_14, GPIO_PIN_RESET); 
 121:App/Src/command.c **** 	UsbPrintf("VDD is 3.3V\n");
 122:App/Src/command.c **** 	rtc_otp_power(0);//配置dac电压
 123:App/Src/command.c **** 	if (CS1237Init()) {
 124:App/Src/command.c ****     	UsbPrintf("CS1237 init success\n");
 125:App/Src/command.c **** 	} else {
 126:App/Src/command.c ****     	UsbPrintf("CS1237 init error\n");
 127:App/Src/command.c **** 	}
 128:App/Src/command.c **** 	UsbPrintf("soft version: %s\n", SOFT_VERSION);
 129:App/Src/command.c **** 	UsbPrintf("hard version: %s\n", HARD_VERSION);
 130:App/Src/command.c **** 	UsbPrintf("compling time %s %s\n", __DATE__, __TIME__);
 131:App/Src/command.c **** }
 132:App/Src/command.c **** 
 133:App/Src/command.c **** int strSearch(char* source, char* target)
 134:App/Src/command.c **** {
 135:App/Src/command.c **** 	int len_source = strlen(source);
 136:App/Src/command.c **** 	int len_target = strlen(target);
 137:App/Src/command.c **** 	int i, j;
 138:App/Src/command.c **** 	if (len_source < len_target) {
 139:App/Src/command.c **** 		return -1;
 140:App/Src/command.c **** 	}		
 141:App/Src/command.c **** 	for (i = 0; i <= len_source - len_target; i++) {
 142:App/Src/command.c **** 		for (j = 0; j < len_target; j++) {
 143:App/Src/command.c **** 			if (source[i + j] != target[j]) { break;}
 144:App/Src/command.c **** 		}
 145:App/Src/command.c **** 		if (j == len_target) { return i;}
 146:App/Src/command.c **** 	}
 147:App/Src/command.c **** 	return -1;	
 148:App/Src/command.c **** }
 149:App/Src/command.c **** 
 150:App/Src/command.c **** 
 151:App/Src/command.c **** uint8_t CharToInt(char* source, uint8_t start, int* number)
 152:App/Src/command.c **** {
ARM GAS  C:\Users\86158\AppData\Local\Temp\cc1K5eBH.s 			page 6


 153:App/Src/command.c **** 	uint8_t length;
 154:App/Src/command.c **** 	uint8_t i;
 155:App/Src/command.c **** 	int sum = 0;
 156:App/Src/command.c **** 	int state = 0;
 157:App/Src/command.c **** 	uint8_t hex = 0;
 158:App/Src/command.c **** 	length = strlen(source);
 159:App/Src/command.c **** 	if (start >= length) {
 160:App/Src/command.c **** 		*number = 0;
 161:App/Src/command.c **** 		return 0;
 162:App/Src/command.c **** 	}
 163:App/Src/command.c **** 	
 164:App/Src/command.c **** 	if (source[start] == '-') {
 165:App/Src/command.c **** 		state = -1;
 166:App/Src/command.c **** 		start++;
 167:App/Src/command.c **** 	} else {
 168:App/Src/command.c **** 		state = 1;
 169:App/Src/command.c **** 		if (start + 1 < length ) {
 170:App/Src/command.c **** 			if (source[start] == '0' && (source[start + 1] == 'x' ||source[start + 1] == 'X')) {
 171:App/Src/command.c **** 				start += 2;
 172:App/Src/command.c **** 				hex = 1;
 173:App/Src/command.c **** 			}
 174:App/Src/command.c **** 		}
 175:App/Src/command.c **** 	}
 176:App/Src/command.c **** 	for (i = start; i < length; i++) {
 177:App/Src/command.c **** 		if (source[i] >= '0' && source[i] <= '9') {
 178:App/Src/command.c **** 			if (hex == 1) {
 179:App/Src/command.c **** 				sum = sum * 16 + source[i] - '0';
 180:App/Src/command.c **** 			} else {
 181:App/Src/command.c **** 				sum = sum * 10 + source[i] - '0';
 182:App/Src/command.c **** 			}
 183:App/Src/command.c **** 		} else if (source[i] >= 'a' && source[i] <= 'f') {
 184:App/Src/command.c **** 			if (hex == 1) {
 185:App/Src/command.c **** 				sum = sum * 16  + source[i] - 'a' + 10;
 186:App/Src/command.c **** 			} else {
 187:App/Src/command.c **** 				*number = 0;
 188:App/Src/command.c **** 				return 0;
 189:App/Src/command.c **** 			}
 190:App/Src/command.c **** 		}else if (source[i] >= 'A' && source[i] <= 'F') {
 191:App/Src/command.c **** 			if (hex == 1) {
 192:App/Src/command.c **** 				sum = sum * 16  + source[i] - 'A' + 10;
 193:App/Src/command.c **** 			} else {
 194:App/Src/command.c **** 				*number = 0;
 195:App/Src/command.c **** 				return 0;
 196:App/Src/command.c **** 			}
 197:App/Src/command.c **** 		} else if (source[i] == ' ' || source[i] == ',') {
 198:App/Src/command.c **** 			break;
 199:App/Src/command.c **** 		}
 200:App/Src/command.c **** 	}
 201:App/Src/command.c **** 	*number = state * sum;
 202:App/Src/command.c **** 	return 1;
 203:App/Src/command.c **** }
 204:App/Src/command.c **** 
 205:App/Src/command.c **** uint8_t CharToFloat(char* source, uint8_t start, float* number)
 206:App/Src/command.c **** {
 207:App/Src/command.c **** 		uint8_t length;
 208:App/Src/command.c **** 		uint8_t i;
 209:App/Src/command.c **** 		float sum = 0;
ARM GAS  C:\Users\86158\AppData\Local\Temp\cc1K5eBH.s 			page 7


 210:App/Src/command.c **** 		int state = 1;
 211:App/Src/command.c **** 		float smallNumber = 0.1;
 212:App/Src/command.c **** 		length = strlen(source);
 213:App/Src/command.c **** 		if (length <= start) {
 214:App/Src/command.c **** 				*number = 0;
 215:App/Src/command.c **** 				return 0;
 216:App/Src/command.c **** 		}
 217:App/Src/command.c **** 		
 218:App/Src/command.c **** 		if (source[start] == '-') {
 219:App/Src/command.c **** 				state = -1;
 220:App/Src/command.c **** 				start++;
 221:App/Src/command.c **** 		}
 222:App/Src/command.c **** 		for (i = start; i < length; i++){
 223:App/Src/command.c **** 				if (source[i] >= '0' && source[i] <= '9') {
 224:App/Src/command.c **** 						sum = sum * 10 + source[i] - '0';
 225:App/Src/command.c **** 				} else if (source[i] == '.') {
 226:App/Src/command.c **** 						i++;
 227:App/Src/command.c **** 						break;
 228:App/Src/command.c **** 				} else if (source[i] == ' ' || source[i] == ',') {
 229:App/Src/command.c **** 						break;
 230:App/Src/command.c **** 				}	else {
 231:App/Src/command.c **** 						*number = 0;
 232:App/Src/command.c **** 						return 0;
 233:App/Src/command.c **** 				}					
 234:App/Src/command.c **** 		}
 235:App/Src/command.c **** 		for (; i < length; i++) {
 236:App/Src/command.c **** 				if (source[i] >= '0' && source[i] <= '9') {
 237:App/Src/command.c **** 						sum += smallNumber * (source[i] - '0');
 238:App/Src/command.c **** 						smallNumber = smallNumber * 0.1;
 239:App/Src/command.c **** 				} else if (source[i] == ' ' || source[i] == ',') {
 240:App/Src/command.c **** 						break;
 241:App/Src/command.c **** 				}	else {
 242:App/Src/command.c **** 						*number = 0;
 243:App/Src/command.c **** 						return 0;
 244:App/Src/command.c **** 				}	
 245:App/Src/command.c **** 		}
 246:App/Src/command.c **** 		*number = state * sum;
 247:App/Src/command.c **** 		return 1;
 248:App/Src/command.c **** }
 249:App/Src/command.c **** 
 250:App/Src/command.c **** void  AT_HELP_Handle(char* command)
 251:App/Src/command.c **** {
 132              		.loc 1 251 1 is_stmt 1 view -0
 133              		.cfi_startproc
 134              		@ args = 0, pretend = 0, frame = 0
 135              		@ frame_needed = 0, uses_anonymous_args = 0
 136              		.loc 1 251 1 is_stmt 0 view .LVU12
 137 0000 38B5     		push	{r3, r4, r5, lr}
 138              	.LCFI6:
 139              		.cfi_def_cfa_offset 16
 140              		.cfi_offset 3, -16
 141              		.cfi_offset 4, -12
 142              		.cfi_offset 5, -8
 143              		.cfi_offset 14, -4
 252:App/Src/command.c ****     int i = 0, number = 0;
 144              		.loc 1 252 5 is_stmt 1 view .LVU13
 145              	.LVL6:
ARM GAS  C:\Users\86158\AppData\Local\Temp\cc1K5eBH.s 			page 8


 253:App/Src/command.c ****     command = NULL;
 146              		.loc 1 253 5 view .LVU14
 254:App/Src/command.c ****     for (i = 0; i < MAX_COMMAND_NUMBER; i++) {
 147              		.loc 1 254 5 view .LVU15
 252:App/Src/command.c ****     int i = 0, number = 0;
 148              		.loc 1 252 16 is_stmt 0 view .LVU16
 149 0002 0025     		movs	r5, #0
 150              		.loc 1 254 12 view .LVU17
 151 0004 2C46     		mov	r4, r5
 152              		.loc 1 254 5 view .LVU18
 153 0006 00E0     		b	.L6
 154              	.LVL7:
 155              	.L7:
 156              		.loc 1 254 41 is_stmt 1 discriminator 2 view .LVU19
 157              		.loc 1 254 42 is_stmt 0 discriminator 2 view .LVU20
 158 0008 0134     		adds	r4, r4, #1
 159              	.LVL8:
 160              	.L6:
 161              		.loc 1 254 17 is_stmt 1 discriminator 1 view .LVU21
 162              		.loc 1 254 5 is_stmt 0 discriminator 1 view .LVU22
 163 000a 272C     		cmp	r4, #39
 164 000c 0DDC     		bgt	.L10
 255:App/Src/command.c **** 		if (strlen(CommandList[i]) > 0) {
 165              		.loc 1 255 3 is_stmt 1 view .LVU23
 166              		.loc 1 255 25 is_stmt 0 view .LVU24
 167 000e 0949     		ldr	r1, .L11
 168 0010 04EB8402 		add	r2, r4, r4, lsl #2
 169 0014 9300     		lsls	r3, r2, #2
 170 0016 CA18     		adds	r2, r1, r3
 171              		.loc 1 255 30 view .LVU25
 172 0018 CB5C     		ldrb	r3, [r1, r3]	@ zero_extendqisi2
 173              		.loc 1 255 6 view .LVU26
 174 001a 002B     		cmp	r3, #0
 175 001c F4D0     		beq	.L7
 256:App/Src/command.c ****         	UsbPrintf("%d. %s\n", number, CommandList[i]);
 176              		.loc 1 256 10 is_stmt 1 view .LVU27
 177 001e 2946     		mov	r1, r5
 178 0020 0548     		ldr	r0, .L11+4
 179 0022 FFF7FEFF 		bl	UsbPrintf
 180              	.LVL9:
 257:App/Src/command.c **** 			number++;
 181              		.loc 1 257 4 view .LVU28
 182              		.loc 1 257 10 is_stmt 0 view .LVU29
 183 0026 0135     		adds	r5, r5, #1
 184              	.LVL10:
 185              		.loc 1 257 10 view .LVU30
 186 0028 EEE7     		b	.L7
 187              	.L10:
 258:App/Src/command.c **** 		}
 259:App/Src/command.c ****     }
 260:App/Src/command.c **** 	UsbPrintf("command number: %d\n", number);
 188              		.loc 1 260 2 is_stmt 1 view .LVU31
 189 002a 2946     		mov	r1, r5
 190 002c 0348     		ldr	r0, .L11+8
 191 002e FFF7FEFF 		bl	UsbPrintf
 192              	.LVL11:
 261:App/Src/command.c **** }
ARM GAS  C:\Users\86158\AppData\Local\Temp\cc1K5eBH.s 			page 9


 193              		.loc 1 261 1 is_stmt 0 view .LVU32
 194 0032 38BD     		pop	{r3, r4, r5, pc}
 195              	.LVL12:
 196              	.L12:
 197              		.loc 1 261 1 view .LVU33
 198              		.align	2
 199              	.L11:
 200 0034 00000000 		.word	.LANCHOR1
 201 0038 00000000 		.word	.LC0
 202 003c 08000000 		.word	.LC1
 203              		.cfi_endproc
 204              	.LFE244:
 206              		.section	.rodata.AT_VERSION_Handle.str1.4,"aMS",%progbits,1
 207              		.align	2
 208              	.LC2:
 209 0000 53443838 		.ascii	"SD8825V1.5\000"
 209      32355631 
 209      2E3500
 210 000b 00       		.align	2
 211              	.LC3:
 212 000c 736F6674 		.ascii	"soft version: %s\012\000"
 212      20766572 
 212      73696F6E 
 212      3A202573 
 212      0A00
 213 001e 0000     		.align	2
 214              	.LC4:
 215 0020 426F6172 		.ascii	"Board V1.2\000"
 215      64205631 
 215      2E3200
 216 002b 00       		.align	2
 217              	.LC5:
 218 002c 68617264 		.ascii	"hard version: %s\012\000"
 218      20766572 
 218      73696F6E 
 218      3A202573 
 218      0A00
 219 003e 0000     		.align	2
 220              	.LC6:
 221 0040 31333A35 		.ascii	"13:52:38\000"
 221      323A3338 
 221      00
 222 0049 000000   		.align	2
 223              	.LC7:
 224 004c 53657020 		.ascii	"Sep 19 2024\000"
 224      31392032 
 224      30323400 
 225              		.align	2
 226              	.LC8:
 227 0058 636F6D70 		.ascii	"compling time %s %s\012\000"
 227      6C696E67 
 227      2074696D 
 227      65202573 
 227      2025730A 
 228 006d 000000   		.align	2
 229              	.LC9:
 230 0070 0A4F4B0A 		.ascii	"\012OK\012\000"
ARM GAS  C:\Users\86158\AppData\Local\Temp\cc1K5eBH.s 			page 10


 230      00
 231              		.section	.text.AT_VERSION_Handle,"ax",%progbits
 232              		.align	1
 233              		.global	AT_VERSION_Handle
 234              		.syntax unified
 235              		.thumb
 236              		.thumb_func
 238              	AT_VERSION_Handle:
 239              	.LVL13:
 240              	.LFB245:
 262:App/Src/command.c **** 
 263:App/Src/command.c **** void AT_VERSION_Handle(char* command)
 264:App/Src/command.c **** {
 241              		.loc 1 264 1 is_stmt 1 view -0
 242              		.cfi_startproc
 243              		@ args = 0, pretend = 0, frame = 0
 244              		@ frame_needed = 0, uses_anonymous_args = 0
 245              		.loc 1 264 1 is_stmt 0 view .LVU35
 246 0000 08B5     		push	{r3, lr}
 247              	.LCFI7:
 248              		.cfi_def_cfa_offset 8
 249              		.cfi_offset 3, -8
 250              		.cfi_offset 14, -4
 265:App/Src/command.c **** 	UsbPrintf("soft version: %s\n", SOFT_VERSION);
 251              		.loc 1 265 2 is_stmt 1 view .LVU36
 252 0002 0849     		ldr	r1, .L15
 253 0004 0848     		ldr	r0, .L15+4
 254              	.LVL14:
 255              		.loc 1 265 2 is_stmt 0 view .LVU37
 256 0006 FFF7FEFF 		bl	UsbPrintf
 257              	.LVL15:
 266:App/Src/command.c **** 	UsbPrintf("hard version: %s\n", HARD_VERSION);
 258              		.loc 1 266 2 is_stmt 1 view .LVU38
 259 000a 0849     		ldr	r1, .L15+8
 260 000c 0848     		ldr	r0, .L15+12
 261 000e FFF7FEFF 		bl	UsbPrintf
 262              	.LVL16:
 267:App/Src/command.c **** 	UsbPrintf("compling time %s %s\n", __DATE__, __TIME__);
 263              		.loc 1 267 2 view .LVU39
 264 0012 084A     		ldr	r2, .L15+16
 265 0014 0849     		ldr	r1, .L15+20
 266 0016 0948     		ldr	r0, .L15+24
 267 0018 FFF7FEFF 		bl	UsbPrintf
 268              	.LVL17:
 268:App/Src/command.c **** 	UsbPrintf("\nOK\n");
 269              		.loc 1 268 2 view .LVU40
 270 001c 0848     		ldr	r0, .L15+28
 271 001e FFF7FEFF 		bl	UsbPrintf
 272              	.LVL18:
 269:App/Src/command.c **** }
 273              		.loc 1 269 1 is_stmt 0 view .LVU41
 274 0022 08BD     		pop	{r3, pc}
 275              	.L16:
 276              		.align	2
 277              	.L15:
 278 0024 00000000 		.word	.LC2
 279 0028 0C000000 		.word	.LC3
ARM GAS  C:\Users\86158\AppData\Local\Temp\cc1K5eBH.s 			page 11


 280 002c 20000000 		.word	.LC4
 281 0030 2C000000 		.word	.LC5
 282 0034 40000000 		.word	.LC6
 283 0038 4C000000 		.word	.LC7
 284 003c 58000000 		.word	.LC8
 285 0040 70000000 		.word	.LC9
 286              		.cfi_endproc
 287              	.LFE245:
 289              		.section	.rodata.AT_REALTIME_Handle.str1.4,"aMS",%progbits,1
 290              		.align	2
 291              	.LC10:
 292 0000 0A323025 		.ascii	"\01220%d/%d/%d %d:%d:%d\012\000"
 292      642F2564 
 292      2F256420 
 292      25643A25 
 292      643A2564 
 293              		.section	.text.AT_REALTIME_Handle,"ax",%progbits
 294              		.align	1
 295              		.global	AT_REALTIME_Handle
 296              		.syntax unified
 297              		.thumb
 298              		.thumb_func
 300              	AT_REALTIME_Handle:
 301              	.LVL19:
 302              	.LFB246:
 270:App/Src/command.c **** 
 271:App/Src/command.c **** void  AT_REALTIME_Handle(char* command)
 272:App/Src/command.c **** {
 303              		.loc 1 272 1 is_stmt 1 view -0
 304              		.cfi_startproc
 305              		@ args = 0, pretend = 0, frame = 8
 306              		@ frame_needed = 0, uses_anonymous_args = 0
 307              		.loc 1 272 1 is_stmt 0 view .LVU43
 308 0000 00B5     		push	{lr}
 309              	.LCFI8:
 310              		.cfi_def_cfa_offset 4
 311              		.cfi_offset 14, -4
 312 0002 87B0     		sub	sp, sp, #28
 313              	.LCFI9:
 314              		.cfi_def_cfa_offset 32
 273:App/Src/command.c **** 	RealTime rtc = {0};
 315              		.loc 1 273 2 is_stmt 1 view .LVU44
 316              		.loc 1 273 11 is_stmt 0 view .LVU45
 317 0004 0023     		movs	r3, #0
 318 0006 0493     		str	r3, [sp, #16]
 319 0008 0593     		str	r3, [sp, #20]
 274:App/Src/command.c **** 	system_get_real_time(&rtc);
 320              		.loc 1 274 2 is_stmt 1 view .LVU46
 321 000a 04A8     		add	r0, sp, #16
 322              	.LVL20:
 323              		.loc 1 274 2 is_stmt 0 view .LVU47
 324 000c FFF7FEFF 		bl	system_get_real_time
 325              	.LVL21:
 275:App/Src/command.c **** 	UsbPrintf("\n20%d/%d/%d %d:%d:%d\n", rtc.year, rtc.mon, rtc.day, rtc.hour, rtc.min, rtc.sec);
 326              		.loc 1 275 2 is_stmt 1 view .LVU48
 327              		.loc 1 275 70 is_stmt 0 view .LVU49
 328 0010 9DF81330 		ldrb	r3, [sp, #19]	@ zero_extendqisi2
ARM GAS  C:\Users\86158\AppData\Local\Temp\cc1K5eBH.s 			page 12


 329              		.loc 1 275 80 view .LVU50
 330 0014 9DF81420 		ldrb	r2, [sp, #20]	@ zero_extendqisi2
 331              		.loc 1 275 89 view .LVU51
 332 0018 9DF81510 		ldrb	r1, [sp, #21]	@ zero_extendqisi2
 333              		.loc 1 275 2 view .LVU52
 334 001c 0291     		str	r1, [sp, #8]
 335 001e 0192     		str	r2, [sp, #4]
 336 0020 0093     		str	r3, [sp]
 337 0022 9DF81230 		ldrb	r3, [sp, #18]	@ zero_extendqisi2
 338 0026 9DF81120 		ldrb	r2, [sp, #17]	@ zero_extendqisi2
 339 002a 9DF81010 		ldrb	r1, [sp, #16]	@ zero_extendqisi2
 340 002e 0348     		ldr	r0, .L19
 341 0030 FFF7FEFF 		bl	UsbPrintf
 342              	.LVL22:
 276:App/Src/command.c **** }
 343              		.loc 1 276 1 view .LVU53
 344 0034 07B0     		add	sp, sp, #28
 345              	.LCFI10:
 346              		.cfi_def_cfa_offset 4
 347              		@ sp needed
 348 0036 5DF804FB 		ldr	pc, [sp], #4
 349              	.L20:
 350 003a 00BF     		.align	2
 351              	.L19:
 352 003c 00000000 		.word	.LC10
 353              		.cfi_endproc
 354              	.LFE246:
 356              		.global	__aeabi_f2d
 357              		.section	.rodata.AT_RTCCURRENT_Handle.str1.4,"aMS",%progbits,1
 358              		.align	2
 359              	.LC11:
 360 0000 72746320 		.ascii	"rtc current = %.1f nA\012OK\012\000"
 360      63757272 
 360      656E7420 
 360      3D20252E 
 360      3166206E 
 361              		.section	.text.AT_RTCCURRENT_Handle,"ax",%progbits
 362              		.align	1
 363              		.global	AT_RTCCURRENT_Handle
 364              		.syntax unified
 365              		.thumb
 366              		.thumb_func
 368              	AT_RTCCURRENT_Handle:
 369              	.LVL23:
 370              	.LFB248:
 277:App/Src/command.c **** 
 278:App/Src/command.c **** void  AT_SETTIME_Handle(char* command)
 279:App/Src/command.c **** {
 280:App/Src/command.c **** 	RealTime rtc = {0};
 281:App/Src/command.c **** 	int num = 0;
 282:App/Src/command.c **** 	int inNumber = 0;
 283:App/Src/command.c **** 
 284:App/Src/command.c **** 	system_get_real_time(&rtc);
 285:App/Src/command.c **** 	num = strSearch(command, "year:");
 286:App/Src/command.c **** 	if (num != -1) {
 287:App/Src/command.c **** 		num += strlen("year:");
 288:App/Src/command.c **** 		if (CharToInt(command, num, &inNumber) == 0 ) {	return; }
ARM GAS  C:\Users\86158\AppData\Local\Temp\cc1K5eBH.s 			page 13


 289:App/Src/command.c **** 		rtc.year = inNumber % 100;
 290:App/Src/command.c **** 	}
 291:App/Src/command.c **** 	num = strSearch(command, "mon:");
 292:App/Src/command.c **** 	if (num != -1) {
 293:App/Src/command.c **** 		num += strlen("mon:");
 294:App/Src/command.c **** 		if (CharToInt(command, num, &inNumber) == 0 ) {	return; }
 295:App/Src/command.c **** 		rtc.mon = inNumber % 100;
 296:App/Src/command.c **** 	}	
 297:App/Src/command.c **** 	num = strSearch(command, "day:");
 298:App/Src/command.c **** 	if (num != -1) {
 299:App/Src/command.c **** 		num += strlen("day:");
 300:App/Src/command.c **** 		if (CharToInt(command, num, &inNumber) == 0 ) {	return; }
 301:App/Src/command.c **** 		rtc.day = inNumber % 100;
 302:App/Src/command.c **** 	}	
 303:App/Src/command.c **** 	num = strSearch(command, "hour:");
 304:App/Src/command.c **** 	if (num != -1) {
 305:App/Src/command.c **** 		num += strlen("hour:");
 306:App/Src/command.c **** 		if (CharToInt(command, num, &inNumber) == 0 ) {	return; }
 307:App/Src/command.c **** 		rtc.hour = inNumber % 100;
 308:App/Src/command.c **** 	}	
 309:App/Src/command.c **** 	num = strSearch(command, "min:");
 310:App/Src/command.c **** 	if (num != -1) {
 311:App/Src/command.c **** 		num += strlen("min:");
 312:App/Src/command.c **** 		if (CharToInt(command, num, &inNumber) == 0 ) {	return; }
 313:App/Src/command.c **** 		rtc.min = inNumber % 100;
 314:App/Src/command.c **** 	}	
 315:App/Src/command.c **** 	num = strSearch(command, "sec:");
 316:App/Src/command.c **** 	if (num != -1) {
 317:App/Src/command.c **** 		num += strlen("sec:");
 318:App/Src/command.c **** 		if (CharToInt(command, num, &inNumber) == 0 ) {	return; }
 319:App/Src/command.c **** 		rtc.sec = inNumber % 100;
 320:App/Src/command.c **** 	}
 321:App/Src/command.c **** 	system_set_real_time(rtc);
 322:App/Src/command.c **** 	UsbPrintf("date set success!\nOK!\r\n");
 323:App/Src/command.c **** }
 324:App/Src/command.c **** 
 325:App/Src/command.c **** void  AT_RTCCURRENT_Handle(char* command)
 326:App/Src/command.c **** {
 371              		.loc 1 326 1 is_stmt 1 view -0
 372              		.cfi_startproc
 373              		@ args = 0, pretend = 0, frame = 0
 374              		@ frame_needed = 0, uses_anonymous_args = 0
 375              		.loc 1 326 1 is_stmt 0 view .LVU55
 376 0000 08B5     		push	{r3, lr}
 377              	.LCFI11:
 378              		.cfi_def_cfa_offset 8
 379              		.cfi_offset 3, -8
 380              		.cfi_offset 14, -4
 327:App/Src/command.c **** 	float cur;
 381              		.loc 1 327 2 is_stmt 1 view .LVU56
 328:App/Src/command.c **** 	command = NULL;
 382              		.loc 1 328 2 view .LVU57
 383              	.LVL24:
 329:App/Src/command.c **** 	cur = CS1237Current();
 384              		.loc 1 329 2 view .LVU58
 385              		.loc 1 329 8 is_stmt 0 view .LVU59
 386 0002 FFF7FEFF 		bl	CS1237Current
ARM GAS  C:\Users\86158\AppData\Local\Temp\cc1K5eBH.s 			page 14


 387              	.LVL25:
 388 0006 10EE100A 		vmov	r0, s0
 389              	.LVL26:
 330:App/Src/command.c **** 	UsbPrintf("rtc current = %.1f nA\nOK\n", cur);
 390              		.loc 1 330 2 is_stmt 1 view .LVU60
 391 000a FFF7FEFF 		bl	__aeabi_f2d
 392              	.LVL27:
 393              		.loc 1 330 2 is_stmt 0 view .LVU61
 394 000e 0246     		mov	r2, r0
 395 0010 0B46     		mov	r3, r1
 396 0012 0248     		ldr	r0, .L23
 397 0014 FFF7FEFF 		bl	UsbPrintf
 398              	.LVL28:
 331:App/Src/command.c **** }
 399              		.loc 1 331 1 view .LVU62
 400 0018 08BD     		pop	{r3, pc}
 401              	.L24:
 402 001a 00BF     		.align	2
 403              	.L23:
 404 001c 00000000 		.word	.LC11
 405              		.cfi_endproc
 406              	.LFE248:
 408              		.section	.text.AT_RTCOTP_Handle,"ax",%progbits
 409              		.align	1
 410              		.global	AT_RTCOTP_Handle
 411              		.syntax unified
 412              		.thumb
 413              		.thumb_func
 415              	AT_RTCOTP_Handle:
 416              	.LVL29:
 417              	.LFB250:
 332:App/Src/command.c **** 
 333:App/Src/command.c **** void AT_RTC4096_Handle(char* command)
 334:App/Src/command.c **** {
 335:App/Src/command.c **** 	int inNumber;
 336:App/Src/command.c **** 	uint8_t result;
 337:App/Src/command.c **** 	if (CharToInt(command, 11, &inNumber) == 0 ) {
 338:App/Src/command.c **** 		UsbPrintf("input error\n");
 339:App/Src/command.c **** 		return;
 340:App/Src/command.c **** 	}
 341:App/Src/command.c **** 	
 342:App/Src/command.c **** 	if (inNumber > 0) {
 343:App/Src/command.c **** 		result = sd8825_out_freq();
 344:App/Src/command.c **** 	} else {
 345:App/Src/command.c **** 		result = sd8825_close_freq();
 346:App/Src/command.c **** 	}
 347:App/Src/command.c **** 	if (result == I2C_OK) {
 348:App/Src/command.c **** 		UsbPrintf("\nOK\n");
 349:App/Src/command.c **** 	} else {
 350:App/Src/command.c **** 		UsbPrintf("\niic error\n");
 351:App/Src/command.c **** 	}
 352:App/Src/command.c **** }
 353:App/Src/command.c **** 
 354:App/Src/command.c **** void AT_RTCOTP_Handle(char* command)
 355:App/Src/command.c **** {
 418              		.loc 1 355 1 is_stmt 1 view -0
 419              		.cfi_startproc
ARM GAS  C:\Users\86158\AppData\Local\Temp\cc1K5eBH.s 			page 15


 420              		@ args = 0, pretend = 0, frame = 0
 421              		@ frame_needed = 0, uses_anonymous_args = 0
 422              		.loc 1 355 1 is_stmt 0 view .LVU64
 423 0000 08B5     		push	{r3, lr}
 424              	.LCFI12:
 425              		.cfi_def_cfa_offset 8
 426              		.cfi_offset 3, -8
 427              		.cfi_offset 14, -4
 356:App/Src/command.c **** 
 357:App/Src/command.c **** 	UsbPrintf("\nOK\n");
 428              		.loc 1 357 2 is_stmt 1 view .LVU65
 429 0002 0248     		ldr	r0, .L27
 430              	.LVL30:
 431              		.loc 1 357 2 is_stmt 0 view .LVU66
 432 0004 FFF7FEFF 		bl	UsbPrintf
 433              	.LVL31:
 358:App/Src/command.c **** }
 434              		.loc 1 358 1 view .LVU67
 435 0008 08BD     		pop	{r3, pc}
 436              	.L28:
 437 000a 00BF     		.align	2
 438              	.L27:
 439 000c 70000000 		.word	.LC9
 440              		.cfi_endproc
 441              	.LFE250:
 443              		.section	.rodata.AT_RTCMODE_Handle.str1.4,"aMS",%progbits,1
 444              		.align	2
 445              	.LC12:
 446 0000 56444420 		.ascii	"VDD is 3.3V\012\000"
 446      69732033 
 446      2E33560A 
 446      00
 447 000d 000000   		.align	2
 448              	.LC13:
 449 0010 56444420 		.ascii	"VDD is 5V\012\000"
 449      69732035 
 449      560A00
 450 001b 00       		.align	2
 451              	.LC14:
 452 001c 4F4B0A00 		.ascii	"OK\012\000"
 453              		.section	.text.AT_RTCMODE_Handle,"ax",%progbits
 454              		.align	1
 455              		.global	AT_RTCMODE_Handle
 456              		.syntax unified
 457              		.thumb
 458              		.thumb_func
 460              	AT_RTCMODE_Handle:
 461              	.LVL32:
 462              	.LFB252:
 359:App/Src/command.c **** 
 360:App/Src/command.c **** void AT_RTCADJCAP_Handle(char* command)
 361:App/Src/command.c **** {
 362:App/Src/command.c **** 	// uint8_t osc_buf[2] = {0};
 363:App/Src/command.c **** 	// int high, low;
 364:App/Src/command.c **** 	// if (CharToInt(command, 13, &high) == 0 ) {
 365:App/Src/command.c **** 	// 	UsbPrintf("input error\n");
 366:App/Src/command.c **** 	// 	return;
ARM GAS  C:\Users\86158\AppData\Local\Temp\cc1K5eBH.s 			page 16


 367:App/Src/command.c **** 	// }
 368:App/Src/command.c **** 	// CharToInt(command, strSearch(command, ",") + 1, &low);		
 369:App/Src/command.c **** 	// osc_buf[0] = low;
 370:App/Src/command.c **** 	// osc_buf[1] = high;
 371:App/Src/command.c **** 	// if (rtc_set_testcap(osc_buf) != I2C_OK) { //写ram22、ram23 
 372:App/Src/command.c **** 	// 	UsbPrintf("adjust error\n");
 373:App/Src/command.c **** 	// 	return;
 374:App/Src/command.c **** 	// }	
 375:App/Src/command.c **** 
 376:App/Src/command.c **** 	// UsbPrintf("adjust success, write cap:0x%02X, 0x%02X\n", osc_buf[1], osc_buf[0]);
 377:App/Src/command.c **** 
 378:App/Src/command.c **** 	// rtc_freq_test(FREQ_TEST_STARTING);//自动调节
 379:App/Src/command.c **** 	
 380:App/Src/command.c **** 	uint8_t osc_buf[2];
 381:App/Src/command.c **** 	uint8_t mode  = 2;
 382:App/Src/command.c **** 	int num = 0;
 383:App/Src/command.c **** 	int list = 0;
 384:App/Src/command.c **** 	uint8_t buffer;
 385:App/Src/command.c **** 	CharToInt(command, strSearch(command, "=") + 1, &num);
 386:App/Src/command.c **** 	CharToInt(command, strSearch(command, ",") + 1, &list);
 387:App/Src/command.c **** 	if (num == 1) {
 388:App/Src/command.c **** 		buffer = (uint8_t)list;
 389:App/Src/command.c **** 		osc_buf[1] = (mode << 3) | buffer >> 5;
 390:App/Src/command.c **** 		osc_buf[0] = (buffer << 3) | (buffer & 0x07);
 391:App/Src/command.c **** 	} else if (num == 2) {
 392:App/Src/command.c **** 		rtc_freq_test(FREQ_TEST_STARTING);//自动调节
 393:App/Src/command.c **** 	} else {
 394:App/Src/command.c **** 		cap_list_to_uint(list, osc_buf);
 395:App/Src/command.c **** 	}
 396:App/Src/command.c **** 	if (rtc_set_testcap(osc_buf) != I2C_OK) { //写ram22、ram23 
 397:App/Src/command.c **** 		UsbPrintf("adjust error\n");
 398:App/Src/command.c **** 		return;
 399:App/Src/command.c **** 	}
 400:App/Src/command.c **** 	UsbPrintf("\nOK\n");
 401:App/Src/command.c **** }
 402:App/Src/command.c **** 
 403:App/Src/command.c **** void AT_RTCMODE_Handle(char* command)
 404:App/Src/command.c **** {
 463              		.loc 1 404 1 is_stmt 1 view -0
 464              		.cfi_startproc
 465              		@ args = 0, pretend = 0, frame = 0
 466              		@ frame_needed = 0, uses_anonymous_args = 0
 467              		.loc 1 404 1 is_stmt 0 view .LVU69
 468 0000 08B5     		push	{r3, lr}
 469              	.LCFI13:
 470              		.cfi_def_cfa_offset 8
 471              		.cfi_offset 3, -8
 472              		.cfi_offset 14, -4
 405:App/Src/command.c **** 	static uint8_t state = 1;
 473              		.loc 1 405 2 is_stmt 1 view .LVU70
 406:App/Src/command.c **** 	state++;
 474              		.loc 1 406 2 view .LVU71
 475              		.loc 1 406 7 is_stmt 0 view .LVU72
 476 0002 0F4A     		ldr	r2, .L33
 477 0004 1378     		ldrb	r3, [r2]	@ zero_extendqisi2
 478 0006 0133     		adds	r3, r3, #1
 479 0008 DBB2     		uxtb	r3, r3
ARM GAS  C:\Users\86158\AppData\Local\Temp\cc1K5eBH.s 			page 17


 480 000a 1370     		strb	r3, [r2]
 407:App/Src/command.c **** 
 408:App/Src/command.c **** 	if (state % 2) {
 481              		.loc 1 408 2 is_stmt 1 view .LVU73
 482              		.loc 1 408 5 is_stmt 0 view .LVU74
 483 000c 13F0010F 		tst	r3, #1
 484 0010 0CD0     		beq	.L30
 409:App/Src/command.c **** 		UsbPrintf("VDD is 3.3V\n");
 485              		.loc 1 409 3 is_stmt 1 view .LVU75
 486 0012 0C48     		ldr	r0, .L33+4
 487              	.LVL33:
 488              		.loc 1 409 3 is_stmt 0 view .LVU76
 489 0014 FFF7FEFF 		bl	UsbPrintf
 490              	.LVL34:
 410:App/Src/command.c **** 		HAL_GPIO_WritePin(GPIOE, GPIO_PIN_14, GPIO_PIN_RESET); 
 491              		.loc 1 410 3 is_stmt 1 view .LVU77
 492 0018 0022     		movs	r2, #0
 493 001a 4FF48041 		mov	r1, #16384
 494 001e 0A48     		ldr	r0, .L33+8
 495 0020 FFF7FEFF 		bl	HAL_GPIO_WritePin
 496              	.LVL35:
 497              	.L31:
 411:App/Src/command.c **** 	} else {
 412:App/Src/command.c **** 		UsbPrintf("VDD is 5V\n");
 413:App/Src/command.c **** 		HAL_GPIO_WritePin(GPIOE, GPIO_PIN_14, GPIO_PIN_SET); 
 414:App/Src/command.c **** 
 415:App/Src/command.c **** 	}
 416:App/Src/command.c **** 	UsbPrintf("OK\n");
 498              		.loc 1 416 2 view .LVU78
 499 0024 0948     		ldr	r0, .L33+12
 500 0026 FFF7FEFF 		bl	UsbPrintf
 501              	.LVL36:
 417:App/Src/command.c **** }
 502              		.loc 1 417 1 is_stmt 0 view .LVU79
 503 002a 08BD     		pop	{r3, pc}
 504              	.LVL37:
 505              	.L30:
 412:App/Src/command.c **** 		HAL_GPIO_WritePin(GPIOE, GPIO_PIN_14, GPIO_PIN_SET); 
 506              		.loc 1 412 3 is_stmt 1 view .LVU80
 507 002c 0848     		ldr	r0, .L33+16
 508              	.LVL38:
 412:App/Src/command.c **** 		HAL_GPIO_WritePin(GPIOE, GPIO_PIN_14, GPIO_PIN_SET); 
 509              		.loc 1 412 3 is_stmt 0 view .LVU81
 510 002e FFF7FEFF 		bl	UsbPrintf
 511              	.LVL39:
 413:App/Src/command.c **** 
 512              		.loc 1 413 3 is_stmt 1 view .LVU82
 513 0032 0122     		movs	r2, #1
 514 0034 4FF48041 		mov	r1, #16384
 515 0038 0348     		ldr	r0, .L33+8
 516 003a FFF7FEFF 		bl	HAL_GPIO_WritePin
 517              	.LVL40:
 518 003e F1E7     		b	.L31
 519              	.L34:
 520              		.align	2
 521              	.L33:
 522 0040 00000000 		.word	.LANCHOR2
ARM GAS  C:\Users\86158\AppData\Local\Temp\cc1K5eBH.s 			page 18


 523 0044 00000000 		.word	.LC12
 524 0048 00100240 		.word	1073876992
 525 004c 1C000000 		.word	.LC14
 526 0050 10000000 		.word	.LC13
 527              		.cfi_endproc
 528              	.LFE252:
 530              		.section	.rodata.AT_SYSTEMP_Handle.str1.4,"aMS",%progbits,1
 531              		.align	2
 532              	.LC15:
 533 0000 0A737973 		.ascii	"\012system temp1 = %.1fC:\012\000"
 533      74656D20 
 533      74656D70 
 533      31203D20 
 533      252E3166 
 534              		.align	2
 535              	.LC16:
 536 0018 73797374 		.ascii	"system temp2 = %.1fC:\012\000"
 536      656D2074 
 536      656D7032 
 536      203D2025 
 536      2E316643 
 537              		.section	.text.AT_SYSTEMP_Handle,"ax",%progbits
 538              		.align	1
 539              		.global	AT_SYSTEMP_Handle
 540              		.syntax unified
 541              		.thumb
 542              		.thumb_func
 544              	AT_SYSTEMP_Handle:
 545              	.LVL41:
 546              	.LFB255:
 418:App/Src/command.c **** 
 419:App/Src/command.c **** void AT_FREQTEST_Handle(char* command)
 420:App/Src/command.c **** {
 421:App/Src/command.c **** 	int i;
 422:App/Src/command.c **** 	DevicePrintf(":MEAS?\n");
 423:App/Src/command.c **** 	for (i = 0; i < 15; i++) {
 424:App/Src/command.c **** 		HAL_Delay(100);
 425:App/Src/command.c **** 		if (strlen((char*)g_DeviceRxBuff) > 0) {
 426:App/Src/command.c **** 			UsbPrintf("%s\n", (char*)g_DeviceRxBuff);
 427:App/Src/command.c **** 			if (strSearch((char*)g_DeviceRxBuff, "Hz") > 0 || strSearch((char*)g_DeviceRxBuff, "PPM") > 0) {
 428:App/Src/command.c **** 				break;
 429:App/Src/command.c **** 			}
 430:App/Src/command.c **** 		}
 431:App/Src/command.c **** 	}
 432:App/Src/command.c **** 	if (i >= 15) {
 433:App/Src/command.c **** 		UsbPrintf("device no respose!\n");
 434:App/Src/command.c **** 	}
 435:App/Src/command.c **** 
 436:App/Src/command.c **** 	UsbPrintf("OK\n");
 437:App/Src/command.c **** }
 438:App/Src/command.c **** 
 439:App/Src/command.c **** void AT_READGROUP_Handle(char* command)
 440:App/Src/command.c **** {
 441:App/Src/command.c **** 	int channel;
 442:App/Src/command.c **** 	int i;
 443:App/Src/command.c ****     int reg, num = 0;
 444:App/Src/command.c **** 	uint8_t result[8] = {0};
ARM GAS  C:\Users\86158\AppData\Local\Temp\cc1K5eBH.s 			page 19


 445:App/Src/command.c **** 	uint8_t state = 0;
 446:App/Src/command.c **** 	if (CharToInt(command, 13, &channel) == 1) {
 447:App/Src/command.c **** 		num = strSearch(command, ",");
 448:App/Src/command.c **** 		if (num < 0 || channel < 0) { UsbPrintf("input error\n"); return; }
 449:App/Src/command.c **** 		CharToInt(command, num + 1, &reg);
 450:App/Src/command.c **** 		rtc_group_power(channel, POWER_I2C);
 451:App/Src/command.c **** 		rtc_set_channel(channel, RTC_SD8825);
 452:App/Src/command.c **** 		if (g_rtcChanenel != channel) {
 453:App/Src/command.c **** 			HAL_Delay(500);
 454:App/Src/command.c **** 			g_rtcChanenel = channel;
 455:App/Src/command.c **** 		}
 456:App/Src/command.c **** 		state = rtc_read_multi_bytes(0x64, reg, result, 8);
 457:App/Src/command.c **** 		UsbPrintf("read group[%d] state[%d] reg[0x%x]:", channel, state, reg);
 458:App/Src/command.c **** 		for (i = 0; i < 8; i++) {
 459:App/Src/command.c **** 			UsbPrintf("0x%02x ", result[i]);
 460:App/Src/command.c **** 		}
 461:App/Src/command.c **** 	}
 462:App/Src/command.c **** 	UsbPrintf("\nOK\n");
 463:App/Src/command.c **** 
 464:App/Src/command.c **** }
 465:App/Src/command.c **** 
 466:App/Src/command.c **** void AT_SYSTEMP_Handle(char* command)
 467:App/Src/command.c **** {
 547              		.loc 1 467 1 view -0
 548              		.cfi_startproc
 549              		@ args = 0, pretend = 0, frame = 0
 550              		@ frame_needed = 0, uses_anonymous_args = 0
 551              		.loc 1 467 1 is_stmt 0 view .LVU84
 552 0000 08B5     		push	{r3, lr}
 553              	.LCFI14:
 554              		.cfi_def_cfa_offset 8
 555              		.cfi_offset 3, -8
 556              		.cfi_offset 14, -4
 468:App/Src/command.c **** 	float temp;
 557              		.loc 1 468 2 is_stmt 1 view .LVU85
 469:App/Src/command.c **** 	temp = temp_read_value(1);
 558              		.loc 1 469 2 view .LVU86
 559              		.loc 1 469 9 is_stmt 0 view .LVU87
 560 0002 0120     		movs	r0, #1
 561              	.LVL42:
 562              		.loc 1 469 9 view .LVU88
 563 0004 FFF7FEFF 		bl	temp_read_value
 564              	.LVL43:
 565 0008 10EE100A 		vmov	r0, s0
 566              	.LVL44:
 470:App/Src/command.c **** 	UsbPrintf("\nsystem temp1 = %.1fC:\n", temp);
 567              		.loc 1 470 2 is_stmt 1 view .LVU89
 568 000c FFF7FEFF 		bl	__aeabi_f2d
 569              	.LVL45:
 570              		.loc 1 470 2 is_stmt 0 view .LVU90
 571 0010 0246     		mov	r2, r0
 572 0012 0B46     		mov	r3, r1
 573 0014 0948     		ldr	r0, .L37
 574 0016 FFF7FEFF 		bl	UsbPrintf
 575              	.LVL46:
 471:App/Src/command.c **** 	temp = temp_read_value(2);
 576              		.loc 1 471 2 is_stmt 1 view .LVU91
ARM GAS  C:\Users\86158\AppData\Local\Temp\cc1K5eBH.s 			page 20


 577              		.loc 1 471 9 is_stmt 0 view .LVU92
 578 001a 0220     		movs	r0, #2
 579 001c FFF7FEFF 		bl	temp_read_value
 580              	.LVL47:
 581 0020 10EE100A 		vmov	r0, s0
 582              	.LVL48:
 472:App/Src/command.c **** 	UsbPrintf("system temp2 = %.1fC:\n", temp);
 583              		.loc 1 472 2 is_stmt 1 view .LVU93
 584 0024 FFF7FEFF 		bl	__aeabi_f2d
 585              	.LVL49:
 586              		.loc 1 472 2 is_stmt 0 view .LVU94
 587 0028 0246     		mov	r2, r0
 588 002a 0B46     		mov	r3, r1
 589 002c 0448     		ldr	r0, .L37+4
 590 002e FFF7FEFF 		bl	UsbPrintf
 591              	.LVL50:
 473:App/Src/command.c **** 	UsbPrintf("\nOK\n");
 592              		.loc 1 473 2 is_stmt 1 view .LVU95
 593 0032 0448     		ldr	r0, .L37+8
 594 0034 FFF7FEFF 		bl	UsbPrintf
 595              	.LVL51:
 474:App/Src/command.c **** }
 596              		.loc 1 474 1 is_stmt 0 view .LVU96
 597 0038 08BD     		pop	{r3, pc}
 598              	.L38:
 599 003a 00BF     		.align	2
 600              	.L37:
 601 003c 00000000 		.word	.LC15
 602 0040 18000000 		.word	.LC16
 603 0044 70000000 		.word	.LC9
 604              		.cfi_endproc
 605              	.LFE255:
 607              		.section	.rodata.AT_WRITEFLASH_Handle.str1.4,"aMS",%progbits,1
 608              		.align	2
 609              	.LC17:
 610 0000 32303233 		.ascii	"2023.08.07 w25q128 flash log record test %03d\012\000"
 610      2E30382E 
 610      30372077 
 610      32357131 
 610      32382066 
 611 002f 00       		.align	2
 612              	.LC18:
 613 0030 77726974 		.ascii	"write OK\012\000"
 613      65204F4B 
 613      0A00
 614              		.section	.text.AT_WRITEFLASH_Handle,"ax",%progbits
 615              		.align	1
 616              		.global	AT_WRITEFLASH_Handle
 617              		.syntax unified
 618              		.thumb
 619              		.thumb_func
 621              	AT_WRITEFLASH_Handle:
 622              	.LVL52:
 623              	.LFB256:
 475:App/Src/command.c **** 
 476:App/Src/command.c **** 
 477:App/Src/command.c **** void AT_WRITEFLASH_Handle(char* command)
ARM GAS  C:\Users\86158\AppData\Local\Temp\cc1K5eBH.s 			page 21


 478:App/Src/command.c **** {
 624              		.loc 1 478 1 is_stmt 1 view -0
 625              		.cfi_startproc
 626              		@ args = 0, pretend = 0, frame = 0
 627              		@ frame_needed = 0, uses_anonymous_args = 0
 628              		.loc 1 478 1 is_stmt 0 view .LVU98
 629 0000 08B5     		push	{r3, lr}
 630              	.LCFI15:
 631              		.cfi_def_cfa_offset 8
 632              		.cfi_offset 3, -8
 633              		.cfi_offset 14, -4
 479:App/Src/command.c **** 	static uint8_t number = 0;
 634              		.loc 1 479 2 is_stmt 1 view .LVU99
 480:App/Src/command.c **** 	command = NULL;
 635              		.loc 1 480 2 view .LVU100
 636              	.LVL53:
 481:App/Src/command.c **** 	number++;
 637              		.loc 1 481 2 view .LVU101
 638              		.loc 1 481 8 is_stmt 0 view .LVU102
 639 0002 064B     		ldr	r3, .L41
 640 0004 1978     		ldrb	r1, [r3]	@ zero_extendqisi2
 641 0006 0131     		adds	r1, r1, #1
 642 0008 C9B2     		uxtb	r1, r1
 643 000a 1970     		strb	r1, [r3]
 482:App/Src/command.c **** 	log_printf("2023.08.07 w25q128 flash log record test %03d\n", number);
 644              		.loc 1 482 2 is_stmt 1 view .LVU103
 645 000c 0448     		ldr	r0, .L41+4
 646 000e FFF7FEFF 		bl	log_printf
 647              	.LVL54:
 483:App/Src/command.c **** 	UsbPrintf("write OK\n");
 648              		.loc 1 483 2 view .LVU104
 649 0012 0448     		ldr	r0, .L41+8
 650 0014 FFF7FEFF 		bl	UsbPrintf
 651              	.LVL55:
 484:App/Src/command.c **** }
 652              		.loc 1 484 1 is_stmt 0 view .LVU105
 653 0018 08BD     		pop	{r3, pc}
 654              	.L42:
 655 001a 00BF     		.align	2
 656              	.L41:
 657 001c 00000000 		.word	.LANCHOR3
 658 0020 00000000 		.word	.LC17
 659 0024 30000000 		.word	.LC18
 660              		.cfi_endproc
 661              	.LFE256:
 663              		.global	__aeabi_ui2d
 664              		.global	__aeabi_dmul
 665              		.global	__aeabi_d2uiz
 666              		.section	.rodata.AT_SYSVOLTAGE_Handle.str1.4,"aMS",%progbits,1
 667              		.align	2
 668              	.LC19:
 669 0000 0A332E33 		.ascii	"\0123.3V\011: %dmV\012\000"
 669      56093A20 
 669      25646D56 
 669      0A00
 670 000e 0000     		.align	2
 671              	.LC20:
ARM GAS  C:\Users\86158\AppData\Local\Temp\cc1K5eBH.s 			page 22


 672 0010 56434509 		.ascii	"VCE\011: %dmV\012\000"
 672      3A202564 
 672      6D560A00 
 673              		.align	2
 674              	.LC21:
 675 001c 3556093A 		.ascii	"5V\011: %dmV\012\000"
 675      2025646D 
 675      560A00
 676 0027 00       		.align	2
 677              	.LC22:
 678 0028 3956093A 		.ascii	"9V\011: %dmV\012\000"
 678      2025646D 
 678      560A00
 679              		.section	.text.AT_SYSVOLTAGE_Handle,"ax",%progbits
 680              		.align	1
 681              		.global	AT_SYSVOLTAGE_Handle
 682              		.syntax unified
 683              		.thumb
 684              		.thumb_func
 686              	AT_SYSVOLTAGE_Handle:
 687              	.LVL56:
 688              	.LFB260:
 485:App/Src/command.c **** 
 486:App/Src/command.c **** void AT_READFLASH_Handle(char* command)
 487:App/Src/command.c **** {
 488:App/Src/command.c **** 	int address;
 489:App/Src/command.c **** 	uint8_t str[256] = {0};
 490:App/Src/command.c **** 	int result;
 491:App/Src/command.c ****     int i;
 492:App/Src/command.c **** 	uint32_t pageCount;
 493:App/Src/command.c **** 
 494:App/Src/command.c **** 	if (strSearch(command, "=") > 0) {
 495:App/Src/command.c **** 		CharToInt(command, 13, &address);
 496:App/Src/command.c **** 		result = flash_read_data(address, str, 256);
 497:App/Src/command.c **** 		if (result == 1) {
 498:App/Src/command.c **** 			UsbPrintf("flash address[0x%x] print:\n%s\n", address, (char*)str);
 499:App/Src/command.c **** 		} else {
 500:App/Src/command.c **** 			UsbPrintf("read error %d\n", result);
 501:App/Src/command.c **** 		}
 502:App/Src/command.c **** 	} else {
 503:App/Src/command.c **** 		pageCount = get_log_record_pages();
 504:App/Src/command.c **** 		UsbPrintf("log use pages %d/%d:\n", pageCount, LOG_MAX_PAGE);
 505:App/Src/command.c **** 		for (i = 0; i < pageCount; i++) {
 506:App/Src/command.c **** 			flash_read_data(LOG_START_ADDR + i * PAGE_SIZE, str, PAGE_SIZE);
 507:App/Src/command.c **** 			UsbPrintf("%s\n", (char*)str);
 508:App/Src/command.c **** 		}
 509:App/Src/command.c **** 		UsbPrintf("all log print success\n"); 
 510:App/Src/command.c **** 	} 
 511:App/Src/command.c **** }
 512:App/Src/command.c **** 
 513:App/Src/command.c **** void AT_ERASEFLASH_Handle(char* command)
 514:App/Src/command.c **** {
 515:App/Src/command.c **** 	int mode, address;
 516:App/Src/command.c **** 	int i = 0;
 517:App/Src/command.c **** 	if (CharToInt(command, 14, &mode) == 1) {
 518:App/Src/command.c **** 		CharToInt(command, strSearch(command, ",") + 1, &address);
 519:App/Src/command.c **** 		if (mode >= 0 && mode <= 2) {
ARM GAS  C:\Users\86158\AppData\Local\Temp\cc1K5eBH.s 			page 23


 520:App/Src/command.c **** 			flash_erase(address, mode);
 521:App/Src/command.c **** 			UsbPrintf("earse full chip need 40s ~ 200s\n");
 522:App/Src/command.c **** 			if (mode == 0) { 
 523:App/Src/command.c **** 				for (i = 0; i < 100; i++) {
 524:App/Src/command.c **** 					HAL_Delay(2000);
 525:App/Src/command.c **** 					UsbPrintf("wait for %ds...\n", (i + 1) * 2);
 526:App/Src/command.c **** 					if (CheckBusy() == 1) {
 527:App/Src/command.c **** 						break;
 528:App/Src/command.c **** 					}
 529:App/Src/command.c **** 				}
 530:App/Src/command.c **** 				log_list_init(); 
 531:App/Src/command.c **** 			}
 532:App/Src/command.c **** 			UsbPrintf("OK\n");
 533:App/Src/command.c **** 		}
 534:App/Src/command.c **** 	} else {
 535:App/Src/command.c **** 		UsbPrintf("input error!\n");
 536:App/Src/command.c **** 	} 
 537:App/Src/command.c **** }
 538:App/Src/command.c **** 
 539:App/Src/command.c **** void AT_SETCURRENT_Handle(char* command)
 540:App/Src/command.c **** {
 541:App/Src/command.c **** 	int mode, number;
 542:App/Src/command.c **** 	if (CharToInt(command, 14, &mode) == 1) {
 543:App/Src/command.c **** 		CharToInt(command, strSearch(command, ",") + 1, &number);
 544:App/Src/command.c **** 		if (mode == 0) {
 545:App/Src/command.c **** 			rtc_group_power(number, POWER_OFF);
 546:App/Src/command.c **** 		} else if (mode == 1) {
 547:App/Src/command.c **** 			HAL_Delay(5);
 548:App/Src/command.c **** 			rtc_group_power(number, POWER_VDD_I);
 549:App/Src/command.c **** 		} else if (mode == 2) {
 550:App/Src/command.c **** 			HAL_Delay(5);
 551:App/Src/command.c **** 			rtc_group_power(number, POWER_BAT_I);
 552:App/Src/command.c **** 		}
 553:App/Src/command.c **** 		UsbPrintf("current setting :mode %d, channel %d \nOK!\n", mode, number);
 554:App/Src/command.c **** 	} else {
 555:App/Src/command.c **** 		UsbPrintf("input error!\n");
 556:App/Src/command.c **** 	} 
 557:App/Src/command.c **** }
 558:App/Src/command.c **** void AT_SYSVOLTAGE_Handle(char* command)
 559:App/Src/command.c **** {
 689              		.loc 1 559 1 is_stmt 1 view -0
 690              		.cfi_startproc
 691              		@ args = 0, pretend = 0, frame = 0
 692              		@ frame_needed = 0, uses_anonymous_args = 0
 693              		.loc 1 559 1 is_stmt 0 view .LVU107
 694 0000 10B5     		push	{r4, lr}
 695              	.LCFI16:
 696              		.cfi_def_cfa_offset 8
 697              		.cfi_offset 4, -8
 698              		.cfi_offset 14, -4
 560:App/Src/command.c **** 	uint32_t voltage;
 699              		.loc 1 560 2 is_stmt 1 view .LVU108
 561:App/Src/command.c **** 	voltage = ststem_voltage(0) * 3300 * 4.6 / 4096;
 700              		.loc 1 561 2 view .LVU109
 701              		.loc 1 561 12 is_stmt 0 view .LVU110
 702 0002 0020     		movs	r0, #0
 703              	.LVL57:
ARM GAS  C:\Users\86158\AppData\Local\Temp\cc1K5eBH.s 			page 24


 704              		.loc 1 561 12 view .LVU111
 705 0004 FFF7FEFF 		bl	ststem_voltage
 706              	.LVL58:
 707              		.loc 1 561 30 view .LVU112
 708 0008 40F6E444 		movw	r4, #3300
 709              		.loc 1 561 37 view .LVU113
 710 000c 04FB00F0 		mul	r0, r4, r0
 711 0010 FFF7FEFF 		bl	__aeabi_ui2d
 712              	.LVL59:
 713 0014 2AA3     		adr	r3, .L45
 714 0016 D3E90023 		ldrd	r2, [r3]
 715 001a FFF7FEFF 		bl	__aeabi_dmul
 716              	.LVL60:
 717              		.loc 1 561 43 view .LVU114
 718 001e 0022     		movs	r2, #0
 719 0020 294B     		ldr	r3, .L45+8
 720 0022 FFF7FEFF 		bl	__aeabi_dmul
 721              	.LVL61:
 722              		.loc 1 561 10 view .LVU115
 723 0026 FFF7FEFF 		bl	__aeabi_d2uiz
 724              	.LVL62:
 725 002a 0146     		mov	r1, r0
 726              	.LVL63:
 562:App/Src/command.c **** 	UsbPrintf("\n3.3V\t: %dmV\n", voltage);
 727              		.loc 1 562 2 is_stmt 1 view .LVU116
 728 002c 2748     		ldr	r0, .L45+12
 729              	.LVL64:
 730              		.loc 1 562 2 is_stmt 0 view .LVU117
 731 002e FFF7FEFF 		bl	UsbPrintf
 732              	.LVL65:
 563:App/Src/command.c **** 	voltage = ststem_voltage(1) * 3300 * 4.6 / 4096;
 733              		.loc 1 563 2 is_stmt 1 view .LVU118
 734              		.loc 1 563 12 is_stmt 0 view .LVU119
 735 0032 0120     		movs	r0, #1
 736 0034 FFF7FEFF 		bl	ststem_voltage
 737              	.LVL66:
 738              		.loc 1 563 37 view .LVU120
 739 0038 04FB00F0 		mul	r0, r4, r0
 740 003c FFF7FEFF 		bl	__aeabi_ui2d
 741              	.LVL67:
 742 0040 1FA3     		adr	r3, .L45
 743 0042 D3E90023 		ldrd	r2, [r3]
 744 0046 FFF7FEFF 		bl	__aeabi_dmul
 745              	.LVL68:
 746              		.loc 1 563 43 view .LVU121
 747 004a 0022     		movs	r2, #0
 748 004c 1E4B     		ldr	r3, .L45+8
 749 004e FFF7FEFF 		bl	__aeabi_dmul
 750              	.LVL69:
 751              		.loc 1 563 10 view .LVU122
 752 0052 FFF7FEFF 		bl	__aeabi_d2uiz
 753              	.LVL70:
 754 0056 0146     		mov	r1, r0
 755              	.LVL71:
 564:App/Src/command.c **** 	UsbPrintf("VCE\t: %dmV\n", voltage);
 756              		.loc 1 564 2 is_stmt 1 view .LVU123
 757 0058 1D48     		ldr	r0, .L45+16
ARM GAS  C:\Users\86158\AppData\Local\Temp\cc1K5eBH.s 			page 25


 758              	.LVL72:
 759              		.loc 1 564 2 is_stmt 0 view .LVU124
 760 005a FFF7FEFF 		bl	UsbPrintf
 761              	.LVL73:
 565:App/Src/command.c **** 	voltage = ststem_voltage(8) * 3300 * 4.6 / 4096;
 762              		.loc 1 565 2 is_stmt 1 view .LVU125
 763              		.loc 1 565 12 is_stmt 0 view .LVU126
 764 005e 0820     		movs	r0, #8
 765 0060 FFF7FEFF 		bl	ststem_voltage
 766              	.LVL74:
 767              		.loc 1 565 37 view .LVU127
 768 0064 04FB00F0 		mul	r0, r4, r0
 769 0068 FFF7FEFF 		bl	__aeabi_ui2d
 770              	.LVL75:
 771 006c 14A3     		adr	r3, .L45
 772 006e D3E90023 		ldrd	r2, [r3]
 773 0072 FFF7FEFF 		bl	__aeabi_dmul
 774              	.LVL76:
 775              		.loc 1 565 43 view .LVU128
 776 0076 0022     		movs	r2, #0
 777 0078 134B     		ldr	r3, .L45+8
 778 007a FFF7FEFF 		bl	__aeabi_dmul
 779              	.LVL77:
 780              		.loc 1 565 10 view .LVU129
 781 007e FFF7FEFF 		bl	__aeabi_d2uiz
 782              	.LVL78:
 783 0082 0146     		mov	r1, r0
 784              	.LVL79:
 566:App/Src/command.c **** 	UsbPrintf("5V\t: %dmV\n", voltage);
 785              		.loc 1 566 2 is_stmt 1 view .LVU130
 786 0084 1348     		ldr	r0, .L45+20
 787              	.LVL80:
 788              		.loc 1 566 2 is_stmt 0 view .LVU131
 789 0086 FFF7FEFF 		bl	UsbPrintf
 790              	.LVL81:
 567:App/Src/command.c **** 	voltage = ststem_voltage(9) * 3300 * 4.6 / 4096;
 791              		.loc 1 567 2 is_stmt 1 view .LVU132
 792              		.loc 1 567 12 is_stmt 0 view .LVU133
 793 008a 0920     		movs	r0, #9
 794 008c FFF7FEFF 		bl	ststem_voltage
 795              	.LVL82:
 796              		.loc 1 567 37 view .LVU134
 797 0090 04FB00F0 		mul	r0, r4, r0
 798 0094 FFF7FEFF 		bl	__aeabi_ui2d
 799              	.LVL83:
 800 0098 09A3     		adr	r3, .L45
 801 009a D3E90023 		ldrd	r2, [r3]
 802 009e FFF7FEFF 		bl	__aeabi_dmul
 803              	.LVL84:
 804              		.loc 1 567 43 view .LVU135
 805 00a2 0022     		movs	r2, #0
 806 00a4 084B     		ldr	r3, .L45+8
 807 00a6 FFF7FEFF 		bl	__aeabi_dmul
 808              	.LVL85:
 809              		.loc 1 567 10 view .LVU136
 810 00aa FFF7FEFF 		bl	__aeabi_d2uiz
 811              	.LVL86:
ARM GAS  C:\Users\86158\AppData\Local\Temp\cc1K5eBH.s 			page 26


 812 00ae 0146     		mov	r1, r0
 813              	.LVL87:
 568:App/Src/command.c **** 	UsbPrintf("9V\t: %dmV\n", voltage);
 814              		.loc 1 568 2 is_stmt 1 view .LVU137
 815 00b0 0948     		ldr	r0, .L45+24
 816              	.LVL88:
 817              		.loc 1 568 2 is_stmt 0 view .LVU138
 818 00b2 FFF7FEFF 		bl	UsbPrintf
 819              	.LVL89:
 569:App/Src/command.c **** 	UsbPrintf("OK\n");
 820              		.loc 1 569 2 is_stmt 1 view .LVU139
 821 00b6 0948     		ldr	r0, .L45+28
 822 00b8 FFF7FEFF 		bl	UsbPrintf
 823              	.LVL90:
 570:App/Src/command.c **** }
 824              		.loc 1 570 1 is_stmt 0 view .LVU140
 825 00bc 10BD     		pop	{r4, pc}
 826              	.L46:
 827 00be 00BF     		.align	3
 828              	.L45:
 829 00c0 66666666 		.word	1717986918
 830 00c4 66661240 		.word	1074947686
 831 00c8 0000303F 		.word	1060110336
 832 00cc 00000000 		.word	.LC19
 833 00d0 10000000 		.word	.LC20
 834 00d4 1C000000 		.word	.LC21
 835 00d8 28000000 		.word	.LC22
 836 00dc 1C000000 		.word	.LC14
 837              		.cfi_endproc
 838              	.LFE260:
 840              		.section	.rodata.AT_TESTFLAG_Handle.str1.4,"aMS",%progbits,1
 841              		.align	2
 842              	.LC23:
 843 0000 63686970 		.ascii	"chip group flag: config9, 5test, calculate, downloa"
 843      2067726F 
 843      75702066 
 843      6C61673A 
 843      20636F6E 
 844 0033 642C206D 		.ascii	"d, machine, takedown\012\000"
 844      61636869 
 844      6E652C20 
 844      74616B65 
 844      646F776E 
 845 0049 000000   		.align	2
 846              	.LC24:
 847 004c 0A5B2530 		.ascii	"\012[%02d]\000"
 847      32645D00 
 848              		.align	2
 849              	.LC25:
 850 0054 25303258 		.ascii	"%02X\011\000"
 850      0900
 851 005a 0000     		.align	2
 852              	.LC26:
 853 005c 310900   		.ascii	"1\011\000"
 854 005f 00       		.align	2
 855              	.LC27:
 856 0060 0A20636F 		.ascii	"\012 count: %d\012\000"
ARM GAS  C:\Users\86158\AppData\Local\Temp\cc1K5eBH.s 			page 27


 856      756E743A 
 856      2025640A 
 856      00
 857              		.section	.text.AT_TESTFLAG_Handle,"ax",%progbits
 858              		.align	1
 859              		.global	AT_TESTFLAG_Handle
 860              		.syntax unified
 861              		.thumb
 862              		.thumb_func
 864              	AT_TESTFLAG_Handle:
 865              	.LVL91:
 866              	.LFB264:
 571:App/Src/command.c **** 
 572:App/Src/command.c **** void AT_SYSTEST_Handle(char* command)
 573:App/Src/command.c **** {
 574:App/Src/command.c **** 	int number;
 575:App/Src/command.c **** 	if (CharToInt(command, 11, &number) == 1) {
 576:App/Src/command.c **** 		if (number < FREE_MODE || number > MACHINE_WRITE) {
 577:App/Src/command.c **** 			UsbPrintf("no this test mode!\n");
 578:App/Src/command.c **** 			return;
 579:App/Src/command.c **** 		}
 580:App/Src/command.c **** 		manager_set_mode(number);
 581:App/Src/command.c **** 	}
 582:App/Src/command.c **** 	UsbPrintf("\nOK\n");
 583:App/Src/command.c **** }
 584:App/Src/command.c **** 
 585:App/Src/command.c **** void AT_TESTMODE_Handle(char* command)//取料机查询状态
 586:App/Src/command.c **** {
 587:App/Src/command.c **** 	DevicePrintf("mode:0\n");
 588:App/Src/command.c **** 	UsbPrintf("mode:0\n");
 589:App/Src/command.c **** }
 590:App/Src/command.c **** 
 591:App/Src/command.c **** 
 592:App/Src/command.c **** void AT_RESULT_Handle(char* command)//取料机查询信息
 593:App/Src/command.c **** {
 594:App/Src/command.c **** 	uint8_t g_result[MAX_CHIP_NUMBER] = {
 595:App/Src/command.c **** 	1, 1, 1, 1, 1, 1, 1, 1, 1, 1,
 596:App/Src/command.c **** 	1, 1, 1, 1, 1, 1, 1, 1, 1, 1,
 597:App/Src/command.c **** 	1, 1, 1, 1, 1, 1, 1, 1, 1, 1,
 598:App/Src/command.c **** 	1, 1, 1, 1, 1, 1, 1, 1, 1, 1,
 599:App/Src/command.c **** 	1, 1, 1, 1, 1, 1, 1, 1, 1, 1,
 600:App/Src/command.c **** 	};
 601:App/Src/command.c **** 	uint8_t input[MAX_CHIP_NUMBER] = {5};
 602:App/Src/command.c **** 	int i, j;
 603:App/Src/command.c **** 	uint8_t all = 0, ok = 0, ng = 0;
 604:App/Src/command.c **** 	uint8_t length;
 605:App/Src/command.c **** 	uint8_t getNumber = 0;
 606:App/Src/command.c **** 
 607:App/Src/command.c **** 
 608:App/Src/command.c **** 	if (strSearch((char*)g_DeviceRxBuff, "AT^RESULT?") == 0 || strSearch((char*)g_UsbRxBuff, "AT^RESUL
 609:App/Src/command.c **** 		for (i = 0; i < MAX_CHIP_NUMBER; i++) {
 610:App/Src/command.c **** 			if (g_result[i] < 2) {
 611:App/Src/command.c **** 				all++;
 612:App/Src/command.c **** 				if (g_result[i] == 0) {
 613:App/Src/command.c **** 					ng++;
 614:App/Src/command.c **** 				} else {
 615:App/Src/command.c **** 					ok++;
ARM GAS  C:\Users\86158\AppData\Local\Temp\cc1K5eBH.s 			page 28


 616:App/Src/command.c **** 				}
 617:App/Src/command.c **** 			}
 618:App/Src/command.c **** 		}
 619:App/Src/command.c **** 		UsbPrintf("all:%d,ok:%d,ng:%d\n", all, ok, ng);
 620:App/Src/command.c **** 		DevicePrintf("all:%d,ok:%d,ng:%d\n", all, ok, ng);
 621:App/Src/command.c **** 		for(i = 0; i < MAX_CHIP_NUMBER; i++) {
 622:App/Src/command.c **** 			if (i % 10 == 0) {
 623:App/Src/command.c **** 				if (i > 0) {
 624:App/Src/command.c **** 					UsbPrintf("]\n");
 625:App/Src/command.c **** 					DevicePrintf("]\n");
 626:App/Src/command.c **** 				}
 627:App/Src/command.c **** 				UsbPrintf("[");
 628:App/Src/command.c **** 				DevicePrintf("[");
 629:App/Src/command.c **** 			}
 630:App/Src/command.c **** 			UsbPrintf("%c", g_result[i] + '0');
 631:App/Src/command.c **** 			DevicePrintf("%c", g_result[i] + '0');
 632:App/Src/command.c **** 		}
 633:App/Src/command.c **** 		UsbPrintf("]\n");
 634:App/Src/command.c **** 		DevicePrintf("]\n");
 635:App/Src/command.c **** 	} else {
 636:App/Src/command.c **** 		length = strlen((char*)g_DeviceRxBuff);
 637:App/Src/command.c **** 		getNumber = 0;
 638:App/Src/command.c **** 		for (i = 0; i < length; i++) {
 639:App/Src/command.c **** 			if (g_DeviceRxBuff[i] == '[') {
 640:App/Src/command.c **** 				for (j = i; j < length; j++) {
 641:App/Src/command.c **** 					if (g_DeviceRxBuff[j] == '0' || g_DeviceRxBuff[j] == '1' || g_DeviceRxBuff[j] == 'N') {
 642:App/Src/command.c **** 						if (getNumber == MAX_CHIP_NUMBER) {//数量超范围了，肯定是错误数据	
 643:App/Src/command.c **** 							DevicePrintf("ERROR\n");
 644:App/Src/command.c **** 							return; 
 645:App/Src/command.c **** 						}
 646:App/Src/command.c **** 						input[getNumber] = g_DeviceRxBuff[j] - '0';
 647:App/Src/command.c **** 						getNumber++;
 648:App/Src/command.c **** 					} else if (g_DeviceRxBuff[j] == ']') {
 649:App/Src/command.c **** 						i = j;
 650:App/Src/command.c **** 						break;
 651:App/Src/command.c **** 					} else if (g_DeviceRxBuff[j] == '[') {
 652:App/Src/command.c **** 						continue;
 653:App/Src/command.c **** 					} else {//遇到异常字符
 654:App/Src/command.c **** 						DevicePrintf("ERROR\n");
 655:App/Src/command.c **** 						return; 
 656:App/Src/command.c **** 					}
 657:App/Src/command.c **** 				}
 658:App/Src/command.c **** 			}
 659:App/Src/command.c **** 			if (getNumber == 84) {	break; }
 660:App/Src/command.c **** 		}
 661:App/Src/command.c **** 		for (i = 0; i < MAX_CHIP_NUMBER; i++) {
 662:App/Src/command.c **** 			if (input[i] != g_result[i]) {
 663:App/Src/command.c **** 				DevicePrintf("ERROR\n");
 664:App/Src/command.c **** 				return; 
 665:App/Src/command.c **** 			}
 666:App/Src/command.c **** 		}
 667:App/Src/command.c **** 		DevicePrintf("OK\n");
 668:App/Src/command.c **** 	}
 669:App/Src/command.c **** }
 670:App/Src/command.c **** 
 671:App/Src/command.c **** void AT_TESTFLAG_Handle(char* command)
 672:App/Src/command.c **** {
ARM GAS  C:\Users\86158\AppData\Local\Temp\cc1K5eBH.s 			page 29


 867              		.loc 1 672 1 is_stmt 1 view -0
 868              		.cfi_startproc
 869              		@ args = 0, pretend = 0, frame = 56
 870              		@ frame_needed = 0, uses_anonymous_args = 0
 871              		.loc 1 672 1 is_stmt 0 view .LVU142
 872 0000 70B5     		push	{r4, r5, r6, lr}
 873              	.LCFI17:
 874              		.cfi_def_cfa_offset 16
 875              		.cfi_offset 4, -16
 876              		.cfi_offset 5, -12
 877              		.cfi_offset 6, -8
 878              		.cfi_offset 14, -4
 879 0002 8EB0     		sub	sp, sp, #56
 880              	.LCFI18:
 881              		.cfi_def_cfa_offset 72
 673:App/Src/command.c **** 	uint8_t buffer[MAX_CHIP_NUMBER] = {0xff};
 882              		.loc 1 673 2 is_stmt 1 view .LVU143
 883              		.loc 1 673 10 is_stmt 0 view .LVU144
 884 0004 FF23     		movs	r3, #255
 885 0006 0193     		str	r3, [sp, #4]
 886 0008 2E22     		movs	r2, #46
 887 000a 0021     		movs	r1, #0
 888 000c 02A8     		add	r0, sp, #8
 889              	.LVL92:
 890              		.loc 1 673 10 view .LVU145
 891 000e FFF7FEFF 		bl	memset
 892              	.LVL93:
 674:App/Src/command.c **** 	uint32_t address;
 893              		.loc 1 674 2 is_stmt 1 view .LVU146
 675:App/Src/command.c **** 	uint8_t count;
 894              		.loc 1 675 2 view .LVU147
 676:App/Src/command.c **** 	int i, j;
 895              		.loc 1 676 2 view .LVU148
 677:App/Src/command.c **** 	UsbPrintf("chip group flag: config9, 5test, calculate, download, machine, takedown\n");
 896              		.loc 1 677 2 view .LVU149
 897 0012 2748     		ldr	r0, .L63
 898 0014 FFF7FEFF 		bl	UsbPrintf
 899              	.LVL94:
 678:App/Src/command.c **** 	for (j = 0; j < 6; j++) {
 900              		.loc 1 678 2 view .LVU150
 901              		.loc 1 678 9 is_stmt 0 view .LVU151
 902 0018 0026     		movs	r6, #0
 903              		.loc 1 678 2 view .LVU152
 904 001a 37E0     		b	.L48
 905              	.LVL95:
 906              	.L60:
 679:App/Src/command.c **** 		memset(buffer, 0xff, MAX_CHIP_NUMBER);
 680:App/Src/command.c **** 		address = TEST_FALG_START_ADDR + j * PAGE_SIZE;
 681:App/Src/command.c **** 		flash_read_data(address, buffer, MAX_CHIP_NUMBER);
 682:App/Src/command.c **** 		count = 0;
 683:App/Src/command.c **** 		for (i = 0; i < MAX_CHIP_NUMBER ; i++) {
 684:App/Src/command.c **** 			if (i % 10 == 0) {
 685:App/Src/command.c **** 				UsbPrintf("\n[%02d]", i + 1);
 907              		.loc 1 685 5 is_stmt 1 view .LVU153
 908 001c 611C     		adds	r1, r4, #1
 909 001e 2548     		ldr	r0, .L63+4
 910 0020 FFF7FEFF 		bl	UsbPrintf
ARM GAS  C:\Users\86158\AppData\Local\Temp\cc1K5eBH.s 			page 30


 911              	.LVL96:
 912 0024 1EE0     		b	.L50
 913              	.L61:
 686:App/Src/command.c **** 			}
 687:App/Src/command.c **** 			if (j == 1) {
 688:App/Src/command.c **** 				if (buffer[i] == 0xE0) {
 914              		.loc 1 688 5 view .LVU154
 915              		.loc 1 688 15 is_stmt 0 view .LVU155
 916 0026 04F13803 		add	r3, r4, #56
 917 002a 6B44     		add	r3, sp, r3
 918 002c 13F8341C 		ldrb	r1, [r3, #-52]	@ zero_extendqisi2
 919              		.loc 1 688 8 view .LVU156
 920 0030 E029     		cmp	r1, #224
 921 0032 03D0     		beq	.L58
 922              	.L52:
 689:App/Src/command.c **** 					count++;
 690:App/Src/command.c **** 				}
 691:App/Src/command.c **** 				UsbPrintf("%02X\t", buffer[i]);
 923              		.loc 1 691 5 is_stmt 1 view .LVU157
 924 0034 2048     		ldr	r0, .L63+8
 925 0036 FFF7FEFF 		bl	UsbPrintf
 926              	.LVL97:
 927 003a 05E0     		b	.L53
 928              	.L58:
 689:App/Src/command.c **** 					count++;
 929              		.loc 1 689 6 view .LVU158
 689:App/Src/command.c **** 					count++;
 930              		.loc 1 689 11 is_stmt 0 view .LVU159
 931 003c 0135     		adds	r5, r5, #1
 932              	.LVL98:
 689:App/Src/command.c **** 					count++;
 933              		.loc 1 689 11 view .LVU160
 934 003e EDB2     		uxtb	r5, r5
 935              	.LVL99:
 689:App/Src/command.c **** 					count++;
 936              		.loc 1 689 11 view .LVU161
 937 0040 F8E7     		b	.L52
 938              	.L54:
 692:App/Src/command.c **** 			} else {
 693:App/Src/command.c **** 				if (buffer[i] == '1') {
 694:App/Src/command.c **** 					count++;
 695:App/Src/command.c **** 					UsbPrintf("1\t");
 696:App/Src/command.c **** 				} else {
 697:App/Src/command.c **** 					UsbPrintf("%02X\t", buffer[i]);
 939              		.loc 1 697 6 is_stmt 1 view .LVU162
 940 0042 1D48     		ldr	r0, .L63+8
 941 0044 FFF7FEFF 		bl	UsbPrintf
 942              	.LVL100:
 943              	.L53:
 683:App/Src/command.c **** 			if (i % 10 == 0) {
 944              		.loc 1 683 37 discriminator 2 view .LVU163
 683:App/Src/command.c **** 			if (i % 10 == 0) {
 945              		.loc 1 683 38 is_stmt 0 discriminator 2 view .LVU164
 946 0048 0134     		adds	r4, r4, #1
 947              	.LVL101:
 948              	.L49:
 683:App/Src/command.c **** 			if (i % 10 == 0) {
ARM GAS  C:\Users\86158\AppData\Local\Temp\cc1K5eBH.s 			page 31


 949              		.loc 1 683 15 is_stmt 1 discriminator 1 view .LVU165
 683:App/Src/command.c **** 			if (i % 10 == 0) {
 950              		.loc 1 683 3 is_stmt 0 discriminator 1 view .LVU166
 951 004a 312C     		cmp	r4, #49
 952 004c 19DC     		bgt	.L59
 684:App/Src/command.c **** 				UsbPrintf("\n[%02d]", i + 1);
 953              		.loc 1 684 4 is_stmt 1 view .LVU167
 684:App/Src/command.c **** 				UsbPrintf("\n[%02d]", i + 1);
 954              		.loc 1 684 10 is_stmt 0 view .LVU168
 955 004e 1B4A     		ldr	r2, .L63+12
 956 0050 82FB0432 		smull	r3, r2, r2, r4
 957 0054 E317     		asrs	r3, r4, #31
 958 0056 C3EBA203 		rsb	r3, r3, r2, asr #2
 959 005a 03EB8303 		add	r3, r3, r3, lsl #2
 960 005e 5A00     		lsls	r2, r3, #1
 684:App/Src/command.c **** 				UsbPrintf("\n[%02d]", i + 1);
 961              		.loc 1 684 7 view .LVU169
 962 0060 9442     		cmp	r4, r2
 963 0062 DBD0     		beq	.L60
 964              	.L50:
 687:App/Src/command.c **** 				if (buffer[i] == 0xE0) {
 965              		.loc 1 687 4 is_stmt 1 view .LVU170
 687:App/Src/command.c **** 				if (buffer[i] == 0xE0) {
 966              		.loc 1 687 7 is_stmt 0 view .LVU171
 967 0064 012E     		cmp	r6, #1
 968 0066 DED0     		beq	.L61
 693:App/Src/command.c **** 					count++;
 969              		.loc 1 693 5 is_stmt 1 view .LVU172
 693:App/Src/command.c **** 					count++;
 970              		.loc 1 693 15 is_stmt 0 view .LVU173
 971 0068 04F13803 		add	r3, r4, #56
 972 006c 6B44     		add	r3, sp, r3
 973 006e 13F8341C 		ldrb	r1, [r3, #-52]	@ zero_extendqisi2
 693:App/Src/command.c **** 					count++;
 974              		.loc 1 693 8 view .LVU174
 975 0072 3129     		cmp	r1, #49
 976 0074 E5D1     		bne	.L54
 694:App/Src/command.c **** 					UsbPrintf("1\t");
 977              		.loc 1 694 6 is_stmt 1 view .LVU175
 694:App/Src/command.c **** 					UsbPrintf("1\t");
 978              		.loc 1 694 11 is_stmt 0 view .LVU176
 979 0076 0135     		adds	r5, r5, #1
 980              	.LVL102:
 694:App/Src/command.c **** 					UsbPrintf("1\t");
 981              		.loc 1 694 11 view .LVU177
 982 0078 EDB2     		uxtb	r5, r5
 983              	.LVL103:
 695:App/Src/command.c **** 				} else {
 984              		.loc 1 695 6 is_stmt 1 view .LVU178
 985 007a 1148     		ldr	r0, .L63+16
 986 007c FFF7FEFF 		bl	UsbPrintf
 987              	.LVL104:
 988 0080 E2E7     		b	.L53
 989              	.L59:
 698:App/Src/command.c **** 				}
 699:App/Src/command.c **** 			}
 700:App/Src/command.c **** 		}
ARM GAS  C:\Users\86158\AppData\Local\Temp\cc1K5eBH.s 			page 32


 701:App/Src/command.c **** 		UsbPrintf("\n count: %d\n", count);
 990              		.loc 1 701 3 discriminator 2 view .LVU179
 991 0082 2946     		mov	r1, r5
 992 0084 0F48     		ldr	r0, .L63+20
 993 0086 FFF7FEFF 		bl	UsbPrintf
 994              	.LVL105:
 678:App/Src/command.c **** 		memset(buffer, 0xff, MAX_CHIP_NUMBER);
 995              		.loc 1 678 21 discriminator 2 view .LVU180
 678:App/Src/command.c **** 		memset(buffer, 0xff, MAX_CHIP_NUMBER);
 996              		.loc 1 678 22 is_stmt 0 discriminator 2 view .LVU181
 997 008a 0136     		adds	r6, r6, #1
 998              	.LVL106:
 999              	.L48:
 678:App/Src/command.c **** 		memset(buffer, 0xff, MAX_CHIP_NUMBER);
 1000              		.loc 1 678 14 is_stmt 1 discriminator 1 view .LVU182
 678:App/Src/command.c **** 		memset(buffer, 0xff, MAX_CHIP_NUMBER);
 1001              		.loc 1 678 2 is_stmt 0 discriminator 1 view .LVU183
 1002 008c 052E     		cmp	r6, #5
 1003 008e 0CDC     		bgt	.L62
 679:App/Src/command.c **** 		address = TEST_FALG_START_ADDR + j * PAGE_SIZE;
 1004              		.loc 1 679 3 is_stmt 1 view .LVU184
 1005 0090 3222     		movs	r2, #50
 1006 0092 FF21     		movs	r1, #255
 1007 0094 01A8     		add	r0, sp, #4
 1008 0096 FFF7FEFF 		bl	memset
 1009              	.LVL107:
 680:App/Src/command.c **** 		flash_read_data(address, buffer, MAX_CHIP_NUMBER);
 1010              		.loc 1 680 3 view .LVU185
 681:App/Src/command.c **** 		count = 0;
 1011              		.loc 1 681 3 view .LVU186
 1012 009a 3222     		movs	r2, #50
 1013 009c 01A9     		add	r1, sp, #4
 1014 009e 3002     		lsls	r0, r6, #8
 1015              	.LVL108:
 681:App/Src/command.c **** 		count = 0;
 1016              		.loc 1 681 3 is_stmt 0 view .LVU187
 1017 00a0 FFF7FEFF 		bl	flash_read_data
 1018              	.LVL109:
 682:App/Src/command.c **** 		for (i = 0; i < MAX_CHIP_NUMBER ; i++) {
 1019              		.loc 1 682 3 is_stmt 1 view .LVU188
 683:App/Src/command.c **** 			if (i % 10 == 0) {
 1020              		.loc 1 683 3 view .LVU189
 683:App/Src/command.c **** 			if (i % 10 == 0) {
 1021              		.loc 1 683 10 is_stmt 0 view .LVU190
 1022 00a4 0024     		movs	r4, #0
 682:App/Src/command.c **** 		for (i = 0; i < MAX_CHIP_NUMBER ; i++) {
 1023              		.loc 1 682 9 view .LVU191
 1024 00a6 2546     		mov	r5, r4
 683:App/Src/command.c **** 			if (i % 10 == 0) {
 1025              		.loc 1 683 3 view .LVU192
 1026 00a8 CFE7     		b	.L49
 1027              	.LVL110:
 1028              	.L62:
 702:App/Src/command.c **** 	}
 703:App/Src/command.c **** }
 1029              		.loc 1 703 1 view .LVU193
 1030 00aa 0EB0     		add	sp, sp, #56
ARM GAS  C:\Users\86158\AppData\Local\Temp\cc1K5eBH.s 			page 33


 1031              	.LCFI19:
 1032              		.cfi_def_cfa_offset 16
 1033              		@ sp needed
 1034 00ac 70BD     		pop	{r4, r5, r6, pc}
 1035              	.LVL111:
 1036              	.L64:
 1037              		.loc 1 703 1 view .LVU194
 1038 00ae 00BF     		.align	2
 1039              	.L63:
 1040 00b0 00000000 		.word	.LC23
 1041 00b4 4C000000 		.word	.LC24
 1042 00b8 54000000 		.word	.LC25
 1043 00bc 67666666 		.word	1717986919
 1044 00c0 5C000000 		.word	.LC26
 1045 00c4 60000000 		.word	.LC27
 1046              		.cfi_endproc
 1047              	.LFE264:
 1049              		.section	.rodata.AT_MACHINE_Handle.str1.4,"aMS",%progbits,1
 1050              		.align	2
 1051              	.LC28:
 1052 0000 0A00     		.ascii	"\012\000"
 1053 0002 0000     		.align	2
 1054              	.LC29:
 1055 0004 300900   		.ascii	"0\011\000"
 1056              		.section	.text.AT_MACHINE_Handle,"ax",%progbits
 1057              		.align	1
 1058              		.global	AT_MACHINE_Handle
 1059              		.syntax unified
 1060              		.thumb
 1061              		.thumb_func
 1063              	AT_MACHINE_Handle:
 1064              	.LVL112:
 1065              	.LFB267:
 704:App/Src/command.c **** 
 705:App/Src/command.c **** void AT_TESTDATA_Handle(char* command)
 706:App/Src/command.c **** {
 707:App/Src/command.c **** 	int partNumber = 0;
 708:App/Src/command.c **** 	int chipNumber = 0;
 709:App/Src/command.c **** 	int num;
 710:App/Src/command.c **** 	int i;
 711:App/Src/command.c **** 	TestResult result = {0};
 712:App/Src/command.c **** 
 713:App/Src/command.c **** 	num = strSearch(command, "chip:");
 714:App/Src/command.c **** 	if (num != -1) {
 715:App/Src/command.c **** 		num += strlen("chip:");
 716:App/Src/command.c **** 		CharToInt(command, num, &chipNumber);
 717:App/Src/command.c **** 	}
 718:App/Src/command.c **** 	
 719:App/Src/command.c **** 	num = strSearch(command, "part:");
 720:App/Src/command.c **** 	if (num != -1) {
 721:App/Src/command.c **** 		num += strlen("part:");
 722:App/Src/command.c **** 		CharToInt(command, num, &partNumber);
 723:App/Src/command.c **** 	}
 724:App/Src/command.c **** 	if (chipNumber == 0) {//所有芯片的某一个参数
 725:App/Src/command.c **** 		for (i = 0; i < MAX_CHIP_NUMBER; i++) {
 726:App/Src/command.c **** 			UsbPrintf("chip%d ", i + 1);
 727:App/Src/command.c **** 			flash_test_data_read(&result, i + 1, TEST_DATA_ALL);
ARM GAS  C:\Users\86158\AppData\Local\Temp\cc1K5eBH.s 			page 34


 728:App/Src/command.c **** 			test_data_printf(partNumber, result);
 729:App/Src/command.c **** 		}
 730:App/Src/command.c **** 	} else {//某一个芯片的所有参数
 731:App/Src/command.c **** 		if (chipNumber > MAX_CHIP_NUMBER) { chipNumber = MAX_CHIP_NUMBER;}
 732:App/Src/command.c **** 		if (chipNumber < 0) { chipNumber = 1; }
 733:App/Src/command.c **** 		flash_test_data_read(&result, chipNumber, TEST_DATA_ALL);
 734:App/Src/command.c **** 		test_data_printf(partNumber, result);
 735:App/Src/command.c **** 	}
 736:App/Src/command.c **** }
 737:App/Src/command.c ****  
 738:App/Src/command.c **** void AT_ATTEST_Handle(char* command)
 739:App/Src/command.c **** {
 740:App/Src/command.c **** 	int number = 0;
 741:App/Src/command.c **** 	uint16_t offset;
 742:App/Src/command.c **** 	float cap[420] = {0};
 743:App/Src/command.c **** 	int digtal[420] = {0};
 744:App/Src/command.c **** 	int i = 0;
 745:App/Src/command.c **** 	uint8_t count = 0;
 746:App/Src/command.c **** 	CharToInt(command, strSearch(command, "=") + 1, &number);
 747:App/Src/command.c **** 	if (number > 0) {
 748:App/Src/command.c **** 		calculate_wave1006_temp_cap(number, cap, digtal, &offset);
 749:App/Src/command.c **** 	} else {
 750:App/Src/command.c **** 		for (i = 0 ; i < MAX_CHIP_NUMBER ; i++) {
 751:App/Src/command.c **** 			if(calculate_wave1006_temp_cap(i + 1, cap, digtal, &offset) > 0) {
 752:App/Src/command.c **** 				count++;
 753:App/Src/command.c **** 			}
 754:App/Src/command.c **** 		}
 755:App/Src/command.c **** 		UsbPrintf("\ncount : %d\n", count);
 756:App/Src/command.c **** 	}
 757:App/Src/command.c **** 
 758:App/Src/command.c **** 		UsbPrintf("OK\n");
 759:App/Src/command.c **** }
 760:App/Src/command.c ****  
 761:App/Src/command.c **** void AT_MACHINE_Handle(char* command)
 762:App/Src/command.c **** {	
 1066              		.loc 1 762 1 is_stmt 1 view -0
 1067              		.cfi_startproc
 1068              		@ args = 0, pretend = 0, frame = 8
 1069              		@ frame_needed = 0, uses_anonymous_args = 0
 1070              		.loc 1 762 1 is_stmt 0 view .LVU196
 1071 0000 30B5     		push	{r4, r5, lr}
 1072              	.LCFI20:
 1073              		.cfi_def_cfa_offset 12
 1074              		.cfi_offset 4, -12
 1075              		.cfi_offset 5, -8
 1076              		.cfi_offset 14, -4
 1077 0002 83B0     		sub	sp, sp, #12
 1078              	.LCFI21:
 1079              		.cfi_def_cfa_offset 24
 763:App/Src/command.c **** 	int j;
 1080              		.loc 1 763 2 is_stmt 1 view .LVU197
 764:App/Src/command.c **** 	// uint8_t osc_buf[2];
 765:App/Src/command.c **** 	// uint8_t mode  = 2;
 766:App/Src/command.c **** 	// uint8_t com	 = 0;
 767:App/Src/command.c **** 	// uint8_t incap = 0;
 768:App/Src/command.c **** 	// uint8_t outcap = 0;
 769:App/Src/command.c **** 	// int num;
ARM GAS  C:\Users\86158\AppData\Local\Temp\cc1K5eBH.s 			page 35


 770:App/Src/command.c **** 	// for (com = 0; com < 32; com++) {
 771:App/Src/command.c **** 	// 	for (incap = 0; incap < 8; incap++) {
 772:App/Src/command.c **** 	// 		for (outcap = 0; outcap < 8; outcap++) {
 773:App/Src/command.c **** 	// 			// outcap = incap;
 774:App/Src/command.c **** 	// 			osc_buf[1] = (mode << 3) | ((com & 0x1f) >> 2);
 775:App/Src/command.c **** 	// 			osc_buf[0] = ((com & 0x03) << 6) | ((incap & 0x07) << 3) | (outcap & 0x07);
 776:App/Src/command.c **** 	// 			if (rtc_set_testcap(osc_buf) != I2C_OK) { //写ram22、ram23 
 777:App/Src/command.c **** 	// 				UsbPrintf("adjust error\n");
 778:App/Src/command.c **** 	// 				return;
 779:App/Src/command.c **** 	// 			}	
 780:App/Src/command.c **** 	// 			UsbPrintf("cap[0x%02x,0x%02x] adjust ok\n", osc_buf[1], osc_buf[0]);
 781:App/Src/command.c **** 	// 			HAL_Delay(500);
 782:App/Src/command.c **** 	// 			memset(g_DeviceRxBuff, 0, UART_RECEIVE_BUFF_NUMBER);
 783:App/Src/command.c **** 	// 			device_Rx_Cnt = 0;
 784:App/Src/command.c **** 	// 			DevicePrintf(":MEAS?\n");
 785:App/Src/command.c **** 	// 			for (j = 0; j < 30; j++) {
 786:App/Src/command.c **** 	// 				HAL_Delay(100);
 787:App/Src/command.c **** 	// 				num = strSearch((char*)g_DeviceRxBuff, "PPM");
 788:App/Src/command.c **** 	// 				if (num > 0) {
 789:App/Src/command.c **** 	// 					UsbPrintf("%s", (char*)g_DeviceRxBuff);
 790:App/Src/command.c **** 	// 					break;
 791:App/Src/command.c **** 	// 				} 
 792:App/Src/command.c **** 	// 			}
 793:App/Src/command.c **** 	// 			if (j >= 30) {
 794:App/Src/command.c **** 	// 				UsbPrintf("device no respose!\n");
 795:App/Src/command.c **** 	// 			}
 796:App/Src/command.c **** 	// 		}
 797:App/Src/command.c **** 	// 	}
 798:App/Src/command.c **** 	// }
 799:App/Src/command.c **** 	float temp;
 1081              		.loc 1 799 2 view .LVU198
 800:App/Src/command.c **** 	uint8_t state;
 1082              		.loc 1 800 2 view .LVU199
 801:App/Src/command.c **** 	for (j = 0; j < 50; j++) {
 1083              		.loc 1 801 2 view .LVU200
 1084              	.LVL113:
 1085              		.loc 1 801 9 is_stmt 0 view .LVU201
 1086 0004 0024     		movs	r4, #0
 1087              		.loc 1 801 2 view .LVU202
 1088 0006 07E0     		b	.L66
 1089              	.LVL114:
 1090              	.L75:
 802:App/Src/command.c **** 		if (j % 10 == 0) {
 803:App/Src/command.c **** 			UsbPrintf("\n");
 1091              		.loc 1 803 4 is_stmt 1 view .LVU203
 1092 0008 1D48     		ldr	r0, .L76
 1093 000a FFF7FEFF 		bl	UsbPrintf
 1094              	.LVL115:
 1095 000e 10E0     		b	.L67
 1096              	.LVL116:
 1097              	.L68:
 804:App/Src/command.c **** 		}
 805:App/Src/command.c **** 		rtc_group_power(j + 1, POWER_I2C);
 806:App/Src/command.c **** 		rtc_set_channel(j + 1, RTC_SD8825);
 807:App/Src/command.c **** 		g_rtcChanenel = j + 1;
 808:App/Src/command.c **** 		HAL_Delay(10);
 809:App/Src/command.c **** 		state = rtc_read_temp(&temp);
ARM GAS  C:\Users\86158\AppData\Local\Temp\cc1K5eBH.s 			page 36


 810:App/Src/command.c **** 		if (state == I2C_OK && temp > 10) {
 811:App/Src/command.c **** 			UsbPrintf("1\t");
 812:App/Src/command.c **** 		} else {
 813:App/Src/command.c **** 			UsbPrintf("0\t");
 1098              		.loc 1 813 4 view .LVU204
 1099 0010 1C48     		ldr	r0, .L76+4
 1100              	.LVL117:
 1101              		.loc 1 813 4 is_stmt 0 view .LVU205
 1102 0012 FFF7FEFF 		bl	UsbPrintf
 1103              	.LVL118:
 1104              	.L70:
 801:App/Src/command.c **** 		if (j % 10 == 0) {
 1105              		.loc 1 801 22 is_stmt 1 discriminator 2 view .LVU206
 801:App/Src/command.c **** 		if (j % 10 == 0) {
 1106              		.loc 1 801 23 is_stmt 0 discriminator 2 view .LVU207
 1107 0016 0134     		adds	r4, r4, #1
 1108              	.LVL119:
 1109              	.L66:
 801:App/Src/command.c **** 		if (j % 10 == 0) {
 1110              		.loc 1 801 14 is_stmt 1 discriminator 1 view .LVU208
 801:App/Src/command.c **** 		if (j % 10 == 0) {
 1111              		.loc 1 801 2 is_stmt 0 discriminator 1 view .LVU209
 1112 0018 312C     		cmp	r4, #49
 1113 001a 2BDC     		bgt	.L74
 802:App/Src/command.c **** 		if (j % 10 == 0) {
 1114              		.loc 1 802 3 is_stmt 1 view .LVU210
 802:App/Src/command.c **** 		if (j % 10 == 0) {
 1115              		.loc 1 802 9 is_stmt 0 view .LVU211
 1116 001c 1A4A     		ldr	r2, .L76+8
 1117 001e 82FB0432 		smull	r3, r2, r2, r4
 1118 0022 E317     		asrs	r3, r4, #31
 1119 0024 C3EBA203 		rsb	r3, r3, r2, asr #2
 1120 0028 03EB8303 		add	r3, r3, r3, lsl #2
 802:App/Src/command.c **** 		if (j % 10 == 0) {
 1121              		.loc 1 802 6 view .LVU212
 1122 002c B4EB430F 		cmp	r4, r3, lsl #1
 1123 0030 EAD0     		beq	.L75
 1124              	.L67:
 805:App/Src/command.c **** 		rtc_set_channel(j + 1, RTC_SD8825);
 1125              		.loc 1 805 3 is_stmt 1 view .LVU213
 1126 0032 651C     		adds	r5, r4, #1
 1127 0034 EDB2     		uxtb	r5, r5
 1128 0036 0121     		movs	r1, #1
 1129 0038 2846     		mov	r0, r5
 1130 003a FFF7FEFF 		bl	rtc_group_power
 1131              	.LVL120:
 806:App/Src/command.c **** 		g_rtcChanenel = j + 1;
 1132              		.loc 1 806 3 view .LVU214
 1133 003e 0221     		movs	r1, #2
 1134 0040 2846     		mov	r0, r5
 1135 0042 FFF7FEFF 		bl	rtc_set_channel
 1136              	.LVL121:
 807:App/Src/command.c **** 		HAL_Delay(10);
 1137              		.loc 1 807 3 view .LVU215
 807:App/Src/command.c **** 		HAL_Delay(10);
 1138              		.loc 1 807 17 is_stmt 0 view .LVU216
 1139 0046 114B     		ldr	r3, .L76+12
ARM GAS  C:\Users\86158\AppData\Local\Temp\cc1K5eBH.s 			page 37


 1140 0048 1D70     		strb	r5, [r3]
 808:App/Src/command.c **** 		state = rtc_read_temp(&temp);
 1141              		.loc 1 808 3 is_stmt 1 view .LVU217
 1142 004a 0A20     		movs	r0, #10
 1143 004c FFF7FEFF 		bl	HAL_Delay
 1144              	.LVL122:
 809:App/Src/command.c **** 		if (state == I2C_OK && temp > 10) {
 1145              		.loc 1 809 3 view .LVU218
 809:App/Src/command.c **** 		if (state == I2C_OK && temp > 10) {
 1146              		.loc 1 809 11 is_stmt 0 view .LVU219
 1147 0050 01A8     		add	r0, sp, #4
 1148 0052 FFF7FEFF 		bl	rtc_read_temp
 1149              	.LVL123:
 810:App/Src/command.c **** 			UsbPrintf("1\t");
 1150              		.loc 1 810 3 is_stmt 1 view .LVU220
 810:App/Src/command.c **** 			UsbPrintf("1\t");
 1151              		.loc 1 810 6 is_stmt 0 view .LVU221
 1152 0056 0028     		cmp	r0, #0
 1153 0058 DAD1     		bne	.L68
 810:App/Src/command.c **** 			UsbPrintf("1\t");
 1154              		.loc 1 810 23 discriminator 1 view .LVU222
 1155 005a 9DED017A 		vldr.32	s14, [sp, #4]
 1156 005e F2EE047A 		vmov.f32	s15, #1.0e+1
 1157 0062 B4EEE77A 		vcmpe.f32	s14, s15
 1158 0066 F1EE10FA 		vmrs	APSR_nzcv, FPSCR
 1159 006a D1DD     		ble	.L68
 811:App/Src/command.c **** 		} else {
 1160              		.loc 1 811 4 is_stmt 1 view .LVU223
 1161 006c 0848     		ldr	r0, .L76+16
 1162              	.LVL124:
 811:App/Src/command.c **** 		} else {
 1163              		.loc 1 811 4 is_stmt 0 view .LVU224
 1164 006e FFF7FEFF 		bl	UsbPrintf
 1165              	.LVL125:
 1166 0072 D0E7     		b	.L70
 1167              	.L74:
 814:App/Src/command.c **** 		}
 815:App/Src/command.c **** 	}
 816:App/Src/command.c **** 	UsbPrintf("\nOK\n");
 1168              		.loc 1 816 2 is_stmt 1 view .LVU225
 1169 0074 0748     		ldr	r0, .L76+20
 1170 0076 FFF7FEFF 		bl	UsbPrintf
 1171              	.LVL126:
 817:App/Src/command.c **** }
 1172              		.loc 1 817 1 is_stmt 0 view .LVU226
 1173 007a 03B0     		add	sp, sp, #12
 1174              	.LCFI22:
 1175              		.cfi_def_cfa_offset 12
 1176              		@ sp needed
 1177 007c 30BD     		pop	{r4, r5, pc}
 1178              	.LVL127:
 1179              	.L77:
 1180              		.loc 1 817 1 view .LVU227
 1181 007e 00BF     		.align	2
 1182              	.L76:
 1183 0080 00000000 		.word	.LC28
 1184 0084 04000000 		.word	.LC29
ARM GAS  C:\Users\86158\AppData\Local\Temp\cc1K5eBH.s 			page 38


 1185 0088 67666666 		.word	1717986919
 1186 008c 00000000 		.word	.LANCHOR4
 1187 0090 5C000000 		.word	.LC26
 1188 0094 70000000 		.word	.LC9
 1189              		.cfi_endproc
 1190              	.LFE267:
 1192              		.section	.rodata.AT_TEMPADC_Handle.str1.4,"aMS",%progbits,1
 1193              		.align	2
 1194              	.LC30:
 1195 0000 74656D70 		.ascii	"temp adc:%d, i2c[%d]\012\000"
 1195      20616463 
 1195      3A25642C 
 1195      20693263 
 1195      5B25645D 
 1196 0016 0000     		.align	2
 1197              	.LC31:
 1198 0018 73756D20 		.ascii	"sum = %.1f\012\000"
 1198      3D20252E 
 1198      31660A00 
 1199              		.section	.text.AT_TEMPADC_Handle,"ax",%progbits
 1200              		.align	1
 1201              		.global	AT_TEMPADC_Handle
 1202              		.syntax unified
 1203              		.thumb
 1204              		.thumb_func
 1206              	AT_TEMPADC_Handle:
 1207              	.LVL128:
 1208              	.LFB272:
 818:App/Src/command.c **** 
 819:App/Src/command.c **** void AT_1006TMODE_Handle(char* command)
 820:App/Src/command.c **** {
 821:App/Src/command.c **** 	int mode = 0;
 822:App/Src/command.c **** 	uint8_t buf;
 823:App/Src/command.c **** 	uint8_t osc_buf[2] = {0};
 824:App/Src/command.c **** 	CharToInt(command, strSearch(command, "=") + 1, &mode);
 825:App/Src/command.c **** 	
 826:App/Src/command.c **** 	if (mode > 0) {
 827:App/Src/command.c **** 		buf = 0x40;
 828:App/Src/command.c **** 		if(drv_wave1006_write_reg(DEV_SD3068, WAVE1006_REG_CTR3, 1, &buf) != WAVE1006_EXIT_OK)   //如果是
 829:App/Src/command.c **** 		{
 830:App/Src/command.c **** 			return;
 831:App/Src/command.c **** 		}
 832:App/Src/command.c **** 		if (drv_wave1006_read_reg(DEV_SD3068, WAVE1006_REG_USER_RAM_START + 19, 1, &buf) != WAVE1006_EXIT
 833:App/Src/command.c **** 		{
 834:App/Src/command.c **** 			return;
 835:App/Src/command.c **** 		}
 836:App/Src/command.c **** 		buf &= ~0x38;   //清0 RuleTempAdj[2:0]      //ADC尺子 5
 837:App/Src/command.c **** 		buf |=  0x28;
 838:App/Src/command.c **** 		if (drv_wave1006_write_reg(DEV_SD3068, WAVE1006_REG_USER_RAM_START + 19, 1, &buf) != WAVE1006_EXI
 839:App/Src/command.c **** 		{
 840:App/Src/command.c **** 			return;
 841:App/Src/command.c **** 		}	
 842:App/Src/command.c **** 		if (drv_wave1006_read_reg(DEV_SD3068, WAVE1006_REG_USER_RAM_START + 24, 1, &osc_buf[1]) != WAVE10
 843:App/Src/command.c **** 		{
 844:App/Src/command.c **** 			return;
 845:App/Src/command.c **** 		}
 846:App/Src/command.c **** 		osc_buf[0]  = 0xf7;   //ram24
ARM GAS  C:\Users\86158\AppData\Local\Temp\cc1K5eBH.s 			page 39


 847:App/Src/command.c **** 		osc_buf[1] &= ~0x1f;
 848:App/Src/command.c **** 		osc_buf[1] |= 0x19;		//ram25
 849:App/Src/command.c **** 		if (drv_wave1006_write_reg(DEV_SD3068, WAVE1006_REG_USER_RAM_START + 23, 2, osc_buf) != WAVE1006_
 850:App/Src/command.c **** 		{
 851:App/Src/command.c **** 			return;
 852:App/Src/command.c **** 		}
 853:App/Src/command.c **** 		//选择为SD8825封装(必须在进测试模式之前选择，否则芯片pad改变)
 854:App/Src/command.c **** 		if (drv_wave1006_read_reg(DEV_SD3068, WAVE1006_REG_USER_RAM_START + 20, 1, &buf) != WAVE1006_EXIT
 855:App/Src/command.c **** 		{
 856:App/Src/command.c **** 			return;
 857:App/Src/command.c **** 		}
 858:App/Src/command.c **** 		buf &= ~0x0f;
 859:App/Src/command.c **** 		buf |= 0x00;//根据pad配置表，编号0为8825
 860:App/Src/command.c **** 		if (drv_wave1006_write_reg(DEV_SD3068, WAVE1006_REG_USER_RAM_START + 20, 1, &buf) != WAVE1006_EXI
 861:App/Src/command.c **** 		{
 862:App/Src/command.c **** 			return;
 863:App/Src/command.c **** 		}
 864:App/Src/command.c **** 		if (wave1006_enter_test_mode(WAVE1006_TEST_PAD | WAVE1006_TEST_OSC | WAVE1006_TEST_ADC) != WAVE10
 865:App/Src/command.c **** 		{
 866:App/Src/command.c **** 			return;
 867:App/Src/command.c **** 		}
 868:App/Src/command.c **** 		UsbPrintf("pad change OK\n");
 869:App/Src/command.c **** 		HAL_Delay(5);
 870:App/Src/command.c **** 		rtc_set_channel(g_rtcChanenel, RTC_SD8825);
 871:App/Src/command.c **** 		if (drv_wave1006_read_reg(DEV_SD3068, 0xFD, 1, &buf) != WAVE1006_EXIT_OK) {
 872:App/Src/command.c **** 			return;
 873:App/Src/command.c **** 		}
 874:App/Src/command.c **** 		UsbPrintf("test flag 0x%02X, mode %d\n", buf, (buf >> 3) & 0x01);
 875:App/Src/command.c **** 		UsbPrintf("i2c OK after pad change \n");
 876:App/Src/command.c **** 	} else {
 877:App/Src/command.c **** 		rtc_1006_exit_testmode(g_rtcChanenel);
 878:App/Src/command.c **** 	}
 879:App/Src/command.c **** }
 880:App/Src/command.c **** 
 881:App/Src/command.c **** 
 882:App/Src/command.c **** void AT_SD8825INT_Handle(char* command)
 883:App/Src/command.c **** {
 884:App/Src/command.c **** 	int startNumber = 0;
 885:App/Src/command.c **** 	int endNumber = 0;
 886:App/Src/command.c **** 	int i, j;
 887:App/Src/command.c **** 	float temp;
 888:App/Src/command.c **** 	float sysTemp;
 889:App/Src/command.c **** 	float freq;
 890:App/Src/command.c **** 	float ppm;
 891:App/Src/command.c **** 	int num;
 892:App/Src/command.c **** 	char strFreq[20] = {0};
 893:App/Src/command.c **** 	CharToInt(command, strSearch(command, "=") + 1, &startNumber);
 894:App/Src/command.c **** 	CharToInt(command, strSearch(command, ",") + 1, &endNumber);
 895:App/Src/command.c **** 	
 896:App/Src/command.c **** 	if (startNumber > 0) {
 897:App/Src/command.c **** 		UsbPrintf("\nsystem temp = %.1fC:\n", temp_read_value(1));
 898:App/Src/command.c **** 		for (i = startNumber; i <= endNumber; i++) {
 899:App/Src/command.c **** 			// UsbPrintf("chip%d test 64Hz\n", i);
 900:App/Src/command.c **** 			rtc_group_power(i, POWER_TEST);
 901:App/Src/command.c **** 			rtc_set_channel(i, RTC_SD8825);
 902:App/Src/command.c **** 			g_rtcChanenel = i;
 903:App/Src/command.c **** 			HAL_Delay(1);
ARM GAS  C:\Users\86158\AppData\Local\Temp\cc1K5eBH.s 			page 40


 904:App/Src/command.c **** 			rtc_read_temp(&temp);
 905:App/Src/command.c **** 			sysTemp = temp_read_value(1);
 906:App/Src/command.c **** 			if ((temp == 0 || temp == -0.5) && (sysTemp > 5 || sysTemp < -5)) {//用ACK判断是不准确的
 907:App/Src/command.c **** 				UsbPrintf("chip%d i2c error\n", g_rtcChanenel);
 908:App/Src/command.c **** 				continue;
 909:App/Src/command.c **** 			}
 910:App/Src/command.c **** 			sd8825_out_freq();
 911:App/Src/command.c **** 			HAL_Delay(10);
 912:App/Src/command.c **** 			DevicePrintf(":MEAS?\n");
 913:App/Src/command.c **** 			for (j = 0; j < 40; j++) {
 914:App/Src/command.c **** 				HAL_Delay(50);
 915:App/Src/command.c **** 				num = strSearch((char*)g_DeviceRxBuff, "Hz");
 916:App/Src/command.c **** 				if (num > 0) {
 917:App/Src/command.c **** 					// UsbPrintf("%s", (char*)g_DeviceRxBuff);
 918:App/Src/command.c **** 					strncpy(strFreq, (char*)g_DeviceRxBuff, num);//读取其中的数字部分
 919:App/Src/command.c **** 					CharToFloat(strFreq, 0, &freq);//转换为浮点型数据
 920:App/Src/command.c **** 					ppm = (freq / CENTER_FREQENCY - 1.0) * 1000000;
 921:App/Src/command.c **** 					UsbPrintf("chip%d temp:%.1f, system temp = %.1fC, ppm:%.2f\n", g_rtcChanenel, temp, sysTemp, p
 922:App/Src/command.c **** 					memset(g_DeviceRxBuff, 0, UART_RECEIVE_BUFF_NUMBER);
 923:App/Src/command.c **** 					device_Rx_Cnt = 0;
 924:App/Src/command.c **** 					break;
 925:App/Src/command.c **** 				} 
 926:App/Src/command.c **** 			}
 927:App/Src/command.c **** 			if (j >= 40) {
 928:App/Src/command.c **** 				UsbPrintf("device no respose!\n");
 929:App/Src/command.c **** 			}
 930:App/Src/command.c **** 
 931:App/Src/command.c **** 			sd8825_close_freq();
 932:App/Src/command.c **** 		}
 933:App/Src/command.c **** 	} else {
 934:App/Src/command.c **** 		UsbPrintf("input error\n");
 935:App/Src/command.c **** 	}
 936:App/Src/command.c **** 	UsbPrintf("OK\n");
 937:App/Src/command.c **** }
 938:App/Src/command.c **** 
 939:App/Src/command.c **** 
 940:App/Src/command.c **** void AT_RTCLOAD_Handle(char* command)
 941:App/Src/command.c **** {
 942:App/Src/command.c **** 	int number = 0;
 943:App/Src/command.c **** 	int i;
 944:App/Src/command.c **** 	uint8_t result[MAX_CHIP_NUMBER] = {0};
 945:App/Src/command.c **** 	CharToInt(command, strSearch(command, "=") + 1, &number);
 946:App/Src/command.c **** 	if (number > 0) {
 947:App/Src/command.c **** 		sd8825_write_otp(number);
 948:App/Src/command.c **** 	} else {
 949:App/Src/command.c **** 		for (i = 1; i <= MAX_CHIP_NUMBER; i++) {
 950:App/Src/command.c **** 			result[i - 1] = sd8825_write_otp(i);
 951:App/Src/command.c **** 			HAL_Delay(1000);
 952:App/Src/command.c **** 		}
 953:App/Src/command.c **** 		
 954:App/Src/command.c **** 		for (i = 1; i <= MAX_CHIP_NUMBER; i++) {
 955:App/Src/command.c **** 			UsbPrintf("%d\t", result[i - 1]);
 956:App/Src/command.c **** 			if (i % 10 == 0) {
 957:App/Src/command.c **** 				UsbPrintf("\n");
 958:App/Src/command.c **** 			}
 959:App/Src/command.c **** 		}
 960:App/Src/command.c **** 	}
ARM GAS  C:\Users\86158\AppData\Local\Temp\cc1K5eBH.s 			page 41


 961:App/Src/command.c **** 	UsbPrintf("load end\n");
 962:App/Src/command.c **** }
 963:App/Src/command.c **** 
 964:App/Src/command.c **** void AT_HOTVOLTAGE_Handle(char* command)
 965:App/Src/command.c **** {
 966:App/Src/command.c **** 	float number;
 967:App/Src/command.c **** 	CharToFloat(command, strSearch(command, "=") + 1, &number);
 968:App/Src/command.c **** 	rtc_otp_power(number);//配置dac电压
 969:App/Src/command.c ****     // HAL_GPIO_WritePin(GPIOE, GPIO_PIN_6, GPIO_PIN_SET);//VCE_SDA选择VCE通道
 970:App/Src/command.c **** 	UsbPrintf("OK\n");
 971:App/Src/command.c **** }
 972:App/Src/command.c **** 
 973:App/Src/command.c **** void AT_TEMPADC_Handle(char* command)
 974:App/Src/command.c **** {
 1209              		.loc 1 974 1 is_stmt 1 view -0
 1210              		.cfi_startproc
 1211              		@ args = 0, pretend = 0, frame = 8
 1212              		@ frame_needed = 0, uses_anonymous_args = 0
 1213              		.loc 1 974 1 is_stmt 0 view .LVU229
 1214 0000 00B5     		push	{lr}
 1215              	.LCFI23:
 1216              		.cfi_def_cfa_offset 4
 1217              		.cfi_offset 14, -4
 1218 0002 83B0     		sub	sp, sp, #12
 1219              	.LCFI24:
 1220              		.cfi_def_cfa_offset 16
 975:App/Src/command.c **** 	uint16_t temp_adc = 0;
 1221              		.loc 1 975 2 is_stmt 1 view .LVU230
 1222              		.loc 1 975 11 is_stmt 0 view .LVU231
 1223 0004 0023     		movs	r3, #0
 1224 0006 ADF80630 		strh	r3, [sp, #6]	@ movhi
 976:App/Src/command.c **** 	uint8_t result;
 1225              		.loc 1 976 2 is_stmt 1 view .LVU232
 977:App/Src/command.c **** 	
 978:App/Src/command.c **** 	result = wave1006_read_temp_adc(&temp_adc);
 1226              		.loc 1 978 2 view .LVU233
 1227              		.loc 1 978 11 is_stmt 0 view .LVU234
 1228 000a 0DF10600 		add	r0, sp, #6
 1229              	.LVL129:
 1230              		.loc 1 978 11 view .LVU235
 1231 000e FFF7FEFF 		bl	wave1006_read_temp_adc
 1232              	.LVL130:
 1233 0012 0246     		mov	r2, r0
 1234              	.LVL131:
 979:App/Src/command.c **** 	UsbPrintf("temp adc:%d, i2c[%d]\n", temp_adc, result);
 1235              		.loc 1 979 2 is_stmt 1 view .LVU236
 1236 0014 BDF80610 		ldrh	r1, [sp, #6]
 1237 0018 0848     		ldr	r0, .L80
 1238 001a FFF7FEFF 		bl	UsbPrintf
 1239              	.LVL132:
 980:App/Src/command.c **** 	UsbPrintf("sum = %.1f\n", system_get_rtc_temp());
 1240              		.loc 1 980 2 view .LVU237
 1241              		.loc 1 980 28 is_stmt 0 view .LVU238
 1242 001e FFF7FEFF 		bl	system_get_rtc_temp
 1243              	.LVL133:
 1244 0022 10EE100A 		vmov	r0, s0
 1245              		.loc 1 980 2 view .LVU239
ARM GAS  C:\Users\86158\AppData\Local\Temp\cc1K5eBH.s 			page 42


 1246 0026 FFF7FEFF 		bl	__aeabi_f2d
 1247              	.LVL134:
 1248 002a 0246     		mov	r2, r0
 1249 002c 0B46     		mov	r3, r1
 1250 002e 0448     		ldr	r0, .L80+4
 1251 0030 FFF7FEFF 		bl	UsbPrintf
 1252              	.LVL135:
 981:App/Src/command.c **** }
 1253              		.loc 1 981 1 view .LVU240
 1254 0034 03B0     		add	sp, sp, #12
 1255              	.LCFI25:
 1256              		.cfi_def_cfa_offset 4
 1257              		@ sp needed
 1258 0036 5DF804FB 		ldr	pc, [sp], #4
 1259              	.L81:
 1260 003a 00BF     		.align	2
 1261              	.L80:
 1262 003c 00000000 		.word	.LC30
 1263 0040 18000000 		.word	.LC31
 1264              		.cfi_endproc
 1265              	.LFE272:
 1267              		.section	.rodata.AT_BSN_Handle.str1.4,"aMS",%progbits,1
 1268              		.align	2
 1269              	.LC32:
 1270 0000 42534E3A 		.ascii	"BSN:%s\012OK\012\000"
 1270      25730A4F 
 1270      4B0A00
 1271              		.section	.text.AT_BSN_Handle,"ax",%progbits
 1272              		.align	1
 1273              		.global	AT_BSN_Handle
 1274              		.syntax unified
 1275              		.thumb
 1276              		.thumb_func
 1278              	AT_BSN_Handle:
 1279              	.LVL136:
 1280              	.LFB273:
 982:App/Src/command.c **** 
 983:App/Src/command.c **** void AT_BSN_Handle(char* command)
 984:App/Src/command.c **** {
 1281              		.loc 1 984 1 is_stmt 1 view -0
 1282              		.cfi_startproc
 1283              		@ args = 0, pretend = 0, frame = 16
 1284              		@ frame_needed = 0, uses_anonymous_args = 0
 1285              		.loc 1 984 1 is_stmt 0 view .LVU242
 1286 0000 00B5     		push	{lr}
 1287              	.LCFI26:
 1288              		.cfi_def_cfa_offset 4
 1289              		.cfi_offset 14, -4
 1290 0002 85B0     		sub	sp, sp, #20
 1291              	.LCFI27:
 1292              		.cfi_def_cfa_offset 24
 985:App/Src/command.c **** 	char bsn[BSN_LENGTH + 1] = {0};
 1293              		.loc 1 985 2 is_stmt 1 view .LVU243
 1294              		.loc 1 985 7 is_stmt 0 view .LVU244
 1295 0004 0023     		movs	r3, #0
 1296 0006 0193     		str	r3, [sp, #4]
 1297 0008 0293     		str	r3, [sp, #8]
ARM GAS  C:\Users\86158\AppData\Local\Temp\cc1K5eBH.s 			page 43


 1298 000a 8DF80C30 		strb	r3, [sp, #12]
 986:App/Src/command.c **** 	GetStringFromFlash(bsn, BSN_LENGTH + 1, BSN_ADDR);
 1299              		.loc 1 986 2 is_stmt 1 view .LVU245
 1300 000e 064A     		ldr	r2, .L84
 1301 0010 0921     		movs	r1, #9
 1302 0012 01A8     		add	r0, sp, #4
 1303              	.LVL137:
 1304              		.loc 1 986 2 is_stmt 0 view .LVU246
 1305 0014 FFF7FEFF 		bl	GetStringFromFlash
 1306              	.LVL138:
 987:App/Src/command.c **** 	UsbPrintf("BSN:%s\nOK\n", bsn);
 1307              		.loc 1 987 2 is_stmt 1 view .LVU247
 1308 0018 01A9     		add	r1, sp, #4
 1309 001a 0448     		ldr	r0, .L84+4
 1310 001c FFF7FEFF 		bl	UsbPrintf
 1311              	.LVL139:
 988:App/Src/command.c **** }
 1312              		.loc 1 988 1 is_stmt 0 view .LVU248
 1313 0020 05B0     		add	sp, sp, #20
 1314              	.LCFI28:
 1315              		.cfi_def_cfa_offset 4
 1316              		@ sp needed
 1317 0022 5DF804FB 		ldr	pc, [sp], #4
 1318              	.L85:
 1319 0026 00BF     		.align	2
 1320              	.L84:
 1321 0028 00000608 		.word	134610944
 1322 002c 00000000 		.word	.LC32
 1323              		.cfi_endproc
 1324              	.LFE273:
 1326              		.section	.rodata.AT_CSN_Handle.str1.4,"aMS",%progbits,1
 1327              		.align	2
 1328              	.LC33:
 1329 0000 D0BEC6AC 		.ascii	"\320\276\306\254\305\372\264\316\272\305:%d\012OK\012"
 1329      C5FAB4CE 
 1329      BAC53A25 
 1329      640A4F4B 
 1329      0A
 1330 0011 00       		.ascii	"\000"
 1331              		.section	.text.AT_CSN_Handle,"ax",%progbits
 1332              		.align	1
 1333              		.global	AT_CSN_Handle
 1334              		.syntax unified
 1335              		.thumb
 1336              		.thumb_func
 1338              	AT_CSN_Handle:
 1339              	.LVL140:
 1340              	.LFB275:
 989:App/Src/command.c **** 
 990:App/Src/command.c **** void AT_SETBSN_Handle(char* command)
 991:App/Src/command.c **** {
 992:App/Src/command.c **** 	int number, i, length;
 993:App/Src/command.c **** 	char bsn[BSN_LENGTH + 1] = {0};
 994:App/Src/command.c **** 	number = strSearch(command, "=");
 995:App/Src/command.c **** 	if (number <= 1) {
 996:App/Src/command.c **** 		UsbPrintf("no input\n");
 997:App/Src/command.c **** 		return;
ARM GAS  C:\Users\86158\AppData\Local\Temp\cc1K5eBH.s 			page 44


 998:App/Src/command.c **** 	}
 999:App/Src/command.c **** 	length = strlen(command);
1000:App/Src/command.c **** 	if (length < (number + 8)) {
1001:App/Src/command.c **** 		UsbPrintf("bsn length not enough\n");
1002:App/Src/command.c **** 	}
1003:App/Src/command.c **** 	for (i = number + 1; i < length; i++) {
1004:App/Src/command.c **** 		if ((command[i] >= 'A' && command[i] <= 'Z') || (command[i] >= '0' && command[i] <= '9')) {
1005:App/Src/command.c **** 			bsn[i - number - 1] = command[i];
1006:App/Src/command.c **** 		} else {
1007:App/Src/command.c **** 			UsbPrintf("bsn not right, A-Z, 0-9\n");
1008:App/Src/command.c **** 			return;
1009:App/Src/command.c **** 		}
1010:App/Src/command.c **** 		if (i >= (number + 8)) {
1011:App/Src/command.c **** 			break;
1012:App/Src/command.c **** 		}
1013:App/Src/command.c **** 	}
1014:App/Src/command.c **** 	ClearBsnFlash();
1015:App/Src/command.c **** 	HAL_Delay(50);
1016:App/Src/command.c **** 	SaveStringToFlash(bsn, BSN_ADDR);
1017:App/Src/command.c **** 	UsbPrintf("OK\n");
1018:App/Src/command.c **** }
1019:App/Src/command.c **** extern uint16_t g_csn;
1020:App/Src/command.c **** void AT_CSN_Handle(char* command)
1021:App/Src/command.c **** {
 1341              		.loc 1 1021 1 is_stmt 1 view -0
 1342              		.cfi_startproc
 1343              		@ args = 0, pretend = 0, frame = 0
 1344              		@ frame_needed = 0, uses_anonymous_args = 0
 1345              		.loc 1 1021 1 is_stmt 0 view .LVU250
 1346 0000 08B5     		push	{r3, lr}
 1347              	.LCFI29:
 1348              		.cfi_def_cfa_offset 8
 1349              		.cfi_offset 3, -8
 1350              		.cfi_offset 14, -4
1022:App/Src/command.c **** 	UsbPrintf("芯片批次号:%d\nOK\n", g_csn);
 1351              		.loc 1 1022 2 is_stmt 1 view .LVU251
 1352 0002 034B     		ldr	r3, .L88
 1353 0004 1988     		ldrh	r1, [r3]
 1354 0006 0348     		ldr	r0, .L88+4
 1355              	.LVL141:
 1356              		.loc 1 1022 2 is_stmt 0 view .LVU252
 1357 0008 FFF7FEFF 		bl	UsbPrintf
 1358              	.LVL142:
1023:App/Src/command.c **** }
 1359              		.loc 1 1023 1 view .LVU253
 1360 000c 08BD     		pop	{r3, pc}
 1361              	.L89:
 1362 000e 00BF     		.align	2
 1363              	.L88:
 1364 0010 00000000 		.word	g_csn
 1365 0014 00000000 		.word	.LC33
 1366              		.cfi_endproc
 1367              	.LFE275:
 1369              		.section	.text.DevicePrintf,"ax",%progbits
 1370              		.align	1
 1371              		.global	DevicePrintf
 1372              		.syntax unified
ARM GAS  C:\Users\86158\AppData\Local\Temp\cc1K5eBH.s 			page 45


 1373              		.thumb
 1374              		.thumb_func
 1376              	DevicePrintf:
 1377              	.LVL143:
 1378              	.LFB239:
  89:App/Src/command.c **** 	va_list ap;//
 1379              		.loc 1 89 1 is_stmt 1 view -0
 1380              		.cfi_startproc
 1381              		@ args = 4, pretend = 16, frame = 8
 1382              		@ frame_needed = 0, uses_anonymous_args = 1
  89:App/Src/command.c **** 	va_list ap;//
 1383              		.loc 1 89 1 is_stmt 0 view .LVU255
 1384 0000 0FB4     		push	{r0, r1, r2, r3}
 1385              	.LCFI30:
 1386              		.cfi_def_cfa_offset 16
 1387              		.cfi_offset 0, -16
 1388              		.cfi_offset 1, -12
 1389              		.cfi_offset 2, -8
 1390              		.cfi_offset 3, -4
 1391 0002 F0B5     		push	{r4, r5, r6, r7, lr}
 1392              	.LCFI31:
 1393              		.cfi_def_cfa_offset 36
 1394              		.cfi_offset 4, -36
 1395              		.cfi_offset 5, -32
 1396              		.cfi_offset 6, -28
 1397              		.cfi_offset 7, -24
 1398              		.cfi_offset 14, -20
 1399 0004 83B0     		sub	sp, sp, #12
 1400              	.LCFI32:
 1401              		.cfi_def_cfa_offset 48
 1402 0006 08AD     		add	r5, sp, #32
 1403 0008 55F8047B 		ldr	r7, [r5], #4
  90:App/Src/command.c **** 	memset(g_DeviceTxBuff, 0, UART_TRANSMIT_BUFF_NUMBER);
 1404              		.loc 1 90 2 is_stmt 1 view .LVU256
  91:App/Src/command.c **** 	va_start(ap, fmt);//
 1405              		.loc 1 91 2 view .LVU257
 1406 000c 0E4C     		ldr	r4, .L92
 1407 000e 4FF49676 		mov	r6, #300
 1408 0012 3246     		mov	r2, r6
 1409 0014 0021     		movs	r1, #0
 1410 0016 2046     		mov	r0, r4
 1411 0018 FFF7FEFF 		bl	memset
 1412              	.LVL144:
  92:App/Src/command.c **** 	vsnprintf((char*)g_DeviceTxBuff, UART_TRANSMIT_BUFF_NUMBER, fmt, ap);//
 1413              		.loc 1 92 2 view .LVU258
 1414 001c 0195     		str	r5, [sp, #4]
  93:App/Src/command.c **** 	va_end(ap);
 1415              		.loc 1 93 2 view .LVU259
 1416 001e 2B46     		mov	r3, r5
 1417 0020 3A46     		mov	r2, r7
 1418 0022 3146     		mov	r1, r6
 1419 0024 2046     		mov	r0, r4
 1420 0026 FFF7FEFF 		bl	vsnprintf
 1421              	.LVL145:
  94:App/Src/command.c **** 	HAL_UART_Transmit(&huart2, g_DeviceTxBuff, strlen((char*)g_DeviceTxBuff), 1000);
 1422              		.loc 1 94 2 view .LVU260
  95:App/Src/command.c **** }
ARM GAS  C:\Users\86158\AppData\Local\Temp\cc1K5eBH.s 			page 46


 1423              		.loc 1 95 2 view .LVU261
  95:App/Src/command.c **** }
 1424              		.loc 1 95 45 is_stmt 0 view .LVU262
 1425 002a 2046     		mov	r0, r4
 1426 002c FFF7FEFF 		bl	strlen
 1427              	.LVL146:
  95:App/Src/command.c **** }
 1428              		.loc 1 95 2 view .LVU263
 1429 0030 4FF47A73 		mov	r3, #1000
 1430 0034 82B2     		uxth	r2, r0
 1431 0036 2146     		mov	r1, r4
 1432 0038 0448     		ldr	r0, .L92+4
 1433 003a FFF7FEFF 		bl	HAL_UART_Transmit
 1434              	.LVL147:
  96:App/Src/command.c **** 
 1435              		.loc 1 96 1 view .LVU264
 1436 003e 03B0     		add	sp, sp, #12
 1437              	.LCFI33:
 1438              		.cfi_def_cfa_offset 36
 1439              		@ sp needed
 1440 0040 BDE8F040 		pop	{r4, r5, r6, r7, lr}
 1441              	.LCFI34:
 1442              		.cfi_restore 14
 1443              		.cfi_restore 7
 1444              		.cfi_restore 6
 1445              		.cfi_restore 5
 1446              		.cfi_restore 4
 1447              		.cfi_def_cfa_offset 16
 1448 0044 04B0     		add	sp, sp, #16
 1449              	.LCFI35:
 1450              		.cfi_restore 3
 1451              		.cfi_restore 2
 1452              		.cfi_restore 1
 1453              		.cfi_restore 0
 1454              		.cfi_def_cfa_offset 0
 1455 0046 7047     		bx	lr
 1456              	.L93:
 1457              		.align	2
 1458              	.L92:
 1459 0048 00000000 		.word	.LANCHOR5
 1460 004c 00000000 		.word	huart2
 1461              		.cfi_endproc
 1462              	.LFE239:
 1464              		.section	.rodata.AT_TESTMODE_Handle.str1.4,"aMS",%progbits,1
 1465              		.align	2
 1466              	.LC34:
 1467 0000 6D6F6465 		.ascii	"mode:0\012\000"
 1467      3A300A00 
 1468              		.section	.text.AT_TESTMODE_Handle,"ax",%progbits
 1469              		.align	1
 1470              		.global	AT_TESTMODE_Handle
 1471              		.syntax unified
 1472              		.thumb
 1473              		.thumb_func
 1475              	AT_TESTMODE_Handle:
 1476              	.LVL148:
 1477              	.LFB262:
ARM GAS  C:\Users\86158\AppData\Local\Temp\cc1K5eBH.s 			page 47


 586:App/Src/command.c **** 	DevicePrintf("mode:0\n");
 1478              		.loc 1 586 1 is_stmt 1 view -0
 1479              		.cfi_startproc
 1480              		@ args = 0, pretend = 0, frame = 0
 1481              		@ frame_needed = 0, uses_anonymous_args = 0
 586:App/Src/command.c **** 	DevicePrintf("mode:0\n");
 1482              		.loc 1 586 1 is_stmt 0 view .LVU266
 1483 0000 10B5     		push	{r4, lr}
 1484              	.LCFI36:
 1485              		.cfi_def_cfa_offset 8
 1486              		.cfi_offset 4, -8
 1487              		.cfi_offset 14, -4
 587:App/Src/command.c **** 	UsbPrintf("mode:0\n");
 1488              		.loc 1 587 2 is_stmt 1 view .LVU267
 1489 0002 044C     		ldr	r4, .L96
 1490 0004 2046     		mov	r0, r4
 1491              	.LVL149:
 587:App/Src/command.c **** 	UsbPrintf("mode:0\n");
 1492              		.loc 1 587 2 is_stmt 0 view .LVU268
 1493 0006 FFF7FEFF 		bl	DevicePrintf
 1494              	.LVL150:
 588:App/Src/command.c **** }
 1495              		.loc 1 588 2 is_stmt 1 view .LVU269
 1496 000a 2046     		mov	r0, r4
 1497 000c FFF7FEFF 		bl	UsbPrintf
 1498              	.LVL151:
 589:App/Src/command.c **** 
 1499              		.loc 1 589 1 is_stmt 0 view .LVU270
 1500 0010 10BD     		pop	{r4, pc}
 1501              	.L97:
 1502 0012 00BF     		.align	2
 1503              	.L96:
 1504 0014 00000000 		.word	.LC34
 1505              		.cfi_endproc
 1506              	.LFE262:
 1508              		.section	.rodata.UsartInit.str1.4,"aMS",%progbits,1
 1509              		.align	2
 1510              	.LC35:
 1511 0000 3A46554E 		.ascii	":FUNC \"FREQ\"\012\000"
 1511      43202246 
 1511      52455122 
 1511      0A00
 1512 000e 0000     		.align	2
 1513              	.LC36:
 1514 0010 3A465245 		.ascii	":FREQ:ARM 300mS\012\000"
 1514      513A4152 
 1514      4D203330 
 1514      306D530A 
 1514      00
 1515 0021 000000   		.align	2
 1516              	.LC37:
 1517 0024 3A494E50 		.ascii	":INP:FILT 1\012\000"
 1517      3A46494C 
 1517      5420310A 
 1517      00
 1518 0031 000000   		.align	2
 1519              	.LC38:
ARM GAS  C:\Users\86158\AppData\Local\Temp\cc1K5eBH.s 			page 48


 1520 0034 3A455645 		.ascii	":EVEN:LEV +1.50V\012\000"
 1520      4E3A4C45 
 1520      56202B31 
 1520      2E353056 
 1520      0A00
 1521 0046 0000     		.align	2
 1522              	.LC39:
 1523 0048 3A534C4F 		.ascii	":SLOP NEG\012\000"
 1523      50204E45 
 1523      470A00
 1524 0053 00       		.align	2
 1525              	.LC40:
 1526 0054 75736220 		.ascii	"usb usart init success......\012\000"
 1526      75736172 
 1526      7420696E 
 1526      69742073 
 1526      75636365 
 1527 0072 0000     		.align	2
 1528              	.LC41:
 1529 0074 43533132 		.ascii	"CS1237 init success\012\000"
 1529      33372069 
 1529      6E697420 
 1529      73756363 
 1529      6573730A 
 1530 0089 000000   		.align	2
 1531              	.LC42:
 1532 008c 43533132 		.ascii	"CS1237 init error\012\000"
 1532      33372069 
 1532      6E697420 
 1532      6572726F 
 1532      720A00
 1533              		.section	.text.UsartInit,"ax",%progbits
 1534              		.align	1
 1535              		.global	UsartInit
 1536              		.syntax unified
 1537              		.thumb
 1538              		.thumb_func
 1540              	UsartInit:
 1541              	.LFB240:
  99:App/Src/command.c **** 	HAL_UART_Receive_IT(&huart1, &usbRxBuf, 1);		
 1542              		.loc 1 99 1 is_stmt 1 view -0
 1543              		.cfi_startproc
 1544              		@ args = 0, pretend = 0, frame = 0
 1545              		@ frame_needed = 0, uses_anonymous_args = 0
 1546 0000 38B5     		push	{r3, r4, r5, lr}
 1547              	.LCFI37:
 1548              		.cfi_def_cfa_offset 16
 1549              		.cfi_offset 3, -16
 1550              		.cfi_offset 4, -12
 1551              		.cfi_offset 5, -8
 1552              		.cfi_offset 14, -4
 100:App/Src/command.c ****     memset(g_UsbRxBuff, 0x00, sizeof(g_UsbRxBuff));
 1553              		.loc 1 100 2 view .LVU272
 1554 0002 0122     		movs	r2, #1
 1555 0004 3649     		ldr	r1, .L102
 1556 0006 3748     		ldr	r0, .L102+4
 1557 0008 FFF7FEFF 		bl	HAL_UART_Receive_IT
ARM GAS  C:\Users\86158\AppData\Local\Temp\cc1K5eBH.s 			page 49


 1558              	.LVL152:
 101:App/Src/command.c **** 	memset(g_UsbTxBuff, 0x00, sizeof(g_UsbTxBuff));
 1559              		.loc 1 101 5 view .LVU273
 1560 000c C825     		movs	r5, #200
 1561 000e 2A46     		mov	r2, r5
 1562 0010 0021     		movs	r1, #0
 1563 0012 3548     		ldr	r0, .L102+8
 1564 0014 FFF7FEFF 		bl	memset
 1565              	.LVL153:
 102:App/Src/command.c **** 	HAL_UART_Receive_IT(&huart2, &deviceRxBuf, 1);		
 1566              		.loc 1 102 2 view .LVU274
 1567 0018 4FF49674 		mov	r4, #300
 1568 001c 2246     		mov	r2, r4
 1569 001e 0021     		movs	r1, #0
 1570 0020 3248     		ldr	r0, .L102+12
 1571 0022 FFF7FEFF 		bl	memset
 1572              	.LVL154:
 103:App/Src/command.c ****     memset(g_DeviceRxBuff, 0x00, sizeof(g_DeviceRxBuff));
 1573              		.loc 1 103 2 view .LVU275
 1574 0026 0122     		movs	r2, #1
 1575 0028 3149     		ldr	r1, .L102+16
 1576 002a 3248     		ldr	r0, .L102+20
 1577 002c FFF7FEFF 		bl	HAL_UART_Receive_IT
 1578              	.LVL155:
 104:App/Src/command.c **** 	memset(g_DeviceTxBuff, 0x00, sizeof(g_DeviceTxBuff));
 1579              		.loc 1 104 5 view .LVU276
 1580 0030 2A46     		mov	r2, r5
 1581 0032 0021     		movs	r1, #0
 1582 0034 3048     		ldr	r0, .L102+24
 1583 0036 FFF7FEFF 		bl	memset
 1584              	.LVL156:
 105:App/Src/command.c **** 	rtc_group_power(g_rtcChanenel, POWER_I2C);
 1585              		.loc 1 105 2 view .LVU277
 1586 003a 2246     		mov	r2, r4
 1587 003c 0021     		movs	r1, #0
 1588 003e 2F48     		ldr	r0, .L102+28
 1589 0040 FFF7FEFF 		bl	memset
 1590              	.LVL157:
 106:App/Src/command.c **** 	ControlInit();
 1591              		.loc 1 106 2 view .LVU278
 1592 0044 0121     		movs	r1, #1
 1593 0046 2E4B     		ldr	r3, .L102+32
 1594 0048 1878     		ldrb	r0, [r3]	@ zero_extendqisi2
 1595 004a FFF7FEFF 		bl	rtc_group_power
 1596              	.LVL158:
 107:App/Src/command.c **** 	DevicePrintf(":FUNC \"FREQ\"\n");
 1597              		.loc 1 107 2 view .LVU279
 1598 004e FFF7FEFF 		bl	ControlInit
 1599              	.LVL159:
 108:App/Src/command.c ****     HAL_Delay(100);
 1600              		.loc 1 108 2 view .LVU280
 1601 0052 2C48     		ldr	r0, .L102+36
 1602 0054 FFF7FEFF 		bl	DevicePrintf
 1603              	.LVL160:
 109:App/Src/command.c **** 	DevicePrintf(":FREQ:ARM 300mS\n");
 1604              		.loc 1 109 5 view .LVU281
 1605 0058 6420     		movs	r0, #100
ARM GAS  C:\Users\86158\AppData\Local\Temp\cc1K5eBH.s 			page 50


 1606 005a FFF7FEFF 		bl	HAL_Delay
 1607              	.LVL161:
 110:App/Src/command.c ****     HAL_Delay(100);
 1608              		.loc 1 110 2 view .LVU282
 1609 005e 2A48     		ldr	r0, .L102+40
 1610 0060 FFF7FEFF 		bl	DevicePrintf
 1611              	.LVL162:
 111:App/Src/command.c **** 	DevicePrintf(":INP:FILT 1\n");
 1612              		.loc 1 111 5 view .LVU283
 1613 0064 6420     		movs	r0, #100
 1614 0066 FFF7FEFF 		bl	HAL_Delay
 1615              	.LVL163:
 112:App/Src/command.c ****     HAL_Delay(100);
 1616              		.loc 1 112 2 view .LVU284
 1617 006a 2848     		ldr	r0, .L102+44
 1618 006c FFF7FEFF 		bl	DevicePrintf
 1619              	.LVL164:
 113:App/Src/command.c **** 	DevicePrintf(":EVEN:LEV +1.50V\n");
 1620              		.loc 1 113 5 view .LVU285
 1621 0070 6420     		movs	r0, #100
 1622 0072 FFF7FEFF 		bl	HAL_Delay
 1623              	.LVL165:
 114:App/Src/command.c ****     HAL_Delay(100);
 1624              		.loc 1 114 2 view .LVU286
 1625 0076 2648     		ldr	r0, .L102+48
 1626 0078 FFF7FEFF 		bl	DevicePrintf
 1627              	.LVL166:
 115:App/Src/command.c **** 	DevicePrintf(":SLOP NEG\n");
 1628              		.loc 1 115 5 view .LVU287
 1629 007c 6420     		movs	r0, #100
 1630 007e FFF7FEFF 		bl	HAL_Delay
 1631              	.LVL167:
 116:App/Src/command.c ****     HAL_Delay(100);
 1632              		.loc 1 116 2 view .LVU288
 1633 0082 2448     		ldr	r0, .L102+52
 1634 0084 FFF7FEFF 		bl	DevicePrintf
 1635              	.LVL168:
 117:App/Src/command.c **** 
 1636              		.loc 1 117 5 view .LVU289
 1637 0088 6420     		movs	r0, #100
 1638 008a FFF7FEFF 		bl	HAL_Delay
 1639              	.LVL169:
 119:App/Src/command.c **** 	HAL_GPIO_WritePin(GPIOE, GPIO_PIN_14, GPIO_PIN_RESET); 
 1640              		.loc 1 119 5 view .LVU290
 1641 008e 2248     		ldr	r0, .L102+56
 1642 0090 FFF7FEFF 		bl	UsbPrintf
 1643              	.LVL170:
 120:App/Src/command.c **** 	UsbPrintf("VDD is 3.3V\n");
 1644              		.loc 1 120 2 view .LVU291
 1645 0094 0022     		movs	r2, #0
 1646 0096 4FF48041 		mov	r1, #16384
 1647 009a 2048     		ldr	r0, .L102+60
 1648 009c FFF7FEFF 		bl	HAL_GPIO_WritePin
 1649              	.LVL171:
 121:App/Src/command.c **** 	rtc_otp_power(0);//配置dac电压
 1650              		.loc 1 121 2 view .LVU292
 1651 00a0 1F48     		ldr	r0, .L102+64
ARM GAS  C:\Users\86158\AppData\Local\Temp\cc1K5eBH.s 			page 51


 1652 00a2 FFF7FEFF 		bl	UsbPrintf
 1653              	.LVL172:
 122:App/Src/command.c **** 	if (CS1237Init()) {
 1654              		.loc 1 122 2 view .LVU293
 1655 00a6 9FED1F0A 		vldr.32	s0, .L102+68
 1656 00aa FFF7FEFF 		bl	rtc_otp_power
 1657              	.LVL173:
 123:App/Src/command.c ****     	UsbPrintf("CS1237 init success\n");
 1658              		.loc 1 123 2 view .LVU294
 123:App/Src/command.c ****     	UsbPrintf("CS1237 init success\n");
 1659              		.loc 1 123 6 is_stmt 0 view .LVU295
 1660 00ae FFF7FEFF 		bl	CS1237Init
 1661              	.LVL174:
 123:App/Src/command.c ****     	UsbPrintf("CS1237 init success\n");
 1662              		.loc 1 123 5 view .LVU296
 1663 00b2 80B1     		cbz	r0, .L99
 124:App/Src/command.c **** 	} else {
 1664              		.loc 1 124 6 is_stmt 1 view .LVU297
 1665 00b4 1C48     		ldr	r0, .L102+72
 1666 00b6 FFF7FEFF 		bl	UsbPrintf
 1667              	.LVL175:
 1668              	.L100:
 128:App/Src/command.c **** 	UsbPrintf("hard version: %s\n", HARD_VERSION);
 1669              		.loc 1 128 2 view .LVU298
 1670 00ba 1C49     		ldr	r1, .L102+76
 1671 00bc 1C48     		ldr	r0, .L102+80
 1672 00be FFF7FEFF 		bl	UsbPrintf
 1673              	.LVL176:
 129:App/Src/command.c **** 	UsbPrintf("compling time %s %s\n", __DATE__, __TIME__);
 1674              		.loc 1 129 2 view .LVU299
 1675 00c2 1C49     		ldr	r1, .L102+84
 1676 00c4 1C48     		ldr	r0, .L102+88
 1677 00c6 FFF7FEFF 		bl	UsbPrintf
 1678              	.LVL177:
 130:App/Src/command.c **** }
 1679              		.loc 1 130 2 view .LVU300
 1680 00ca 1C4A     		ldr	r2, .L102+92
 1681 00cc 1C49     		ldr	r1, .L102+96
 1682 00ce 1D48     		ldr	r0, .L102+100
 1683 00d0 FFF7FEFF 		bl	UsbPrintf
 1684              	.LVL178:
 131:App/Src/command.c **** 
 1685              		.loc 1 131 1 is_stmt 0 view .LVU301
 1686 00d4 38BD     		pop	{r3, r4, r5, pc}
 1687              	.L99:
 126:App/Src/command.c **** 	}
 1688              		.loc 1 126 6 is_stmt 1 view .LVU302
 1689 00d6 1C48     		ldr	r0, .L102+104
 1690 00d8 FFF7FEFF 		bl	UsbPrintf
 1691              	.LVL179:
 1692 00dc EDE7     		b	.L100
 1693              	.L103:
 1694 00de 00BF     		.align	2
 1695              	.L102:
 1696 00e0 00000000 		.word	.LANCHOR6
 1697 00e4 00000000 		.word	huart1
 1698 00e8 00000000 		.word	.LANCHOR7
ARM GAS  C:\Users\86158\AppData\Local\Temp\cc1K5eBH.s 			page 52


 1699 00ec 00000000 		.word	.LANCHOR0
 1700 00f0 00000000 		.word	.LANCHOR8
 1701 00f4 00000000 		.word	huart2
 1702 00f8 00000000 		.word	.LANCHOR9
 1703 00fc 00000000 		.word	.LANCHOR5
 1704 0100 00000000 		.word	.LANCHOR4
 1705 0104 00000000 		.word	.LC35
 1706 0108 10000000 		.word	.LC36
 1707 010c 24000000 		.word	.LC37
 1708 0110 34000000 		.word	.LC38
 1709 0114 48000000 		.word	.LC39
 1710 0118 54000000 		.word	.LC40
 1711 011c 00100240 		.word	1073876992
 1712 0120 00000000 		.word	.LC12
 1713 0124 00000000 		.word	0
 1714 0128 74000000 		.word	.LC41
 1715 012c 00000000 		.word	.LC2
 1716 0130 0C000000 		.word	.LC3
 1717 0134 20000000 		.word	.LC4
 1718 0138 2C000000 		.word	.LC5
 1719 013c 40000000 		.word	.LC6
 1720 0140 4C000000 		.word	.LC7
 1721 0144 58000000 		.word	.LC8
 1722 0148 8C000000 		.word	.LC42
 1723              		.cfi_endproc
 1724              	.LFE240:
 1726              		.section	.text.strSearch,"ax",%progbits
 1727              		.align	1
 1728              		.global	strSearch
 1729              		.syntax unified
 1730              		.thumb
 1731              		.thumb_func
 1733              	strSearch:
 1734              	.LVL180:
 1735              	.LFB241:
 134:App/Src/command.c **** 	int len_source = strlen(source);
 1736              		.loc 1 134 1 view -0
 1737              		.cfi_startproc
 1738              		@ args = 0, pretend = 0, frame = 0
 1739              		@ frame_needed = 0, uses_anonymous_args = 0
 134:App/Src/command.c **** 	int len_source = strlen(source);
 1740              		.loc 1 134 1 is_stmt 0 view .LVU304
 1741 0000 70B5     		push	{r4, r5, r6, lr}
 1742              	.LCFI38:
 1743              		.cfi_def_cfa_offset 16
 1744              		.cfi_offset 4, -16
 1745              		.cfi_offset 5, -12
 1746              		.cfi_offset 6, -8
 1747              		.cfi_offset 14, -4
 1748 0002 0546     		mov	r5, r0
 1749 0004 0C46     		mov	r4, r1
 135:App/Src/command.c **** 	int len_target = strlen(target);
 1750              		.loc 1 135 2 is_stmt 1 view .LVU305
 135:App/Src/command.c **** 	int len_target = strlen(target);
 1751              		.loc 1 135 19 is_stmt 0 view .LVU306
 1752 0006 FFF7FEFF 		bl	strlen
 1753              	.LVL181:
ARM GAS  C:\Users\86158\AppData\Local\Temp\cc1K5eBH.s 			page 53


 135:App/Src/command.c **** 	int len_target = strlen(target);
 1754              		.loc 1 135 19 view .LVU307
 1755 000a 0646     		mov	r6, r0
 1756              	.LVL182:
 136:App/Src/command.c **** 	int i, j;
 1757              		.loc 1 136 2 is_stmt 1 view .LVU308
 136:App/Src/command.c **** 	int i, j;
 1758              		.loc 1 136 19 is_stmt 0 view .LVU309
 1759 000c 2046     		mov	r0, r4
 1760              	.LVL183:
 136:App/Src/command.c **** 	int i, j;
 1761              		.loc 1 136 19 view .LVU310
 1762 000e FFF7FEFF 		bl	strlen
 1763              	.LVL184:
 137:App/Src/command.c **** 	if (len_source < len_target) {
 1764              		.loc 1 137 2 is_stmt 1 view .LVU311
 138:App/Src/command.c **** 		return -1;
 1765              		.loc 1 138 2 view .LVU312
 138:App/Src/command.c **** 		return -1;
 1766              		.loc 1 138 5 is_stmt 0 view .LVU313
 1767 0012 8642     		cmp	r6, r0
 1768 0014 16DB     		blt	.L110
 1769 0016 0146     		mov	r1, r0
 141:App/Src/command.c **** 		for (j = 0; j < len_target; j++) {
 1770              		.loc 1 141 9 view .LVU314
 1771 0018 0020     		movs	r0, #0
 1772              	.LVL185:
 141:App/Src/command.c **** 		for (j = 0; j < len_target; j++) {
 1773              		.loc 1 141 9 view .LVU315
 1774 001a 02E0     		b	.L106
 1775              	.LVL186:
 1776              	.L107:
 145:App/Src/command.c **** 	}
 1777              		.loc 1 145 3 is_stmt 1 view .LVU316
 145:App/Src/command.c **** 	}
 1778              		.loc 1 145 6 is_stmt 0 view .LVU317
 1779 001c 8B42     		cmp	r3, r1
 1780 001e 10D0     		beq	.L104
 141:App/Src/command.c **** 		for (j = 0; j < len_target; j++) {
 1781              		.loc 1 141 44 is_stmt 1 discriminator 2 view .LVU318
 141:App/Src/command.c **** 		for (j = 0; j < len_target; j++) {
 1782              		.loc 1 141 45 is_stmt 0 discriminator 2 view .LVU319
 1783 0020 0130     		adds	r0, r0, #1
 1784              	.LVL187:
 1785              	.L106:
 141:App/Src/command.c **** 		for (j = 0; j < len_target; j++) {
 1786              		.loc 1 141 14 is_stmt 1 discriminator 1 view .LVU320
 141:App/Src/command.c **** 		for (j = 0; j < len_target; j++) {
 1787              		.loc 1 141 30 is_stmt 0 discriminator 1 view .LVU321
 1788 0022 731A     		subs	r3, r6, r1
 141:App/Src/command.c **** 		for (j = 0; j < len_target; j++) {
 1789              		.loc 1 141 2 discriminator 1 view .LVU322
 1790 0024 8342     		cmp	r3, r0
 1791 0026 0ADB     		blt	.L113
 142:App/Src/command.c **** 			if (source[i + j] != target[j]) { break;}
 1792              		.loc 1 142 10 view .LVU323
 1793 0028 0023     		movs	r3, #0
ARM GAS  C:\Users\86158\AppData\Local\Temp\cc1K5eBH.s 			page 54


 1794              	.L109:
 1795              	.LVL188:
 142:App/Src/command.c **** 			if (source[i + j] != target[j]) { break;}
 1796              		.loc 1 142 15 is_stmt 1 discriminator 1 view .LVU324
 142:App/Src/command.c **** 			if (source[i + j] != target[j]) { break;}
 1797              		.loc 1 142 3 is_stmt 0 discriminator 1 view .LVU325
 1798 002a 8B42     		cmp	r3, r1
 1799 002c F6DA     		bge	.L107
 143:App/Src/command.c **** 		}
 1800              		.loc 1 143 4 is_stmt 1 view .LVU326
 143:App/Src/command.c **** 		}
 1801              		.loc 1 143 17 is_stmt 0 view .LVU327
 1802 002e C218     		adds	r2, r0, r3
 143:App/Src/command.c **** 		}
 1803              		.loc 1 143 14 view .LVU328
 1804 0030 15F802C0 		ldrb	ip, [r5, r2]	@ zero_extendqisi2
 143:App/Src/command.c **** 		}
 1805              		.loc 1 143 31 view .LVU329
 1806 0034 E25C     		ldrb	r2, [r4, r3]	@ zero_extendqisi2
 143:App/Src/command.c **** 		}
 1807              		.loc 1 143 7 view .LVU330
 1808 0036 9445     		cmp	ip, r2
 1809 0038 F0D1     		bne	.L107
 142:App/Src/command.c **** 			if (source[i + j] != target[j]) { break;}
 1810              		.loc 1 142 31 is_stmt 1 discriminator 2 view .LVU331
 142:App/Src/command.c **** 			if (source[i + j] != target[j]) { break;}
 1811              		.loc 1 142 32 is_stmt 0 discriminator 2 view .LVU332
 1812 003a 0133     		adds	r3, r3, #1
 1813              	.LVL189:
 142:App/Src/command.c **** 			if (source[i + j] != target[j]) { break;}
 1814              		.loc 1 142 32 discriminator 2 view .LVU333
 1815 003c F5E7     		b	.L109
 1816              	.LVL190:
 1817              	.L113:
 147:App/Src/command.c **** }
 1818              		.loc 1 147 9 view .LVU334
 1819 003e 4FF0FF30 		mov	r0, #-1
 1820              	.LVL191:
 1821              	.L104:
 148:App/Src/command.c **** 
 1822              		.loc 1 148 1 view .LVU335
 1823 0042 70BD     		pop	{r4, r5, r6, pc}
 1824              	.LVL192:
 1825              	.L110:
 139:App/Src/command.c **** 	}		
 1826              		.loc 1 139 10 view .LVU336
 1827 0044 4FF0FF30 		mov	r0, #-1
 1828              	.LVL193:
 139:App/Src/command.c **** 	}		
 1829              		.loc 1 139 10 view .LVU337
 1830 0048 FBE7     		b	.L104
 1831              		.cfi_endproc
 1832              	.LFE241:
 1834              		.section	.rodata.AT_FREQTEST_Handle.str1.4,"aMS",%progbits,1
 1835              		.align	2
 1836              	.LC43:
 1837 0000 3A4D4541 		.ascii	":MEAS?\012\000"
ARM GAS  C:\Users\86158\AppData\Local\Temp\cc1K5eBH.s 			page 55


 1837      533F0A00 
 1838              		.align	2
 1839              	.LC44:
 1840 0008 25730A00 		.ascii	"%s\012\000"
 1841              		.align	2
 1842              	.LC45:
 1843 000c 487A00   		.ascii	"Hz\000"
 1844 000f 00       		.align	2
 1845              	.LC46:
 1846 0010 50504D00 		.ascii	"PPM\000"
 1847              		.align	2
 1848              	.LC47:
 1849 0014 64657669 		.ascii	"device no respose!\012\000"
 1849      6365206E 
 1849      6F207265 
 1849      73706F73 
 1849      65210A00 
 1850              		.section	.text.AT_FREQTEST_Handle,"ax",%progbits
 1851              		.align	1
 1852              		.global	AT_FREQTEST_Handle
 1853              		.syntax unified
 1854              		.thumb
 1855              		.thumb_func
 1857              	AT_FREQTEST_Handle:
 1858              	.LVL194:
 1859              	.LFB253:
 420:App/Src/command.c **** 	int i;
 1860              		.loc 1 420 1 is_stmt 1 view -0
 1861              		.cfi_startproc
 1862              		@ args = 0, pretend = 0, frame = 0
 1863              		@ frame_needed = 0, uses_anonymous_args = 0
 420:App/Src/command.c **** 	int i;
 1864              		.loc 1 420 1 is_stmt 0 view .LVU339
 1865 0000 38B5     		push	{r3, r4, r5, lr}
 1866              	.LCFI39:
 1867              		.cfi_def_cfa_offset 16
 1868              		.cfi_offset 3, -16
 1869              		.cfi_offset 4, -12
 1870              		.cfi_offset 5, -8
 1871              		.cfi_offset 14, -4
 421:App/Src/command.c **** 	DevicePrintf(":MEAS?\n");
 1872              		.loc 1 421 2 is_stmt 1 view .LVU340
 422:App/Src/command.c **** 	for (i = 0; i < 15; i++) {
 1873              		.loc 1 422 2 view .LVU341
 1874 0002 1548     		ldr	r0, .L122
 1875              	.LVL195:
 422:App/Src/command.c **** 	for (i = 0; i < 15; i++) {
 1876              		.loc 1 422 2 is_stmt 0 view .LVU342
 1877 0004 FFF7FEFF 		bl	DevicePrintf
 1878              	.LVL196:
 423:App/Src/command.c **** 		HAL_Delay(100);
 1879              		.loc 1 423 2 is_stmt 1 view .LVU343
 423:App/Src/command.c **** 		HAL_Delay(100);
 1880              		.loc 1 423 9 is_stmt 0 view .LVU344
 1881 0008 0024     		movs	r4, #0
 423:App/Src/command.c **** 		HAL_Delay(100);
 1882              		.loc 1 423 2 view .LVU345
ARM GAS  C:\Users\86158\AppData\Local\Temp\cc1K5eBH.s 			page 56


 1883 000a 00E0     		b	.L115
 1884              	.LVL197:
 1885              	.L116:
 423:App/Src/command.c **** 		HAL_Delay(100);
 1886              		.loc 1 423 22 is_stmt 1 discriminator 2 view .LVU346
 423:App/Src/command.c **** 		HAL_Delay(100);
 1887              		.loc 1 423 23 is_stmt 0 discriminator 2 view .LVU347
 1888 000c 0134     		adds	r4, r4, #1
 1889              	.LVL198:
 1890              	.L115:
 423:App/Src/command.c **** 		HAL_Delay(100);
 1891              		.loc 1 423 14 is_stmt 1 discriminator 1 view .LVU348
 423:App/Src/command.c **** 		HAL_Delay(100);
 1892              		.loc 1 423 2 is_stmt 0 discriminator 1 view .LVU349
 1893 000e 0E2C     		cmp	r4, #14
 1894 0010 17DC     		bgt	.L117
 424:App/Src/command.c **** 		if (strlen((char*)g_DeviceRxBuff) > 0) {
 1895              		.loc 1 424 3 is_stmt 1 view .LVU350
 1896 0012 6420     		movs	r0, #100
 1897 0014 FFF7FEFF 		bl	HAL_Delay
 1898              	.LVL199:
 425:App/Src/command.c **** 			UsbPrintf("%s\n", (char*)g_DeviceRxBuff);
 1899              		.loc 1 425 3 view .LVU351
 425:App/Src/command.c **** 			UsbPrintf("%s\n", (char*)g_DeviceRxBuff);
 1900              		.loc 1 425 37 is_stmt 0 view .LVU352
 1901 0018 104B     		ldr	r3, .L122+4
 1902 001a 1B78     		ldrb	r3, [r3]	@ zero_extendqisi2
 425:App/Src/command.c **** 			UsbPrintf("%s\n", (char*)g_DeviceRxBuff);
 1903              		.loc 1 425 6 view .LVU353
 1904 001c 002B     		cmp	r3, #0
 1905 001e F5D0     		beq	.L116
 426:App/Src/command.c **** 			if (strSearch((char*)g_DeviceRxBuff, "Hz") > 0 || strSearch((char*)g_DeviceRxBuff, "PPM") > 0) {
 1906              		.loc 1 426 4 is_stmt 1 view .LVU354
 1907 0020 0E4D     		ldr	r5, .L122+4
 1908 0022 2946     		mov	r1, r5
 1909 0024 0E48     		ldr	r0, .L122+8
 1910 0026 FFF7FEFF 		bl	UsbPrintf
 1911              	.LVL200:
 427:App/Src/command.c **** 				break;
 1912              		.loc 1 427 4 view .LVU355
 427:App/Src/command.c **** 				break;
 1913              		.loc 1 427 8 is_stmt 0 view .LVU356
 1914 002a 0E49     		ldr	r1, .L122+12
 1915 002c 2846     		mov	r0, r5
 1916 002e FFF7FEFF 		bl	strSearch
 1917              	.LVL201:
 427:App/Src/command.c **** 				break;
 1918              		.loc 1 427 7 view .LVU357
 1919 0032 0028     		cmp	r0, #0
 1920 0034 05DC     		bgt	.L117
 427:App/Src/command.c **** 				break;
 1921              		.loc 1 427 54 discriminator 1 view .LVU358
 1922 0036 0C49     		ldr	r1, .L122+16
 1923 0038 2846     		mov	r0, r5
 1924 003a FFF7FEFF 		bl	strSearch
 1925              	.LVL202:
 427:App/Src/command.c **** 				break;
ARM GAS  C:\Users\86158\AppData\Local\Temp\cc1K5eBH.s 			page 57


 1926              		.loc 1 427 51 discriminator 1 view .LVU359
 1927 003e 0028     		cmp	r0, #0
 1928 0040 E4DD     		ble	.L116
 1929              	.L117:
 432:App/Src/command.c **** 		UsbPrintf("device no respose!\n");
 1930              		.loc 1 432 2 is_stmt 1 view .LVU360
 432:App/Src/command.c **** 		UsbPrintf("device no respose!\n");
 1931              		.loc 1 432 5 is_stmt 0 view .LVU361
 1932 0042 0E2C     		cmp	r4, #14
 1933 0044 03DC     		bgt	.L121
 1934              	.L119:
 436:App/Src/command.c **** }
 1935              		.loc 1 436 2 is_stmt 1 view .LVU362
 1936 0046 0948     		ldr	r0, .L122+20
 1937 0048 FFF7FEFF 		bl	UsbPrintf
 1938              	.LVL203:
 437:App/Src/command.c **** 
 1939              		.loc 1 437 1 is_stmt 0 view .LVU363
 1940 004c 38BD     		pop	{r3, r4, r5, pc}
 1941              	.LVL204:
 1942              	.L121:
 433:App/Src/command.c **** 	}
 1943              		.loc 1 433 3 is_stmt 1 view .LVU364
 1944 004e 0848     		ldr	r0, .L122+24
 1945 0050 FFF7FEFF 		bl	UsbPrintf
 1946              	.LVL205:
 1947 0054 F7E7     		b	.L119
 1948              	.L123:
 1949 0056 00BF     		.align	2
 1950              	.L122:
 1951 0058 00000000 		.word	.LC43
 1952 005c 00000000 		.word	.LANCHOR9
 1953 0060 08000000 		.word	.LC44
 1954 0064 0C000000 		.word	.LC45
 1955 0068 10000000 		.word	.LC46
 1956 006c 1C000000 		.word	.LC14
 1957 0070 14000000 		.word	.LC47
 1958              		.cfi_endproc
 1959              	.LFE253:
 1961              		.section	.rodata.AT_RESULT_Handle.str1.4,"aMS",%progbits,1
 1962              		.align	2
 1963              	.LC49:
 1964 0000 41545E52 		.ascii	"AT^RESULT?\000"
 1964      4553554C 
 1964      543F00
 1965 000b 00       		.align	2
 1966              	.LC50:
 1967 000c 616C6C3A 		.ascii	"all:%d,ok:%d,ng:%d\012\000"
 1967      25642C6F 
 1967      6B3A2564 
 1967      2C6E673A 
 1967      25640A00 
 1968              		.align	2
 1969              	.LC51:
 1970 0020 5D0A00   		.ascii	"]\012\000"
 1971 0023 00       		.align	2
 1972              	.LC52:
ARM GAS  C:\Users\86158\AppData\Local\Temp\cc1K5eBH.s 			page 58


 1973 0024 5B00     		.ascii	"[\000"
 1974 0026 0000     		.align	2
 1975              	.LC53:
 1976 0028 256300   		.ascii	"%c\000"
 1977 002b 00       		.align	2
 1978              	.LC54:
 1979 002c 4552524F 		.ascii	"ERROR\012\000"
 1979      520A00
 1980 0033 00       		.align	2
 1981              	.LC48:
 1982 0034 01010101 		.ascii	"\001\001\001\001\001\001\001\001\001\001\001\001\001"
 1982      01010101 
 1982      01010101 
 1982      01
 1983 0041 01010101 		.ascii	"\001\001\001\001\001\001\001\001\001\001\001\001\001"
 1983      01010101 
 1983      01010101 
 1983      01
 1984 004e 01010101 		.ascii	"\001\001\001\001\001\001\001\001\001\001\001\001\001"
 1984      01010101 
 1984      01010101 
 1984      01
 1985 005b 01010101 		.ascii	"\001\001\001\001\001\001\001\001\001\001\001\000"
 1985      01010101 
 1985      01010100 
 1986              		.section	.text.AT_RESULT_Handle,"ax",%progbits
 1987              		.align	1
 1988              		.global	AT_RESULT_Handle
 1989              		.syntax unified
 1990              		.thumb
 1991              		.thumb_func
 1993              	AT_RESULT_Handle:
 1994              	.LVL206:
 1995              	.LFB263:
 593:App/Src/command.c **** 	uint8_t g_result[MAX_CHIP_NUMBER] = {
 1996              		.loc 1 593 1 view -0
 1997              		.cfi_startproc
 1998              		@ args = 0, pretend = 0, frame = 104
 1999              		@ frame_needed = 0, uses_anonymous_args = 0
 593:App/Src/command.c **** 	uint8_t g_result[MAX_CHIP_NUMBER] = {
 2000              		.loc 1 593 1 is_stmt 0 view .LVU366
 2001 0000 F0B5     		push	{r4, r5, r6, r7, lr}
 2002              	.LCFI40:
 2003              		.cfi_def_cfa_offset 20
 2004              		.cfi_offset 4, -20
 2005              		.cfi_offset 5, -16
 2006              		.cfi_offset 6, -12
 2007              		.cfi_offset 7, -8
 2008              		.cfi_offset 14, -4
 2009 0002 9BB0     		sub	sp, sp, #108
 2010              	.LCFI41:
 2011              		.cfi_def_cfa_offset 128
 594:App/Src/command.c **** 	1, 1, 1, 1, 1, 1, 1, 1, 1, 1,
 2012              		.loc 1 594 2 is_stmt 1 view .LVU367
 594:App/Src/command.c **** 	1, 1, 1, 1, 1, 1, 1, 1, 1, 1,
 2013              		.loc 1 594 10 is_stmt 0 view .LVU368
 2014 0004 0DAC     		add	r4, sp, #52
ARM GAS  C:\Users\86158\AppData\Local\Temp\cc1K5eBH.s 			page 59


 2015 0006 634D     		ldr	r5, .L163
 2016 0008 0FCD     		ldmia	r5!, {r0, r1, r2, r3}
 2017              	.LVL207:
 594:App/Src/command.c **** 	1, 1, 1, 1, 1, 1, 1, 1, 1, 1,
 2018              		.loc 1 594 10 view .LVU369
 2019 000a 0FC4     		stmia	r4!, {r0, r1, r2, r3}
 2020 000c 0FCD     		ldmia	r5!, {r0, r1, r2, r3}
 2021 000e 0FC4     		stmia	r4!, {r0, r1, r2, r3}
 2022 0010 0FCD     		ldmia	r5!, {r0, r1, r2, r3}
 2023 0012 0FC4     		stmia	r4!, {r0, r1, r2, r3}
 2024 0014 2B68     		ldr	r3, [r5]
 2025 0016 2380     		strh	r3, [r4]	@ movhi
 601:App/Src/command.c **** 	int i, j;
 2026              		.loc 1 601 2 is_stmt 1 view .LVU370
 601:App/Src/command.c **** 	int i, j;
 2027              		.loc 1 601 10 is_stmt 0 view .LVU371
 2028 0018 0523     		movs	r3, #5
 2029 001a 0093     		str	r3, [sp]
 2030 001c 2E22     		movs	r2, #46
 2031 001e 0021     		movs	r1, #0
 2032 0020 01A8     		add	r0, sp, #4
 2033 0022 FFF7FEFF 		bl	memset
 2034              	.LVL208:
 602:App/Src/command.c **** 	uint8_t all = 0, ok = 0, ng = 0;
 2035              		.loc 1 602 2 is_stmt 1 view .LVU372
 603:App/Src/command.c **** 	uint8_t length;
 2036              		.loc 1 603 2 view .LVU373
 604:App/Src/command.c **** 	uint8_t getNumber = 0;
 2037              		.loc 1 604 2 view .LVU374
 605:App/Src/command.c **** 
 2038              		.loc 1 605 2 view .LVU375
 608:App/Src/command.c **** 		for (i = 0; i < MAX_CHIP_NUMBER; i++) {
 2039              		.loc 1 608 2 view .LVU376
 608:App/Src/command.c **** 		for (i = 0; i < MAX_CHIP_NUMBER; i++) {
 2040              		.loc 1 608 6 is_stmt 0 view .LVU377
 2041 0026 5C49     		ldr	r1, .L163+4
 2042 0028 5C48     		ldr	r0, .L163+8
 2043 002a FFF7FEFF 		bl	strSearch
 2044              	.LVL209:
 608:App/Src/command.c **** 		for (i = 0; i < MAX_CHIP_NUMBER; i++) {
 2045              		.loc 1 608 5 view .LVU378
 2046 002e F0B1     		cbz	r0, .L151
 608:App/Src/command.c **** 		for (i = 0; i < MAX_CHIP_NUMBER; i++) {
 2047              		.loc 1 608 61 discriminator 1 view .LVU379
 2048 0030 5949     		ldr	r1, .L163+4
 2049 0032 5B48     		ldr	r0, .L163+12
 2050 0034 FFF7FEFF 		bl	strSearch
 2051              	.LVL210:
 608:App/Src/command.c **** 		for (i = 0; i < MAX_CHIP_NUMBER; i++) {
 2052              		.loc 1 608 58 discriminator 1 view .LVU380
 2053 0038 0446     		mov	r4, r0
 2054 003a E8B1     		cbz	r0, .L152
 636:App/Src/command.c **** 		getNumber = 0;
 2055              		.loc 1 636 3 is_stmt 1 view .LVU381
 636:App/Src/command.c **** 		getNumber = 0;
 2056              		.loc 1 636 12 is_stmt 0 view .LVU382
 2057 003c 5748     		ldr	r0, .L163+8
ARM GAS  C:\Users\86158\AppData\Local\Temp\cc1K5eBH.s 			page 60


 2058 003e FFF7FEFF 		bl	strlen
 2059              	.LVL211:
 637:App/Src/command.c **** 		for (i = 0; i < length; i++) {
 2060              		.loc 1 637 3 is_stmt 1 view .LVU383
 638:App/Src/command.c **** 			if (g_DeviceRxBuff[i] == '[') {
 2061              		.loc 1 638 3 view .LVU384
 637:App/Src/command.c **** 		for (i = 0; i < length; i++) {
 2062              		.loc 1 637 13 is_stmt 0 view .LVU385
 2063 0042 0022     		movs	r2, #0
 638:App/Src/command.c **** 			if (g_DeviceRxBuff[i] == '[') {
 2064              		.loc 1 638 10 view .LVU386
 2065 0044 1346     		mov	r3, r2
 638:App/Src/command.c **** 			if (g_DeviceRxBuff[i] == '[') {
 2066              		.loc 1 638 3 view .LVU387
 2067 0046 86E0     		b	.L136
 2068              	.LVL212:
 2069              	.L128:
 615:App/Src/command.c **** 				}
 2070              		.loc 1 615 6 is_stmt 1 view .LVU388
 615:App/Src/command.c **** 				}
 2071              		.loc 1 615 8 is_stmt 0 view .LVU389
 2072 0048 0137     		adds	r7, r7, #1
 2073              	.LVL213:
 615:App/Src/command.c **** 				}
 2074              		.loc 1 615 8 view .LVU390
 2075 004a FFB2     		uxtb	r7, r7
 2076              	.LVL214:
 2077              	.L127:
 609:App/Src/command.c **** 			if (g_result[i] < 2) {
 2078              		.loc 1 609 36 is_stmt 1 discriminator 2 view .LVU391
 609:App/Src/command.c **** 			if (g_result[i] < 2) {
 2079              		.loc 1 609 37 is_stmt 0 discriminator 2 view .LVU392
 2080 004c 0134     		adds	r4, r4, #1
 2081              	.LVL215:
 2082              	.L129:
 609:App/Src/command.c **** 			if (g_result[i] < 2) {
 2083              		.loc 1 609 15 is_stmt 1 discriminator 1 view .LVU393
 609:App/Src/command.c **** 			if (g_result[i] < 2) {
 2084              		.loc 1 609 3 is_stmt 0 discriminator 1 view .LVU394
 2085 004e 312C     		cmp	r4, #49
 2086 0050 16DC     		bgt	.L157
 610:App/Src/command.c **** 				all++;
 2087              		.loc 1 610 4 is_stmt 1 view .LVU395
 610:App/Src/command.c **** 				all++;
 2088              		.loc 1 610 16 is_stmt 0 view .LVU396
 2089 0052 04F16803 		add	r3, r4, #104
 2090 0056 6B44     		add	r3, sp, r3
 2091 0058 13F8343C 		ldrb	r3, [r3, #-52]	@ zero_extendqisi2
 610:App/Src/command.c **** 				all++;
 2092              		.loc 1 610 7 view .LVU397
 2093 005c 012B     		cmp	r3, #1
 2094 005e F5D8     		bhi	.L127
 611:App/Src/command.c **** 				if (g_result[i] == 0) {
 2095              		.loc 1 611 5 is_stmt 1 view .LVU398
 611:App/Src/command.c **** 				if (g_result[i] == 0) {
 2096              		.loc 1 611 8 is_stmt 0 view .LVU399
 2097 0060 0135     		adds	r5, r5, #1
ARM GAS  C:\Users\86158\AppData\Local\Temp\cc1K5eBH.s 			page 61


 2098              	.LVL216:
 611:App/Src/command.c **** 				if (g_result[i] == 0) {
 2099              		.loc 1 611 8 view .LVU400
 2100 0062 EDB2     		uxtb	r5, r5
 2101              	.LVL217:
 612:App/Src/command.c **** 					ng++;
 2102              		.loc 1 612 5 is_stmt 1 view .LVU401
 612:App/Src/command.c **** 					ng++;
 2103              		.loc 1 612 8 is_stmt 0 view .LVU402
 2104 0064 002B     		cmp	r3, #0
 2105 0066 EFD1     		bne	.L128
 613:App/Src/command.c **** 				} else {
 2106              		.loc 1 613 6 is_stmt 1 view .LVU403
 613:App/Src/command.c **** 				} else {
 2107              		.loc 1 613 8 is_stmt 0 view .LVU404
 2108 0068 0136     		adds	r6, r6, #1
 2109              	.LVL218:
 613:App/Src/command.c **** 				} else {
 2110              		.loc 1 613 8 view .LVU405
 2111 006a F6B2     		uxtb	r6, r6
 2112              	.LVL219:
 613:App/Src/command.c **** 				} else {
 2113              		.loc 1 613 8 view .LVU406
 2114 006c EEE7     		b	.L127
 2115              	.LVL220:
 2116              	.L151:
 613:App/Src/command.c **** 				} else {
 2117              		.loc 1 613 8 view .LVU407
 2118 006e 0446     		mov	r4, r0
 2119 0070 0026     		movs	r6, #0
 2120 0072 3746     		mov	r7, r6
 2121 0074 3546     		mov	r5, r6
 2122 0076 EAE7     		b	.L129
 2123              	.L152:
 2124 0078 0026     		movs	r6, #0
 2125 007a 3746     		mov	r7, r6
 2126 007c 3546     		mov	r5, r6
 2127 007e E6E7     		b	.L129
 2128              	.LVL221:
 2129              	.L157:
 619:App/Src/command.c **** 		DevicePrintf("all:%d,ok:%d,ng:%d\n", all, ok, ng);
 2130              		.loc 1 619 3 is_stmt 1 view .LVU408
 2131 0080 484C     		ldr	r4, .L163+16
 2132              	.LVL222:
 619:App/Src/command.c **** 		DevicePrintf("all:%d,ok:%d,ng:%d\n", all, ok, ng);
 2133              		.loc 1 619 3 is_stmt 0 view .LVU409
 2134 0082 3346     		mov	r3, r6
 2135 0084 3A46     		mov	r2, r7
 2136 0086 2946     		mov	r1, r5
 2137 0088 2046     		mov	r0, r4
 2138 008a FFF7FEFF 		bl	UsbPrintf
 2139              	.LVL223:
 620:App/Src/command.c **** 		for(i = 0; i < MAX_CHIP_NUMBER; i++) {
 2140              		.loc 1 620 3 is_stmt 1 view .LVU410
 2141 008e 3346     		mov	r3, r6
 2142 0090 3A46     		mov	r2, r7
 2143 0092 2946     		mov	r1, r5
ARM GAS  C:\Users\86158\AppData\Local\Temp\cc1K5eBH.s 			page 62


 2144 0094 2046     		mov	r0, r4
 2145 0096 FFF7FEFF 		bl	DevicePrintf
 2146              	.LVL224:
 621:App/Src/command.c **** 			if (i % 10 == 0) {
 2147              		.loc 1 621 3 view .LVU411
 621:App/Src/command.c **** 			if (i % 10 == 0) {
 2148              		.loc 1 621 9 is_stmt 0 view .LVU412
 2149 009a 0024     		movs	r4, #0
 621:App/Src/command.c **** 			if (i % 10 == 0) {
 2150              		.loc 1 621 3 view .LVU413
 2151 009c 1DE0     		b	.L131
 2152              	.LVL225:
 2153              	.L159:
 624:App/Src/command.c **** 					DevicePrintf("]\n");
 2154              		.loc 1 624 6 is_stmt 1 view .LVU414
 2155 009e 424D     		ldr	r5, .L163+20
 2156 00a0 2846     		mov	r0, r5
 2157 00a2 FFF7FEFF 		bl	UsbPrintf
 2158              	.LVL226:
 625:App/Src/command.c **** 				}
 2159              		.loc 1 625 6 view .LVU415
 2160 00a6 2846     		mov	r0, r5
 2161 00a8 FFF7FEFF 		bl	DevicePrintf
 2162              	.LVL227:
 2163              	.L133:
 627:App/Src/command.c **** 				DevicePrintf("[");
 2164              		.loc 1 627 5 view .LVU416
 2165 00ac 3F4D     		ldr	r5, .L163+24
 2166 00ae 2846     		mov	r0, r5
 2167 00b0 FFF7FEFF 		bl	UsbPrintf
 2168              	.LVL228:
 628:App/Src/command.c **** 			}
 2169              		.loc 1 628 5 view .LVU417
 2170 00b4 2846     		mov	r0, r5
 2171 00b6 FFF7FEFF 		bl	DevicePrintf
 2172              	.LVL229:
 2173              	.L132:
 630:App/Src/command.c **** 			DevicePrintf("%c", g_result[i] + '0');
 2174              		.loc 1 630 4 discriminator 2 view .LVU418
 630:App/Src/command.c **** 			DevicePrintf("%c", g_result[i] + '0');
 2175              		.loc 1 630 28 is_stmt 0 discriminator 2 view .LVU419
 2176 00ba 04F16803 		add	r3, r4, #104
 2177 00be 6B44     		add	r3, sp, r3
 2178 00c0 13F8345C 		ldrb	r5, [r3, #-52]	@ zero_extendqisi2
 630:App/Src/command.c **** 			DevicePrintf("%c", g_result[i] + '0');
 2179              		.loc 1 630 4 discriminator 2 view .LVU420
 2180 00c4 3035     		adds	r5, r5, #48
 2181 00c6 3A4E     		ldr	r6, .L163+28
 2182 00c8 2946     		mov	r1, r5
 2183 00ca 3046     		mov	r0, r6
 2184 00cc FFF7FEFF 		bl	UsbPrintf
 2185              	.LVL230:
 631:App/Src/command.c **** 		}
 2186              		.loc 1 631 4 is_stmt 1 discriminator 2 view .LVU421
 2187 00d0 2946     		mov	r1, r5
 2188 00d2 3046     		mov	r0, r6
 2189 00d4 FFF7FEFF 		bl	DevicePrintf
ARM GAS  C:\Users\86158\AppData\Local\Temp\cc1K5eBH.s 			page 63


 2190              	.LVL231:
 621:App/Src/command.c **** 			if (i % 10 == 0) {
 2191              		.loc 1 621 35 discriminator 2 view .LVU422
 621:App/Src/command.c **** 			if (i % 10 == 0) {
 2192              		.loc 1 621 36 is_stmt 0 discriminator 2 view .LVU423
 2193 00d8 0134     		adds	r4, r4, #1
 2194              	.LVL232:
 2195              	.L131:
 621:App/Src/command.c **** 			if (i % 10 == 0) {
 2196              		.loc 1 621 14 is_stmt 1 discriminator 1 view .LVU424
 621:App/Src/command.c **** 			if (i % 10 == 0) {
 2197              		.loc 1 621 3 is_stmt 0 discriminator 1 view .LVU425
 2198 00da 312C     		cmp	r4, #49
 2199 00dc 0DDC     		bgt	.L158
 622:App/Src/command.c **** 				if (i > 0) {
 2200              		.loc 1 622 4 is_stmt 1 view .LVU426
 622:App/Src/command.c **** 				if (i > 0) {
 2201              		.loc 1 622 10 is_stmt 0 view .LVU427
 2202 00de 354A     		ldr	r2, .L163+32
 2203 00e0 82FB0432 		smull	r3, r2, r2, r4
 2204 00e4 E317     		asrs	r3, r4, #31
 2205 00e6 C3EBA203 		rsb	r3, r3, r2, asr #2
 2206 00ea 03EB8303 		add	r3, r3, r3, lsl #2
 622:App/Src/command.c **** 				if (i > 0) {
 2207              		.loc 1 622 7 view .LVU428
 2208 00ee B4EB430F 		cmp	r4, r3, lsl #1
 2209 00f2 E2D1     		bne	.L132
 623:App/Src/command.c **** 					UsbPrintf("]\n");
 2210              		.loc 1 623 5 is_stmt 1 view .LVU429
 623:App/Src/command.c **** 					UsbPrintf("]\n");
 2211              		.loc 1 623 8 is_stmt 0 view .LVU430
 2212 00f4 002C     		cmp	r4, #0
 2213 00f6 D2DC     		bgt	.L159
 2214 00f8 D8E7     		b	.L133
 2215              	.L158:
 633:App/Src/command.c **** 		DevicePrintf("]\n");
 2216              		.loc 1 633 3 is_stmt 1 view .LVU431
 2217 00fa 2B4C     		ldr	r4, .L163+20
 2218              	.LVL233:
 633:App/Src/command.c **** 		DevicePrintf("]\n");
 2219              		.loc 1 633 3 is_stmt 0 view .LVU432
 2220 00fc 2046     		mov	r0, r4
 2221 00fe FFF7FEFF 		bl	UsbPrintf
 2222              	.LVL234:
 634:App/Src/command.c **** 	} else {
 2223              		.loc 1 634 3 is_stmt 1 view .LVU433
 2224 0102 2046     		mov	r0, r4
 2225 0104 FFF7FEFF 		bl	DevicePrintf
 2226              	.LVL235:
 2227              	.L124:
 669:App/Src/command.c **** 
 2228              		.loc 1 669 1 is_stmt 0 view .LVU434
 2229 0108 1BB0     		add	sp, sp, #108
 2230              	.LCFI42:
 2231              		.cfi_remember_state
 2232              		.cfi_def_cfa_offset 20
 2233              		@ sp needed
ARM GAS  C:\Users\86158\AppData\Local\Temp\cc1K5eBH.s 			page 64


 2234 010a F0BD     		pop	{r4, r5, r6, r7, pc}
 2235              	.LVL236:
 2236              	.L139:
 2237              	.LCFI43:
 2238              		.cfi_restore_state
 642:App/Src/command.c **** 							DevicePrintf("ERROR\n");
 2239              		.loc 1 642 7 is_stmt 1 view .LVU435
 642:App/Src/command.c **** 							DevicePrintf("ERROR\n");
 2240              		.loc 1 642 10 is_stmt 0 view .LVU436
 2241 010c 322A     		cmp	r2, #50
 2242 010e 1AD0     		beq	.L160
 646:App/Src/command.c **** 						getNumber++;
 2243              		.loc 1 646 7 is_stmt 1 view .LVU437
 646:App/Src/command.c **** 						getNumber++;
 2244              		.loc 1 646 24 is_stmt 0 view .LVU438
 2245 0110 02F16805 		add	r5, r2, #104
 2246 0114 6D44     		add	r5, sp, r5
 2247 0116 05F8681C 		strb	r1, [r5, #-104]
 647:App/Src/command.c **** 					} else if (g_DeviceRxBuff[j] == ']') {
 2248              		.loc 1 647 7 is_stmt 1 view .LVU439
 647:App/Src/command.c **** 					} else if (g_DeviceRxBuff[j] == ']') {
 2249              		.loc 1 647 16 is_stmt 0 view .LVU440
 2250 011a 0132     		adds	r2, r2, #1
 2251              	.LVL237:
 647:App/Src/command.c **** 					} else if (g_DeviceRxBuff[j] == ']') {
 2252              		.loc 1 647 16 view .LVU441
 2253 011c D2B2     		uxtb	r2, r2
 2254              	.LVL238:
 2255              	.L143:
 640:App/Src/command.c **** 					if (g_DeviceRxBuff[j] == '0' || g_DeviceRxBuff[j] == '1' || g_DeviceRxBuff[j] == 'N') {
 2256              		.loc 1 640 29 is_stmt 1 discriminator 2 view .LVU442
 640:App/Src/command.c **** 					if (g_DeviceRxBuff[j] == '0' || g_DeviceRxBuff[j] == '1' || g_DeviceRxBuff[j] == 'N') {
 2257              		.loc 1 640 30 is_stmt 0 discriminator 2 view .LVU443
 2258 011e 0134     		adds	r4, r4, #1
 2259              	.LVL239:
 2260              	.L137:
 640:App/Src/command.c **** 					if (g_DeviceRxBuff[j] == '0' || g_DeviceRxBuff[j] == '1' || g_DeviceRxBuff[j] == 'N') {
 2261              		.loc 1 640 17 is_stmt 1 discriminator 1 view .LVU444
 640:App/Src/command.c **** 					if (g_DeviceRxBuff[j] == '0' || g_DeviceRxBuff[j] == '1' || g_DeviceRxBuff[j] == 'N') {
 2262              		.loc 1 640 5 is_stmt 0 discriminator 1 view .LVU445
 2263 0120 A042     		cmp	r0, r4
 2264 0122 15DD     		ble	.L138
 641:App/Src/command.c **** 						if (getNumber == MAX_CHIP_NUMBER) {//数量超范围了，肯定是错误数据	
 2265              		.loc 1 641 6 is_stmt 1 view .LVU446
 641:App/Src/command.c **** 						if (getNumber == MAX_CHIP_NUMBER) {//数量超范围了，肯定是错误数据	
 2266              		.loc 1 641 24 is_stmt 0 view .LVU447
 2267 0124 1D49     		ldr	r1, .L163+8
 2268 0126 0D5D     		ldrb	r5, [r1, r4]	@ zero_extendqisi2
 641:App/Src/command.c **** 						if (getNumber == MAX_CHIP_NUMBER) {//数量超范围了，肯定是错误数据	
 2269              		.loc 1 641 35 view .LVU448
 2270 0128 A5F13001 		sub	r1, r5, #48
 2271 012c C9B2     		uxtb	r1, r1
 641:App/Src/command.c **** 						if (getNumber == MAX_CHIP_NUMBER) {//数量超范围了，肯定是错误数据	
 2272              		.loc 1 641 9 view .LVU449
 2273 012e 0129     		cmp	r1, #1
 2274 0130 ECD9     		bls	.L139
 641:App/Src/command.c **** 						if (getNumber == MAX_CHIP_NUMBER) {//数量超范围了，肯定是错误数据	
ARM GAS  C:\Users\86158\AppData\Local\Temp\cc1K5eBH.s 			page 65


 2275              		.loc 1 641 63 discriminator 1 view .LVU450
 2276 0132 4E2D     		cmp	r5, #78
 2277 0134 EAD0     		beq	.L139
 648:App/Src/command.c **** 						i = j;
 2278              		.loc 1 648 13 is_stmt 1 view .LVU451
 648:App/Src/command.c **** 						i = j;
 2279              		.loc 1 648 16 is_stmt 0 view .LVU452
 2280 0136 5D2D     		cmp	r5, #93
 2281 0138 09D0     		beq	.L154
 651:App/Src/command.c **** 						continue;
 2282              		.loc 1 651 13 is_stmt 1 view .LVU453
 651:App/Src/command.c **** 						continue;
 2283              		.loc 1 651 16 is_stmt 0 view .LVU454
 2284 013a 5B2D     		cmp	r5, #91
 2285 013c EFD0     		beq	.L143
 654:App/Src/command.c **** 						return; 
 2286              		.loc 1 654 7 is_stmt 1 view .LVU455
 2287 013e 1E48     		ldr	r0, .L163+36
 2288              	.LVL240:
 654:App/Src/command.c **** 						return; 
 2289              		.loc 1 654 7 is_stmt 0 view .LVU456
 2290 0140 FFF7FEFF 		bl	DevicePrintf
 2291              	.LVL241:
 655:App/Src/command.c **** 					}
 2292              		.loc 1 655 7 is_stmt 1 view .LVU457
 2293 0144 E0E7     		b	.L124
 2294              	.LVL242:
 2295              	.L160:
 643:App/Src/command.c **** 							return; 
 2296              		.loc 1 643 8 view .LVU458
 2297 0146 1C48     		ldr	r0, .L163+36
 2298              	.LVL243:
 643:App/Src/command.c **** 							return; 
 2299              		.loc 1 643 8 is_stmt 0 view .LVU459
 2300 0148 FFF7FEFF 		bl	DevicePrintf
 2301              	.LVL244:
 644:App/Src/command.c **** 						}
 2302              		.loc 1 644 8 is_stmt 1 view .LVU460
 2303 014c DCE7     		b	.L124
 2304              	.LVL245:
 2305              	.L154:
 649:App/Src/command.c **** 						break;
 2306              		.loc 1 649 9 is_stmt 0 view .LVU461
 2307 014e 2346     		mov	r3, r4
 2308              	.LVL246:
 2309              	.L138:
 659:App/Src/command.c **** 		}
 2310              		.loc 1 659 4 is_stmt 1 view .LVU462
 659:App/Src/command.c **** 		}
 2311              		.loc 1 659 7 is_stmt 0 view .LVU463
 2312 0150 542A     		cmp	r2, #84
 2313 0152 08D0     		beq	.L145
 638:App/Src/command.c **** 			if (g_DeviceRxBuff[i] == '[') {
 2314              		.loc 1 638 27 is_stmt 1 discriminator 2 view .LVU464
 638:App/Src/command.c **** 			if (g_DeviceRxBuff[i] == '[') {
 2315              		.loc 1 638 28 is_stmt 0 discriminator 2 view .LVU465
 2316 0154 0133     		adds	r3, r3, #1
ARM GAS  C:\Users\86158\AppData\Local\Temp\cc1K5eBH.s 			page 66


 2317              	.LVL247:
 2318              	.L136:
 638:App/Src/command.c **** 			if (g_DeviceRxBuff[i] == '[') {
 2319              		.loc 1 638 15 is_stmt 1 discriminator 1 view .LVU466
 638:App/Src/command.c **** 			if (g_DeviceRxBuff[i] == '[') {
 2320              		.loc 1 638 3 is_stmt 0 discriminator 1 view .LVU467
 2321 0156 9842     		cmp	r0, r3
 2322 0158 05DD     		ble	.L145
 639:App/Src/command.c **** 				for (j = i; j < length; j++) {
 2323              		.loc 1 639 4 is_stmt 1 view .LVU468
 639:App/Src/command.c **** 				for (j = i; j < length; j++) {
 2324              		.loc 1 639 22 is_stmt 0 view .LVU469
 2325 015a 1049     		ldr	r1, .L163+8
 2326 015c C95C     		ldrb	r1, [r1, r3]	@ zero_extendqisi2
 639:App/Src/command.c **** 				for (j = i; j < length; j++) {
 2327              		.loc 1 639 7 view .LVU470
 2328 015e 5B29     		cmp	r1, #91
 2329 0160 F6D1     		bne	.L138
 640:App/Src/command.c **** 					if (g_DeviceRxBuff[j] == '0' || g_DeviceRxBuff[j] == '1' || g_DeviceRxBuff[j] == 'N') {
 2330              		.loc 1 640 12 view .LVU471
 2331 0162 1C46     		mov	r4, r3
 2332 0164 DCE7     		b	.L137
 2333              	.L145:
 661:App/Src/command.c **** 			if (input[i] != g_result[i]) {
 2334              		.loc 1 661 3 is_stmt 1 view .LVU472
 2335              	.LVL248:
 661:App/Src/command.c **** 			if (input[i] != g_result[i]) {
 2336              		.loc 1 661 10 is_stmt 0 view .LVU473
 2337 0166 0023     		movs	r3, #0
 2338              	.LVL249:
 2339              	.L147:
 661:App/Src/command.c **** 			if (input[i] != g_result[i]) {
 2340              		.loc 1 661 15 is_stmt 1 discriminator 1 view .LVU474
 661:App/Src/command.c **** 			if (input[i] != g_result[i]) {
 2341              		.loc 1 661 3 is_stmt 0 discriminator 1 view .LVU475
 2342 0168 312B     		cmp	r3, #49
 2343 016a 0EDC     		bgt	.L161
 662:App/Src/command.c **** 				DevicePrintf("ERROR\n");
 2344              		.loc 1 662 4 is_stmt 1 view .LVU476
 662:App/Src/command.c **** 				DevicePrintf("ERROR\n");
 2345              		.loc 1 662 13 is_stmt 0 view .LVU477
 2346 016c 03F16802 		add	r2, r3, #104
 2347 0170 6A44     		add	r2, sp, r2
 2348 0172 12F8681C 		ldrb	r1, [r2, #-104]	@ zero_extendqisi2
 662:App/Src/command.c **** 				DevicePrintf("ERROR\n");
 2349              		.loc 1 662 28 view .LVU478
 2350 0176 12F8342C 		ldrb	r2, [r2, #-52]	@ zero_extendqisi2
 662:App/Src/command.c **** 				DevicePrintf("ERROR\n");
 2351              		.loc 1 662 7 view .LVU479
 2352 017a 9142     		cmp	r1, r2
 2353 017c 01D1     		bne	.L162
 661:App/Src/command.c **** 			if (input[i] != g_result[i]) {
 2354              		.loc 1 661 36 is_stmt 1 discriminator 2 view .LVU480
 661:App/Src/command.c **** 			if (input[i] != g_result[i]) {
 2355              		.loc 1 661 37 is_stmt 0 discriminator 2 view .LVU481
 2356 017e 0133     		adds	r3, r3, #1
 2357              	.LVL250:
ARM GAS  C:\Users\86158\AppData\Local\Temp\cc1K5eBH.s 			page 67


 661:App/Src/command.c **** 			if (input[i] != g_result[i]) {
 2358              		.loc 1 661 37 discriminator 2 view .LVU482
 2359 0180 F2E7     		b	.L147
 2360              	.L162:
 663:App/Src/command.c **** 				return; 
 2361              		.loc 1 663 5 is_stmt 1 view .LVU483
 2362 0182 0D48     		ldr	r0, .L163+36
 2363              	.LVL251:
 663:App/Src/command.c **** 				return; 
 2364              		.loc 1 663 5 is_stmt 0 view .LVU484
 2365 0184 FFF7FEFF 		bl	DevicePrintf
 2366              	.LVL252:
 664:App/Src/command.c **** 			}
 2367              		.loc 1 664 5 is_stmt 1 view .LVU485
 2368 0188 BEE7     		b	.L124
 2369              	.LVL253:
 2370              	.L161:
 667:App/Src/command.c **** 	}
 2371              		.loc 1 667 3 view .LVU486
 2372 018a 0C48     		ldr	r0, .L163+40
 2373              	.LVL254:
 667:App/Src/command.c **** 	}
 2374              		.loc 1 667 3 is_stmt 0 view .LVU487
 2375 018c FFF7FEFF 		bl	DevicePrintf
 2376              	.LVL255:
 667:App/Src/command.c **** 	}
 2377              		.loc 1 667 3 view .LVU488
 2378 0190 BAE7     		b	.L124
 2379              	.L164:
 2380 0192 00BF     		.align	2
 2381              	.L163:
 2382 0194 34000000 		.word	.LC48
 2383 0198 00000000 		.word	.LC49
 2384 019c 00000000 		.word	.LANCHOR9
 2385 01a0 00000000 		.word	.LANCHOR7
 2386 01a4 0C000000 		.word	.LC50
 2387 01a8 20000000 		.word	.LC51
 2388 01ac 24000000 		.word	.LC52
 2389 01b0 28000000 		.word	.LC53
 2390 01b4 67666666 		.word	1717986919
 2391 01b8 2C000000 		.word	.LC54
 2392 01bc 1C000000 		.word	.LC14
 2393              		.cfi_endproc
 2394              	.LFE263:
 2396              		.section	.rodata.AT_SETBSN_Handle.str1.4,"aMS",%progbits,1
 2397              		.align	2
 2398              	.LC55:
 2399 0000 3D00     		.ascii	"=\000"
 2400 0002 0000     		.align	2
 2401              	.LC56:
 2402 0004 6E6F2069 		.ascii	"no input\012\000"
 2402      6E707574 
 2402      0A00
 2403 000e 0000     		.align	2
 2404              	.LC57:
 2405 0010 62736E20 		.ascii	"bsn length not enough\012\000"
 2405      6C656E67 
ARM GAS  C:\Users\86158\AppData\Local\Temp\cc1K5eBH.s 			page 68


 2405      7468206E 
 2405      6F742065 
 2405      6E6F7567 
 2406 0027 00       		.align	2
 2407              	.LC58:
 2408 0028 62736E20 		.ascii	"bsn not right, A-Z, 0-9\012\000"
 2408      6E6F7420 
 2408      72696768 
 2408      742C2041 
 2408      2D5A2C20 
 2409              		.section	.text.AT_SETBSN_Handle,"ax",%progbits
 2410              		.align	1
 2411              		.global	AT_SETBSN_Handle
 2412              		.syntax unified
 2413              		.thumb
 2414              		.thumb_func
 2416              	AT_SETBSN_Handle:
 2417              	.LVL256:
 2418              	.LFB274:
 991:App/Src/command.c **** 	int number, i, length;
 2419              		.loc 1 991 1 is_stmt 1 view -0
 2420              		.cfi_startproc
 2421              		@ args = 0, pretend = 0, frame = 16
 2422              		@ frame_needed = 0, uses_anonymous_args = 0
 991:App/Src/command.c **** 	int number, i, length;
 2423              		.loc 1 991 1 is_stmt 0 view .LVU490
 2424 0000 F0B5     		push	{r4, r5, r6, r7, lr}
 2425              	.LCFI44:
 2426              		.cfi_def_cfa_offset 20
 2427              		.cfi_offset 4, -20
 2428              		.cfi_offset 5, -16
 2429              		.cfi_offset 6, -12
 2430              		.cfi_offset 7, -8
 2431              		.cfi_offset 14, -4
 2432 0002 85B0     		sub	sp, sp, #20
 2433              	.LCFI45:
 2434              		.cfi_def_cfa_offset 40
 2435 0004 0546     		mov	r5, r0
 992:App/Src/command.c **** 	char bsn[BSN_LENGTH + 1] = {0};
 2436              		.loc 1 992 2 is_stmt 1 view .LVU491
 993:App/Src/command.c **** 	number = strSearch(command, "=");
 2437              		.loc 1 993 2 view .LVU492
 993:App/Src/command.c **** 	number = strSearch(command, "=");
 2438              		.loc 1 993 7 is_stmt 0 view .LVU493
 2439 0006 0023     		movs	r3, #0
 2440 0008 0193     		str	r3, [sp, #4]
 2441 000a 0293     		str	r3, [sp, #8]
 2442 000c 8DF80C30 		strb	r3, [sp, #12]
 994:App/Src/command.c **** 	if (number <= 1) {
 2443              		.loc 1 994 2 is_stmt 1 view .LVU494
 994:App/Src/command.c **** 	if (number <= 1) {
 2444              		.loc 1 994 11 is_stmt 0 view .LVU495
 2445 0010 1E49     		ldr	r1, .L180
 2446 0012 FFF7FEFF 		bl	strSearch
 2447              	.LVL257:
 995:App/Src/command.c **** 		UsbPrintf("no input\n");
 2448              		.loc 1 995 2 is_stmt 1 view .LVU496
ARM GAS  C:\Users\86158\AppData\Local\Temp\cc1K5eBH.s 			page 69


 995:App/Src/command.c **** 		UsbPrintf("no input\n");
 2449              		.loc 1 995 5 is_stmt 0 view .LVU497
 2450 0016 0128     		cmp	r0, #1
 2451 0018 09DD     		ble	.L178
 2452 001a 0446     		mov	r4, r0
 999:App/Src/command.c **** 	if (length < (number + 8)) {
 2453              		.loc 1 999 2 is_stmt 1 view .LVU498
 999:App/Src/command.c **** 	if (length < (number + 8)) {
 2454              		.loc 1 999 11 is_stmt 0 view .LVU499
 2455 001c 2846     		mov	r0, r5
 2456              	.LVL258:
 999:App/Src/command.c **** 	if (length < (number + 8)) {
 2457              		.loc 1 999 11 view .LVU500
 2458 001e FFF7FEFF 		bl	strlen
 2459              	.LVL259:
 2460 0022 0646     		mov	r6, r0
 2461              	.LVL260:
1000:App/Src/command.c **** 		UsbPrintf("bsn length not enough\n");
 2462              		.loc 1 1000 2 is_stmt 1 view .LVU501
1000:App/Src/command.c **** 		UsbPrintf("bsn length not enough\n");
 2463              		.loc 1 1000 13 is_stmt 0 view .LVU502
 2464 0024 E71D     		adds	r7, r4, #7
1000:App/Src/command.c **** 		UsbPrintf("bsn length not enough\n");
 2465              		.loc 1 1000 5 view .LVU503
 2466 0026 8742     		cmp	r7, r0
 2467 0028 05DA     		bge	.L179
 2468              	.LVL261:
 2469              	.L168:
1003:App/Src/command.c **** 		if ((command[i] >= 'A' && command[i] <= 'Z') || (command[i] >= '0' && command[i] <= '9')) {
 2470              		.loc 1 1003 2 is_stmt 1 view .LVU504
1003:App/Src/command.c **** 		if ((command[i] >= 'A' && command[i] <= 'Z') || (command[i] >= '0' && command[i] <= '9')) {
 2471              		.loc 1 1003 9 is_stmt 0 view .LVU505
 2472 002a 631C     		adds	r3, r4, #1
 2473              	.LVL262:
1003:App/Src/command.c **** 		if ((command[i] >= 'A' && command[i] <= 'Z') || (command[i] >= '0' && command[i] <= '9')) {
 2474              		.loc 1 1003 2 view .LVU506
 2475 002c 0FE0     		b	.L169
 2476              	.LVL263:
 2477              	.L178:
 996:App/Src/command.c **** 		return;
 2478              		.loc 1 996 3 is_stmt 1 view .LVU507
 2479 002e 1848     		ldr	r0, .L180+4
 2480              	.LVL264:
 996:App/Src/command.c **** 		return;
 2481              		.loc 1 996 3 is_stmt 0 view .LVU508
 2482 0030 FFF7FEFF 		bl	UsbPrintf
 2483              	.LVL265:
 997:App/Src/command.c **** 	}
 2484              		.loc 1 997 3 is_stmt 1 view .LVU509
 2485 0034 28E0     		b	.L165
 2486              	.LVL266:
 2487              	.L179:
1001:App/Src/command.c **** 	}
 2488              		.loc 1 1001 3 view .LVU510
 2489 0036 1748     		ldr	r0, .L180+8
 2490              	.LVL267:
1001:App/Src/command.c **** 	}
ARM GAS  C:\Users\86158\AppData\Local\Temp\cc1K5eBH.s 			page 70


 2491              		.loc 1 1001 3 is_stmt 0 view .LVU511
 2492 0038 FFF7FEFF 		bl	UsbPrintf
 2493              	.LVL268:
 2494 003c F5E7     		b	.L168
 2495              	.LVL269:
 2496              	.L170:
1005:App/Src/command.c **** 		} else {
 2497              		.loc 1 1005 4 is_stmt 1 view .LVU512
1005:App/Src/command.c **** 		} else {
 2498              		.loc 1 1005 10 is_stmt 0 view .LVU513
 2499 003e 1A1B     		subs	r2, r3, r4
1005:App/Src/command.c **** 		} else {
 2500              		.loc 1 1005 24 view .LVU514
 2501 0040 0F32     		adds	r2, r2, #15
 2502 0042 6A44     		add	r2, sp, r2
 2503 0044 02F80C1C 		strb	r1, [r2, #-12]
1010:App/Src/command.c **** 			break;
 2504              		.loc 1 1010 3 is_stmt 1 view .LVU515
1010:App/Src/command.c **** 			break;
 2505              		.loc 1 1010 6 is_stmt 0 view .LVU516
 2506 0048 9F42     		cmp	r7, r3
 2507 004a 11DB     		blt	.L172
1003:App/Src/command.c **** 		if ((command[i] >= 'A' && command[i] <= 'Z') || (command[i] >= '0' && command[i] <= '9')) {
 2508              		.loc 1 1003 35 is_stmt 1 discriminator 2 view .LVU517
1003:App/Src/command.c **** 		if ((command[i] >= 'A' && command[i] <= 'Z') || (command[i] >= '0' && command[i] <= '9')) {
 2509              		.loc 1 1003 36 is_stmt 0 discriminator 2 view .LVU518
 2510 004c 0133     		adds	r3, r3, #1
 2511              	.LVL270:
 2512              	.L169:
1003:App/Src/command.c **** 		if ((command[i] >= 'A' && command[i] <= 'Z') || (command[i] >= '0' && command[i] <= '9')) {
 2513              		.loc 1 1003 23 is_stmt 1 discriminator 1 view .LVU519
1003:App/Src/command.c **** 		if ((command[i] >= 'A' && command[i] <= 'Z') || (command[i] >= '0' && command[i] <= '9')) {
 2514              		.loc 1 1003 2 is_stmt 0 discriminator 1 view .LVU520
 2515 004e B342     		cmp	r3, r6
 2516 0050 0EDA     		bge	.L172
1004:App/Src/command.c **** 			bsn[i - number - 1] = command[i];
 2517              		.loc 1 1004 3 is_stmt 1 view .LVU521
1004:App/Src/command.c **** 			bsn[i - number - 1] = command[i];
 2518              		.loc 1 1004 15 is_stmt 0 view .LVU522
 2519 0052 E95C     		ldrb	r1, [r5, r3]	@ zero_extendqisi2
1004:App/Src/command.c **** 			bsn[i - number - 1] = command[i];
 2520              		.loc 1 1004 26 view .LVU523
 2521 0054 A1F14102 		sub	r2, r1, #65
 2522 0058 D2B2     		uxtb	r2, r2
1004:App/Src/command.c **** 			bsn[i - number - 1] = command[i];
 2523              		.loc 1 1004 6 view .LVU524
 2524 005a 192A     		cmp	r2, #25
 2525 005c EFD9     		bls	.L170
1004:App/Src/command.c **** 			bsn[i - number - 1] = command[i];
 2526              		.loc 1 1004 70 discriminator 1 view .LVU525
 2527 005e A1F13002 		sub	r2, r1, #48
 2528 0062 D2B2     		uxtb	r2, r2
1004:App/Src/command.c **** 			bsn[i - number - 1] = command[i];
 2529              		.loc 1 1004 48 discriminator 1 view .LVU526
 2530 0064 092A     		cmp	r2, #9
 2531 0066 EAD9     		bls	.L170
1007:App/Src/command.c **** 			return;
ARM GAS  C:\Users\86158\AppData\Local\Temp\cc1K5eBH.s 			page 71


 2532              		.loc 1 1007 4 is_stmt 1 view .LVU527
 2533 0068 0B48     		ldr	r0, .L180+12
 2534 006a FFF7FEFF 		bl	UsbPrintf
 2535              	.LVL271:
1008:App/Src/command.c **** 		}
 2536              		.loc 1 1008 4 view .LVU528
 2537 006e 0BE0     		b	.L165
 2538              	.LVL272:
 2539              	.L172:
1014:App/Src/command.c **** 	HAL_Delay(50);
 2540              		.loc 1 1014 2 view .LVU529
 2541 0070 FFF7FEFF 		bl	ClearBsnFlash
 2542              	.LVL273:
1015:App/Src/command.c **** 	SaveStringToFlash(bsn, BSN_ADDR);
 2543              		.loc 1 1015 2 view .LVU530
 2544 0074 3220     		movs	r0, #50
 2545 0076 FFF7FEFF 		bl	HAL_Delay
 2546              	.LVL274:
1016:App/Src/command.c **** 	UsbPrintf("OK\n");
 2547              		.loc 1 1016 2 view .LVU531
 2548 007a 0849     		ldr	r1, .L180+16
 2549 007c 01A8     		add	r0, sp, #4
 2550 007e FFF7FEFF 		bl	SaveStringToFlash
 2551              	.LVL275:
1017:App/Src/command.c **** }
 2552              		.loc 1 1017 2 view .LVU532
 2553 0082 0748     		ldr	r0, .L180+20
 2554 0084 FFF7FEFF 		bl	UsbPrintf
 2555              	.LVL276:
 2556              	.L165:
1018:App/Src/command.c **** extern uint16_t g_csn;
 2557              		.loc 1 1018 1 is_stmt 0 view .LVU533
 2558 0088 05B0     		add	sp, sp, #20
 2559              	.LCFI46:
 2560              		.cfi_def_cfa_offset 20
 2561              		@ sp needed
 2562 008a F0BD     		pop	{r4, r5, r6, r7, pc}
 2563              	.LVL277:
 2564              	.L181:
1018:App/Src/command.c **** extern uint16_t g_csn;
 2565              		.loc 1 1018 1 view .LVU534
 2566              		.align	2
 2567              	.L180:
 2568 008c 00000000 		.word	.LC55
 2569 0090 04000000 		.word	.LC56
 2570 0094 10000000 		.word	.LC57
 2571 0098 28000000 		.word	.LC58
 2572 009c 00000608 		.word	134610944
 2573 00a0 1C000000 		.word	.LC14
 2574              		.cfi_endproc
 2575              	.LFE274:
 2577              		.section	.text.CharToInt,"ax",%progbits
 2578              		.align	1
 2579              		.global	CharToInt
 2580              		.syntax unified
 2581              		.thumb
 2582              		.thumb_func
ARM GAS  C:\Users\86158\AppData\Local\Temp\cc1K5eBH.s 			page 72


 2584              	CharToInt:
 2585              	.LVL278:
 2586              	.LFB242:
 152:App/Src/command.c **** 	uint8_t length;
 2587              		.loc 1 152 1 is_stmt 1 view -0
 2588              		.cfi_startproc
 2589              		@ args = 0, pretend = 0, frame = 0
 2590              		@ frame_needed = 0, uses_anonymous_args = 0
 152:App/Src/command.c **** 	uint8_t length;
 2591              		.loc 1 152 1 is_stmt 0 view .LVU536
 2592 0000 70B5     		push	{r4, r5, r6, lr}
 2593              	.LCFI47:
 2594              		.cfi_def_cfa_offset 16
 2595              		.cfi_offset 4, -16
 2596              		.cfi_offset 5, -12
 2597              		.cfi_offset 6, -8
 2598              		.cfi_offset 14, -4
 2599 0002 0646     		mov	r6, r0
 2600 0004 0C46     		mov	r4, r1
 2601 0006 1546     		mov	r5, r2
 153:App/Src/command.c **** 	uint8_t i;
 2602              		.loc 1 153 2 is_stmt 1 view .LVU537
 154:App/Src/command.c **** 	int sum = 0;
 2603              		.loc 1 154 2 view .LVU538
 155:App/Src/command.c **** 	int state = 0;
 2604              		.loc 1 155 2 view .LVU539
 2605              	.LVL279:
 156:App/Src/command.c **** 	uint8_t hex = 0;
 2606              		.loc 1 156 2 view .LVU540
 157:App/Src/command.c **** 	length = strlen(source);
 2607              		.loc 1 157 2 view .LVU541
 158:App/Src/command.c **** 	if (start >= length) {
 2608              		.loc 1 158 2 view .LVU542
 158:App/Src/command.c **** 	if (start >= length) {
 2609              		.loc 1 158 11 is_stmt 0 view .LVU543
 2610 0008 FFF7FEFF 		bl	strlen
 2611              	.LVL280:
 158:App/Src/command.c **** 	if (start >= length) {
 2612              		.loc 1 158 9 view .LVU544
 2613 000c C2B2     		uxtb	r2, r0
 2614              	.LVL281:
 159:App/Src/command.c **** 		*number = 0;
 2615              		.loc 1 159 2 is_stmt 1 view .LVU545
 159:App/Src/command.c **** 		*number = 0;
 2616              		.loc 1 159 5 is_stmt 0 view .LVU546
 2617 000e A242     		cmp	r2, r4
 2618 0010 15D9     		bls	.L202
 164:App/Src/command.c **** 		state = -1;
 2619              		.loc 1 164 2 is_stmt 1 view .LVU547
 164:App/Src/command.c **** 		state = -1;
 2620              		.loc 1 164 12 is_stmt 0 view .LVU548
 2621 0012 A446     		mov	ip, r4
 2622 0014 315D     		ldrb	r1, [r6, r4]	@ zero_extendqisi2
 164:App/Src/command.c **** 		state = -1;
 2623              		.loc 1 164 5 view .LVU549
 2624 0016 2D29     		cmp	r1, #45
 2625 0018 14D0     		beq	.L203
ARM GAS  C:\Users\86158\AppData\Local\Temp\cc1K5eBH.s 			page 73


 168:App/Src/command.c **** 		if (start + 1 < length ) {
 2626              		.loc 1 168 3 is_stmt 1 view .LVU550
 2627              	.LVL282:
 169:App/Src/command.c **** 			if (source[start] == '0' && (source[start + 1] == 'x' ||source[start + 1] == 'X')) {
 2628              		.loc 1 169 3 view .LVU551
 169:App/Src/command.c **** 			if (source[start] == '0' && (source[start + 1] == 'x' ||source[start + 1] == 'X')) {
 2629              		.loc 1 169 13 is_stmt 0 view .LVU552
 2630 001a 631C     		adds	r3, r4, #1
 169:App/Src/command.c **** 			if (source[start] == '0' && (source[start + 1] == 'x' ||source[start + 1] == 'X')) {
 2631              		.loc 1 169 17 view .LVU553
 2632 001c C0B2     		uxtb	r0, r0
 169:App/Src/command.c **** 			if (source[start] == '0' && (source[start + 1] == 'x' ||source[start + 1] == 'X')) {
 2633              		.loc 1 169 6 view .LVU554
 2634 001e 8342     		cmp	r3, r0
 2635 0020 17DA     		bge	.L198
 170:App/Src/command.c **** 				start += 2;
 2636              		.loc 1 170 4 is_stmt 1 view .LVU555
 170:App/Src/command.c **** 				start += 2;
 2637              		.loc 1 170 7 is_stmt 0 view .LVU556
 2638 0022 3029     		cmp	r1, #48
 2639 0024 19D1     		bne	.L199
 170:App/Src/command.c **** 				start += 2;
 2640              		.loc 1 170 39 discriminator 1 view .LVU557
 2641 0026 B444     		add	ip, ip, r6
 2642 0028 9CF80130 		ldrb	r3, [ip, #1]	@ zero_extendqisi2
 170:App/Src/command.c **** 				start += 2;
 2643              		.loc 1 170 29 discriminator 1 view .LVU558
 2644 002c 782B     		cmp	r3, #120
 2645 002e 01D0     		beq	.L187
 170:App/Src/command.c **** 				start += 2;
 2646              		.loc 1 170 58 discriminator 2 view .LVU559
 2647 0030 582B     		cmp	r3, #88
 2648 0032 16D1     		bne	.L200
 2649              	.L187:
 171:App/Src/command.c **** 				hex = 1;
 2650              		.loc 1 171 5 is_stmt 1 view .LVU560
 171:App/Src/command.c **** 				hex = 1;
 2651              		.loc 1 171 11 is_stmt 0 view .LVU561
 2652 0034 0234     		adds	r4, r4, #2
 2653 0036 E4B2     		uxtb	r4, r4
 2654              	.LVL283:
 172:App/Src/command.c **** 			}
 2655              		.loc 1 172 5 is_stmt 1 view .LVU562
 172:App/Src/command.c **** 			}
 2656              		.loc 1 172 9 is_stmt 0 view .LVU563
 2657 0038 0120     		movs	r0, #1
 168:App/Src/command.c **** 		if (start + 1 < length ) {
 2658              		.loc 1 168 9 view .LVU564
 2659 003a 8446     		mov	ip, r0
 2660 003c 07E0     		b	.L186
 2661              	.LVL284:
 2662              	.L202:
 160:App/Src/command.c **** 		return 0;
 2663              		.loc 1 160 3 is_stmt 1 view .LVU565
 160:App/Src/command.c **** 		return 0;
 2664              		.loc 1 160 11 is_stmt 0 view .LVU566
 2665 003e 0020     		movs	r0, #0
ARM GAS  C:\Users\86158\AppData\Local\Temp\cc1K5eBH.s 			page 74


 2666 0040 2860     		str	r0, [r5]
 161:App/Src/command.c **** 	}
 2667              		.loc 1 161 3 is_stmt 1 view .LVU567
 161:App/Src/command.c **** 	}
 2668              		.loc 1 161 10 is_stmt 0 view .LVU568
 2669 0042 4CE0     		b	.L184
 2670              	.L203:
 165:App/Src/command.c **** 		start++;
 2671              		.loc 1 165 3 is_stmt 1 view .LVU569
 2672              	.LVL285:
 166:App/Src/command.c **** 	} else {
 2673              		.loc 1 166 3 view .LVU570
 166:App/Src/command.c **** 	} else {
 2674              		.loc 1 166 8 is_stmt 0 view .LVU571
 2675 0044 0134     		adds	r4, r4, #1
 2676 0046 E4B2     		uxtb	r4, r4
 2677              	.LVL286:
 157:App/Src/command.c **** 	length = strlen(source);
 2678              		.loc 1 157 10 view .LVU572
 2679 0048 0020     		movs	r0, #0
 165:App/Src/command.c **** 		start++;
 2680              		.loc 1 165 9 view .LVU573
 2681 004a 4FF0FF3C 		mov	ip, #-1
 2682              	.LVL287:
 2683              	.L186:
 176:App/Src/command.c **** 		if (source[i] >= '0' && source[i] <= '9') {
 2684              		.loc 1 176 2 is_stmt 1 view .LVU574
 155:App/Src/command.c **** 	int state = 0;
 2685              		.loc 1 155 6 is_stmt 0 view .LVU575
 2686 004e 0023     		movs	r3, #0
 176:App/Src/command.c **** 		if (source[i] >= '0' && source[i] <= '9') {
 2687              		.loc 1 176 2 view .LVU576
 2688 0050 12E0     		b	.L188
 2689              	.LVL288:
 2690              	.L198:
 157:App/Src/command.c **** 	length = strlen(source);
 2691              		.loc 1 157 10 view .LVU577
 2692 0052 0020     		movs	r0, #0
 168:App/Src/command.c **** 		if (start + 1 < length ) {
 2693              		.loc 1 168 9 view .LVU578
 2694 0054 4FF0010C 		mov	ip, #1
 2695 0058 F9E7     		b	.L186
 2696              	.L199:
 157:App/Src/command.c **** 	length = strlen(source);
 2697              		.loc 1 157 10 view .LVU579
 2698 005a 0020     		movs	r0, #0
 168:App/Src/command.c **** 		if (start + 1 < length ) {
 2699              		.loc 1 168 9 view .LVU580
 2700 005c 4FF0010C 		mov	ip, #1
 2701 0060 F5E7     		b	.L186
 2702              	.L200:
 157:App/Src/command.c **** 	length = strlen(source);
 2703              		.loc 1 157 10 view .LVU581
 2704 0062 0020     		movs	r0, #0
 168:App/Src/command.c **** 		if (start + 1 < length ) {
 2705              		.loc 1 168 9 view .LVU582
 2706 0064 4FF0010C 		mov	ip, #1
ARM GAS  C:\Users\86158\AppData\Local\Temp\cc1K5eBH.s 			page 75


 2707 0068 F1E7     		b	.L186
 2708              	.LVL289:
 2709              	.L190:
 181:App/Src/command.c **** 			}
 2710              		.loc 1 181 5 is_stmt 1 view .LVU583
 181:App/Src/command.c **** 			}
 2711              		.loc 1 181 15 is_stmt 0 view .LVU584
 2712 006a 03EB8303 		add	r3, r3, r3, lsl #2
 2713              	.LVL290:
 181:App/Src/command.c **** 			}
 2714              		.loc 1 181 20 view .LVU585
 2715 006e 0EEB4303 		add	r3, lr, r3, lsl #1
 181:App/Src/command.c **** 			}
 2716              		.loc 1 181 9 view .LVU586
 2717 0072 303B     		subs	r3, r3, #48
 2718              	.LVL291:
 2719              	.L191:
 176:App/Src/command.c **** 		if (source[i] >= '0' && source[i] <= '9') {
 2720              		.loc 1 176 30 is_stmt 1 discriminator 2 view .LVU587
 176:App/Src/command.c **** 		if (source[i] >= '0' && source[i] <= '9') {
 2721              		.loc 1 176 31 is_stmt 0 discriminator 2 view .LVU588
 2722 0074 0134     		adds	r4, r4, #1
 2723              	.LVL292:
 176:App/Src/command.c **** 		if (source[i] >= '0' && source[i] <= '9') {
 2724              		.loc 1 176 31 discriminator 2 view .LVU589
 2725 0076 E4B2     		uxtb	r4, r4
 2726              	.LVL293:
 2727              	.L188:
 176:App/Src/command.c **** 		if (source[i] >= '0' && source[i] <= '9') {
 2728              		.loc 1 176 18 is_stmt 1 discriminator 1 view .LVU590
 176:App/Src/command.c **** 		if (source[i] >= '0' && source[i] <= '9') {
 2729              		.loc 1 176 2 is_stmt 0 discriminator 1 view .LVU591
 2730 0078 9442     		cmp	r4, r2
 2731 007a 2CD2     		bcs	.L196
 177:App/Src/command.c **** 			if (hex == 1) {
 2732              		.loc 1 177 3 is_stmt 1 view .LVU592
 177:App/Src/command.c **** 			if (hex == 1) {
 2733              		.loc 1 177 13 is_stmt 0 view .LVU593
 2734 007c 16F804E0 		ldrb	lr, [r6, r4]	@ zero_extendqisi2
 177:App/Src/command.c **** 			if (hex == 1) {
 2735              		.loc 1 177 24 view .LVU594
 2736 0080 AEF13001 		sub	r1, lr, #48
 2737 0084 C9B2     		uxtb	r1, r1
 177:App/Src/command.c **** 			if (hex == 1) {
 2738              		.loc 1 177 6 view .LVU595
 2739 0086 0929     		cmp	r1, #9
 2740 0088 05D8     		bhi	.L189
 178:App/Src/command.c **** 				sum = sum * 16 + source[i] - '0';
 2741              		.loc 1 178 4 is_stmt 1 view .LVU596
 178:App/Src/command.c **** 				sum = sum * 16 + source[i] - '0';
 2742              		.loc 1 178 7 is_stmt 0 view .LVU597
 2743 008a 0028     		cmp	r0, #0
 2744 008c EDD0     		beq	.L190
 179:App/Src/command.c **** 			} else {
 2745              		.loc 1 179 5 is_stmt 1 view .LVU598
 179:App/Src/command.c **** 			} else {
 2746              		.loc 1 179 20 is_stmt 0 view .LVU599
ARM GAS  C:\Users\86158\AppData\Local\Temp\cc1K5eBH.s 			page 76


 2747 008e 0EEB0313 		add	r3, lr, r3, lsl #4
 2748              	.LVL294:
 179:App/Src/command.c **** 			} else {
 2749              		.loc 1 179 9 view .LVU600
 2750 0092 303B     		subs	r3, r3, #48
 2751              	.LVL295:
 179:App/Src/command.c **** 			} else {
 2752              		.loc 1 179 9 view .LVU601
 2753 0094 EEE7     		b	.L191
 2754              	.L189:
 183:App/Src/command.c **** 			if (hex == 1) {
 2755              		.loc 1 183 10 is_stmt 1 view .LVU602
 183:App/Src/command.c **** 			if (hex == 1) {
 2756              		.loc 1 183 31 is_stmt 0 view .LVU603
 2757 0096 AEF16101 		sub	r1, lr, #97
 2758 009a C9B2     		uxtb	r1, r1
 183:App/Src/command.c **** 			if (hex == 1) {
 2759              		.loc 1 183 13 view .LVU604
 2760 009c 0529     		cmp	r1, #5
 2761 009e 07D8     		bhi	.L192
 184:App/Src/command.c **** 				sum = sum * 16  + source[i] - 'a' + 10;
 2762              		.loc 1 184 4 is_stmt 1 view .LVU605
 184:App/Src/command.c **** 				sum = sum * 16  + source[i] - 'a' + 10;
 2763              		.loc 1 184 7 is_stmt 0 view .LVU606
 2764 00a0 18B1     		cbz	r0, .L193
 185:App/Src/command.c **** 			} else {
 2765              		.loc 1 185 5 is_stmt 1 view .LVU607
 185:App/Src/command.c **** 			} else {
 2766              		.loc 1 185 21 is_stmt 0 view .LVU608
 2767 00a2 0EEB0313 		add	r3, lr, r3, lsl #4
 2768              	.LVL296:
 185:App/Src/command.c **** 			} else {
 2769              		.loc 1 185 9 view .LVU609
 2770 00a6 573B     		subs	r3, r3, #87
 2771              	.LVL297:
 185:App/Src/command.c **** 			} else {
 2772              		.loc 1 185 9 view .LVU610
 2773 00a8 E4E7     		b	.L191
 2774              	.L193:
 187:App/Src/command.c **** 				return 0;
 2775              		.loc 1 187 5 is_stmt 1 view .LVU611
 187:App/Src/command.c **** 				return 0;
 2776              		.loc 1 187 13 is_stmt 0 view .LVU612
 2777 00aa 0023     		movs	r3, #0
 2778              	.LVL298:
 187:App/Src/command.c **** 				return 0;
 2779              		.loc 1 187 13 view .LVU613
 2780 00ac 2B60     		str	r3, [r5]
 188:App/Src/command.c **** 			}
 2781              		.loc 1 188 5 is_stmt 1 view .LVU614
 188:App/Src/command.c **** 			}
 2782              		.loc 1 188 12 is_stmt 0 view .LVU615
 2783 00ae 16E0     		b	.L184
 2784              	.LVL299:
 2785              	.L192:
 190:App/Src/command.c **** 			if (hex == 1) {
 2786              		.loc 1 190 9 is_stmt 1 view .LVU616
ARM GAS  C:\Users\86158\AppData\Local\Temp\cc1K5eBH.s 			page 77


 190:App/Src/command.c **** 			if (hex == 1) {
 2787              		.loc 1 190 30 is_stmt 0 view .LVU617
 2788 00b0 AEF14101 		sub	r1, lr, #65
 2789 00b4 C9B2     		uxtb	r1, r1
 190:App/Src/command.c **** 			if (hex == 1) {
 2790              		.loc 1 190 12 view .LVU618
 2791 00b6 0529     		cmp	r1, #5
 2792 00b8 07D8     		bhi	.L194
 191:App/Src/command.c **** 				sum = sum * 16  + source[i] - 'A' + 10;
 2793              		.loc 1 191 4 is_stmt 1 view .LVU619
 191:App/Src/command.c **** 				sum = sum * 16  + source[i] - 'A' + 10;
 2794              		.loc 1 191 7 is_stmt 0 view .LVU620
 2795 00ba 18B1     		cbz	r0, .L195
 192:App/Src/command.c **** 			} else {
 2796              		.loc 1 192 5 is_stmt 1 view .LVU621
 192:App/Src/command.c **** 			} else {
 2797              		.loc 1 192 21 is_stmt 0 view .LVU622
 2798 00bc 0EEB0313 		add	r3, lr, r3, lsl #4
 2799              	.LVL300:
 192:App/Src/command.c **** 			} else {
 2800              		.loc 1 192 9 view .LVU623
 2801 00c0 373B     		subs	r3, r3, #55
 2802              	.LVL301:
 192:App/Src/command.c **** 			} else {
 2803              		.loc 1 192 9 view .LVU624
 2804 00c2 D7E7     		b	.L191
 2805              	.L195:
 194:App/Src/command.c **** 				return 0;
 2806              		.loc 1 194 5 is_stmt 1 view .LVU625
 194:App/Src/command.c **** 				return 0;
 2807              		.loc 1 194 13 is_stmt 0 view .LVU626
 2808 00c4 0023     		movs	r3, #0
 2809              	.LVL302:
 194:App/Src/command.c **** 				return 0;
 2810              		.loc 1 194 13 view .LVU627
 2811 00c6 2B60     		str	r3, [r5]
 195:App/Src/command.c **** 			}
 2812              		.loc 1 195 5 is_stmt 1 view .LVU628
 195:App/Src/command.c **** 			}
 2813              		.loc 1 195 12 is_stmt 0 view .LVU629
 2814 00c8 09E0     		b	.L184
 2815              	.LVL303:
 2816              	.L194:
 197:App/Src/command.c **** 			break;
 2817              		.loc 1 197 10 is_stmt 1 view .LVU630
 197:App/Src/command.c **** 			break;
 2818              		.loc 1 197 13 is_stmt 0 view .LVU631
 2819 00ca BEF1200F 		cmp	lr, #32
 2820 00ce 02D0     		beq	.L196
 197:App/Src/command.c **** 			break;
 2821              		.loc 1 197 31 discriminator 1 view .LVU632
 2822 00d0 BEF12C0F 		cmp	lr, #44
 2823 00d4 CED1     		bne	.L191
 2824              	.L196:
 201:App/Src/command.c **** 	return 1;
 2825              		.loc 1 201 2 is_stmt 1 view .LVU633
 201:App/Src/command.c **** 	return 1;
ARM GAS  C:\Users\86158\AppData\Local\Temp\cc1K5eBH.s 			page 78


 2826              		.loc 1 201 18 is_stmt 0 view .LVU634
 2827 00d6 0CFB03F3 		mul	r3, ip, r3
 2828              	.LVL304:
 201:App/Src/command.c **** 	return 1;
 2829              		.loc 1 201 10 view .LVU635
 2830 00da 2B60     		str	r3, [r5]
 202:App/Src/command.c **** }
 2831              		.loc 1 202 2 is_stmt 1 view .LVU636
 202:App/Src/command.c **** }
 2832              		.loc 1 202 9 is_stmt 0 view .LVU637
 2833 00dc 0120     		movs	r0, #1
 2834              	.LVL305:
 2835              	.L184:
 203:App/Src/command.c **** 
 2836              		.loc 1 203 1 view .LVU638
 2837 00de 70BD     		pop	{r4, r5, r6, pc}
 203:App/Src/command.c **** 
 2838              		.loc 1 203 1 view .LVU639
 2839              		.cfi_endproc
 2840              	.LFE242:
 2842              		.section	.rodata.AT_SETTIME_Handle.str1.4,"aMS",%progbits,1
 2843              		.align	2
 2844              	.LC59:
 2845 0000 79656172 		.ascii	"year:\000"
 2845      3A00
 2846 0006 0000     		.align	2
 2847              	.LC60:
 2848 0008 6D6F6E3A 		.ascii	"mon:\000"
 2848      00
 2849 000d 000000   		.align	2
 2850              	.LC61:
 2851 0010 6461793A 		.ascii	"day:\000"
 2851      00
 2852 0015 000000   		.align	2
 2853              	.LC62:
 2854 0018 686F7572 		.ascii	"hour:\000"
 2854      3A00
 2855 001e 0000     		.align	2
 2856              	.LC63:
 2857 0020 6D696E3A 		.ascii	"min:\000"
 2857      00
 2858 0025 000000   		.align	2
 2859              	.LC64:
 2860 0028 7365633A 		.ascii	"sec:\000"
 2860      00
 2861 002d 000000   		.align	2
 2862              	.LC65:
 2863 0030 64617465 		.ascii	"date set success!\012OK!\015\012\000"
 2863      20736574 
 2863      20737563 
 2863      63657373 
 2863      210A4F4B 
 2864              		.section	.text.AT_SETTIME_Handle,"ax",%progbits
 2865              		.align	1
 2866              		.global	AT_SETTIME_Handle
 2867              		.syntax unified
 2868              		.thumb
ARM GAS  C:\Users\86158\AppData\Local\Temp\cc1K5eBH.s 			page 79


 2869              		.thumb_func
 2871              	AT_SETTIME_Handle:
 2872              	.LVL306:
 2873              	.LFB247:
 279:App/Src/command.c **** 	RealTime rtc = {0};
 2874              		.loc 1 279 1 is_stmt 1 view -0
 2875              		.cfi_startproc
 2876              		@ args = 0, pretend = 0, frame = 16
 2877              		@ frame_needed = 0, uses_anonymous_args = 0
 279:App/Src/command.c **** 	RealTime rtc = {0};
 2878              		.loc 1 279 1 is_stmt 0 view .LVU641
 2879 0000 10B5     		push	{r4, lr}
 2880              	.LCFI48:
 2881              		.cfi_def_cfa_offset 8
 2882              		.cfi_offset 4, -8
 2883              		.cfi_offset 14, -4
 2884 0002 84B0     		sub	sp, sp, #16
 2885              	.LCFI49:
 2886              		.cfi_def_cfa_offset 24
 2887 0004 0446     		mov	r4, r0
 280:App/Src/command.c **** 	int num = 0;
 2888              		.loc 1 280 2 is_stmt 1 view .LVU642
 280:App/Src/command.c **** 	int num = 0;
 2889              		.loc 1 280 11 is_stmt 0 view .LVU643
 2890 0006 0023     		movs	r3, #0
 2891 0008 0293     		str	r3, [sp, #8]
 2892 000a 0393     		str	r3, [sp, #12]
 281:App/Src/command.c **** 	int inNumber = 0;
 2893              		.loc 1 281 2 is_stmt 1 view .LVU644
 2894              	.LVL307:
 282:App/Src/command.c **** 
 2895              		.loc 1 282 2 view .LVU645
 282:App/Src/command.c **** 
 2896              		.loc 1 282 6 is_stmt 0 view .LVU646
 2897 000c 0193     		str	r3, [sp, #4]
 284:App/Src/command.c **** 	num = strSearch(command, "year:");
 2898              		.loc 1 284 2 is_stmt 1 view .LVU647
 2899 000e 02A8     		add	r0, sp, #8
 2900              	.LVL308:
 284:App/Src/command.c **** 	num = strSearch(command, "year:");
 2901              		.loc 1 284 2 is_stmt 0 view .LVU648
 2902 0010 FFF7FEFF 		bl	system_get_real_time
 2903              	.LVL309:
 285:App/Src/command.c **** 	if (num != -1) {
 2904              		.loc 1 285 2 is_stmt 1 view .LVU649
 285:App/Src/command.c **** 	if (num != -1) {
 2905              		.loc 1 285 8 is_stmt 0 view .LVU650
 2906 0014 5749     		ldr	r1, .L219
 2907 0016 2046     		mov	r0, r4
 2908 0018 FFF7FEFF 		bl	strSearch
 2909              	.LVL310:
 286:App/Src/command.c **** 		num += strlen("year:");
 2910              		.loc 1 286 2 is_stmt 1 view .LVU651
 286:App/Src/command.c **** 		num += strlen("year:");
 2911              		.loc 1 286 5 is_stmt 0 view .LVU652
 2912 001c B0F1FF3F 		cmp	r0, #-1
 2913 0020 3FD1     		bne	.L214
ARM GAS  C:\Users\86158\AppData\Local\Temp\cc1K5eBH.s 			page 80


 2914              	.LVL311:
 2915              	.L205:
 291:App/Src/command.c **** 	if (num != -1) {
 2916              		.loc 1 291 2 is_stmt 1 view .LVU653
 291:App/Src/command.c **** 	if (num != -1) {
 2917              		.loc 1 291 8 is_stmt 0 view .LVU654
 2918 0022 5549     		ldr	r1, .L219+4
 2919 0024 2046     		mov	r0, r4
 2920 0026 FFF7FEFF 		bl	strSearch
 2921              	.LVL312:
 292:App/Src/command.c **** 		num += strlen("mon:");
 2922              		.loc 1 292 2 is_stmt 1 view .LVU655
 292:App/Src/command.c **** 		num += strlen("mon:");
 2923              		.loc 1 292 5 is_stmt 0 view .LVU656
 2924 002a B0F1FF3F 		cmp	r0, #-1
 2925 002e 4DD1     		bne	.L215
 2926              	.LVL313:
 2927              	.L207:
 297:App/Src/command.c **** 	if (num != -1) {
 2928              		.loc 1 297 2 is_stmt 1 view .LVU657
 297:App/Src/command.c **** 	if (num != -1) {
 2929              		.loc 1 297 8 is_stmt 0 view .LVU658
 2930 0030 5249     		ldr	r1, .L219+8
 2931 0032 2046     		mov	r0, r4
 2932 0034 FFF7FEFF 		bl	strSearch
 2933              	.LVL314:
 298:App/Src/command.c **** 		num += strlen("day:");
 2934              		.loc 1 298 2 is_stmt 1 view .LVU659
 298:App/Src/command.c **** 		num += strlen("day:");
 2935              		.loc 1 298 5 is_stmt 0 view .LVU660
 2936 0038 B0F1FF3F 		cmp	r0, #-1
 2937 003c 5BD1     		bne	.L216
 2938              	.LVL315:
 2939              	.L208:
 303:App/Src/command.c **** 	if (num != -1) {
 2940              		.loc 1 303 2 is_stmt 1 view .LVU661
 303:App/Src/command.c **** 	if (num != -1) {
 2941              		.loc 1 303 8 is_stmt 0 view .LVU662
 2942 003e 5049     		ldr	r1, .L219+12
 2943 0040 2046     		mov	r0, r4
 2944 0042 FFF7FEFF 		bl	strSearch
 2945              	.LVL316:
 304:App/Src/command.c **** 		num += strlen("hour:");
 2946              		.loc 1 304 2 is_stmt 1 view .LVU663
 304:App/Src/command.c **** 		num += strlen("hour:");
 2947              		.loc 1 304 5 is_stmt 0 view .LVU664
 2948 0046 B0F1FF3F 		cmp	r0, #-1
 2949 004a 69D1     		bne	.L217
 2950              	.LVL317:
 2951              	.L209:
 309:App/Src/command.c **** 	if (num != -1) {
 2952              		.loc 1 309 2 is_stmt 1 view .LVU665
 309:App/Src/command.c **** 	if (num != -1) {
 2953              		.loc 1 309 8 is_stmt 0 view .LVU666
 2954 004c 4D49     		ldr	r1, .L219+16
 2955 004e 2046     		mov	r0, r4
 2956 0050 FFF7FEFF 		bl	strSearch
ARM GAS  C:\Users\86158\AppData\Local\Temp\cc1K5eBH.s 			page 81


 2957              	.LVL318:
 310:App/Src/command.c **** 		num += strlen("min:");
 2958              		.loc 1 310 2 is_stmt 1 view .LVU667
 310:App/Src/command.c **** 		num += strlen("min:");
 2959              		.loc 1 310 5 is_stmt 0 view .LVU668
 2960 0054 B0F1FF3F 		cmp	r0, #-1
 2961 0058 77D1     		bne	.L218
 2962              	.LVL319:
 2963              	.L210:
 315:App/Src/command.c **** 	if (num != -1) {
 2964              		.loc 1 315 2 is_stmt 1 view .LVU669
 315:App/Src/command.c **** 	if (num != -1) {
 2965              		.loc 1 315 8 is_stmt 0 view .LVU670
 2966 005a 4B49     		ldr	r1, .L219+20
 2967 005c 2046     		mov	r0, r4
 2968 005e FFF7FEFF 		bl	strSearch
 2969              	.LVL320:
 316:App/Src/command.c **** 		num += strlen("sec:");
 2970              		.loc 1 316 2 is_stmt 1 view .LVU671
 316:App/Src/command.c **** 		num += strlen("sec:");
 2971              		.loc 1 316 5 is_stmt 0 view .LVU672
 2972 0062 B0F1FF3F 		cmp	r0, #-1
 2973 0066 12D0     		beq	.L211
 317:App/Src/command.c **** 		if (CharToInt(command, num, &inNumber) == 0 ) {	return; }
 2974              		.loc 1 317 3 is_stmt 1 view .LVU673
 317:App/Src/command.c **** 		if (CharToInt(command, num, &inNumber) == 0 ) {	return; }
 2975              		.loc 1 317 7 is_stmt 0 view .LVU674
 2976 0068 0430     		adds	r0, r0, #4
 2977              	.LVL321:
 318:App/Src/command.c **** 		rtc.sec = inNumber % 100;
 2978              		.loc 1 318 3 is_stmt 1 view .LVU675
 318:App/Src/command.c **** 		rtc.sec = inNumber % 100;
 2979              		.loc 1 318 7 is_stmt 0 view .LVU676
 2980 006a 01AA     		add	r2, sp, #4
 2981 006c C1B2     		uxtb	r1, r0
 2982 006e 2046     		mov	r0, r4
 2983              	.LVL322:
 318:App/Src/command.c **** 		rtc.sec = inNumber % 100;
 2984              		.loc 1 318 7 view .LVU677
 2985 0070 FFF7FEFF 		bl	CharToInt
 2986              	.LVL323:
 318:App/Src/command.c **** 		rtc.sec = inNumber % 100;
 2987              		.loc 1 318 6 view .LVU678
 2988 0074 98B1     		cbz	r0, .L204
 319:App/Src/command.c **** 	}
 2989              		.loc 1 319 3 is_stmt 1 view .LVU679
 319:App/Src/command.c **** 	}
 2990              		.loc 1 319 22 is_stmt 0 view .LVU680
 2991 0076 019A     		ldr	r2, [sp, #4]
 2992 0078 4449     		ldr	r1, .L219+24
 2993 007a 81FB0231 		smull	r3, r1, r1, r2
 2994 007e D317     		asrs	r3, r2, #31
 2995 0080 C3EB6113 		rsb	r3, r3, r1, asr #5
 2996 0084 6421     		movs	r1, #100
 2997 0086 01FB1323 		mls	r3, r1, r3, r2
 319:App/Src/command.c **** 	}
 2998              		.loc 1 319 11 view .LVU681
ARM GAS  C:\Users\86158\AppData\Local\Temp\cc1K5eBH.s 			page 82


 2999 008a 8DF80D30 		strb	r3, [sp, #13]
 3000              	.L211:
 321:App/Src/command.c **** 	UsbPrintf("date set success!\nOK!\r\n");
 3001              		.loc 1 321 2 is_stmt 1 view .LVU682
 3002 008e 04AB     		add	r3, sp, #16
 3003 0090 13E90300 		ldmdb	r3, {r0, r1}
 3004 0094 FFF7FEFF 		bl	system_set_real_time
 3005              	.LVL324:
 322:App/Src/command.c **** }
 3006              		.loc 1 322 2 view .LVU683
 3007 0098 3D48     		ldr	r0, .L219+28
 3008 009a FFF7FEFF 		bl	UsbPrintf
 3009              	.LVL325:
 3010              	.L204:
 323:App/Src/command.c **** 
 3011              		.loc 1 323 1 is_stmt 0 view .LVU684
 3012 009e 04B0     		add	sp, sp, #16
 3013              	.LCFI50:
 3014              		.cfi_remember_state
 3015              		.cfi_def_cfa_offset 8
 3016              		@ sp needed
 3017 00a0 10BD     		pop	{r4, pc}
 3018              	.LVL326:
 3019              	.L214:
 3020              	.LCFI51:
 3021              		.cfi_restore_state
 287:App/Src/command.c **** 		if (CharToInt(command, num, &inNumber) == 0 ) {	return; }
 3022              		.loc 1 287 3 is_stmt 1 view .LVU685
 287:App/Src/command.c **** 		if (CharToInt(command, num, &inNumber) == 0 ) {	return; }
 3023              		.loc 1 287 7 is_stmt 0 view .LVU686
 3024 00a2 0530     		adds	r0, r0, #5
 3025              	.LVL327:
 288:App/Src/command.c **** 		rtc.year = inNumber % 100;
 3026              		.loc 1 288 3 is_stmt 1 view .LVU687
 288:App/Src/command.c **** 		rtc.year = inNumber % 100;
 3027              		.loc 1 288 7 is_stmt 0 view .LVU688
 3028 00a4 01AA     		add	r2, sp, #4
 3029 00a6 C1B2     		uxtb	r1, r0
 3030 00a8 2046     		mov	r0, r4
 3031              	.LVL328:
 288:App/Src/command.c **** 		rtc.year = inNumber % 100;
 3032              		.loc 1 288 7 view .LVU689
 3033 00aa FFF7FEFF 		bl	CharToInt
 3034              	.LVL329:
 288:App/Src/command.c **** 		rtc.year = inNumber % 100;
 3035              		.loc 1 288 6 view .LVU690
 3036 00ae 0028     		cmp	r0, #0
 3037 00b0 F5D0     		beq	.L204
 289:App/Src/command.c **** 	}
 3038              		.loc 1 289 3 is_stmt 1 view .LVU691
 289:App/Src/command.c **** 	}
 3039              		.loc 1 289 23 is_stmt 0 view .LVU692
 3040 00b2 019A     		ldr	r2, [sp, #4]
 3041 00b4 3549     		ldr	r1, .L219+24
 3042 00b6 81FB0231 		smull	r3, r1, r1, r2
 3043 00ba D317     		asrs	r3, r2, #31
 3044 00bc C3EB6113 		rsb	r3, r3, r1, asr #5
ARM GAS  C:\Users\86158\AppData\Local\Temp\cc1K5eBH.s 			page 83


 3045 00c0 6421     		movs	r1, #100
 3046 00c2 01FB1323 		mls	r3, r1, r3, r2
 289:App/Src/command.c **** 	}
 3047              		.loc 1 289 12 view .LVU693
 3048 00c6 8DF80830 		strb	r3, [sp, #8]
 3049 00ca AAE7     		b	.L205
 3050              	.LVL330:
 3051              	.L215:
 293:App/Src/command.c **** 		if (CharToInt(command, num, &inNumber) == 0 ) {	return; }
 3052              		.loc 1 293 3 is_stmt 1 view .LVU694
 293:App/Src/command.c **** 		if (CharToInt(command, num, &inNumber) == 0 ) {	return; }
 3053              		.loc 1 293 7 is_stmt 0 view .LVU695
 3054 00cc 0430     		adds	r0, r0, #4
 3055              	.LVL331:
 294:App/Src/command.c **** 		rtc.mon = inNumber % 100;
 3056              		.loc 1 294 3 is_stmt 1 view .LVU696
 294:App/Src/command.c **** 		rtc.mon = inNumber % 100;
 3057              		.loc 1 294 7 is_stmt 0 view .LVU697
 3058 00ce 01AA     		add	r2, sp, #4
 3059 00d0 C1B2     		uxtb	r1, r0
 3060 00d2 2046     		mov	r0, r4
 3061              	.LVL332:
 294:App/Src/command.c **** 		rtc.mon = inNumber % 100;
 3062              		.loc 1 294 7 view .LVU698
 3063 00d4 FFF7FEFF 		bl	CharToInt
 3064              	.LVL333:
 294:App/Src/command.c **** 		rtc.mon = inNumber % 100;
 3065              		.loc 1 294 6 view .LVU699
 3066 00d8 0028     		cmp	r0, #0
 3067 00da E0D0     		beq	.L204
 295:App/Src/command.c **** 	}	
 3068              		.loc 1 295 3 is_stmt 1 view .LVU700
 295:App/Src/command.c **** 	}	
 3069              		.loc 1 295 22 is_stmt 0 view .LVU701
 3070 00dc 019A     		ldr	r2, [sp, #4]
 3071 00de 2B49     		ldr	r1, .L219+24
 3072 00e0 81FB0231 		smull	r3, r1, r1, r2
 3073 00e4 D317     		asrs	r3, r2, #31
 3074 00e6 C3EB6113 		rsb	r3, r3, r1, asr #5
 3075 00ea 6421     		movs	r1, #100
 3076 00ec 01FB1323 		mls	r3, r1, r3, r2
 295:App/Src/command.c **** 	}	
 3077              		.loc 1 295 11 view .LVU702
 3078 00f0 8DF80930 		strb	r3, [sp, #9]
 3079 00f4 9CE7     		b	.L207
 3080              	.LVL334:
 3081              	.L216:
 299:App/Src/command.c **** 		if (CharToInt(command, num, &inNumber) == 0 ) {	return; }
 3082              		.loc 1 299 3 is_stmt 1 view .LVU703
 299:App/Src/command.c **** 		if (CharToInt(command, num, &inNumber) == 0 ) {	return; }
 3083              		.loc 1 299 7 is_stmt 0 view .LVU704
 3084 00f6 0430     		adds	r0, r0, #4
 3085              	.LVL335:
 300:App/Src/command.c **** 		rtc.day = inNumber % 100;
 3086              		.loc 1 300 3 is_stmt 1 view .LVU705
 300:App/Src/command.c **** 		rtc.day = inNumber % 100;
 3087              		.loc 1 300 7 is_stmt 0 view .LVU706
ARM GAS  C:\Users\86158\AppData\Local\Temp\cc1K5eBH.s 			page 84


 3088 00f8 01AA     		add	r2, sp, #4
 3089 00fa C1B2     		uxtb	r1, r0
 3090 00fc 2046     		mov	r0, r4
 3091              	.LVL336:
 300:App/Src/command.c **** 		rtc.day = inNumber % 100;
 3092              		.loc 1 300 7 view .LVU707
 3093 00fe FFF7FEFF 		bl	CharToInt
 3094              	.LVL337:
 300:App/Src/command.c **** 		rtc.day = inNumber % 100;
 3095              		.loc 1 300 6 view .LVU708
 3096 0102 0028     		cmp	r0, #0
 3097 0104 CBD0     		beq	.L204
 301:App/Src/command.c **** 	}	
 3098              		.loc 1 301 3 is_stmt 1 view .LVU709
 301:App/Src/command.c **** 	}	
 3099              		.loc 1 301 22 is_stmt 0 view .LVU710
 3100 0106 019A     		ldr	r2, [sp, #4]
 3101 0108 2049     		ldr	r1, .L219+24
 3102 010a 81FB0231 		smull	r3, r1, r1, r2
 3103 010e D317     		asrs	r3, r2, #31
 3104 0110 C3EB6113 		rsb	r3, r3, r1, asr #5
 3105 0114 6421     		movs	r1, #100
 3106 0116 01FB1323 		mls	r3, r1, r3, r2
 301:App/Src/command.c **** 	}	
 3107              		.loc 1 301 11 view .LVU711
 3108 011a 8DF80A30 		strb	r3, [sp, #10]
 3109 011e 8EE7     		b	.L208
 3110              	.LVL338:
 3111              	.L217:
 305:App/Src/command.c **** 		if (CharToInt(command, num, &inNumber) == 0 ) {	return; }
 3112              		.loc 1 305 3 is_stmt 1 view .LVU712
 305:App/Src/command.c **** 		if (CharToInt(command, num, &inNumber) == 0 ) {	return; }
 3113              		.loc 1 305 7 is_stmt 0 view .LVU713
 3114 0120 0530     		adds	r0, r0, #5
 3115              	.LVL339:
 306:App/Src/command.c **** 		rtc.hour = inNumber % 100;
 3116              		.loc 1 306 3 is_stmt 1 view .LVU714
 306:App/Src/command.c **** 		rtc.hour = inNumber % 100;
 3117              		.loc 1 306 7 is_stmt 0 view .LVU715
 3118 0122 01AA     		add	r2, sp, #4
 3119 0124 C1B2     		uxtb	r1, r0
 3120 0126 2046     		mov	r0, r4
 3121              	.LVL340:
 306:App/Src/command.c **** 		rtc.hour = inNumber % 100;
 3122              		.loc 1 306 7 view .LVU716
 3123 0128 FFF7FEFF 		bl	CharToInt
 3124              	.LVL341:
 306:App/Src/command.c **** 		rtc.hour = inNumber % 100;
 3125              		.loc 1 306 6 view .LVU717
 3126 012c 0028     		cmp	r0, #0
 3127 012e B6D0     		beq	.L204
 307:App/Src/command.c **** 	}	
 3128              		.loc 1 307 3 is_stmt 1 view .LVU718
 307:App/Src/command.c **** 	}	
 3129              		.loc 1 307 23 is_stmt 0 view .LVU719
 3130 0130 019A     		ldr	r2, [sp, #4]
 3131 0132 1649     		ldr	r1, .L219+24
ARM GAS  C:\Users\86158\AppData\Local\Temp\cc1K5eBH.s 			page 85


 3132 0134 81FB0231 		smull	r3, r1, r1, r2
 3133 0138 D317     		asrs	r3, r2, #31
 3134 013a C3EB6113 		rsb	r3, r3, r1, asr #5
 3135 013e 6421     		movs	r1, #100
 3136 0140 01FB1323 		mls	r3, r1, r3, r2
 307:App/Src/command.c **** 	}	
 3137              		.loc 1 307 12 view .LVU720
 3138 0144 8DF80B30 		strb	r3, [sp, #11]
 3139 0148 80E7     		b	.L209
 3140              	.LVL342:
 3141              	.L218:
 311:App/Src/command.c **** 		if (CharToInt(command, num, &inNumber) == 0 ) {	return; }
 3142              		.loc 1 311 3 is_stmt 1 view .LVU721
 311:App/Src/command.c **** 		if (CharToInt(command, num, &inNumber) == 0 ) {	return; }
 3143              		.loc 1 311 7 is_stmt 0 view .LVU722
 3144 014a 0430     		adds	r0, r0, #4
 3145              	.LVL343:
 312:App/Src/command.c **** 		rtc.min = inNumber % 100;
 3146              		.loc 1 312 3 is_stmt 1 view .LVU723
 312:App/Src/command.c **** 		rtc.min = inNumber % 100;
 3147              		.loc 1 312 7 is_stmt 0 view .LVU724
 3148 014c 01AA     		add	r2, sp, #4
 3149 014e C1B2     		uxtb	r1, r0
 3150 0150 2046     		mov	r0, r4
 3151              	.LVL344:
 312:App/Src/command.c **** 		rtc.min = inNumber % 100;
 3152              		.loc 1 312 7 view .LVU725
 3153 0152 FFF7FEFF 		bl	CharToInt
 3154              	.LVL345:
 312:App/Src/command.c **** 		rtc.min = inNumber % 100;
 3155              		.loc 1 312 6 view .LVU726
 3156 0156 0028     		cmp	r0, #0
 3157 0158 A1D0     		beq	.L204
 313:App/Src/command.c **** 	}	
 3158              		.loc 1 313 3 is_stmt 1 view .LVU727
 313:App/Src/command.c **** 	}	
 3159              		.loc 1 313 22 is_stmt 0 view .LVU728
 3160 015a 019A     		ldr	r2, [sp, #4]
 3161 015c 0B49     		ldr	r1, .L219+24
 3162 015e 81FB0231 		smull	r3, r1, r1, r2
 3163 0162 D317     		asrs	r3, r2, #31
 3164 0164 C3EB6113 		rsb	r3, r3, r1, asr #5
 3165 0168 6421     		movs	r1, #100
 3166 016a 01FB1323 		mls	r3, r1, r3, r2
 313:App/Src/command.c **** 	}	
 3167              		.loc 1 313 11 view .LVU729
 3168 016e 8DF80C30 		strb	r3, [sp, #12]
 3169 0172 72E7     		b	.L210
 3170              	.L220:
 3171              		.align	2
 3172              	.L219:
 3173 0174 00000000 		.word	.LC59
 3174 0178 08000000 		.word	.LC60
 3175 017c 10000000 		.word	.LC61
 3176 0180 18000000 		.word	.LC62
 3177 0184 20000000 		.word	.LC63
 3178 0188 28000000 		.word	.LC64
ARM GAS  C:\Users\86158\AppData\Local\Temp\cc1K5eBH.s 			page 86


 3179 018c 1F85EB51 		.word	1374389535
 3180 0190 30000000 		.word	.LC65
 3181              		.cfi_endproc
 3182              	.LFE247:
 3184              		.section	.rodata.AT_RTC4096_Handle.str1.4,"aMS",%progbits,1
 3185              		.align	2
 3186              	.LC66:
 3187 0000 696E7075 		.ascii	"input error\012\000"
 3187      74206572 
 3187      726F720A 
 3187      00
 3188 000d 000000   		.align	2
 3189              	.LC67:
 3190 0010 0A696963 		.ascii	"\012iic error\012\000"
 3190      20657272 
 3190      6F720A00 
 3191              		.section	.text.AT_RTC4096_Handle,"ax",%progbits
 3192              		.align	1
 3193              		.global	AT_RTC4096_Handle
 3194              		.syntax unified
 3195              		.thumb
 3196              		.thumb_func
 3198              	AT_RTC4096_Handle:
 3199              	.LVL346:
 3200              	.LFB249:
 334:App/Src/command.c **** 	int inNumber;
 3201              		.loc 1 334 1 is_stmt 1 view -0
 3202              		.cfi_startproc
 3203              		@ args = 0, pretend = 0, frame = 8
 3204              		@ frame_needed = 0, uses_anonymous_args = 0
 334:App/Src/command.c **** 	int inNumber;
 3205              		.loc 1 334 1 is_stmt 0 view .LVU731
 3206 0000 00B5     		push	{lr}
 3207              	.LCFI52:
 3208              		.cfi_def_cfa_offset 4
 3209              		.cfi_offset 14, -4
 3210 0002 83B0     		sub	sp, sp, #12
 3211              	.LCFI53:
 3212              		.cfi_def_cfa_offset 16
 335:App/Src/command.c **** 	uint8_t result;
 3213              		.loc 1 335 2 is_stmt 1 view .LVU732
 336:App/Src/command.c **** 	if (CharToInt(command, 11, &inNumber) == 0 ) {
 3214              		.loc 1 336 2 view .LVU733
 337:App/Src/command.c **** 		UsbPrintf("input error\n");
 3215              		.loc 1 337 2 view .LVU734
 337:App/Src/command.c **** 		UsbPrintf("input error\n");
 3216              		.loc 1 337 6 is_stmt 0 view .LVU735
 3217 0004 01AA     		add	r2, sp, #4
 3218 0006 0B21     		movs	r1, #11
 3219 0008 FFF7FEFF 		bl	CharToInt
 3220              	.LVL347:
 337:App/Src/command.c **** 		UsbPrintf("input error\n");
 3221              		.loc 1 337 5 view .LVU736
 3222 000c 58B1     		cbz	r0, .L229
 342:App/Src/command.c **** 		result = sd8825_out_freq();
 3223              		.loc 1 342 2 is_stmt 1 view .LVU737
 342:App/Src/command.c **** 		result = sd8825_out_freq();
ARM GAS  C:\Users\86158\AppData\Local\Temp\cc1K5eBH.s 			page 87


 3224              		.loc 1 342 15 is_stmt 0 view .LVU738
 3225 000e 019B     		ldr	r3, [sp, #4]
 342:App/Src/command.c **** 		result = sd8825_out_freq();
 3226              		.loc 1 342 5 view .LVU739
 3227 0010 002B     		cmp	r3, #0
 3228 0012 0CDD     		ble	.L224
 343:App/Src/command.c **** 	} else {
 3229              		.loc 1 343 3 is_stmt 1 view .LVU740
 343:App/Src/command.c **** 	} else {
 3230              		.loc 1 343 12 is_stmt 0 view .LVU741
 3231 0014 FFF7FEFF 		bl	sd8825_out_freq
 3232              	.LVL348:
 3233              	.L225:
 347:App/Src/command.c **** 		UsbPrintf("\nOK\n");
 3234              		.loc 1 347 2 is_stmt 1 view .LVU742
 347:App/Src/command.c **** 		UsbPrintf("\nOK\n");
 3235              		.loc 1 347 5 is_stmt 0 view .LVU743
 3236 0018 60B9     		cbnz	r0, .L226
 348:App/Src/command.c **** 	} else {
 3237              		.loc 1 348 3 is_stmt 1 view .LVU744
 3238 001a 0848     		ldr	r0, .L230
 3239              	.LVL349:
 348:App/Src/command.c **** 	} else {
 3240              		.loc 1 348 3 is_stmt 0 view .LVU745
 3241 001c FFF7FEFF 		bl	UsbPrintf
 3242              	.LVL350:
 3243              	.L221:
 352:App/Src/command.c **** 
 3244              		.loc 1 352 1 view .LVU746
 3245 0020 03B0     		add	sp, sp, #12
 3246              	.LCFI54:
 3247              		.cfi_remember_state
 3248              		.cfi_def_cfa_offset 4
 3249              		@ sp needed
 3250 0022 5DF804FB 		ldr	pc, [sp], #4
 3251              	.L229:
 3252              	.LCFI55:
 3253              		.cfi_restore_state
 338:App/Src/command.c **** 		return;
 3254              		.loc 1 338 3 is_stmt 1 view .LVU747
 3255 0026 0648     		ldr	r0, .L230+4
 3256 0028 FFF7FEFF 		bl	UsbPrintf
 3257              	.LVL351:
 339:App/Src/command.c **** 	}
 3258              		.loc 1 339 3 view .LVU748
 3259 002c F8E7     		b	.L221
 3260              	.L224:
 345:App/Src/command.c **** 	}
 3261              		.loc 1 345 3 view .LVU749
 345:App/Src/command.c **** 	}
 3262              		.loc 1 345 12 is_stmt 0 view .LVU750
 3263 002e FFF7FEFF 		bl	sd8825_close_freq
 3264              	.LVL352:
 345:App/Src/command.c **** 	}
 3265              		.loc 1 345 12 view .LVU751
 3266 0032 F1E7     		b	.L225
 3267              	.L226:
ARM GAS  C:\Users\86158\AppData\Local\Temp\cc1K5eBH.s 			page 88


 350:App/Src/command.c **** 	}
 3268              		.loc 1 350 3 is_stmt 1 view .LVU752
 3269 0034 0348     		ldr	r0, .L230+8
 3270              	.LVL353:
 350:App/Src/command.c **** 	}
 3271              		.loc 1 350 3 is_stmt 0 view .LVU753
 3272 0036 FFF7FEFF 		bl	UsbPrintf
 3273              	.LVL354:
 3274 003a F1E7     		b	.L221
 3275              	.L231:
 3276              		.align	2
 3277              	.L230:
 3278 003c 70000000 		.word	.LC9
 3279 0040 00000000 		.word	.LC66
 3280 0044 10000000 		.word	.LC67
 3281              		.cfi_endproc
 3282              	.LFE249:
 3284              		.section	.rodata.AT_RTCADJCAP_Handle.str1.4,"aMS",%progbits,1
 3285              		.align	2
 3286              	.LC68:
 3287 0000 2C00     		.ascii	",\000"
 3288 0002 0000     		.align	2
 3289              	.LC69:
 3290 0004 61646A75 		.ascii	"adjust error\012\000"
 3290      73742065 
 3290      72726F72 
 3290      0A00
 3291              		.section	.text.AT_RTCADJCAP_Handle,"ax",%progbits
 3292              		.align	1
 3293              		.global	AT_RTCADJCAP_Handle
 3294              		.syntax unified
 3295              		.thumb
 3296              		.thumb_func
 3298              	AT_RTCADJCAP_Handle:
 3299              	.LVL355:
 3300              	.LFB251:
 361:App/Src/command.c **** 	// uint8_t osc_buf[2] = {0};
 3301              		.loc 1 361 1 is_stmt 1 view -0
 3302              		.cfi_startproc
 3303              		@ args = 0, pretend = 0, frame = 16
 3304              		@ frame_needed = 0, uses_anonymous_args = 0
 361:App/Src/command.c **** 	// uint8_t osc_buf[2] = {0};
 3305              		.loc 1 361 1 is_stmt 0 view .LVU755
 3306 0000 10B5     		push	{r4, lr}
 3307              	.LCFI56:
 3308              		.cfi_def_cfa_offset 8
 3309              		.cfi_offset 4, -8
 3310              		.cfi_offset 14, -4
 3311 0002 84B0     		sub	sp, sp, #16
 3312              	.LCFI57:
 3313              		.cfi_def_cfa_offset 24
 3314 0004 0446     		mov	r4, r0
 380:App/Src/command.c **** 	uint8_t mode  = 2;
 3315              		.loc 1 380 2 is_stmt 1 view .LVU756
 381:App/Src/command.c **** 	int num = 0;
 3316              		.loc 1 381 2 view .LVU757
 3317              	.LVL356:
ARM GAS  C:\Users\86158\AppData\Local\Temp\cc1K5eBH.s 			page 89


 382:App/Src/command.c **** 	int list = 0;
 3318              		.loc 1 382 2 view .LVU758
 382:App/Src/command.c **** 	int list = 0;
 3319              		.loc 1 382 6 is_stmt 0 view .LVU759
 3320 0006 0023     		movs	r3, #0
 3321 0008 0293     		str	r3, [sp, #8]
 383:App/Src/command.c **** 	uint8_t buffer;
 3322              		.loc 1 383 2 is_stmt 1 view .LVU760
 383:App/Src/command.c **** 	uint8_t buffer;
 3323              		.loc 1 383 6 is_stmt 0 view .LVU761
 3324 000a 0193     		str	r3, [sp, #4]
 384:App/Src/command.c **** 	CharToInt(command, strSearch(command, "=") + 1, &num);
 3325              		.loc 1 384 2 is_stmt 1 view .LVU762
 385:App/Src/command.c **** 	CharToInt(command, strSearch(command, ",") + 1, &list);
 3326              		.loc 1 385 2 view .LVU763
 385:App/Src/command.c **** 	CharToInt(command, strSearch(command, ",") + 1, &list);
 3327              		.loc 1 385 21 is_stmt 0 view .LVU764
 3328 000c 1E49     		ldr	r1, .L242
 3329 000e FFF7FEFF 		bl	strSearch
 3330              	.LVL357:
 385:App/Src/command.c **** 	CharToInt(command, strSearch(command, ",") + 1, &list);
 3331              		.loc 1 385 2 view .LVU765
 3332 0012 411C     		adds	r1, r0, #1
 3333 0014 02AA     		add	r2, sp, #8
 3334 0016 C9B2     		uxtb	r1, r1
 3335 0018 2046     		mov	r0, r4
 3336 001a FFF7FEFF 		bl	CharToInt
 3337              	.LVL358:
 386:App/Src/command.c **** 	if (num == 1) {
 3338              		.loc 1 386 2 is_stmt 1 view .LVU766
 386:App/Src/command.c **** 	if (num == 1) {
 3339              		.loc 1 386 21 is_stmt 0 view .LVU767
 3340 001e 1B49     		ldr	r1, .L242+4
 3341 0020 2046     		mov	r0, r4
 3342 0022 FFF7FEFF 		bl	strSearch
 3343              	.LVL359:
 386:App/Src/command.c **** 	if (num == 1) {
 3344              		.loc 1 386 2 view .LVU768
 3345 0026 411C     		adds	r1, r0, #1
 3346 0028 01AA     		add	r2, sp, #4
 3347 002a C9B2     		uxtb	r1, r1
 3348 002c 2046     		mov	r0, r4
 3349 002e FFF7FEFF 		bl	CharToInt
 3350              	.LVL360:
 387:App/Src/command.c **** 		buffer = (uint8_t)list;
 3351              		.loc 1 387 2 is_stmt 1 view .LVU769
 387:App/Src/command.c **** 		buffer = (uint8_t)list;
 3352              		.loc 1 387 10 is_stmt 0 view .LVU770
 3353 0032 029B     		ldr	r3, [sp, #8]
 387:App/Src/command.c **** 		buffer = (uint8_t)list;
 3354              		.loc 1 387 5 view .LVU771
 3355 0034 012B     		cmp	r3, #1
 3356 0036 0FD0     		beq	.L239
 391:App/Src/command.c **** 		rtc_freq_test(FREQ_TEST_STARTING);//自动调节
 3357              		.loc 1 391 9 is_stmt 1 view .LVU772
 391:App/Src/command.c **** 		rtc_freq_test(FREQ_TEST_STARTING);//自动调节
 3358              		.loc 1 391 12 is_stmt 0 view .LVU773
ARM GAS  C:\Users\86158\AppData\Local\Temp\cc1K5eBH.s 			page 90


 3359 0038 022B     		cmp	r3, #2
 3360 003a 1CD0     		beq	.L240
 394:App/Src/command.c **** 	}
 3361              		.loc 1 394 3 is_stmt 1 view .LVU774
 3362 003c 03A9     		add	r1, sp, #12
 3363 003e BDF80400 		ldrh	r0, [sp, #4]
 3364 0042 FFF7FEFF 		bl	cap_list_to_uint
 3365              	.LVL361:
 3366              	.L234:
 396:App/Src/command.c **** 		UsbPrintf("adjust error\n");
 3367              		.loc 1 396 2 view .LVU775
 396:App/Src/command.c **** 		UsbPrintf("adjust error\n");
 3368              		.loc 1 396 6 is_stmt 0 view .LVU776
 3369 0046 03A8     		add	r0, sp, #12
 3370 0048 FFF7FEFF 		bl	rtc_set_testcap
 3371              	.LVL362:
 396:App/Src/command.c **** 		UsbPrintf("adjust error\n");
 3372              		.loc 1 396 5 view .LVU777
 3373 004c B8B9     		cbnz	r0, .L241
 400:App/Src/command.c **** }
 3374              		.loc 1 400 2 is_stmt 1 view .LVU778
 3375 004e 1048     		ldr	r0, .L242+8
 3376 0050 FFF7FEFF 		bl	UsbPrintf
 3377              	.LVL363:
 3378              	.L232:
 401:App/Src/command.c **** 
 3379              		.loc 1 401 1 is_stmt 0 view .LVU779
 3380 0054 04B0     		add	sp, sp, #16
 3381              	.LCFI58:
 3382              		.cfi_remember_state
 3383              		.cfi_def_cfa_offset 8
 3384              		@ sp needed
 3385 0056 10BD     		pop	{r4, pc}
 3386              	.LVL364:
 3387              	.L239:
 3388              	.LCFI59:
 3389              		.cfi_restore_state
 388:App/Src/command.c **** 		osc_buf[1] = (mode << 3) | buffer >> 5;
 3390              		.loc 1 388 3 is_stmt 1 view .LVU780
 388:App/Src/command.c **** 		osc_buf[1] = (mode << 3) | buffer >> 5;
 3391              		.loc 1 388 12 is_stmt 0 view .LVU781
 3392 0058 019B     		ldr	r3, [sp, #4]
 388:App/Src/command.c **** 		osc_buf[1] = (mode << 3) | buffer >> 5;
 3393              		.loc 1 388 10 view .LVU782
 3394 005a D9B2     		uxtb	r1, r3
 3395              	.LVL365:
 389:App/Src/command.c **** 		osc_buf[0] = (buffer << 3) | (buffer & 0x07);
 3396              		.loc 1 389 3 is_stmt 1 view .LVU783
 389:App/Src/command.c **** 		osc_buf[0] = (buffer << 3) | (buffer & 0x07);
 3397              		.loc 1 389 28 is_stmt 0 view .LVU784
 3398 005c C3F34212 		ubfx	r2, r3, #5, #3
 3399 0060 42F01002 		orr	r2, r2, #16
 389:App/Src/command.c **** 		osc_buf[0] = (buffer << 3) | (buffer & 0x07);
 3400              		.loc 1 389 14 view .LVU785
 3401 0064 8DF80D20 		strb	r2, [sp, #13]
 390:App/Src/command.c **** 	} else if (num == 2) {
 3402              		.loc 1 390 3 is_stmt 1 view .LVU786
ARM GAS  C:\Users\86158\AppData\Local\Temp\cc1K5eBH.s 			page 91


 390:App/Src/command.c **** 	} else if (num == 2) {
 3403              		.loc 1 390 40 is_stmt 0 view .LVU787
 3404 0068 03F00703 		and	r3, r3, #7
 390:App/Src/command.c **** 	} else if (num == 2) {
 3405              		.loc 1 390 30 view .LVU788
 3406 006c 43EAC103 		orr	r3, r3, r1, lsl #3
 390:App/Src/command.c **** 	} else if (num == 2) {
 3407              		.loc 1 390 14 view .LVU789
 3408 0070 8DF80C30 		strb	r3, [sp, #12]
 3409 0074 E7E7     		b	.L234
 3410              	.LVL366:
 3411              	.L240:
 392:App/Src/command.c **** 	} else {
 3412              		.loc 1 392 3 is_stmt 1 view .LVU790
 3413 0076 0120     		movs	r0, #1
 3414 0078 FFF7FEFF 		bl	rtc_freq_test
 3415              	.LVL367:
 3416 007c E3E7     		b	.L234
 3417              	.L241:
 397:App/Src/command.c **** 		return;
 3418              		.loc 1 397 3 view .LVU791
 3419 007e 0548     		ldr	r0, .L242+12
 3420 0080 FFF7FEFF 		bl	UsbPrintf
 3421              	.LVL368:
 398:App/Src/command.c **** 	}
 3422              		.loc 1 398 3 view .LVU792
 3423 0084 E6E7     		b	.L232
 3424              	.L243:
 3425 0086 00BF     		.align	2
 3426              	.L242:
 3427 0088 00000000 		.word	.LC55
 3428 008c 00000000 		.word	.LC68
 3429 0090 70000000 		.word	.LC9
 3430 0094 04000000 		.word	.LC69
 3431              		.cfi_endproc
 3432              	.LFE251:
 3434              		.section	.rodata.AT_READGROUP_Handle.str1.4,"aMS",%progbits,1
 3435              		.align	2
 3436              	.LC70:
 3437 0000 72656164 		.ascii	"read group[%d] state[%d] reg[0x%x]:\000"
 3437      2067726F 
 3437      75705B25 
 3437      645D2073 
 3437      74617465 
 3438              		.align	2
 3439              	.LC71:
 3440 0024 30782530 		.ascii	"0x%02x \000"
 3440      32782000 
 3441              		.section	.text.AT_READGROUP_Handle,"ax",%progbits
 3442              		.align	1
 3443              		.global	AT_READGROUP_Handle
 3444              		.syntax unified
 3445              		.thumb
 3446              		.thumb_func
 3448              	AT_READGROUP_Handle:
 3449              	.LVL369:
 3450              	.LFB254:
ARM GAS  C:\Users\86158\AppData\Local\Temp\cc1K5eBH.s 			page 92


 440:App/Src/command.c **** 	int channel;
 3451              		.loc 1 440 1 view -0
 3452              		.cfi_startproc
 3453              		@ args = 0, pretend = 0, frame = 16
 3454              		@ frame_needed = 0, uses_anonymous_args = 0
 440:App/Src/command.c **** 	int channel;
 3455              		.loc 1 440 1 is_stmt 0 view .LVU794
 3456 0000 10B5     		push	{r4, lr}
 3457              	.LCFI60:
 3458              		.cfi_def_cfa_offset 8
 3459              		.cfi_offset 4, -8
 3460              		.cfi_offset 14, -4
 3461 0002 84B0     		sub	sp, sp, #16
 3462              	.LCFI61:
 3463              		.cfi_def_cfa_offset 24
 3464 0004 0446     		mov	r4, r0
 441:App/Src/command.c **** 	int i;
 3465              		.loc 1 441 2 is_stmt 1 view .LVU795
 442:App/Src/command.c ****     int reg, num = 0;
 3466              		.loc 1 442 2 view .LVU796
 443:App/Src/command.c **** 	uint8_t result[8] = {0};
 3467              		.loc 1 443 5 view .LVU797
 3468              	.LVL370:
 444:App/Src/command.c **** 	uint8_t state = 0;
 3469              		.loc 1 444 2 view .LVU798
 444:App/Src/command.c **** 	uint8_t state = 0;
 3470              		.loc 1 444 10 is_stmt 0 view .LVU799
 3471 0006 0023     		movs	r3, #0
 3472 0008 0093     		str	r3, [sp]
 3473 000a 0193     		str	r3, [sp, #4]
 445:App/Src/command.c **** 	if (CharToInt(command, 13, &channel) == 1) {
 3474              		.loc 1 445 2 is_stmt 1 view .LVU800
 3475              	.LVL371:
 446:App/Src/command.c **** 		num = strSearch(command, ",");
 3476              		.loc 1 446 2 view .LVU801
 446:App/Src/command.c **** 		num = strSearch(command, ",");
 3477              		.loc 1 446 6 is_stmt 0 view .LVU802
 3478 000c 03AA     		add	r2, sp, #12
 3479 000e 0D21     		movs	r1, #13
 3480 0010 FFF7FEFF 		bl	CharToInt
 3481              	.LVL372:
 446:App/Src/command.c **** 		num = strSearch(command, ",");
 3482              		.loc 1 446 5 view .LVU803
 3483 0014 0128     		cmp	r0, #1
 3484 0016 43D1     		bne	.L245
 447:App/Src/command.c **** 		if (num < 0 || channel < 0) { UsbPrintf("input error\n"); return; }
 3485              		.loc 1 447 3 is_stmt 1 view .LVU804
 447:App/Src/command.c **** 		if (num < 0 || channel < 0) { UsbPrintf("input error\n"); return; }
 3486              		.loc 1 447 9 is_stmt 0 view .LVU805
 3487 0018 2449     		ldr	r1, .L254
 3488 001a 2046     		mov	r0, r4
 3489 001c FFF7FEFF 		bl	strSearch
 3490              	.LVL373:
 448:App/Src/command.c **** 		CharToInt(command, num + 1, &reg);
 3491              		.loc 1 448 3 is_stmt 1 view .LVU806
 448:App/Src/command.c **** 		CharToInt(command, num + 1, &reg);
 3492              		.loc 1 448 6 is_stmt 0 view .LVU807
ARM GAS  C:\Users\86158\AppData\Local\Temp\cc1K5eBH.s 			page 93


 3493 0020 0028     		cmp	r0, #0
 448:App/Src/command.c **** 		CharToInt(command, num + 1, &reg);
 3494              		.loc 1 448 6 view .LVU808
 3495 0022 26DB     		blt	.L246
 448:App/Src/command.c **** 		CharToInt(command, num + 1, &reg);
 3496              		.loc 1 448 26 discriminator 2 view .LVU809
 3497 0024 039B     		ldr	r3, [sp, #12]
 448:App/Src/command.c **** 		CharToInt(command, num + 1, &reg);
 3498              		.loc 1 448 15 discriminator 2 view .LVU810
 3499 0026 002B     		cmp	r3, #0
 3500 0028 23DB     		blt	.L246
 449:App/Src/command.c **** 		rtc_group_power(channel, POWER_I2C);
 3501              		.loc 1 449 3 is_stmt 1 view .LVU811
 3502 002a 0130     		adds	r0, r0, #1
 3503              	.LVL374:
 449:App/Src/command.c **** 		rtc_group_power(channel, POWER_I2C);
 3504              		.loc 1 449 3 is_stmt 0 view .LVU812
 3505 002c 02AA     		add	r2, sp, #8
 3506 002e C1B2     		uxtb	r1, r0
 3507 0030 2046     		mov	r0, r4
 3508              	.LVL375:
 449:App/Src/command.c **** 		rtc_group_power(channel, POWER_I2C);
 3509              		.loc 1 449 3 view .LVU813
 3510 0032 FFF7FEFF 		bl	CharToInt
 3511              	.LVL376:
 450:App/Src/command.c **** 		rtc_set_channel(channel, RTC_SD8825);
 3512              		.loc 1 450 3 is_stmt 1 view .LVU814
 3513 0036 0121     		movs	r1, #1
 3514 0038 9DF80C00 		ldrb	r0, [sp, #12]	@ zero_extendqisi2
 3515 003c FFF7FEFF 		bl	rtc_group_power
 3516              	.LVL377:
 451:App/Src/command.c **** 		if (g_rtcChanenel != channel) {
 3517              		.loc 1 451 3 view .LVU815
 3518 0040 0221     		movs	r1, #2
 3519 0042 9DF80C00 		ldrb	r0, [sp, #12]	@ zero_extendqisi2
 3520 0046 FFF7FEFF 		bl	rtc_set_channel
 3521              	.LVL378:
 452:App/Src/command.c **** 			HAL_Delay(500);
 3522              		.loc 1 452 3 view .LVU816
 452:App/Src/command.c **** 			HAL_Delay(500);
 3523              		.loc 1 452 21 is_stmt 0 view .LVU817
 3524 004a 194B     		ldr	r3, .L254+4
 3525 004c 1A78     		ldrb	r2, [r3]	@ zero_extendqisi2
 3526 004e 039B     		ldr	r3, [sp, #12]
 452:App/Src/command.c **** 			HAL_Delay(500);
 3527              		.loc 1 452 6 view .LVU818
 3528 0050 9A42     		cmp	r2, r3
 3529 0052 12D1     		bne	.L253
 3530              	.L249:
 456:App/Src/command.c **** 		UsbPrintf("read group[%d] state[%d] reg[0x%x]:", channel, state, reg);
 3531              		.loc 1 456 3 is_stmt 1 view .LVU819
 456:App/Src/command.c **** 		UsbPrintf("read group[%d] state[%d] reg[0x%x]:", channel, state, reg);
 3532              		.loc 1 456 11 is_stmt 0 view .LVU820
 3533 0054 0823     		movs	r3, #8
 3534 0056 6A46     		mov	r2, sp
 3535 0058 9DF80810 		ldrb	r1, [sp, #8]	@ zero_extendqisi2
 3536 005c 6420     		movs	r0, #100
ARM GAS  C:\Users\86158\AppData\Local\Temp\cc1K5eBH.s 			page 94


 3537 005e FFF7FEFF 		bl	rtc_read_multi_bytes
 3538              	.LVL379:
 3539 0062 0246     		mov	r2, r0
 3540              	.LVL380:
 457:App/Src/command.c **** 		for (i = 0; i < 8; i++) {
 3541              		.loc 1 457 3 is_stmt 1 view .LVU821
 3542 0064 029B     		ldr	r3, [sp, #8]
 3543 0066 0399     		ldr	r1, [sp, #12]
 3544 0068 1248     		ldr	r0, .L254+8
 3545 006a FFF7FEFF 		bl	UsbPrintf
 3546              	.LVL381:
 458:App/Src/command.c **** 			UsbPrintf("0x%02x ", result[i]);
 3547              		.loc 1 458 3 view .LVU822
 458:App/Src/command.c **** 			UsbPrintf("0x%02x ", result[i]);
 3548              		.loc 1 458 10 is_stmt 0 view .LVU823
 3549 006e 0024     		movs	r4, #0
 3550              	.LVL382:
 458:App/Src/command.c **** 			UsbPrintf("0x%02x ", result[i]);
 3551              		.loc 1 458 3 view .LVU824
 3552 0070 14E0     		b	.L250
 3553              	.LVL383:
 3554              	.L246:
 448:App/Src/command.c **** 		CharToInt(command, num + 1, &reg);
 3555              		.loc 1 448 33 is_stmt 1 discriminator 3 view .LVU825
 3556 0072 1148     		ldr	r0, .L254+12
 3557              	.LVL384:
 448:App/Src/command.c **** 		CharToInt(command, num + 1, &reg);
 3558              		.loc 1 448 33 is_stmt 0 discriminator 3 view .LVU826
 3559 0074 FFF7FEFF 		bl	UsbPrintf
 3560              	.LVL385:
 448:App/Src/command.c **** 		CharToInt(command, num + 1, &reg);
 3561              		.loc 1 448 61 is_stmt 1 discriminator 3 view .LVU827
 3562 0078 15E0     		b	.L244
 3563              	.L253:
 453:App/Src/command.c **** 			g_rtcChanenel = channel;
 3564              		.loc 1 453 4 view .LVU828
 3565 007a 4FF4FA70 		mov	r0, #500
 3566 007e FFF7FEFF 		bl	HAL_Delay
 3567              	.LVL386:
 454:App/Src/command.c **** 		}
 3568              		.loc 1 454 4 view .LVU829
 454:App/Src/command.c **** 		}
 3569              		.loc 1 454 18 is_stmt 0 view .LVU830
 3570 0082 0B4B     		ldr	r3, .L254+4
 3571 0084 039A     		ldr	r2, [sp, #12]
 3572 0086 1A70     		strb	r2, [r3]
 3573 0088 E4E7     		b	.L249
 3574              	.LVL387:
 3575              	.L251:
 459:App/Src/command.c **** 		}
 3576              		.loc 1 459 4 is_stmt 1 discriminator 3 view .LVU831
 459:App/Src/command.c **** 		}
 3577              		.loc 1 459 31 is_stmt 0 discriminator 3 view .LVU832
 3578 008a 04F11003 		add	r3, r4, #16
 3579 008e 6B44     		add	r3, sp, r3
 459:App/Src/command.c **** 		}
 3580              		.loc 1 459 4 discriminator 3 view .LVU833
ARM GAS  C:\Users\86158\AppData\Local\Temp\cc1K5eBH.s 			page 95


 3581 0090 13F8101C 		ldrb	r1, [r3, #-16]	@ zero_extendqisi2
 3582 0094 0948     		ldr	r0, .L254+16
 3583 0096 FFF7FEFF 		bl	UsbPrintf
 3584              	.LVL388:
 458:App/Src/command.c **** 			UsbPrintf("0x%02x ", result[i]);
 3585              		.loc 1 458 22 is_stmt 1 discriminator 3 view .LVU834
 458:App/Src/command.c **** 			UsbPrintf("0x%02x ", result[i]);
 3586              		.loc 1 458 23 is_stmt 0 discriminator 3 view .LVU835
 3587 009a 0134     		adds	r4, r4, #1
 3588              	.LVL389:
 3589              	.L250:
 458:App/Src/command.c **** 			UsbPrintf("0x%02x ", result[i]);
 3590              		.loc 1 458 15 is_stmt 1 discriminator 1 view .LVU836
 458:App/Src/command.c **** 			UsbPrintf("0x%02x ", result[i]);
 3591              		.loc 1 458 3 is_stmt 0 discriminator 1 view .LVU837
 3592 009c 072C     		cmp	r4, #7
 3593 009e F4DD     		ble	.L251
 3594              	.LVL390:
 3595              	.L245:
 462:App/Src/command.c **** 
 3596              		.loc 1 462 2 is_stmt 1 view .LVU838
 3597 00a0 0748     		ldr	r0, .L254+20
 3598 00a2 FFF7FEFF 		bl	UsbPrintf
 3599              	.LVL391:
 3600              	.L244:
 464:App/Src/command.c **** 
 3601              		.loc 1 464 1 is_stmt 0 view .LVU839
 3602 00a6 04B0     		add	sp, sp, #16
 3603              	.LCFI62:
 3604              		.cfi_def_cfa_offset 8
 3605              		@ sp needed
 3606 00a8 10BD     		pop	{r4, pc}
 3607              	.L255:
 3608 00aa 00BF     		.align	2
 3609              	.L254:
 3610 00ac 00000000 		.word	.LC68
 3611 00b0 00000000 		.word	.LANCHOR4
 3612 00b4 00000000 		.word	.LC70
 3613 00b8 00000000 		.word	.LC66
 3614 00bc 24000000 		.word	.LC71
 3615 00c0 70000000 		.word	.LC9
 3616              		.cfi_endproc
 3617              	.LFE254:
 3619              		.section	.rodata.AT_READFLASH_Handle.str1.4,"aMS",%progbits,1
 3620              		.align	2
 3621              	.LC72:
 3622 0000 666C6173 		.ascii	"flash address[0x%x] print:\012%s\012\000"
 3622      68206164 
 3622      64726573 
 3622      735B3078 
 3622      25785D20 
 3623 001f 00       		.align	2
 3624              	.LC73:
 3625 0020 72656164 		.ascii	"read error %d\012\000"
 3625      20657272 
 3625      6F722025 
 3625      640A00
ARM GAS  C:\Users\86158\AppData\Local\Temp\cc1K5eBH.s 			page 96


 3626 002f 00       		.align	2
 3627              	.LC74:
 3628 0030 6C6F6720 		.ascii	"log use pages %d/%d:\012\000"
 3628      75736520 
 3628      70616765 
 3628      73202564 
 3628      2F25643A 
 3629 0046 0000     		.align	2
 3630              	.LC75:
 3631 0048 616C6C20 		.ascii	"all log print success\012\000"
 3631      6C6F6720 
 3631      7072696E 
 3631      74207375 
 3631      63636573 
 3632              		.section	.text.AT_READFLASH_Handle,"ax",%progbits
 3633              		.align	1
 3634              		.global	AT_READFLASH_Handle
 3635              		.syntax unified
 3636              		.thumb
 3637              		.thumb_func
 3639              	AT_READFLASH_Handle:
 3640              	.LVL392:
 3641              	.LFB257:
 487:App/Src/command.c **** 	int address;
 3642              		.loc 1 487 1 is_stmt 1 view -0
 3643              		.cfi_startproc
 3644              		@ args = 0, pretend = 0, frame = 264
 3645              		@ frame_needed = 0, uses_anonymous_args = 0
 487:App/Src/command.c **** 	int address;
 3646              		.loc 1 487 1 is_stmt 0 view .LVU841
 3647 0000 30B5     		push	{r4, r5, lr}
 3648              	.LCFI63:
 3649              		.cfi_def_cfa_offset 12
 3650              		.cfi_offset 4, -12
 3651              		.cfi_offset 5, -8
 3652              		.cfi_offset 14, -4
 3653 0002 C3B0     		sub	sp, sp, #268
 3654              	.LCFI64:
 3655              		.cfi_def_cfa_offset 280
 3656 0004 0446     		mov	r4, r0
 488:App/Src/command.c **** 	uint8_t str[256] = {0};
 3657              		.loc 1 488 2 is_stmt 1 view .LVU842
 489:App/Src/command.c **** 	int result;
 3658              		.loc 1 489 2 view .LVU843
 489:App/Src/command.c **** 	int result;
 3659              		.loc 1 489 10 is_stmt 0 view .LVU844
 3660 0006 0021     		movs	r1, #0
 3661 0008 0191     		str	r1, [sp, #4]
 3662 000a FC22     		movs	r2, #252
 3663 000c 02A8     		add	r0, sp, #8
 3664              	.LVL393:
 489:App/Src/command.c **** 	int result;
 3665              		.loc 1 489 10 view .LVU845
 3666 000e FFF7FEFF 		bl	memset
 3667              	.LVL394:
 490:App/Src/command.c ****     int i;
 3668              		.loc 1 490 2 is_stmt 1 view .LVU846
ARM GAS  C:\Users\86158\AppData\Local\Temp\cc1K5eBH.s 			page 97


 491:App/Src/command.c **** 	uint32_t pageCount;
 3669              		.loc 1 491 5 view .LVU847
 492:App/Src/command.c **** 
 3670              		.loc 1 492 2 view .LVU848
 494:App/Src/command.c **** 		CharToInt(command, 13, &address);
 3671              		.loc 1 494 2 view .LVU849
 494:App/Src/command.c **** 		CharToInt(command, 13, &address);
 3672              		.loc 1 494 6 is_stmt 0 view .LVU850
 3673 0012 1E49     		ldr	r1, .L264
 3674 0014 2046     		mov	r0, r4
 3675 0016 FFF7FEFF 		bl	strSearch
 3676              	.LVL395:
 494:App/Src/command.c **** 		CharToInt(command, 13, &address);
 3677              		.loc 1 494 5 view .LVU851
 3678 001a 0028     		cmp	r0, #0
 3679 001c 17DD     		ble	.L257
 495:App/Src/command.c **** 		result = flash_read_data(address, str, 256);
 3680              		.loc 1 495 3 is_stmt 1 view .LVU852
 3681 001e 41AA     		add	r2, sp, #260
 3682 0020 0D21     		movs	r1, #13
 3683 0022 2046     		mov	r0, r4
 3684 0024 FFF7FEFF 		bl	CharToInt
 3685              	.LVL396:
 496:App/Src/command.c **** 		if (result == 1) {
 3686              		.loc 1 496 3 view .LVU853
 496:App/Src/command.c **** 		if (result == 1) {
 3687              		.loc 1 496 12 is_stmt 0 view .LVU854
 3688 0028 4FF48072 		mov	r2, #256
 3689 002c 01A9     		add	r1, sp, #4
 3690 002e 4198     		ldr	r0, [sp, #260]
 3691 0030 FFF7FEFF 		bl	flash_read_data
 3692              	.LVL397:
 3693 0034 0146     		mov	r1, r0
 3694              	.LVL398:
 497:App/Src/command.c **** 			UsbPrintf("flash address[0x%x] print:\n%s\n", address, (char*)str);
 3695              		.loc 1 497 3 is_stmt 1 view .LVU855
 497:App/Src/command.c **** 			UsbPrintf("flash address[0x%x] print:\n%s\n", address, (char*)str);
 3696              		.loc 1 497 6 is_stmt 0 view .LVU856
 3697 0036 0128     		cmp	r0, #1
 3698 0038 03D0     		beq	.L263
 500:App/Src/command.c **** 		}
 3699              		.loc 1 500 4 is_stmt 1 view .LVU857
 3700 003a 1548     		ldr	r0, .L264+4
 3701              	.LVL399:
 500:App/Src/command.c **** 		}
 3702              		.loc 1 500 4 is_stmt 0 view .LVU858
 3703 003c FFF7FEFF 		bl	UsbPrintf
 3704              	.LVL400:
 500:App/Src/command.c **** 		}
 3705              		.loc 1 500 4 view .LVU859
 3706 0040 22E0     		b	.L256
 3707              	.LVL401:
 3708              	.L263:
 498:App/Src/command.c **** 		} else {
 3709              		.loc 1 498 4 is_stmt 1 view .LVU860
 3710 0042 01AA     		add	r2, sp, #4
 3711 0044 4199     		ldr	r1, [sp, #260]
ARM GAS  C:\Users\86158\AppData\Local\Temp\cc1K5eBH.s 			page 98


 3712 0046 1348     		ldr	r0, .L264+8
 3713              	.LVL402:
 498:App/Src/command.c **** 		} else {
 3714              		.loc 1 498 4 is_stmt 0 view .LVU861
 3715 0048 FFF7FEFF 		bl	UsbPrintf
 3716              	.LVL403:
 3717 004c 1CE0     		b	.L256
 3718              	.L257:
 503:App/Src/command.c **** 		UsbPrintf("log use pages %d/%d:\n", pageCount, LOG_MAX_PAGE);
 3719              		.loc 1 503 3 is_stmt 1 view .LVU862
 503:App/Src/command.c **** 		UsbPrintf("log use pages %d/%d:\n", pageCount, LOG_MAX_PAGE);
 3720              		.loc 1 503 15 is_stmt 0 view .LVU863
 3721 004e FFF7FEFF 		bl	get_log_record_pages
 3722              	.LVL404:
 3723 0052 0546     		mov	r5, r0
 3724              	.LVL405:
 504:App/Src/command.c **** 		for (i = 0; i < pageCount; i++) {
 3725              		.loc 1 504 3 is_stmt 1 view .LVU864
 3726 0054 4FF47E42 		mov	r2, #65024
 3727 0058 0146     		mov	r1, r0
 3728 005a 0F48     		ldr	r0, .L264+12
 3729              	.LVL406:
 504:App/Src/command.c **** 		for (i = 0; i < pageCount; i++) {
 3730              		.loc 1 504 3 is_stmt 0 view .LVU865
 3731 005c FFF7FEFF 		bl	UsbPrintf
 3732              	.LVL407:
 505:App/Src/command.c **** 			flash_read_data(LOG_START_ADDR + i * PAGE_SIZE, str, PAGE_SIZE);
 3733              		.loc 1 505 3 is_stmt 1 view .LVU866
 505:App/Src/command.c **** 			flash_read_data(LOG_START_ADDR + i * PAGE_SIZE, str, PAGE_SIZE);
 3734              		.loc 1 505 10 is_stmt 0 view .LVU867
 3735 0060 0024     		movs	r4, #0
 3736              	.LVL408:
 505:App/Src/command.c **** 			flash_read_data(LOG_START_ADDR + i * PAGE_SIZE, str, PAGE_SIZE);
 3737              		.loc 1 505 3 view .LVU868
 3738 0062 0CE0     		b	.L260
 3739              	.LVL409:
 3740              	.L261:
 506:App/Src/command.c **** 			UsbPrintf("%s\n", (char*)str);
 3741              		.loc 1 506 4 is_stmt 1 discriminator 3 view .LVU869
 506:App/Src/command.c **** 			UsbPrintf("%s\n", (char*)str);
 3742              		.loc 1 506 35 is_stmt 0 discriminator 3 view .LVU870
 3743 0064 04F50070 		add	r0, r4, #512
 506:App/Src/command.c **** 			UsbPrintf("%s\n", (char*)str);
 3744              		.loc 1 506 4 discriminator 3 view .LVU871
 3745 0068 4FF48072 		mov	r2, #256
 3746 006c 01A9     		add	r1, sp, #4
 3747 006e 0002     		lsls	r0, r0, #8
 3748 0070 FFF7FEFF 		bl	flash_read_data
 3749              	.LVL410:
 507:App/Src/command.c **** 		}
 3750              		.loc 1 507 4 is_stmt 1 discriminator 3 view .LVU872
 3751 0074 01A9     		add	r1, sp, #4
 3752 0076 0948     		ldr	r0, .L264+16
 3753 0078 FFF7FEFF 		bl	UsbPrintf
 3754              	.LVL411:
 505:App/Src/command.c **** 			flash_read_data(LOG_START_ADDR + i * PAGE_SIZE, str, PAGE_SIZE);
 3755              		.loc 1 505 30 discriminator 3 view .LVU873
ARM GAS  C:\Users\86158\AppData\Local\Temp\cc1K5eBH.s 			page 99


 505:App/Src/command.c **** 			flash_read_data(LOG_START_ADDR + i * PAGE_SIZE, str, PAGE_SIZE);
 3756              		.loc 1 505 31 is_stmt 0 discriminator 3 view .LVU874
 3757 007c 0134     		adds	r4, r4, #1
 3758              	.LVL412:
 3759              	.L260:
 505:App/Src/command.c **** 			flash_read_data(LOG_START_ADDR + i * PAGE_SIZE, str, PAGE_SIZE);
 3760              		.loc 1 505 15 is_stmt 1 discriminator 1 view .LVU875
 505:App/Src/command.c **** 			flash_read_data(LOG_START_ADDR + i * PAGE_SIZE, str, PAGE_SIZE);
 3761              		.loc 1 505 3 is_stmt 0 discriminator 1 view .LVU876
 3762 007e AC42     		cmp	r4, r5
 3763 0080 F0D3     		bcc	.L261
 509:App/Src/command.c **** 	} 
 3764              		.loc 1 509 3 is_stmt 1 view .LVU877
 3765 0082 0748     		ldr	r0, .L264+20
 3766 0084 FFF7FEFF 		bl	UsbPrintf
 3767              	.LVL413:
 3768              	.L256:
 511:App/Src/command.c **** 
 3769              		.loc 1 511 1 is_stmt 0 view .LVU878
 3770 0088 43B0     		add	sp, sp, #268
 3771              	.LCFI65:
 3772              		.cfi_def_cfa_offset 12
 3773              		@ sp needed
 3774 008a 30BD     		pop	{r4, r5, pc}
 3775              	.L265:
 3776              		.align	2
 3777              	.L264:
 3778 008c 00000000 		.word	.LC55
 3779 0090 20000000 		.word	.LC73
 3780 0094 00000000 		.word	.LC72
 3781 0098 30000000 		.word	.LC74
 3782 009c 08000000 		.word	.LC44
 3783 00a0 48000000 		.word	.LC75
 3784              		.cfi_endproc
 3785              	.LFE257:
