ARM GAS  C:\Users\86158\AppData\Local\Temp\cc2g9Wou.s 			page 1


   1              		.cpu cortex-m4
   2              		.arch armv7e-m
   3              		.fpu fpv4-sp-d16
   4              		.eabi_attribute 27, 1
   5              		.eabi_attribute 28, 1
   6              		.eabi_attribute 20, 1
   7              		.eabi_attribute 21, 1
   8              		.eabi_attribute 23, 3
   9              		.eabi_attribute 24, 1
  10              		.eabi_attribute 25, 1
  11              		.eabi_attribute 26, 1
  12              		.eabi_attribute 30, 1
  13              		.eabi_attribute 34, 1
  14              		.eabi_attribute 18, 4
  15              		.file	"rtc_i2c.c"
  16              		.text
  17              	.Ltext0:
  18              		.cfi_sections	.debug_frame
  19              		.section	.text.rtc_read_sda,"ax",%progbits
  20              		.align	1
  21              		.syntax unified
  22              		.thumb
  23              		.thumb_func
  25              	rtc_read_sda:
  26              	.LFB242:
  27              		.file 1 "Drivers/User_Driver/Src/rtc_i2c.c"
   1:Drivers/User_Driver/Src/rtc_i2c.c **** 
   2:Drivers/User_Driver/Src/rtc_i2c.c **** /*
   3:Drivers/User_Driver/Src/rtc_i2c.c ****  *  drivers  rtc i2c
   4:Drivers/User_Driver/Src/rtc_i2c.c ****  * Copyright (C) 2022 shenzhen wave
   5:Drivers/User_Driver/Src/rtc_i2c.c ****  * version:v1.0.0--2023-8-1
   6:Drivers/User_Driver/Src/rtc_i2c.c ****  * This program is free software; you can redistribute it and/or modify
   7:Drivers/User_Driver/Src/rtc_i2c.c ****  */
   8:Drivers/User_Driver/Src/rtc_i2c.c **** #include "main.h"
   9:Drivers/User_Driver/Src/rtc_i2c.c **** #include "rtc_i2c.h"
  10:Drivers/User_Driver/Src/rtc_i2c.c **** #include "string.h"
  11:Drivers/User_Driver/Src/rtc_i2c.c **** 
  12:Drivers/User_Driver/Src/rtc_i2c.c **** 
  13:Drivers/User_Driver/Src/rtc_i2c.c **** typedef struct {
  14:Drivers/User_Driver/Src/rtc_i2c.c **** 	GPIO_TypeDef* busSdaIn;
  15:Drivers/User_Driver/Src/rtc_i2c.c **** 	uint16_t pinSdaIn;
  16:Drivers/User_Driver/Src/rtc_i2c.c **** 	GPIO_TypeDef* busSdaOut;
  17:Drivers/User_Driver/Src/rtc_i2c.c **** 	uint16_t pinSdaOut;
  18:Drivers/User_Driver/Src/rtc_i2c.c **** 	GPIO_TypeDef* busScl;
  19:Drivers/User_Driver/Src/rtc_i2c.c **** 	uint16_t pinScl;
  20:Drivers/User_Driver/Src/rtc_i2c.c **** } I2cGpio;
  21:Drivers/User_Driver/Src/rtc_i2c.c **** 
  22:Drivers/User_Driver/Src/rtc_i2c.c **** typedef struct {
  23:Drivers/User_Driver/Src/rtc_i2c.c **** 	GPIO_TypeDef* busCE;
  24:Drivers/User_Driver/Src/rtc_i2c.c **** 	uint16_t pinCE;
  25:Drivers/User_Driver/Src/rtc_i2c.c **** 	GPIO_TypeDef* busCLK;
  26:Drivers/User_Driver/Src/rtc_i2c.c **** 	uint16_t pinCLK;
  27:Drivers/User_Driver/Src/rtc_i2c.c **** 	GPIO_TypeDef* busMOSI;
  28:Drivers/User_Driver/Src/rtc_i2c.c **** 	uint16_t pinMOSI;
  29:Drivers/User_Driver/Src/rtc_i2c.c **** 	GPIO_TypeDef* busMISO;
  30:Drivers/User_Driver/Src/rtc_i2c.c **** 	uint16_t pinMISO;
  31:Drivers/User_Driver/Src/rtc_i2c.c **** } SpiGpio;
ARM GAS  C:\Users\86158\AppData\Local\Temp\cc2g9Wou.s 			page 2


  32:Drivers/User_Driver/Src/rtc_i2c.c **** #define HORIZONTAL_COUNT	5
  33:Drivers/User_Driver/Src/rtc_i2c.c **** #define VERTICAL_COUNT		10
  34:Drivers/User_Driver/Src/rtc_i2c.c **** uint16_t soft_rtc_delay = 600;
  35:Drivers/User_Driver/Src/rtc_i2c.c **** uint8_t g_state = 0;
  36:Drivers/User_Driver/Src/rtc_i2c.c **** static I2cGpio  g_i2c = {0};
  37:Drivers/User_Driver/Src/rtc_i2c.c **** static SpiGpio g_spi = {0};
  38:Drivers/User_Driver/Src/rtc_i2c.c **** void rtc_scl_init(uint32_t mode)
  39:Drivers/User_Driver/Src/rtc_i2c.c **** {
  40:Drivers/User_Driver/Src/rtc_i2c.c ****   	GPIO_InitTypeDef GPIO_InitStruct = {0};
  41:Drivers/User_Driver/Src/rtc_i2c.c **** 	GPIO_InitStruct.Pin = GPIO_PIN_0|GPIO_PIN_1|GPIO_PIN_2|GPIO_PIN_3|GPIO_PIN_4|GPIO_PIN_5|GPIO_PIN_6
  42:Drivers/User_Driver/Src/rtc_i2c.c **** 							|GPIO_PIN_8|GPIO_PIN_9;
  43:Drivers/User_Driver/Src/rtc_i2c.c **** 	GPIO_InitStruct.Mode = mode;
  44:Drivers/User_Driver/Src/rtc_i2c.c **** 	GPIO_InitStruct.Pull = GPIO_NOPULL;
  45:Drivers/User_Driver/Src/rtc_i2c.c **** 	GPIO_InitStruct.Speed = GPIO_SPEED_FREQ_HIGH;
  46:Drivers/User_Driver/Src/rtc_i2c.c **** 	HAL_GPIO_Init(GPIOC, &GPIO_InitStruct);  
  47:Drivers/User_Driver/Src/rtc_i2c.c **** }
  48:Drivers/User_Driver/Src/rtc_i2c.c **** 
  49:Drivers/User_Driver/Src/rtc_i2c.c **** uint8_t check_sda_level(void)
  50:Drivers/User_Driver/Src/rtc_i2c.c **** {
  51:Drivers/User_Driver/Src/rtc_i2c.c **** 	return HAL_GPIO_ReadPin(g_i2c.busSdaIn, g_i2c.pinSdaIn);
  52:Drivers/User_Driver/Src/rtc_i2c.c **** }
  53:Drivers/User_Driver/Src/rtc_i2c.c **** 
  54:Drivers/User_Driver/Src/rtc_i2c.c **** void rtc_set_channel(uint8_t channel, RtcI2cState state)
  55:Drivers/User_Driver/Src/rtc_i2c.c **** {
  56:Drivers/User_Driver/Src/rtc_i2c.c ****     uint8_t sda_channel = 0;
  57:Drivers/User_Driver/Src/rtc_i2c.c ****     uint8_t scl_channel = 0;
  58:Drivers/User_Driver/Src/rtc_i2c.c ****   	GPIO_InitTypeDef GPIO_InitStruct = {0};
  59:Drivers/User_Driver/Src/rtc_i2c.c **** 
  60:Drivers/User_Driver/Src/rtc_i2c.c **** 	switch (state) {
  61:Drivers/User_Driver/Src/rtc_i2c.c **** 		case RTC_VDD_OFF:
  62:Drivers/User_Driver/Src/rtc_i2c.c **** 		break;
  63:Drivers/User_Driver/Src/rtc_i2c.c **** 		case RTC_INIT_1006://SCL为列，SDA为行
  64:Drivers/User_Driver/Src/rtc_i2c.c **** 			scl_channel = ((channel - 1) % VERTICAL_COUNT); 
  65:Drivers/User_Driver/Src/rtc_i2c.c **** 			if (scl_channel < 4) {
  66:Drivers/User_Driver/Src/rtc_i2c.c **** 				g_i2c.busScl = GPIOC;
  67:Drivers/User_Driver/Src/rtc_i2c.c **** 				g_i2c.pinScl = GPIO_PIN_10 << (scl_channel);
  68:Drivers/User_Driver/Src/rtc_i2c.c **** 			} else {
  69:Drivers/User_Driver/Src/rtc_i2c.c **** 				g_i2c.busScl = GPIOD;
  70:Drivers/User_Driver/Src/rtc_i2c.c **** 				g_i2c.pinScl = GPIO_PIN_10 << (scl_channel - 4);
  71:Drivers/User_Driver/Src/rtc_i2c.c **** 			}
  72:Drivers/User_Driver/Src/rtc_i2c.c **** 
  73:Drivers/User_Driver/Src/rtc_i2c.c **** 			sda_channel = ((channel - 1) / VERTICAL_COUNT);
  74:Drivers/User_Driver/Src/rtc_i2c.c **** 			g_i2c.busSdaIn = GPIOE;
  75:Drivers/User_Driver/Src/rtc_i2c.c **** 			g_i2c.pinSdaIn = GPIO_PIN_0 << sda_channel;//输入和输出不同的线
  76:Drivers/User_Driver/Src/rtc_i2c.c **** 			g_i2c.busSdaOut = GPIOB;
  77:Drivers/User_Driver/Src/rtc_i2c.c **** 			if (sda_channel < 2) {
  78:Drivers/User_Driver/Src/rtc_i2c.c **** 				g_i2c.pinSdaOut = GPIO_PIN_8 << sda_channel;
  79:Drivers/User_Driver/Src/rtc_i2c.c **** 			} else {
  80:Drivers/User_Driver/Src/rtc_i2c.c **** 				g_i2c.pinSdaOut = GPIO_PIN_12 << (sda_channel - 2);
  81:Drivers/User_Driver/Src/rtc_i2c.c **** 			}
  82:Drivers/User_Driver/Src/rtc_i2c.c ****             // HAL_GPIO_WritePin(g_i2c.busSdaOut, g_i2c.pinSdaOut, GPIO_PIN_RESET);
  83:Drivers/User_Driver/Src/rtc_i2c.c **** 			g_state = state;
  84:Drivers/User_Driver/Src/rtc_i2c.c **** 			soft_rtc_delay = 600;
  85:Drivers/User_Driver/Src/rtc_i2c.c **** 		break;
  86:Drivers/User_Driver/Src/rtc_i2c.c **** 		case RTC_SD8825://SCL为列，SDA为行
  87:Drivers/User_Driver/Src/rtc_i2c.c **** 		//SD8825测试模式下
  88:Drivers/User_Driver/Src/rtc_i2c.c **** 			scl_channel = ((channel - 1) % VERTICAL_COUNT); 
ARM GAS  C:\Users\86158\AppData\Local\Temp\cc2g9Wou.s 			page 3


  89:Drivers/User_Driver/Src/rtc_i2c.c **** 			g_i2c.busScl = GPIOC;
  90:Drivers/User_Driver/Src/rtc_i2c.c **** 			g_i2c.pinScl = GPIO_PIN_0 << scl_channel;
  91:Drivers/User_Driver/Src/rtc_i2c.c **** 
  92:Drivers/User_Driver/Src/rtc_i2c.c **** 			sda_channel = ((channel - 1) / VERTICAL_COUNT);
  93:Drivers/User_Driver/Src/rtc_i2c.c **** 			g_i2c.busSdaIn = GPIOE;
  94:Drivers/User_Driver/Src/rtc_i2c.c **** 			g_i2c.pinSdaIn = GPIO_PIN_0 << sda_channel;//输入和输出是相同的线
  95:Drivers/User_Driver/Src/rtc_i2c.c **** 			g_i2c.busSdaOut = GPIOE;
  96:Drivers/User_Driver/Src/rtc_i2c.c **** 			g_i2c.pinSdaOut = GPIO_PIN_0 << sda_channel;
  97:Drivers/User_Driver/Src/rtc_i2c.c **** 			if (sda_channel < 2) {
  98:Drivers/User_Driver/Src/rtc_i2c.c ****             	HAL_GPIO_WritePin(GPIOB, GPIO_PIN_8 << sda_channel, GPIO_PIN_RESET);
  99:Drivers/User_Driver/Src/rtc_i2c.c **** 			} else {
 100:Drivers/User_Driver/Src/rtc_i2c.c ****             	HAL_GPIO_WritePin(GPIOB, GPIO_PIN_12 << (sda_channel - 2), GPIO_PIN_RESET);
 101:Drivers/User_Driver/Src/rtc_i2c.c **** 			}
 102:Drivers/User_Driver/Src/rtc_i2c.c **** 			soft_rtc_delay = 50;
 103:Drivers/User_Driver/Src/rtc_i2c.c **** 			g_state = state;
 104:Drivers/User_Driver/Src/rtc_i2c.c **** 		break;
 105:Drivers/User_Driver/Src/rtc_i2c.c **** 		case RTC_SD8840:
 106:Drivers/User_Driver/Src/rtc_i2c.c **** 			sda_channel = ((channel - 1) % VERTICAL_COUNT);
 107:Drivers/User_Driver/Src/rtc_i2c.c **** 			scl_channel = ((channel - 1) / VERTICAL_COUNT);
 108:Drivers/User_Driver/Src/rtc_i2c.c **** 			g_spi.busMOSI = GPIOB;
 109:Drivers/User_Driver/Src/rtc_i2c.c **** 			g_spi.pinMOSI = GPIO_PIN_6;
 110:Drivers/User_Driver/Src/rtc_i2c.c **** 			GPIO_InitStruct.Pin = GPIO_PIN_6;  
 111:Drivers/User_Driver/Src/rtc_i2c.c **** 			GPIO_InitStruct.Mode = GPIO_MODE_OUTPUT_PP;
 112:Drivers/User_Driver/Src/rtc_i2c.c **** 			GPIO_InitStruct.Pull = GPIO_NOPULL;
 113:Drivers/User_Driver/Src/rtc_i2c.c **** 			GPIO_InitStruct.Speed = GPIO_SPEED_FREQ_HIGH;
 114:Drivers/User_Driver/Src/rtc_i2c.c **** 			HAL_GPIO_Init(GPIOB, &GPIO_InitStruct);
 115:Drivers/User_Driver/Src/rtc_i2c.c **** 			g_spi.busMISO = GPIOB;
 116:Drivers/User_Driver/Src/rtc_i2c.c **** 			g_spi.pinMISO = GPIO_PIN_7;
 117:Drivers/User_Driver/Src/rtc_i2c.c **** 			GPIO_InitStruct.Pin = GPIO_PIN_7;
 118:Drivers/User_Driver/Src/rtc_i2c.c **** 			GPIO_InitStruct.Mode = GPIO_MODE_INPUT;
 119:Drivers/User_Driver/Src/rtc_i2c.c **** 			GPIO_InitStruct.Pull = GPIO_NOPULL;
 120:Drivers/User_Driver/Src/rtc_i2c.c **** 			HAL_GPIO_Init(GPIOB, &GPIO_InitStruct);
 121:Drivers/User_Driver/Src/rtc_i2c.c **** 			HAL_GPIO_WritePin(GPIOB,  GPIO_PIN_8 | GPIO_PIN_9 | GPIO_PIN_12 | GPIO_PIN_13 | GPIO_PIN_14 | GP
 122:Drivers/User_Driver/Src/rtc_i2c.c **** 			if (scl_channel < 2) {
 123:Drivers/User_Driver/Src/rtc_i2c.c **** 				g_spi.pinCE = GPIO_PIN_8 << scl_channel;
 124:Drivers/User_Driver/Src/rtc_i2c.c **** 			} else {
 125:Drivers/User_Driver/Src/rtc_i2c.c **** 				g_spi.pinCE = GPIO_PIN_12 << (scl_channel - 2);
 126:Drivers/User_Driver/Src/rtc_i2c.c **** 			}
 127:Drivers/User_Driver/Src/rtc_i2c.c **** 			g_spi.busCE = GPIOB;
 128:Drivers/User_Driver/Src/rtc_i2c.c **** 			g_spi.busCLK = GPIOE;
 129:Drivers/User_Driver/Src/rtc_i2c.c **** 			g_spi.pinCLK = GPIO_PIN_0 << scl_channel;
 130:Drivers/User_Driver/Src/rtc_i2c.c **** 
 131:Drivers/User_Driver/Src/rtc_i2c.c **** 			soft_rtc_delay = 600;
 132:Drivers/User_Driver/Src/rtc_i2c.c **** 			g_state = state;
 133:Drivers/User_Driver/Src/rtc_i2c.c **** 		break;
 134:Drivers/User_Driver/Src/rtc_i2c.c **** 		default:break;
 135:Drivers/User_Driver/Src/rtc_i2c.c **** 	}
 136:Drivers/User_Driver/Src/rtc_i2c.c **** }
 137:Drivers/User_Driver/Src/rtc_i2c.c **** /**
 138:Drivers/User_Driver/Src/rtc_i2c.c ****  * @brief set sda is high
 139:Drivers/User_Driver/Src/rtc_i2c.c ****  * 
 140:Drivers/User_Driver/Src/rtc_i2c.c ****  */
 141:Drivers/User_Driver/Src/rtc_i2c.c **** void rtc_sda_h(void)
 142:Drivers/User_Driver/Src/rtc_i2c.c **** {
 143:Drivers/User_Driver/Src/rtc_i2c.c **** 	/*user code*/
 144:Drivers/User_Driver/Src/rtc_i2c.c **** 	if (g_state == RTC_SD8825) {
 145:Drivers/User_Driver/Src/rtc_i2c.c **** 		HAL_GPIO_WritePin(g_i2c.busSdaOut, g_i2c.pinSdaOut, GPIO_PIN_SET);
ARM GAS  C:\Users\86158\AppData\Local\Temp\cc2g9Wou.s 			page 4


 146:Drivers/User_Driver/Src/rtc_i2c.c **** 	} else {
 147:Drivers/User_Driver/Src/rtc_i2c.c **** 		HAL_GPIO_WritePin(g_i2c.busSdaOut, g_i2c.pinSdaOut, GPIO_PIN_RESET);
 148:Drivers/User_Driver/Src/rtc_i2c.c **** 	}
 149:Drivers/User_Driver/Src/rtc_i2c.c **** }
 150:Drivers/User_Driver/Src/rtc_i2c.c **** 
 151:Drivers/User_Driver/Src/rtc_i2c.c **** /**
 152:Drivers/User_Driver/Src/rtc_i2c.c ****  * @brief set sda is low
 153:Drivers/User_Driver/Src/rtc_i2c.c ****  * 
 154:Drivers/User_Driver/Src/rtc_i2c.c ****  */
 155:Drivers/User_Driver/Src/rtc_i2c.c **** void rtc_sda_l(void)
 156:Drivers/User_Driver/Src/rtc_i2c.c **** {
 157:Drivers/User_Driver/Src/rtc_i2c.c **** 	/*user code*/
 158:Drivers/User_Driver/Src/rtc_i2c.c **** 	if (g_state == RTC_SD8825) {
 159:Drivers/User_Driver/Src/rtc_i2c.c **** 		HAL_GPIO_WritePin(g_i2c.busSdaOut, g_i2c.pinSdaOut, GPIO_PIN_RESET);
 160:Drivers/User_Driver/Src/rtc_i2c.c **** 	} else {
 161:Drivers/User_Driver/Src/rtc_i2c.c **** 		HAL_GPIO_WritePin(g_i2c.busSdaOut, g_i2c.pinSdaOut, GPIO_PIN_SET);
 162:Drivers/User_Driver/Src/rtc_i2c.c **** 	}
 163:Drivers/User_Driver/Src/rtc_i2c.c **** }
 164:Drivers/User_Driver/Src/rtc_i2c.c **** 
 165:Drivers/User_Driver/Src/rtc_i2c.c **** /**
 166:Drivers/User_Driver/Src/rtc_i2c.c ****  * @brief set scl is high
 167:Drivers/User_Driver/Src/rtc_i2c.c ****  * 
 168:Drivers/User_Driver/Src/rtc_i2c.c ****  */
 169:Drivers/User_Driver/Src/rtc_i2c.c **** void rtc_scl_h(void)
 170:Drivers/User_Driver/Src/rtc_i2c.c **** {
 171:Drivers/User_Driver/Src/rtc_i2c.c **** 	/*user code*/
 172:Drivers/User_Driver/Src/rtc_i2c.c ****     HAL_GPIO_WritePin(g_i2c.busScl, g_i2c.pinScl, GPIO_PIN_SET);
 173:Drivers/User_Driver/Src/rtc_i2c.c **** }
 174:Drivers/User_Driver/Src/rtc_i2c.c **** 
 175:Drivers/User_Driver/Src/rtc_i2c.c **** /**
 176:Drivers/User_Driver/Src/rtc_i2c.c ****  * @brief set scl is low
 177:Drivers/User_Driver/Src/rtc_i2c.c ****  * 
 178:Drivers/User_Driver/Src/rtc_i2c.c ****  */
 179:Drivers/User_Driver/Src/rtc_i2c.c **** void rtc_scl_l(void)
 180:Drivers/User_Driver/Src/rtc_i2c.c **** {
 181:Drivers/User_Driver/Src/rtc_i2c.c **** 	/*user code*/
 182:Drivers/User_Driver/Src/rtc_i2c.c ****     HAL_GPIO_WritePin(g_i2c.busScl, g_i2c.pinScl, GPIO_PIN_RESET);
 183:Drivers/User_Driver/Src/rtc_i2c.c **** }
 184:Drivers/User_Driver/Src/rtc_i2c.c **** 
 185:Drivers/User_Driver/Src/rtc_i2c.c **** /**
 186:Drivers/User_Driver/Src/rtc_i2c.c ****  * @brief Read sda pin state
 187:Drivers/User_Driver/Src/rtc_i2c.c ****  * 
 188:Drivers/User_Driver/Src/rtc_i2c.c ****  */
 189:Drivers/User_Driver/Src/rtc_i2c.c **** static unsigned char rtc_read_sda(void)
 190:Drivers/User_Driver/Src/rtc_i2c.c **** {
  28              		.loc 1 190 1 view -0
  29              		.cfi_startproc
  30              		@ args = 0, pretend = 0, frame = 0
  31              		@ frame_needed = 0, uses_anonymous_args = 0
  32 0000 08B5     		push	{r3, lr}
  33              	.LCFI0:
  34              		.cfi_def_cfa_offset 8
  35              		.cfi_offset 3, -8
  36              		.cfi_offset 14, -4
 191:Drivers/User_Driver/Src/rtc_i2c.c **** 	return HAL_GPIO_ReadPin(g_i2c.busSdaIn, g_i2c.pinSdaIn);
  37              		.loc 1 191 2 view .LVU1
  38              		.loc 1 191 9 is_stmt 0 view .LVU2
ARM GAS  C:\Users\86158\AppData\Local\Temp\cc2g9Wou.s 			page 5


  39 0002 034B     		ldr	r3, .L3
  40 0004 9988     		ldrh	r1, [r3, #4]
  41 0006 1868     		ldr	r0, [r3]
  42 0008 FFF7FEFF 		bl	HAL_GPIO_ReadPin
  43              	.LVL0:
 192:Drivers/User_Driver/Src/rtc_i2c.c **** }
  44              		.loc 1 192 1 view .LVU3
  45 000c 08BD     		pop	{r3, pc}
  46              	.L4:
  47 000e 00BF     		.align	2
  48              	.L3:
  49 0010 00000000 		.word	.LANCHOR0
  50              		.cfi_endproc
  51              	.LFE242:
  53              		.section	.text.rtc_scl_init,"ax",%progbits
  54              		.align	1
  55              		.global	rtc_scl_init
  56              		.syntax unified
  57              		.thumb
  58              		.thumb_func
  60              	rtc_scl_init:
  61              	.LVL1:
  62              	.LFB235:
  39:Drivers/User_Driver/Src/rtc_i2c.c ****   	GPIO_InitTypeDef GPIO_InitStruct = {0};
  63              		.loc 1 39 1 is_stmt 1 view -0
  64              		.cfi_startproc
  65              		@ args = 0, pretend = 0, frame = 24
  66              		@ frame_needed = 0, uses_anonymous_args = 0
  39:Drivers/User_Driver/Src/rtc_i2c.c ****   	GPIO_InitTypeDef GPIO_InitStruct = {0};
  67              		.loc 1 39 1 is_stmt 0 view .LVU5
  68 0000 00B5     		push	{lr}
  69              	.LCFI1:
  70              		.cfi_def_cfa_offset 4
  71              		.cfi_offset 14, -4
  72 0002 87B0     		sub	sp, sp, #28
  73              	.LCFI2:
  74              		.cfi_def_cfa_offset 32
  40:Drivers/User_Driver/Src/rtc_i2c.c **** 	GPIO_InitStruct.Pin = GPIO_PIN_0|GPIO_PIN_1|GPIO_PIN_2|GPIO_PIN_3|GPIO_PIN_4|GPIO_PIN_5|GPIO_PIN_6
  75              		.loc 1 40 4 is_stmt 1 view .LVU6
  40:Drivers/User_Driver/Src/rtc_i2c.c **** 	GPIO_InitStruct.Pin = GPIO_PIN_0|GPIO_PIN_1|GPIO_PIN_2|GPIO_PIN_3|GPIO_PIN_4|GPIO_PIN_5|GPIO_PIN_6
  76              		.loc 1 40 21 is_stmt 0 view .LVU7
  77 0004 0023     		movs	r3, #0
  78 0006 0193     		str	r3, [sp, #4]
  79 0008 0293     		str	r3, [sp, #8]
  80 000a 0393     		str	r3, [sp, #12]
  81 000c 0493     		str	r3, [sp, #16]
  82 000e 0593     		str	r3, [sp, #20]
  41:Drivers/User_Driver/Src/rtc_i2c.c **** 							|GPIO_PIN_8|GPIO_PIN_9;
  83              		.loc 1 41 2 is_stmt 1 view .LVU8
  41:Drivers/User_Driver/Src/rtc_i2c.c **** 							|GPIO_PIN_8|GPIO_PIN_9;
  84              		.loc 1 41 22 is_stmt 0 view .LVU9
  85 0010 40F2FF33 		movw	r3, #1023
  86 0014 0193     		str	r3, [sp, #4]
  43:Drivers/User_Driver/Src/rtc_i2c.c **** 	GPIO_InitStruct.Pull = GPIO_NOPULL;
  87              		.loc 1 43 2 is_stmt 1 view .LVU10
  43:Drivers/User_Driver/Src/rtc_i2c.c **** 	GPIO_InitStruct.Pull = GPIO_NOPULL;
  88              		.loc 1 43 23 is_stmt 0 view .LVU11
ARM GAS  C:\Users\86158\AppData\Local\Temp\cc2g9Wou.s 			page 6


  89 0016 0290     		str	r0, [sp, #8]
  44:Drivers/User_Driver/Src/rtc_i2c.c **** 	GPIO_InitStruct.Speed = GPIO_SPEED_FREQ_HIGH;
  90              		.loc 1 44 2 is_stmt 1 view .LVU12
  45:Drivers/User_Driver/Src/rtc_i2c.c **** 	HAL_GPIO_Init(GPIOC, &GPIO_InitStruct);  
  91              		.loc 1 45 2 view .LVU13
  45:Drivers/User_Driver/Src/rtc_i2c.c **** 	HAL_GPIO_Init(GPIOC, &GPIO_InitStruct);  
  92              		.loc 1 45 24 is_stmt 0 view .LVU14
  93 0018 0223     		movs	r3, #2
  94 001a 0493     		str	r3, [sp, #16]
  46:Drivers/User_Driver/Src/rtc_i2c.c **** }
  95              		.loc 1 46 2 is_stmt 1 view .LVU15
  96 001c 01A9     		add	r1, sp, #4
  97 001e 0348     		ldr	r0, .L7
  98              	.LVL2:
  46:Drivers/User_Driver/Src/rtc_i2c.c **** }
  99              		.loc 1 46 2 is_stmt 0 view .LVU16
 100 0020 FFF7FEFF 		bl	HAL_GPIO_Init
 101              	.LVL3:
  47:Drivers/User_Driver/Src/rtc_i2c.c **** 
 102              		.loc 1 47 1 view .LVU17
 103 0024 07B0     		add	sp, sp, #28
 104              	.LCFI3:
 105              		.cfi_def_cfa_offset 4
 106              		@ sp needed
 107 0026 5DF804FB 		ldr	pc, [sp], #4
 108              	.L8:
 109 002a 00BF     		.align	2
 110              	.L7:
 111 002c 00080240 		.word	1073874944
 112              		.cfi_endproc
 113              	.LFE235:
 115              		.section	.text.check_sda_level,"ax",%progbits
 116              		.align	1
 117              		.global	check_sda_level
 118              		.syntax unified
 119              		.thumb
 120              		.thumb_func
 122              	check_sda_level:
 123              	.LFB236:
  50:Drivers/User_Driver/Src/rtc_i2c.c **** 	return HAL_GPIO_ReadPin(g_i2c.busSdaIn, g_i2c.pinSdaIn);
 124              		.loc 1 50 1 is_stmt 1 view -0
 125              		.cfi_startproc
 126              		@ args = 0, pretend = 0, frame = 0
 127              		@ frame_needed = 0, uses_anonymous_args = 0
 128 0000 08B5     		push	{r3, lr}
 129              	.LCFI4:
 130              		.cfi_def_cfa_offset 8
 131              		.cfi_offset 3, -8
 132              		.cfi_offset 14, -4
  51:Drivers/User_Driver/Src/rtc_i2c.c **** }
 133              		.loc 1 51 2 view .LVU19
  51:Drivers/User_Driver/Src/rtc_i2c.c **** }
 134              		.loc 1 51 9 is_stmt 0 view .LVU20
 135 0002 034B     		ldr	r3, .L11
 136 0004 9988     		ldrh	r1, [r3, #4]
 137 0006 1868     		ldr	r0, [r3]
 138 0008 FFF7FEFF 		bl	HAL_GPIO_ReadPin
ARM GAS  C:\Users\86158\AppData\Local\Temp\cc2g9Wou.s 			page 7


 139              	.LVL4:
  52:Drivers/User_Driver/Src/rtc_i2c.c **** 
 140              		.loc 1 52 1 view .LVU21
 141 000c 08BD     		pop	{r3, pc}
 142              	.L12:
 143 000e 00BF     		.align	2
 144              	.L11:
 145 0010 00000000 		.word	.LANCHOR0
 146              		.cfi_endproc
 147              	.LFE236:
 149              		.section	.text.rtc_set_channel,"ax",%progbits
 150              		.align	1
 151              		.global	rtc_set_channel
 152              		.syntax unified
 153              		.thumb
 154              		.thumb_func
 156              	rtc_set_channel:
 157              	.LVL5:
 158              	.LFB237:
  55:Drivers/User_Driver/Src/rtc_i2c.c ****     uint8_t sda_channel = 0;
 159              		.loc 1 55 1 is_stmt 1 view -0
 160              		.cfi_startproc
 161              		@ args = 0, pretend = 0, frame = 24
 162              		@ frame_needed = 0, uses_anonymous_args = 0
  55:Drivers/User_Driver/Src/rtc_i2c.c ****     uint8_t sda_channel = 0;
 163              		.loc 1 55 1 is_stmt 0 view .LVU23
 164 0000 2DE9F043 		push	{r4, r5, r6, r7, r8, r9, lr}
 165              	.LCFI5:
 166              		.cfi_def_cfa_offset 28
 167              		.cfi_offset 4, -28
 168              		.cfi_offset 5, -24
 169              		.cfi_offset 6, -20
 170              		.cfi_offset 7, -16
 171              		.cfi_offset 8, -12
 172              		.cfi_offset 9, -8
 173              		.cfi_offset 14, -4
 174 0004 87B0     		sub	sp, sp, #28
 175              	.LCFI6:
 176              		.cfi_def_cfa_offset 56
 177 0006 0D46     		mov	r5, r1
  56:Drivers/User_Driver/Src/rtc_i2c.c ****     uint8_t scl_channel = 0;
 178              		.loc 1 56 5 is_stmt 1 view .LVU24
 179              	.LVL6:
  57:Drivers/User_Driver/Src/rtc_i2c.c ****   	GPIO_InitTypeDef GPIO_InitStruct = {0};
 180              		.loc 1 57 5 view .LVU25
  58:Drivers/User_Driver/Src/rtc_i2c.c **** 
 181              		.loc 1 58 4 view .LVU26
  58:Drivers/User_Driver/Src/rtc_i2c.c **** 
 182              		.loc 1 58 21 is_stmt 0 view .LVU27
 183 0008 0023     		movs	r3, #0
 184 000a 0193     		str	r3, [sp, #4]
 185 000c 0293     		str	r3, [sp, #8]
 186 000e 0393     		str	r3, [sp, #12]
 187 0010 0493     		str	r3, [sp, #16]
 188 0012 0593     		str	r3, [sp, #20]
  60:Drivers/User_Driver/Src/rtc_i2c.c **** 		case RTC_VDD_OFF:
 189              		.loc 1 60 2 is_stmt 1 view .LVU28
ARM GAS  C:\Users\86158\AppData\Local\Temp\cc2g9Wou.s 			page 8


 190 0014 0229     		cmp	r1, #2
 191 0016 4FD0     		beq	.L14
 192 0018 0329     		cmp	r1, #3
 193 001a 00F08680 		beq	.L15
 194 001e 0129     		cmp	r1, #1
 195 0020 02D0     		beq	.L26
 196              	.LVL7:
 197              	.L13:
 136:Drivers/User_Driver/Src/rtc_i2c.c **** /**
 198              		.loc 1 136 1 is_stmt 0 view .LVU29
 199 0022 07B0     		add	sp, sp, #28
 200              	.LCFI7:
 201              		.cfi_remember_state
 202              		.cfi_def_cfa_offset 28
 203              		@ sp needed
 204 0024 BDE8F083 		pop	{r4, r5, r6, r7, r8, r9, pc}
 205              	.LVL8:
 206              	.L26:
 207              	.LCFI8:
 208              		.cfi_restore_state
  64:Drivers/User_Driver/Src/rtc_i2c.c **** 			if (scl_channel < 4) {
 209              		.loc 1 64 4 is_stmt 1 view .LVU30
  64:Drivers/User_Driver/Src/rtc_i2c.c **** 			if (scl_channel < 4) {
 210              		.loc 1 64 28 is_stmt 0 view .LVU31
 211 0028 0138     		subs	r0, r0, #1
 212              	.LVL9:
  64:Drivers/User_Driver/Src/rtc_i2c.c **** 			if (scl_channel < 4) {
 213              		.loc 1 64 33 view .LVU32
 214 002a 654A     		ldr	r2, .L30
 215 002c 82FB0032 		smull	r3, r2, r2, r0
 216 0030 C317     		asrs	r3, r0, #31
 217 0032 C3EBA203 		rsb	r3, r3, r2, asr #2
 218 0036 03EB8303 		add	r3, r3, r3, lsl #2
 219 003a A0EB4303 		sub	r3, r0, r3, lsl #1
  64:Drivers/User_Driver/Src/rtc_i2c.c **** 			if (scl_channel < 4) {
 220              		.loc 1 64 16 view .LVU33
 221 003e DAB2     		uxtb	r2, r3
 222              	.LVL10:
  65:Drivers/User_Driver/Src/rtc_i2c.c **** 				g_i2c.busScl = GPIOC;
 223              		.loc 1 65 4 is_stmt 1 view .LVU34
  65:Drivers/User_Driver/Src/rtc_i2c.c **** 				g_i2c.busScl = GPIOC;
 224              		.loc 1 65 7 is_stmt 0 view .LVU35
 225 0040 032A     		cmp	r2, #3
 226 0042 27D8     		bhi	.L17
  66:Drivers/User_Driver/Src/rtc_i2c.c **** 				g_i2c.pinScl = GPIO_PIN_10 << (scl_channel);
 227              		.loc 1 66 5 is_stmt 1 view .LVU36
  66:Drivers/User_Driver/Src/rtc_i2c.c **** 				g_i2c.pinScl = GPIO_PIN_10 << (scl_channel);
 228              		.loc 1 66 18 is_stmt 0 view .LVU37
 229 0044 5F49     		ldr	r1, .L30+4
 230              	.LVL11:
  66:Drivers/User_Driver/Src/rtc_i2c.c **** 				g_i2c.pinScl = GPIO_PIN_10 << (scl_channel);
 231              		.loc 1 66 18 view .LVU38
 232 0046 604A     		ldr	r2, .L30+8
 233              	.LVL12:
  66:Drivers/User_Driver/Src/rtc_i2c.c **** 				g_i2c.pinScl = GPIO_PIN_10 << (scl_channel);
 234              		.loc 1 66 18 view .LVU39
 235 0048 0A61     		str	r2, [r1, #16]
ARM GAS  C:\Users\86158\AppData\Local\Temp\cc2g9Wou.s 			page 9


  67:Drivers/User_Driver/Src/rtc_i2c.c **** 			} else {
 236              		.loc 1 67 5 is_stmt 1 view .LVU40
  67:Drivers/User_Driver/Src/rtc_i2c.c **** 			} else {
 237              		.loc 1 67 32 is_stmt 0 view .LVU41
 238 004a DBB2     		uxtb	r3, r3
  67:Drivers/User_Driver/Src/rtc_i2c.c **** 			} else {
 239              		.loc 1 67 32 view .LVU42
 240 004c 4FF48062 		mov	r2, #1024
 241 0050 02FA03F3 		lsl	r3, r2, r3
 242              	.LVL13:
  67:Drivers/User_Driver/Src/rtc_i2c.c **** 			} else {
 243              		.loc 1 67 18 view .LVU43
 244 0054 8B82     		strh	r3, [r1, #20]	@ movhi
 245              	.L18:
  73:Drivers/User_Driver/Src/rtc_i2c.c **** 			g_i2c.busSdaIn = GPIOE;
 246              		.loc 1 73 4 is_stmt 1 view .LVU44
  73:Drivers/User_Driver/Src/rtc_i2c.c **** 			g_i2c.busSdaIn = GPIOE;
 247              		.loc 1 73 33 is_stmt 0 view .LVU45
 248 0056 5A4B     		ldr	r3, .L30
 249              	.LVL14:
  73:Drivers/User_Driver/Src/rtc_i2c.c **** 			g_i2c.busSdaIn = GPIOE;
 250              		.loc 1 73 33 view .LVU46
 251 0058 83FB0023 		smull	r2, r3, r3, r0
 252              	.LVL15:
  73:Drivers/User_Driver/Src/rtc_i2c.c **** 			g_i2c.busSdaIn = GPIOE;
 253              		.loc 1 73 33 view .LVU47
 254 005c C017     		asrs	r0, r0, #31
 255              	.LVL16:
  73:Drivers/User_Driver/Src/rtc_i2c.c **** 			g_i2c.busSdaIn = GPIOE;
 256              		.loc 1 73 33 view .LVU48
 257 005e C0EBA300 		rsb	r0, r0, r3, asr #2
  73:Drivers/User_Driver/Src/rtc_i2c.c **** 			g_i2c.busSdaIn = GPIOE;
 258              		.loc 1 73 16 view .LVU49
 259 0062 C0B2     		uxtb	r0, r0
 260              	.LVL17:
  74:Drivers/User_Driver/Src/rtc_i2c.c **** 			g_i2c.pinSdaIn = GPIO_PIN_0 << sda_channel;//输入和输出不同的线
 261              		.loc 1 74 4 is_stmt 1 view .LVU50
  74:Drivers/User_Driver/Src/rtc_i2c.c **** 			g_i2c.pinSdaIn = GPIO_PIN_0 << sda_channel;//输入和输出不同的线
 262              		.loc 1 74 19 is_stmt 0 view .LVU51
 263 0064 574B     		ldr	r3, .L30+4
 264 0066 594A     		ldr	r2, .L30+12
 265 0068 1A60     		str	r2, [r3]
  75:Drivers/User_Driver/Src/rtc_i2c.c **** 			g_i2c.busSdaOut = GPIOB;
 266              		.loc 1 75 4 is_stmt 1 view .LVU52
  75:Drivers/User_Driver/Src/rtc_i2c.c **** 			g_i2c.busSdaOut = GPIOB;
 267              		.loc 1 75 32 is_stmt 0 view .LVU53
 268 006a 0122     		movs	r2, #1
 269 006c 8240     		lsls	r2, r2, r0
  75:Drivers/User_Driver/Src/rtc_i2c.c **** 			g_i2c.busSdaOut = GPIOB;
 270              		.loc 1 75 19 view .LVU54
 271 006e 9A80     		strh	r2, [r3, #4]	@ movhi
  76:Drivers/User_Driver/Src/rtc_i2c.c **** 			if (sda_channel < 2) {
 272              		.loc 1 76 4 is_stmt 1 view .LVU55
  76:Drivers/User_Driver/Src/rtc_i2c.c **** 			if (sda_channel < 2) {
 273              		.loc 1 76 20 is_stmt 0 view .LVU56
 274 0070 574A     		ldr	r2, .L30+16
 275 0072 9A60     		str	r2, [r3, #8]
ARM GAS  C:\Users\86158\AppData\Local\Temp\cc2g9Wou.s 			page 10


  77:Drivers/User_Driver/Src/rtc_i2c.c **** 				g_i2c.pinSdaOut = GPIO_PIN_8 << sda_channel;
 276              		.loc 1 77 4 is_stmt 1 view .LVU57
  77:Drivers/User_Driver/Src/rtc_i2c.c **** 				g_i2c.pinSdaOut = GPIO_PIN_8 << sda_channel;
 277              		.loc 1 77 7 is_stmt 0 view .LVU58
 278 0074 0128     		cmp	r0, #1
 279 0076 18D9     		bls	.L27
  80:Drivers/User_Driver/Src/rtc_i2c.c **** 			}
 280              		.loc 1 80 5 is_stmt 1 view .LVU59
  80:Drivers/User_Driver/Src/rtc_i2c.c **** 			}
 281              		.loc 1 80 51 is_stmt 0 view .LVU60
 282 0078 0238     		subs	r0, r0, #2
 283              	.LVL18:
  80:Drivers/User_Driver/Src/rtc_i2c.c **** 			}
 284              		.loc 1 80 35 view .LVU61
 285 007a 4FF48053 		mov	r3, #4096
 286 007e 03FA00F0 		lsl	r0, r3, r0
 287              	.LVL19:
  80:Drivers/User_Driver/Src/rtc_i2c.c **** 			}
 288              		.loc 1 80 21 view .LVU62
 289 0082 504B     		ldr	r3, .L30+4
 290 0084 9881     		strh	r0, [r3, #12]	@ movhi
 291              	.L20:
  83:Drivers/User_Driver/Src/rtc_i2c.c **** 			soft_rtc_delay = 600;
 292              		.loc 1 83 4 is_stmt 1 view .LVU63
  83:Drivers/User_Driver/Src/rtc_i2c.c **** 			soft_rtc_delay = 600;
 293              		.loc 1 83 12 is_stmt 0 view .LVU64
 294 0086 534B     		ldr	r3, .L30+20
 295 0088 1D70     		strb	r5, [r3]
  84:Drivers/User_Driver/Src/rtc_i2c.c **** 		break;
 296              		.loc 1 84 4 is_stmt 1 view .LVU65
  84:Drivers/User_Driver/Src/rtc_i2c.c **** 		break;
 297              		.loc 1 84 19 is_stmt 0 view .LVU66
 298 008a 534B     		ldr	r3, .L30+24
 299 008c 4FF41672 		mov	r2, #600
 300 0090 1A80     		strh	r2, [r3]	@ movhi
  85:Drivers/User_Driver/Src/rtc_i2c.c **** 		case RTC_SD8825://SCL为列，SDA为行
 301              		.loc 1 85 3 is_stmt 1 view .LVU67
 302 0092 C6E7     		b	.L13
 303              	.LVL20:
 304              	.L17:
  69:Drivers/User_Driver/Src/rtc_i2c.c **** 				g_i2c.pinScl = GPIO_PIN_10 << (scl_channel - 4);
 305              		.loc 1 69 5 view .LVU68
  69:Drivers/User_Driver/Src/rtc_i2c.c **** 				g_i2c.pinScl = GPIO_PIN_10 << (scl_channel - 4);
 306              		.loc 1 69 18 is_stmt 0 view .LVU69
 307 0094 4B49     		ldr	r1, .L30+4
 308              	.LVL21:
  69:Drivers/User_Driver/Src/rtc_i2c.c **** 				g_i2c.pinScl = GPIO_PIN_10 << (scl_channel - 4);
 309              		.loc 1 69 18 view .LVU70
 310 0096 514A     		ldr	r2, .L30+28
 311              	.LVL22:
  69:Drivers/User_Driver/Src/rtc_i2c.c **** 				g_i2c.pinScl = GPIO_PIN_10 << (scl_channel - 4);
 312              		.loc 1 69 18 view .LVU71
 313 0098 0A61     		str	r2, [r1, #16]
  70:Drivers/User_Driver/Src/rtc_i2c.c **** 			}
 314              		.loc 1 70 5 is_stmt 1 view .LVU72
  70:Drivers/User_Driver/Src/rtc_i2c.c **** 			}
 315              		.loc 1 70 48 is_stmt 0 view .LVU73
ARM GAS  C:\Users\86158\AppData\Local\Temp\cc2g9Wou.s 			page 11


 316 009a DBB2     		uxtb	r3, r3
  70:Drivers/User_Driver/Src/rtc_i2c.c **** 			}
 317              		.loc 1 70 48 view .LVU74
 318 009c 043B     		subs	r3, r3, #4
 319              	.LVL23:
  70:Drivers/User_Driver/Src/rtc_i2c.c **** 			}
 320              		.loc 1 70 32 view .LVU75
 321 009e 4FF48062 		mov	r2, #1024
 322 00a2 02FA03F3 		lsl	r3, r2, r3
 323              	.LVL24:
  70:Drivers/User_Driver/Src/rtc_i2c.c **** 			}
 324              		.loc 1 70 18 view .LVU76
 325 00a6 8B82     		strh	r3, [r1, #20]	@ movhi
 326 00a8 D5E7     		b	.L18
 327              	.LVL25:
 328              	.L27:
  78:Drivers/User_Driver/Src/rtc_i2c.c **** 			} else {
 329              		.loc 1 78 5 is_stmt 1 view .LVU77
  78:Drivers/User_Driver/Src/rtc_i2c.c **** 			} else {
 330              		.loc 1 78 34 is_stmt 0 view .LVU78
 331 00aa 4FF48073 		mov	r3, #256
 332 00ae 03FA00F0 		lsl	r0, r3, r0
 333              	.LVL26:
  78:Drivers/User_Driver/Src/rtc_i2c.c **** 			} else {
 334              		.loc 1 78 21 view .LVU79
 335 00b2 444B     		ldr	r3, .L30+4
 336 00b4 9881     		strh	r0, [r3, #12]	@ movhi
 337 00b6 E6E7     		b	.L20
 338              	.LVL27:
 339              	.L14:
  88:Drivers/User_Driver/Src/rtc_i2c.c **** 			g_i2c.busScl = GPIOC;
 340              		.loc 1 88 4 is_stmt 1 view .LVU80
  88:Drivers/User_Driver/Src/rtc_i2c.c **** 			g_i2c.busScl = GPIOC;
 341              		.loc 1 88 28 is_stmt 0 view .LVU81
 342 00b8 0138     		subs	r0, r0, #1
 343              	.LVL28:
  88:Drivers/User_Driver/Src/rtc_i2c.c **** 			g_i2c.busScl = GPIOC;
 344              		.loc 1 88 33 view .LVU82
 345 00ba 414A     		ldr	r2, .L30
 346 00bc 82FB0032 		smull	r3, r2, r2, r0
 347 00c0 C317     		asrs	r3, r0, #31
 348 00c2 C3EBA203 		rsb	r3, r3, r2, asr #2
 349 00c6 1946     		mov	r1, r3
 350              	.LVL29:
  88:Drivers/User_Driver/Src/rtc_i2c.c **** 			g_i2c.busScl = GPIOC;
 351              		.loc 1 88 33 view .LVU83
 352 00c8 03EB8303 		add	r3, r3, r3, lsl #2
 353 00cc A0EB4303 		sub	r3, r0, r3, lsl #1
 354              	.LVL30:
  89:Drivers/User_Driver/Src/rtc_i2c.c **** 			g_i2c.pinScl = GPIO_PIN_0 << scl_channel;
 355              		.loc 1 89 4 is_stmt 1 view .LVU84
  89:Drivers/User_Driver/Src/rtc_i2c.c **** 			g_i2c.pinScl = GPIO_PIN_0 << scl_channel;
 356              		.loc 1 89 17 is_stmt 0 view .LVU85
 357 00d0 3C48     		ldr	r0, .L30+4
 358 00d2 3D4A     		ldr	r2, .L30+8
 359 00d4 0261     		str	r2, [r0, #16]
  90:Drivers/User_Driver/Src/rtc_i2c.c **** 
ARM GAS  C:\Users\86158\AppData\Local\Temp\cc2g9Wou.s 			page 12


 360              		.loc 1 90 4 is_stmt 1 view .LVU86
  90:Drivers/User_Driver/Src/rtc_i2c.c **** 
 361              		.loc 1 90 30 is_stmt 0 view .LVU87
 362 00d6 DBB2     		uxtb	r3, r3
  90:Drivers/User_Driver/Src/rtc_i2c.c **** 
 363              		.loc 1 90 30 view .LVU88
 364 00d8 0122     		movs	r2, #1
 365 00da 02FA03F3 		lsl	r3, r2, r3
 366              	.LVL31:
  90:Drivers/User_Driver/Src/rtc_i2c.c **** 
 367              		.loc 1 90 17 view .LVU89
 368 00de 8382     		strh	r3, [r0, #20]	@ movhi
  92:Drivers/User_Driver/Src/rtc_i2c.c **** 			g_i2c.busSdaIn = GPIOE;
 369              		.loc 1 92 4 is_stmt 1 view .LVU90
  92:Drivers/User_Driver/Src/rtc_i2c.c **** 			g_i2c.busSdaIn = GPIOE;
 370              		.loc 1 92 16 is_stmt 0 view .LVU91
 371 00e0 C9B2     		uxtb	r1, r1
 372              	.LVL32:
  93:Drivers/User_Driver/Src/rtc_i2c.c **** 			g_i2c.pinSdaIn = GPIO_PIN_0 << sda_channel;//输入和输出是相同的线
 373              		.loc 1 93 4 is_stmt 1 view .LVU92
  93:Drivers/User_Driver/Src/rtc_i2c.c **** 			g_i2c.pinSdaIn = GPIO_PIN_0 << sda_channel;//输入和输出是相同的线
 374              		.loc 1 93 19 is_stmt 0 view .LVU93
 375 00e2 3A4C     		ldr	r4, .L30+12
 376 00e4 0460     		str	r4, [r0]
  94:Drivers/User_Driver/Src/rtc_i2c.c **** 			g_i2c.busSdaOut = GPIOE;
 377              		.loc 1 94 4 is_stmt 1 view .LVU94
  94:Drivers/User_Driver/Src/rtc_i2c.c **** 			g_i2c.busSdaOut = GPIOE;
 378              		.loc 1 94 32 is_stmt 0 view .LVU95
 379 00e6 02FA01F3 		lsl	r3, r2, r1
  94:Drivers/User_Driver/Src/rtc_i2c.c **** 			g_i2c.busSdaOut = GPIOE;
 380              		.loc 1 94 19 view .LVU96
 381 00ea 9BB2     		uxth	r3, r3
 382 00ec 8380     		strh	r3, [r0, #4]	@ movhi
  95:Drivers/User_Driver/Src/rtc_i2c.c **** 			g_i2c.pinSdaOut = GPIO_PIN_0 << sda_channel;
 383              		.loc 1 95 4 is_stmt 1 view .LVU97
  95:Drivers/User_Driver/Src/rtc_i2c.c **** 			g_i2c.pinSdaOut = GPIO_PIN_0 << sda_channel;
 384              		.loc 1 95 20 is_stmt 0 view .LVU98
 385 00ee 8460     		str	r4, [r0, #8]
  96:Drivers/User_Driver/Src/rtc_i2c.c **** 			if (sda_channel < 2) {
 386              		.loc 1 96 4 is_stmt 1 view .LVU99
  96:Drivers/User_Driver/Src/rtc_i2c.c **** 			if (sda_channel < 2) {
 387              		.loc 1 96 20 is_stmt 0 view .LVU100
 388 00f0 8381     		strh	r3, [r0, #12]	@ movhi
  97:Drivers/User_Driver/Src/rtc_i2c.c ****             	HAL_GPIO_WritePin(GPIOB, GPIO_PIN_8 << sda_channel, GPIO_PIN_RESET);
 389              		.loc 1 97 4 is_stmt 1 view .LVU101
  97:Drivers/User_Driver/Src/rtc_i2c.c ****             	HAL_GPIO_WritePin(GPIOB, GPIO_PIN_8 << sda_channel, GPIO_PIN_RESET);
 390              		.loc 1 97 7 is_stmt 0 view .LVU102
 391 00f2 9142     		cmp	r1, r2
 392 00f4 0FD9     		bls	.L28
 100:Drivers/User_Driver/Src/rtc_i2c.c **** 			}
 393              		.loc 1 100 14 is_stmt 1 view .LVU103
 100:Drivers/User_Driver/Src/rtc_i2c.c **** 			}
 394              		.loc 1 100 67 is_stmt 0 view .LVU104
 395 00f6 0239     		subs	r1, r1, #2
 396              	.LVL33:
 100:Drivers/User_Driver/Src/rtc_i2c.c **** 			}
 397              		.loc 1 100 51 view .LVU105
ARM GAS  C:\Users\86158\AppData\Local\Temp\cc2g9Wou.s 			page 13


 398 00f8 4FF48053 		mov	r3, #4096
 399 00fc 03FA01F1 		lsl	r1, r3, r1
 400              	.LVL34:
 100:Drivers/User_Driver/Src/rtc_i2c.c **** 			}
 401              		.loc 1 100 14 view .LVU106
 402 0100 0022     		movs	r2, #0
 403 0102 89B2     		uxth	r1, r1
 404 0104 3248     		ldr	r0, .L30+16
 405 0106 FFF7FEFF 		bl	HAL_GPIO_WritePin
 406              	.LVL35:
 407              	.L22:
 102:Drivers/User_Driver/Src/rtc_i2c.c **** 			g_state = state;
 408              		.loc 1 102 4 is_stmt 1 view .LVU107
 102:Drivers/User_Driver/Src/rtc_i2c.c **** 			g_state = state;
 409              		.loc 1 102 19 is_stmt 0 view .LVU108
 410 010a 334B     		ldr	r3, .L30+24
 411 010c 3222     		movs	r2, #50
 412 010e 1A80     		strh	r2, [r3]	@ movhi
 103:Drivers/User_Driver/Src/rtc_i2c.c **** 		break;
 413              		.loc 1 103 4 is_stmt 1 view .LVU109
 103:Drivers/User_Driver/Src/rtc_i2c.c **** 		break;
 414              		.loc 1 103 12 is_stmt 0 view .LVU110
 415 0110 304B     		ldr	r3, .L30+20
 416 0112 1D70     		strb	r5, [r3]
 104:Drivers/User_Driver/Src/rtc_i2c.c **** 		case RTC_SD8840:
 417              		.loc 1 104 3 is_stmt 1 view .LVU111
 418 0114 85E7     		b	.L13
 419              	.LVL36:
 420              	.L28:
  98:Drivers/User_Driver/Src/rtc_i2c.c **** 			} else {
 421              		.loc 1 98 14 view .LVU112
  98:Drivers/User_Driver/Src/rtc_i2c.c **** 			} else {
 422              		.loc 1 98 50 is_stmt 0 view .LVU113
 423 0116 4FF48073 		mov	r3, #256
 424 011a 03FA01F1 		lsl	r1, r3, r1
 425              	.LVL37:
  98:Drivers/User_Driver/Src/rtc_i2c.c **** 			} else {
 426              		.loc 1 98 14 view .LVU114
 427 011e 0022     		movs	r2, #0
 428 0120 89B2     		uxth	r1, r1
 429 0122 2B48     		ldr	r0, .L30+16
 430 0124 FFF7FEFF 		bl	HAL_GPIO_WritePin
 431              	.LVL38:
 432 0128 EFE7     		b	.L22
 433              	.LVL39:
 434              	.L15:
 106:Drivers/User_Driver/Src/rtc_i2c.c **** 			scl_channel = ((channel - 1) / VERTICAL_COUNT);
 435              		.loc 1 106 4 is_stmt 1 view .LVU115
 106:Drivers/User_Driver/Src/rtc_i2c.c **** 			scl_channel = ((channel - 1) / VERTICAL_COUNT);
 436              		.loc 1 106 28 is_stmt 0 view .LVU116
 437 012a 0138     		subs	r0, r0, #1
 438              	.LVL40:
 107:Drivers/User_Driver/Src/rtc_i2c.c **** 			g_spi.busMOSI = GPIOB;
 439              		.loc 1 107 4 is_stmt 1 view .LVU117
 107:Drivers/User_Driver/Src/rtc_i2c.c **** 			g_spi.busMOSI = GPIOB;
 440              		.loc 1 107 33 is_stmt 0 view .LVU118
 441 012c 244C     		ldr	r4, .L30
ARM GAS  C:\Users\86158\AppData\Local\Temp\cc2g9Wou.s 			page 14


 442 012e 84FB0034 		smull	r3, r4, r4, r0
 443 0132 C017     		asrs	r0, r0, #31
 444              	.LVL41:
 107:Drivers/User_Driver/Src/rtc_i2c.c **** 			g_spi.busMOSI = GPIOB;
 445              		.loc 1 107 33 view .LVU119
 446 0134 C0EBA404 		rsb	r4, r0, r4, asr #2
 107:Drivers/User_Driver/Src/rtc_i2c.c **** 			g_spi.busMOSI = GPIOB;
 447              		.loc 1 107 16 view .LVU120
 448 0138 5FFA84F9 		uxtb	r9, r4
 449              	.LVL42:
 108:Drivers/User_Driver/Src/rtc_i2c.c **** 			g_spi.pinMOSI = GPIO_PIN_6;
 450              		.loc 1 108 4 is_stmt 1 view .LVU121
 108:Drivers/User_Driver/Src/rtc_i2c.c **** 			g_spi.pinMOSI = GPIO_PIN_6;
 451              		.loc 1 108 18 is_stmt 0 view .LVU122
 452 013c 284F     		ldr	r7, .L30+32
 453 013e 244E     		ldr	r6, .L30+16
 454 0140 3E61     		str	r6, [r7, #16]
 109:Drivers/User_Driver/Src/rtc_i2c.c **** 			GPIO_InitStruct.Pin = GPIO_PIN_6;  
 455              		.loc 1 109 4 is_stmt 1 view .LVU123
 109:Drivers/User_Driver/Src/rtc_i2c.c **** 			GPIO_InitStruct.Pin = GPIO_PIN_6;  
 456              		.loc 1 109 18 is_stmt 0 view .LVU124
 457 0142 4023     		movs	r3, #64
 458 0144 BB82     		strh	r3, [r7, #20]	@ movhi
 110:Drivers/User_Driver/Src/rtc_i2c.c **** 			GPIO_InitStruct.Mode = GPIO_MODE_OUTPUT_PP;
 459              		.loc 1 110 4 is_stmt 1 view .LVU125
 110:Drivers/User_Driver/Src/rtc_i2c.c **** 			GPIO_InitStruct.Mode = GPIO_MODE_OUTPUT_PP;
 460              		.loc 1 110 24 is_stmt 0 view .LVU126
 461 0146 0193     		str	r3, [sp, #4]
 111:Drivers/User_Driver/Src/rtc_i2c.c **** 			GPIO_InitStruct.Pull = GPIO_NOPULL;
 462              		.loc 1 111 4 is_stmt 1 view .LVU127
 111:Drivers/User_Driver/Src/rtc_i2c.c **** 			GPIO_InitStruct.Pull = GPIO_NOPULL;
 463              		.loc 1 111 25 is_stmt 0 view .LVU128
 464 0148 4FF00108 		mov	r8, #1
 465 014c CDF80880 		str	r8, [sp, #8]
 112:Drivers/User_Driver/Src/rtc_i2c.c **** 			GPIO_InitStruct.Speed = GPIO_SPEED_FREQ_HIGH;
 466              		.loc 1 112 4 is_stmt 1 view .LVU129
 113:Drivers/User_Driver/Src/rtc_i2c.c **** 			HAL_GPIO_Init(GPIOB, &GPIO_InitStruct);
 467              		.loc 1 113 4 view .LVU130
 113:Drivers/User_Driver/Src/rtc_i2c.c **** 			HAL_GPIO_Init(GPIOB, &GPIO_InitStruct);
 468              		.loc 1 113 26 is_stmt 0 view .LVU131
 469 0150 0223     		movs	r3, #2
 470 0152 0493     		str	r3, [sp, #16]
 114:Drivers/User_Driver/Src/rtc_i2c.c **** 			g_spi.busMISO = GPIOB;
 471              		.loc 1 114 4 is_stmt 1 view .LVU132
 472 0154 01A9     		add	r1, sp, #4
 473              	.LVL43:
 114:Drivers/User_Driver/Src/rtc_i2c.c **** 			g_spi.busMISO = GPIOB;
 474              		.loc 1 114 4 is_stmt 0 view .LVU133
 475 0156 3046     		mov	r0, r6
 476 0158 FFF7FEFF 		bl	HAL_GPIO_Init
 477              	.LVL44:
 115:Drivers/User_Driver/Src/rtc_i2c.c **** 			g_spi.pinMISO = GPIO_PIN_7;
 478              		.loc 1 115 4 is_stmt 1 view .LVU134
 115:Drivers/User_Driver/Src/rtc_i2c.c **** 			g_spi.pinMISO = GPIO_PIN_7;
 479              		.loc 1 115 18 is_stmt 0 view .LVU135
 480 015c BE61     		str	r6, [r7, #24]
 116:Drivers/User_Driver/Src/rtc_i2c.c **** 			GPIO_InitStruct.Pin = GPIO_PIN_7;
ARM GAS  C:\Users\86158\AppData\Local\Temp\cc2g9Wou.s 			page 15


 481              		.loc 1 116 4 is_stmt 1 view .LVU136
 116:Drivers/User_Driver/Src/rtc_i2c.c **** 			GPIO_InitStruct.Pin = GPIO_PIN_7;
 482              		.loc 1 116 18 is_stmt 0 view .LVU137
 483 015e 8023     		movs	r3, #128
 484 0160 BB83     		strh	r3, [r7, #28]	@ movhi
 117:Drivers/User_Driver/Src/rtc_i2c.c **** 			GPIO_InitStruct.Mode = GPIO_MODE_INPUT;
 485              		.loc 1 117 4 is_stmt 1 view .LVU138
 117:Drivers/User_Driver/Src/rtc_i2c.c **** 			GPIO_InitStruct.Mode = GPIO_MODE_INPUT;
 486              		.loc 1 117 24 is_stmt 0 view .LVU139
 487 0162 0193     		str	r3, [sp, #4]
 118:Drivers/User_Driver/Src/rtc_i2c.c **** 			GPIO_InitStruct.Pull = GPIO_NOPULL;
 488              		.loc 1 118 4 is_stmt 1 view .LVU140
 118:Drivers/User_Driver/Src/rtc_i2c.c **** 			GPIO_InitStruct.Pull = GPIO_NOPULL;
 489              		.loc 1 118 25 is_stmt 0 view .LVU141
 490 0164 0023     		movs	r3, #0
 491 0166 0293     		str	r3, [sp, #8]
 119:Drivers/User_Driver/Src/rtc_i2c.c **** 			HAL_GPIO_Init(GPIOB, &GPIO_InitStruct);
 492              		.loc 1 119 4 is_stmt 1 view .LVU142
 119:Drivers/User_Driver/Src/rtc_i2c.c **** 			HAL_GPIO_Init(GPIOB, &GPIO_InitStruct);
 493              		.loc 1 119 25 is_stmt 0 view .LVU143
 494 0168 0393     		str	r3, [sp, #12]
 120:Drivers/User_Driver/Src/rtc_i2c.c **** 			HAL_GPIO_WritePin(GPIOB,  GPIO_PIN_8 | GPIO_PIN_9 | GPIO_PIN_12 | GPIO_PIN_13 | GPIO_PIN_14 | GP
 495              		.loc 1 120 4 is_stmt 1 view .LVU144
 496 016a 01A9     		add	r1, sp, #4
 497 016c 3046     		mov	r0, r6
 498 016e FFF7FEFF 		bl	HAL_GPIO_Init
 499              	.LVL45:
 121:Drivers/User_Driver/Src/rtc_i2c.c **** 			if (scl_channel < 2) {
 500              		.loc 1 121 4 view .LVU145
 501 0172 4246     		mov	r2, r8
 502 0174 4FF47341 		mov	r1, #62208
 503 0178 3046     		mov	r0, r6
 504 017a FFF7FEFF 		bl	HAL_GPIO_WritePin
 505              	.LVL46:
 122:Drivers/User_Driver/Src/rtc_i2c.c **** 				g_spi.pinCE = GPIO_PIN_8 << scl_channel;
 506              		.loc 1 122 4 view .LVU146
 122:Drivers/User_Driver/Src/rtc_i2c.c **** 				g_spi.pinCE = GPIO_PIN_8 << scl_channel;
 507              		.loc 1 122 7 is_stmt 0 view .LVU147
 508 017e C145     		cmp	r9, r8
 509 0180 18D9     		bls	.L29
 125:Drivers/User_Driver/Src/rtc_i2c.c **** 			}
 510              		.loc 1 125 5 is_stmt 1 view .LVU148
 125:Drivers/User_Driver/Src/rtc_i2c.c **** 			}
 511              		.loc 1 125 47 is_stmt 0 view .LVU149
 512 0182 E3B2     		uxtb	r3, r4
 513 0184 9A1E     		subs	r2, r3, #2
 125:Drivers/User_Driver/Src/rtc_i2c.c **** 			}
 514              		.loc 1 125 31 view .LVU150
 515 0186 4FF48053 		mov	r3, #4096
 516 018a 9340     		lsls	r3, r3, r2
 125:Drivers/User_Driver/Src/rtc_i2c.c **** 			}
 517              		.loc 1 125 17 view .LVU151
 518 018c 144A     		ldr	r2, .L30+32
 519 018e 9380     		strh	r3, [r2, #4]	@ movhi
 520              	.L24:
 127:Drivers/User_Driver/Src/rtc_i2c.c **** 			g_spi.busCLK = GPIOE;
 521              		.loc 1 127 4 is_stmt 1 view .LVU152
ARM GAS  C:\Users\86158\AppData\Local\Temp\cc2g9Wou.s 			page 16


 127:Drivers/User_Driver/Src/rtc_i2c.c **** 			g_spi.busCLK = GPIOE;
 522              		.loc 1 127 16 is_stmt 0 view .LVU153
 523 0190 134B     		ldr	r3, .L30+32
 524 0192 0F4A     		ldr	r2, .L30+16
 525 0194 1A60     		str	r2, [r3]
 128:Drivers/User_Driver/Src/rtc_i2c.c **** 			g_spi.pinCLK = GPIO_PIN_0 << scl_channel;
 526              		.loc 1 128 4 is_stmt 1 view .LVU154
 128:Drivers/User_Driver/Src/rtc_i2c.c **** 			g_spi.pinCLK = GPIO_PIN_0 << scl_channel;
 527              		.loc 1 128 17 is_stmt 0 view .LVU155
 528 0196 02F54062 		add	r2, r2, #3072
 529 019a 9A60     		str	r2, [r3, #8]
 129:Drivers/User_Driver/Src/rtc_i2c.c **** 
 530              		.loc 1 129 4 is_stmt 1 view .LVU156
 129:Drivers/User_Driver/Src/rtc_i2c.c **** 
 531              		.loc 1 129 30 is_stmt 0 view .LVU157
 532 019c E4B2     		uxtb	r4, r4
 533 019e 0122     		movs	r2, #1
 534 01a0 02FA04F4 		lsl	r4, r2, r4
 129:Drivers/User_Driver/Src/rtc_i2c.c **** 
 535              		.loc 1 129 17 view .LVU158
 536 01a4 9C81     		strh	r4, [r3, #12]	@ movhi
 131:Drivers/User_Driver/Src/rtc_i2c.c **** 			g_state = state;
 537              		.loc 1 131 4 is_stmt 1 view .LVU159
 131:Drivers/User_Driver/Src/rtc_i2c.c **** 			g_state = state;
 538              		.loc 1 131 19 is_stmt 0 view .LVU160
 539 01a6 0C4B     		ldr	r3, .L30+24
 540 01a8 4FF41672 		mov	r2, #600
 541 01ac 1A80     		strh	r2, [r3]	@ movhi
 132:Drivers/User_Driver/Src/rtc_i2c.c **** 		break;
 542              		.loc 1 132 4 is_stmt 1 view .LVU161
 132:Drivers/User_Driver/Src/rtc_i2c.c **** 		break;
 543              		.loc 1 132 12 is_stmt 0 view .LVU162
 544 01ae 094B     		ldr	r3, .L30+20
 545 01b0 1D70     		strb	r5, [r3]
 133:Drivers/User_Driver/Src/rtc_i2c.c **** 		default:break;
 546              		.loc 1 133 3 is_stmt 1 view .LVU163
 136:Drivers/User_Driver/Src/rtc_i2c.c **** /**
 547              		.loc 1 136 1 is_stmt 0 view .LVU164
 548 01b2 36E7     		b	.L13
 549              	.L29:
 123:Drivers/User_Driver/Src/rtc_i2c.c **** 			} else {
 550              		.loc 1 123 5 is_stmt 1 view .LVU165
 123:Drivers/User_Driver/Src/rtc_i2c.c **** 			} else {
 551              		.loc 1 123 30 is_stmt 0 view .LVU166
 552 01b4 4A46     		mov	r2, r9
 553 01b6 4FF48073 		mov	r3, #256
 554 01ba 9340     		lsls	r3, r3, r2
 123:Drivers/User_Driver/Src/rtc_i2c.c **** 			} else {
 555              		.loc 1 123 17 view .LVU167
 556 01bc BB80     		strh	r3, [r7, #4]	@ movhi
 557 01be E7E7     		b	.L24
 558              	.L31:
 559              		.align	2
 560              	.L30:
 561 01c0 67666666 		.word	1717986919
 562 01c4 00000000 		.word	.LANCHOR0
 563 01c8 00080240 		.word	1073874944
ARM GAS  C:\Users\86158\AppData\Local\Temp\cc2g9Wou.s 			page 17


 564 01cc 00100240 		.word	1073876992
 565 01d0 00040240 		.word	1073873920
 566 01d4 00000000 		.word	.LANCHOR1
 567 01d8 00000000 		.word	.LANCHOR2
 568 01dc 000C0240 		.word	1073875968
 569 01e0 00000000 		.word	.LANCHOR3
 570              		.cfi_endproc
 571              	.LFE237:
 573              		.section	.text.rtc_sda_h,"ax",%progbits
 574              		.align	1
 575              		.global	rtc_sda_h
 576              		.syntax unified
 577              		.thumb
 578              		.thumb_func
 580              	rtc_sda_h:
 581              	.LFB238:
 142:Drivers/User_Driver/Src/rtc_i2c.c **** 	/*user code*/
 582              		.loc 1 142 1 is_stmt 1 view -0
 583              		.cfi_startproc
 584              		@ args = 0, pretend = 0, frame = 0
 585              		@ frame_needed = 0, uses_anonymous_args = 0
 586 0000 08B5     		push	{r3, lr}
 587              	.LCFI9:
 588              		.cfi_def_cfa_offset 8
 589              		.cfi_offset 3, -8
 590              		.cfi_offset 14, -4
 144:Drivers/User_Driver/Src/rtc_i2c.c **** 		HAL_GPIO_WritePin(g_i2c.busSdaOut, g_i2c.pinSdaOut, GPIO_PIN_SET);
 591              		.loc 1 144 2 view .LVU169
 144:Drivers/User_Driver/Src/rtc_i2c.c **** 		HAL_GPIO_WritePin(g_i2c.busSdaOut, g_i2c.pinSdaOut, GPIO_PIN_SET);
 592              		.loc 1 144 14 is_stmt 0 view .LVU170
 593 0002 094B     		ldr	r3, .L37
 594 0004 1B78     		ldrb	r3, [r3]	@ zero_extendqisi2
 144:Drivers/User_Driver/Src/rtc_i2c.c **** 		HAL_GPIO_WritePin(g_i2c.busSdaOut, g_i2c.pinSdaOut, GPIO_PIN_SET);
 595              		.loc 1 144 5 view .LVU171
 596 0006 022B     		cmp	r3, #2
 597 0008 06D0     		beq	.L36
 147:Drivers/User_Driver/Src/rtc_i2c.c **** 	}
 598              		.loc 1 147 3 is_stmt 1 view .LVU172
 599 000a 084B     		ldr	r3, .L37+4
 600 000c 0022     		movs	r2, #0
 601 000e 9989     		ldrh	r1, [r3, #12]
 602 0010 9868     		ldr	r0, [r3, #8]
 603 0012 FFF7FEFF 		bl	HAL_GPIO_WritePin
 604              	.LVL47:
 605              	.L32:
 149:Drivers/User_Driver/Src/rtc_i2c.c **** 
 606              		.loc 1 149 1 is_stmt 0 view .LVU173
 607 0016 08BD     		pop	{r3, pc}
 608              	.L36:
 145:Drivers/User_Driver/Src/rtc_i2c.c **** 	} else {
 609              		.loc 1 145 3 is_stmt 1 view .LVU174
 610 0018 044B     		ldr	r3, .L37+4
 611 001a 0122     		movs	r2, #1
 612 001c 9989     		ldrh	r1, [r3, #12]
 613 001e 9868     		ldr	r0, [r3, #8]
 614 0020 FFF7FEFF 		bl	HAL_GPIO_WritePin
 615              	.LVL48:
ARM GAS  C:\Users\86158\AppData\Local\Temp\cc2g9Wou.s 			page 18


 616 0024 F7E7     		b	.L32
 617              	.L38:
 618 0026 00BF     		.align	2
 619              	.L37:
 620 0028 00000000 		.word	.LANCHOR1
 621 002c 00000000 		.word	.LANCHOR0
 622              		.cfi_endproc
 623              	.LFE238:
 625              		.section	.text.rtc_sda_l,"ax",%progbits
 626              		.align	1
 627              		.global	rtc_sda_l
 628              		.syntax unified
 629              		.thumb
 630              		.thumb_func
 632              	rtc_sda_l:
 633              	.LFB239:
 156:Drivers/User_Driver/Src/rtc_i2c.c **** 	/*user code*/
 634              		.loc 1 156 1 view -0
 635              		.cfi_startproc
 636              		@ args = 0, pretend = 0, frame = 0
 637              		@ frame_needed = 0, uses_anonymous_args = 0
 638 0000 08B5     		push	{r3, lr}
 639              	.LCFI10:
 640              		.cfi_def_cfa_offset 8
 641              		.cfi_offset 3, -8
 642              		.cfi_offset 14, -4
 158:Drivers/User_Driver/Src/rtc_i2c.c **** 		HAL_GPIO_WritePin(g_i2c.busSdaOut, g_i2c.pinSdaOut, GPIO_PIN_RESET);
 643              		.loc 1 158 2 view .LVU176
 158:Drivers/User_Driver/Src/rtc_i2c.c **** 		HAL_GPIO_WritePin(g_i2c.busSdaOut, g_i2c.pinSdaOut, GPIO_PIN_RESET);
 644              		.loc 1 158 14 is_stmt 0 view .LVU177
 645 0002 094B     		ldr	r3, .L44
 646 0004 1B78     		ldrb	r3, [r3]	@ zero_extendqisi2
 158:Drivers/User_Driver/Src/rtc_i2c.c **** 		HAL_GPIO_WritePin(g_i2c.busSdaOut, g_i2c.pinSdaOut, GPIO_PIN_RESET);
 647              		.loc 1 158 5 view .LVU178
 648 0006 022B     		cmp	r3, #2
 649 0008 06D0     		beq	.L43
 161:Drivers/User_Driver/Src/rtc_i2c.c **** 	}
 650              		.loc 1 161 3 is_stmt 1 view .LVU179
 651 000a 084B     		ldr	r3, .L44+4
 652 000c 0122     		movs	r2, #1
 653 000e 9989     		ldrh	r1, [r3, #12]
 654 0010 9868     		ldr	r0, [r3, #8]
 655 0012 FFF7FEFF 		bl	HAL_GPIO_WritePin
 656              	.LVL49:
 657              	.L39:
 163:Drivers/User_Driver/Src/rtc_i2c.c **** 
 658              		.loc 1 163 1 is_stmt 0 view .LVU180
 659 0016 08BD     		pop	{r3, pc}
 660              	.L43:
 159:Drivers/User_Driver/Src/rtc_i2c.c **** 	} else {
 661              		.loc 1 159 3 is_stmt 1 view .LVU181
 662 0018 044B     		ldr	r3, .L44+4
 663 001a 0022     		movs	r2, #0
 664 001c 9989     		ldrh	r1, [r3, #12]
 665 001e 9868     		ldr	r0, [r3, #8]
 666 0020 FFF7FEFF 		bl	HAL_GPIO_WritePin
 667              	.LVL50:
ARM GAS  C:\Users\86158\AppData\Local\Temp\cc2g9Wou.s 			page 19


 668 0024 F7E7     		b	.L39
 669              	.L45:
 670 0026 00BF     		.align	2
 671              	.L44:
 672 0028 00000000 		.word	.LANCHOR1
 673 002c 00000000 		.word	.LANCHOR0
 674              		.cfi_endproc
 675              	.LFE239:
 677              		.section	.text.rtc_scl_h,"ax",%progbits
 678              		.align	1
 679              		.global	rtc_scl_h
 680              		.syntax unified
 681              		.thumb
 682              		.thumb_func
 684              	rtc_scl_h:
 685              	.LFB240:
 170:Drivers/User_Driver/Src/rtc_i2c.c **** 	/*user code*/
 686              		.loc 1 170 1 view -0
 687              		.cfi_startproc
 688              		@ args = 0, pretend = 0, frame = 0
 689              		@ frame_needed = 0, uses_anonymous_args = 0
 690 0000 08B5     		push	{r3, lr}
 691              	.LCFI11:
 692              		.cfi_def_cfa_offset 8
 693              		.cfi_offset 3, -8
 694              		.cfi_offset 14, -4
 172:Drivers/User_Driver/Src/rtc_i2c.c **** }
 695              		.loc 1 172 5 view .LVU183
 696 0002 034B     		ldr	r3, .L48
 697 0004 0122     		movs	r2, #1
 698 0006 998A     		ldrh	r1, [r3, #20]
 699 0008 1869     		ldr	r0, [r3, #16]
 700 000a FFF7FEFF 		bl	HAL_GPIO_WritePin
 701              	.LVL51:
 173:Drivers/User_Driver/Src/rtc_i2c.c **** 
 702              		.loc 1 173 1 is_stmt 0 view .LVU184
 703 000e 08BD     		pop	{r3, pc}
 704              	.L49:
 705              		.align	2
 706              	.L48:
 707 0010 00000000 		.word	.LANCHOR0
 708              		.cfi_endproc
 709              	.LFE240:
 711              		.section	.text.rtc_scl_l,"ax",%progbits
 712              		.align	1
 713              		.global	rtc_scl_l
 714              		.syntax unified
 715              		.thumb
 716              		.thumb_func
 718              	rtc_scl_l:
 719              	.LFB241:
 180:Drivers/User_Driver/Src/rtc_i2c.c **** 	/*user code*/
 720              		.loc 1 180 1 is_stmt 1 view -0
 721              		.cfi_startproc
 722              		@ args = 0, pretend = 0, frame = 0
 723              		@ frame_needed = 0, uses_anonymous_args = 0
 724 0000 08B5     		push	{r3, lr}
ARM GAS  C:\Users\86158\AppData\Local\Temp\cc2g9Wou.s 			page 20


 725              	.LCFI12:
 726              		.cfi_def_cfa_offset 8
 727              		.cfi_offset 3, -8
 728              		.cfi_offset 14, -4
 182:Drivers/User_Driver/Src/rtc_i2c.c **** }
 729              		.loc 1 182 5 view .LVU186
 730 0002 034B     		ldr	r3, .L52
 731 0004 0022     		movs	r2, #0
 732 0006 998A     		ldrh	r1, [r3, #20]
 733 0008 1869     		ldr	r0, [r3, #16]
 734 000a FFF7FEFF 		bl	HAL_GPIO_WritePin
 735              	.LVL52:
 183:Drivers/User_Driver/Src/rtc_i2c.c **** 
 736              		.loc 1 183 1 is_stmt 0 view .LVU187
 737 000e 08BD     		pop	{r3, pc}
 738              	.L53:
 739              		.align	2
 740              	.L52:
 741 0010 00000000 		.word	.LANCHOR0
 742              		.cfi_endproc
 743              	.LFE241:
 745              		.section	.text.rtc_start,"ax",%progbits
 746              		.align	1
 747              		.global	rtc_start
 748              		.syntax unified
 749              		.thumb
 750              		.thumb_func
 752              	rtc_start:
 753              	.LFB247:
 193:Drivers/User_Driver/Src/rtc_i2c.c **** 
 194:Drivers/User_Driver/Src/rtc_i2c.c **** /**
 195:Drivers/User_Driver/Src/rtc_i2c.c ****  * @brief When read data, need to set sda as in
 196:Drivers/User_Driver/Src/rtc_i2c.c ****  * 
 197:Drivers/User_Driver/Src/rtc_i2c.c ****  */
 198:Drivers/User_Driver/Src/rtc_i2c.c **** static inline void rtc_sda_in(void)
 199:Drivers/User_Driver/Src/rtc_i2c.c **** {
 200:Drivers/User_Driver/Src/rtc_i2c.c **** 	/*user code */
 201:Drivers/User_Driver/Src/rtc_i2c.c ****   	GPIO_InitTypeDef GPIO_InitStruct = {0};
 202:Drivers/User_Driver/Src/rtc_i2c.c **** 	GPIO_InitStruct.Pin = g_i2c.pinSdaIn;
 203:Drivers/User_Driver/Src/rtc_i2c.c **** 	GPIO_InitStruct.Mode = GPIO_MODE_INPUT;
 204:Drivers/User_Driver/Src/rtc_i2c.c **** 	GPIO_InitStruct.Pull = GPIO_NOPULL;
 205:Drivers/User_Driver/Src/rtc_i2c.c **** 	GPIO_InitStruct.Speed = GPIO_SPEED_FREQ_HIGH;
 206:Drivers/User_Driver/Src/rtc_i2c.c **** 	HAL_GPIO_Init(g_i2c.busSdaIn, &GPIO_InitStruct);
 207:Drivers/User_Driver/Src/rtc_i2c.c **** }
 208:Drivers/User_Driver/Src/rtc_i2c.c **** 
 209:Drivers/User_Driver/Src/rtc_i2c.c **** /**
 210:Drivers/User_Driver/Src/rtc_i2c.c ****  * @brief When send data, need to set sda as out
 211:Drivers/User_Driver/Src/rtc_i2c.c ****  * 
 212:Drivers/User_Driver/Src/rtc_i2c.c ****  */
 213:Drivers/User_Driver/Src/rtc_i2c.c **** static inline void rtc_sda_out(void)
 214:Drivers/User_Driver/Src/rtc_i2c.c **** {
 215:Drivers/User_Driver/Src/rtc_i2c.c **** 	/*user code */
 216:Drivers/User_Driver/Src/rtc_i2c.c ****   	GPIO_InitTypeDef GPIO_InitStruct = {0};
 217:Drivers/User_Driver/Src/rtc_i2c.c **** 	GPIO_InitStruct.Pin = g_i2c.pinSdaOut;
 218:Drivers/User_Driver/Src/rtc_i2c.c **** 	GPIO_InitStruct.Mode = GPIO_MODE_OUTPUT_OD;
 219:Drivers/User_Driver/Src/rtc_i2c.c **** 	GPIO_InitStruct.Pull = GPIO_NOPULL;
 220:Drivers/User_Driver/Src/rtc_i2c.c **** 	GPIO_InitStruct.Speed = GPIO_SPEED_FREQ_LOW;
ARM GAS  C:\Users\86158\AppData\Local\Temp\cc2g9Wou.s 			page 21


 221:Drivers/User_Driver/Src/rtc_i2c.c **** 	HAL_GPIO_Init(g_i2c.busSdaOut, &GPIO_InitStruct);
 222:Drivers/User_Driver/Src/rtc_i2c.c **** }
 223:Drivers/User_Driver/Src/rtc_i2c.c **** 
 224:Drivers/User_Driver/Src/rtc_i2c.c **** /**
 225:Drivers/User_Driver/Src/rtc_i2c.c ****  * @brief i2c wiat
 226:Drivers/User_Driver/Src/rtc_i2c.c ****  * 
 227:Drivers/User_Driver/Src/rtc_i2c.c ****  */
 228:Drivers/User_Driver/Src/rtc_i2c.c **** static inline void rtc_Wait(void)
 229:Drivers/User_Driver/Src/rtc_i2c.c **** {	
 230:Drivers/User_Driver/Src/rtc_i2c.c **** 	int i = soft_rtc_delay;
 231:Drivers/User_Driver/Src/rtc_i2c.c **** 	while (i--);
 232:Drivers/User_Driver/Src/rtc_i2c.c **** }
 233:Drivers/User_Driver/Src/rtc_i2c.c **** /**
 234:Drivers/User_Driver/Src/rtc_i2c.c ****  * @brief i2c wiat
 235:Drivers/User_Driver/Src/rtc_i2c.c ****  * 
 236:Drivers/User_Driver/Src/rtc_i2c.c ****  */
 237:Drivers/User_Driver/Src/rtc_i2c.c **** static inline void rtc_Wait_half(void)
 238:Drivers/User_Driver/Src/rtc_i2c.c **** {	
 239:Drivers/User_Driver/Src/rtc_i2c.c **** 	int i = soft_rtc_delay / 2;
 240:Drivers/User_Driver/Src/rtc_i2c.c **** 	while (i--);
 241:Drivers/User_Driver/Src/rtc_i2c.c **** }
 242:Drivers/User_Driver/Src/rtc_i2c.c **** 
 243:Drivers/User_Driver/Src/rtc_i2c.c **** /**
 244:Drivers/User_Driver/Src/rtc_i2c.c ****  * @brief Generate an i2c strat signal
 245:Drivers/User_Driver/Src/rtc_i2c.c ****  * 
 246:Drivers/User_Driver/Src/rtc_i2c.c ****  */
 247:Drivers/User_Driver/Src/rtc_i2c.c **** i2c_exit_code_e rtc_start(void)
 248:Drivers/User_Driver/Src/rtc_i2c.c **** {
 754              		.loc 1 248 1 is_stmt 1 view -0
 755              		.cfi_startproc
 756              		@ args = 0, pretend = 0, frame = 24
 757              		@ frame_needed = 0, uses_anonymous_args = 0
 758 0000 00B5     		push	{lr}
 759              	.LCFI13:
 760              		.cfi_def_cfa_offset 4
 761              		.cfi_offset 14, -4
 762 0002 87B0     		sub	sp, sp, #28
 763              	.LCFI14:
 764              		.cfi_def_cfa_offset 32
 249:Drivers/User_Driver/Src/rtc_i2c.c **** 	rtc_sda_out();
 765              		.loc 1 249 2 view .LVU189
 766              	.LBB64:
 767              	.LBI64:
 213:Drivers/User_Driver/Src/rtc_i2c.c **** {
 768              		.loc 1 213 20 view .LVU190
 769              	.LBB65:
 216:Drivers/User_Driver/Src/rtc_i2c.c **** 	GPIO_InitStruct.Pin = g_i2c.pinSdaOut;
 770              		.loc 1 216 4 view .LVU191
 216:Drivers/User_Driver/Src/rtc_i2c.c **** 	GPIO_InitStruct.Pin = g_i2c.pinSdaOut;
 771              		.loc 1 216 21 is_stmt 0 view .LVU192
 772 0004 0023     		movs	r3, #0
 773 0006 0193     		str	r3, [sp, #4]
 774 0008 0293     		str	r3, [sp, #8]
 775 000a 0393     		str	r3, [sp, #12]
 776 000c 0493     		str	r3, [sp, #16]
 777 000e 0593     		str	r3, [sp, #20]
 217:Drivers/User_Driver/Src/rtc_i2c.c **** 	GPIO_InitStruct.Mode = GPIO_MODE_OUTPUT_OD;
ARM GAS  C:\Users\86158\AppData\Local\Temp\cc2g9Wou.s 			page 22


 778              		.loc 1 217 2 is_stmt 1 view .LVU193
 217:Drivers/User_Driver/Src/rtc_i2c.c **** 	GPIO_InitStruct.Mode = GPIO_MODE_OUTPUT_OD;
 779              		.loc 1 217 29 is_stmt 0 view .LVU194
 780 0010 154B     		ldr	r3, .L60
 781 0012 9A89     		ldrh	r2, [r3, #12]
 217:Drivers/User_Driver/Src/rtc_i2c.c **** 	GPIO_InitStruct.Mode = GPIO_MODE_OUTPUT_OD;
 782              		.loc 1 217 22 view .LVU195
 783 0014 0192     		str	r2, [sp, #4]
 218:Drivers/User_Driver/Src/rtc_i2c.c **** 	GPIO_InitStruct.Pull = GPIO_NOPULL;
 784              		.loc 1 218 2 is_stmt 1 view .LVU196
 218:Drivers/User_Driver/Src/rtc_i2c.c **** 	GPIO_InitStruct.Pull = GPIO_NOPULL;
 785              		.loc 1 218 23 is_stmt 0 view .LVU197
 786 0016 1122     		movs	r2, #17
 787 0018 0292     		str	r2, [sp, #8]
 219:Drivers/User_Driver/Src/rtc_i2c.c **** 	GPIO_InitStruct.Speed = GPIO_SPEED_FREQ_LOW;
 788              		.loc 1 219 2 is_stmt 1 view .LVU198
 220:Drivers/User_Driver/Src/rtc_i2c.c **** 	HAL_GPIO_Init(g_i2c.busSdaOut, &GPIO_InitStruct);
 789              		.loc 1 220 2 view .LVU199
 221:Drivers/User_Driver/Src/rtc_i2c.c **** }
 790              		.loc 1 221 2 view .LVU200
 791 001a 01A9     		add	r1, sp, #4
 792 001c 9868     		ldr	r0, [r3, #8]
 793 001e FFF7FEFF 		bl	HAL_GPIO_Init
 794              	.LVL53:
 795              	.LBE65:
 796              	.LBE64:
 250:Drivers/User_Driver/Src/rtc_i2c.c **** 	rtc_sda_h();
 797              		.loc 1 250 2 view .LVU201
 798 0022 FFF7FEFF 		bl	rtc_sda_h
 799              	.LVL54:
 251:Drivers/User_Driver/Src/rtc_i2c.c **** 	rtc_scl_h();
 800              		.loc 1 251 2 view .LVU202
 801 0026 FFF7FEFF 		bl	rtc_scl_h
 802              	.LVL55:
 252:Drivers/User_Driver/Src/rtc_i2c.c **** 	rtc_Wait();
 803              		.loc 1 252 2 view .LVU203
 804              	.LBB66:
 805              	.LBI66:
 228:Drivers/User_Driver/Src/rtc_i2c.c **** {	
 806              		.loc 1 228 20 view .LVU204
 807              	.LBB67:
 230:Drivers/User_Driver/Src/rtc_i2c.c **** 	while (i--);
 808              		.loc 1 230 2 view .LVU205
 230:Drivers/User_Driver/Src/rtc_i2c.c **** 	while (i--);
 809              		.loc 1 230 6 is_stmt 0 view .LVU206
 810 002a 104B     		ldr	r3, .L60+4
 811 002c 1B88     		ldrh	r3, [r3]
 812              	.LVL56:
 231:Drivers/User_Driver/Src/rtc_i2c.c **** }
 813              		.loc 1 231 2 is_stmt 1 view .LVU207
 814              	.L55:
 231:Drivers/User_Driver/Src/rtc_i2c.c **** }
 815              		.loc 1 231 13 view .LVU208
 231:Drivers/User_Driver/Src/rtc_i2c.c **** }
 816              		.loc 1 231 8 view .LVU209
 817 002e 1A46     		mov	r2, r3
 231:Drivers/User_Driver/Src/rtc_i2c.c **** }
ARM GAS  C:\Users\86158\AppData\Local\Temp\cc2g9Wou.s 			page 23


 818              		.loc 1 231 10 is_stmt 0 view .LVU210
 819 0030 013B     		subs	r3, r3, #1
 820              	.LVL57:
 231:Drivers/User_Driver/Src/rtc_i2c.c **** }
 821              		.loc 1 231 8 view .LVU211
 822 0032 002A     		cmp	r2, #0
 823 0034 FBD1     		bne	.L55
 824              	.LVL58:
 231:Drivers/User_Driver/Src/rtc_i2c.c **** }
 825              		.loc 1 231 8 view .LVU212
 826              	.LBE67:
 827              	.LBE66:
 253:Drivers/User_Driver/Src/rtc_i2c.c **** 
 254:Drivers/User_Driver/Src/rtc_i2c.c **** 	rtc_sda_l();
 828              		.loc 1 254 2 is_stmt 1 view .LVU213
 829 0036 FFF7FEFF 		bl	rtc_sda_l
 830              	.LVL59:
 255:Drivers/User_Driver/Src/rtc_i2c.c **** 	rtc_Wait();
 831              		.loc 1 255 2 view .LVU214
 832              	.LBB68:
 833              	.LBI68:
 228:Drivers/User_Driver/Src/rtc_i2c.c **** {	
 834              		.loc 1 228 20 view .LVU215
 835              	.LBB69:
 230:Drivers/User_Driver/Src/rtc_i2c.c **** 	while (i--);
 836              		.loc 1 230 2 view .LVU216
 230:Drivers/User_Driver/Src/rtc_i2c.c **** 	while (i--);
 837              		.loc 1 230 6 is_stmt 0 view .LVU217
 838 003a 0C4B     		ldr	r3, .L60+4
 839 003c 1B88     		ldrh	r3, [r3]
 840              	.LVL60:
 231:Drivers/User_Driver/Src/rtc_i2c.c **** }
 841              		.loc 1 231 2 is_stmt 1 view .LVU218
 230:Drivers/User_Driver/Src/rtc_i2c.c **** 	while (i--);
 842              		.loc 1 230 6 is_stmt 0 view .LVU219
 843 003e 1A46     		mov	r2, r3
 844              	.LVL61:
 845              	.L56:
 231:Drivers/User_Driver/Src/rtc_i2c.c **** }
 846              		.loc 1 231 13 is_stmt 1 view .LVU220
 231:Drivers/User_Driver/Src/rtc_i2c.c **** }
 847              		.loc 1 231 8 view .LVU221
 848 0040 1146     		mov	r1, r2
 231:Drivers/User_Driver/Src/rtc_i2c.c **** }
 849              		.loc 1 231 10 is_stmt 0 view .LVU222
 850 0042 013A     		subs	r2, r2, #1
 851              	.LVL62:
 231:Drivers/User_Driver/Src/rtc_i2c.c **** }
 852              		.loc 1 231 8 view .LVU223
 853 0044 0029     		cmp	r1, #0
 854 0046 FBD1     		bne	.L56
 855              	.LVL63:
 856              	.L57:
 231:Drivers/User_Driver/Src/rtc_i2c.c **** }
 857              		.loc 1 231 8 view .LVU224
 858              	.LBE69:
 859              	.LBE68:
ARM GAS  C:\Users\86158\AppData\Local\Temp\cc2g9Wou.s 			page 24


 860              	.LBB70:
 861              	.LBB71:
 231:Drivers/User_Driver/Src/rtc_i2c.c **** }
 862              		.loc 1 231 13 is_stmt 1 view .LVU225
 231:Drivers/User_Driver/Src/rtc_i2c.c **** }
 863              		.loc 1 231 8 view .LVU226
 864 0048 1A46     		mov	r2, r3
 231:Drivers/User_Driver/Src/rtc_i2c.c **** }
 865              		.loc 1 231 10 is_stmt 0 view .LVU227
 866 004a 013B     		subs	r3, r3, #1
 867              	.LVL64:
 231:Drivers/User_Driver/Src/rtc_i2c.c **** }
 868              		.loc 1 231 8 view .LVU228
 869 004c 002A     		cmp	r2, #0
 870 004e FBD1     		bne	.L57
 871              	.LVL65:
 231:Drivers/User_Driver/Src/rtc_i2c.c **** }
 872              		.loc 1 231 8 view .LVU229
 873              	.LBE71:
 874              	.LBE70:
 256:Drivers/User_Driver/Src/rtc_i2c.c **** 	rtc_Wait();
 257:Drivers/User_Driver/Src/rtc_i2c.c **** 	rtc_scl_l();
 875              		.loc 1 257 2 is_stmt 1 view .LVU230
 876 0050 FFF7FEFF 		bl	rtc_scl_l
 877              	.LVL66:
 258:Drivers/User_Driver/Src/rtc_i2c.c **** 	rtc_Wait();
 878              		.loc 1 258 2 view .LVU231
 879              	.LBB72:
 880              	.LBI72:
 228:Drivers/User_Driver/Src/rtc_i2c.c **** {	
 881              		.loc 1 228 20 view .LVU232
 882              	.LBB73:
 230:Drivers/User_Driver/Src/rtc_i2c.c **** 	while (i--);
 883              		.loc 1 230 2 view .LVU233
 230:Drivers/User_Driver/Src/rtc_i2c.c **** 	while (i--);
 884              		.loc 1 230 6 is_stmt 0 view .LVU234
 885 0054 054B     		ldr	r3, .L60+4
 886 0056 1B88     		ldrh	r3, [r3]
 887              	.LVL67:
 231:Drivers/User_Driver/Src/rtc_i2c.c **** }
 888              		.loc 1 231 2 is_stmt 1 view .LVU235
 889              	.L58:
 231:Drivers/User_Driver/Src/rtc_i2c.c **** }
 890              		.loc 1 231 13 view .LVU236
 231:Drivers/User_Driver/Src/rtc_i2c.c **** }
 891              		.loc 1 231 8 view .LVU237
 892 0058 1A46     		mov	r2, r3
 231:Drivers/User_Driver/Src/rtc_i2c.c **** }
 893              		.loc 1 231 10 is_stmt 0 view .LVU238
 894 005a 013B     		subs	r3, r3, #1
 895              	.LVL68:
 231:Drivers/User_Driver/Src/rtc_i2c.c **** }
 896              		.loc 1 231 8 view .LVU239
 897 005c 002A     		cmp	r2, #0
 898 005e FBD1     		bne	.L58
 899              	.LVL69:
 231:Drivers/User_Driver/Src/rtc_i2c.c **** }
ARM GAS  C:\Users\86158\AppData\Local\Temp\cc2g9Wou.s 			page 25


 900              		.loc 1 231 8 view .LVU240
 901              	.LBE73:
 902              	.LBE72:
 259:Drivers/User_Driver/Src/rtc_i2c.c **** 	return I2C_OK;
 903              		.loc 1 259 2 is_stmt 1 view .LVU241
 260:Drivers/User_Driver/Src/rtc_i2c.c **** }
 904              		.loc 1 260 1 is_stmt 0 view .LVU242
 905 0060 0020     		movs	r0, #0
 906 0062 07B0     		add	sp, sp, #28
 907              	.LCFI15:
 908              		.cfi_def_cfa_offset 4
 909              		@ sp needed
 910 0064 5DF804FB 		ldr	pc, [sp], #4
 911              	.L61:
 912              		.align	2
 913              	.L60:
 914 0068 00000000 		.word	.LANCHOR0
 915 006c 00000000 		.word	.LANCHOR2
 916              		.cfi_endproc
 917              	.LFE247:
 919              		.section	.text.rtc_stop,"ax",%progbits
 920              		.align	1
 921              		.global	rtc_stop
 922              		.syntax unified
 923              		.thumb
 924              		.thumb_func
 926              	rtc_stop:
 927              	.LFB248:
 261:Drivers/User_Driver/Src/rtc_i2c.c **** 
 262:Drivers/User_Driver/Src/rtc_i2c.c **** /**
 263:Drivers/User_Driver/Src/rtc_i2c.c ****  * @brief Generate an i2c stop signal
 264:Drivers/User_Driver/Src/rtc_i2c.c ****  * 
 265:Drivers/User_Driver/Src/rtc_i2c.c ****  */
 266:Drivers/User_Driver/Src/rtc_i2c.c **** void rtc_stop(void)
 267:Drivers/User_Driver/Src/rtc_i2c.c **** {
 928              		.loc 1 267 1 is_stmt 1 view -0
 929              		.cfi_startproc
 930              		@ args = 0, pretend = 0, frame = 24
 931              		@ frame_needed = 0, uses_anonymous_args = 0
 932 0000 00B5     		push	{lr}
 933              	.LCFI16:
 934              		.cfi_def_cfa_offset 4
 935              		.cfi_offset 14, -4
 936 0002 87B0     		sub	sp, sp, #28
 937              	.LCFI17:
 938              		.cfi_def_cfa_offset 32
 268:Drivers/User_Driver/Src/rtc_i2c.c **** 	rtc_sda_out();
 939              		.loc 1 268 2 view .LVU244
 940              	.LBB80:
 941              	.LBI80:
 213:Drivers/User_Driver/Src/rtc_i2c.c **** {
 942              		.loc 1 213 20 view .LVU245
 943              	.LBB81:
 216:Drivers/User_Driver/Src/rtc_i2c.c **** 	GPIO_InitStruct.Pin = g_i2c.pinSdaOut;
 944              		.loc 1 216 4 view .LVU246
 216:Drivers/User_Driver/Src/rtc_i2c.c **** 	GPIO_InitStruct.Pin = g_i2c.pinSdaOut;
 945              		.loc 1 216 21 is_stmt 0 view .LVU247
ARM GAS  C:\Users\86158\AppData\Local\Temp\cc2g9Wou.s 			page 26


 946 0004 0023     		movs	r3, #0
 947 0006 0193     		str	r3, [sp, #4]
 948 0008 0293     		str	r3, [sp, #8]
 949 000a 0393     		str	r3, [sp, #12]
 950 000c 0493     		str	r3, [sp, #16]
 951 000e 0593     		str	r3, [sp, #20]
 217:Drivers/User_Driver/Src/rtc_i2c.c **** 	GPIO_InitStruct.Mode = GPIO_MODE_OUTPUT_OD;
 952              		.loc 1 217 2 is_stmt 1 view .LVU248
 217:Drivers/User_Driver/Src/rtc_i2c.c **** 	GPIO_InitStruct.Mode = GPIO_MODE_OUTPUT_OD;
 953              		.loc 1 217 29 is_stmt 0 view .LVU249
 954 0010 0F4B     		ldr	r3, .L66
 955 0012 9A89     		ldrh	r2, [r3, #12]
 217:Drivers/User_Driver/Src/rtc_i2c.c **** 	GPIO_InitStruct.Mode = GPIO_MODE_OUTPUT_OD;
 956              		.loc 1 217 22 view .LVU250
 957 0014 0192     		str	r2, [sp, #4]
 218:Drivers/User_Driver/Src/rtc_i2c.c **** 	GPIO_InitStruct.Pull = GPIO_NOPULL;
 958              		.loc 1 218 2 is_stmt 1 view .LVU251
 218:Drivers/User_Driver/Src/rtc_i2c.c **** 	GPIO_InitStruct.Pull = GPIO_NOPULL;
 959              		.loc 1 218 23 is_stmt 0 view .LVU252
 960 0016 1122     		movs	r2, #17
 961 0018 0292     		str	r2, [sp, #8]
 219:Drivers/User_Driver/Src/rtc_i2c.c **** 	GPIO_InitStruct.Speed = GPIO_SPEED_FREQ_LOW;
 962              		.loc 1 219 2 is_stmt 1 view .LVU253
 220:Drivers/User_Driver/Src/rtc_i2c.c **** 	HAL_GPIO_Init(g_i2c.busSdaOut, &GPIO_InitStruct);
 963              		.loc 1 220 2 view .LVU254
 221:Drivers/User_Driver/Src/rtc_i2c.c **** }
 964              		.loc 1 221 2 view .LVU255
 965 001a 01A9     		add	r1, sp, #4
 966 001c 9868     		ldr	r0, [r3, #8]
 967 001e FFF7FEFF 		bl	HAL_GPIO_Init
 968              	.LVL70:
 969              	.LBE81:
 970              	.LBE80:
 269:Drivers/User_Driver/Src/rtc_i2c.c **** 	rtc_sda_l();
 971              		.loc 1 269 2 view .LVU256
 972 0022 FFF7FEFF 		bl	rtc_sda_l
 973              	.LVL71:
 270:Drivers/User_Driver/Src/rtc_i2c.c **** 	rtc_scl_l();
 974              		.loc 1 270 2 view .LVU257
 975 0026 FFF7FEFF 		bl	rtc_scl_l
 976              	.LVL72:
 271:Drivers/User_Driver/Src/rtc_i2c.c **** 	rtc_Wait();
 977              		.loc 1 271 2 view .LVU258
 978              	.LBB82:
 979              	.LBI82:
 228:Drivers/User_Driver/Src/rtc_i2c.c **** {	
 980              		.loc 1 228 20 view .LVU259
 981              	.LBB83:
 230:Drivers/User_Driver/Src/rtc_i2c.c **** 	while (i--);
 982              		.loc 1 230 2 view .LVU260
 230:Drivers/User_Driver/Src/rtc_i2c.c **** 	while (i--);
 983              		.loc 1 230 6 is_stmt 0 view .LVU261
 984 002a 0A4B     		ldr	r3, .L66+4
 985 002c 1B88     		ldrh	r3, [r3]
 986              	.LVL73:
 231:Drivers/User_Driver/Src/rtc_i2c.c **** }
 987              		.loc 1 231 2 is_stmt 1 view .LVU262
ARM GAS  C:\Users\86158\AppData\Local\Temp\cc2g9Wou.s 			page 27


 988              	.L63:
 231:Drivers/User_Driver/Src/rtc_i2c.c **** }
 989              		.loc 1 231 13 view .LVU263
 231:Drivers/User_Driver/Src/rtc_i2c.c **** }
 990              		.loc 1 231 8 view .LVU264
 991 002e 1A46     		mov	r2, r3
 231:Drivers/User_Driver/Src/rtc_i2c.c **** }
 992              		.loc 1 231 10 is_stmt 0 view .LVU265
 993 0030 013B     		subs	r3, r3, #1
 994              	.LVL74:
 231:Drivers/User_Driver/Src/rtc_i2c.c **** }
 995              		.loc 1 231 8 view .LVU266
 996 0032 002A     		cmp	r2, #0
 997 0034 FBD1     		bne	.L63
 998              	.LVL75:
 231:Drivers/User_Driver/Src/rtc_i2c.c **** }
 999              		.loc 1 231 8 view .LVU267
 1000              	.LBE83:
 1001              	.LBE82:
 272:Drivers/User_Driver/Src/rtc_i2c.c **** 	rtc_scl_h();
 1002              		.loc 1 272 2 is_stmt 1 view .LVU268
 1003 0036 FFF7FEFF 		bl	rtc_scl_h
 1004              	.LVL76:
 273:Drivers/User_Driver/Src/rtc_i2c.c **** 	rtc_Wait();
 1005              		.loc 1 273 2 view .LVU269
 1006              	.LBB84:
 1007              	.LBI84:
 228:Drivers/User_Driver/Src/rtc_i2c.c **** {	
 1008              		.loc 1 228 20 view .LVU270
 1009              	.LBB85:
 230:Drivers/User_Driver/Src/rtc_i2c.c **** 	while (i--);
 1010              		.loc 1 230 2 view .LVU271
 230:Drivers/User_Driver/Src/rtc_i2c.c **** 	while (i--);
 1011              		.loc 1 230 6 is_stmt 0 view .LVU272
 1012 003a 064B     		ldr	r3, .L66+4
 1013 003c 1B88     		ldrh	r3, [r3]
 1014              	.LVL77:
 231:Drivers/User_Driver/Src/rtc_i2c.c **** }
 1015              		.loc 1 231 2 is_stmt 1 view .LVU273
 1016              	.L64:
 231:Drivers/User_Driver/Src/rtc_i2c.c **** }
 1017              		.loc 1 231 13 view .LVU274
 231:Drivers/User_Driver/Src/rtc_i2c.c **** }
 1018              		.loc 1 231 8 view .LVU275
 1019 003e 1A46     		mov	r2, r3
 231:Drivers/User_Driver/Src/rtc_i2c.c **** }
 1020              		.loc 1 231 10 is_stmt 0 view .LVU276
 1021 0040 013B     		subs	r3, r3, #1
 1022              	.LVL78:
 231:Drivers/User_Driver/Src/rtc_i2c.c **** }
 1023              		.loc 1 231 8 view .LVU277
 1024 0042 002A     		cmp	r2, #0
 1025 0044 FBD1     		bne	.L64
 1026              	.LVL79:
 231:Drivers/User_Driver/Src/rtc_i2c.c **** }
 1027              		.loc 1 231 8 view .LVU278
 1028              	.LBE85:
ARM GAS  C:\Users\86158\AppData\Local\Temp\cc2g9Wou.s 			page 28


 1029              	.LBE84:
 274:Drivers/User_Driver/Src/rtc_i2c.c **** 	rtc_sda_h();
 1030              		.loc 1 274 2 is_stmt 1 view .LVU279
 1031 0046 FFF7FEFF 		bl	rtc_sda_h
 1032              	.LVL80:
 275:Drivers/User_Driver/Src/rtc_i2c.c **** }
 1033              		.loc 1 275 1 is_stmt 0 view .LVU280
 1034 004a 07B0     		add	sp, sp, #28
 1035              	.LCFI18:
 1036              		.cfi_def_cfa_offset 4
 1037              		@ sp needed
 1038 004c 5DF804FB 		ldr	pc, [sp], #4
 1039              	.L67:
 1040              		.align	2
 1041              	.L66:
 1042 0050 00000000 		.word	.LANCHOR0
 1043 0054 00000000 		.word	.LANCHOR2
 1044              		.cfi_endproc
 1045              	.LFE248:
 1047              		.section	.text.rtc_ack,"ax",%progbits
 1048              		.align	1
 1049              		.global	rtc_ack
 1050              		.syntax unified
 1051              		.thumb
 1052              		.thumb_func
 1054              	rtc_ack:
 1055              	.LFB249:
 276:Drivers/User_Driver/Src/rtc_i2c.c **** 
 277:Drivers/User_Driver/Src/rtc_i2c.c **** /**
 278:Drivers/User_Driver/Src/rtc_i2c.c ****  * @brief When data is read, the host responds a ack signal
 279:Drivers/User_Driver/Src/rtc_i2c.c ****  * 
 280:Drivers/User_Driver/Src/rtc_i2c.c ****  */
 281:Drivers/User_Driver/Src/rtc_i2c.c **** void rtc_ack(void)
 282:Drivers/User_Driver/Src/rtc_i2c.c **** {	
 1056              		.loc 1 282 1 is_stmt 1 view -0
 1057              		.cfi_startproc
 1058              		@ args = 0, pretend = 0, frame = 0
 1059              		@ frame_needed = 0, uses_anonymous_args = 0
 1060 0000 08B5     		push	{r3, lr}
 1061              	.LCFI19:
 1062              		.cfi_def_cfa_offset 8
 1063              		.cfi_offset 3, -8
 1064              		.cfi_offset 14, -4
 283:Drivers/User_Driver/Src/rtc_i2c.c **** 	rtc_scl_l();
 1065              		.loc 1 283 2 view .LVU282
 1066 0002 FFF7FEFF 		bl	rtc_scl_l
 1067              	.LVL81:
 284:Drivers/User_Driver/Src/rtc_i2c.c **** 	rtc_Wait_half();
 1068              		.loc 1 284 2 view .LVU283
 1069              	.LBB86:
 1070              	.LBI86:
 237:Drivers/User_Driver/Src/rtc_i2c.c **** {	
 1071              		.loc 1 237 20 view .LVU284
 1072              	.LBB87:
 239:Drivers/User_Driver/Src/rtc_i2c.c **** 	while (i--);
 1073              		.loc 1 239 2 view .LVU285
 239:Drivers/User_Driver/Src/rtc_i2c.c **** 	while (i--);
ARM GAS  C:\Users\86158\AppData\Local\Temp\cc2g9Wou.s 			page 29


 1074              		.loc 1 239 25 is_stmt 0 view .LVU286
 1075 0006 104B     		ldr	r3, .L74
 1076 0008 1B88     		ldrh	r3, [r3]
 1077 000a 5B08     		lsrs	r3, r3, #1
 1078              	.LVL82:
 240:Drivers/User_Driver/Src/rtc_i2c.c **** }
 1079              		.loc 1 240 2 is_stmt 1 view .LVU287
 1080              	.L69:
 240:Drivers/User_Driver/Src/rtc_i2c.c **** }
 1081              		.loc 1 240 13 view .LVU288
 240:Drivers/User_Driver/Src/rtc_i2c.c **** }
 1082              		.loc 1 240 8 view .LVU289
 1083 000c 1A46     		mov	r2, r3
 240:Drivers/User_Driver/Src/rtc_i2c.c **** }
 1084              		.loc 1 240 10 is_stmt 0 view .LVU290
 1085 000e 013B     		subs	r3, r3, #1
 1086              	.LVL83:
 240:Drivers/User_Driver/Src/rtc_i2c.c **** }
 1087              		.loc 1 240 8 view .LVU291
 1088 0010 002A     		cmp	r2, #0
 1089 0012 FBD1     		bne	.L69
 1090              	.LVL84:
 240:Drivers/User_Driver/Src/rtc_i2c.c **** }
 1091              		.loc 1 240 8 view .LVU292
 1092              	.LBE87:
 1093              	.LBE86:
 285:Drivers/User_Driver/Src/rtc_i2c.c **** 	rtc_sda_l();
 1094              		.loc 1 285 2 is_stmt 1 view .LVU293
 1095 0014 FFF7FEFF 		bl	rtc_sda_l
 1096              	.LVL85:
 286:Drivers/User_Driver/Src/rtc_i2c.c **** 	rtc_Wait();
 1097              		.loc 1 286 2 view .LVU294
 1098              	.LBB88:
 1099              	.LBI88:
 228:Drivers/User_Driver/Src/rtc_i2c.c **** {	
 1100              		.loc 1 228 20 view .LVU295
 1101              	.LBB89:
 230:Drivers/User_Driver/Src/rtc_i2c.c **** 	while (i--);
 1102              		.loc 1 230 2 view .LVU296
 230:Drivers/User_Driver/Src/rtc_i2c.c **** 	while (i--);
 1103              		.loc 1 230 6 is_stmt 0 view .LVU297
 1104 0018 0B4B     		ldr	r3, .L74
 1105 001a 1B88     		ldrh	r3, [r3]
 1106              	.LVL86:
 231:Drivers/User_Driver/Src/rtc_i2c.c **** }
 1107              		.loc 1 231 2 is_stmt 1 view .LVU298
 1108              	.L70:
 231:Drivers/User_Driver/Src/rtc_i2c.c **** }
 1109              		.loc 1 231 13 view .LVU299
 231:Drivers/User_Driver/Src/rtc_i2c.c **** }
 1110              		.loc 1 231 8 view .LVU300
 1111 001c 1A46     		mov	r2, r3
 231:Drivers/User_Driver/Src/rtc_i2c.c **** }
 1112              		.loc 1 231 10 is_stmt 0 view .LVU301
 1113 001e 013B     		subs	r3, r3, #1
 1114              	.LVL87:
 231:Drivers/User_Driver/Src/rtc_i2c.c **** }
ARM GAS  C:\Users\86158\AppData\Local\Temp\cc2g9Wou.s 			page 30


 1115              		.loc 1 231 8 view .LVU302
 1116 0020 002A     		cmp	r2, #0
 1117 0022 FBD1     		bne	.L70
 1118              	.LVL88:
 231:Drivers/User_Driver/Src/rtc_i2c.c **** }
 1119              		.loc 1 231 8 view .LVU303
 1120              	.LBE89:
 1121              	.LBE88:
 287:Drivers/User_Driver/Src/rtc_i2c.c **** 	rtc_scl_h();
 1122              		.loc 1 287 2 is_stmt 1 view .LVU304
 1123 0024 FFF7FEFF 		bl	rtc_scl_h
 1124              	.LVL89:
 288:Drivers/User_Driver/Src/rtc_i2c.c **** 	rtc_Wait();
 1125              		.loc 1 288 2 view .LVU305
 1126              	.LBB90:
 1127              	.LBI90:
 228:Drivers/User_Driver/Src/rtc_i2c.c **** {	
 1128              		.loc 1 228 20 view .LVU306
 1129              	.LBB91:
 230:Drivers/User_Driver/Src/rtc_i2c.c **** 	while (i--);
 1130              		.loc 1 230 2 view .LVU307
 230:Drivers/User_Driver/Src/rtc_i2c.c **** 	while (i--);
 1131              		.loc 1 230 6 is_stmt 0 view .LVU308
 1132 0028 074B     		ldr	r3, .L74
 1133 002a 1B88     		ldrh	r3, [r3]
 1134              	.LVL90:
 231:Drivers/User_Driver/Src/rtc_i2c.c **** }
 1135              		.loc 1 231 2 is_stmt 1 view .LVU309
 1136              	.L71:
 231:Drivers/User_Driver/Src/rtc_i2c.c **** }
 1137              		.loc 1 231 13 view .LVU310
 231:Drivers/User_Driver/Src/rtc_i2c.c **** }
 1138              		.loc 1 231 8 view .LVU311
 1139 002c 1A46     		mov	r2, r3
 231:Drivers/User_Driver/Src/rtc_i2c.c **** }
 1140              		.loc 1 231 10 is_stmt 0 view .LVU312
 1141 002e 013B     		subs	r3, r3, #1
 1142              	.LVL91:
 231:Drivers/User_Driver/Src/rtc_i2c.c **** }
 1143              		.loc 1 231 8 view .LVU313
 1144 0030 002A     		cmp	r2, #0
 1145 0032 FBD1     		bne	.L71
 1146              	.LVL92:
 231:Drivers/User_Driver/Src/rtc_i2c.c **** }
 1147              		.loc 1 231 8 view .LVU314
 1148              	.LBE91:
 1149              	.LBE90:
 289:Drivers/User_Driver/Src/rtc_i2c.c **** 	rtc_scl_l();
 1150              		.loc 1 289 2 is_stmt 1 view .LVU315
 1151 0034 FFF7FEFF 		bl	rtc_scl_l
 1152              	.LVL93:
 290:Drivers/User_Driver/Src/rtc_i2c.c **** 	rtc_Wait();
 1153              		.loc 1 290 2 view .LVU316
 1154              	.LBB92:
 1155              	.LBI92:
 228:Drivers/User_Driver/Src/rtc_i2c.c **** {	
 1156              		.loc 1 228 20 view .LVU317
ARM GAS  C:\Users\86158\AppData\Local\Temp\cc2g9Wou.s 			page 31


 1157              	.LBB93:
 230:Drivers/User_Driver/Src/rtc_i2c.c **** 	while (i--);
 1158              		.loc 1 230 2 view .LVU318
 230:Drivers/User_Driver/Src/rtc_i2c.c **** 	while (i--);
 1159              		.loc 1 230 6 is_stmt 0 view .LVU319
 1160 0038 034B     		ldr	r3, .L74
 1161 003a 1B88     		ldrh	r3, [r3]
 1162              	.LVL94:
 231:Drivers/User_Driver/Src/rtc_i2c.c **** }
 1163              		.loc 1 231 2 is_stmt 1 view .LVU320
 1164              	.L72:
 231:Drivers/User_Driver/Src/rtc_i2c.c **** }
 1165              		.loc 1 231 13 view .LVU321
 231:Drivers/User_Driver/Src/rtc_i2c.c **** }
 1166              		.loc 1 231 8 view .LVU322
 1167 003c 1A46     		mov	r2, r3
 231:Drivers/User_Driver/Src/rtc_i2c.c **** }
 1168              		.loc 1 231 10 is_stmt 0 view .LVU323
 1169 003e 013B     		subs	r3, r3, #1
 1170              	.LVL95:
 231:Drivers/User_Driver/Src/rtc_i2c.c **** }
 1171              		.loc 1 231 8 view .LVU324
 1172 0040 002A     		cmp	r2, #0
 1173 0042 FBD1     		bne	.L72
 1174              	.LBE93:
 1175              	.LBE92:
 291:Drivers/User_Driver/Src/rtc_i2c.c **** }
 1176              		.loc 1 291 1 view .LVU325
 1177 0044 08BD     		pop	{r3, pc}
 1178              	.LVL96:
 1179              	.L75:
 1180              		.loc 1 291 1 view .LVU326
 1181 0046 00BF     		.align	2
 1182              	.L74:
 1183 0048 00000000 		.word	.LANCHOR2
 1184              		.cfi_endproc
 1185              	.LFE249:
 1187              		.section	.text.rtc_nack,"ax",%progbits
 1188              		.align	1
 1189              		.global	rtc_nack
 1190              		.syntax unified
 1191              		.thumb
 1192              		.thumb_func
 1194              	rtc_nack:
 1195              	.LFB250:
 292:Drivers/User_Driver/Src/rtc_i2c.c **** 
 293:Drivers/User_Driver/Src/rtc_i2c.c **** /**
 294:Drivers/User_Driver/Src/rtc_i2c.c ****  * @brief when data is read, the host responds a nack signal
 295:Drivers/User_Driver/Src/rtc_i2c.c ****  * 
 296:Drivers/User_Driver/Src/rtc_i2c.c ****  */
 297:Drivers/User_Driver/Src/rtc_i2c.c **** void rtc_nack(void)
 298:Drivers/User_Driver/Src/rtc_i2c.c **** {	
 1196              		.loc 1 298 1 is_stmt 1 view -0
 1197              		.cfi_startproc
 1198              		@ args = 0, pretend = 0, frame = 0
 1199              		@ frame_needed = 0, uses_anonymous_args = 0
 1200 0000 08B5     		push	{r3, lr}
ARM GAS  C:\Users\86158\AppData\Local\Temp\cc2g9Wou.s 			page 32


 1201              	.LCFI20:
 1202              		.cfi_def_cfa_offset 8
 1203              		.cfi_offset 3, -8
 1204              		.cfi_offset 14, -4
 299:Drivers/User_Driver/Src/rtc_i2c.c **** 	rtc_sda_h();
 1205              		.loc 1 299 2 view .LVU328
 1206 0002 FFF7FEFF 		bl	rtc_sda_h
 1207              	.LVL97:
 300:Drivers/User_Driver/Src/rtc_i2c.c **** 	rtc_scl_l();
 1208              		.loc 1 300 2 view .LVU329
 1209 0006 FFF7FEFF 		bl	rtc_scl_l
 1210              	.LVL98:
 301:Drivers/User_Driver/Src/rtc_i2c.c **** 	rtc_Wait();
 1211              		.loc 1 301 2 view .LVU330
 1212              	.LBB94:
 1213              	.LBI94:
 228:Drivers/User_Driver/Src/rtc_i2c.c **** {	
 1214              		.loc 1 228 20 view .LVU331
 1215              	.LBB95:
 230:Drivers/User_Driver/Src/rtc_i2c.c **** 	while (i--);
 1216              		.loc 1 230 2 view .LVU332
 230:Drivers/User_Driver/Src/rtc_i2c.c **** 	while (i--);
 1217              		.loc 1 230 6 is_stmt 0 view .LVU333
 1218 000a 084B     		ldr	r3, .L80
 1219 000c 1B88     		ldrh	r3, [r3]
 1220              	.LVL99:
 231:Drivers/User_Driver/Src/rtc_i2c.c **** }
 1221              		.loc 1 231 2 is_stmt 1 view .LVU334
 1222              	.L77:
 231:Drivers/User_Driver/Src/rtc_i2c.c **** }
 1223              		.loc 1 231 13 view .LVU335
 231:Drivers/User_Driver/Src/rtc_i2c.c **** }
 1224              		.loc 1 231 8 view .LVU336
 1225 000e 1A46     		mov	r2, r3
 231:Drivers/User_Driver/Src/rtc_i2c.c **** }
 1226              		.loc 1 231 10 is_stmt 0 view .LVU337
 1227 0010 013B     		subs	r3, r3, #1
 1228              	.LVL100:
 231:Drivers/User_Driver/Src/rtc_i2c.c **** }
 1229              		.loc 1 231 8 view .LVU338
 1230 0012 002A     		cmp	r2, #0
 1231 0014 FBD1     		bne	.L77
 1232              	.LVL101:
 231:Drivers/User_Driver/Src/rtc_i2c.c **** }
 1233              		.loc 1 231 8 view .LVU339
 1234              	.LBE95:
 1235              	.LBE94:
 302:Drivers/User_Driver/Src/rtc_i2c.c **** 	rtc_scl_h();
 1236              		.loc 1 302 2 is_stmt 1 view .LVU340
 1237 0016 FFF7FEFF 		bl	rtc_scl_h
 1238              	.LVL102:
 303:Drivers/User_Driver/Src/rtc_i2c.c **** 	rtc_Wait();
 1239              		.loc 1 303 2 view .LVU341
 1240              	.LBB96:
 1241              	.LBI96:
 228:Drivers/User_Driver/Src/rtc_i2c.c **** {	
 1242              		.loc 1 228 20 view .LVU342
ARM GAS  C:\Users\86158\AppData\Local\Temp\cc2g9Wou.s 			page 33


 1243              	.LBB97:
 230:Drivers/User_Driver/Src/rtc_i2c.c **** 	while (i--);
 1244              		.loc 1 230 2 view .LVU343
 230:Drivers/User_Driver/Src/rtc_i2c.c **** 	while (i--);
 1245              		.loc 1 230 6 is_stmt 0 view .LVU344
 1246 001a 044B     		ldr	r3, .L80
 1247 001c 1B88     		ldrh	r3, [r3]
 1248              	.LVL103:
 231:Drivers/User_Driver/Src/rtc_i2c.c **** }
 1249              		.loc 1 231 2 is_stmt 1 view .LVU345
 1250              	.L78:
 231:Drivers/User_Driver/Src/rtc_i2c.c **** }
 1251              		.loc 1 231 13 view .LVU346
 231:Drivers/User_Driver/Src/rtc_i2c.c **** }
 1252              		.loc 1 231 8 view .LVU347
 1253 001e 1A46     		mov	r2, r3
 231:Drivers/User_Driver/Src/rtc_i2c.c **** }
 1254              		.loc 1 231 10 is_stmt 0 view .LVU348
 1255 0020 013B     		subs	r3, r3, #1
 1256              	.LVL104:
 231:Drivers/User_Driver/Src/rtc_i2c.c **** }
 1257              		.loc 1 231 8 view .LVU349
 1258 0022 002A     		cmp	r2, #0
 1259 0024 FBD1     		bne	.L78
 1260              	.LVL105:
 231:Drivers/User_Driver/Src/rtc_i2c.c **** }
 1261              		.loc 1 231 8 view .LVU350
 1262              	.LBE97:
 1263              	.LBE96:
 304:Drivers/User_Driver/Src/rtc_i2c.c **** 	rtc_scl_l();
 1264              		.loc 1 304 2 is_stmt 1 view .LVU351
 1265 0026 FFF7FEFF 		bl	rtc_scl_l
 1266              	.LVL106:
 305:Drivers/User_Driver/Src/rtc_i2c.c **** }
 1267              		.loc 1 305 1 is_stmt 0 view .LVU352
 1268 002a 08BD     		pop	{r3, pc}
 1269              	.L81:
 1270              		.align	2
 1271              	.L80:
 1272 002c 00000000 		.word	.LANCHOR2
 1273              		.cfi_endproc
 1274              	.LFE250:
 1276              		.section	.text.rtc_wait_ack,"ax",%progbits
 1277              		.align	1
 1278              		.global	rtc_wait_ack
 1279              		.syntax unified
 1280              		.thumb
 1281              		.thumb_func
 1283              	rtc_wait_ack:
 1284              	.LFB251:
 306:Drivers/User_Driver/Src/rtc_i2c.c **** 
 307:Drivers/User_Driver/Src/rtc_i2c.c **** /**
 308:Drivers/User_Driver/Src/rtc_i2c.c ****  * @brief When data is written, the slave responds  a ack signal
 309:Drivers/User_Driver/Src/rtc_i2c.c ****  * 
 310:Drivers/User_Driver/Src/rtc_i2c.c ****  */
 311:Drivers/User_Driver/Src/rtc_i2c.c **** i2c_exit_code_e rtc_wait_ack(void)
 312:Drivers/User_Driver/Src/rtc_i2c.c **** {
ARM GAS  C:\Users\86158\AppData\Local\Temp\cc2g9Wou.s 			page 34


 1285              		.loc 1 312 1 is_stmt 1 view -0
 1286              		.cfi_startproc
 1287              		@ args = 0, pretend = 0, frame = 24
 1288              		@ frame_needed = 0, uses_anonymous_args = 0
 1289 0000 10B5     		push	{r4, lr}
 1290              	.LCFI21:
 1291              		.cfi_def_cfa_offset 8
 1292              		.cfi_offset 4, -8
 1293              		.cfi_offset 14, -4
 1294 0002 86B0     		sub	sp, sp, #24
 1295              	.LCFI22:
 1296              		.cfi_def_cfa_offset 32
 313:Drivers/User_Driver/Src/rtc_i2c.c **** 	rtc_sda_in();
 1297              		.loc 1 313 2 view .LVU354
 1298              	.LBB106:
 1299              	.LBI106:
 198:Drivers/User_Driver/Src/rtc_i2c.c **** {
 1300              		.loc 1 198 20 view .LVU355
 1301              	.LBB107:
 201:Drivers/User_Driver/Src/rtc_i2c.c **** 	GPIO_InitStruct.Pin = g_i2c.pinSdaIn;
 1302              		.loc 1 201 4 view .LVU356
 201:Drivers/User_Driver/Src/rtc_i2c.c **** 	GPIO_InitStruct.Pin = g_i2c.pinSdaIn;
 1303              		.loc 1 201 21 is_stmt 0 view .LVU357
 1304 0004 0023     		movs	r3, #0
 1305 0006 0193     		str	r3, [sp, #4]
 1306 0008 0293     		str	r3, [sp, #8]
 1307 000a 0393     		str	r3, [sp, #12]
 1308 000c 0493     		str	r3, [sp, #16]
 1309 000e 0593     		str	r3, [sp, #20]
 202:Drivers/User_Driver/Src/rtc_i2c.c **** 	GPIO_InitStruct.Mode = GPIO_MODE_INPUT;
 1310              		.loc 1 202 2 is_stmt 1 view .LVU358
 202:Drivers/User_Driver/Src/rtc_i2c.c **** 	GPIO_InitStruct.Mode = GPIO_MODE_INPUT;
 1311              		.loc 1 202 29 is_stmt 0 view .LVU359
 1312 0010 1A4B     		ldr	r3, .L89
 1313 0012 9A88     		ldrh	r2, [r3, #4]
 202:Drivers/User_Driver/Src/rtc_i2c.c **** 	GPIO_InitStruct.Mode = GPIO_MODE_INPUT;
 1314              		.loc 1 202 22 view .LVU360
 1315 0014 0192     		str	r2, [sp, #4]
 203:Drivers/User_Driver/Src/rtc_i2c.c **** 	GPIO_InitStruct.Pull = GPIO_NOPULL;
 1316              		.loc 1 203 2 is_stmt 1 view .LVU361
 204:Drivers/User_Driver/Src/rtc_i2c.c **** 	GPIO_InitStruct.Speed = GPIO_SPEED_FREQ_HIGH;
 1317              		.loc 1 204 2 view .LVU362
 205:Drivers/User_Driver/Src/rtc_i2c.c **** 	HAL_GPIO_Init(g_i2c.busSdaIn, &GPIO_InitStruct);
 1318              		.loc 1 205 2 view .LVU363
 205:Drivers/User_Driver/Src/rtc_i2c.c **** 	HAL_GPIO_Init(g_i2c.busSdaIn, &GPIO_InitStruct);
 1319              		.loc 1 205 24 is_stmt 0 view .LVU364
 1320 0016 0222     		movs	r2, #2
 1321 0018 0492     		str	r2, [sp, #16]
 206:Drivers/User_Driver/Src/rtc_i2c.c **** }
 1322              		.loc 1 206 2 is_stmt 1 view .LVU365
 1323 001a 01A9     		add	r1, sp, #4
 1324 001c 1868     		ldr	r0, [r3]
 1325 001e FFF7FEFF 		bl	HAL_GPIO_Init
 1326              	.LVL107:
 1327              	.LBE107:
 1328              	.LBE106:
 314:Drivers/User_Driver/Src/rtc_i2c.c **** 	rtc_scl_h();
ARM GAS  C:\Users\86158\AppData\Local\Temp\cc2g9Wou.s 			page 35


 1329              		.loc 1 314 2 view .LVU366
 1330 0022 FFF7FEFF 		bl	rtc_scl_h
 1331              	.LVL108:
 315:Drivers/User_Driver/Src/rtc_i2c.c **** 	rtc_Wait();
 1332              		.loc 1 315 2 view .LVU367
 1333              	.LBB108:
 1334              	.LBI108:
 228:Drivers/User_Driver/Src/rtc_i2c.c **** {	
 1335              		.loc 1 228 20 view .LVU368
 1336              	.LBB109:
 230:Drivers/User_Driver/Src/rtc_i2c.c **** 	while (i--);
 1337              		.loc 1 230 2 view .LVU369
 230:Drivers/User_Driver/Src/rtc_i2c.c **** 	while (i--);
 1338              		.loc 1 230 6 is_stmt 0 view .LVU370
 1339 0026 164B     		ldr	r3, .L89+4
 1340 0028 1B88     		ldrh	r3, [r3]
 1341              	.LVL109:
 231:Drivers/User_Driver/Src/rtc_i2c.c **** }
 1342              		.loc 1 231 2 is_stmt 1 view .LVU371
 1343              	.L83:
 231:Drivers/User_Driver/Src/rtc_i2c.c **** }
 1344              		.loc 1 231 13 view .LVU372
 231:Drivers/User_Driver/Src/rtc_i2c.c **** }
 1345              		.loc 1 231 8 view .LVU373
 1346 002a 1A46     		mov	r2, r3
 231:Drivers/User_Driver/Src/rtc_i2c.c **** }
 1347              		.loc 1 231 10 is_stmt 0 view .LVU374
 1348 002c 013B     		subs	r3, r3, #1
 1349              	.LVL110:
 231:Drivers/User_Driver/Src/rtc_i2c.c **** }
 1350              		.loc 1 231 8 view .LVU375
 1351 002e 002A     		cmp	r2, #0
 1352 0030 FBD1     		bne	.L83
 1353              	.LVL111:
 231:Drivers/User_Driver/Src/rtc_i2c.c **** }
 1354              		.loc 1 231 8 view .LVU376
 1355              	.LBE109:
 1356              	.LBE108:
 316:Drivers/User_Driver/Src/rtc_i2c.c **** 
 317:Drivers/User_Driver/Src/rtc_i2c.c **** 	if (rtc_read_sda())
 1357              		.loc 1 317 2 is_stmt 1 view .LVU377
 1358              		.loc 1 317 6 is_stmt 0 view .LVU378
 1359 0032 FFF7FEFF 		bl	rtc_read_sda
 1360              	.LVL112:
 1361              		.loc 1 317 5 view .LVU379
 1362 0036 0446     		mov	r4, r0
 1363 0038 D8B9     		cbnz	r0, .L88
 318:Drivers/User_Driver/Src/rtc_i2c.c **** 	{
 319:Drivers/User_Driver/Src/rtc_i2c.c **** 		rtc_scl_l();
 320:Drivers/User_Driver/Src/rtc_i2c.c **** 		return I2C_NO_ACK;
 321:Drivers/User_Driver/Src/rtc_i2c.c **** 	}
 322:Drivers/User_Driver/Src/rtc_i2c.c **** 	rtc_scl_l();
 1364              		.loc 1 322 2 is_stmt 1 view .LVU380
 1365 003a FFF7FEFF 		bl	rtc_scl_l
 1366              	.LVL113:
 323:Drivers/User_Driver/Src/rtc_i2c.c **** 	rtc_Wait();
 1367              		.loc 1 323 2 view .LVU381
ARM GAS  C:\Users\86158\AppData\Local\Temp\cc2g9Wou.s 			page 36


 1368              	.LBB110:
 1369              	.LBI110:
 228:Drivers/User_Driver/Src/rtc_i2c.c **** {	
 1370              		.loc 1 228 20 view .LVU382
 1371              	.LBB111:
 230:Drivers/User_Driver/Src/rtc_i2c.c **** 	while (i--);
 1372              		.loc 1 230 2 view .LVU383
 230:Drivers/User_Driver/Src/rtc_i2c.c **** 	while (i--);
 1373              		.loc 1 230 6 is_stmt 0 view .LVU384
 1374 003e 104B     		ldr	r3, .L89+4
 1375 0040 1B88     		ldrh	r3, [r3]
 1376              	.LVL114:
 231:Drivers/User_Driver/Src/rtc_i2c.c **** }
 1377              		.loc 1 231 2 is_stmt 1 view .LVU385
 1378              	.L86:
 231:Drivers/User_Driver/Src/rtc_i2c.c **** }
 1379              		.loc 1 231 13 view .LVU386
 231:Drivers/User_Driver/Src/rtc_i2c.c **** }
 1380              		.loc 1 231 8 view .LVU387
 1381 0042 1A46     		mov	r2, r3
 231:Drivers/User_Driver/Src/rtc_i2c.c **** }
 1382              		.loc 1 231 10 is_stmt 0 view .LVU388
 1383 0044 013B     		subs	r3, r3, #1
 1384              	.LVL115:
 231:Drivers/User_Driver/Src/rtc_i2c.c **** }
 1385              		.loc 1 231 8 view .LVU389
 1386 0046 002A     		cmp	r2, #0
 1387 0048 FBD1     		bne	.L86
 1388              	.LVL116:
 231:Drivers/User_Driver/Src/rtc_i2c.c **** }
 1389              		.loc 1 231 8 view .LVU390
 1390              	.LBE111:
 1391              	.LBE110:
 324:Drivers/User_Driver/Src/rtc_i2c.c **** 	rtc_sda_h();
 1392              		.loc 1 324 2 is_stmt 1 view .LVU391
 1393 004a FFF7FEFF 		bl	rtc_sda_h
 1394              	.LVL117:
 325:Drivers/User_Driver/Src/rtc_i2c.c **** 	rtc_sda_out();
 1395              		.loc 1 325 2 view .LVU392
 1396              	.LBB112:
 1397              	.LBI112:
 213:Drivers/User_Driver/Src/rtc_i2c.c **** {
 1398              		.loc 1 213 20 view .LVU393
 1399              	.LBB113:
 216:Drivers/User_Driver/Src/rtc_i2c.c **** 	GPIO_InitStruct.Pin = g_i2c.pinSdaOut;
 1400              		.loc 1 216 4 view .LVU394
 216:Drivers/User_Driver/Src/rtc_i2c.c **** 	GPIO_InitStruct.Pin = g_i2c.pinSdaOut;
 1401              		.loc 1 216 21 is_stmt 0 view .LVU395
 1402 004e 0023     		movs	r3, #0
 1403 0050 0193     		str	r3, [sp, #4]
 1404 0052 0293     		str	r3, [sp, #8]
 1405 0054 0393     		str	r3, [sp, #12]
 1406 0056 0493     		str	r3, [sp, #16]
 1407 0058 0593     		str	r3, [sp, #20]
 217:Drivers/User_Driver/Src/rtc_i2c.c **** 	GPIO_InitStruct.Mode = GPIO_MODE_OUTPUT_OD;
 1408              		.loc 1 217 2 is_stmt 1 view .LVU396
 217:Drivers/User_Driver/Src/rtc_i2c.c **** 	GPIO_InitStruct.Mode = GPIO_MODE_OUTPUT_OD;
ARM GAS  C:\Users\86158\AppData\Local\Temp\cc2g9Wou.s 			page 37


 1409              		.loc 1 217 29 is_stmt 0 view .LVU397
 1410 005a 084B     		ldr	r3, .L89
 1411 005c 9A89     		ldrh	r2, [r3, #12]
 217:Drivers/User_Driver/Src/rtc_i2c.c **** 	GPIO_InitStruct.Mode = GPIO_MODE_OUTPUT_OD;
 1412              		.loc 1 217 22 view .LVU398
 1413 005e 0192     		str	r2, [sp, #4]
 218:Drivers/User_Driver/Src/rtc_i2c.c **** 	GPIO_InitStruct.Pull = GPIO_NOPULL;
 1414              		.loc 1 218 2 is_stmt 1 view .LVU399
 218:Drivers/User_Driver/Src/rtc_i2c.c **** 	GPIO_InitStruct.Pull = GPIO_NOPULL;
 1415              		.loc 1 218 23 is_stmt 0 view .LVU400
 1416 0060 1122     		movs	r2, #17
 1417 0062 0292     		str	r2, [sp, #8]
 219:Drivers/User_Driver/Src/rtc_i2c.c **** 	GPIO_InitStruct.Speed = GPIO_SPEED_FREQ_LOW;
 1418              		.loc 1 219 2 is_stmt 1 view .LVU401
 220:Drivers/User_Driver/Src/rtc_i2c.c **** 	HAL_GPIO_Init(g_i2c.busSdaOut, &GPIO_InitStruct);
 1419              		.loc 1 220 2 view .LVU402
 221:Drivers/User_Driver/Src/rtc_i2c.c **** }
 1420              		.loc 1 221 2 view .LVU403
 1421 0064 01A9     		add	r1, sp, #4
 1422 0066 9868     		ldr	r0, [r3, #8]
 1423 0068 FFF7FEFF 		bl	HAL_GPIO_Init
 1424              	.LVL118:
 1425              	.L85:
 1426              	.LBE113:
 1427              	.LBE112:
 326:Drivers/User_Driver/Src/rtc_i2c.c **** 	return I2C_OK;
 327:Drivers/User_Driver/Src/rtc_i2c.c **** }
 1428              		.loc 1 327 1 is_stmt 0 view .LVU404
 1429 006c 2046     		mov	r0, r4
 1430 006e 06B0     		add	sp, sp, #24
 1431              	.LCFI23:
 1432              		.cfi_remember_state
 1433              		.cfi_def_cfa_offset 8
 1434              		@ sp needed
 1435 0070 10BD     		pop	{r4, pc}
 1436              	.L88:
 1437              	.LCFI24:
 1438              		.cfi_restore_state
 319:Drivers/User_Driver/Src/rtc_i2c.c **** 		return I2C_NO_ACK;
 1439              		.loc 1 319 3 is_stmt 1 view .LVU405
 1440 0072 FFF7FEFF 		bl	rtc_scl_l
 1441              	.LVL119:
 320:Drivers/User_Driver/Src/rtc_i2c.c **** 	}
 1442              		.loc 1 320 3 view .LVU406
 320:Drivers/User_Driver/Src/rtc_i2c.c **** 	}
 1443              		.loc 1 320 10 is_stmt 0 view .LVU407
 1444 0076 0224     		movs	r4, #2
 1445 0078 F8E7     		b	.L85
 1446              	.L90:
 1447 007a 00BF     		.align	2
 1448              	.L89:
 1449 007c 00000000 		.word	.LANCHOR0
 1450 0080 00000000 		.word	.LANCHOR2
 1451              		.cfi_endproc
 1452              	.LFE251:
 1454              		.section	.text.rtc_send_byte,"ax",%progbits
 1455              		.align	1
ARM GAS  C:\Users\86158\AppData\Local\Temp\cc2g9Wou.s 			page 38


 1456              		.global	rtc_send_byte
 1457              		.syntax unified
 1458              		.thumb
 1459              		.thumb_func
 1461              	rtc_send_byte:
 1462              	.LVL120:
 1463              	.LFB252:
 328:Drivers/User_Driver/Src/rtc_i2c.c **** 
 329:Drivers/User_Driver/Src/rtc_i2c.c **** /**
 330:Drivers/User_Driver/Src/rtc_i2c.c ****  * @brief Send a byte to slave
 331:Drivers/User_Driver/Src/rtc_i2c.c ****  * 
 332:Drivers/User_Driver/Src/rtc_i2c.c ****  */
 333:Drivers/User_Driver/Src/rtc_i2c.c **** void rtc_send_byte(unsigned char value)
 334:Drivers/User_Driver/Src/rtc_i2c.c **** {
 1464              		.loc 1 334 1 is_stmt 1 view -0
 1465              		.cfi_startproc
 1466              		@ args = 0, pretend = 0, frame = 0
 1467              		@ frame_needed = 0, uses_anonymous_args = 0
 1468              		.loc 1 334 1 is_stmt 0 view .LVU409
 1469 0000 38B5     		push	{r3, r4, r5, lr}
 1470              	.LCFI25:
 1471              		.cfi_def_cfa_offset 16
 1472              		.cfi_offset 3, -16
 1473              		.cfi_offset 4, -12
 1474              		.cfi_offset 5, -8
 1475              		.cfi_offset 14, -4
 1476 0002 0446     		mov	r4, r0
 335:Drivers/User_Driver/Src/rtc_i2c.c **** 	unsigned char i;
 1477              		.loc 1 335 2 is_stmt 1 view .LVU410
 336:Drivers/User_Driver/Src/rtc_i2c.c **** 
 337:Drivers/User_Driver/Src/rtc_i2c.c **** 	rtc_scl_l();
 1478              		.loc 1 337 2 view .LVU411
 1479 0004 FFF7FEFF 		bl	rtc_scl_l
 1480              	.LVL121:
 338:Drivers/User_Driver/Src/rtc_i2c.c **** 	for (i = 0; i < 8; i ++)
 1481              		.loc 1 338 2 view .LVU412
 1482              		.loc 1 338 9 is_stmt 0 view .LVU413
 1483 0008 0025     		movs	r5, #0
 1484              		.loc 1 338 2 view .LVU414
 1485 000a 16E0     		b	.L92
 1486              	.LVL122:
 1487              	.L101:
 339:Drivers/User_Driver/Src/rtc_i2c.c **** 	{
 340:Drivers/User_Driver/Src/rtc_i2c.c **** 		if (value & 0x80)
 341:Drivers/User_Driver/Src/rtc_i2c.c **** 			rtc_sda_h();
 1488              		.loc 1 341 4 is_stmt 1 view .LVU415
 1489 000c FFF7FEFF 		bl	rtc_sda_h
 1490              	.LVL123:
 1491              	.L94:
 342:Drivers/User_Driver/Src/rtc_i2c.c **** 		else 
 343:Drivers/User_Driver/Src/rtc_i2c.c **** 			rtc_sda_l();
 344:Drivers/User_Driver/Src/rtc_i2c.c **** 		rtc_Wait();
 1492              		.loc 1 344 3 discriminator 2 view .LVU416
 1493              	.LBB114:
 1494              	.LBI114:
 228:Drivers/User_Driver/Src/rtc_i2c.c **** {	
 1495              		.loc 1 228 20 discriminator 2 view .LVU417
ARM GAS  C:\Users\86158\AppData\Local\Temp\cc2g9Wou.s 			page 39


 1496              	.LBB115:
 230:Drivers/User_Driver/Src/rtc_i2c.c **** 	while (i--);
 1497              		.loc 1 230 2 discriminator 2 view .LVU418
 230:Drivers/User_Driver/Src/rtc_i2c.c **** 	while (i--);
 1498              		.loc 1 230 6 is_stmt 0 discriminator 2 view .LVU419
 1499 0010 124B     		ldr	r3, .L102
 1500 0012 1B88     		ldrh	r3, [r3]
 1501              	.LVL124:
 231:Drivers/User_Driver/Src/rtc_i2c.c **** }
 1502              		.loc 1 231 2 is_stmt 1 discriminator 2 view .LVU420
 1503              	.L95:
 231:Drivers/User_Driver/Src/rtc_i2c.c **** }
 1504              		.loc 1 231 13 view .LVU421
 231:Drivers/User_Driver/Src/rtc_i2c.c **** }
 1505              		.loc 1 231 8 view .LVU422
 1506 0014 1A46     		mov	r2, r3
 231:Drivers/User_Driver/Src/rtc_i2c.c **** }
 1507              		.loc 1 231 10 is_stmt 0 view .LVU423
 1508 0016 013B     		subs	r3, r3, #1
 1509              	.LVL125:
 231:Drivers/User_Driver/Src/rtc_i2c.c **** }
 1510              		.loc 1 231 8 view .LVU424
 1511 0018 002A     		cmp	r2, #0
 1512 001a FBD1     		bne	.L95
 1513              	.LVL126:
 231:Drivers/User_Driver/Src/rtc_i2c.c **** }
 1514              		.loc 1 231 8 view .LVU425
 1515              	.LBE115:
 1516              	.LBE114:
 345:Drivers/User_Driver/Src/rtc_i2c.c **** 		value <<= 1;
 1517              		.loc 1 345 3 is_stmt 1 discriminator 2 view .LVU426
 1518              		.loc 1 345 9 is_stmt 0 discriminator 2 view .LVU427
 1519 001c 6400     		lsls	r4, r4, #1
 1520              	.LVL127:
 1521              		.loc 1 345 9 discriminator 2 view .LVU428
 1522 001e E4B2     		uxtb	r4, r4
 1523              	.LVL128:
 346:Drivers/User_Driver/Src/rtc_i2c.c **** 		rtc_scl_h();
 1524              		.loc 1 346 3 is_stmt 1 discriminator 2 view .LVU429
 1525 0020 FFF7FEFF 		bl	rtc_scl_h
 1526              	.LVL129:
 347:Drivers/User_Driver/Src/rtc_i2c.c **** 		rtc_Wait_half();
 1527              		.loc 1 347 3 discriminator 2 view .LVU430
 1528              	.LBB116:
 1529              	.LBI116:
 237:Drivers/User_Driver/Src/rtc_i2c.c **** {	
 1530              		.loc 1 237 20 discriminator 2 view .LVU431
 1531              	.LBB117:
 239:Drivers/User_Driver/Src/rtc_i2c.c **** 	while (i--);
 1532              		.loc 1 239 2 discriminator 2 view .LVU432
 239:Drivers/User_Driver/Src/rtc_i2c.c **** 	while (i--);
 1533              		.loc 1 239 25 is_stmt 0 discriminator 2 view .LVU433
 1534 0024 0D4B     		ldr	r3, .L102
 1535 0026 1B88     		ldrh	r3, [r3]
 1536 0028 5B08     		lsrs	r3, r3, #1
 1537              	.LVL130:
 240:Drivers/User_Driver/Src/rtc_i2c.c **** }
ARM GAS  C:\Users\86158\AppData\Local\Temp\cc2g9Wou.s 			page 40


 1538              		.loc 1 240 2 is_stmt 1 discriminator 2 view .LVU434
 1539              	.L96:
 240:Drivers/User_Driver/Src/rtc_i2c.c **** }
 1540              		.loc 1 240 13 view .LVU435
 240:Drivers/User_Driver/Src/rtc_i2c.c **** }
 1541              		.loc 1 240 8 view .LVU436
 1542 002a 1A46     		mov	r2, r3
 240:Drivers/User_Driver/Src/rtc_i2c.c **** }
 1543              		.loc 1 240 10 is_stmt 0 view .LVU437
 1544 002c 013B     		subs	r3, r3, #1
 1545              	.LVL131:
 240:Drivers/User_Driver/Src/rtc_i2c.c **** }
 1546              		.loc 1 240 8 view .LVU438
 1547 002e 002A     		cmp	r2, #0
 1548 0030 FBD1     		bne	.L96
 1549              	.LVL132:
 240:Drivers/User_Driver/Src/rtc_i2c.c **** }
 1550              		.loc 1 240 8 view .LVU439
 1551              	.LBE117:
 1552              	.LBE116:
 348:Drivers/User_Driver/Src/rtc_i2c.c **** 		rtc_scl_l();
 1553              		.loc 1 348 3 is_stmt 1 discriminator 2 view .LVU440
 1554 0032 FFF7FEFF 		bl	rtc_scl_l
 1555              	.LVL133:
 338:Drivers/User_Driver/Src/rtc_i2c.c **** 	{
 1556              		.loc 1 338 21 discriminator 2 view .LVU441
 338:Drivers/User_Driver/Src/rtc_i2c.c **** 	{
 1557              		.loc 1 338 23 is_stmt 0 discriminator 2 view .LVU442
 1558 0036 0135     		adds	r5, r5, #1
 1559              	.LVL134:
 338:Drivers/User_Driver/Src/rtc_i2c.c **** 	{
 1560              		.loc 1 338 23 discriminator 2 view .LVU443
 1561 0038 EDB2     		uxtb	r5, r5
 1562              	.LVL135:
 1563              	.L92:
 338:Drivers/User_Driver/Src/rtc_i2c.c **** 	{
 1564              		.loc 1 338 14 is_stmt 1 discriminator 1 view .LVU444
 338:Drivers/User_Driver/Src/rtc_i2c.c **** 	{
 1565              		.loc 1 338 2 is_stmt 0 discriminator 1 view .LVU445
 1566 003a 072D     		cmp	r5, #7
 1567 003c 05D8     		bhi	.L100
 340:Drivers/User_Driver/Src/rtc_i2c.c **** 			rtc_sda_h();
 1568              		.loc 1 340 3 is_stmt 1 view .LVU446
 340:Drivers/User_Driver/Src/rtc_i2c.c **** 			rtc_sda_h();
 1569              		.loc 1 340 6 is_stmt 0 view .LVU447
 1570 003e 14F0800F 		tst	r4, #128
 1571 0042 E3D1     		bne	.L101
 343:Drivers/User_Driver/Src/rtc_i2c.c **** 		rtc_Wait();
 1572              		.loc 1 343 4 is_stmt 1 view .LVU448
 1573 0044 FFF7FEFF 		bl	rtc_sda_l
 1574              	.LVL136:
 1575 0048 E2E7     		b	.L94
 1576              	.L100:
 349:Drivers/User_Driver/Src/rtc_i2c.c **** 		// rtc_Wait_half();
 350:Drivers/User_Driver/Src/rtc_i2c.c **** 	}
 351:Drivers/User_Driver/Src/rtc_i2c.c **** 	rtc_sda_h();
 1577              		.loc 1 351 2 view .LVU449
ARM GAS  C:\Users\86158\AppData\Local\Temp\cc2g9Wou.s 			page 41


 1578 004a FFF7FEFF 		bl	rtc_sda_h
 1579              	.LVL137:
 352:Drivers/User_Driver/Src/rtc_i2c.c **** 	rtc_Wait();
 1580              		.loc 1 352 2 view .LVU450
 1581              	.LBB118:
 1582              	.LBI118:
 228:Drivers/User_Driver/Src/rtc_i2c.c **** {	
 1583              		.loc 1 228 20 view .LVU451
 1584              	.LBB119:
 230:Drivers/User_Driver/Src/rtc_i2c.c **** 	while (i--);
 1585              		.loc 1 230 2 view .LVU452
 230:Drivers/User_Driver/Src/rtc_i2c.c **** 	while (i--);
 1586              		.loc 1 230 6 is_stmt 0 view .LVU453
 1587 004e 034B     		ldr	r3, .L102
 1588 0050 1B88     		ldrh	r3, [r3]
 1589              	.LVL138:
 231:Drivers/User_Driver/Src/rtc_i2c.c **** }
 1590              		.loc 1 231 2 is_stmt 1 view .LVU454
 1591              	.L98:
 231:Drivers/User_Driver/Src/rtc_i2c.c **** }
 1592              		.loc 1 231 13 view .LVU455
 231:Drivers/User_Driver/Src/rtc_i2c.c **** }
 1593              		.loc 1 231 8 view .LVU456
 1594 0052 1A46     		mov	r2, r3
 231:Drivers/User_Driver/Src/rtc_i2c.c **** }
 1595              		.loc 1 231 10 is_stmt 0 view .LVU457
 1596 0054 013B     		subs	r3, r3, #1
 1597              	.LVL139:
 231:Drivers/User_Driver/Src/rtc_i2c.c **** }
 1598              		.loc 1 231 8 view .LVU458
 1599 0056 002A     		cmp	r2, #0
 1600 0058 FBD1     		bne	.L98
 1601              	.LBE119:
 1602              	.LBE118:
 353:Drivers/User_Driver/Src/rtc_i2c.c **** }
 1603              		.loc 1 353 1 view .LVU459
 1604 005a 38BD     		pop	{r3, r4, r5, pc}
 1605              	.LVL140:
 1606              	.L103:
 1607              		.loc 1 353 1 view .LVU460
 1608              		.align	2
 1609              	.L102:
 1610 005c 00000000 		.word	.LANCHOR2
 1611              		.cfi_endproc
 1612              	.LFE252:
 1614              		.section	.text.rtc_receive_byte,"ax",%progbits
 1615              		.align	1
 1616              		.global	rtc_receive_byte
 1617              		.syntax unified
 1618              		.thumb
 1619              		.thumb_func
 1621              	rtc_receive_byte:
 1622              	.LFB253:
 354:Drivers/User_Driver/Src/rtc_i2c.c **** 
 355:Drivers/User_Driver/Src/rtc_i2c.c **** /**
 356:Drivers/User_Driver/Src/rtc_i2c.c ****  * @brief Receive a byte timing
 357:Drivers/User_Driver/Src/rtc_i2c.c ****  * 
ARM GAS  C:\Users\86158\AppData\Local\Temp\cc2g9Wou.s 			page 42


 358:Drivers/User_Driver/Src/rtc_i2c.c ****  */
 359:Drivers/User_Driver/Src/rtc_i2c.c **** unsigned char rtc_receive_byte(void)
 360:Drivers/User_Driver/Src/rtc_i2c.c **** {
 1623              		.loc 1 360 1 is_stmt 1 view -0
 1624              		.cfi_startproc
 1625              		@ args = 0, pretend = 0, frame = 24
 1626              		@ frame_needed = 0, uses_anonymous_args = 0
 1627 0000 30B5     		push	{r4, r5, lr}
 1628              	.LCFI26:
 1629              		.cfi_def_cfa_offset 12
 1630              		.cfi_offset 4, -12
 1631              		.cfi_offset 5, -8
 1632              		.cfi_offset 14, -4
 1633 0002 87B0     		sub	sp, sp, #28
 1634              	.LCFI27:
 1635              		.cfi_def_cfa_offset 40
 361:Drivers/User_Driver/Src/rtc_i2c.c **** 	unsigned char i;
 1636              		.loc 1 361 2 view .LVU462
 362:Drivers/User_Driver/Src/rtc_i2c.c **** 	unsigned char data = 0;
 1637              		.loc 1 362 2 view .LVU463
 1638              	.LVL141:
 363:Drivers/User_Driver/Src/rtc_i2c.c **** 
 364:Drivers/User_Driver/Src/rtc_i2c.c ****     rtc_sda_in();
 1639              		.loc 1 364 5 view .LVU464
 1640              	.LBB130:
 1641              	.LBI130:
 198:Drivers/User_Driver/Src/rtc_i2c.c **** {
 1642              		.loc 1 198 20 view .LVU465
 1643              	.LBB131:
 201:Drivers/User_Driver/Src/rtc_i2c.c **** 	GPIO_InitStruct.Pin = g_i2c.pinSdaIn;
 1644              		.loc 1 201 4 view .LVU466
 201:Drivers/User_Driver/Src/rtc_i2c.c **** 	GPIO_InitStruct.Pin = g_i2c.pinSdaIn;
 1645              		.loc 1 201 21 is_stmt 0 view .LVU467
 1646 0004 0024     		movs	r4, #0
 1647 0006 0194     		str	r4, [sp, #4]
 1648 0008 0294     		str	r4, [sp, #8]
 1649 000a 0394     		str	r4, [sp, #12]
 1650 000c 0494     		str	r4, [sp, #16]
 1651 000e 0594     		str	r4, [sp, #20]
 202:Drivers/User_Driver/Src/rtc_i2c.c **** 	GPIO_InitStruct.Mode = GPIO_MODE_INPUT;
 1652              		.loc 1 202 2 is_stmt 1 view .LVU468
 202:Drivers/User_Driver/Src/rtc_i2c.c **** 	GPIO_InitStruct.Mode = GPIO_MODE_INPUT;
 1653              		.loc 1 202 29 is_stmt 0 view .LVU469
 1654 0010 224B     		ldr	r3, .L113
 1655 0012 9A88     		ldrh	r2, [r3, #4]
 202:Drivers/User_Driver/Src/rtc_i2c.c **** 	GPIO_InitStruct.Mode = GPIO_MODE_INPUT;
 1656              		.loc 1 202 22 view .LVU470
 1657 0014 0192     		str	r2, [sp, #4]
 203:Drivers/User_Driver/Src/rtc_i2c.c **** 	GPIO_InitStruct.Pull = GPIO_NOPULL;
 1658              		.loc 1 203 2 is_stmt 1 view .LVU471
 204:Drivers/User_Driver/Src/rtc_i2c.c **** 	GPIO_InitStruct.Speed = GPIO_SPEED_FREQ_HIGH;
 1659              		.loc 1 204 2 view .LVU472
 205:Drivers/User_Driver/Src/rtc_i2c.c **** 	HAL_GPIO_Init(g_i2c.busSdaIn, &GPIO_InitStruct);
 1660              		.loc 1 205 2 view .LVU473
 205:Drivers/User_Driver/Src/rtc_i2c.c **** 	HAL_GPIO_Init(g_i2c.busSdaIn, &GPIO_InitStruct);
 1661              		.loc 1 205 24 is_stmt 0 view .LVU474
 1662 0016 0222     		movs	r2, #2
ARM GAS  C:\Users\86158\AppData\Local\Temp\cc2g9Wou.s 			page 43


 1663 0018 0492     		str	r2, [sp, #16]
 206:Drivers/User_Driver/Src/rtc_i2c.c **** }
 1664              		.loc 1 206 2 is_stmt 1 view .LVU475
 1665 001a 01A9     		add	r1, sp, #4
 1666 001c 1868     		ldr	r0, [r3]
 1667 001e FFF7FEFF 		bl	HAL_GPIO_Init
 1668              	.LVL142:
 1669              	.LBE131:
 1670              	.LBE130:
 365:Drivers/User_Driver/Src/rtc_i2c.c **** 	rtc_sda_h();
 1671              		.loc 1 365 2 view .LVU476
 1672 0022 FFF7FEFF 		bl	rtc_sda_h
 1673              	.LVL143:
 366:Drivers/User_Driver/Src/rtc_i2c.c **** 	for (i = 0; i < 8; i++)
 1674              		.loc 1 366 2 view .LVU477
 362:Drivers/User_Driver/Src/rtc_i2c.c **** 
 1675              		.loc 1 362 16 is_stmt 0 view .LVU478
 1676 0026 2546     		mov	r5, r4
 1677              		.loc 1 366 2 view .LVU479
 1678 0028 01E0     		b	.L105
 1679              	.LVL144:
 1680              	.L108:
 1681              		.loc 1 366 21 is_stmt 1 discriminator 2 view .LVU480
 1682              		.loc 1 366 22 is_stmt 0 discriminator 2 view .LVU481
 1683 002a 0134     		adds	r4, r4, #1
 1684              	.LVL145:
 1685              		.loc 1 366 22 discriminator 2 view .LVU482
 1686 002c E4B2     		uxtb	r4, r4
 1687              	.LVL146:
 1688              	.L105:
 1689              		.loc 1 366 14 is_stmt 1 discriminator 1 view .LVU483
 1690              		.loc 1 366 2 is_stmt 0 discriminator 1 view .LVU484
 1691 002e 072C     		cmp	r4, #7
 1692 0030 19D8     		bhi	.L112
 367:Drivers/User_Driver/Src/rtc_i2c.c **** 	{
 368:Drivers/User_Driver/Src/rtc_i2c.c **** 		rtc_scl_l();
 1693              		.loc 1 368 3 is_stmt 1 view .LVU485
 1694 0032 FFF7FEFF 		bl	rtc_scl_l
 1695              	.LVL147:
 369:Drivers/User_Driver/Src/rtc_i2c.c **** 		// rtc_Wait();
 370:Drivers/User_Driver/Src/rtc_i2c.c **** 		rtc_Wait();
 1696              		.loc 1 370 3 view .LVU486
 1697              	.LBB132:
 1698              	.LBI132:
 228:Drivers/User_Driver/Src/rtc_i2c.c **** {	
 1699              		.loc 1 228 20 view .LVU487
 1700              	.LBB133:
 230:Drivers/User_Driver/Src/rtc_i2c.c **** 	while (i--);
 1701              		.loc 1 230 2 view .LVU488
 230:Drivers/User_Driver/Src/rtc_i2c.c **** 	while (i--);
 1702              		.loc 1 230 6 is_stmt 0 view .LVU489
 1703 0036 1A4B     		ldr	r3, .L113+4
 1704 0038 1B88     		ldrh	r3, [r3]
 1705              	.LVL148:
 231:Drivers/User_Driver/Src/rtc_i2c.c **** }
 1706              		.loc 1 231 2 is_stmt 1 view .LVU490
 1707              	.L106:
ARM GAS  C:\Users\86158\AppData\Local\Temp\cc2g9Wou.s 			page 44


 231:Drivers/User_Driver/Src/rtc_i2c.c **** }
 1708              		.loc 1 231 13 view .LVU491
 231:Drivers/User_Driver/Src/rtc_i2c.c **** }
 1709              		.loc 1 231 8 view .LVU492
 1710 003a 1A46     		mov	r2, r3
 231:Drivers/User_Driver/Src/rtc_i2c.c **** }
 1711              		.loc 1 231 10 is_stmt 0 view .LVU493
 1712 003c 013B     		subs	r3, r3, #1
 1713              	.LVL149:
 231:Drivers/User_Driver/Src/rtc_i2c.c **** }
 1714              		.loc 1 231 8 view .LVU494
 1715 003e 002A     		cmp	r2, #0
 1716 0040 FBD1     		bne	.L106
 1717              	.LVL150:
 231:Drivers/User_Driver/Src/rtc_i2c.c **** }
 1718              		.loc 1 231 8 view .LVU495
 1719              	.LBE133:
 1720              	.LBE132:
 371:Drivers/User_Driver/Src/rtc_i2c.c **** 		rtc_scl_h();
 1721              		.loc 1 371 3 is_stmt 1 view .LVU496
 1722 0042 FFF7FEFF 		bl	rtc_scl_h
 1723              	.LVL151:
 372:Drivers/User_Driver/Src/rtc_i2c.c **** 		rtc_Wait_half();
 1724              		.loc 1 372 3 view .LVU497
 1725              	.LBB134:
 1726              	.LBI134:
 237:Drivers/User_Driver/Src/rtc_i2c.c **** {	
 1727              		.loc 1 237 20 view .LVU498
 1728              	.LBB135:
 239:Drivers/User_Driver/Src/rtc_i2c.c **** 	while (i--);
 1729              		.loc 1 239 2 view .LVU499
 239:Drivers/User_Driver/Src/rtc_i2c.c **** 	while (i--);
 1730              		.loc 1 239 25 is_stmt 0 view .LVU500
 1731 0046 164B     		ldr	r3, .L113+4
 1732 0048 1B88     		ldrh	r3, [r3]
 1733 004a 5B08     		lsrs	r3, r3, #1
 1734              	.LVL152:
 240:Drivers/User_Driver/Src/rtc_i2c.c **** }
 1735              		.loc 1 240 2 is_stmt 1 view .LVU501
 1736              	.L107:
 240:Drivers/User_Driver/Src/rtc_i2c.c **** }
 1737              		.loc 1 240 13 view .LVU502
 240:Drivers/User_Driver/Src/rtc_i2c.c **** }
 1738              		.loc 1 240 8 view .LVU503
 1739 004c 1A46     		mov	r2, r3
 240:Drivers/User_Driver/Src/rtc_i2c.c **** }
 1740              		.loc 1 240 10 is_stmt 0 view .LVU504
 1741 004e 013B     		subs	r3, r3, #1
 1742              	.LVL153:
 240:Drivers/User_Driver/Src/rtc_i2c.c **** }
 1743              		.loc 1 240 8 view .LVU505
 1744 0050 002A     		cmp	r2, #0
 1745 0052 FBD1     		bne	.L107
 1746              	.LVL154:
 240:Drivers/User_Driver/Src/rtc_i2c.c **** }
 1747              		.loc 1 240 8 view .LVU506
 1748              	.LBE135:
ARM GAS  C:\Users\86158\AppData\Local\Temp\cc2g9Wou.s 			page 45


 1749              	.LBE134:
 373:Drivers/User_Driver/Src/rtc_i2c.c **** 		data <<= 1;
 1750              		.loc 1 373 3 is_stmt 1 view .LVU507
 1751              		.loc 1 373 8 is_stmt 0 view .LVU508
 1752 0054 6D00     		lsls	r5, r5, #1
 1753              	.LVL155:
 1754              		.loc 1 373 8 view .LVU509
 1755 0056 EDB2     		uxtb	r5, r5
 1756              	.LVL156:
 374:Drivers/User_Driver/Src/rtc_i2c.c **** 		if (rtc_read_sda()) { data |= 0x01;	}
 1757              		.loc 1 374 3 is_stmt 1 view .LVU510
 1758              		.loc 1 374 7 is_stmt 0 view .LVU511
 1759 0058 FFF7FEFF 		bl	rtc_read_sda
 1760              	.LVL157:
 1761              		.loc 1 374 6 view .LVU512
 1762 005c 0028     		cmp	r0, #0
 1763 005e E4D0     		beq	.L108
 1764              		.loc 1 374 25 is_stmt 1 discriminator 1 view .LVU513
 1765              		.loc 1 374 30 is_stmt 0 discriminator 1 view .LVU514
 1766 0060 45F00105 		orr	r5, r5, #1
 1767              	.LVL158:
 1768              		.loc 1 374 30 discriminator 1 view .LVU515
 1769 0064 E1E7     		b	.L108
 1770              	.L112:
 375:Drivers/User_Driver/Src/rtc_i2c.c **** 	}
 376:Drivers/User_Driver/Src/rtc_i2c.c **** 	rtc_Wait();
 1771              		.loc 1 376 2 is_stmt 1 view .LVU516
 1772              	.LBB136:
 1773              	.LBI136:
 228:Drivers/User_Driver/Src/rtc_i2c.c **** {	
 1774              		.loc 1 228 20 view .LVU517
 1775              	.LBB137:
 230:Drivers/User_Driver/Src/rtc_i2c.c **** 	while (i--);
 1776              		.loc 1 230 2 view .LVU518
 230:Drivers/User_Driver/Src/rtc_i2c.c **** 	while (i--);
 1777              		.loc 1 230 6 is_stmt 0 view .LVU519
 1778 0066 0E4B     		ldr	r3, .L113+4
 1779 0068 1B88     		ldrh	r3, [r3]
 1780              	.LVL159:
 231:Drivers/User_Driver/Src/rtc_i2c.c **** }
 1781              		.loc 1 231 2 is_stmt 1 view .LVU520
 1782              	.L110:
 231:Drivers/User_Driver/Src/rtc_i2c.c **** }
 1783              		.loc 1 231 13 view .LVU521
 231:Drivers/User_Driver/Src/rtc_i2c.c **** }
 1784              		.loc 1 231 8 view .LVU522
 1785 006a 1A46     		mov	r2, r3
 231:Drivers/User_Driver/Src/rtc_i2c.c **** }
 1786              		.loc 1 231 10 is_stmt 0 view .LVU523
 1787 006c 013B     		subs	r3, r3, #1
 1788              	.LVL160:
 231:Drivers/User_Driver/Src/rtc_i2c.c **** }
 1789              		.loc 1 231 8 view .LVU524
 1790 006e 002A     		cmp	r2, #0
 1791 0070 FBD1     		bne	.L110
 1792              	.LVL161:
 231:Drivers/User_Driver/Src/rtc_i2c.c **** }
ARM GAS  C:\Users\86158\AppData\Local\Temp\cc2g9Wou.s 			page 46


 1793              		.loc 1 231 8 view .LVU525
 1794              	.LBE137:
 1795              	.LBE136:
 377:Drivers/User_Driver/Src/rtc_i2c.c **** 	rtc_scl_l();
 1796              		.loc 1 377 2 is_stmt 1 view .LVU526
 1797 0072 FFF7FEFF 		bl	rtc_scl_l
 1798              	.LVL162:
 378:Drivers/User_Driver/Src/rtc_i2c.c ****     rtc_sda_out();
 1799              		.loc 1 378 5 view .LVU527
 1800              	.LBB138:
 1801              	.LBI138:
 213:Drivers/User_Driver/Src/rtc_i2c.c **** {
 1802              		.loc 1 213 20 view .LVU528
 1803              	.LBB139:
 216:Drivers/User_Driver/Src/rtc_i2c.c **** 	GPIO_InitStruct.Pin = g_i2c.pinSdaOut;
 1804              		.loc 1 216 4 view .LVU529
 216:Drivers/User_Driver/Src/rtc_i2c.c **** 	GPIO_InitStruct.Pin = g_i2c.pinSdaOut;
 1805              		.loc 1 216 21 is_stmt 0 view .LVU530
 1806 0076 0023     		movs	r3, #0
 1807 0078 0193     		str	r3, [sp, #4]
 1808 007a 0293     		str	r3, [sp, #8]
 1809 007c 0393     		str	r3, [sp, #12]
 1810 007e 0493     		str	r3, [sp, #16]
 1811 0080 0593     		str	r3, [sp, #20]
 217:Drivers/User_Driver/Src/rtc_i2c.c **** 	GPIO_InitStruct.Mode = GPIO_MODE_OUTPUT_OD;
 1812              		.loc 1 217 2 is_stmt 1 view .LVU531
 217:Drivers/User_Driver/Src/rtc_i2c.c **** 	GPIO_InitStruct.Mode = GPIO_MODE_OUTPUT_OD;
 1813              		.loc 1 217 29 is_stmt 0 view .LVU532
 1814 0082 064B     		ldr	r3, .L113
 1815 0084 9A89     		ldrh	r2, [r3, #12]
 217:Drivers/User_Driver/Src/rtc_i2c.c **** 	GPIO_InitStruct.Mode = GPIO_MODE_OUTPUT_OD;
 1816              		.loc 1 217 22 view .LVU533
 1817 0086 0192     		str	r2, [sp, #4]
 218:Drivers/User_Driver/Src/rtc_i2c.c **** 	GPIO_InitStruct.Pull = GPIO_NOPULL;
 1818              		.loc 1 218 2 is_stmt 1 view .LVU534
 218:Drivers/User_Driver/Src/rtc_i2c.c **** 	GPIO_InitStruct.Pull = GPIO_NOPULL;
 1819              		.loc 1 218 23 is_stmt 0 view .LVU535
 1820 0088 1122     		movs	r2, #17
 1821 008a 0292     		str	r2, [sp, #8]
 219:Drivers/User_Driver/Src/rtc_i2c.c **** 	GPIO_InitStruct.Speed = GPIO_SPEED_FREQ_LOW;
 1822              		.loc 1 219 2 is_stmt 1 view .LVU536
 220:Drivers/User_Driver/Src/rtc_i2c.c **** 	HAL_GPIO_Init(g_i2c.busSdaOut, &GPIO_InitStruct);
 1823              		.loc 1 220 2 view .LVU537
 221:Drivers/User_Driver/Src/rtc_i2c.c **** }
 1824              		.loc 1 221 2 view .LVU538
 1825 008c 01A9     		add	r1, sp, #4
 1826 008e 9868     		ldr	r0, [r3, #8]
 1827 0090 FFF7FEFF 		bl	HAL_GPIO_Init
 1828              	.LVL163:
 1829              	.LBE139:
 1830              	.LBE138:
 379:Drivers/User_Driver/Src/rtc_i2c.c **** 	return data;
 1831              		.loc 1 379 2 view .LVU539
 380:Drivers/User_Driver/Src/rtc_i2c.c **** }
 1832              		.loc 1 380 1 is_stmt 0 view .LVU540
 1833 0094 2846     		mov	r0, r5
 1834 0096 07B0     		add	sp, sp, #28
ARM GAS  C:\Users\86158\AppData\Local\Temp\cc2g9Wou.s 			page 47


 1835              	.LCFI28:
 1836              		.cfi_def_cfa_offset 12
 1837              		@ sp needed
 1838 0098 30BD     		pop	{r4, r5, pc}
 1839              	.LVL164:
 1840              	.L114:
 1841              		.loc 1 380 1 view .LVU541
 1842 009a 00BF     		.align	2
 1843              	.L113:
 1844 009c 00000000 		.word	.LANCHOR0
 1845 00a0 00000000 		.word	.LANCHOR2
 1846              		.cfi_endproc
 1847              	.LFE253:
 1849              		.section	.text.rtc_write_multi_bytes,"ax",%progbits
 1850              		.align	1
 1851              		.global	rtc_write_multi_bytes
 1852              		.syntax unified
 1853              		.thumb
 1854              		.thumb_func
 1856              	rtc_write_multi_bytes:
 1857              	.LVL165:
 1858              	.LFB254:
 381:Drivers/User_Driver/Src/rtc_i2c.c **** 
 382:Drivers/User_Driver/Src/rtc_i2c.c **** /**
 383:Drivers/User_Driver/Src/rtc_i2c.c ****  * @brief Write multiple bytes to slave 
 384:Drivers/User_Driver/Src/rtc_i2c.c ****  * 
 385:Drivers/User_Driver/Src/rtc_i2c.c ****  */
 386:Drivers/User_Driver/Src/rtc_i2c.c **** i2c_exit_code_e rtc_write_multi_bytes(unsigned char dev_addr, unsigned char reg_addr, const unsigne
 387:Drivers/User_Driver/Src/rtc_i2c.c **** {
 1859              		.loc 1 387 1 is_stmt 1 view -0
 1860              		.cfi_startproc
 1861              		@ args = 0, pretend = 0, frame = 0
 1862              		@ frame_needed = 0, uses_anonymous_args = 0
 1863              		.loc 1 387 1 is_stmt 0 view .LVU543
 1864 0000 F8B5     		push	{r3, r4, r5, r6, r7, lr}
 1865              	.LCFI29:
 1866              		.cfi_def_cfa_offset 24
 1867              		.cfi_offset 3, -24
 1868              		.cfi_offset 4, -20
 1869              		.cfi_offset 5, -16
 1870              		.cfi_offset 6, -12
 1871              		.cfi_offset 7, -8
 1872              		.cfi_offset 14, -4
 1873 0002 0446     		mov	r4, r0
 1874 0004 0F46     		mov	r7, r1
 1875 0006 1646     		mov	r6, r2
 1876 0008 1D46     		mov	r5, r3
 388:Drivers/User_Driver/Src/rtc_i2c.c ****     unsigned short i;
 1877              		.loc 1 388 5 is_stmt 1 view .LVU544
 389:Drivers/User_Driver/Src/rtc_i2c.c **** 
 390:Drivers/User_Driver/Src/rtc_i2c.c ****     if (rtc_start() != I2C_OK)
 1878              		.loc 1 390 5 view .LVU545
 1879              		.loc 1 390 9 is_stmt 0 view .LVU546
 1880 000a FFF7FEFF 		bl	rtc_start
 1881              	.LVL166:
 1882              		.loc 1 390 8 view .LVU547
 1883 000e 10B1     		cbz	r0, .L123
ARM GAS  C:\Users\86158\AppData\Local\Temp\cc2g9Wou.s 			page 48


 391:Drivers/User_Driver/Src/rtc_i2c.c **** 		return I2C_START_FAIL;
 1884              		.loc 1 391 10 view .LVU548
 1885 0010 0127     		movs	r7, #1
 1886              	.L116:
 392:Drivers/User_Driver/Src/rtc_i2c.c **** 
 393:Drivers/User_Driver/Src/rtc_i2c.c ****     rtc_send_byte(dev_addr);
 394:Drivers/User_Driver/Src/rtc_i2c.c **** 	if (rtc_wait_ack() != I2C_OK)
 395:Drivers/User_Driver/Src/rtc_i2c.c **** 	{
 396:Drivers/User_Driver/Src/rtc_i2c.c **** 		rtc_stop(); 
 397:Drivers/User_Driver/Src/rtc_i2c.c **** 		return I2C_NO_ACK;
 398:Drivers/User_Driver/Src/rtc_i2c.c **** 	}
 399:Drivers/User_Driver/Src/rtc_i2c.c **** 	rtc_send_byte(reg_addr);
 400:Drivers/User_Driver/Src/rtc_i2c.c **** 	if (rtc_wait_ack() != I2C_OK)
 401:Drivers/User_Driver/Src/rtc_i2c.c **** 	{
 402:Drivers/User_Driver/Src/rtc_i2c.c **** 		rtc_stop(); 
 403:Drivers/User_Driver/Src/rtc_i2c.c **** 		return I2C_NO_ACK;
 404:Drivers/User_Driver/Src/rtc_i2c.c **** 	}
 405:Drivers/User_Driver/Src/rtc_i2c.c ****     for (i = 0; i < size; i++)
 406:Drivers/User_Driver/Src/rtc_i2c.c ****     {
 407:Drivers/User_Driver/Src/rtc_i2c.c ****     	rtc_send_byte(*(buf + i));
 408:Drivers/User_Driver/Src/rtc_i2c.c ****     	rtc_wait_ack();
 409:Drivers/User_Driver/Src/rtc_i2c.c ****     }
 410:Drivers/User_Driver/Src/rtc_i2c.c ****     rtc_stop();
 411:Drivers/User_Driver/Src/rtc_i2c.c **** 
 412:Drivers/User_Driver/Src/rtc_i2c.c **** 	return	I2C_OK;
 413:Drivers/User_Driver/Src/rtc_i2c.c **** }
 1887              		.loc 1 413 1 view .LVU549
 1888 0012 3846     		mov	r0, r7
 1889 0014 F8BD     		pop	{r3, r4, r5, r6, r7, pc}
 1890              	.LVL167:
 1891              	.L123:
 393:Drivers/User_Driver/Src/rtc_i2c.c **** 	if (rtc_wait_ack() != I2C_OK)
 1892              		.loc 1 393 5 is_stmt 1 view .LVU550
 1893 0016 2046     		mov	r0, r4
 1894 0018 FFF7FEFF 		bl	rtc_send_byte
 1895              	.LVL168:
 394:Drivers/User_Driver/Src/rtc_i2c.c **** 	{
 1896              		.loc 1 394 2 view .LVU551
 394:Drivers/User_Driver/Src/rtc_i2c.c **** 	{
 1897              		.loc 1 394 6 is_stmt 0 view .LVU552
 1898 001c FFF7FEFF 		bl	rtc_wait_ack
 1899              	.LVL169:
 394:Drivers/User_Driver/Src/rtc_i2c.c **** 	{
 1900              		.loc 1 394 5 view .LVU553
 1901 0020 40B9     		cbnz	r0, .L124
 399:Drivers/User_Driver/Src/rtc_i2c.c **** 	if (rtc_wait_ack() != I2C_OK)
 1902              		.loc 1 399 2 is_stmt 1 view .LVU554
 1903 0022 3846     		mov	r0, r7
 1904 0024 FFF7FEFF 		bl	rtc_send_byte
 1905              	.LVL170:
 400:Drivers/User_Driver/Src/rtc_i2c.c **** 	{
 1906              		.loc 1 400 2 view .LVU555
 400:Drivers/User_Driver/Src/rtc_i2c.c **** 	{
 1907              		.loc 1 400 6 is_stmt 0 view .LVU556
 1908 0028 FFF7FEFF 		bl	rtc_wait_ack
 1909              	.LVL171:
 400:Drivers/User_Driver/Src/rtc_i2c.c **** 	{
ARM GAS  C:\Users\86158\AppData\Local\Temp\cc2g9Wou.s 			page 49


 1910              		.loc 1 400 5 view .LVU557
 1911 002c 0746     		mov	r7, r0
 1912 002e 28B9     		cbnz	r0, .L125
 405:Drivers/User_Driver/Src/rtc_i2c.c ****     {
 1913              		.loc 1 405 12 view .LVU558
 1914 0030 0024     		movs	r4, #0
 1915 0032 0EE0     		b	.L118
 1916              	.L124:
 396:Drivers/User_Driver/Src/rtc_i2c.c **** 		return I2C_NO_ACK;
 1917              		.loc 1 396 3 is_stmt 1 view .LVU559
 1918 0034 FFF7FEFF 		bl	rtc_stop
 1919              	.LVL172:
 397:Drivers/User_Driver/Src/rtc_i2c.c **** 	}
 1920              		.loc 1 397 3 view .LVU560
 397:Drivers/User_Driver/Src/rtc_i2c.c **** 	}
 1921              		.loc 1 397 10 is_stmt 0 view .LVU561
 1922 0038 0227     		movs	r7, #2
 1923 003a EAE7     		b	.L116
 1924              	.L125:
 402:Drivers/User_Driver/Src/rtc_i2c.c **** 		return I2C_NO_ACK;
 1925              		.loc 1 402 3 is_stmt 1 view .LVU562
 1926 003c FFF7FEFF 		bl	rtc_stop
 1927              	.LVL173:
 403:Drivers/User_Driver/Src/rtc_i2c.c **** 	}
 1928              		.loc 1 403 3 view .LVU563
 403:Drivers/User_Driver/Src/rtc_i2c.c **** 	}
 1929              		.loc 1 403 10 is_stmt 0 view .LVU564
 1930 0040 0227     		movs	r7, #2
 1931 0042 E6E7     		b	.L116
 1932              	.LVL174:
 1933              	.L119:
 407:Drivers/User_Driver/Src/rtc_i2c.c ****     	rtc_wait_ack();
 1934              		.loc 1 407 6 is_stmt 1 discriminator 3 view .LVU565
 1935 0044 305D     		ldrb	r0, [r6, r4]	@ zero_extendqisi2
 1936 0046 FFF7FEFF 		bl	rtc_send_byte
 1937              	.LVL175:
 408:Drivers/User_Driver/Src/rtc_i2c.c ****     }
 1938              		.loc 1 408 6 discriminator 3 view .LVU566
 1939 004a FFF7FEFF 		bl	rtc_wait_ack
 1940              	.LVL176:
 405:Drivers/User_Driver/Src/rtc_i2c.c ****     {
 1941              		.loc 1 405 27 discriminator 3 view .LVU567
 405:Drivers/User_Driver/Src/rtc_i2c.c ****     {
 1942              		.loc 1 405 28 is_stmt 0 discriminator 3 view .LVU568
 1943 004e 0134     		adds	r4, r4, #1
 1944              	.LVL177:
 405:Drivers/User_Driver/Src/rtc_i2c.c ****     {
 1945              		.loc 1 405 28 discriminator 3 view .LVU569
 1946 0050 A4B2     		uxth	r4, r4
 1947              	.LVL178:
 1948              	.L118:
 405:Drivers/User_Driver/Src/rtc_i2c.c ****     {
 1949              		.loc 1 405 17 is_stmt 1 discriminator 1 view .LVU570
 405:Drivers/User_Driver/Src/rtc_i2c.c ****     {
 1950              		.loc 1 405 5 is_stmt 0 discriminator 1 view .LVU571
 1951 0052 AC42     		cmp	r4, r5
 1952 0054 F6D3     		bcc	.L119
ARM GAS  C:\Users\86158\AppData\Local\Temp\cc2g9Wou.s 			page 50


 410:Drivers/User_Driver/Src/rtc_i2c.c **** 
 1953              		.loc 1 410 5 is_stmt 1 view .LVU572
 1954 0056 FFF7FEFF 		bl	rtc_stop
 1955              	.LVL179:
 412:Drivers/User_Driver/Src/rtc_i2c.c **** }
 1956              		.loc 1 412 2 view .LVU573
 412:Drivers/User_Driver/Src/rtc_i2c.c **** }
 1957              		.loc 1 412 9 is_stmt 0 view .LVU574
 1958 005a DAE7     		b	.L116
 1959              		.cfi_endproc
 1960              	.LFE254:
 1962              		.section	.text.rtc_read_multi_bytes,"ax",%progbits
 1963              		.align	1
 1964              		.global	rtc_read_multi_bytes
 1965              		.syntax unified
 1966              		.thumb
 1967              		.thumb_func
 1969              	rtc_read_multi_bytes:
 1970              	.LVL180:
 1971              	.LFB255:
 414:Drivers/User_Driver/Src/rtc_i2c.c **** 
 415:Drivers/User_Driver/Src/rtc_i2c.c **** /**
 416:Drivers/User_Driver/Src/rtc_i2c.c ****  * @brief Read multiple bytes from slave 
 417:Drivers/User_Driver/Src/rtc_i2c.c ****  * 
 418:Drivers/User_Driver/Src/rtc_i2c.c ****  */
 419:Drivers/User_Driver/Src/rtc_i2c.c **** i2c_exit_code_e rtc_read_multi_bytes(unsigned char dev_addr, unsigned char reg_addr, unsigned char 
 420:Drivers/User_Driver/Src/rtc_i2c.c **** {
 1972              		.loc 1 420 1 is_stmt 1 view -0
 1973              		.cfi_startproc
 1974              		@ args = 0, pretend = 0, frame = 0
 1975              		@ frame_needed = 0, uses_anonymous_args = 0
 1976              		.loc 1 420 1 is_stmt 0 view .LVU576
 1977 0000 F8B5     		push	{r3, r4, r5, r6, r7, lr}
 1978              	.LCFI30:
 1979              		.cfi_def_cfa_offset 24
 1980              		.cfi_offset 3, -24
 1981              		.cfi_offset 4, -20
 1982              		.cfi_offset 5, -16
 1983              		.cfi_offset 6, -12
 1984              		.cfi_offset 7, -8
 1985              		.cfi_offset 14, -4
 1986 0002 0446     		mov	r4, r0
 1987 0004 0F46     		mov	r7, r1
 1988 0006 1646     		mov	r6, r2
 1989 0008 1D46     		mov	r5, r3
 421:Drivers/User_Driver/Src/rtc_i2c.c **** 	unsigned short i;
 1990              		.loc 1 421 2 is_stmt 1 view .LVU577
 422:Drivers/User_Driver/Src/rtc_i2c.c **** 
 423:Drivers/User_Driver/Src/rtc_i2c.c **** 	if(rtc_start() != I2C_OK)
 1991              		.loc 1 423 2 view .LVU578
 1992              		.loc 1 423 5 is_stmt 0 view .LVU579
 1993 000a FFF7FEFF 		bl	rtc_start
 1994              	.LVL181:
 1995              		.loc 1 423 4 view .LVU580
 1996 000e 10B1     		cbz	r0, .L135
 424:Drivers/User_Driver/Src/rtc_i2c.c **** 		return I2C_START_FAIL;
 1997              		.loc 1 424 10 view .LVU581
ARM GAS  C:\Users\86158\AppData\Local\Temp\cc2g9Wou.s 			page 51


 1998 0010 0127     		movs	r7, #1
 1999              	.L127:
 425:Drivers/User_Driver/Src/rtc_i2c.c **** 	/*send device address*/
 426:Drivers/User_Driver/Src/rtc_i2c.c **** 	rtc_send_byte(dev_addr);
 427:Drivers/User_Driver/Src/rtc_i2c.c **** 	if(rtc_wait_ack() != I2C_OK)
 428:Drivers/User_Driver/Src/rtc_i2c.c **** 	{
 429:Drivers/User_Driver/Src/rtc_i2c.c **** 		rtc_stop(); 
 430:Drivers/User_Driver/Src/rtc_i2c.c **** 		return I2C_NO_ACK;
 431:Drivers/User_Driver/Src/rtc_i2c.c **** 	}
 432:Drivers/User_Driver/Src/rtc_i2c.c **** 	/*send register address*/
 433:Drivers/User_Driver/Src/rtc_i2c.c **** 	rtc_send_byte(reg_addr);
 434:Drivers/User_Driver/Src/rtc_i2c.c **** 	if (rtc_wait_ack() != I2C_OK)
 435:Drivers/User_Driver/Src/rtc_i2c.c **** 	{
 436:Drivers/User_Driver/Src/rtc_i2c.c **** 		rtc_stop(); 
 437:Drivers/User_Driver/Src/rtc_i2c.c **** 		return I2C_NO_ACK;
 438:Drivers/User_Driver/Src/rtc_i2c.c **** 	}
 439:Drivers/User_Driver/Src/rtc_i2c.c **** 	/*restart and send read device address*/
 440:Drivers/User_Driver/Src/rtc_i2c.c **** 	rtc_start();
 441:Drivers/User_Driver/Src/rtc_i2c.c **** 	rtc_send_byte(dev_addr | 0x01);
 442:Drivers/User_Driver/Src/rtc_i2c.c **** 	rtc_wait_ack();
 443:Drivers/User_Driver/Src/rtc_i2c.c **** 	for (i = 0; i < size; i++)
 444:Drivers/User_Driver/Src/rtc_i2c.c **** 	{
 445:Drivers/User_Driver/Src/rtc_i2c.c **** 		*(buf+i) = rtc_receive_byte();
 446:Drivers/User_Driver/Src/rtc_i2c.c **** 
 447:Drivers/User_Driver/Src/rtc_i2c.c **** 		if (i != size-1) { rtc_ack(); }			
 448:Drivers/User_Driver/Src/rtc_i2c.c **** 	}
 449:Drivers/User_Driver/Src/rtc_i2c.c **** 	rtc_nack();
 450:Drivers/User_Driver/Src/rtc_i2c.c **** 	rtc_stop();
 451:Drivers/User_Driver/Src/rtc_i2c.c **** 
 452:Drivers/User_Driver/Src/rtc_i2c.c **** 	return  I2C_OK;
 453:Drivers/User_Driver/Src/rtc_i2c.c **** }
 2000              		.loc 1 453 1 view .LVU582
 2001 0012 3846     		mov	r0, r7
 2002 0014 F8BD     		pop	{r3, r4, r5, r6, r7, pc}
 2003              	.LVL182:
 2004              	.L135:
 426:Drivers/User_Driver/Src/rtc_i2c.c **** 	if(rtc_wait_ack() != I2C_OK)
 2005              		.loc 1 426 2 is_stmt 1 view .LVU583
 2006 0016 2046     		mov	r0, r4
 2007 0018 FFF7FEFF 		bl	rtc_send_byte
 2008              	.LVL183:
 427:Drivers/User_Driver/Src/rtc_i2c.c **** 	{
 2009              		.loc 1 427 2 view .LVU584
 427:Drivers/User_Driver/Src/rtc_i2c.c **** 	{
 2010              		.loc 1 427 5 is_stmt 0 view .LVU585
 2011 001c FFF7FEFF 		bl	rtc_wait_ack
 2012              	.LVL184:
 427:Drivers/User_Driver/Src/rtc_i2c.c **** 	{
 2013              		.loc 1 427 4 view .LVU586
 2014 0020 80B9     		cbnz	r0, .L136
 433:Drivers/User_Driver/Src/rtc_i2c.c **** 	if (rtc_wait_ack() != I2C_OK)
 2015              		.loc 1 433 2 is_stmt 1 view .LVU587
 2016 0022 3846     		mov	r0, r7
 2017 0024 FFF7FEFF 		bl	rtc_send_byte
 2018              	.LVL185:
 434:Drivers/User_Driver/Src/rtc_i2c.c **** 	{
 2019              		.loc 1 434 2 view .LVU588
ARM GAS  C:\Users\86158\AppData\Local\Temp\cc2g9Wou.s 			page 52


 434:Drivers/User_Driver/Src/rtc_i2c.c **** 	{
 2020              		.loc 1 434 6 is_stmt 0 view .LVU589
 2021 0028 FFF7FEFF 		bl	rtc_wait_ack
 2022              	.LVL186:
 434:Drivers/User_Driver/Src/rtc_i2c.c **** 	{
 2023              		.loc 1 434 5 view .LVU590
 2024 002c 0746     		mov	r7, r0
 2025 002e 68B9     		cbnz	r0, .L137
 440:Drivers/User_Driver/Src/rtc_i2c.c **** 	rtc_send_byte(dev_addr | 0x01);
 2026              		.loc 1 440 2 is_stmt 1 view .LVU591
 2027 0030 FFF7FEFF 		bl	rtc_start
 2028              	.LVL187:
 441:Drivers/User_Driver/Src/rtc_i2c.c **** 	rtc_wait_ack();
 2029              		.loc 1 441 2 view .LVU592
 2030 0034 44F00100 		orr	r0, r4, #1
 2031 0038 FFF7FEFF 		bl	rtc_send_byte
 2032              	.LVL188:
 442:Drivers/User_Driver/Src/rtc_i2c.c **** 	for (i = 0; i < size; i++)
 2033              		.loc 1 442 2 view .LVU593
 2034 003c FFF7FEFF 		bl	rtc_wait_ack
 2035              	.LVL189:
 443:Drivers/User_Driver/Src/rtc_i2c.c **** 	{
 2036              		.loc 1 443 2 view .LVU594
 443:Drivers/User_Driver/Src/rtc_i2c.c **** 	{
 2037              		.loc 1 443 9 is_stmt 0 view .LVU595
 2038 0040 0024     		movs	r4, #0
 443:Drivers/User_Driver/Src/rtc_i2c.c **** 	{
 2039              		.loc 1 443 2 view .LVU596
 2040 0042 09E0     		b	.L130
 2041              	.LVL190:
 2042              	.L136:
 429:Drivers/User_Driver/Src/rtc_i2c.c **** 		return I2C_NO_ACK;
 2043              		.loc 1 429 3 is_stmt 1 view .LVU597
 2044 0044 FFF7FEFF 		bl	rtc_stop
 2045              	.LVL191:
 430:Drivers/User_Driver/Src/rtc_i2c.c **** 	}
 2046              		.loc 1 430 3 view .LVU598
 430:Drivers/User_Driver/Src/rtc_i2c.c **** 	}
 2047              		.loc 1 430 10 is_stmt 0 view .LVU599
 2048 0048 0227     		movs	r7, #2
 2049 004a E2E7     		b	.L127
 2050              	.L137:
 436:Drivers/User_Driver/Src/rtc_i2c.c **** 		return I2C_NO_ACK;
 2051              		.loc 1 436 3 is_stmt 1 view .LVU600
 2052 004c FFF7FEFF 		bl	rtc_stop
 2053              	.LVL192:
 437:Drivers/User_Driver/Src/rtc_i2c.c **** 	}
 2054              		.loc 1 437 3 view .LVU601
 437:Drivers/User_Driver/Src/rtc_i2c.c **** 	}
 2055              		.loc 1 437 10 is_stmt 0 view .LVU602
 2056 0050 0227     		movs	r7, #2
 2057 0052 DEE7     		b	.L127
 2058              	.LVL193:
 2059              	.L131:
 443:Drivers/User_Driver/Src/rtc_i2c.c **** 	{
 2060              		.loc 1 443 24 is_stmt 1 discriminator 2 view .LVU603
 443:Drivers/User_Driver/Src/rtc_i2c.c **** 	{
ARM GAS  C:\Users\86158\AppData\Local\Temp\cc2g9Wou.s 			page 53


 2061              		.loc 1 443 25 is_stmt 0 discriminator 2 view .LVU604
 2062 0054 0134     		adds	r4, r4, #1
 2063              	.LVL194:
 443:Drivers/User_Driver/Src/rtc_i2c.c **** 	{
 2064              		.loc 1 443 25 discriminator 2 view .LVU605
 2065 0056 A4B2     		uxth	r4, r4
 2066              	.LVL195:
 2067              	.L130:
 443:Drivers/User_Driver/Src/rtc_i2c.c **** 	{
 2068              		.loc 1 443 14 is_stmt 1 discriminator 1 view .LVU606
 443:Drivers/User_Driver/Src/rtc_i2c.c **** 	{
 2069              		.loc 1 443 2 is_stmt 0 discriminator 1 view .LVU607
 2070 0058 AC42     		cmp	r4, r5
 2071 005a 08D2     		bcs	.L138
 445:Drivers/User_Driver/Src/rtc_i2c.c **** 
 2072              		.loc 1 445 3 is_stmt 1 view .LVU608
 445:Drivers/User_Driver/Src/rtc_i2c.c **** 
 2073              		.loc 1 445 14 is_stmt 0 view .LVU609
 2074 005c FFF7FEFF 		bl	rtc_receive_byte
 2075              	.LVL196:
 445:Drivers/User_Driver/Src/rtc_i2c.c **** 
 2076              		.loc 1 445 12 view .LVU610
 2077 0060 3055     		strb	r0, [r6, r4]
 447:Drivers/User_Driver/Src/rtc_i2c.c **** 	}
 2078              		.loc 1 447 3 is_stmt 1 view .LVU611
 447:Drivers/User_Driver/Src/rtc_i2c.c **** 	}
 2079              		.loc 1 447 16 is_stmt 0 view .LVU612
 2080 0062 6B1E     		subs	r3, r5, #1
 447:Drivers/User_Driver/Src/rtc_i2c.c **** 	}
 2081              		.loc 1 447 6 view .LVU613
 2082 0064 9C42     		cmp	r4, r3
 2083 0066 F5D0     		beq	.L131
 447:Drivers/User_Driver/Src/rtc_i2c.c **** 	}
 2084              		.loc 1 447 22 is_stmt 1 discriminator 1 view .LVU614
 2085 0068 FFF7FEFF 		bl	rtc_ack
 2086              	.LVL197:
 2087 006c F2E7     		b	.L131
 2088              	.L138:
 449:Drivers/User_Driver/Src/rtc_i2c.c **** 	rtc_stop();
 2089              		.loc 1 449 2 view .LVU615
 2090 006e FFF7FEFF 		bl	rtc_nack
 2091              	.LVL198:
 450:Drivers/User_Driver/Src/rtc_i2c.c **** 
 2092              		.loc 1 450 2 view .LVU616
 2093 0072 FFF7FEFF 		bl	rtc_stop
 2094              	.LVL199:
 452:Drivers/User_Driver/Src/rtc_i2c.c **** }
 2095              		.loc 1 452 2 view .LVU617
 452:Drivers/User_Driver/Src/rtc_i2c.c **** }
 2096              		.loc 1 452 10 is_stmt 0 view .LVU618
 2097 0076 CCE7     		b	.L127
 2098              		.cfi_endproc
 2099              	.LFE255:
 2101              		.section	.text.spi_CS_H,"ax",%progbits
 2102              		.align	1
 2103              		.global	spi_CS_H
 2104              		.syntax unified
ARM GAS  C:\Users\86158\AppData\Local\Temp\cc2g9Wou.s 			page 54


 2105              		.thumb
 2106              		.thumb_func
 2108              	spi_CS_H:
 2109              	.LFB256:
 454:Drivers/User_Driver/Src/rtc_i2c.c **** 
 455:Drivers/User_Driver/Src/rtc_i2c.c **** 
 456:Drivers/User_Driver/Src/rtc_i2c.c **** //-----------------------------------------------soft spi  start-----------------------------------
 457:Drivers/User_Driver/Src/rtc_i2c.c **** 
 458:Drivers/User_Driver/Src/rtc_i2c.c **** void spi_CS_H(void)
 459:Drivers/User_Driver/Src/rtc_i2c.c **** {
 2110              		.loc 1 459 1 is_stmt 1 view -0
 2111              		.cfi_startproc
 2112              		@ args = 0, pretend = 0, frame = 0
 2113              		@ frame_needed = 0, uses_anonymous_args = 0
 2114 0000 08B5     		push	{r3, lr}
 2115              	.LCFI31:
 2116              		.cfi_def_cfa_offset 8
 2117              		.cfi_offset 3, -8
 2118              		.cfi_offset 14, -4
 460:Drivers/User_Driver/Src/rtc_i2c.c **** 	HAL_GPIO_WritePin(g_spi.busCE, g_spi.pinCE, GPIO_PIN_RESET);
 2119              		.loc 1 460 2 view .LVU620
 2120 0002 034B     		ldr	r3, .L141
 2121 0004 0022     		movs	r2, #0
 2122 0006 9988     		ldrh	r1, [r3, #4]
 2123 0008 1868     		ldr	r0, [r3]
 2124 000a FFF7FEFF 		bl	HAL_GPIO_WritePin
 2125              	.LVL200:
 461:Drivers/User_Driver/Src/rtc_i2c.c **** }
 2126              		.loc 1 461 1 is_stmt 0 view .LVU621
 2127 000e 08BD     		pop	{r3, pc}
 2128              	.L142:
 2129              		.align	2
 2130              	.L141:
 2131 0010 00000000 		.word	.LANCHOR3
 2132              		.cfi_endproc
 2133              	.LFE256:
 2135              		.section	.text.spi_CS_L,"ax",%progbits
 2136              		.align	1
 2137              		.global	spi_CS_L
 2138              		.syntax unified
 2139              		.thumb
 2140              		.thumb_func
 2142              	spi_CS_L:
 2143              	.LFB257:
 462:Drivers/User_Driver/Src/rtc_i2c.c **** 
 463:Drivers/User_Driver/Src/rtc_i2c.c **** void spi_CS_L(void)
 464:Drivers/User_Driver/Src/rtc_i2c.c **** {
 2144              		.loc 1 464 1 is_stmt 1 view -0
 2145              		.cfi_startproc
 2146              		@ args = 0, pretend = 0, frame = 0
 2147              		@ frame_needed = 0, uses_anonymous_args = 0
 2148 0000 08B5     		push	{r3, lr}
 2149              	.LCFI32:
 2150              		.cfi_def_cfa_offset 8
 2151              		.cfi_offset 3, -8
 2152              		.cfi_offset 14, -4
 465:Drivers/User_Driver/Src/rtc_i2c.c **** 	HAL_GPIO_WritePin(g_spi.busCE, g_spi.pinCE, GPIO_PIN_SET);
ARM GAS  C:\Users\86158\AppData\Local\Temp\cc2g9Wou.s 			page 55


 2153              		.loc 1 465 2 view .LVU623
 2154 0002 034B     		ldr	r3, .L145
 2155 0004 0122     		movs	r2, #1
 2156 0006 9988     		ldrh	r1, [r3, #4]
 2157 0008 1868     		ldr	r0, [r3]
 2158 000a FFF7FEFF 		bl	HAL_GPIO_WritePin
 2159              	.LVL201:
 466:Drivers/User_Driver/Src/rtc_i2c.c **** }
 2160              		.loc 1 466 1 is_stmt 0 view .LVU624
 2161 000e 08BD     		pop	{r3, pc}
 2162              	.L146:
 2163              		.align	2
 2164              	.L145:
 2165 0010 00000000 		.word	.LANCHOR3
 2166              		.cfi_endproc
 2167              	.LFE257:
 2169              		.section	.text.spi_CLK_H,"ax",%progbits
 2170              		.align	1
 2171              		.global	spi_CLK_H
 2172              		.syntax unified
 2173              		.thumb
 2174              		.thumb_func
 2176              	spi_CLK_H:
 2177              	.LFB258:
 467:Drivers/User_Driver/Src/rtc_i2c.c **** 
 468:Drivers/User_Driver/Src/rtc_i2c.c **** void spi_CLK_H(void)
 469:Drivers/User_Driver/Src/rtc_i2c.c **** {
 2178              		.loc 1 469 1 is_stmt 1 view -0
 2179              		.cfi_startproc
 2180              		@ args = 0, pretend = 0, frame = 0
 2181              		@ frame_needed = 0, uses_anonymous_args = 0
 2182 0000 08B5     		push	{r3, lr}
 2183              	.LCFI33:
 2184              		.cfi_def_cfa_offset 8
 2185              		.cfi_offset 3, -8
 2186              		.cfi_offset 14, -4
 470:Drivers/User_Driver/Src/rtc_i2c.c **** 	HAL_GPIO_WritePin(g_spi.busCLK, g_spi.pinCLK, GPIO_PIN_SET);
 2187              		.loc 1 470 2 view .LVU626
 2188 0002 034B     		ldr	r3, .L149
 2189 0004 0122     		movs	r2, #1
 2190 0006 9989     		ldrh	r1, [r3, #12]
 2191 0008 9868     		ldr	r0, [r3, #8]
 2192 000a FFF7FEFF 		bl	HAL_GPIO_WritePin
 2193              	.LVL202:
 471:Drivers/User_Driver/Src/rtc_i2c.c **** }
 2194              		.loc 1 471 1 is_stmt 0 view .LVU627
 2195 000e 08BD     		pop	{r3, pc}
 2196              	.L150:
 2197              		.align	2
 2198              	.L149:
 2199 0010 00000000 		.word	.LANCHOR3
 2200              		.cfi_endproc
 2201              	.LFE258:
 2203              		.section	.text.spi_CLK_L,"ax",%progbits
 2204              		.align	1
 2205              		.global	spi_CLK_L
 2206              		.syntax unified
ARM GAS  C:\Users\86158\AppData\Local\Temp\cc2g9Wou.s 			page 56


 2207              		.thumb
 2208              		.thumb_func
 2210              	spi_CLK_L:
 2211              	.LFB259:
 472:Drivers/User_Driver/Src/rtc_i2c.c **** 
 473:Drivers/User_Driver/Src/rtc_i2c.c **** void spi_CLK_L(void)
 474:Drivers/User_Driver/Src/rtc_i2c.c **** {
 2212              		.loc 1 474 1 is_stmt 1 view -0
 2213              		.cfi_startproc
 2214              		@ args = 0, pretend = 0, frame = 0
 2215              		@ frame_needed = 0, uses_anonymous_args = 0
 2216 0000 08B5     		push	{r3, lr}
 2217              	.LCFI34:
 2218              		.cfi_def_cfa_offset 8
 2219              		.cfi_offset 3, -8
 2220              		.cfi_offset 14, -4
 475:Drivers/User_Driver/Src/rtc_i2c.c **** 	HAL_GPIO_WritePin(g_spi.busCLK, g_spi.pinCLK, GPIO_PIN_RESET);
 2221              		.loc 1 475 2 view .LVU629
 2222 0002 034B     		ldr	r3, .L153
 2223 0004 0022     		movs	r2, #0
 2224 0006 9989     		ldrh	r1, [r3, #12]
 2225 0008 9868     		ldr	r0, [r3, #8]
 2226 000a FFF7FEFF 		bl	HAL_GPIO_WritePin
 2227              	.LVL203:
 476:Drivers/User_Driver/Src/rtc_i2c.c **** }
 2228              		.loc 1 476 1 is_stmt 0 view .LVU630
 2229 000e 08BD     		pop	{r3, pc}
 2230              	.L154:
 2231              		.align	2
 2232              	.L153:
 2233 0010 00000000 		.word	.LANCHOR3
 2234              		.cfi_endproc
 2235              	.LFE259:
 2237              		.section	.text.spi_send_one_byte,"ax",%progbits
 2238              		.align	1
 2239              		.global	spi_send_one_byte
 2240              		.syntax unified
 2241              		.thumb
 2242              		.thumb_func
 2244              	spi_send_one_byte:
 2245              	.LVL204:
 2246              	.LFB260:
 477:Drivers/User_Driver/Src/rtc_i2c.c **** 
 478:Drivers/User_Driver/Src/rtc_i2c.c **** void spi_send_one_byte(unsigned char buf)
 479:Drivers/User_Driver/Src/rtc_i2c.c **** {
 2247              		.loc 1 479 1 is_stmt 1 view -0
 2248              		.cfi_startproc
 2249              		@ args = 0, pretend = 0, frame = 0
 2250              		@ frame_needed = 0, uses_anonymous_args = 0
 2251              		.loc 1 479 1 is_stmt 0 view .LVU632
 2252 0000 38B5     		push	{r3, r4, r5, lr}
 2253              	.LCFI35:
 2254              		.cfi_def_cfa_offset 16
 2255              		.cfi_offset 3, -16
 2256              		.cfi_offset 4, -12
 2257              		.cfi_offset 5, -8
 2258              		.cfi_offset 14, -4
ARM GAS  C:\Users\86158\AppData\Local\Temp\cc2g9Wou.s 			page 57


 2259 0002 0446     		mov	r4, r0
 480:Drivers/User_Driver/Src/rtc_i2c.c **** 	uint8_t i;
 2260              		.loc 1 480 2 is_stmt 1 view .LVU633
 481:Drivers/User_Driver/Src/rtc_i2c.c **** 	spi_CLK_L();
 2261              		.loc 1 481 2 view .LVU634
 2262 0004 FFF7FEFF 		bl	spi_CLK_L
 2263              	.LVL205:
 482:Drivers/User_Driver/Src/rtc_i2c.c **** 	for (i = 0; i < 8; i++) {
 2264              		.loc 1 482 2 view .LVU635
 2265              		.loc 1 482 9 is_stmt 0 view .LVU636
 2266 0008 0025     		movs	r5, #0
 2267              		.loc 1 482 2 view .LVU637
 2268 000a 19E0     		b	.L156
 2269              	.LVL206:
 2270              	.L164:
 483:Drivers/User_Driver/Src/rtc_i2c.c **** 		if (buf & 0x80) {
 484:Drivers/User_Driver/Src/rtc_i2c.c **** 			HAL_GPIO_WritePin(g_spi.busMOSI, g_spi.pinMOSI, GPIO_PIN_SET);
 2271              		.loc 1 484 4 is_stmt 1 view .LVU638
 2272 000c 134B     		ldr	r3, .L165
 2273 000e 0122     		movs	r2, #1
 2274 0010 998A     		ldrh	r1, [r3, #20]
 2275 0012 1869     		ldr	r0, [r3, #16]
 2276 0014 FFF7FEFF 		bl	HAL_GPIO_WritePin
 2277              	.LVL207:
 2278              	.L158:
 485:Drivers/User_Driver/Src/rtc_i2c.c **** 		} else {
 486:Drivers/User_Driver/Src/rtc_i2c.c **** 			HAL_GPIO_WritePin(g_spi.busMOSI, g_spi.pinMOSI, GPIO_PIN_RESET);
 487:Drivers/User_Driver/Src/rtc_i2c.c **** 		}
 488:Drivers/User_Driver/Src/rtc_i2c.c **** 		rtc_Wait();
 2279              		.loc 1 488 3 discriminator 2 view .LVU639
 2280              	.LBB140:
 2281              	.LBI140:
 228:Drivers/User_Driver/Src/rtc_i2c.c **** {	
 2282              		.loc 1 228 20 discriminator 2 view .LVU640
 2283              	.LBB141:
 230:Drivers/User_Driver/Src/rtc_i2c.c **** 	while (i--);
 2284              		.loc 1 230 2 discriminator 2 view .LVU641
 230:Drivers/User_Driver/Src/rtc_i2c.c **** 	while (i--);
 2285              		.loc 1 230 6 is_stmt 0 discriminator 2 view .LVU642
 2286 0018 114B     		ldr	r3, .L165+4
 2287 001a 1B88     		ldrh	r3, [r3]
 2288              	.LVL208:
 231:Drivers/User_Driver/Src/rtc_i2c.c **** }
 2289              		.loc 1 231 2 is_stmt 1 discriminator 2 view .LVU643
 2290              	.L159:
 231:Drivers/User_Driver/Src/rtc_i2c.c **** }
 2291              		.loc 1 231 13 view .LVU644
 231:Drivers/User_Driver/Src/rtc_i2c.c **** }
 2292              		.loc 1 231 8 view .LVU645
 2293 001c 1A46     		mov	r2, r3
 231:Drivers/User_Driver/Src/rtc_i2c.c **** }
 2294              		.loc 1 231 10 is_stmt 0 view .LVU646
 2295 001e 013B     		subs	r3, r3, #1
 2296              	.LVL209:
 231:Drivers/User_Driver/Src/rtc_i2c.c **** }
 2297              		.loc 1 231 8 view .LVU647
 2298 0020 002A     		cmp	r2, #0
ARM GAS  C:\Users\86158\AppData\Local\Temp\cc2g9Wou.s 			page 58


 2299 0022 FBD1     		bne	.L159
 2300              	.LVL210:
 231:Drivers/User_Driver/Src/rtc_i2c.c **** }
 2301              		.loc 1 231 8 view .LVU648
 2302              	.LBE141:
 2303              	.LBE140:
 489:Drivers/User_Driver/Src/rtc_i2c.c **** 		spi_CLK_H();
 2304              		.loc 1 489 3 is_stmt 1 discriminator 2 view .LVU649
 2305 0024 FFF7FEFF 		bl	spi_CLK_H
 2306              	.LVL211:
 490:Drivers/User_Driver/Src/rtc_i2c.c **** 		rtc_Wait();
 2307              		.loc 1 490 3 discriminator 2 view .LVU650
 2308              	.LBB142:
 2309              	.LBI142:
 228:Drivers/User_Driver/Src/rtc_i2c.c **** {	
 2310              		.loc 1 228 20 discriminator 2 view .LVU651
 2311              	.LBB143:
 230:Drivers/User_Driver/Src/rtc_i2c.c **** 	while (i--);
 2312              		.loc 1 230 2 discriminator 2 view .LVU652
 230:Drivers/User_Driver/Src/rtc_i2c.c **** 	while (i--);
 2313              		.loc 1 230 6 is_stmt 0 discriminator 2 view .LVU653
 2314 0028 0D4B     		ldr	r3, .L165+4
 2315 002a 1B88     		ldrh	r3, [r3]
 2316              	.LVL212:
 231:Drivers/User_Driver/Src/rtc_i2c.c **** }
 2317              		.loc 1 231 2 is_stmt 1 discriminator 2 view .LVU654
 2318              	.L160:
 231:Drivers/User_Driver/Src/rtc_i2c.c **** }
 2319              		.loc 1 231 13 view .LVU655
 231:Drivers/User_Driver/Src/rtc_i2c.c **** }
 2320              		.loc 1 231 8 view .LVU656
 2321 002c 1A46     		mov	r2, r3
 231:Drivers/User_Driver/Src/rtc_i2c.c **** }
 2322              		.loc 1 231 10 is_stmt 0 view .LVU657
 2323 002e 013B     		subs	r3, r3, #1
 2324              	.LVL213:
 231:Drivers/User_Driver/Src/rtc_i2c.c **** }
 2325              		.loc 1 231 8 view .LVU658
 2326 0030 002A     		cmp	r2, #0
 2327 0032 FBD1     		bne	.L160
 2328              	.LVL214:
 231:Drivers/User_Driver/Src/rtc_i2c.c **** }
 2329              		.loc 1 231 8 view .LVU659
 2330              	.LBE143:
 2331              	.LBE142:
 491:Drivers/User_Driver/Src/rtc_i2c.c **** 		spi_CLK_L();
 2332              		.loc 1 491 3 is_stmt 1 discriminator 2 view .LVU660
 2333 0034 FFF7FEFF 		bl	spi_CLK_L
 2334              	.LVL215:
 492:Drivers/User_Driver/Src/rtc_i2c.c **** 		buf <<= 1;
 2335              		.loc 1 492 3 discriminator 2 view .LVU661
 2336              		.loc 1 492 7 is_stmt 0 discriminator 2 view .LVU662
 2337 0038 6400     		lsls	r4, r4, #1
 2338              	.LVL216:
 2339              		.loc 1 492 7 discriminator 2 view .LVU663
 2340 003a E4B2     		uxtb	r4, r4
 2341              	.LVL217:
ARM GAS  C:\Users\86158\AppData\Local\Temp\cc2g9Wou.s 			page 59


 482:Drivers/User_Driver/Src/rtc_i2c.c **** 		if (buf & 0x80) {
 2342              		.loc 1 482 21 is_stmt 1 discriminator 2 view .LVU664
 482:Drivers/User_Driver/Src/rtc_i2c.c **** 		if (buf & 0x80) {
 2343              		.loc 1 482 22 is_stmt 0 discriminator 2 view .LVU665
 2344 003c 0135     		adds	r5, r5, #1
 2345              	.LVL218:
 482:Drivers/User_Driver/Src/rtc_i2c.c **** 		if (buf & 0x80) {
 2346              		.loc 1 482 22 discriminator 2 view .LVU666
 2347 003e EDB2     		uxtb	r5, r5
 2348              	.LVL219:
 2349              	.L156:
 482:Drivers/User_Driver/Src/rtc_i2c.c **** 		if (buf & 0x80) {
 2350              		.loc 1 482 14 is_stmt 1 discriminator 1 view .LVU667
 482:Drivers/User_Driver/Src/rtc_i2c.c **** 		if (buf & 0x80) {
 2351              		.loc 1 482 2 is_stmt 0 discriminator 1 view .LVU668
 2352 0040 072D     		cmp	r5, #7
 2353 0042 09D8     		bhi	.L163
 483:Drivers/User_Driver/Src/rtc_i2c.c **** 			HAL_GPIO_WritePin(g_spi.busMOSI, g_spi.pinMOSI, GPIO_PIN_SET);
 2354              		.loc 1 483 3 is_stmt 1 view .LVU669
 483:Drivers/User_Driver/Src/rtc_i2c.c **** 			HAL_GPIO_WritePin(g_spi.busMOSI, g_spi.pinMOSI, GPIO_PIN_SET);
 2355              		.loc 1 483 6 is_stmt 0 view .LVU670
 2356 0044 14F0800F 		tst	r4, #128
 2357 0048 E0D1     		bne	.L164
 486:Drivers/User_Driver/Src/rtc_i2c.c **** 		}
 2358              		.loc 1 486 4 is_stmt 1 view .LVU671
 2359 004a 044B     		ldr	r3, .L165
 2360 004c 0022     		movs	r2, #0
 2361 004e 998A     		ldrh	r1, [r3, #20]
 2362 0050 1869     		ldr	r0, [r3, #16]
 2363 0052 FFF7FEFF 		bl	HAL_GPIO_WritePin
 2364              	.LVL220:
 2365 0056 DFE7     		b	.L158
 2366              	.L163:
 493:Drivers/User_Driver/Src/rtc_i2c.c **** 	}
 494:Drivers/User_Driver/Src/rtc_i2c.c **** }
 2367              		.loc 1 494 1 is_stmt 0 view .LVU672
 2368 0058 38BD     		pop	{r3, r4, r5, pc}
 2369              	.LVL221:
 2370              	.L166:
 2371              		.loc 1 494 1 view .LVU673
 2372 005a 00BF     		.align	2
 2373              	.L165:
 2374 005c 00000000 		.word	.LANCHOR3
 2375 0060 00000000 		.word	.LANCHOR2
 2376              		.cfi_endproc
 2377              	.LFE260:
 2379              		.section	.text.spi_receive_one_byte,"ax",%progbits
 2380              		.align	1
 2381              		.global	spi_receive_one_byte
 2382              		.syntax unified
 2383              		.thumb
 2384              		.thumb_func
 2386              	spi_receive_one_byte:
 2387              	.LVL222:
 2388              	.LFB261:
 495:Drivers/User_Driver/Src/rtc_i2c.c **** 
 496:Drivers/User_Driver/Src/rtc_i2c.c **** void spi_receive_one_byte(unsigned char* buf)
ARM GAS  C:\Users\86158\AppData\Local\Temp\cc2g9Wou.s 			page 60


 497:Drivers/User_Driver/Src/rtc_i2c.c **** {
 2389              		.loc 1 497 1 is_stmt 1 view -0
 2390              		.cfi_startproc
 2391              		@ args = 0, pretend = 0, frame = 0
 2392              		@ frame_needed = 0, uses_anonymous_args = 0
 2393              		.loc 1 497 1 is_stmt 0 view .LVU675
 2394 0000 38B5     		push	{r3, r4, r5, lr}
 2395              	.LCFI36:
 2396              		.cfi_def_cfa_offset 16
 2397              		.cfi_offset 3, -16
 2398              		.cfi_offset 4, -12
 2399              		.cfi_offset 5, -8
 2400              		.cfi_offset 14, -4
 2401 0002 0546     		mov	r5, r0
 498:Drivers/User_Driver/Src/rtc_i2c.c **** 	uint8_t i;
 2402              		.loc 1 498 2 is_stmt 1 view .LVU676
 499:Drivers/User_Driver/Src/rtc_i2c.c **** 	*buf = 0;
 2403              		.loc 1 499 2 view .LVU677
 2404              		.loc 1 499 7 is_stmt 0 view .LVU678
 2405 0004 0024     		movs	r4, #0
 2406 0006 0470     		strb	r4, [r0]
 500:Drivers/User_Driver/Src/rtc_i2c.c **** 	for (i = 0; i < 8; i++) {
 2407              		.loc 1 500 2 is_stmt 1 view .LVU679
 2408              	.LVL223:
 2409              		.loc 1 500 2 is_stmt 0 view .LVU680
 2410 0008 07E0     		b	.L168
 2411              	.LVL224:
 2412              	.L170:
 501:Drivers/User_Driver/Src/rtc_i2c.c **** 		spi_CLK_L();
 502:Drivers/User_Driver/Src/rtc_i2c.c **** 		rtc_Wait();
 503:Drivers/User_Driver/Src/rtc_i2c.c **** 		spi_CLK_H();
 504:Drivers/User_Driver/Src/rtc_i2c.c **** 		*buf <<= 1;
 505:Drivers/User_Driver/Src/rtc_i2c.c **** 		if (HAL_GPIO_ReadPin(g_spi.busMISO, g_spi.pinMISO)) {
 506:Drivers/User_Driver/Src/rtc_i2c.c **** 			*buf |= 0x01;
 507:Drivers/User_Driver/Src/rtc_i2c.c **** 		}
 508:Drivers/User_Driver/Src/rtc_i2c.c **** 		rtc_Wait();
 2413              		.loc 1 508 3 is_stmt 1 discriminator 2 view .LVU681
 2414              	.LBB144:
 2415              	.LBI144:
 228:Drivers/User_Driver/Src/rtc_i2c.c **** {	
 2416              		.loc 1 228 20 discriminator 2 view .LVU682
 2417              	.LBB145:
 230:Drivers/User_Driver/Src/rtc_i2c.c **** 	while (i--);
 2418              		.loc 1 230 2 discriminator 2 view .LVU683
 230:Drivers/User_Driver/Src/rtc_i2c.c **** 	while (i--);
 2419              		.loc 1 230 6 is_stmt 0 discriminator 2 view .LVU684
 2420 000a 124B     		ldr	r3, .L175
 2421 000c 1B88     		ldrh	r3, [r3]
 2422              	.LVL225:
 231:Drivers/User_Driver/Src/rtc_i2c.c **** }
 2423              		.loc 1 231 2 is_stmt 1 discriminator 2 view .LVU685
 2424              	.L171:
 231:Drivers/User_Driver/Src/rtc_i2c.c **** }
 2425              		.loc 1 231 13 view .LVU686
 231:Drivers/User_Driver/Src/rtc_i2c.c **** }
 2426              		.loc 1 231 8 view .LVU687
 2427 000e 1A46     		mov	r2, r3
ARM GAS  C:\Users\86158\AppData\Local\Temp\cc2g9Wou.s 			page 61


 231:Drivers/User_Driver/Src/rtc_i2c.c **** }
 2428              		.loc 1 231 10 is_stmt 0 view .LVU688
 2429 0010 013B     		subs	r3, r3, #1
 2430              	.LVL226:
 231:Drivers/User_Driver/Src/rtc_i2c.c **** }
 2431              		.loc 1 231 8 view .LVU689
 2432 0012 002A     		cmp	r2, #0
 2433 0014 FBD1     		bne	.L171
 2434              	.LVL227:
 231:Drivers/User_Driver/Src/rtc_i2c.c **** }
 2435              		.loc 1 231 8 view .LVU690
 2436              	.LBE145:
 2437              	.LBE144:
 500:Drivers/User_Driver/Src/rtc_i2c.c **** 		spi_CLK_L();
 2438              		.loc 1 500 21 is_stmt 1 discriminator 2 view .LVU691
 500:Drivers/User_Driver/Src/rtc_i2c.c **** 		spi_CLK_L();
 2439              		.loc 1 500 22 is_stmt 0 discriminator 2 view .LVU692
 2440 0016 0134     		adds	r4, r4, #1
 2441              	.LVL228:
 500:Drivers/User_Driver/Src/rtc_i2c.c **** 		spi_CLK_L();
 2442              		.loc 1 500 22 discriminator 2 view .LVU693
 2443 0018 E4B2     		uxtb	r4, r4
 2444              	.LVL229:
 2445              	.L168:
 500:Drivers/User_Driver/Src/rtc_i2c.c **** 		spi_CLK_L();
 2446              		.loc 1 500 14 is_stmt 1 discriminator 1 view .LVU694
 500:Drivers/User_Driver/Src/rtc_i2c.c **** 		spi_CLK_L();
 2447              		.loc 1 500 2 is_stmt 0 discriminator 1 view .LVU695
 2448 001a 072C     		cmp	r4, #7
 2449 001c 18D8     		bhi	.L174
 501:Drivers/User_Driver/Src/rtc_i2c.c **** 		rtc_Wait();
 2450              		.loc 1 501 3 is_stmt 1 view .LVU696
 2451 001e FFF7FEFF 		bl	spi_CLK_L
 2452              	.LVL230:
 502:Drivers/User_Driver/Src/rtc_i2c.c **** 		spi_CLK_H();
 2453              		.loc 1 502 3 view .LVU697
 2454              	.LBB146:
 2455              	.LBI146:
 228:Drivers/User_Driver/Src/rtc_i2c.c **** {	
 2456              		.loc 1 228 20 view .LVU698
 2457              	.LBB147:
 230:Drivers/User_Driver/Src/rtc_i2c.c **** 	while (i--);
 2458              		.loc 1 230 2 view .LVU699
 230:Drivers/User_Driver/Src/rtc_i2c.c **** 	while (i--);
 2459              		.loc 1 230 6 is_stmt 0 view .LVU700
 2460 0022 0C4B     		ldr	r3, .L175
 2461 0024 1B88     		ldrh	r3, [r3]
 2462              	.LVL231:
 231:Drivers/User_Driver/Src/rtc_i2c.c **** }
 2463              		.loc 1 231 2 is_stmt 1 view .LVU701
 2464              	.L169:
 231:Drivers/User_Driver/Src/rtc_i2c.c **** }
 2465              		.loc 1 231 13 view .LVU702
 231:Drivers/User_Driver/Src/rtc_i2c.c **** }
 2466              		.loc 1 231 8 view .LVU703
 2467 0026 1A46     		mov	r2, r3
 231:Drivers/User_Driver/Src/rtc_i2c.c **** }
ARM GAS  C:\Users\86158\AppData\Local\Temp\cc2g9Wou.s 			page 62


 2468              		.loc 1 231 10 is_stmt 0 view .LVU704
 2469 0028 013B     		subs	r3, r3, #1
 2470              	.LVL232:
 231:Drivers/User_Driver/Src/rtc_i2c.c **** }
 2471              		.loc 1 231 8 view .LVU705
 2472 002a 002A     		cmp	r2, #0
 2473 002c FBD1     		bne	.L169
 2474              	.LVL233:
 231:Drivers/User_Driver/Src/rtc_i2c.c **** }
 2475              		.loc 1 231 8 view .LVU706
 2476              	.LBE147:
 2477              	.LBE146:
 503:Drivers/User_Driver/Src/rtc_i2c.c **** 		*buf <<= 1;
 2478              		.loc 1 503 3 is_stmt 1 view .LVU707
 2479 002e FFF7FEFF 		bl	spi_CLK_H
 2480              	.LVL234:
 504:Drivers/User_Driver/Src/rtc_i2c.c **** 		if (HAL_GPIO_ReadPin(g_spi.busMISO, g_spi.pinMISO)) {
 2481              		.loc 1 504 3 view .LVU708
 504:Drivers/User_Driver/Src/rtc_i2c.c **** 		if (HAL_GPIO_ReadPin(g_spi.busMISO, g_spi.pinMISO)) {
 2482              		.loc 1 504 8 is_stmt 0 view .LVU709
 2483 0032 2B78     		ldrb	r3, [r5]	@ zero_extendqisi2
 2484 0034 5B00     		lsls	r3, r3, #1
 2485 0036 2B70     		strb	r3, [r5]
 505:Drivers/User_Driver/Src/rtc_i2c.c **** 			*buf |= 0x01;
 2486              		.loc 1 505 3 is_stmt 1 view .LVU710
 505:Drivers/User_Driver/Src/rtc_i2c.c **** 			*buf |= 0x01;
 2487              		.loc 1 505 7 is_stmt 0 view .LVU711
 2488 0038 074B     		ldr	r3, .L175+4
 2489 003a 998B     		ldrh	r1, [r3, #28]
 2490 003c 9869     		ldr	r0, [r3, #24]
 2491 003e FFF7FEFF 		bl	HAL_GPIO_ReadPin
 2492              	.LVL235:
 505:Drivers/User_Driver/Src/rtc_i2c.c **** 			*buf |= 0x01;
 2493              		.loc 1 505 6 view .LVU712
 2494 0042 0028     		cmp	r0, #0
 2495 0044 E1D0     		beq	.L170
 506:Drivers/User_Driver/Src/rtc_i2c.c **** 		}
 2496              		.loc 1 506 4 is_stmt 1 view .LVU713
 506:Drivers/User_Driver/Src/rtc_i2c.c **** 		}
 2497              		.loc 1 506 9 is_stmt 0 view .LVU714
 2498 0046 2B78     		ldrb	r3, [r5]	@ zero_extendqisi2
 2499 0048 43F00103 		orr	r3, r3, #1
 2500 004c 2B70     		strb	r3, [r5]
 2501 004e DCE7     		b	.L170
 2502              	.L174:
 509:Drivers/User_Driver/Src/rtc_i2c.c **** 	}
 510:Drivers/User_Driver/Src/rtc_i2c.c **** }
 2503              		.loc 1 510 1 view .LVU715
 2504 0050 38BD     		pop	{r3, r4, r5, pc}
 2505              	.LVL236:
 2506              	.L176:
 2507              		.loc 1 510 1 view .LVU716
 2508 0052 00BF     		.align	2
 2509              	.L175:
 2510 0054 00000000 		.word	.LANCHOR2
 2511 0058 00000000 		.word	.LANCHOR3
 2512              		.cfi_endproc
ARM GAS  C:\Users\86158\AppData\Local\Temp\cc2g9Wou.s 			page 63


 2513              	.LFE261:
 2515              		.section	.text.spi_read_multi_bytes,"ax",%progbits
 2516              		.align	1
 2517              		.global	spi_read_multi_bytes
 2518              		.syntax unified
 2519              		.thumb
 2520              		.thumb_func
 2522              	spi_read_multi_bytes:
 2523              	.LVL237:
 2524              	.LFB262:
 511:Drivers/User_Driver/Src/rtc_i2c.c **** 
 512:Drivers/User_Driver/Src/rtc_i2c.c **** void spi_read_multi_bytes(unsigned char reg_addr, unsigned char *buf, unsigned short size)
 513:Drivers/User_Driver/Src/rtc_i2c.c **** {
 2525              		.loc 1 513 1 is_stmt 1 view -0
 2526              		.cfi_startproc
 2527              		@ args = 0, pretend = 0, frame = 0
 2528              		@ frame_needed = 0, uses_anonymous_args = 0
 2529              		.loc 1 513 1 is_stmt 0 view .LVU718
 2530 0000 F8B5     		push	{r3, r4, r5, r6, r7, lr}
 2531              	.LCFI37:
 2532              		.cfi_def_cfa_offset 24
 2533              		.cfi_offset 3, -24
 2534              		.cfi_offset 4, -20
 2535              		.cfi_offset 5, -16
 2536              		.cfi_offset 6, -12
 2537              		.cfi_offset 7, -8
 2538              		.cfi_offset 14, -4
 2539 0002 0746     		mov	r7, r0
 2540 0004 0E46     		mov	r6, r1
 2541 0006 1546     		mov	r5, r2
 514:Drivers/User_Driver/Src/rtc_i2c.c **** 	uint8_t i;
 2542              		.loc 1 514 2 is_stmt 1 view .LVU719
 515:Drivers/User_Driver/Src/rtc_i2c.c **** 	spi_CLK_H();
 2543              		.loc 1 515 2 view .LVU720
 2544 0008 FFF7FEFF 		bl	spi_CLK_H
 2545              	.LVL238:
 516:Drivers/User_Driver/Src/rtc_i2c.c **** 	spi_CS_H();
 2546              		.loc 1 516 2 view .LVU721
 2547 000c FFF7FEFF 		bl	spi_CS_H
 2548              	.LVL239:
 517:Drivers/User_Driver/Src/rtc_i2c.c **** 	rtc_Wait();
 2549              		.loc 1 517 2 view .LVU722
 2550              	.LBB148:
 2551              	.LBI148:
 228:Drivers/User_Driver/Src/rtc_i2c.c **** {	
 2552              		.loc 1 228 20 view .LVU723
 2553              	.LBB149:
 230:Drivers/User_Driver/Src/rtc_i2c.c **** 	while (i--);
 2554              		.loc 1 230 2 view .LVU724
 230:Drivers/User_Driver/Src/rtc_i2c.c **** 	while (i--);
 2555              		.loc 1 230 6 is_stmt 0 view .LVU725
 2556 0010 0A4B     		ldr	r3, .L182
 2557 0012 1B88     		ldrh	r3, [r3]
 2558              	.LVL240:
 231:Drivers/User_Driver/Src/rtc_i2c.c **** }
 2559              		.loc 1 231 2 is_stmt 1 view .LVU726
 2560              	.L178:
ARM GAS  C:\Users\86158\AppData\Local\Temp\cc2g9Wou.s 			page 64


 231:Drivers/User_Driver/Src/rtc_i2c.c **** }
 2561              		.loc 1 231 13 view .LVU727
 231:Drivers/User_Driver/Src/rtc_i2c.c **** }
 2562              		.loc 1 231 8 view .LVU728
 2563 0014 1C46     		mov	r4, r3
 231:Drivers/User_Driver/Src/rtc_i2c.c **** }
 2564              		.loc 1 231 10 is_stmt 0 view .LVU729
 2565 0016 013B     		subs	r3, r3, #1
 2566              	.LVL241:
 231:Drivers/User_Driver/Src/rtc_i2c.c **** }
 2567              		.loc 1 231 8 view .LVU730
 2568 0018 002C     		cmp	r4, #0
 2569 001a FBD1     		bne	.L178
 2570              	.LVL242:
 231:Drivers/User_Driver/Src/rtc_i2c.c **** }
 2571              		.loc 1 231 8 view .LVU731
 2572              	.LBE149:
 2573              	.LBE148:
 518:Drivers/User_Driver/Src/rtc_i2c.c **** 	reg_addr |= 0x80;
 2574              		.loc 1 518 2 is_stmt 1 view .LVU732
 519:Drivers/User_Driver/Src/rtc_i2c.c **** 	spi_send_one_byte(reg_addr);
 2575              		.loc 1 519 2 view .LVU733
 2576 001c 47F08000 		orr	r0, r7, #128
 2577 0020 FFF7FEFF 		bl	spi_send_one_byte
 2578              	.LVL243:
 520:Drivers/User_Driver/Src/rtc_i2c.c **** 	for (i = 0; i < size; i++) {
 2579              		.loc 1 520 2 view .LVU734
 2580              		.loc 1 520 2 is_stmt 0 view .LVU735
 2581 0024 04E0     		b	.L179
 2582              	.LVL244:
 2583              	.L180:
 521:Drivers/User_Driver/Src/rtc_i2c.c **** 		spi_receive_one_byte(buf + i);
 2584              		.loc 1 521 3 is_stmt 1 discriminator 3 view .LVU736
 2585 0026 3019     		adds	r0, r6, r4
 2586 0028 FFF7FEFF 		bl	spi_receive_one_byte
 2587              	.LVL245:
 520:Drivers/User_Driver/Src/rtc_i2c.c **** 	for (i = 0; i < size; i++) {
 2588              		.loc 1 520 24 discriminator 3 view .LVU737
 520:Drivers/User_Driver/Src/rtc_i2c.c **** 	for (i = 0; i < size; i++) {
 2589              		.loc 1 520 25 is_stmt 0 discriminator 3 view .LVU738
 2590 002c 0134     		adds	r4, r4, #1
 2591              	.LVL246:
 520:Drivers/User_Driver/Src/rtc_i2c.c **** 	for (i = 0; i < size; i++) {
 2592              		.loc 1 520 25 discriminator 3 view .LVU739
 2593 002e E4B2     		uxtb	r4, r4
 2594              	.LVL247:
 2595              	.L179:
 520:Drivers/User_Driver/Src/rtc_i2c.c **** 	for (i = 0; i < size; i++) {
 2596              		.loc 1 520 14 is_stmt 1 discriminator 1 view .LVU740
 520:Drivers/User_Driver/Src/rtc_i2c.c **** 	for (i = 0; i < size; i++) {
 2597              		.loc 1 520 16 is_stmt 0 discriminator 1 view .LVU741
 2598 0030 A3B2     		uxth	r3, r4
 520:Drivers/User_Driver/Src/rtc_i2c.c **** 	for (i = 0; i < size; i++) {
 2599              		.loc 1 520 2 discriminator 1 view .LVU742
 2600 0032 AB42     		cmp	r3, r5
 2601 0034 F7D3     		bcc	.L180
 522:Drivers/User_Driver/Src/rtc_i2c.c **** 	}
ARM GAS  C:\Users\86158\AppData\Local\Temp\cc2g9Wou.s 			page 65


 523:Drivers/User_Driver/Src/rtc_i2c.c **** 	spi_CS_L();
 2602              		.loc 1 523 2 is_stmt 1 view .LVU743
 2603 0036 FFF7FEFF 		bl	spi_CS_L
 2604              	.LVL248:
 524:Drivers/User_Driver/Src/rtc_i2c.c **** }
 2605              		.loc 1 524 1 is_stmt 0 view .LVU744
 2606 003a F8BD     		pop	{r3, r4, r5, r6, r7, pc}
 2607              	.LVL249:
 2608              	.L183:
 2609              		.loc 1 524 1 view .LVU745
 2610              		.align	2
 2611              	.L182:
 2612 003c 00000000 		.word	.LANCHOR2
 2613              		.cfi_endproc
 2614              	.LFE262:
 2616              		.section	.text.spi_write_multi_bytes,"ax",%progbits
 2617              		.align	1
 2618              		.global	spi_write_multi_bytes
 2619              		.syntax unified
 2620              		.thumb
 2621              		.thumb_func
 2623              	spi_write_multi_bytes:
 2624              	.LVL250:
 2625              	.LFB263:
 525:Drivers/User_Driver/Src/rtc_i2c.c **** 
 526:Drivers/User_Driver/Src/rtc_i2c.c **** void spi_write_multi_bytes(unsigned char reg_addr, unsigned char *buf, unsigned short size)
 527:Drivers/User_Driver/Src/rtc_i2c.c **** {
 2626              		.loc 1 527 1 is_stmt 1 view -0
 2627              		.cfi_startproc
 2628              		@ args = 0, pretend = 0, frame = 0
 2629              		@ frame_needed = 0, uses_anonymous_args = 0
 2630              		.loc 1 527 1 is_stmt 0 view .LVU747
 2631 0000 F8B5     		push	{r3, r4, r5, r6, r7, lr}
 2632              	.LCFI38:
 2633              		.cfi_def_cfa_offset 24
 2634              		.cfi_offset 3, -24
 2635              		.cfi_offset 4, -20
 2636              		.cfi_offset 5, -16
 2637              		.cfi_offset 6, -12
 2638              		.cfi_offset 7, -8
 2639              		.cfi_offset 14, -4
 2640 0002 0746     		mov	r7, r0
 2641 0004 0E46     		mov	r6, r1
 2642 0006 1546     		mov	r5, r2
 528:Drivers/User_Driver/Src/rtc_i2c.c **** 	uint8_t i;
 2643              		.loc 1 528 2 is_stmt 1 view .LVU748
 529:Drivers/User_Driver/Src/rtc_i2c.c **** 	
 530:Drivers/User_Driver/Src/rtc_i2c.c **** 	spi_CLK_H();
 2644              		.loc 1 530 2 view .LVU749
 2645 0008 FFF7FEFF 		bl	spi_CLK_H
 2646              	.LVL251:
 531:Drivers/User_Driver/Src/rtc_i2c.c **** 	spi_CS_H();
 2647              		.loc 1 531 2 view .LVU750
 2648 000c FFF7FEFF 		bl	spi_CS_H
 2649              	.LVL252:
 532:Drivers/User_Driver/Src/rtc_i2c.c **** 	rtc_Wait();
 2650              		.loc 1 532 2 view .LVU751
ARM GAS  C:\Users\86158\AppData\Local\Temp\cc2g9Wou.s 			page 66


 2651              	.LBB150:
 2652              	.LBI150:
 228:Drivers/User_Driver/Src/rtc_i2c.c **** {	
 2653              		.loc 1 228 20 view .LVU752
 2654              	.LBB151:
 230:Drivers/User_Driver/Src/rtc_i2c.c **** 	while (i--);
 2655              		.loc 1 230 2 view .LVU753
 230:Drivers/User_Driver/Src/rtc_i2c.c **** 	while (i--);
 2656              		.loc 1 230 6 is_stmt 0 view .LVU754
 2657 0010 0A4B     		ldr	r3, .L189
 2658 0012 1B88     		ldrh	r3, [r3]
 2659              	.LVL253:
 231:Drivers/User_Driver/Src/rtc_i2c.c **** }
 2660              		.loc 1 231 2 is_stmt 1 view .LVU755
 2661              	.L185:
 231:Drivers/User_Driver/Src/rtc_i2c.c **** }
 2662              		.loc 1 231 13 view .LVU756
 231:Drivers/User_Driver/Src/rtc_i2c.c **** }
 2663              		.loc 1 231 8 view .LVU757
 2664 0014 1C46     		mov	r4, r3
 231:Drivers/User_Driver/Src/rtc_i2c.c **** }
 2665              		.loc 1 231 10 is_stmt 0 view .LVU758
 2666 0016 013B     		subs	r3, r3, #1
 2667              	.LVL254:
 231:Drivers/User_Driver/Src/rtc_i2c.c **** }
 2668              		.loc 1 231 8 view .LVU759
 2669 0018 002C     		cmp	r4, #0
 2670 001a FBD1     		bne	.L185
 2671              	.LVL255:
 231:Drivers/User_Driver/Src/rtc_i2c.c **** }
 2672              		.loc 1 231 8 view .LVU760
 2673              	.LBE151:
 2674              	.LBE150:
 533:Drivers/User_Driver/Src/rtc_i2c.c **** 	reg_addr &= 0x7f;
 2675              		.loc 1 533 2 is_stmt 1 view .LVU761
 534:Drivers/User_Driver/Src/rtc_i2c.c **** 	spi_send_one_byte(reg_addr);
 2676              		.loc 1 534 2 view .LVU762
 2677 001c 07F07F00 		and	r0, r7, #127
 2678 0020 FFF7FEFF 		bl	spi_send_one_byte
 2679              	.LVL256:
 535:Drivers/User_Driver/Src/rtc_i2c.c **** 	for (i = 0; i < size; i++) {
 2680              		.loc 1 535 2 view .LVU763
 2681              		.loc 1 535 2 is_stmt 0 view .LVU764
 2682 0024 04E0     		b	.L186
 2683              	.LVL257:
 2684              	.L187:
 536:Drivers/User_Driver/Src/rtc_i2c.c **** 		spi_send_one_byte(buf[i]);
 2685              		.loc 1 536 3 is_stmt 1 discriminator 3 view .LVU765
 2686 0026 305D     		ldrb	r0, [r6, r4]	@ zero_extendqisi2
 2687 0028 FFF7FEFF 		bl	spi_send_one_byte
 2688              	.LVL258:
 535:Drivers/User_Driver/Src/rtc_i2c.c **** 	for (i = 0; i < size; i++) {
 2689              		.loc 1 535 24 discriminator 3 view .LVU766
 535:Drivers/User_Driver/Src/rtc_i2c.c **** 	for (i = 0; i < size; i++) {
 2690              		.loc 1 535 25 is_stmt 0 discriminator 3 view .LVU767
 2691 002c 0134     		adds	r4, r4, #1
 2692              	.LVL259:
ARM GAS  C:\Users\86158\AppData\Local\Temp\cc2g9Wou.s 			page 67


 535:Drivers/User_Driver/Src/rtc_i2c.c **** 	for (i = 0; i < size; i++) {
 2693              		.loc 1 535 25 discriminator 3 view .LVU768
 2694 002e E4B2     		uxtb	r4, r4
 2695              	.LVL260:
 2696              	.L186:
 535:Drivers/User_Driver/Src/rtc_i2c.c **** 	for (i = 0; i < size; i++) {
 2697              		.loc 1 535 14 is_stmt 1 discriminator 1 view .LVU769
 535:Drivers/User_Driver/Src/rtc_i2c.c **** 	for (i = 0; i < size; i++) {
 2698              		.loc 1 535 16 is_stmt 0 discriminator 1 view .LVU770
 2699 0030 A3B2     		uxth	r3, r4
 535:Drivers/User_Driver/Src/rtc_i2c.c **** 	for (i = 0; i < size; i++) {
 2700              		.loc 1 535 2 discriminator 1 view .LVU771
 2701 0032 AB42     		cmp	r3, r5
 2702 0034 F7D3     		bcc	.L187
 537:Drivers/User_Driver/Src/rtc_i2c.c **** 	}
 538:Drivers/User_Driver/Src/rtc_i2c.c **** 	spi_CS_L();
 2703              		.loc 1 538 2 is_stmt 1 view .LVU772
 2704 0036 FFF7FEFF 		bl	spi_CS_L
 2705              	.LVL261:
 539:Drivers/User_Driver/Src/rtc_i2c.c **** }
 2706              		.loc 1 539 1 is_stmt 0 view .LVU773
 2707 003a F8BD     		pop	{r3, r4, r5, r6, r7, pc}
 2708              	.LVL262:
 2709              	.L190:
 2710              		.loc 1 539 1 view .LVU774
 2711              		.align	2
 2712              	.L189:
 2713 003c 00000000 		.word	.LANCHOR2
 2714              		.cfi_endproc
 2715              	.LFE263:
 2717              		.global	g_state
 2718              		.global	soft_rtc_delay
 2719              		.section	.bss.g_i2c,"aw",%nobits
 2720              		.align	2
 2721              		.set	.LANCHOR0,. + 0
 2724              	g_i2c:
 2725 0000 00000000 		.space	24
 2725      00000000 
 2725      00000000 
 2725      00000000 
 2725      00000000 
 2726              		.section	.bss.g_spi,"aw",%nobits
 2727              		.align	2
 2728              		.set	.LANCHOR3,. + 0
 2731              	g_spi:
 2732 0000 00000000 		.space	32
 2732      00000000 
 2732      00000000 
 2732      00000000 
 2732      00000000 
 2733              		.section	.bss.g_state,"aw",%nobits
 2734              		.set	.LANCHOR1,. + 0
 2737              	g_state:
 2738 0000 00       		.space	1
 2739              		.section	.data.soft_rtc_delay,"aw"
 2740              		.align	1
 2741              		.set	.LANCHOR2,. + 0
ARM GAS  C:\Users\86158\AppData\Local\Temp\cc2g9Wou.s 			page 68


 2744              	soft_rtc_delay:
 2745 0000 5802     		.short	600
 2746              		.text
 2747              	.Letext0:
 2748              		.file 2 "e:\\stm32-gcc\\gcc-arm-none-eabi-10.3-2021.10\\arm-none-eabi\\include\\machine\\_default_
 2749              		.file 3 "e:\\stm32-gcc\\gcc-arm-none-eabi-10.3-2021.10\\arm-none-eabi\\include\\sys\\_stdint.h"
 2750              		.file 4 "Drivers/CMSIS/Device/ST/STM32F4xx/Include/stm32f407xx.h"
 2751              		.file 5 "Drivers/STM32F4xx_HAL_Driver/Inc/stm32f4xx_hal_gpio.h"
 2752              		.file 6 "Drivers/User_Driver/Inc/soft_i2c.h"
 2753              		.file 7 "Drivers/User_Driver/Inc/rtc_i2c.h"
ARM GAS  C:\Users\86158\AppData\Local\Temp\cc2g9Wou.s 			page 69

