ARM GAS  C:\Users\Administrator\AppData\Local\Temp\cccZuMLW.s 			page 1


   1              		.cpu cortex-m4
   2              		.arch armv7e-m
   3              		.fpu fpv4-sp-d16
   4              		.eabi_attribute 27, 1
   5              		.eabi_attribute 28, 1
   6              		.eabi_attribute 20, 1
   7              		.eabi_attribute 21, 1
   8              		.eabi_attribute 23, 3
   9              		.eabi_attribute 24, 1
  10              		.eabi_attribute 25, 1
  11              		.eabi_attribute 26, 1
  12              		.eabi_attribute 30, 1
  13              		.eabi_attribute 34, 1
  14              		.eabi_attribute 18, 4
  15              		.file	"main.c"
  16              		.text
  17              	.Ltext0:
  18              		.cfi_sections	.debug_frame
  19              		.section	.text.MX_GPIO_Init,"ax",%progbits
  20              		.align	1
  21              		.syntax unified
  22              		.thumb
  23              		.thumb_func
  25              	MX_GPIO_Init:
  26              	.LFB137:
  27              		.file 1 "Core/Src/main.c"
   1:Core/Src/main.c **** /* USER CODE BEGIN Header */
   2:Core/Src/main.c **** /**
   3:Core/Src/main.c ****   ******************************************************************************
   4:Core/Src/main.c ****   * @file           : main.c
   5:Core/Src/main.c ****   * @brief          : Main program body
   6:Core/Src/main.c ****   ******************************************************************************
   7:Core/Src/main.c ****   * @attention
   8:Core/Src/main.c ****   *
   9:Core/Src/main.c ****   * Copyright (c) 2023 STMicroelectronics.
  10:Core/Src/main.c ****   * All rights reserved.
  11:Core/Src/main.c ****   *
  12:Core/Src/main.c ****   * This software is licensed under terms that can be found in the LICENSE file
  13:Core/Src/main.c ****   * in the root directory of this software component.
  14:Core/Src/main.c ****   * If no LICENSE file comes with this software, it is provided AS-IS.
  15:Core/Src/main.c ****   *
  16:Core/Src/main.c ****   ******************************************************************************
  17:Core/Src/main.c ****   */
  18:Core/Src/main.c **** /* USER CODE END Header */
  19:Core/Src/main.c **** /* Includes ------------------------------------------------------------------*/
  20:Core/Src/main.c **** #include "main.h"
  21:Core/Src/main.c **** #include <stdio.h>
  22:Core/Src/main.c **** #include "uart.h"
  23:Core/Src/main.c **** #include "string.h"
  24:Core/Src/main.c **** 
  25:Core/Src/main.c **** 
  26:Core/Src/main.c **** /* Private includes ----------------------------------------------------------*/
  27:Core/Src/main.c **** /* USER CODE BEGIN Includes */
  28:Core/Src/main.c **** uint8_t len;
  29:Core/Src/main.c **** uint8_t buff[200];
  30:Core/Src/main.c **** /* USER CODE END Includes */
  31:Core/Src/main.c **** 
ARM GAS  C:\Users\Administrator\AppData\Local\Temp\cccZuMLW.s 			page 2


  32:Core/Src/main.c **** /* Private typedef -----------------------------------------------------------*/
  33:Core/Src/main.c **** /* USER CODE BEGIN PTD */
  34:Core/Src/main.c **** 
  35:Core/Src/main.c **** /* USER CODE END PTD */
  36:Core/Src/main.c **** 
  37:Core/Src/main.c **** /* Private define ------------------------------------------------------------*/
  38:Core/Src/main.c **** /* USER CODE BEGIN PD */
  39:Core/Src/main.c **** /* USER CODE END PD */
  40:Core/Src/main.c **** 
  41:Core/Src/main.c **** /* Private macro -------------------------------------------------------------*/
  42:Core/Src/main.c **** /* USER CODE BEGIN PM */
  43:Core/Src/main.c **** 
  44:Core/Src/main.c **** /* USER CODE END PM */
  45:Core/Src/main.c **** 
  46:Core/Src/main.c **** /* Private variables ---------------------------------------------------------*/
  47:Core/Src/main.c **** TIM_HandleTypeDef htim6;
  48:Core/Src/main.c **** TIM_HandleTypeDef htim7;
  49:Core/Src/main.c **** 
  50:Core/Src/main.c **** /* USER CODE BEGIN PV */
  51:Core/Src/main.c **** 
  52:Core/Src/main.c **** /* USER CODE END PV */
  53:Core/Src/main.c **** 
  54:Core/Src/main.c **** /* Private function prototypes -----------------------------------------------*/
  55:Core/Src/main.c **** void SystemClock_Config(void);
  56:Core/Src/main.c **** static void MX_GPIO_Init(void);
  57:Core/Src/main.c **** static void MX_TIM6_Init(void);
  58:Core/Src/main.c **** static void MX_TIM7_Init(void);
  59:Core/Src/main.c **** /* USER CODE BEGIN PFP */
  60:Core/Src/main.c **** 
  61:Core/Src/main.c **** /* USER CODE END PFP */
  62:Core/Src/main.c **** 
  63:Core/Src/main.c **** /* Private user code ---------------------------------------------------------*/
  64:Core/Src/main.c **** /* USER CODE BEGIN 0 */
  65:Core/Src/main.c **** 
  66:Core/Src/main.c **** /* USER CODE END 0 */
  67:Core/Src/main.c **** 
  68:Core/Src/main.c **** /**
  69:Core/Src/main.c ****   * @brief  The application entry point.
  70:Core/Src/main.c ****   * @retval int
  71:Core/Src/main.c ****   */
  72:Core/Src/main.c **** int main(void)
  73:Core/Src/main.c **** {
  74:Core/Src/main.c ****   /* USER CODE BEGIN 1 */
  75:Core/Src/main.c **** 
  76:Core/Src/main.c ****   /* USER CODE END 1 */
  77:Core/Src/main.c **** 
  78:Core/Src/main.c ****   /* MCU Configuration--------------------------------------------------------*/
  79:Core/Src/main.c **** 
  80:Core/Src/main.c ****   /* Reset of all peripherals, Initializes the Flash interface and the Systick. */
  81:Core/Src/main.c ****   HAL_Init();
  82:Core/Src/main.c **** 
  83:Core/Src/main.c ****   /* USER CODE BEGIN Init */
  84:Core/Src/main.c **** 
  85:Core/Src/main.c ****   /* USER CODE END Init */
  86:Core/Src/main.c **** 
  87:Core/Src/main.c ****   /* Configure the system clock */
  88:Core/Src/main.c ****   SystemClock_Config();
ARM GAS  C:\Users\Administrator\AppData\Local\Temp\cccZuMLW.s 			page 3


  89:Core/Src/main.c **** 
  90:Core/Src/main.c ****   /* USER CODE BEGIN SysInit */
  91:Core/Src/main.c **** 
  92:Core/Src/main.c ****   /* USER CODE END SysInit */
  93:Core/Src/main.c **** 
  94:Core/Src/main.c ****   /* Initialize all configured peripherals */
  95:Core/Src/main.c ****   MX_GPIO_Init();
  96:Core/Src/main.c ****   MX_TIM6_Init();
  97:Core/Src/main.c ****   MX_TIM7_Init();
  98:Core/Src/main.c ****   /* USER CODE BEGIN 2 */
  99:Core/Src/main.c **** 
 100:Core/Src/main.c ****   /* USER CODE END 2 */
 101:Core/Src/main.c **** 
 102:Core/Src/main.c ****   /* Infinite loop */
 103:Core/Src/main.c ****   /* USER CODE BEGIN WHILE */
 104:Core/Src/main.c ****   while (1)
 105:Core/Src/main.c ****   {
 106:Core/Src/main.c ****     /* USER CODE END WHILE */
 107:Core/Src/main.c ****       if(S_Uart_Rx_Handler(buff,&len))            
 108:Core/Src/main.c ****         {
 109:Core/Src/main.c ****             S_Uart_Send_Buff(buff,len);            //将收到的数据发送出去
 110:Core/Src/main.c ****             memset(buff,0x00,200);  //清除缓存    
 111:Core/Src/main.c ****         }
 112:Core/Src/main.c ****  
 113:Core/Src/main.c ****      S_Uart_One_Tx('a');
 114:Core/Src/main.c ****     //  S_Uart_Send_Buff(p_Arr1,sizeof(p_Arr1) / sizeof(p_Arr1[0]));    
 115:Core/Src/main.c ****     //  S_Uart_Send_Str(AT_CMD_softAP);
 116:Core/Src/main.c ****      HAL_Delay(100);
 117:Core/Src/main.c ****     /* USER CODE BEGIN 3 */
 118:Core/Src/main.c ****   }
 119:Core/Src/main.c ****   /* USER CODE END 3 */
 120:Core/Src/main.c **** }
 121:Core/Src/main.c **** 
 122:Core/Src/main.c **** /**
 123:Core/Src/main.c ****   * @brief System Clock Configuration
 124:Core/Src/main.c ****   * @retval None
 125:Core/Src/main.c ****   */
 126:Core/Src/main.c **** void SystemClock_Config(void)
 127:Core/Src/main.c **** {
 128:Core/Src/main.c ****   RCC_OscInitTypeDef RCC_OscInitStruct = {0};
 129:Core/Src/main.c ****   RCC_ClkInitTypeDef RCC_ClkInitStruct = {0};
 130:Core/Src/main.c **** 
 131:Core/Src/main.c ****   /** Configure the main internal regulator output voltage
 132:Core/Src/main.c ****   */
 133:Core/Src/main.c ****   __HAL_RCC_PWR_CLK_ENABLE();
 134:Core/Src/main.c ****   __HAL_PWR_VOLTAGESCALING_CONFIG(PWR_REGULATOR_VOLTAGE_SCALE1);
 135:Core/Src/main.c **** 
 136:Core/Src/main.c ****   /** Initializes the RCC Oscillators according to the specified parameters
 137:Core/Src/main.c ****   * in the RCC_OscInitTypeDef structure.
 138:Core/Src/main.c ****   */
 139:Core/Src/main.c ****   RCC_OscInitStruct.OscillatorType = RCC_OSCILLATORTYPE_HSI;
 140:Core/Src/main.c ****   RCC_OscInitStruct.HSIState = RCC_HSI_ON;
 141:Core/Src/main.c ****   RCC_OscInitStruct.HSICalibrationValue = RCC_HSICALIBRATION_DEFAULT;
 142:Core/Src/main.c ****   RCC_OscInitStruct.PLL.PLLState = RCC_PLL_ON;
 143:Core/Src/main.c ****   RCC_OscInitStruct.PLL.PLLSource = RCC_PLLSOURCE_HSI;
 144:Core/Src/main.c ****   RCC_OscInitStruct.PLL.PLLM = 8;
 145:Core/Src/main.c ****   RCC_OscInitStruct.PLL.PLLN = 168;
ARM GAS  C:\Users\Administrator\AppData\Local\Temp\cccZuMLW.s 			page 4


 146:Core/Src/main.c ****   RCC_OscInitStruct.PLL.PLLP = RCC_PLLP_DIV2;
 147:Core/Src/main.c ****   RCC_OscInitStruct.PLL.PLLQ = 4;
 148:Core/Src/main.c ****   if (HAL_RCC_OscConfig(&RCC_OscInitStruct) != HAL_OK)
 149:Core/Src/main.c ****   {
 150:Core/Src/main.c ****     Error_Handler();
 151:Core/Src/main.c ****   }
 152:Core/Src/main.c **** 
 153:Core/Src/main.c ****   /** Initializes the CPU, AHB and APB buses clocks
 154:Core/Src/main.c ****   */
 155:Core/Src/main.c ****   RCC_ClkInitStruct.ClockType = RCC_CLOCKTYPE_HCLK|RCC_CLOCKTYPE_SYSCLK
 156:Core/Src/main.c ****                               |RCC_CLOCKTYPE_PCLK1|RCC_CLOCKTYPE_PCLK2;
 157:Core/Src/main.c ****   RCC_ClkInitStruct.SYSCLKSource = RCC_SYSCLKSOURCE_PLLCLK;
 158:Core/Src/main.c ****   RCC_ClkInitStruct.AHBCLKDivider = RCC_SYSCLK_DIV1;
 159:Core/Src/main.c ****   RCC_ClkInitStruct.APB1CLKDivider = RCC_HCLK_DIV4;
 160:Core/Src/main.c ****   RCC_ClkInitStruct.APB2CLKDivider = RCC_HCLK_DIV2;
 161:Core/Src/main.c **** 
 162:Core/Src/main.c ****   if (HAL_RCC_ClockConfig(&RCC_ClkInitStruct, FLASH_LATENCY_5) != HAL_OK)
 163:Core/Src/main.c ****   {
 164:Core/Src/main.c ****     Error_Handler();
 165:Core/Src/main.c ****   }
 166:Core/Src/main.c **** }
 167:Core/Src/main.c **** 
 168:Core/Src/main.c **** /**
 169:Core/Src/main.c ****   * @brief TIM6 Initialization Function
 170:Core/Src/main.c ****   * @param None
 171:Core/Src/main.c ****   * @retval None
 172:Core/Src/main.c ****   */
 173:Core/Src/main.c **** static void MX_TIM6_Init(void)
 174:Core/Src/main.c **** {
 175:Core/Src/main.c **** 
 176:Core/Src/main.c ****   /* USER CODE BEGIN TIM6_Init 0 */
 177:Core/Src/main.c **** 
 178:Core/Src/main.c ****   /* USER CODE END TIM6_Init 0 */
 179:Core/Src/main.c **** 
 180:Core/Src/main.c ****   TIM_MasterConfigTypeDef sMasterConfig = {0};
 181:Core/Src/main.c **** 
 182:Core/Src/main.c ****   /* USER CODE BEGIN TIM6_Init 1 */
 183:Core/Src/main.c **** 
 184:Core/Src/main.c ****   /* USER CODE END TIM6_Init 1 */
 185:Core/Src/main.c ****   htim6.Instance = TIM6;
 186:Core/Src/main.c ****   htim6.Init.Prescaler = 84-1;
 187:Core/Src/main.c ****   htim6.Init.CounterMode = TIM_COUNTERMODE_UP;
 188:Core/Src/main.c ****   htim6.Init.Period = 65535-1;
 189:Core/Src/main.c ****   htim6.Init.AutoReloadPreload = TIM_AUTORELOAD_PRELOAD_DISABLE;
 190:Core/Src/main.c ****   if (HAL_TIM_Base_Init(&htim6) != HAL_OK)
 191:Core/Src/main.c ****   {
 192:Core/Src/main.c ****     Error_Handler();
 193:Core/Src/main.c ****   }
 194:Core/Src/main.c ****   sMasterConfig.MasterOutputTrigger = TIM_TRGO_RESET;
 195:Core/Src/main.c ****   sMasterConfig.MasterSlaveMode = TIM_MASTERSLAVEMODE_DISABLE;
 196:Core/Src/main.c ****   if (HAL_TIMEx_MasterConfigSynchronization(&htim6, &sMasterConfig) != HAL_OK)
 197:Core/Src/main.c ****   {
 198:Core/Src/main.c ****     Error_Handler();
 199:Core/Src/main.c ****   }
 200:Core/Src/main.c ****   /* USER CODE BEGIN TIM6_Init 2 */
 201:Core/Src/main.c **** 
 202:Core/Src/main.c ****   /* USER CODE END TIM6_Init 2 */
ARM GAS  C:\Users\Administrator\AppData\Local\Temp\cccZuMLW.s 			page 5


 203:Core/Src/main.c **** 
 204:Core/Src/main.c **** }
 205:Core/Src/main.c **** 
 206:Core/Src/main.c **** /**
 207:Core/Src/main.c ****   * @brief TIM7 Initialization Function
 208:Core/Src/main.c ****   * @param None
 209:Core/Src/main.c ****   * @retval None
 210:Core/Src/main.c ****   */
 211:Core/Src/main.c **** static void MX_TIM7_Init(void)
 212:Core/Src/main.c **** {
 213:Core/Src/main.c **** 
 214:Core/Src/main.c ****   /* USER CODE BEGIN TIM7_Init 0 */
 215:Core/Src/main.c **** 
 216:Core/Src/main.c ****   /* USER CODE END TIM7_Init 0 */
 217:Core/Src/main.c **** 
 218:Core/Src/main.c ****   TIM_MasterConfigTypeDef sMasterConfig = {0};
 219:Core/Src/main.c **** 
 220:Core/Src/main.c ****   /* USER CODE BEGIN TIM7_Init 1 */
 221:Core/Src/main.c **** 
 222:Core/Src/main.c ****   /* USER CODE END TIM7_Init 1 */
 223:Core/Src/main.c ****   htim7.Instance = TIM7;
 224:Core/Src/main.c ****   htim7.Init.Prescaler = 84-1;
 225:Core/Src/main.c ****   htim7.Init.CounterMode = TIM_COUNTERMODE_UP;
 226:Core/Src/main.c ****   htim7.Init.Period = 104;
 227:Core/Src/main.c ****   htim7.Init.AutoReloadPreload = TIM_AUTORELOAD_PRELOAD_DISABLE;
 228:Core/Src/main.c ****   if (HAL_TIM_Base_Init(&htim7) != HAL_OK)
 229:Core/Src/main.c ****   {
 230:Core/Src/main.c ****     Error_Handler();
 231:Core/Src/main.c ****   }
 232:Core/Src/main.c ****   sMasterConfig.MasterOutputTrigger = TIM_TRGO_RESET;
 233:Core/Src/main.c ****   sMasterConfig.MasterSlaveMode = TIM_MASTERSLAVEMODE_DISABLE;
 234:Core/Src/main.c ****   if (HAL_TIMEx_MasterConfigSynchronization(&htim7, &sMasterConfig) != HAL_OK)
 235:Core/Src/main.c ****   {
 236:Core/Src/main.c ****     Error_Handler();
 237:Core/Src/main.c ****   }
 238:Core/Src/main.c ****   /* USER CODE BEGIN TIM7_Init 2 */
 239:Core/Src/main.c **** 
 240:Core/Src/main.c ****   /* USER CODE END TIM7_Init 2 */
 241:Core/Src/main.c **** 
 242:Core/Src/main.c **** }
 243:Core/Src/main.c **** 
 244:Core/Src/main.c **** /**
 245:Core/Src/main.c ****   * @brief GPIO Initialization Function
 246:Core/Src/main.c ****   * @param None
 247:Core/Src/main.c ****   * @retval None
 248:Core/Src/main.c ****   */
 249:Core/Src/main.c **** static void MX_GPIO_Init(void)
 250:Core/Src/main.c **** {
  28              		.loc 1 250 1 view -0
  29              		.cfi_startproc
  30              		@ args = 0, pretend = 0, frame = 40
  31              		@ frame_needed = 0, uses_anonymous_args = 0
  32 0000 F0B5     		push	{r4, r5, r6, r7, lr}
  33              	.LCFI0:
  34              		.cfi_def_cfa_offset 20
  35              		.cfi_offset 4, -20
  36              		.cfi_offset 5, -16
ARM GAS  C:\Users\Administrator\AppData\Local\Temp\cccZuMLW.s 			page 6


  37              		.cfi_offset 6, -12
  38              		.cfi_offset 7, -8
  39              		.cfi_offset 14, -4
  40 0002 8BB0     		sub	sp, sp, #44
  41              	.LCFI1:
  42              		.cfi_def_cfa_offset 64
 251:Core/Src/main.c ****   GPIO_InitTypeDef GPIO_InitStruct = {0};
  43              		.loc 1 251 3 view .LVU1
  44              		.loc 1 251 20 is_stmt 0 view .LVU2
  45 0004 0024     		movs	r4, #0
  46 0006 0594     		str	r4, [sp, #20]
  47 0008 0694     		str	r4, [sp, #24]
  48 000a 0794     		str	r4, [sp, #28]
  49 000c 0894     		str	r4, [sp, #32]
  50 000e 0994     		str	r4, [sp, #36]
 252:Core/Src/main.c **** 
 253:Core/Src/main.c ****   /* GPIO Ports Clock Enable */
 254:Core/Src/main.c ****   __HAL_RCC_GPIOE_CLK_ENABLE();
  51              		.loc 1 254 3 is_stmt 1 view .LVU3
  52              	.LBB4:
  53              		.loc 1 254 3 view .LVU4
  54 0010 0094     		str	r4, [sp]
  55              		.loc 1 254 3 view .LVU5
  56 0012 2A4B     		ldr	r3, .L3
  57 0014 1A6B     		ldr	r2, [r3, #48]
  58 0016 42F01002 		orr	r2, r2, #16
  59 001a 1A63     		str	r2, [r3, #48]
  60              		.loc 1 254 3 view .LVU6
  61 001c 1A6B     		ldr	r2, [r3, #48]
  62 001e 02F01002 		and	r2, r2, #16
  63 0022 0092     		str	r2, [sp]
  64              		.loc 1 254 3 view .LVU7
  65 0024 009A     		ldr	r2, [sp]
  66              	.LBE4:
  67              		.loc 1 254 3 view .LVU8
 255:Core/Src/main.c ****   __HAL_RCC_GPIOC_CLK_ENABLE();
  68              		.loc 1 255 3 view .LVU9
  69              	.LBB5:
  70              		.loc 1 255 3 view .LVU10
  71 0026 0194     		str	r4, [sp, #4]
  72              		.loc 1 255 3 view .LVU11
  73 0028 1A6B     		ldr	r2, [r3, #48]
  74 002a 42F00402 		orr	r2, r2, #4
  75 002e 1A63     		str	r2, [r3, #48]
  76              		.loc 1 255 3 view .LVU12
  77 0030 1A6B     		ldr	r2, [r3, #48]
  78 0032 02F00402 		and	r2, r2, #4
  79 0036 0192     		str	r2, [sp, #4]
  80              		.loc 1 255 3 view .LVU13
  81 0038 019A     		ldr	r2, [sp, #4]
  82              	.LBE5:
  83              		.loc 1 255 3 view .LVU14
 256:Core/Src/main.c ****   __HAL_RCC_GPIOH_CLK_ENABLE();
  84              		.loc 1 256 3 view .LVU15
  85              	.LBB6:
  86              		.loc 1 256 3 view .LVU16
  87 003a 0294     		str	r4, [sp, #8]
ARM GAS  C:\Users\Administrator\AppData\Local\Temp\cccZuMLW.s 			page 7


  88              		.loc 1 256 3 view .LVU17
  89 003c 1A6B     		ldr	r2, [r3, #48]
  90 003e 42F08002 		orr	r2, r2, #128
  91 0042 1A63     		str	r2, [r3, #48]
  92              		.loc 1 256 3 view .LVU18
  93 0044 1A6B     		ldr	r2, [r3, #48]
  94 0046 02F08002 		and	r2, r2, #128
  95 004a 0292     		str	r2, [sp, #8]
  96              		.loc 1 256 3 view .LVU19
  97 004c 029A     		ldr	r2, [sp, #8]
  98              	.LBE6:
  99              		.loc 1 256 3 view .LVU20
 257:Core/Src/main.c ****   __HAL_RCC_GPIOA_CLK_ENABLE();
 100              		.loc 1 257 3 view .LVU21
 101              	.LBB7:
 102              		.loc 1 257 3 view .LVU22
 103 004e 0394     		str	r4, [sp, #12]
 104              		.loc 1 257 3 view .LVU23
 105 0050 1A6B     		ldr	r2, [r3, #48]
 106 0052 42F00102 		orr	r2, r2, #1
 107 0056 1A63     		str	r2, [r3, #48]
 108              		.loc 1 257 3 view .LVU24
 109 0058 1A6B     		ldr	r2, [r3, #48]
 110 005a 02F00102 		and	r2, r2, #1
 111 005e 0392     		str	r2, [sp, #12]
 112              		.loc 1 257 3 view .LVU25
 113 0060 039A     		ldr	r2, [sp, #12]
 114              	.LBE7:
 115              		.loc 1 257 3 view .LVU26
 258:Core/Src/main.c ****   __HAL_RCC_GPIOD_CLK_ENABLE();
 116              		.loc 1 258 3 view .LVU27
 117              	.LBB8:
 118              		.loc 1 258 3 view .LVU28
 119 0062 0494     		str	r4, [sp, #16]
 120              		.loc 1 258 3 view .LVU29
 121 0064 1A6B     		ldr	r2, [r3, #48]
 122 0066 42F00802 		orr	r2, r2, #8
 123 006a 1A63     		str	r2, [r3, #48]
 124              		.loc 1 258 3 view .LVU30
 125 006c 1B6B     		ldr	r3, [r3, #48]
 126 006e 03F00803 		and	r3, r3, #8
 127 0072 0493     		str	r3, [sp, #16]
 128              		.loc 1 258 3 view .LVU31
 129 0074 049B     		ldr	r3, [sp, #16]
 130              	.LBE8:
 131              		.loc 1 258 3 view .LVU32
 259:Core/Src/main.c **** 
 260:Core/Src/main.c ****   /*Configure GPIO pin Output Level */
 261:Core/Src/main.c ****   HAL_GPIO_WritePin(GPIOE, GPIO_PIN_6, GPIO_PIN_SET);
 132              		.loc 1 261 3 view .LVU33
 133 0076 124F     		ldr	r7, .L3+4
 134 0078 0122     		movs	r2, #1
 135 007a 4021     		movs	r1, #64
 136 007c 3846     		mov	r0, r7
 137 007e FFF7FEFF 		bl	HAL_GPIO_WritePin
 138              	.LVL0:
 262:Core/Src/main.c **** 
ARM GAS  C:\Users\Administrator\AppData\Local\Temp\cccZuMLW.s 			page 8


 263:Core/Src/main.c ****   /*Configure GPIO pin : PE6 */
 264:Core/Src/main.c ****   GPIO_InitStruct.Pin = GPIO_PIN_6;
 139              		.loc 1 264 3 view .LVU34
 140              		.loc 1 264 23 is_stmt 0 view .LVU35
 141 0082 4026     		movs	r6, #64
 142 0084 0596     		str	r6, [sp, #20]
 265:Core/Src/main.c ****   GPIO_InitStruct.Mode = GPIO_MODE_OUTPUT_PP;
 143              		.loc 1 265 3 is_stmt 1 view .LVU36
 144              		.loc 1 265 24 is_stmt 0 view .LVU37
 145 0086 0125     		movs	r5, #1
 146 0088 0695     		str	r5, [sp, #24]
 266:Core/Src/main.c ****   GPIO_InitStruct.Pull = GPIO_PULLUP;
 147              		.loc 1 266 3 is_stmt 1 view .LVU38
 148              		.loc 1 266 24 is_stmt 0 view .LVU39
 149 008a 0795     		str	r5, [sp, #28]
 267:Core/Src/main.c ****   GPIO_InitStruct.Speed = GPIO_SPEED_FREQ_LOW;
 150              		.loc 1 267 3 is_stmt 1 view .LVU40
 151              		.loc 1 267 25 is_stmt 0 view .LVU41
 152 008c 0894     		str	r4, [sp, #32]
 268:Core/Src/main.c ****   HAL_GPIO_Init(GPIOE, &GPIO_InitStruct);
 153              		.loc 1 268 3 is_stmt 1 view .LVU42
 154 008e 05A9     		add	r1, sp, #20
 155 0090 3846     		mov	r0, r7
 156 0092 FFF7FEFF 		bl	HAL_GPIO_Init
 157              	.LVL1:
 269:Core/Src/main.c **** 
 270:Core/Src/main.c ****   /*Configure GPIO pin : PD6 */
 271:Core/Src/main.c ****   GPIO_InitStruct.Pin = GPIO_PIN_6;
 158              		.loc 1 271 3 view .LVU43
 159              		.loc 1 271 23 is_stmt 0 view .LVU44
 160 0096 0596     		str	r6, [sp, #20]
 272:Core/Src/main.c ****   GPIO_InitStruct.Mode = GPIO_MODE_IT_FALLING;
 161              		.loc 1 272 3 is_stmt 1 view .LVU45
 162              		.loc 1 272 24 is_stmt 0 view .LVU46
 163 0098 4FF40413 		mov	r3, #2162688
 164 009c 0693     		str	r3, [sp, #24]
 273:Core/Src/main.c ****   GPIO_InitStruct.Pull = GPIO_PULLUP;
 165              		.loc 1 273 3 is_stmt 1 view .LVU47
 166              		.loc 1 273 24 is_stmt 0 view .LVU48
 167 009e 0795     		str	r5, [sp, #28]
 274:Core/Src/main.c ****   HAL_GPIO_Init(GPIOD, &GPIO_InitStruct);
 168              		.loc 1 274 3 is_stmt 1 view .LVU49
 169 00a0 05A9     		add	r1, sp, #20
 170 00a2 0848     		ldr	r0, .L3+8
 171 00a4 FFF7FEFF 		bl	HAL_GPIO_Init
 172              	.LVL2:
 275:Core/Src/main.c **** 
 276:Core/Src/main.c ****   /* EXTI interrupt init*/
 277:Core/Src/main.c ****   HAL_NVIC_SetPriority(EXTI9_5_IRQn, 0, 0);
 173              		.loc 1 277 3 view .LVU50
 174 00a8 2246     		mov	r2, r4
 175 00aa 2146     		mov	r1, r4
 176 00ac 1720     		movs	r0, #23
 177 00ae FFF7FEFF 		bl	HAL_NVIC_SetPriority
 178              	.LVL3:
 278:Core/Src/main.c ****   HAL_NVIC_EnableIRQ(EXTI9_5_IRQn);
 179              		.loc 1 278 3 view .LVU51
ARM GAS  C:\Users\Administrator\AppData\Local\Temp\cccZuMLW.s 			page 9


 180 00b2 1720     		movs	r0, #23
 181 00b4 FFF7FEFF 		bl	HAL_NVIC_EnableIRQ
 182              	.LVL4:
 279:Core/Src/main.c **** 
 280:Core/Src/main.c **** }
 183              		.loc 1 280 1 is_stmt 0 view .LVU52
 184 00b8 0BB0     		add	sp, sp, #44
 185              	.LCFI2:
 186              		.cfi_def_cfa_offset 20
 187              		@ sp needed
 188 00ba F0BD     		pop	{r4, r5, r6, r7, pc}
 189              	.L4:
 190              		.align	2
 191              	.L3:
 192 00bc 00380240 		.word	1073887232
 193 00c0 00100240 		.word	1073876992
 194 00c4 000C0240 		.word	1073875968
 195              		.cfi_endproc
 196              	.LFE137:
 198              		.section	.text.Error_Handler,"ax",%progbits
 199              		.align	1
 200              		.global	Error_Handler
 201              		.syntax unified
 202              		.thumb
 203              		.thumb_func
 205              	Error_Handler:
 206              	.LFB138:
 281:Core/Src/main.c **** 
 282:Core/Src/main.c **** /* USER CODE BEGIN 4 */
 283:Core/Src/main.c **** 
 284:Core/Src/main.c **** /* USER CODE END 4 */
 285:Core/Src/main.c **** 
 286:Core/Src/main.c **** /**
 287:Core/Src/main.c ****   * @brief  This function is executed in case of error occurrence.
 288:Core/Src/main.c ****   * @retval None
 289:Core/Src/main.c ****   */
 290:Core/Src/main.c **** void Error_Handler(void)
 291:Core/Src/main.c **** {
 207              		.loc 1 291 1 is_stmt 1 view -0
 208              		.cfi_startproc
 209              		@ Volatile: function does not return.
 210              		@ args = 0, pretend = 0, frame = 0
 211              		@ frame_needed = 0, uses_anonymous_args = 0
 212              		@ link register save eliminated.
 292:Core/Src/main.c ****   /* USER CODE BEGIN Error_Handler_Debug */
 293:Core/Src/main.c ****   /* User can add his own implementation to report the HAL error return state */
 294:Core/Src/main.c ****   __disable_irq();
 213              		.loc 1 294 3 view .LVU54
 214              	.LBB9:
 215              	.LBI9:
 216              		.file 2 "Drivers/CMSIS/Include/cmsis_gcc.h"
   1:Drivers/CMSIS/Include/cmsis_gcc.h **** /**************************************************************************//**
   2:Drivers/CMSIS/Include/cmsis_gcc.h ****  * @file     cmsis_gcc.h
   3:Drivers/CMSIS/Include/cmsis_gcc.h ****  * @brief    CMSIS compiler GCC header file
   4:Drivers/CMSIS/Include/cmsis_gcc.h ****  * @version  V5.0.4
   5:Drivers/CMSIS/Include/cmsis_gcc.h ****  * @date     09. April 2018
   6:Drivers/CMSIS/Include/cmsis_gcc.h ****  ******************************************************************************/
ARM GAS  C:\Users\Administrator\AppData\Local\Temp\cccZuMLW.s 			page 10


   7:Drivers/CMSIS/Include/cmsis_gcc.h **** /*
   8:Drivers/CMSIS/Include/cmsis_gcc.h ****  * Copyright (c) 2009-2018 Arm Limited. All rights reserved.
   9:Drivers/CMSIS/Include/cmsis_gcc.h ****  *
  10:Drivers/CMSIS/Include/cmsis_gcc.h ****  * SPDX-License-Identifier: Apache-2.0
  11:Drivers/CMSIS/Include/cmsis_gcc.h ****  *
  12:Drivers/CMSIS/Include/cmsis_gcc.h ****  * Licensed under the Apache License, Version 2.0 (the License); you may
  13:Drivers/CMSIS/Include/cmsis_gcc.h ****  * not use this file except in compliance with the License.
  14:Drivers/CMSIS/Include/cmsis_gcc.h ****  * You may obtain a copy of the License at
  15:Drivers/CMSIS/Include/cmsis_gcc.h ****  *
  16:Drivers/CMSIS/Include/cmsis_gcc.h ****  * www.apache.org/licenses/LICENSE-2.0
  17:Drivers/CMSIS/Include/cmsis_gcc.h ****  *
  18:Drivers/CMSIS/Include/cmsis_gcc.h ****  * Unless required by applicable law or agreed to in writing, software
  19:Drivers/CMSIS/Include/cmsis_gcc.h ****  * distributed under the License is distributed on an AS IS BASIS, WITHOUT
  20:Drivers/CMSIS/Include/cmsis_gcc.h ****  * WARRANTIES OR CONDITIONS OF ANY KIND, either express or implied.
  21:Drivers/CMSIS/Include/cmsis_gcc.h ****  * See the License for the specific language governing permissions and
  22:Drivers/CMSIS/Include/cmsis_gcc.h ****  * limitations under the License.
  23:Drivers/CMSIS/Include/cmsis_gcc.h ****  */
  24:Drivers/CMSIS/Include/cmsis_gcc.h **** 
  25:Drivers/CMSIS/Include/cmsis_gcc.h **** #ifndef __CMSIS_GCC_H
  26:Drivers/CMSIS/Include/cmsis_gcc.h **** #define __CMSIS_GCC_H
  27:Drivers/CMSIS/Include/cmsis_gcc.h **** 
  28:Drivers/CMSIS/Include/cmsis_gcc.h **** /* ignore some GCC warnings */
  29:Drivers/CMSIS/Include/cmsis_gcc.h **** #pragma GCC diagnostic push
  30:Drivers/CMSIS/Include/cmsis_gcc.h **** #pragma GCC diagnostic ignored "-Wsign-conversion"
  31:Drivers/CMSIS/Include/cmsis_gcc.h **** #pragma GCC diagnostic ignored "-Wconversion"
  32:Drivers/CMSIS/Include/cmsis_gcc.h **** #pragma GCC diagnostic ignored "-Wunused-parameter"
  33:Drivers/CMSIS/Include/cmsis_gcc.h **** 
  34:Drivers/CMSIS/Include/cmsis_gcc.h **** /* Fallback for __has_builtin */
  35:Drivers/CMSIS/Include/cmsis_gcc.h **** #ifndef __has_builtin
  36:Drivers/CMSIS/Include/cmsis_gcc.h ****   #define __has_builtin(x) (0)
  37:Drivers/CMSIS/Include/cmsis_gcc.h **** #endif
  38:Drivers/CMSIS/Include/cmsis_gcc.h **** 
  39:Drivers/CMSIS/Include/cmsis_gcc.h **** /* CMSIS compiler specific defines */
  40:Drivers/CMSIS/Include/cmsis_gcc.h **** #ifndef   __ASM
  41:Drivers/CMSIS/Include/cmsis_gcc.h ****   #define __ASM                                  __asm
  42:Drivers/CMSIS/Include/cmsis_gcc.h **** #endif
  43:Drivers/CMSIS/Include/cmsis_gcc.h **** #ifndef   __INLINE
  44:Drivers/CMSIS/Include/cmsis_gcc.h ****   #define __INLINE                               inline
  45:Drivers/CMSIS/Include/cmsis_gcc.h **** #endif
  46:Drivers/CMSIS/Include/cmsis_gcc.h **** #ifndef   __STATIC_INLINE
  47:Drivers/CMSIS/Include/cmsis_gcc.h ****   #define __STATIC_INLINE                        static inline
  48:Drivers/CMSIS/Include/cmsis_gcc.h **** #endif
  49:Drivers/CMSIS/Include/cmsis_gcc.h **** #ifndef   __STATIC_FORCEINLINE                 
  50:Drivers/CMSIS/Include/cmsis_gcc.h ****   #define __STATIC_FORCEINLINE                   __attribute__((always_inline)) static inline
  51:Drivers/CMSIS/Include/cmsis_gcc.h **** #endif                                           
  52:Drivers/CMSIS/Include/cmsis_gcc.h **** #ifndef   __NO_RETURN
  53:Drivers/CMSIS/Include/cmsis_gcc.h ****   #define __NO_RETURN                            __attribute__((__noreturn__))
  54:Drivers/CMSIS/Include/cmsis_gcc.h **** #endif
  55:Drivers/CMSIS/Include/cmsis_gcc.h **** #ifndef   __USED
  56:Drivers/CMSIS/Include/cmsis_gcc.h ****   #define __USED                                 __attribute__((used))
  57:Drivers/CMSIS/Include/cmsis_gcc.h **** #endif
  58:Drivers/CMSIS/Include/cmsis_gcc.h **** #ifndef   __WEAK
  59:Drivers/CMSIS/Include/cmsis_gcc.h ****   #define __WEAK                                 __attribute__((weak))
  60:Drivers/CMSIS/Include/cmsis_gcc.h **** #endif
  61:Drivers/CMSIS/Include/cmsis_gcc.h **** #ifndef   __PACKED
  62:Drivers/CMSIS/Include/cmsis_gcc.h ****   #define __PACKED                               __attribute__((packed, aligned(1)))
  63:Drivers/CMSIS/Include/cmsis_gcc.h **** #endif
ARM GAS  C:\Users\Administrator\AppData\Local\Temp\cccZuMLW.s 			page 11


  64:Drivers/CMSIS/Include/cmsis_gcc.h **** #ifndef   __PACKED_STRUCT
  65:Drivers/CMSIS/Include/cmsis_gcc.h ****   #define __PACKED_STRUCT                        struct __attribute__((packed, aligned(1)))
  66:Drivers/CMSIS/Include/cmsis_gcc.h **** #endif
  67:Drivers/CMSIS/Include/cmsis_gcc.h **** #ifndef   __PACKED_UNION
  68:Drivers/CMSIS/Include/cmsis_gcc.h ****   #define __PACKED_UNION                         union __attribute__((packed, aligned(1)))
  69:Drivers/CMSIS/Include/cmsis_gcc.h **** #endif
  70:Drivers/CMSIS/Include/cmsis_gcc.h **** #ifndef   __UNALIGNED_UINT32        /* deprecated */
  71:Drivers/CMSIS/Include/cmsis_gcc.h ****   #pragma GCC diagnostic push
  72:Drivers/CMSIS/Include/cmsis_gcc.h ****   #pragma GCC diagnostic ignored "-Wpacked"
  73:Drivers/CMSIS/Include/cmsis_gcc.h ****   #pragma GCC diagnostic ignored "-Wattributes"
  74:Drivers/CMSIS/Include/cmsis_gcc.h ****   struct __attribute__((packed)) T_UINT32 { uint32_t v; };
  75:Drivers/CMSIS/Include/cmsis_gcc.h ****   #pragma GCC diagnostic pop
  76:Drivers/CMSIS/Include/cmsis_gcc.h ****   #define __UNALIGNED_UINT32(x)                  (((struct T_UINT32 *)(x))->v)
  77:Drivers/CMSIS/Include/cmsis_gcc.h **** #endif
  78:Drivers/CMSIS/Include/cmsis_gcc.h **** #ifndef   __UNALIGNED_UINT16_WRITE
  79:Drivers/CMSIS/Include/cmsis_gcc.h ****   #pragma GCC diagnostic push
  80:Drivers/CMSIS/Include/cmsis_gcc.h ****   #pragma GCC diagnostic ignored "-Wpacked"
  81:Drivers/CMSIS/Include/cmsis_gcc.h ****   #pragma GCC diagnostic ignored "-Wattributes"
  82:Drivers/CMSIS/Include/cmsis_gcc.h ****   __PACKED_STRUCT T_UINT16_WRITE { uint16_t v; };
  83:Drivers/CMSIS/Include/cmsis_gcc.h ****   #pragma GCC diagnostic pop
  84:Drivers/CMSIS/Include/cmsis_gcc.h ****   #define __UNALIGNED_UINT16_WRITE(addr, val)    (void)((((struct T_UINT16_WRITE *)(void *)(addr))-
  85:Drivers/CMSIS/Include/cmsis_gcc.h **** #endif
  86:Drivers/CMSIS/Include/cmsis_gcc.h **** #ifndef   __UNALIGNED_UINT16_READ
  87:Drivers/CMSIS/Include/cmsis_gcc.h ****   #pragma GCC diagnostic push
  88:Drivers/CMSIS/Include/cmsis_gcc.h ****   #pragma GCC diagnostic ignored "-Wpacked"
  89:Drivers/CMSIS/Include/cmsis_gcc.h ****   #pragma GCC diagnostic ignored "-Wattributes"
  90:Drivers/CMSIS/Include/cmsis_gcc.h ****   __PACKED_STRUCT T_UINT16_READ { uint16_t v; };
  91:Drivers/CMSIS/Include/cmsis_gcc.h ****   #pragma GCC diagnostic pop
  92:Drivers/CMSIS/Include/cmsis_gcc.h ****   #define __UNALIGNED_UINT16_READ(addr)          (((const struct T_UINT16_READ *)(const void *)(add
  93:Drivers/CMSIS/Include/cmsis_gcc.h **** #endif
  94:Drivers/CMSIS/Include/cmsis_gcc.h **** #ifndef   __UNALIGNED_UINT32_WRITE
  95:Drivers/CMSIS/Include/cmsis_gcc.h ****   #pragma GCC diagnostic push
  96:Drivers/CMSIS/Include/cmsis_gcc.h ****   #pragma GCC diagnostic ignored "-Wpacked"
  97:Drivers/CMSIS/Include/cmsis_gcc.h ****   #pragma GCC diagnostic ignored "-Wattributes"
  98:Drivers/CMSIS/Include/cmsis_gcc.h ****   __PACKED_STRUCT T_UINT32_WRITE { uint32_t v; };
  99:Drivers/CMSIS/Include/cmsis_gcc.h ****   #pragma GCC diagnostic pop
 100:Drivers/CMSIS/Include/cmsis_gcc.h ****   #define __UNALIGNED_UINT32_WRITE(addr, val)    (void)((((struct T_UINT32_WRITE *)(void *)(addr))-
 101:Drivers/CMSIS/Include/cmsis_gcc.h **** #endif
 102:Drivers/CMSIS/Include/cmsis_gcc.h **** #ifndef   __UNALIGNED_UINT32_READ
 103:Drivers/CMSIS/Include/cmsis_gcc.h ****   #pragma GCC diagnostic push
 104:Drivers/CMSIS/Include/cmsis_gcc.h ****   #pragma GCC diagnostic ignored "-Wpacked"
 105:Drivers/CMSIS/Include/cmsis_gcc.h ****   #pragma GCC diagnostic ignored "-Wattributes"
 106:Drivers/CMSIS/Include/cmsis_gcc.h ****   __PACKED_STRUCT T_UINT32_READ { uint32_t v; };
 107:Drivers/CMSIS/Include/cmsis_gcc.h ****   #pragma GCC diagnostic pop
 108:Drivers/CMSIS/Include/cmsis_gcc.h ****   #define __UNALIGNED_UINT32_READ(addr)          (((const struct T_UINT32_READ *)(const void *)(add
 109:Drivers/CMSIS/Include/cmsis_gcc.h **** #endif
 110:Drivers/CMSIS/Include/cmsis_gcc.h **** #ifndef   __ALIGNED
 111:Drivers/CMSIS/Include/cmsis_gcc.h ****   #define __ALIGNED(x)                           __attribute__((aligned(x)))
 112:Drivers/CMSIS/Include/cmsis_gcc.h **** #endif
 113:Drivers/CMSIS/Include/cmsis_gcc.h **** #ifndef   __RESTRICT
 114:Drivers/CMSIS/Include/cmsis_gcc.h ****   #define __RESTRICT                             __restrict
 115:Drivers/CMSIS/Include/cmsis_gcc.h **** #endif
 116:Drivers/CMSIS/Include/cmsis_gcc.h **** 
 117:Drivers/CMSIS/Include/cmsis_gcc.h **** 
 118:Drivers/CMSIS/Include/cmsis_gcc.h **** /* ###########################  Core Function Access  ########################### */
 119:Drivers/CMSIS/Include/cmsis_gcc.h **** /** \ingroup  CMSIS_Core_FunctionInterface
 120:Drivers/CMSIS/Include/cmsis_gcc.h ****     \defgroup CMSIS_Core_RegAccFunctions CMSIS Core Register Access Functions
ARM GAS  C:\Users\Administrator\AppData\Local\Temp\cccZuMLW.s 			page 12


 121:Drivers/CMSIS/Include/cmsis_gcc.h ****   @{
 122:Drivers/CMSIS/Include/cmsis_gcc.h ****  */
 123:Drivers/CMSIS/Include/cmsis_gcc.h **** 
 124:Drivers/CMSIS/Include/cmsis_gcc.h **** /**
 125:Drivers/CMSIS/Include/cmsis_gcc.h ****   \brief   Enable IRQ Interrupts
 126:Drivers/CMSIS/Include/cmsis_gcc.h ****   \details Enables IRQ interrupts by clearing the I-bit in the CPSR.
 127:Drivers/CMSIS/Include/cmsis_gcc.h ****            Can only be executed in Privileged modes.
 128:Drivers/CMSIS/Include/cmsis_gcc.h ****  */
 129:Drivers/CMSIS/Include/cmsis_gcc.h **** __STATIC_FORCEINLINE void __enable_irq(void)
 130:Drivers/CMSIS/Include/cmsis_gcc.h **** {
 131:Drivers/CMSIS/Include/cmsis_gcc.h ****   __ASM volatile ("cpsie i" : : : "memory");
 132:Drivers/CMSIS/Include/cmsis_gcc.h **** }
 133:Drivers/CMSIS/Include/cmsis_gcc.h **** 
 134:Drivers/CMSIS/Include/cmsis_gcc.h **** 
 135:Drivers/CMSIS/Include/cmsis_gcc.h **** /**
 136:Drivers/CMSIS/Include/cmsis_gcc.h ****   \brief   Disable IRQ Interrupts
 137:Drivers/CMSIS/Include/cmsis_gcc.h ****   \details Disables IRQ interrupts by setting the I-bit in the CPSR.
 138:Drivers/CMSIS/Include/cmsis_gcc.h ****            Can only be executed in Privileged modes.
 139:Drivers/CMSIS/Include/cmsis_gcc.h ****  */
 140:Drivers/CMSIS/Include/cmsis_gcc.h **** __STATIC_FORCEINLINE void __disable_irq(void)
 217              		.loc 2 140 27 view .LVU55
 218              	.LBB10:
 141:Drivers/CMSIS/Include/cmsis_gcc.h **** {
 142:Drivers/CMSIS/Include/cmsis_gcc.h ****   __ASM volatile ("cpsid i" : : : "memory");
 219              		.loc 2 142 3 view .LVU56
 220              		.syntax unified
 221              	@ 142 "Drivers/CMSIS/Include/cmsis_gcc.h" 1
 222 0000 72B6     		cpsid i
 223              	@ 0 "" 2
 224              		.thumb
 225              		.syntax unified
 226              	.L6:
 227              	.LBE10:
 228              	.LBE9:
 295:Core/Src/main.c ****   while (1)
 229              		.loc 1 295 3 discriminator 1 view .LVU57
 296:Core/Src/main.c ****   {
 297:Core/Src/main.c ****   }
 230              		.loc 1 297 3 discriminator 1 view .LVU58
 295:Core/Src/main.c ****   while (1)
 231              		.loc 1 295 9 discriminator 1 view .LVU59
 232 0002 FEE7     		b	.L6
 233              		.cfi_endproc
 234              	.LFE138:
 236              		.section	.text.MX_TIM6_Init,"ax",%progbits
 237              		.align	1
 238              		.syntax unified
 239              		.thumb
 240              		.thumb_func
 242              	MX_TIM6_Init:
 243              	.LFB135:
 174:Core/Src/main.c **** 
 244              		.loc 1 174 1 view -0
 245              		.cfi_startproc
 246              		@ args = 0, pretend = 0, frame = 8
 247              		@ frame_needed = 0, uses_anonymous_args = 0
 248 0000 00B5     		push	{lr}
ARM GAS  C:\Users\Administrator\AppData\Local\Temp\cccZuMLW.s 			page 13


 249              	.LCFI3:
 250              		.cfi_def_cfa_offset 4
 251              		.cfi_offset 14, -4
 252 0002 83B0     		sub	sp, sp, #12
 253              	.LCFI4:
 254              		.cfi_def_cfa_offset 16
 180:Core/Src/main.c **** 
 255              		.loc 1 180 3 view .LVU61
 180:Core/Src/main.c **** 
 256              		.loc 1 180 27 is_stmt 0 view .LVU62
 257 0004 0023     		movs	r3, #0
 258 0006 0093     		str	r3, [sp]
 259 0008 0193     		str	r3, [sp, #4]
 185:Core/Src/main.c ****   htim6.Init.Prescaler = 84-1;
 260              		.loc 1 185 3 is_stmt 1 view .LVU63
 185:Core/Src/main.c ****   htim6.Init.Prescaler = 84-1;
 261              		.loc 1 185 18 is_stmt 0 view .LVU64
 262 000a 0E48     		ldr	r0, .L13
 263 000c 0E4A     		ldr	r2, .L13+4
 264 000e 0260     		str	r2, [r0]
 186:Core/Src/main.c ****   htim6.Init.CounterMode = TIM_COUNTERMODE_UP;
 265              		.loc 1 186 3 is_stmt 1 view .LVU65
 186:Core/Src/main.c ****   htim6.Init.CounterMode = TIM_COUNTERMODE_UP;
 266              		.loc 1 186 24 is_stmt 0 view .LVU66
 267 0010 5322     		movs	r2, #83
 268 0012 4260     		str	r2, [r0, #4]
 187:Core/Src/main.c ****   htim6.Init.Period = 65535-1;
 269              		.loc 1 187 3 is_stmt 1 view .LVU67
 187:Core/Src/main.c ****   htim6.Init.Period = 65535-1;
 270              		.loc 1 187 26 is_stmt 0 view .LVU68
 271 0014 8360     		str	r3, [r0, #8]
 188:Core/Src/main.c ****   htim6.Init.AutoReloadPreload = TIM_AUTORELOAD_PRELOAD_DISABLE;
 272              		.loc 1 188 3 is_stmt 1 view .LVU69
 188:Core/Src/main.c ****   htim6.Init.AutoReloadPreload = TIM_AUTORELOAD_PRELOAD_DISABLE;
 273              		.loc 1 188 21 is_stmt 0 view .LVU70
 274 0016 4FF6FE72 		movw	r2, #65534
 275 001a C260     		str	r2, [r0, #12]
 189:Core/Src/main.c ****   if (HAL_TIM_Base_Init(&htim6) != HAL_OK)
 276              		.loc 1 189 3 is_stmt 1 view .LVU71
 189:Core/Src/main.c ****   if (HAL_TIM_Base_Init(&htim6) != HAL_OK)
 277              		.loc 1 189 32 is_stmt 0 view .LVU72
 278 001c 8361     		str	r3, [r0, #24]
 190:Core/Src/main.c ****   {
 279              		.loc 1 190 3 is_stmt 1 view .LVU73
 190:Core/Src/main.c ****   {
 280              		.loc 1 190 7 is_stmt 0 view .LVU74
 281 001e FFF7FEFF 		bl	HAL_TIM_Base_Init
 282              	.LVL5:
 190:Core/Src/main.c ****   {
 283              		.loc 1 190 6 view .LVU75
 284 0022 50B9     		cbnz	r0, .L11
 194:Core/Src/main.c ****   sMasterConfig.MasterSlaveMode = TIM_MASTERSLAVEMODE_DISABLE;
 285              		.loc 1 194 3 is_stmt 1 view .LVU76
 194:Core/Src/main.c ****   sMasterConfig.MasterSlaveMode = TIM_MASTERSLAVEMODE_DISABLE;
 286              		.loc 1 194 37 is_stmt 0 view .LVU77
 287 0024 0023     		movs	r3, #0
 288 0026 0093     		str	r3, [sp]
ARM GAS  C:\Users\Administrator\AppData\Local\Temp\cccZuMLW.s 			page 14


 195:Core/Src/main.c ****   if (HAL_TIMEx_MasterConfigSynchronization(&htim6, &sMasterConfig) != HAL_OK)
 289              		.loc 1 195 3 is_stmt 1 view .LVU78
 195:Core/Src/main.c ****   if (HAL_TIMEx_MasterConfigSynchronization(&htim6, &sMasterConfig) != HAL_OK)
 290              		.loc 1 195 33 is_stmt 0 view .LVU79
 291 0028 0193     		str	r3, [sp, #4]
 196:Core/Src/main.c ****   {
 292              		.loc 1 196 3 is_stmt 1 view .LVU80
 196:Core/Src/main.c ****   {
 293              		.loc 1 196 7 is_stmt 0 view .LVU81
 294 002a 6946     		mov	r1, sp
 295 002c 0548     		ldr	r0, .L13
 296 002e FFF7FEFF 		bl	HAL_TIMEx_MasterConfigSynchronization
 297              	.LVL6:
 196:Core/Src/main.c ****   {
 298              		.loc 1 196 6 view .LVU82
 299 0032 20B9     		cbnz	r0, .L12
 204:Core/Src/main.c **** 
 300              		.loc 1 204 1 view .LVU83
 301 0034 03B0     		add	sp, sp, #12
 302              	.LCFI5:
 303              		.cfi_remember_state
 304              		.cfi_def_cfa_offset 4
 305              		@ sp needed
 306 0036 5DF804FB 		ldr	pc, [sp], #4
 307              	.L11:
 308              	.LCFI6:
 309              		.cfi_restore_state
 192:Core/Src/main.c ****   }
 310              		.loc 1 192 5 is_stmt 1 view .LVU84
 311 003a FFF7FEFF 		bl	Error_Handler
 312              	.LVL7:
 313              	.L12:
 198:Core/Src/main.c ****   }
 314              		.loc 1 198 5 view .LVU85
 315 003e FFF7FEFF 		bl	Error_Handler
 316              	.LVL8:
 317              	.L14:
 318 0042 00BF     		.align	2
 319              	.L13:
 320 0044 00000000 		.word	.LANCHOR0
 321 0048 00100040 		.word	1073745920
 322              		.cfi_endproc
 323              	.LFE135:
 325              		.section	.text.MX_TIM7_Init,"ax",%progbits
 326              		.align	1
 327              		.syntax unified
 328              		.thumb
 329              		.thumb_func
 331              	MX_TIM7_Init:
 332              	.LFB136:
 212:Core/Src/main.c **** 
 333              		.loc 1 212 1 view -0
 334              		.cfi_startproc
 335              		@ args = 0, pretend = 0, frame = 8
 336              		@ frame_needed = 0, uses_anonymous_args = 0
 337 0000 00B5     		push	{lr}
 338              	.LCFI7:
ARM GAS  C:\Users\Administrator\AppData\Local\Temp\cccZuMLW.s 			page 15


 339              		.cfi_def_cfa_offset 4
 340              		.cfi_offset 14, -4
 341 0002 83B0     		sub	sp, sp, #12
 342              	.LCFI8:
 343              		.cfi_def_cfa_offset 16
 218:Core/Src/main.c **** 
 344              		.loc 1 218 3 view .LVU87
 218:Core/Src/main.c **** 
 345              		.loc 1 218 27 is_stmt 0 view .LVU88
 346 0004 0023     		movs	r3, #0
 347 0006 0093     		str	r3, [sp]
 348 0008 0193     		str	r3, [sp, #4]
 223:Core/Src/main.c ****   htim7.Init.Prescaler = 84-1;
 349              		.loc 1 223 3 is_stmt 1 view .LVU89
 223:Core/Src/main.c ****   htim7.Init.Prescaler = 84-1;
 350              		.loc 1 223 18 is_stmt 0 view .LVU90
 351 000a 0D48     		ldr	r0, .L21
 352 000c 0D4A     		ldr	r2, .L21+4
 353 000e 0260     		str	r2, [r0]
 224:Core/Src/main.c ****   htim7.Init.CounterMode = TIM_COUNTERMODE_UP;
 354              		.loc 1 224 3 is_stmt 1 view .LVU91
 224:Core/Src/main.c ****   htim7.Init.CounterMode = TIM_COUNTERMODE_UP;
 355              		.loc 1 224 24 is_stmt 0 view .LVU92
 356 0010 5322     		movs	r2, #83
 357 0012 4260     		str	r2, [r0, #4]
 225:Core/Src/main.c ****   htim7.Init.Period = 104;
 358              		.loc 1 225 3 is_stmt 1 view .LVU93
 225:Core/Src/main.c ****   htim7.Init.Period = 104;
 359              		.loc 1 225 26 is_stmt 0 view .LVU94
 360 0014 8360     		str	r3, [r0, #8]
 226:Core/Src/main.c ****   htim7.Init.AutoReloadPreload = TIM_AUTORELOAD_PRELOAD_DISABLE;
 361              		.loc 1 226 3 is_stmt 1 view .LVU95
 226:Core/Src/main.c ****   htim7.Init.AutoReloadPreload = TIM_AUTORELOAD_PRELOAD_DISABLE;
 362              		.loc 1 226 21 is_stmt 0 view .LVU96
 363 0016 6822     		movs	r2, #104
 364 0018 C260     		str	r2, [r0, #12]
 227:Core/Src/main.c ****   if (HAL_TIM_Base_Init(&htim7) != HAL_OK)
 365              		.loc 1 227 3 is_stmt 1 view .LVU97
 227:Core/Src/main.c ****   if (HAL_TIM_Base_Init(&htim7) != HAL_OK)
 366              		.loc 1 227 32 is_stmt 0 view .LVU98
 367 001a 8361     		str	r3, [r0, #24]
 228:Core/Src/main.c ****   {
 368              		.loc 1 228 3 is_stmt 1 view .LVU99
 228:Core/Src/main.c ****   {
 369              		.loc 1 228 7 is_stmt 0 view .LVU100
 370 001c FFF7FEFF 		bl	HAL_TIM_Base_Init
 371              	.LVL9:
 228:Core/Src/main.c ****   {
 372              		.loc 1 228 6 view .LVU101
 373 0020 50B9     		cbnz	r0, .L19
 232:Core/Src/main.c ****   sMasterConfig.MasterSlaveMode = TIM_MASTERSLAVEMODE_DISABLE;
 374              		.loc 1 232 3 is_stmt 1 view .LVU102
 232:Core/Src/main.c ****   sMasterConfig.MasterSlaveMode = TIM_MASTERSLAVEMODE_DISABLE;
 375              		.loc 1 232 37 is_stmt 0 view .LVU103
 376 0022 0023     		movs	r3, #0
 377 0024 0093     		str	r3, [sp]
 233:Core/Src/main.c ****   if (HAL_TIMEx_MasterConfigSynchronization(&htim7, &sMasterConfig) != HAL_OK)
ARM GAS  C:\Users\Administrator\AppData\Local\Temp\cccZuMLW.s 			page 16


 378              		.loc 1 233 3 is_stmt 1 view .LVU104
 233:Core/Src/main.c ****   if (HAL_TIMEx_MasterConfigSynchronization(&htim7, &sMasterConfig) != HAL_OK)
 379              		.loc 1 233 33 is_stmt 0 view .LVU105
 380 0026 0193     		str	r3, [sp, #4]
 234:Core/Src/main.c ****   {
 381              		.loc 1 234 3 is_stmt 1 view .LVU106
 234:Core/Src/main.c ****   {
 382              		.loc 1 234 7 is_stmt 0 view .LVU107
 383 0028 6946     		mov	r1, sp
 384 002a 0548     		ldr	r0, .L21
 385 002c FFF7FEFF 		bl	HAL_TIMEx_MasterConfigSynchronization
 386              	.LVL10:
 234:Core/Src/main.c ****   {
 387              		.loc 1 234 6 view .LVU108
 388 0030 20B9     		cbnz	r0, .L20
 242:Core/Src/main.c **** 
 389              		.loc 1 242 1 view .LVU109
 390 0032 03B0     		add	sp, sp, #12
 391              	.LCFI9:
 392              		.cfi_remember_state
 393              		.cfi_def_cfa_offset 4
 394              		@ sp needed
 395 0034 5DF804FB 		ldr	pc, [sp], #4
 396              	.L19:
 397              	.LCFI10:
 398              		.cfi_restore_state
 230:Core/Src/main.c ****   }
 399              		.loc 1 230 5 is_stmt 1 view .LVU110
 400 0038 FFF7FEFF 		bl	Error_Handler
 401              	.LVL11:
 402              	.L20:
 236:Core/Src/main.c ****   }
 403              		.loc 1 236 5 view .LVU111
 404 003c FFF7FEFF 		bl	Error_Handler
 405              	.LVL12:
 406              	.L22:
 407              		.align	2
 408              	.L21:
 409 0040 00000000 		.word	.LANCHOR1
 410 0044 00140040 		.word	1073746944
 411              		.cfi_endproc
 412              	.LFE136:
 414              		.section	.text.SystemClock_Config,"ax",%progbits
 415              		.align	1
 416              		.global	SystemClock_Config
 417              		.syntax unified
 418              		.thumb
 419              		.thumb_func
 421              	SystemClock_Config:
 422              	.LFB134:
 127:Core/Src/main.c ****   RCC_OscInitTypeDef RCC_OscInitStruct = {0};
 423              		.loc 1 127 1 view -0
 424              		.cfi_startproc
 425              		@ args = 0, pretend = 0, frame = 80
 426              		@ frame_needed = 0, uses_anonymous_args = 0
 427 0000 00B5     		push	{lr}
 428              	.LCFI11:
ARM GAS  C:\Users\Administrator\AppData\Local\Temp\cccZuMLW.s 			page 17


 429              		.cfi_def_cfa_offset 4
 430              		.cfi_offset 14, -4
 431 0002 95B0     		sub	sp, sp, #84
 432              	.LCFI12:
 433              		.cfi_def_cfa_offset 88
 128:Core/Src/main.c ****   RCC_ClkInitTypeDef RCC_ClkInitStruct = {0};
 434              		.loc 1 128 3 view .LVU113
 128:Core/Src/main.c ****   RCC_ClkInitTypeDef RCC_ClkInitStruct = {0};
 435              		.loc 1 128 22 is_stmt 0 view .LVU114
 436 0004 3022     		movs	r2, #48
 437 0006 0021     		movs	r1, #0
 438 0008 08A8     		add	r0, sp, #32
 439 000a FFF7FEFF 		bl	memset
 440              	.LVL13:
 129:Core/Src/main.c **** 
 441              		.loc 1 129 3 is_stmt 1 view .LVU115
 129:Core/Src/main.c **** 
 442              		.loc 1 129 22 is_stmt 0 view .LVU116
 443 000e 0023     		movs	r3, #0
 444 0010 0393     		str	r3, [sp, #12]
 445 0012 0493     		str	r3, [sp, #16]
 446 0014 0593     		str	r3, [sp, #20]
 447 0016 0693     		str	r3, [sp, #24]
 448 0018 0793     		str	r3, [sp, #28]
 133:Core/Src/main.c ****   __HAL_PWR_VOLTAGESCALING_CONFIG(PWR_REGULATOR_VOLTAGE_SCALE1);
 449              		.loc 1 133 3 is_stmt 1 view .LVU117
 450              	.LBB11:
 133:Core/Src/main.c ****   __HAL_PWR_VOLTAGESCALING_CONFIG(PWR_REGULATOR_VOLTAGE_SCALE1);
 451              		.loc 1 133 3 view .LVU118
 452 001a 0193     		str	r3, [sp, #4]
 133:Core/Src/main.c ****   __HAL_PWR_VOLTAGESCALING_CONFIG(PWR_REGULATOR_VOLTAGE_SCALE1);
 453              		.loc 1 133 3 view .LVU119
 454 001c 1F4A     		ldr	r2, .L29
 455 001e 116C     		ldr	r1, [r2, #64]
 456 0020 41F08051 		orr	r1, r1, #268435456
 457 0024 1164     		str	r1, [r2, #64]
 133:Core/Src/main.c ****   __HAL_PWR_VOLTAGESCALING_CONFIG(PWR_REGULATOR_VOLTAGE_SCALE1);
 458              		.loc 1 133 3 view .LVU120
 459 0026 126C     		ldr	r2, [r2, #64]
 460 0028 02F08052 		and	r2, r2, #268435456
 461 002c 0192     		str	r2, [sp, #4]
 133:Core/Src/main.c ****   __HAL_PWR_VOLTAGESCALING_CONFIG(PWR_REGULATOR_VOLTAGE_SCALE1);
 462              		.loc 1 133 3 view .LVU121
 463 002e 019A     		ldr	r2, [sp, #4]
 464              	.LBE11:
 133:Core/Src/main.c ****   __HAL_PWR_VOLTAGESCALING_CONFIG(PWR_REGULATOR_VOLTAGE_SCALE1);
 465              		.loc 1 133 3 view .LVU122
 134:Core/Src/main.c **** 
 466              		.loc 1 134 3 view .LVU123
 467              	.LBB12:
 134:Core/Src/main.c **** 
 468              		.loc 1 134 3 view .LVU124
 469 0030 0293     		str	r3, [sp, #8]
 134:Core/Src/main.c **** 
 470              		.loc 1 134 3 view .LVU125
 471 0032 1B4A     		ldr	r2, .L29+4
 472 0034 1168     		ldr	r1, [r2]
ARM GAS  C:\Users\Administrator\AppData\Local\Temp\cccZuMLW.s 			page 18


 473 0036 41F48041 		orr	r1, r1, #16384
 474 003a 1160     		str	r1, [r2]
 134:Core/Src/main.c **** 
 475              		.loc 1 134 3 view .LVU126
 476 003c 1268     		ldr	r2, [r2]
 477 003e 02F48042 		and	r2, r2, #16384
 478 0042 0292     		str	r2, [sp, #8]
 134:Core/Src/main.c **** 
 479              		.loc 1 134 3 view .LVU127
 480 0044 029A     		ldr	r2, [sp, #8]
 481              	.LBE12:
 134:Core/Src/main.c **** 
 482              		.loc 1 134 3 view .LVU128
 139:Core/Src/main.c ****   RCC_OscInitStruct.HSIState = RCC_HSI_ON;
 483              		.loc 1 139 3 view .LVU129
 139:Core/Src/main.c ****   RCC_OscInitStruct.HSIState = RCC_HSI_ON;
 484              		.loc 1 139 36 is_stmt 0 view .LVU130
 485 0046 0222     		movs	r2, #2
 486 0048 0892     		str	r2, [sp, #32]
 140:Core/Src/main.c ****   RCC_OscInitStruct.HSICalibrationValue = RCC_HSICALIBRATION_DEFAULT;
 487              		.loc 1 140 3 is_stmt 1 view .LVU131
 140:Core/Src/main.c ****   RCC_OscInitStruct.HSICalibrationValue = RCC_HSICALIBRATION_DEFAULT;
 488              		.loc 1 140 30 is_stmt 0 view .LVU132
 489 004a 0121     		movs	r1, #1
 490 004c 0B91     		str	r1, [sp, #44]
 141:Core/Src/main.c ****   RCC_OscInitStruct.PLL.PLLState = RCC_PLL_ON;
 491              		.loc 1 141 3 is_stmt 1 view .LVU133
 141:Core/Src/main.c ****   RCC_OscInitStruct.PLL.PLLState = RCC_PLL_ON;
 492              		.loc 1 141 41 is_stmt 0 view .LVU134
 493 004e 1021     		movs	r1, #16
 494 0050 0C91     		str	r1, [sp, #48]
 142:Core/Src/main.c ****   RCC_OscInitStruct.PLL.PLLSource = RCC_PLLSOURCE_HSI;
 495              		.loc 1 142 3 is_stmt 1 view .LVU135
 142:Core/Src/main.c ****   RCC_OscInitStruct.PLL.PLLSource = RCC_PLLSOURCE_HSI;
 496              		.loc 1 142 34 is_stmt 0 view .LVU136
 497 0052 0E92     		str	r2, [sp, #56]
 143:Core/Src/main.c ****   RCC_OscInitStruct.PLL.PLLM = 8;
 498              		.loc 1 143 3 is_stmt 1 view .LVU137
 143:Core/Src/main.c ****   RCC_OscInitStruct.PLL.PLLM = 8;
 499              		.loc 1 143 35 is_stmt 0 view .LVU138
 500 0054 0F93     		str	r3, [sp, #60]
 144:Core/Src/main.c ****   RCC_OscInitStruct.PLL.PLLN = 168;
 501              		.loc 1 144 3 is_stmt 1 view .LVU139
 144:Core/Src/main.c ****   RCC_OscInitStruct.PLL.PLLN = 168;
 502              		.loc 1 144 30 is_stmt 0 view .LVU140
 503 0056 0823     		movs	r3, #8
 504 0058 1093     		str	r3, [sp, #64]
 145:Core/Src/main.c ****   RCC_OscInitStruct.PLL.PLLP = RCC_PLLP_DIV2;
 505              		.loc 1 145 3 is_stmt 1 view .LVU141
 145:Core/Src/main.c ****   RCC_OscInitStruct.PLL.PLLP = RCC_PLLP_DIV2;
 506              		.loc 1 145 30 is_stmt 0 view .LVU142
 507 005a A823     		movs	r3, #168
 508 005c 1193     		str	r3, [sp, #68]
 146:Core/Src/main.c ****   RCC_OscInitStruct.PLL.PLLQ = 4;
 509              		.loc 1 146 3 is_stmt 1 view .LVU143
 146:Core/Src/main.c ****   RCC_OscInitStruct.PLL.PLLQ = 4;
 510              		.loc 1 146 30 is_stmt 0 view .LVU144
ARM GAS  C:\Users\Administrator\AppData\Local\Temp\cccZuMLW.s 			page 19


 511 005e 1292     		str	r2, [sp, #72]
 147:Core/Src/main.c ****   if (HAL_RCC_OscConfig(&RCC_OscInitStruct) != HAL_OK)
 512              		.loc 1 147 3 is_stmt 1 view .LVU145
 147:Core/Src/main.c ****   if (HAL_RCC_OscConfig(&RCC_OscInitStruct) != HAL_OK)
 513              		.loc 1 147 30 is_stmt 0 view .LVU146
 514 0060 0423     		movs	r3, #4
 515 0062 1393     		str	r3, [sp, #76]
 148:Core/Src/main.c ****   {
 516              		.loc 1 148 3 is_stmt 1 view .LVU147
 148:Core/Src/main.c ****   {
 517              		.loc 1 148 7 is_stmt 0 view .LVU148
 518 0064 08A8     		add	r0, sp, #32
 519 0066 FFF7FEFF 		bl	HAL_RCC_OscConfig
 520              	.LVL14:
 148:Core/Src/main.c ****   {
 521              		.loc 1 148 6 view .LVU149
 522 006a 98B9     		cbnz	r0, .L27
 155:Core/Src/main.c ****                               |RCC_CLOCKTYPE_PCLK1|RCC_CLOCKTYPE_PCLK2;
 523              		.loc 1 155 3 is_stmt 1 view .LVU150
 155:Core/Src/main.c ****                               |RCC_CLOCKTYPE_PCLK1|RCC_CLOCKTYPE_PCLK2;
 524              		.loc 1 155 31 is_stmt 0 view .LVU151
 525 006c 0F23     		movs	r3, #15
 526 006e 0393     		str	r3, [sp, #12]
 157:Core/Src/main.c ****   RCC_ClkInitStruct.AHBCLKDivider = RCC_SYSCLK_DIV1;
 527              		.loc 1 157 3 is_stmt 1 view .LVU152
 157:Core/Src/main.c ****   RCC_ClkInitStruct.AHBCLKDivider = RCC_SYSCLK_DIV1;
 528              		.loc 1 157 34 is_stmt 0 view .LVU153
 529 0070 0223     		movs	r3, #2
 530 0072 0493     		str	r3, [sp, #16]
 158:Core/Src/main.c ****   RCC_ClkInitStruct.APB1CLKDivider = RCC_HCLK_DIV4;
 531              		.loc 1 158 3 is_stmt 1 view .LVU154
 158:Core/Src/main.c ****   RCC_ClkInitStruct.APB1CLKDivider = RCC_HCLK_DIV4;
 532              		.loc 1 158 35 is_stmt 0 view .LVU155
 533 0074 0023     		movs	r3, #0
 534 0076 0593     		str	r3, [sp, #20]
 159:Core/Src/main.c ****   RCC_ClkInitStruct.APB2CLKDivider = RCC_HCLK_DIV2;
 535              		.loc 1 159 3 is_stmt 1 view .LVU156
 159:Core/Src/main.c ****   RCC_ClkInitStruct.APB2CLKDivider = RCC_HCLK_DIV2;
 536              		.loc 1 159 36 is_stmt 0 view .LVU157
 537 0078 4FF4A053 		mov	r3, #5120
 538 007c 0693     		str	r3, [sp, #24]
 160:Core/Src/main.c **** 
 539              		.loc 1 160 3 is_stmt 1 view .LVU158
 160:Core/Src/main.c **** 
 540              		.loc 1 160 36 is_stmt 0 view .LVU159
 541 007e 4FF48053 		mov	r3, #4096
 542 0082 0793     		str	r3, [sp, #28]
 162:Core/Src/main.c ****   {
 543              		.loc 1 162 3 is_stmt 1 view .LVU160
 162:Core/Src/main.c ****   {
 544              		.loc 1 162 7 is_stmt 0 view .LVU161
 545 0084 0521     		movs	r1, #5
 546 0086 03A8     		add	r0, sp, #12
 547 0088 FFF7FEFF 		bl	HAL_RCC_ClockConfig
 548              	.LVL15:
 162:Core/Src/main.c ****   {
 549              		.loc 1 162 6 view .LVU162
ARM GAS  C:\Users\Administrator\AppData\Local\Temp\cccZuMLW.s 			page 20


 550 008c 20B9     		cbnz	r0, .L28
 166:Core/Src/main.c **** 
 551              		.loc 1 166 1 view .LVU163
 552 008e 15B0     		add	sp, sp, #84
 553              	.LCFI13:
 554              		.cfi_remember_state
 555              		.cfi_def_cfa_offset 4
 556              		@ sp needed
 557 0090 5DF804FB 		ldr	pc, [sp], #4
 558              	.L27:
 559              	.LCFI14:
 560              		.cfi_restore_state
 150:Core/Src/main.c ****   }
 561              		.loc 1 150 5 is_stmt 1 view .LVU164
 562 0094 FFF7FEFF 		bl	Error_Handler
 563              	.LVL16:
 564              	.L28:
 164:Core/Src/main.c ****   }
 565              		.loc 1 164 5 view .LVU165
 566 0098 FFF7FEFF 		bl	Error_Handler
 567              	.LVL17:
 568              	.L30:
 569              		.align	2
 570              	.L29:
 571 009c 00380240 		.word	1073887232
 572 00a0 00700040 		.word	1073770496
 573              		.cfi_endproc
 574              	.LFE134:
 576              		.section	.text.main,"ax",%progbits
 577              		.align	1
 578              		.global	main
 579              		.syntax unified
 580              		.thumb
 581              		.thumb_func
 583              	main:
 584              	.LFB133:
  73:Core/Src/main.c ****   /* USER CODE BEGIN 1 */
 585              		.loc 1 73 1 view -0
 586              		.cfi_startproc
 587              		@ Volatile: function does not return.
 588              		@ args = 0, pretend = 0, frame = 0
 589              		@ frame_needed = 0, uses_anonymous_args = 0
 590 0000 08B5     		push	{r3, lr}
 591              	.LCFI15:
 592              		.cfi_def_cfa_offset 8
 593              		.cfi_offset 3, -8
 594              		.cfi_offset 14, -4
  81:Core/Src/main.c **** 
 595              		.loc 1 81 3 view .LVU167
 596 0002 FFF7FEFF 		bl	HAL_Init
 597              	.LVL18:
  88:Core/Src/main.c **** 
 598              		.loc 1 88 3 view .LVU168
 599 0006 FFF7FEFF 		bl	SystemClock_Config
 600              	.LVL19:
  95:Core/Src/main.c ****   MX_TIM6_Init();
 601              		.loc 1 95 3 view .LVU169
ARM GAS  C:\Users\Administrator\AppData\Local\Temp\cccZuMLW.s 			page 21


 602 000a FFF7FEFF 		bl	MX_GPIO_Init
 603              	.LVL20:
  96:Core/Src/main.c ****   MX_TIM7_Init();
 604              		.loc 1 96 3 view .LVU170
 605 000e FFF7FEFF 		bl	MX_TIM6_Init
 606              	.LVL21:
  97:Core/Src/main.c ****   /* USER CODE BEGIN 2 */
 607              		.loc 1 97 3 view .LVU171
 608 0012 FFF7FEFF 		bl	MX_TIM7_Init
 609              	.LVL22:
 610 0016 10E0     		b	.L33
 611              	.L35:
 109:Core/Src/main.c ****             memset(buff,0x00,200);  //清除缓存    
 612              		.loc 1 109 13 view .LVU172
 613 0018 0B4C     		ldr	r4, .L36
 614 001a 0C4B     		ldr	r3, .L36+4
 615 001c 1978     		ldrb	r1, [r3]	@ zero_extendqisi2
 616 001e 2046     		mov	r0, r4
 617 0020 FFF7FEFF 		bl	S_Uart_Send_Buff
 618              	.LVL23:
 110:Core/Src/main.c ****         }
 619              		.loc 1 110 13 view .LVU173
 620 0024 C822     		movs	r2, #200
 621 0026 0021     		movs	r1, #0
 622 0028 2046     		mov	r0, r4
 623 002a FFF7FEFF 		bl	memset
 624              	.LVL24:
 625              	.L32:
 113:Core/Src/main.c ****     //  S_Uart_Send_Buff(p_Arr1,sizeof(p_Arr1) / sizeof(p_Arr1[0]));    
 626              		.loc 1 113 6 view .LVU174
 627 002e 6120     		movs	r0, #97
 628 0030 FFF7FEFF 		bl	S_Uart_One_Tx
 629              	.LVL25:
 116:Core/Src/main.c ****     /* USER CODE BEGIN 3 */
 630              		.loc 1 116 6 view .LVU175
 631 0034 6420     		movs	r0, #100
 632 0036 FFF7FEFF 		bl	HAL_Delay
 633              	.LVL26:
 104:Core/Src/main.c ****   {
 634              		.loc 1 104 9 view .LVU176
 635              	.L33:
 104:Core/Src/main.c ****   {
 636              		.loc 1 104 3 view .LVU177
 107:Core/Src/main.c ****         {
 637              		.loc 1 107 7 view .LVU178
 107:Core/Src/main.c ****         {
 638              		.loc 1 107 10 is_stmt 0 view .LVU179
 639 003a 0449     		ldr	r1, .L36+4
 640 003c 0248     		ldr	r0, .L36
 641 003e FFF7FEFF 		bl	S_Uart_Rx_Handler
 642              	.LVL27:
 107:Core/Src/main.c ****         {
 643              		.loc 1 107 9 view .LVU180
 644 0042 0028     		cmp	r0, #0
 645 0044 E8D1     		bne	.L35
 646 0046 F2E7     		b	.L32
 647              	.L37:
ARM GAS  C:\Users\Administrator\AppData\Local\Temp\cccZuMLW.s 			page 22


 648              		.align	2
 649              	.L36:
 650 0048 00000000 		.word	.LANCHOR3
 651 004c 00000000 		.word	.LANCHOR2
 652              		.cfi_endproc
 653              	.LFE133:
 655              		.global	htim7
 656              		.global	htim6
 657              		.global	buff
 658              		.global	len
 659              		.section	.bss.buff,"aw",%nobits
 660              		.align	2
 661              		.set	.LANCHOR3,. + 0
 664              	buff:
 665 0000 00000000 		.space	200
 665      00000000 
 665      00000000 
 665      00000000 
 665      00000000 
 666              		.section	.bss.htim6,"aw",%nobits
 667              		.align	2
 668              		.set	.LANCHOR0,. + 0
 671              	htim6:
 672 0000 00000000 		.space	72
 672      00000000 
 672      00000000 
 672      00000000 
 672      00000000 
 673              		.section	.bss.htim7,"aw",%nobits
 674              		.align	2
 675              		.set	.LANCHOR1,. + 0
 678              	htim7:
 679 0000 00000000 		.space	72
 679      00000000 
 679      00000000 
 679      00000000 
 679      00000000 
 680              		.section	.bss.len,"aw",%nobits
 681              		.set	.LANCHOR2,. + 0
 684              	len:
 685 0000 00       		.space	1
 686              		.text
 687              	.Letext0:
 688              		.file 3 "f:\\stm32\310\355\274\376\\gcc-arm-none-eabi-10.3-2021.10-win32\\gcc-arm-none-eabi-10.3-2
 689              		.file 4 "f:\\stm32\310\355\274\376\\gcc-arm-none-eabi-10.3-2021.10-win32\\gcc-arm-none-eabi-10.3-2
 690              		.file 5 "Drivers/CMSIS/Device/ST/STM32F4xx/Include/stm32f407xx.h"
 691              		.file 6 "Drivers/STM32F4xx_HAL_Driver/Inc/stm32f4xx_hal_def.h"
 692              		.file 7 "Drivers/STM32F4xx_HAL_Driver/Inc/stm32f4xx_hal_rcc_ex.h"
 693              		.file 8 "Drivers/STM32F4xx_HAL_Driver/Inc/stm32f4xx_hal_rcc.h"
 694              		.file 9 "Drivers/STM32F4xx_HAL_Driver/Inc/stm32f4xx_hal_gpio.h"
 695              		.file 10 "Drivers/STM32F4xx_HAL_Driver/Inc/stm32f4xx_hal_dma.h"
 696              		.file 11 "Drivers/STM32F4xx_HAL_Driver/Inc/stm32f4xx_hal_tim.h"
 697              		.file 12 "Drivers/STM32F4xx_HAL_Driver/Inc/stm32f4xx_hal_cortex.h"
 698              		.file 13 "Drivers/STM32F4xx_HAL_Driver/Inc/stm32f4xx_hal_tim_ex.h"
 699              		.file 14 "Drivers/STM32F4xx_HAL_Driver/Inc/stm32f4xx_hal.h"
 700              		.file 15 "Core/Inc/uart.h"
 701              		.file 16 "<built-in>"
ARM GAS  C:\Users\Administrator\AppData\Local\Temp\cccZuMLW.s 			page 23


ARM GAS  C:\Users\Administrator\AppData\Local\Temp\cccZuMLW.s 			page 24

