ARM GAS  C:\Users\84759\AppData\Local\Temp\cc1QWPm5.s 			page 1


   1              		.cpu cortex-m3
   2              		.arch armv7-m
   3              		.fpu softvfp
   4              		.eabi_attribute 20, 1
   5              		.eabi_attribute 21, 1
   6              		.eabi_attribute 23, 3
   7              		.eabi_attribute 24, 1
   8              		.eabi_attribute 25, 1
   9              		.eabi_attribute 26, 1
  10              		.eabi_attribute 30, 1
  11              		.eabi_attribute 34, 1
  12              		.eabi_attribute 18, 4
  13              		.file	"lcd.c"
  14              		.text
  15              	.Ltext0:
  16              		.cfi_sections	.debug_frame
  17              		.section	.text.ILI9341_Delay,"ax",%progbits
  18              		.align	1
  19              		.syntax unified
  20              		.thumb
  21              		.thumb_func
  23              	ILI9341_Delay:
  24              	.LVL0:
  25              	.LFB68:
  26              		.file 1 "Core/Src/lcd.c"
   1:Core/Src/lcd.c **** /**
   2:Core/Src/lcd.c ****   ******************************************************************************
   3:Core/Src/lcd.c ****   * @file    bsp_ili9341_lcd.c
   4:Core/Src/lcd.c ****   * @version V1.0
   5:Core/Src/lcd.c ****   * @date    2013-xx-xx
   6:Core/Src/lcd.c ****   * @brief   ili9341Ňşľ§ĆÁÇý¶Ż
   7:Core/Src/lcd.c ****   ******************************************************************************
   8:Core/Src/lcd.c ****   * @attention
   9:Core/Src/lcd.c ****   *
  10:Core/Src/lcd.c ****   * ĘµŃéĆ˝Ě¨:Ň°»đ F103-°ÔµŔ STM32 żŞ·˘°ĺ 
  11:Core/Src/lcd.c ****   * ÂŰĚł    :http://www.firebbs.cn
  12:Core/Src/lcd.c ****   * ĚÔ±¦    :https://fire-stm32.taobao.com
  13:Core/Src/lcd.c ****   *
  14:Core/Src/lcd.c ****   ******************************************************************************
  15:Core/Src/lcd.c ****   */ 
  16:Core/Src/lcd.c **** 
  17:Core/Src/lcd.c **** #include "lcd.h"
  18:Core/Src/lcd.c **** #include "fonts.h"	
  19:Core/Src/lcd.c **** 
  20:Core/Src/lcd.c **** static SRAM_HandleTypeDef  SRAM_Handler;
  21:Core/Src/lcd.c **** static FSMC_NORSRAM_TimingTypeDef Timing;
  22:Core/Src/lcd.c **** 
  23:Core/Src/lcd.c **** //¸ůľÝŇşľ§É¨Ăč·˝Ďň¶ř±ä»ŻµÄXYĎńËŘżí¶Č
  24:Core/Src/lcd.c **** //µ÷ÓĂILI9341_GramScanşŻĘýÉčÖĂ·˝ĎňĘ±»á×Ô¶Ż¸ü¸Ä
  25:Core/Src/lcd.c **** uint16_t LCD_X_LENGTH = ILI9341_LESS_PIXEL;
  26:Core/Src/lcd.c **** uint16_t LCD_Y_LENGTH = ILI9341_MORE_PIXEL;
  27:Core/Src/lcd.c **** 
  28:Core/Src/lcd.c **** //Ňşľ§ĆÁÉ¨ĂčÄŁĘ˝Ł¬±ľ±äÁżÖ÷ŇŞÓĂÓÚ·˝±ăŃˇÔń´ĄĂţĆÁµÄĽĆËă˛ÎĘý
  29:Core/Src/lcd.c **** //˛ÎĘýżÉŃˇÖµÎŞ0-7
  30:Core/Src/lcd.c **** //µ÷ÓĂILI9341_GramScanşŻĘýÉčÖĂ·˝ĎňĘ±»á×Ô¶Ż¸ü¸Ä
  31:Core/Src/lcd.c **** //LCD¸ŐłőĘĽ»ŻÍęłÉĘ±»áĘąÓĂ±ľÄ¬ČĎÖµ
  32:Core/Src/lcd.c **** uint8_t LCD_SCAN_MODE = 6;
ARM GAS  C:\Users\84759\AppData\Local\Temp\cc1QWPm5.s 			page 2


  33:Core/Src/lcd.c **** 
  34:Core/Src/lcd.c **** 
  35:Core/Src/lcd.c **** //±Ł´ćŇşľ§ĆÁÇý¶ŻicµÄ ID
  36:Core/Src/lcd.c **** uint16_t lcdid = LCDID_UNKNOWN;
  37:Core/Src/lcd.c **** 
  38:Core/Src/lcd.c **** 
  39:Core/Src/lcd.c **** static sFONT *LCD_Currentfonts = &Font8x16;  //Ó˘ÎÄ×ÖĚĺ
  40:Core/Src/lcd.c **** static uint16_t CurrentTextColor   = BLACK;//Ç°ľ°É«
  41:Core/Src/lcd.c **** static uint16_t CurrentBackColor   = WHITE;//±łľ°É«
  42:Core/Src/lcd.c **** 
  43:Core/Src/lcd.c **** __inline void                 ILI9341_Write_Cmd           ( uint16_t usCmd );
  44:Core/Src/lcd.c **** __inline void                 ILI9341_Write_Data          ( uint16_t usData );
  45:Core/Src/lcd.c **** __inline uint16_t             ILI9341_Read_Data           ( void );
  46:Core/Src/lcd.c **** static void                   ILI9341_Delay               ( __IO uint32_t nCount );
  47:Core/Src/lcd.c **** static void                   ILI9341_GPIO_Config         ( void );
  48:Core/Src/lcd.c **** static void                   ILI9341_FSMC_Config         ( void );
  49:Core/Src/lcd.c **** static void                   ILI9341_REG_Config          ( void );
  50:Core/Src/lcd.c **** static void                   ILI9341_SetCursor           ( uint16_t usX, uint16_t usY );
  51:Core/Src/lcd.c **** static __inline void          ILI9341_FillColor           ( uint32_t ulAmout_Point, uint16_t usColo
  52:Core/Src/lcd.c **** static uint16_t               ILI9341_Read_PixelData      ( void );
  53:Core/Src/lcd.c **** 
  54:Core/Src/lcd.c **** /**
  55:Core/Src/lcd.c ****   * @brief  ĎňILI9341Đ´ČëĂüÁî
  56:Core/Src/lcd.c ****   * @param  usCmd :ŇŞĐ´ČëµÄĂüÁîŁ¨±íĽÄ´ćĆ÷µŘÖ·Ł©
  57:Core/Src/lcd.c ****   * @retval ÎŢ
  58:Core/Src/lcd.c ****   */	
  59:Core/Src/lcd.c ****  void ILI9341_Write_Cmd ( uint16_t usCmd )
  60:Core/Src/lcd.c **** {
  61:Core/Src/lcd.c **** 	* ( __IO uint16_t * ) ( FSMC_Addr_ILI9341_CMD ) = usCmd;
  62:Core/Src/lcd.c **** 	
  63:Core/Src/lcd.c **** }
  64:Core/Src/lcd.c **** 
  65:Core/Src/lcd.c **** 
  66:Core/Src/lcd.c **** /**
  67:Core/Src/lcd.c ****   * @brief  ĎňILI9341Đ´ČëĘýľÝ
  68:Core/Src/lcd.c ****   * @param  usData :ŇŞĐ´ČëµÄĘýľÝ
  69:Core/Src/lcd.c ****   * @retval ÎŢ
  70:Core/Src/lcd.c ****   */	
  71:Core/Src/lcd.c ****  void ILI9341_Write_Data ( uint16_t usData )
  72:Core/Src/lcd.c **** {
  73:Core/Src/lcd.c **** 	* ( __IO uint16_t * ) ( FSMC_Addr_ILI9341_DATA ) = usData;
  74:Core/Src/lcd.c **** 	
  75:Core/Src/lcd.c **** }
  76:Core/Src/lcd.c **** 
  77:Core/Src/lcd.c **** 
  78:Core/Src/lcd.c **** /**
  79:Core/Src/lcd.c ****   * @brief  ´ÓILI9341¶ÁČˇĘýľÝ
  80:Core/Src/lcd.c ****   * @param  ÎŢ
  81:Core/Src/lcd.c ****   * @retval ¶ÁČˇµ˝µÄĘýľÝ
  82:Core/Src/lcd.c ****   */	
  83:Core/Src/lcd.c ****  uint16_t ILI9341_Read_Data ( void )
  84:Core/Src/lcd.c **** {
  85:Core/Src/lcd.c **** 	return ( * ( __IO uint16_t * ) ( FSMC_Addr_ILI9341_DATA ) );
  86:Core/Src/lcd.c **** 	
  87:Core/Src/lcd.c **** }
  88:Core/Src/lcd.c **** 
  89:Core/Src/lcd.c **** 
ARM GAS  C:\Users\84759\AppData\Local\Temp\cc1QWPm5.s 			page 3


  90:Core/Src/lcd.c **** /**
  91:Core/Src/lcd.c ****   * @brief  ÓĂÓÚ ILI9341 ĽňµĄŃÓĘ±şŻĘý
  92:Core/Src/lcd.c ****   * @param  nCount ŁşŃÓĘ±ĽĆĘýÖµ
  93:Core/Src/lcd.c ****   * @retval ÎŢ
  94:Core/Src/lcd.c ****   */	
  95:Core/Src/lcd.c **** static void ILI9341_Delay ( __IO uint32_t nCount )
  96:Core/Src/lcd.c **** {
  27              		.loc 1 96 1 view -0
  28              		.cfi_startproc
  29              		@ args = 0, pretend = 0, frame = 8
  30              		@ frame_needed = 0, uses_anonymous_args = 0
  31              		@ link register save eliminated.
  32              		.loc 1 96 1 is_stmt 0 view .LVU1
  33 0000 82B0     		sub	sp, sp, #8
  34              	.LCFI0:
  35              		.cfi_def_cfa_offset 8
  36 0002 0190     		str	r0, [sp, #4]
  97:Core/Src/lcd.c ****   for ( ; nCount != 0; nCount -- );
  37              		.loc 1 97 3 is_stmt 1 view .LVU2
  38 0004 02E0     		b	.L2
  39              	.L3:
  40              		.loc 1 97 35 discriminator 2 view .LVU3
  41              		.loc 1 97 24 discriminator 2 view .LVU4
  42              		.loc 1 97 31 is_stmt 0 discriminator 2 view .LVU5
  43 0006 019B     		ldr	r3, [sp, #4]
  44 0008 013B     		subs	r3, r3, #1
  45 000a 0193     		str	r3, [sp, #4]
  46              	.L2:
  47              		.loc 1 97 11 is_stmt 1 discriminator 1 view .LVU6
  48              		.loc 1 97 18 is_stmt 0 discriminator 1 view .LVU7
  49 000c 019B     		ldr	r3, [sp, #4]
  50              		.loc 1 97 3 discriminator 1 view .LVU8
  51 000e 002B     		cmp	r3, #0
  52 0010 F9D1     		bne	.L3
  98:Core/Src/lcd.c **** 	
  99:Core/Src/lcd.c **** }
  53              		.loc 1 99 1 view .LVU9
  54 0012 02B0     		add	sp, sp, #8
  55              	.LCFI1:
  56              		.cfi_def_cfa_offset 0
  57              		@ sp needed
  58 0014 7047     		bx	lr
  59              		.cfi_endproc
  60              	.LFE68:
  62              		.section	.text.ILI9341_Read_PixelData,"ax",%progbits
  63              		.align	1
  64              		.syntax unified
  65              		.thumb
  66              		.thumb_func
  68              	ILI9341_Read_PixelData:
  69              	.LFB82:
 100:Core/Src/lcd.c **** 
 101:Core/Src/lcd.c **** 
 102:Core/Src/lcd.c **** /**
 103:Core/Src/lcd.c ****   * @brief  łőĘĽ»ŻILI9341µÄIOŇý˝Ĺ
 104:Core/Src/lcd.c ****   * @param  ÎŢ
 105:Core/Src/lcd.c ****   * @retval ÎŢ
ARM GAS  C:\Users\84759\AppData\Local\Temp\cc1QWPm5.s 			page 4


 106:Core/Src/lcd.c ****   */
 107:Core/Src/lcd.c **** static void ILI9341_GPIO_Config ( void )
 108:Core/Src/lcd.c **** {
 109:Core/Src/lcd.c **** 	GPIO_InitTypeDef GPIO_Initure;
 110:Core/Src/lcd.c ****   
 111:Core/Src/lcd.c ****       /* Enable GPIOs clock */
 112:Core/Src/lcd.c ****   __HAL_RCC_GPIOD_CLK_ENABLE();
 113:Core/Src/lcd.c ****   __HAL_RCC_GPIOE_CLK_ENABLE();
 114:Core/Src/lcd.c ****   __HAL_RCC_GPIOF_CLK_ENABLE();
 115:Core/Src/lcd.c ****   __HAL_RCC_GPIOG_CLK_ENABLE();
 116:Core/Src/lcd.c ****   __HAL_RCC_FSMC_CLK_ENABLE();			//ĘąÄÜFSMCĘ±ÖÓ
 117:Core/Src/lcd.c ****   
 118:Core/Src/lcd.c ****     /* Common GPIO configuration */
 119:Core/Src/lcd.c ****   GPIO_Initure.Mode      = GPIO_MODE_OUTPUT_PP;  //ÍĆÍěĘäłö
 120:Core/Src/lcd.c ****   GPIO_Initure.Pull      = GPIO_PULLUP;
 121:Core/Src/lcd.c ****   GPIO_Initure.Speed     = GPIO_SPEED_FREQ_HIGH;
 122:Core/Src/lcd.c **** 
 123:Core/Src/lcd.c ****   
 124:Core/Src/lcd.c ****   GPIO_Initure.Pin=GPIO_PIN_12;
 125:Core/Src/lcd.c **** 	HAL_GPIO_Init(GPIOG,&GPIO_Initure);
 126:Core/Src/lcd.c ****   
 127:Core/Src/lcd.c ****   //łőĘĽ»Ż¸´Î»Ňý˝ĹG11
 128:Core/Src/lcd.c **** 	GPIO_Initure.Pin=GPIO_PIN_11;
 129:Core/Src/lcd.c **** 	HAL_GPIO_Init(GPIOG,&GPIO_Initure);
 130:Core/Src/lcd.c ****   
 131:Core/Src/lcd.c ****   GPIO_Initure.Mode=GPIO_MODE_AF_PP; 
 132:Core/Src/lcd.c **** //  GPIO_Initure.Alternate=GPIO_AF12_FSMC;	//¸´ÓĂÎŞFSMC
 133:Core/Src/lcd.c ****   
 134:Core/Src/lcd.c **** 	//łőĘĽ»ŻPD0,1,4,5,8,9,10,14,15
 135:Core/Src/lcd.c **** 	GPIO_Initure.Pin=GPIO_PIN_0|GPIO_PIN_1|GPIO_PIN_4|GPIO_PIN_5|GPIO_PIN_8|\
 136:Core/Src/lcd.c **** 					         GPIO_PIN_9|GPIO_PIN_10|GPIO_PIN_14|GPIO_PIN_15; 
 137:Core/Src/lcd.c ****   HAL_GPIO_Init(GPIOD, &GPIO_Initure);
 138:Core/Src/lcd.c ****   
 139:Core/Src/lcd.c ****   	//łőĘĽ»ŻPE2,7,8,9,10,11,12,13,14,15
 140:Core/Src/lcd.c **** 	GPIO_Initure.Pin=GPIO_PIN_2|GPIO_PIN_7|GPIO_PIN_8|GPIO_PIN_9|GPIO_PIN_10|GPIO_PIN_11|\
 141:Core/Src/lcd.c ****                      GPIO_PIN_12|GPIO_PIN_13|GPIO_PIN_14|GPIO_PIN_15;
 142:Core/Src/lcd.c **** 	HAL_GPIO_Init(GPIOE,&GPIO_Initure);
 143:Core/Src/lcd.c **** 	
 144:Core/Src/lcd.c **** 	//łőĘĽ»ŻG12
 145:Core/Src/lcd.c **** 	GPIO_Initure.Pin=GPIO_PIN_6;
 146:Core/Src/lcd.c **** 	HAL_GPIO_Init(GPIOG,&GPIO_Initure);
 147:Core/Src/lcd.c **** 
 148:Core/Src/lcd.c **** 
 149:Core/Src/lcd.c **** //	/* ĘąÄÜFSMC¶ÔÓ¦ĎŕÓ¦ąÜ˝ĹĘ±ÖÓ*/
 150:Core/Src/lcd.c **** //	RCC_APB2PeriphClockCmd ( 	
 151:Core/Src/lcd.c **** //													/*żŘÖĆĐĹşĹ*/
 152:Core/Src/lcd.c **** //													ILI9341_CS_CLK|ILI9341_DC_CLK|ILI9341_WR_CLK|
 153:Core/Src/lcd.c **** //													ILI9341_RD_CLK	|ILI9341_BK_CLK|ILI9341_RST_CLK|
 154:Core/Src/lcd.c **** //													/*ĘýľÝĐĹşĹ*/
 155:Core/Src/lcd.c **** //													ILI9341_D0_CLK|ILI9341_D1_CLK|	ILI9341_D2_CLK | 
 156:Core/Src/lcd.c **** //													ILI9341_D3_CLK | ILI9341_D4_CLK|ILI9341_D5_CLK|
 157:Core/Src/lcd.c **** //													ILI9341_D6_CLK | ILI9341_D7_CLK|ILI9341_D8_CLK|
 158:Core/Src/lcd.c **** //													ILI9341_D9_CLK | ILI9341_D10_CLK|ILI9341_D11_CLK|
 159:Core/Src/lcd.c **** //													ILI9341_D12_CLK | ILI9341_D13_CLK|ILI9341_D14_CLK|
 160:Core/Src/lcd.c **** //													ILI9341_D15_CLK	, ENABLE );
 161:Core/Src/lcd.c **** //		
 162:Core/Src/lcd.c **** //	
ARM GAS  C:\Users\84759\AppData\Local\Temp\cc1QWPm5.s 			page 5


 163:Core/Src/lcd.c **** //	/* ĹäÖĂFSMCĎŕ¶ÔÓ¦µÄĘýľÝĎß,FSMC-D0~D15 */	
 164:Core/Src/lcd.c **** //	GPIO_InitStructure.GPIO_Speed = GPIO_Speed_50MHz;
 165:Core/Src/lcd.c **** //	GPIO_InitStructure.GPIO_Mode =  GPIO_Mode_AF_PP;
 166:Core/Src/lcd.c **** //	
 167:Core/Src/lcd.c **** //	GPIO_InitStructure.GPIO_Pin = ILI9341_D0_PIN;
 168:Core/Src/lcd.c **** //	GPIO_Init ( ILI9341_D0_PORT, & GPIO_InitStructure );
 169:Core/Src/lcd.c **** 
 170:Core/Src/lcd.c **** //	GPIO_InitStructure.GPIO_Pin = ILI9341_D1_PIN;
 171:Core/Src/lcd.c **** //	GPIO_Init ( ILI9341_D1_PORT, & GPIO_InitStructure );
 172:Core/Src/lcd.c **** //	
 173:Core/Src/lcd.c **** //	GPIO_InitStructure.GPIO_Pin = ILI9341_D2_PIN;
 174:Core/Src/lcd.c **** //	GPIO_Init ( ILI9341_D2_PORT, & GPIO_InitStructure );
 175:Core/Src/lcd.c **** //	
 176:Core/Src/lcd.c **** //	GPIO_InitStructure.GPIO_Pin = ILI9341_D3_PIN;
 177:Core/Src/lcd.c **** //	GPIO_Init ( ILI9341_D3_PORT, & GPIO_InitStructure );
 178:Core/Src/lcd.c **** //	
 179:Core/Src/lcd.c **** //	GPIO_InitStructure.GPIO_Pin = ILI9341_D4_PIN;
 180:Core/Src/lcd.c **** //	GPIO_Init ( ILI9341_D4_PORT, & GPIO_InitStructure );
 181:Core/Src/lcd.c **** //	
 182:Core/Src/lcd.c **** //	GPIO_InitStructure.GPIO_Pin = ILI9341_D5_PIN;
 183:Core/Src/lcd.c **** //	GPIO_Init ( ILI9341_D5_PORT, & GPIO_InitStructure );
 184:Core/Src/lcd.c **** //	
 185:Core/Src/lcd.c **** //	GPIO_InitStructure.GPIO_Pin = ILI9341_D6_PIN;
 186:Core/Src/lcd.c **** //	GPIO_Init ( ILI9341_D6_PORT, & GPIO_InitStructure );
 187:Core/Src/lcd.c **** //	
 188:Core/Src/lcd.c **** //	GPIO_InitStructure.GPIO_Pin = ILI9341_D7_PIN;
 189:Core/Src/lcd.c **** //	GPIO_Init ( ILI9341_D7_PORT, & GPIO_InitStructure );
 190:Core/Src/lcd.c **** //	
 191:Core/Src/lcd.c **** //	GPIO_InitStructure.GPIO_Pin = ILI9341_D8_PIN;
 192:Core/Src/lcd.c **** //	GPIO_Init ( ILI9341_D8_PORT, & GPIO_InitStructure );
 193:Core/Src/lcd.c **** //	
 194:Core/Src/lcd.c **** //	GPIO_InitStructure.GPIO_Pin = ILI9341_D9_PIN;
 195:Core/Src/lcd.c **** //	GPIO_Init ( ILI9341_D9_PORT, & GPIO_InitStructure );
 196:Core/Src/lcd.c **** //	
 197:Core/Src/lcd.c **** //	GPIO_InitStructure.GPIO_Pin = ILI9341_D10_PIN;
 198:Core/Src/lcd.c **** //	GPIO_Init ( ILI9341_D10_PORT, & GPIO_InitStructure );
 199:Core/Src/lcd.c **** //	
 200:Core/Src/lcd.c **** //	GPIO_InitStructure.GPIO_Pin = ILI9341_D11_PIN;
 201:Core/Src/lcd.c **** //	GPIO_Init ( ILI9341_D11_PORT, & GPIO_InitStructure );
 202:Core/Src/lcd.c **** 
 203:Core/Src/lcd.c **** //	GPIO_InitStructure.GPIO_Pin = ILI9341_D12_PIN;
 204:Core/Src/lcd.c **** //	GPIO_Init ( ILI9341_D12_PORT, & GPIO_InitStructure );	
 205:Core/Src/lcd.c **** //	
 206:Core/Src/lcd.c **** //	GPIO_InitStructure.GPIO_Pin = ILI9341_D13_PIN;
 207:Core/Src/lcd.c **** //	GPIO_Init ( ILI9341_D13_PORT, & GPIO_InitStructure );
 208:Core/Src/lcd.c **** //	
 209:Core/Src/lcd.c **** //	GPIO_InitStructure.GPIO_Pin = ILI9341_D14_PIN;
 210:Core/Src/lcd.c **** //	GPIO_Init ( ILI9341_D14_PORT, & GPIO_InitStructure );
 211:Core/Src/lcd.c **** //	
 212:Core/Src/lcd.c **** //	GPIO_InitStructure.GPIO_Pin = ILI9341_D15_PIN;
 213:Core/Src/lcd.c **** //	GPIO_Init ( ILI9341_D15_PORT, & GPIO_InitStructure );
 214:Core/Src/lcd.c **** //	
 215:Core/Src/lcd.c **** 
 216:Core/Src/lcd.c **** //	
 217:Core/Src/lcd.c **** //	/* ĹäÖĂFSMCĎŕ¶ÔÓ¦µÄżŘÖĆĎß
 218:Core/Src/lcd.c **** //	 * FSMC_NOE   :LCD-RD
 219:Core/Src/lcd.c **** //	 * FSMC_NWE   :LCD-WR
ARM GAS  C:\Users\84759\AppData\Local\Temp\cc1QWPm5.s 			page 6


 220:Core/Src/lcd.c **** //	 * FSMC_NE1   :LCD-CS
 221:Core/Src/lcd.c **** //	 * FSMC_A16  	:LCD-DC
 222:Core/Src/lcd.c **** //	 */
 223:Core/Src/lcd.c **** //	GPIO_InitStructure.GPIO_Speed = GPIO_Speed_50MHz;
 224:Core/Src/lcd.c **** //	GPIO_InitStructure.GPIO_Mode =  GPIO_Mode_AF_PP;
 225:Core/Src/lcd.c **** //	
 226:Core/Src/lcd.c **** //	GPIO_InitStructure.GPIO_Pin = ILI9341_RD_PIN; 
 227:Core/Src/lcd.c **** //	GPIO_Init (ILI9341_RD_PORT, & GPIO_InitStructure );
 228:Core/Src/lcd.c **** //	
 229:Core/Src/lcd.c **** //	GPIO_InitStructure.GPIO_Pin = ILI9341_WR_PIN; 
 230:Core/Src/lcd.c **** //	GPIO_Init (ILI9341_WR_PORT, & GPIO_InitStructure );
 231:Core/Src/lcd.c **** //	
 232:Core/Src/lcd.c **** //	GPIO_InitStructure.GPIO_Pin = ILI9341_CS_PIN; 
 233:Core/Src/lcd.c **** //	GPIO_Init ( ILI9341_CS_PORT, & GPIO_InitStructure );  
 234:Core/Src/lcd.c **** //	
 235:Core/Src/lcd.c **** //	GPIO_InitStructure.GPIO_Pin = ILI9341_DC_PIN; 
 236:Core/Src/lcd.c **** //	GPIO_Init ( ILI9341_DC_PORT, & GPIO_InitStructure );
 237:Core/Src/lcd.c **** //	
 238:Core/Src/lcd.c **** 
 239:Core/Src/lcd.c **** //  /* ĹäÖĂLCD¸´Î»RSTżŘÖĆąÜ˝Ĺ*/
 240:Core/Src/lcd.c **** //	GPIO_InitStructure.GPIO_Mode = GPIO_Mode_Out_PP;
 241:Core/Src/lcd.c **** //	GPIO_InitStructure.GPIO_Speed = GPIO_Speed_50MHz;
 242:Core/Src/lcd.c **** //	
 243:Core/Src/lcd.c **** //	GPIO_InitStructure.GPIO_Pin = ILI9341_RST_PIN; 
 244:Core/Src/lcd.c **** //	GPIO_Init ( ILI9341_RST_PORT, & GPIO_InitStructure );
 245:Core/Src/lcd.c **** //	
 246:Core/Src/lcd.c **** //	
 247:Core/Src/lcd.c **** //	/* ĹäÖĂLCD±łąâżŘÖĆąÜ˝ĹBK*/
 248:Core/Src/lcd.c **** //	GPIO_InitStructure.GPIO_Mode = GPIO_Mode_Out_PP;
 249:Core/Src/lcd.c **** //	GPIO_InitStructure.GPIO_Speed = GPIO_Speed_50MHz;  
 250:Core/Src/lcd.c **** //	
 251:Core/Src/lcd.c **** //	GPIO_InitStructure.GPIO_Pin = ILI9341_BK_PIN; 
 252:Core/Src/lcd.c **** //	GPIO_Init ( ILI9341_BK_PORT, & GPIO_InitStructure );
 253:Core/Src/lcd.c **** }
 254:Core/Src/lcd.c **** 
 255:Core/Src/lcd.c **** 
 256:Core/Src/lcd.c ****  /**
 257:Core/Src/lcd.c ****   * @brief  LCD  FSMC ÄŁĘ˝ĹäÖĂ
 258:Core/Src/lcd.c ****   * @param  ÎŢ
 259:Core/Src/lcd.c ****   * @retval ÎŢ
 260:Core/Src/lcd.c ****   */
 261:Core/Src/lcd.c **** static void ILI9341_FSMC_Config ( void )
 262:Core/Src/lcd.c **** {
 263:Core/Src/lcd.c **** 	SRAM_Handler.Instance = FSMC_NORSRAM_DEVICE;
 264:Core/Src/lcd.c ****    SRAM_Handler.Extended = FSMC_NORSRAM_EXTENDED_DEVICE;
 265:Core/Src/lcd.c ****   
 266:Core/Src/lcd.c ****   /* SRAM device configuration */  
 267:Core/Src/lcd.c ****   Timing.AddressSetupTime      = 0x00;
 268:Core/Src/lcd.c ****   Timing.AddressHoldTime       = 0x00;
 269:Core/Src/lcd.c ****   Timing.DataSetupTime         = 0x08;
 270:Core/Src/lcd.c ****   Timing.BusTurnAroundDuration = 0x00;
 271:Core/Src/lcd.c ****   Timing.CLKDivision           = 0x00;
 272:Core/Src/lcd.c ****   Timing.DataLatency           = 0x00;
 273:Core/Src/lcd.c ****   Timing.AccessMode            = FSMC_ACCESS_MODE_B;
 274:Core/Src/lcd.c ****  
 275:Core/Src/lcd.c ****   SRAM_Handler.Init.NSBank=FSMC_Bank1_NORSRAMx    ;     					        //ĘąÓĂNE4
 276:Core/Src/lcd.c **** 	SRAM_Handler.Init.DataAddressMux=FSMC_DATA_ADDRESS_MUX_DISABLE; 	//µŘÖ·/ĘýľÝĎß˛»¸´ÓĂ
ARM GAS  C:\Users\84759\AppData\Local\Temp\cc1QWPm5.s 			page 7


 277:Core/Src/lcd.c **** 	SRAM_Handler.Init.MemoryType=FSMC_MEMORY_TYPE_NOR;   				       //NOR
 278:Core/Src/lcd.c **** 	SRAM_Handler.Init.MemoryDataWidth=FSMC_NORSRAM_MEM_BUS_WIDTH_16; 	//16Î»ĘýľÝżí¶Č
 279:Core/Src/lcd.c **** 	SRAM_Handler.Init.BurstAccessMode=FSMC_BURST_ACCESS_MODE_DISABLE; //ĘÇ·ńĘąÄÜÍ»·˘·ĂÎĘ,˝ö¶ÔÍ¬˛˝Í»·˘´
 280:Core/Src/lcd.c **** 	SRAM_Handler.Init.WaitSignalPolarity=FSMC_WAIT_SIGNAL_POLARITY_LOW;//µČ´ýĐĹşĹµÄĽ«ĐÔ,˝öÔÚÍ»·˘ÄŁĘ˝·Ă
 281:Core/Src/lcd.c **** 	SRAM_Handler.Init.WaitSignalActive=FSMC_WAIT_TIMING_BEFORE_WS;   	//´ć´˘Ć÷ĘÇÔÚµČ´ýÖÜĆÚÖ®Ç°µÄŇ»¸öĘ±
 282:Core/Src/lcd.c **** 	SRAM_Handler.Init.WriteOperation=FSMC_WRITE_OPERATION_ENABLE;    	//´ć´˘Ć÷Đ´ĘąÄÜ
 283:Core/Src/lcd.c **** 	SRAM_Handler.Init.WaitSignal=FSMC_WAIT_SIGNAL_DISABLE;           	//µČ´ýĘąÄÜÎ»,´Ë´¦Î´ÓĂµ˝
 284:Core/Src/lcd.c **** 	SRAM_Handler.Init.ExtendedMode=FSMC_EXTENDED_MODE_DISABLE;        	//¶ÁĐ´ĘąÓĂĎŕÍ¬µÄĘ±Đň
 285:Core/Src/lcd.c **** 	SRAM_Handler.Init.AsynchronousWait=FSMC_ASYNCHRONOUS_WAIT_DISABLE;	//ĘÇ·ńĘąÄÜÍ¬˛˝´«ĘäÄŁĘ˝ĎÂµÄµČ´ýĐ
 286:Core/Src/lcd.c **** 	SRAM_Handler.Init.WriteBurst=FSMC_WRITE_BURST_DISABLE;           	  //˝űÖąÍ»·˘Đ´
 287:Core/Src/lcd.c ****   
 288:Core/Src/lcd.c ****   /* SRAM controller initialization */
 289:Core/Src/lcd.c ****    ILI9341_GPIO_Config();
 290:Core/Src/lcd.c ****   HAL_SRAM_Init(& SRAM_Handler, &Timing, &Timing);
 291:Core/Src/lcd.c **** 		
 292:Core/Src/lcd.c **** }
 293:Core/Src/lcd.c **** 
 294:Core/Src/lcd.c **** 
 295:Core/Src/lcd.c **** /**
 296:Core/Src/lcd.c ****  * @brief  łőĘĽ»ŻILI9341ĽÄ´ćĆ÷
 297:Core/Src/lcd.c ****  * @param  ÎŢ
 298:Core/Src/lcd.c ****  * @retval ÎŢ
 299:Core/Src/lcd.c ****  */
 300:Core/Src/lcd.c **** static void ILI9341_REG_Config ( void )
 301:Core/Src/lcd.c **** {
 302:Core/Src/lcd.c ****   lcdid = ILI9341_ReadID();
 303:Core/Src/lcd.c ****   
 304:Core/Src/lcd.c ****   if(lcdid == LCDID_ILI9341)
 305:Core/Src/lcd.c ****   {
 306:Core/Src/lcd.c ****     /*  Power control B (CFh)  */
 307:Core/Src/lcd.c ****     DEBUG_DELAY  ();
 308:Core/Src/lcd.c ****     ILI9341_Write_Cmd ( 0xCF  );
 309:Core/Src/lcd.c ****     ILI9341_Write_Data ( 0x00  );
 310:Core/Src/lcd.c ****     ILI9341_Write_Data ( 0x81  );
 311:Core/Src/lcd.c ****     ILI9341_Write_Data ( 0x30  );
 312:Core/Src/lcd.c ****     
 313:Core/Src/lcd.c ****     /*  Power on sequence control (EDh) */
 314:Core/Src/lcd.c ****     DEBUG_DELAY ();
 315:Core/Src/lcd.c ****     ILI9341_Write_Cmd ( 0xED );
 316:Core/Src/lcd.c ****     ILI9341_Write_Data ( 0x64 );
 317:Core/Src/lcd.c ****     ILI9341_Write_Data ( 0x03 );
 318:Core/Src/lcd.c ****     ILI9341_Write_Data ( 0x12 );
 319:Core/Src/lcd.c ****     ILI9341_Write_Data ( 0x81 );
 320:Core/Src/lcd.c ****     
 321:Core/Src/lcd.c ****     /*  Driver timing control A (E8h) */
 322:Core/Src/lcd.c ****     DEBUG_DELAY ();
 323:Core/Src/lcd.c ****     ILI9341_Write_Cmd ( 0xE8 );
 324:Core/Src/lcd.c ****     ILI9341_Write_Data ( 0x85 );
 325:Core/Src/lcd.c ****     ILI9341_Write_Data ( 0x10 );
 326:Core/Src/lcd.c ****     ILI9341_Write_Data ( 0x78 );
 327:Core/Src/lcd.c ****     
 328:Core/Src/lcd.c ****     /*  Power control A (CBh) */
 329:Core/Src/lcd.c ****     DEBUG_DELAY ();
 330:Core/Src/lcd.c ****     ILI9341_Write_Cmd ( 0xCB );
 331:Core/Src/lcd.c ****     ILI9341_Write_Data ( 0x39 );
 332:Core/Src/lcd.c ****     ILI9341_Write_Data ( 0x2C );
 333:Core/Src/lcd.c ****     ILI9341_Write_Data ( 0x00 );
ARM GAS  C:\Users\84759\AppData\Local\Temp\cc1QWPm5.s 			page 8


 334:Core/Src/lcd.c ****     ILI9341_Write_Data ( 0x34 );
 335:Core/Src/lcd.c ****     //ILI9341_Write_Data ( 0x02 );
 336:Core/Src/lcd.c ****     ILI9341_Write_Data ( 0x06 ); //Ô­Ŕ´ĘÇ0x02¸ÄÎŞ0x06żÉ·ŔÖąŇşľ§ĎÔĘľ°×ĆÁĘ±ÓĐĚőÎĆµÄÇéżö
 337:Core/Src/lcd.c ****     
 338:Core/Src/lcd.c ****     /* Pump ratio control (F7h) */
 339:Core/Src/lcd.c ****     DEBUG_DELAY ();
 340:Core/Src/lcd.c ****     ILI9341_Write_Cmd ( 0xF7 );
 341:Core/Src/lcd.c ****     ILI9341_Write_Data ( 0x20 );
 342:Core/Src/lcd.c ****     
 343:Core/Src/lcd.c ****     /* Driver timing control B */
 344:Core/Src/lcd.c ****     DEBUG_DELAY ();
 345:Core/Src/lcd.c ****     ILI9341_Write_Cmd ( 0xEA );
 346:Core/Src/lcd.c ****     ILI9341_Write_Data ( 0x00 );
 347:Core/Src/lcd.c ****     ILI9341_Write_Data ( 0x00 );
 348:Core/Src/lcd.c ****     
 349:Core/Src/lcd.c ****     /* Frame Rate Control (In Normal Mode/Full Colors) (B1h) */
 350:Core/Src/lcd.c ****     DEBUG_DELAY ();
 351:Core/Src/lcd.c ****     ILI9341_Write_Cmd ( 0xB1 );
 352:Core/Src/lcd.c ****     ILI9341_Write_Data ( 0x00 );
 353:Core/Src/lcd.c ****     ILI9341_Write_Data ( 0x1B );
 354:Core/Src/lcd.c ****     
 355:Core/Src/lcd.c ****     /*  Display Function Control (B6h) */
 356:Core/Src/lcd.c ****     DEBUG_DELAY ();
 357:Core/Src/lcd.c ****     ILI9341_Write_Cmd ( 0xB6 );
 358:Core/Src/lcd.c ****     ILI9341_Write_Data ( 0x0A );
 359:Core/Src/lcd.c ****     ILI9341_Write_Data ( 0xA2 );
 360:Core/Src/lcd.c ****     
 361:Core/Src/lcd.c ****     /* Power Control 1 (C0h) */
 362:Core/Src/lcd.c ****     DEBUG_DELAY ();
 363:Core/Src/lcd.c ****     ILI9341_Write_Cmd ( 0xC0 );
 364:Core/Src/lcd.c ****     ILI9341_Write_Data ( 0x35 );
 365:Core/Src/lcd.c ****     
 366:Core/Src/lcd.c ****     /* Power Control 2 (C1h) */
 367:Core/Src/lcd.c ****     DEBUG_DELAY ();
 368:Core/Src/lcd.c ****     ILI9341_Write_Cmd ( 0xC1 );
 369:Core/Src/lcd.c ****     ILI9341_Write_Data ( 0x11 );
 370:Core/Src/lcd.c ****     
 371:Core/Src/lcd.c ****     /* VCOM Control 1 (C5h) */
 372:Core/Src/lcd.c ****     ILI9341_Write_Cmd ( 0xC5 );
 373:Core/Src/lcd.c ****     ILI9341_Write_Data ( 0x45 );
 374:Core/Src/lcd.c ****     ILI9341_Write_Data ( 0x45 );
 375:Core/Src/lcd.c ****     
 376:Core/Src/lcd.c ****     /*  VCOM Control 2 (C7h)  */
 377:Core/Src/lcd.c ****     ILI9341_Write_Cmd ( 0xC7 );
 378:Core/Src/lcd.c ****     ILI9341_Write_Data ( 0xA2 );
 379:Core/Src/lcd.c ****     
 380:Core/Src/lcd.c ****     /* Enable 3G (F2h) */
 381:Core/Src/lcd.c ****     ILI9341_Write_Cmd ( 0xF2 );
 382:Core/Src/lcd.c ****     ILI9341_Write_Data ( 0x00 );
 383:Core/Src/lcd.c ****     
 384:Core/Src/lcd.c ****     /* Gamma Set (26h) */
 385:Core/Src/lcd.c ****     ILI9341_Write_Cmd ( 0x26 );
 386:Core/Src/lcd.c ****     ILI9341_Write_Data ( 0x01 );
 387:Core/Src/lcd.c ****     DEBUG_DELAY ();
 388:Core/Src/lcd.c ****     
 389:Core/Src/lcd.c ****     /* Positive Gamma Correction */
 390:Core/Src/lcd.c ****     ILI9341_Write_Cmd ( 0xE0 ); //Set Gamma
ARM GAS  C:\Users\84759\AppData\Local\Temp\cc1QWPm5.s 			page 9


 391:Core/Src/lcd.c ****     ILI9341_Write_Data ( 0x0F );
 392:Core/Src/lcd.c ****     ILI9341_Write_Data ( 0x26 );
 393:Core/Src/lcd.c ****     ILI9341_Write_Data ( 0x24 );
 394:Core/Src/lcd.c ****     ILI9341_Write_Data ( 0x0B );
 395:Core/Src/lcd.c ****     ILI9341_Write_Data ( 0x0E );
 396:Core/Src/lcd.c ****     ILI9341_Write_Data ( 0x09 );
 397:Core/Src/lcd.c ****     ILI9341_Write_Data ( 0x54 );
 398:Core/Src/lcd.c ****     ILI9341_Write_Data ( 0xA8 );
 399:Core/Src/lcd.c ****     ILI9341_Write_Data ( 0x46 );
 400:Core/Src/lcd.c ****     ILI9341_Write_Data ( 0x0C );
 401:Core/Src/lcd.c ****     ILI9341_Write_Data ( 0x17 );
 402:Core/Src/lcd.c ****     ILI9341_Write_Data ( 0x09 );
 403:Core/Src/lcd.c ****     ILI9341_Write_Data ( 0x0F );
 404:Core/Src/lcd.c ****     ILI9341_Write_Data ( 0x07 );
 405:Core/Src/lcd.c ****     ILI9341_Write_Data ( 0x00 );
 406:Core/Src/lcd.c ****     
 407:Core/Src/lcd.c ****     /* Negative Gamma Correction (E1h) */
 408:Core/Src/lcd.c ****     ILI9341_Write_Cmd ( 0XE1 ); //Set Gamma
 409:Core/Src/lcd.c ****     ILI9341_Write_Data ( 0x00 );
 410:Core/Src/lcd.c ****     ILI9341_Write_Data ( 0x19 );
 411:Core/Src/lcd.c ****     ILI9341_Write_Data ( 0x1B );
 412:Core/Src/lcd.c ****     ILI9341_Write_Data ( 0x04 );
 413:Core/Src/lcd.c ****     ILI9341_Write_Data ( 0x10 );
 414:Core/Src/lcd.c ****     ILI9341_Write_Data ( 0x07 );
 415:Core/Src/lcd.c ****     ILI9341_Write_Data ( 0x2A );
 416:Core/Src/lcd.c ****     ILI9341_Write_Data ( 0x47 );
 417:Core/Src/lcd.c ****     ILI9341_Write_Data ( 0x39 );
 418:Core/Src/lcd.c ****     ILI9341_Write_Data ( 0x03 );
 419:Core/Src/lcd.c ****     ILI9341_Write_Data ( 0x06 );
 420:Core/Src/lcd.c ****     ILI9341_Write_Data ( 0x06 );
 421:Core/Src/lcd.c ****     ILI9341_Write_Data ( 0x30 );
 422:Core/Src/lcd.c ****     ILI9341_Write_Data ( 0x38 );
 423:Core/Src/lcd.c ****     ILI9341_Write_Data ( 0x0F );
 424:Core/Src/lcd.c ****     
 425:Core/Src/lcd.c ****     /* memory access control set */
 426:Core/Src/lcd.c ****     DEBUG_DELAY ();
 427:Core/Src/lcd.c ****     ILI9341_Write_Cmd ( 0x36 ); 	
 428:Core/Src/lcd.c ****     ILI9341_Write_Data ( 0xC8 );    /*ĘúĆÁ  ×óÉĎ˝Çµ˝ (Ćđµă)µ˝ÓŇĎÂ˝Ç (ÖŐµă)É¨Ăč·˝Ę˝*/
 429:Core/Src/lcd.c ****     DEBUG_DELAY ();
 430:Core/Src/lcd.c ****     
 431:Core/Src/lcd.c ****     /* column address control set */
 432:Core/Src/lcd.c ****     ILI9341_Write_Cmd ( CMD_SetCoordinateX ); 
 433:Core/Src/lcd.c ****     ILI9341_Write_Data ( 0x00 );
 434:Core/Src/lcd.c ****     ILI9341_Write_Data ( 0x00 );
 435:Core/Src/lcd.c ****     ILI9341_Write_Data ( 0x00 );
 436:Core/Src/lcd.c ****     ILI9341_Write_Data ( 0xEF );
 437:Core/Src/lcd.c ****     
 438:Core/Src/lcd.c ****     /* page address control set */
 439:Core/Src/lcd.c ****     DEBUG_DELAY ();
 440:Core/Src/lcd.c ****     ILI9341_Write_Cmd ( CMD_SetCoordinateY ); 
 441:Core/Src/lcd.c ****     ILI9341_Write_Data ( 0x00 );
 442:Core/Src/lcd.c ****     ILI9341_Write_Data ( 0x00 );
 443:Core/Src/lcd.c ****     ILI9341_Write_Data ( 0x01 );
 444:Core/Src/lcd.c ****     ILI9341_Write_Data ( 0x3F );
 445:Core/Src/lcd.c ****     
 446:Core/Src/lcd.c ****     /*  Pixel Format Set (3Ah)  */
 447:Core/Src/lcd.c ****     DEBUG_DELAY ();
ARM GAS  C:\Users\84759\AppData\Local\Temp\cc1QWPm5.s 			page 10


 448:Core/Src/lcd.c ****     ILI9341_Write_Cmd ( 0x3a ); 
 449:Core/Src/lcd.c ****     ILI9341_Write_Data ( 0x55 );
 450:Core/Src/lcd.c ****     
 451:Core/Src/lcd.c ****     /* Sleep Out (11h)  */
 452:Core/Src/lcd.c ****     ILI9341_Write_Cmd ( 0x11 );	
 453:Core/Src/lcd.c ****     ILI9341_Delay ( 0xAFFf<<2 );
 454:Core/Src/lcd.c ****     DEBUG_DELAY ();
 455:Core/Src/lcd.c ****     
 456:Core/Src/lcd.c ****     /* Display ON (29h) */
 457:Core/Src/lcd.c ****     ILI9341_Write_Cmd ( 0x29 ); 
 458:Core/Src/lcd.c **** 	}
 459:Core/Src/lcd.c ****   
 460:Core/Src/lcd.c ****   else if(lcdid == LCDID_ST7789V)
 461:Core/Src/lcd.c ****   {
 462:Core/Src/lcd.c ****     /*  Power control B (CFh)  */
 463:Core/Src/lcd.c ****     DEBUG_DELAY  ();
 464:Core/Src/lcd.c ****     ILI9341_Write_Cmd ( 0xCF  );
 465:Core/Src/lcd.c ****     ILI9341_Write_Data ( 0x00  );
 466:Core/Src/lcd.c ****     ILI9341_Write_Data ( 0xC1  );
 467:Core/Src/lcd.c ****     ILI9341_Write_Data ( 0x30  );
 468:Core/Src/lcd.c ****     
 469:Core/Src/lcd.c ****     /*  Power on sequence control (EDh) */
 470:Core/Src/lcd.c ****     DEBUG_DELAY ();
 471:Core/Src/lcd.c ****     ILI9341_Write_Cmd ( 0xED );
 472:Core/Src/lcd.c ****     ILI9341_Write_Data ( 0x64 );
 473:Core/Src/lcd.c ****     ILI9341_Write_Data ( 0x03 );
 474:Core/Src/lcd.c ****     ILI9341_Write_Data ( 0x12 );
 475:Core/Src/lcd.c ****     ILI9341_Write_Data ( 0x81 );
 476:Core/Src/lcd.c ****     
 477:Core/Src/lcd.c ****     /*  Driver timing control A (E8h) */
 478:Core/Src/lcd.c ****     DEBUG_DELAY ();
 479:Core/Src/lcd.c ****     ILI9341_Write_Cmd ( 0xE8 );
 480:Core/Src/lcd.c ****     ILI9341_Write_Data ( 0x85 );
 481:Core/Src/lcd.c ****     ILI9341_Write_Data ( 0x10 );
 482:Core/Src/lcd.c ****     ILI9341_Write_Data ( 0x78 );
 483:Core/Src/lcd.c ****     
 484:Core/Src/lcd.c ****     /*  Power control A (CBh) */
 485:Core/Src/lcd.c ****     DEBUG_DELAY ();
 486:Core/Src/lcd.c ****     ILI9341_Write_Cmd ( 0xCB );
 487:Core/Src/lcd.c ****     ILI9341_Write_Data ( 0x39 );
 488:Core/Src/lcd.c ****     ILI9341_Write_Data ( 0x2C );
 489:Core/Src/lcd.c ****     ILI9341_Write_Data ( 0x00 );
 490:Core/Src/lcd.c ****     ILI9341_Write_Data ( 0x34 );
 491:Core/Src/lcd.c ****     ILI9341_Write_Data ( 0x02 );
 492:Core/Src/lcd.c ****     
 493:Core/Src/lcd.c ****     /* Pump ratio control (F7h) */
 494:Core/Src/lcd.c ****     DEBUG_DELAY ();
 495:Core/Src/lcd.c ****     ILI9341_Write_Cmd ( 0xF7 );
 496:Core/Src/lcd.c ****     ILI9341_Write_Data ( 0x20 );
 497:Core/Src/lcd.c ****     
 498:Core/Src/lcd.c ****     /* Driver timing control B */
 499:Core/Src/lcd.c ****     DEBUG_DELAY ();
 500:Core/Src/lcd.c ****     ILI9341_Write_Cmd ( 0xEA );
 501:Core/Src/lcd.c ****     ILI9341_Write_Data ( 0x00 );
 502:Core/Src/lcd.c ****     ILI9341_Write_Data ( 0x00 );
 503:Core/Src/lcd.c ****     
 504:Core/Src/lcd.c ****     
ARM GAS  C:\Users\84759\AppData\Local\Temp\cc1QWPm5.s 			page 11


 505:Core/Src/lcd.c ****     /* Power Control 1 (C0h) */
 506:Core/Src/lcd.c ****     DEBUG_DELAY ();
 507:Core/Src/lcd.c ****     ILI9341_Write_Cmd ( 0xC0 );   //Power control
 508:Core/Src/lcd.c ****     ILI9341_Write_Data ( 0x21 );  //VRH[5:0]
 509:Core/Src/lcd.c ****     
 510:Core/Src/lcd.c ****     /* Power Control 2 (C1h) */
 511:Core/Src/lcd.c ****     DEBUG_DELAY ();
 512:Core/Src/lcd.c ****     ILI9341_Write_Cmd ( 0xC1 );   //Power control
 513:Core/Src/lcd.c ****     ILI9341_Write_Data ( 0x11 );  //SAP[2:0];BT[3:0]
 514:Core/Src/lcd.c ****     
 515:Core/Src/lcd.c ****     /* VCOM Control 1 (C5h) */
 516:Core/Src/lcd.c ****     ILI9341_Write_Cmd ( 0xC5 );
 517:Core/Src/lcd.c ****     ILI9341_Write_Data ( 0x2D );
 518:Core/Src/lcd.c ****     ILI9341_Write_Data ( 0x33 );
 519:Core/Src/lcd.c ****     
 520:Core/Src/lcd.c ****     /*  VCOM Control 2 (C7h)  */
 521:Core/Src/lcd.c **** //	ILI9341_Write_Cmd ( 0xC7 );
 522:Core/Src/lcd.c **** //	ILI9341_Write_Data ( 0XC0 );
 523:Core/Src/lcd.c ****     
 524:Core/Src/lcd.c ****     /* memory access control set */
 525:Core/Src/lcd.c ****     DEBUG_DELAY ();
 526:Core/Src/lcd.c ****     ILI9341_Write_Cmd ( 0x36 );   //Memory Access Control
 527:Core/Src/lcd.c ****     ILI9341_Write_Data ( 0x00 );  /*ĘúĆÁ  ×óÉĎ˝Çµ˝ (Ćđµă)µ˝ÓŇĎÂ˝Ç (ÖŐµă)É¨Ăč·˝Ę˝*/
 528:Core/Src/lcd.c ****     DEBUG_DELAY ();
 529:Core/Src/lcd.c ****     
 530:Core/Src/lcd.c ****     ILI9341_Write_Cmd(0x3A);   
 531:Core/Src/lcd.c ****     ILI9341_Write_Data(0x55); 
 532:Core/Src/lcd.c ****     
 533:Core/Src/lcd.c ****       /* Frame Rate Control (In Normal Mode/Full Colors) (B1h) */
 534:Core/Src/lcd.c ****     DEBUG_DELAY ();
 535:Core/Src/lcd.c ****     ILI9341_Write_Cmd ( 0xB1 );
 536:Core/Src/lcd.c ****     ILI9341_Write_Data ( 0x00 );
 537:Core/Src/lcd.c ****     ILI9341_Write_Data ( 0x17 );
 538:Core/Src/lcd.c ****     
 539:Core/Src/lcd.c ****     /*  Display Function Control (B6h) */
 540:Core/Src/lcd.c ****     DEBUG_DELAY ();
 541:Core/Src/lcd.c ****     ILI9341_Write_Cmd ( 0xB6 );
 542:Core/Src/lcd.c ****     ILI9341_Write_Data ( 0x0A );
 543:Core/Src/lcd.c ****     ILI9341_Write_Data ( 0xA2 );
 544:Core/Src/lcd.c ****     
 545:Core/Src/lcd.c ****     ILI9341_Write_Cmd(0xF6);    			
 546:Core/Src/lcd.c ****     ILI9341_Write_Data(0x01); 
 547:Core/Src/lcd.c ****     ILI9341_Write_Data(0x30); 
 548:Core/Src/lcd.c ****     
 549:Core/Src/lcd.c ****     /* Enable 3G (F2h) */
 550:Core/Src/lcd.c ****     ILI9341_Write_Cmd ( 0xF2 );
 551:Core/Src/lcd.c ****     ILI9341_Write_Data ( 0x00 );
 552:Core/Src/lcd.c ****     
 553:Core/Src/lcd.c ****     /* Gamma Set (26h) */
 554:Core/Src/lcd.c ****     ILI9341_Write_Cmd ( 0x26 );
 555:Core/Src/lcd.c ****     ILI9341_Write_Data ( 0x01 );
 556:Core/Src/lcd.c ****     DEBUG_DELAY ();
 557:Core/Src/lcd.c ****     
 558:Core/Src/lcd.c ****     /* Positive Gamma Correction */
 559:Core/Src/lcd.c ****     ILI9341_Write_Cmd(0xe0); //Positive gamma
 560:Core/Src/lcd.c ****     ILI9341_Write_Data(0xd0);         
 561:Core/Src/lcd.c ****     ILI9341_Write_Data(0x00); 
ARM GAS  C:\Users\84759\AppData\Local\Temp\cc1QWPm5.s 			page 12


 562:Core/Src/lcd.c ****     ILI9341_Write_Data(0x02); 
 563:Core/Src/lcd.c ****     ILI9341_Write_Data(0x07); 
 564:Core/Src/lcd.c ****     ILI9341_Write_Data(0x0b); 
 565:Core/Src/lcd.c ****     ILI9341_Write_Data(0x1a); 
 566:Core/Src/lcd.c ****     ILI9341_Write_Data(0x31); 
 567:Core/Src/lcd.c ****     ILI9341_Write_Data(0x54); 
 568:Core/Src/lcd.c ****     ILI9341_Write_Data(0x40); 
 569:Core/Src/lcd.c ****     ILI9341_Write_Data(0x29); 
 570:Core/Src/lcd.c ****     ILI9341_Write_Data(0x12); 
 571:Core/Src/lcd.c ****     ILI9341_Write_Data(0x12); 
 572:Core/Src/lcd.c ****     ILI9341_Write_Data(0x12); 
 573:Core/Src/lcd.c ****     ILI9341_Write_Data(0x17);
 574:Core/Src/lcd.c **** 
 575:Core/Src/lcd.c ****     /* Negative Gamma Correction (E1h) */
 576:Core/Src/lcd.c ****     ILI9341_Write_Cmd(0xe1); //Negative gamma
 577:Core/Src/lcd.c ****     ILI9341_Write_Data(0xd0); 
 578:Core/Src/lcd.c ****     ILI9341_Write_Data(0x00); 
 579:Core/Src/lcd.c ****     ILI9341_Write_Data(0x02); 
 580:Core/Src/lcd.c ****     ILI9341_Write_Data(0x07); 
 581:Core/Src/lcd.c ****     ILI9341_Write_Data(0x05); 
 582:Core/Src/lcd.c ****     ILI9341_Write_Data(0x25); 
 583:Core/Src/lcd.c ****     ILI9341_Write_Data(0x2d); 
 584:Core/Src/lcd.c ****     ILI9341_Write_Data(0x44); 
 585:Core/Src/lcd.c ****     ILI9341_Write_Data(0x45); 
 586:Core/Src/lcd.c ****     ILI9341_Write_Data(0x1c); 
 587:Core/Src/lcd.c ****     ILI9341_Write_Data(0x18); 
 588:Core/Src/lcd.c ****     ILI9341_Write_Data(0x16); 
 589:Core/Src/lcd.c ****     ILI9341_Write_Data(0x1c); 
 590:Core/Src/lcd.c ****     ILI9341_Write_Data(0x1d); 
 591:Core/Src/lcd.c ****   
 592:Core/Src/lcd.c **** 	
 593:Core/Src/lcd.c **** //	/* column address control set */
 594:Core/Src/lcd.c **** //	ILI9341_Write_Cmd ( CMD_SetCoordinateX ); 
 595:Core/Src/lcd.c **** //	ILI9341_Write_Data ( 0x00 );
 596:Core/Src/lcd.c **** //	ILI9341_Write_Data ( 0x00 );
 597:Core/Src/lcd.c **** //	ILI9341_Write_Data ( 0x00 );
 598:Core/Src/lcd.c **** //	ILI9341_Write_Data ( 0xEF );
 599:Core/Src/lcd.c **** //	
 600:Core/Src/lcd.c **** //	/* page address control set */
 601:Core/Src/lcd.c **** //	DEBUG_DELAY ();
 602:Core/Src/lcd.c **** //	ILI9341_Write_Cmd ( CMD_SetCoordinateY ); 
 603:Core/Src/lcd.c **** //	ILI9341_Write_Data ( 0x00 );
 604:Core/Src/lcd.c **** //	ILI9341_Write_Data ( 0x00 );
 605:Core/Src/lcd.c **** //	ILI9341_Write_Data ( 0x01 );
 606:Core/Src/lcd.c **** //	ILI9341_Write_Data ( 0x3F );
 607:Core/Src/lcd.c **** 	
 608:Core/Src/lcd.c **** 	
 609:Core/Src/lcd.c ****     /* Sleep Out (11h)  */
 610:Core/Src/lcd.c ****     ILI9341_Write_Cmd ( 0x11 );	  //Exit Sleep
 611:Core/Src/lcd.c ****     ILI9341_Delay ( 0xAFFf<<2 );
 612:Core/Src/lcd.c ****     DEBUG_DELAY ();
 613:Core/Src/lcd.c ****     
 614:Core/Src/lcd.c ****     /* Display ON (29h) */
 615:Core/Src/lcd.c ****     ILI9341_Write_Cmd ( 0x29 );   //Display on
 616:Core/Src/lcd.c ****     
 617:Core/Src/lcd.c ****     ILI9341_Write_Cmd(0x2c);
 618:Core/Src/lcd.c ****   }
ARM GAS  C:\Users\84759\AppData\Local\Temp\cc1QWPm5.s 			page 13


 619:Core/Src/lcd.c **** 	
 620:Core/Src/lcd.c **** }
 621:Core/Src/lcd.c **** 
 622:Core/Src/lcd.c **** 
 623:Core/Src/lcd.c **** 
 624:Core/Src/lcd.c **** /**
 625:Core/Src/lcd.c ****  * @brief  ILI9341łőĘĽ»ŻşŻĘýŁ¬ČçąűŇŞÓĂµ˝lcdŁ¬Ň»¶¨ŇŞµ÷ÓĂŐâ¸öşŻĘý
 626:Core/Src/lcd.c ****  * @param  ÎŢ
 627:Core/Src/lcd.c ****  * @retval ÎŢ
 628:Core/Src/lcd.c ****  */
 629:Core/Src/lcd.c **** void ILI9341_Init ( void )
 630:Core/Src/lcd.c **** {
 631:Core/Src/lcd.c **** 	ILI9341_GPIO_Config ();
 632:Core/Src/lcd.c **** 	ILI9341_FSMC_Config ();
 633:Core/Src/lcd.c **** 	
 634:Core/Src/lcd.c **** 	ILI9341_BackLed_Control ( ENABLE );      //µăÁÁLCD±łąâµĆ
 635:Core/Src/lcd.c **** 	ILI9341_Rst ();
 636:Core/Src/lcd.c **** 	ILI9341_REG_Config ();
 637:Core/Src/lcd.c **** 	
 638:Core/Src/lcd.c **** 	//ÉčÖĂÄ¬ČĎÉ¨Ăč·˝ĎňŁ¬ĆäÖĐ 6 ÄŁĘ˝ÎŞ´ó˛ż·ÖŇşľ§ŔýłĚµÄÄ¬ČĎĎÔĘľ·˝Ďň  
 639:Core/Src/lcd.c **** 	ILI9341_GramScan(LCD_SCAN_MODE);
 640:Core/Src/lcd.c **** }
 641:Core/Src/lcd.c **** 
 642:Core/Src/lcd.c **** 
 643:Core/Src/lcd.c **** 
 644:Core/Src/lcd.c **** /**
 645:Core/Src/lcd.c ****  * @brief  ILI9341G±łąâLEDżŘÖĆ
 646:Core/Src/lcd.c ****  * @param  enumState Łşľö¶¨ĘÇ·ńĘąÄÜ±łąâLED
 647:Core/Src/lcd.c ****   *   ¸Ă˛ÎĘýÎŞŇÔĎÂÖµÖ®Ň»Łş
 648:Core/Src/lcd.c ****   *     @arg ENABLE :ĘąÄÜ±łąâLED
 649:Core/Src/lcd.c ****   *     @arg DISABLE :˝űÓĂ±łąâLED
 650:Core/Src/lcd.c ****  * @retval ÎŢ
 651:Core/Src/lcd.c ****  */
 652:Core/Src/lcd.c **** void  ILI9341_BackLed_Control ( FunctionalState enumState )
 653:Core/Src/lcd.c **** {
 654:Core/Src/lcd.c **** 	if ( enumState )
 655:Core/Src/lcd.c ****   {
 656:Core/Src/lcd.c ****     digitalL( GPIOG, GPIO_PIN_6);	
 657:Core/Src/lcd.c ****   }
 658:Core/Src/lcd.c **** 	else
 659:Core/Src/lcd.c ****   {
 660:Core/Src/lcd.c ****     digitalH( GPIOG, GPIO_PIN_6);
 661:Core/Src/lcd.c ****   }		
 662:Core/Src/lcd.c **** }
 663:Core/Src/lcd.c **** 
 664:Core/Src/lcd.c **** 
 665:Core/Src/lcd.c **** /**
 666:Core/Src/lcd.c ****  * @brief  ¶ÁČˇLCDÇý¶ŻĐľĆ¬IDşŻĘýŁ¬żÉÓĂÓÚ˛âĘÔµ×˛ăµÄ¶ÁĐ´şŻĘý
 667:Core/Src/lcd.c ****  * @param  ÎŢ
 668:Core/Src/lcd.c ****  * @retval ŐýłŁĘ±·µ»ŘÖµÎŞLCDÇý¶ŻĐľĆ¬ID: LCDID_ILI9341/LCDID_ST7789V
 669:Core/Src/lcd.c ****  *         ·ńÔň·µ»Ř: LCDID_UNKNOWN
 670:Core/Src/lcd.c ****  */
 671:Core/Src/lcd.c **** uint16_t ILI9341_ReadID(void)
 672:Core/Src/lcd.c **** {
 673:Core/Src/lcd.c **** 	uint16_t id = 0;
 674:Core/Src/lcd.c **** 	
 675:Core/Src/lcd.c **** 	ILI9341_Write_Cmd(0x04);
ARM GAS  C:\Users\84759\AppData\Local\Temp\cc1QWPm5.s 			page 14


 676:Core/Src/lcd.c **** 	ILI9341_Read_Data();
 677:Core/Src/lcd.c **** 	ILI9341_Read_Data();
 678:Core/Src/lcd.c **** 	id = ILI9341_Read_Data();
 679:Core/Src/lcd.c **** 	id <<= 8;
 680:Core/Src/lcd.c **** 	id |= ILI9341_Read_Data();
 681:Core/Src/lcd.c **** 	
 682:Core/Src/lcd.c ****   if(id == LCDID_ST7789V)
 683:Core/Src/lcd.c ****   {
 684:Core/Src/lcd.c ****     return id;
 685:Core/Src/lcd.c ****   }
 686:Core/Src/lcd.c ****   else
 687:Core/Src/lcd.c ****   {
 688:Core/Src/lcd.c ****     ILI9341_Write_Cmd(0xD3);
 689:Core/Src/lcd.c ****     ILI9341_Read_Data();
 690:Core/Src/lcd.c ****     ILI9341_Read_Data();
 691:Core/Src/lcd.c ****     id = ILI9341_Read_Data();
 692:Core/Src/lcd.c ****     id <<= 8;
 693:Core/Src/lcd.c ****     id |= ILI9341_Read_Data();
 694:Core/Src/lcd.c ****     if(id == LCDID_ILI9341)
 695:Core/Src/lcd.c ****     {
 696:Core/Src/lcd.c ****       return id;
 697:Core/Src/lcd.c ****     }
 698:Core/Src/lcd.c ****   }
 699:Core/Src/lcd.c ****   
 700:Core/Src/lcd.c **** 	return LCDID_UNKNOWN;
 701:Core/Src/lcd.c **** }
 702:Core/Src/lcd.c **** 
 703:Core/Src/lcd.c **** 
 704:Core/Src/lcd.c **** /**
 705:Core/Src/lcd.c ****  * @brief  ILI9341G ČíĽţ¸´Î»
 706:Core/Src/lcd.c ****  * @param  ÎŢ
 707:Core/Src/lcd.c ****  * @retval ÎŢ
 708:Core/Src/lcd.c ****  */
 709:Core/Src/lcd.c **** void ILI9341_Rst( void )
 710:Core/Src/lcd.c **** {			
 711:Core/Src/lcd.c **** 	digitalL( GPIOG,GPIO_PIN_11);	 //µÍµçĆ˝¸´Î»
 712:Core/Src/lcd.c **** 
 713:Core/Src/lcd.c **** 	ILI9341_Delay ( 0xAFF ); 						   
 714:Core/Src/lcd.c **** 
 715:Core/Src/lcd.c **** 	digitalH( GPIOG,GPIO_PIN_11);		 	 
 716:Core/Src/lcd.c **** 
 717:Core/Src/lcd.c **** 	ILI9341_Delay ( 0xAFF ); 	 	
 718:Core/Src/lcd.c **** 	
 719:Core/Src/lcd.c **** }
 720:Core/Src/lcd.c **** 
 721:Core/Src/lcd.c **** 
 722:Core/Src/lcd.c **** /**
 723:Core/Src/lcd.c ****  * @brief  ÉčÖĂILI9341µÄGRAMµÄÉ¨Ăč·˝Ďň 
 724:Core/Src/lcd.c ****  * @param  ucOption ŁşŃˇÔńGRAMµÄÉ¨Ăč·˝Ďň 
 725:Core/Src/lcd.c ****  *     @arg 0-7 :˛ÎĘýżÉŃˇÖµÎŞ0-7Őâ°Ë¸ö·˝Ďň
 726:Core/Src/lcd.c ****  *
 727:Core/Src/lcd.c ****  *	ŁˇŁˇŁˇĆäÖĐ0ˇ˘3ˇ˘5ˇ˘6 ÄŁĘ˝ĘĘşĎ´Ó×óÖÁÓŇĎÔĘľÎÄ×ÖŁ¬
 728:Core/Src/lcd.c ****  *				˛»ÍĆĽöĘąÓĂĆäËüÄŁĘ˝ĎÔĘľÎÄ×Ö	ĆäËüÄŁĘ˝ĎÔĘľÎÄ×Ö»áÓĐľµĎńĐ§ąű			
 729:Core/Src/lcd.c ****  *		
 730:Core/Src/lcd.c ****  *	ĆäÖĐ0ˇ˘2ˇ˘4ˇ˘6 ÄŁĘ˝µÄX·˝ĎňĎńËŘÎŞ240Ł¬Y·˝ĎňĎńËŘÎŞ320
 731:Core/Src/lcd.c ****  *	ĆäÖĐ1ˇ˘3ˇ˘5ˇ˘7 ÄŁĘ˝ĎÂX·˝ĎňĎńËŘÎŞ320Ł¬Y·˝ĎňĎńËŘÎŞ240
 732:Core/Src/lcd.c ****  *
ARM GAS  C:\Users\84759\AppData\Local\Temp\cc1QWPm5.s 			page 15


 733:Core/Src/lcd.c ****  *	ĆäÖĐ 6 ÄŁĘ˝ÎŞ´ó˛ż·ÖŇşľ§ŔýłĚµÄÄ¬ČĎĎÔĘľ·˝Ďň
 734:Core/Src/lcd.c ****  *	ĆäÖĐ 3 ÄŁĘ˝ÎŞÉăĎńÍ·ŔýłĚĘąÓĂµÄ·˝Ďň
 735:Core/Src/lcd.c ****  *	ĆäÖĐ 0 ÄŁĘ˝ÎŞBMPÍĽĆ¬ĎÔĘľŔýłĚĘąÓĂµÄ·˝Ďň
 736:Core/Src/lcd.c ****  *
 737:Core/Src/lcd.c ****  * @retval ÎŢ
 738:Core/Src/lcd.c ****  * @note  ×ř±ęÍĽŔýŁşA±íĘľĎňÉĎŁ¬V±íĘľĎňĎÂŁ¬<±íĘľĎň×óŁ¬>±íĘľĎňÓŇ
 739:Core/Src/lcd.c **** 					X±íĘľXÖáŁ¬Y±íĘľYÖá
 740:Core/Src/lcd.c **** 
 741:Core/Src/lcd.c **** ------------------------------------------------------------
 742:Core/Src/lcd.c **** ÄŁĘ˝0Łş				.		ÄŁĘ˝1Łş		.	ÄŁĘ˝2Łş			.	ÄŁĘ˝3Łş					
 743:Core/Src/lcd.c **** 					A		.					A		.		A					.		A									
 744:Core/Src/lcd.c **** 					|		.					|		.		|					.		|							
 745:Core/Src/lcd.c **** 					Y		.					X		.		Y					.		X					
 746:Core/Src/lcd.c **** 					0		.					1		.		2					.		3					
 747:Core/Src/lcd.c **** 	<--- X0 o		.	<----Y1	o		.		o 2X--->  .		o 3Y--->	
 748:Core/Src/lcd.c **** ------------------------------------------------------------	
 749:Core/Src/lcd.c **** ÄŁĘ˝4Łş				.	ÄŁĘ˝5Łş			.	ÄŁĘ˝6Łş			.	ÄŁĘ˝7Łş					
 750:Core/Src/lcd.c **** 	<--- X4 o		.	<--- Y5 o		.		o 6X--->  .		o 7Y--->	
 751:Core/Src/lcd.c **** 					4		.					5		.		6					.		7	
 752:Core/Src/lcd.c **** 					Y		.					X		.		Y					.		X						
 753:Core/Src/lcd.c **** 					|		.					|		.		|					.		|							
 754:Core/Src/lcd.c **** 					V		.					V		.		V					.		V		
 755:Core/Src/lcd.c **** ---------------------------------------------------------				
 756:Core/Src/lcd.c **** 											 LCDĆÁĘľŔý
 757:Core/Src/lcd.c **** 								|-----------------|
 758:Core/Src/lcd.c **** 								|			Ň°»đLogo		|
 759:Core/Src/lcd.c **** 								|									|
 760:Core/Src/lcd.c **** 								|									|
 761:Core/Src/lcd.c **** 								|									|
 762:Core/Src/lcd.c **** 								|									|
 763:Core/Src/lcd.c **** 								|									|
 764:Core/Src/lcd.c **** 								|									|
 765:Core/Src/lcd.c **** 								|									|
 766:Core/Src/lcd.c **** 								|									|
 767:Core/Src/lcd.c **** 								|-----------------|
 768:Core/Src/lcd.c **** 								ĆÁÄ»ŐýĂćŁ¨żí240Ł¬¸ß320Ł©
 769:Core/Src/lcd.c **** 
 770:Core/Src/lcd.c ****  *******************************************************/
 771:Core/Src/lcd.c **** void ILI9341_GramScan ( uint8_t ucOption )
 772:Core/Src/lcd.c **** {	
 773:Core/Src/lcd.c **** 	//˛ÎĘýĽě˛éŁ¬Ö»żÉĘäČë0-7
 774:Core/Src/lcd.c **** 	if(ucOption >7 )
 775:Core/Src/lcd.c **** 		return;
 776:Core/Src/lcd.c **** 	
 777:Core/Src/lcd.c **** 	//¸ůľÝÄŁĘ˝¸üĐÂLCD_SCAN_MODEµÄÖµŁ¬Ö÷ŇŞÓĂÓÚ´ĄĂţĆÁŃˇÔńĽĆËă˛ÎĘý
 778:Core/Src/lcd.c **** 	LCD_SCAN_MODE = ucOption;
 779:Core/Src/lcd.c **** 	
 780:Core/Src/lcd.c **** 	//¸ůľÝÄŁĘ˝¸üĐÂXY·˝ĎňµÄĎńËŘżí¶Č
 781:Core/Src/lcd.c **** 	if(ucOption%2 == 0)	
 782:Core/Src/lcd.c **** 	{
 783:Core/Src/lcd.c **** 		//0 2 4 6ÄŁĘ˝ĎÂX·˝ĎňĎńËŘżí¶ČÎŞ240Ł¬Y·˝ĎňÎŞ320
 784:Core/Src/lcd.c **** 		LCD_X_LENGTH = ILI9341_LESS_PIXEL;
 785:Core/Src/lcd.c **** 		LCD_Y_LENGTH =	ILI9341_MORE_PIXEL;
 786:Core/Src/lcd.c **** 	}
 787:Core/Src/lcd.c **** 	else				
 788:Core/Src/lcd.c **** 	{
 789:Core/Src/lcd.c **** 		//1 3 5 7ÄŁĘ˝ĎÂX·˝ĎňĎńËŘżí¶ČÎŞ320Ł¬Y·˝ĎňÎŞ240
ARM GAS  C:\Users\84759\AppData\Local\Temp\cc1QWPm5.s 			page 16


 790:Core/Src/lcd.c **** 		LCD_X_LENGTH = ILI9341_MORE_PIXEL;
 791:Core/Src/lcd.c **** 		LCD_Y_LENGTH =	ILI9341_LESS_PIXEL; 
 792:Core/Src/lcd.c **** 	}
 793:Core/Src/lcd.c **** 
 794:Core/Src/lcd.c **** 	//0x36ĂüÁî˛ÎĘýµÄ¸ß3Î»żÉÓĂÓÚÉčÖĂGRAMÉ¨Ăč·˝Ďň	
 795:Core/Src/lcd.c **** 	ILI9341_Write_Cmd ( 0x36 ); 
 796:Core/Src/lcd.c **** 	if(lcdid == LCDID_ILI9341)
 797:Core/Src/lcd.c ****   {
 798:Core/Src/lcd.c ****     ILI9341_Write_Data ( 0x08 |(ucOption<<5));//¸ůľÝucOptionµÄÖµÉčÖĂLCD˛ÎĘýŁ¬ą˛0-7ÖÖÄŁĘ˝
 799:Core/Src/lcd.c ****   }
 800:Core/Src/lcd.c ****   else if(lcdid == LCDID_ST7789V)
 801:Core/Src/lcd.c ****   {
 802:Core/Src/lcd.c ****     ILI9341_Write_Data ( 0x00 |(ucOption<<5));//¸ůľÝucOptionµÄÖµÉčÖĂLCD˛ÎĘýŁ¬ą˛0-7ÖÖÄŁĘ˝
 803:Core/Src/lcd.c ****   }
 804:Core/Src/lcd.c **** 	ILI9341_Write_Cmd ( CMD_SetCoordinateX ); 
 805:Core/Src/lcd.c **** 	ILI9341_Write_Data ( 0x00 );		/* x ĆđĘĽ×ř±ę¸ß8Î» */
 806:Core/Src/lcd.c **** 	ILI9341_Write_Data ( 0x00 );		/* x ĆđĘĽ×ř±ęµÍ8Î» */
 807:Core/Src/lcd.c **** 	ILI9341_Write_Data ( ((LCD_X_LENGTH-1)>>8)&0xFF ); /* x ˝áĘř×ř±ę¸ß8Î» */	
 808:Core/Src/lcd.c **** 	ILI9341_Write_Data ( (LCD_X_LENGTH-1)&0xFF );				/* x ˝áĘř×ř±ęµÍ8Î» */
 809:Core/Src/lcd.c **** 
 810:Core/Src/lcd.c **** 	ILI9341_Write_Cmd ( CMD_SetCoordinateY ); 
 811:Core/Src/lcd.c **** 	ILI9341_Write_Data ( 0x00 );		/* y ĆđĘĽ×ř±ę¸ß8Î» */
 812:Core/Src/lcd.c **** 	ILI9341_Write_Data ( 0x00 );		/* y ĆđĘĽ×ř±ęµÍ8Î» */
 813:Core/Src/lcd.c **** 	ILI9341_Write_Data ( ((LCD_Y_LENGTH-1)>>8)&0xFF );	/* y ˝áĘř×ř±ę¸ß8Î» */	 
 814:Core/Src/lcd.c **** 	ILI9341_Write_Data ( (LCD_Y_LENGTH-1)&0xFF );				/* y ˝áĘř×ř±ęµÍ8Î» */
 815:Core/Src/lcd.c **** 
 816:Core/Src/lcd.c **** 	/* write gram start */
 817:Core/Src/lcd.c **** 	ILI9341_Write_Cmd ( CMD_SetPixel );	
 818:Core/Src/lcd.c **** }
 819:Core/Src/lcd.c **** 
 820:Core/Src/lcd.c **** 
 821:Core/Src/lcd.c **** 
 822:Core/Src/lcd.c **** /**
 823:Core/Src/lcd.c ****  * @brief  ÔÚILI9341ĎÔĘľĆ÷ÉĎżŞ±ŮŇ»¸ö´°żÚ
 824:Core/Src/lcd.c ****  * @param  usX ŁşÔÚĚŘ¶¨É¨Ăč·˝ĎňĎÂ´°żÚµÄĆđµăX×ř±ę
 825:Core/Src/lcd.c ****  * @param  usY ŁşÔÚĚŘ¶¨É¨Ăč·˝ĎňĎÂ´°żÚµÄĆđµăY×ř±ę
 826:Core/Src/lcd.c ****  * @param  usWidth Łş´°żÚµÄżí¶Č
 827:Core/Src/lcd.c ****  * @param  usHeight Łş´°żÚµÄ¸ß¶Č
 828:Core/Src/lcd.c ****  * @retval ÎŢ
 829:Core/Src/lcd.c ****  */
 830:Core/Src/lcd.c **** void ILI9341_OpenWindow ( uint16_t usX, uint16_t usY, uint16_t usWidth, uint16_t usHeight )
 831:Core/Src/lcd.c **** {	
 832:Core/Src/lcd.c **** 	ILI9341_Write_Cmd ( CMD_SetCoordinateX ); 				 /* ÉčÖĂX×ř±ę */
 833:Core/Src/lcd.c **** 	ILI9341_Write_Data ( usX >> 8  );	 /* ĎČ¸ß8Î»Ł¬Č»şóµÍ8Î» */
 834:Core/Src/lcd.c **** 	ILI9341_Write_Data ( usX & 0xff  );	 /* ÉčÖĂĆđĘĽµăşÍ˝áĘřµă*/
 835:Core/Src/lcd.c **** 	ILI9341_Write_Data ( ( usX + usWidth - 1 ) >> 8  );
 836:Core/Src/lcd.c **** 	ILI9341_Write_Data ( ( usX + usWidth - 1 ) & 0xff  );
 837:Core/Src/lcd.c **** 
 838:Core/Src/lcd.c **** 	ILI9341_Write_Cmd ( CMD_SetCoordinateY ); 			     /* ÉčÖĂY×ř±ę*/
 839:Core/Src/lcd.c **** 	ILI9341_Write_Data ( usY >> 8  );
 840:Core/Src/lcd.c **** 	ILI9341_Write_Data ( usY & 0xff  );
 841:Core/Src/lcd.c **** 	ILI9341_Write_Data ( ( usY + usHeight - 1 ) >> 8 );
 842:Core/Src/lcd.c **** 	ILI9341_Write_Data ( ( usY + usHeight - 1) & 0xff );
 843:Core/Src/lcd.c **** 	
 844:Core/Src/lcd.c **** }
 845:Core/Src/lcd.c **** 
 846:Core/Src/lcd.c **** 
ARM GAS  C:\Users\84759\AppData\Local\Temp\cc1QWPm5.s 			page 17


 847:Core/Src/lcd.c **** /**
 848:Core/Src/lcd.c ****  * @brief  Éč¶¨ILI9341µÄąâ±ę×ř±ę
 849:Core/Src/lcd.c ****  * @param  usX ŁşÔÚĚŘ¶¨É¨Ăč·˝ĎňĎÂąâ±ęµÄX×ř±ę
 850:Core/Src/lcd.c ****  * @param  usY ŁşÔÚĚŘ¶¨É¨Ăč·˝ĎňĎÂąâ±ęµÄY×ř±ę
 851:Core/Src/lcd.c ****  * @retval ÎŢ
 852:Core/Src/lcd.c ****  */
 853:Core/Src/lcd.c **** static void ILI9341_SetCursor ( uint16_t usX, uint16_t usY )	
 854:Core/Src/lcd.c **** {
 855:Core/Src/lcd.c **** 	ILI9341_OpenWindow ( usX, usY, 1, 1 );
 856:Core/Src/lcd.c **** }
 857:Core/Src/lcd.c **** 
 858:Core/Src/lcd.c **** 
 859:Core/Src/lcd.c **** /**
 860:Core/Src/lcd.c ****  * @brief  ÔÚILI9341ĎÔĘľĆ÷ÉĎŇÔÄłŇ»ŃŐÉ«ĚîłäĎńËŘµă
 861:Core/Src/lcd.c ****  * @param  ulAmout_Point ŁşŇŞĚîłäŃŐÉ«µÄĎńËŘµăµÄ×ÜĘýÄż
 862:Core/Src/lcd.c ****  * @param  usColor ŁşŃŐÉ«
 863:Core/Src/lcd.c ****  * @retval ÎŢ
 864:Core/Src/lcd.c ****  */
 865:Core/Src/lcd.c **** static __inline void ILI9341_FillColor ( uint32_t ulAmout_Point, uint16_t usColor )
 866:Core/Src/lcd.c **** {
 867:Core/Src/lcd.c **** 	uint32_t i = 0;
 868:Core/Src/lcd.c **** 	
 869:Core/Src/lcd.c **** 	
 870:Core/Src/lcd.c **** 	/* memory write */
 871:Core/Src/lcd.c **** 	ILI9341_Write_Cmd ( CMD_SetPixel );	
 872:Core/Src/lcd.c **** 		
 873:Core/Src/lcd.c **** 	for ( i = 0; i < ulAmout_Point; i ++ )
 874:Core/Src/lcd.c **** 		ILI9341_Write_Data ( usColor );
 875:Core/Src/lcd.c **** 		
 876:Core/Src/lcd.c **** 	
 877:Core/Src/lcd.c **** }
 878:Core/Src/lcd.c **** 
 879:Core/Src/lcd.c **** 
 880:Core/Src/lcd.c **** /**
 881:Core/Src/lcd.c ****  * @brief  ¶ÔILI9341ĎÔĘľĆ÷µÄÄłŇ»´°żÚŇÔÄłÖÖŃŐÉ«˝řĐĐÇĺĆÁ
 882:Core/Src/lcd.c ****  * @param  usX ŁşÔÚĚŘ¶¨É¨Ăč·˝ĎňĎÂ´°żÚµÄĆđµăX×ř±ę
 883:Core/Src/lcd.c ****  * @param  usY ŁşÔÚĚŘ¶¨É¨Ăč·˝ĎňĎÂ´°żÚµÄĆđµăY×ř±ę
 884:Core/Src/lcd.c ****  * @param  usWidth Łş´°żÚµÄżí¶Č
 885:Core/Src/lcd.c ****  * @param  usHeight Łş´°żÚµÄ¸ß¶Č
 886:Core/Src/lcd.c ****  * @note żÉĘąÓĂLCD_SetBackColorˇ˘LCD_SetTextColorˇ˘LCD_SetColorsşŻĘýÉčÖĂŃŐÉ«
 887:Core/Src/lcd.c ****  * @retval ÎŢ
 888:Core/Src/lcd.c ****  */
 889:Core/Src/lcd.c **** void ILI9341_Clear ( uint16_t usX, uint16_t usY, uint16_t usWidth, uint16_t usHeight )
 890:Core/Src/lcd.c **** {
 891:Core/Src/lcd.c **** 	ILI9341_OpenWindow ( usX, usY, usWidth, usHeight );
 892:Core/Src/lcd.c **** 
 893:Core/Src/lcd.c **** 	ILI9341_FillColor ( usWidth * usHeight, CurrentBackColor );		
 894:Core/Src/lcd.c **** 	
 895:Core/Src/lcd.c **** }
 896:Core/Src/lcd.c **** 
 897:Core/Src/lcd.c **** 
 898:Core/Src/lcd.c **** /**
 899:Core/Src/lcd.c ****  * @brief  ¶ÔILI9341ĎÔĘľĆ÷µÄÄłŇ»µăŇÔÄłÖÖŃŐÉ«˝řĐĐĚîłä
 900:Core/Src/lcd.c ****  * @param  usX ŁşÔÚĚŘ¶¨É¨Ăč·˝ĎňĎÂ¸ĂµăµÄX×ř±ę
 901:Core/Src/lcd.c ****  * @param  usY ŁşÔÚĚŘ¶¨É¨Ăč·˝ĎňĎÂ¸ĂµăµÄY×ř±ę
 902:Core/Src/lcd.c ****  * @note żÉĘąÓĂLCD_SetBackColorˇ˘LCD_SetTextColorˇ˘LCD_SetColorsşŻĘýÉčÖĂŃŐÉ«
 903:Core/Src/lcd.c ****  * @retval ÎŢ
ARM GAS  C:\Users\84759\AppData\Local\Temp\cc1QWPm5.s 			page 18


 904:Core/Src/lcd.c ****  */
 905:Core/Src/lcd.c **** void ILI9341_SetPointPixel ( uint16_t usX, uint16_t usY )	
 906:Core/Src/lcd.c **** {	
 907:Core/Src/lcd.c **** 	if ( ( usX < LCD_X_LENGTH ) && ( usY < LCD_Y_LENGTH ) )
 908:Core/Src/lcd.c ****   {
 909:Core/Src/lcd.c **** 		ILI9341_SetCursor ( usX, usY );
 910:Core/Src/lcd.c **** 		
 911:Core/Src/lcd.c **** 		ILI9341_FillColor ( 1, CurrentTextColor );
 912:Core/Src/lcd.c **** 	}
 913:Core/Src/lcd.c **** 	
 914:Core/Src/lcd.c **** }
 915:Core/Src/lcd.c **** 
 916:Core/Src/lcd.c **** 
 917:Core/Src/lcd.c **** /**
 918:Core/Src/lcd.c ****  * @brief  ¶ÁČˇ GRAM µÄŇ»¸öĎńËŘĘýľÝ
 919:Core/Src/lcd.c ****  * @param  ÎŢ
 920:Core/Src/lcd.c ****  * @retval ĎńËŘĘýľÝ
 921:Core/Src/lcd.c ****  */
 922:Core/Src/lcd.c **** static uint16_t ILI9341_Read_PixelData ( void )	
 923:Core/Src/lcd.c **** {	
  70              		.loc 1 923 1 is_stmt 1 view -0
  71              		.cfi_startproc
  72              		@ args = 0, pretend = 0, frame = 0
  73              		@ frame_needed = 0, uses_anonymous_args = 0
  74              		@ link register save eliminated.
 924:Core/Src/lcd.c **** 	uint16_t usRG=0, usB=0 ;
  75              		.loc 1 924 2 view .LVU11
  76              	.LVL1:
 925:Core/Src/lcd.c **** 
 926:Core/Src/lcd.c **** 	
 927:Core/Src/lcd.c **** 	ILI9341_Write_Cmd ( 0x2E );   /* ¶ÁĘýľÝ */
  77              		.loc 1 927 2 view .LVU12
  78              	.LBB462:
  79              	.LBI462:
  59:Core/Src/lcd.c **** {
  80              		.loc 1 59 7 view .LVU13
  81              	.LBB463:
  61:Core/Src/lcd.c **** 	
  82              		.loc 1 61 2 view .LVU14
  61:Core/Src/lcd.c **** 	
  83              		.loc 1 61 50 is_stmt 0 view .LVU15
  84 0000 4FF0D843 		mov	r3, #1811939328
  85 0004 2E22     		movs	r2, #46
  86 0006 1A80     		strh	r2, [r3]	@ movhi
  87              	.LVL2:
  61:Core/Src/lcd.c **** 	
  88              		.loc 1 61 50 view .LVU16
  89              	.LBE463:
  90              	.LBE462:
 928:Core/Src/lcd.c **** 	//ČĄµôÇ°Ň»´Î¶ÁČˇ˝áąű
 929:Core/Src/lcd.c **** 	ILI9341_Read_Data (); 	      /*FIRST READ OUT DUMMY DATA*/
  91              		.loc 1 929 2 is_stmt 1 view .LVU17
  92              	.LBB464:
  93              	.LBI464:
  83:Core/Src/lcd.c **** {
  94              		.loc 1 83 11 view .LVU18
  95              	.LBB465:
ARM GAS  C:\Users\84759\AppData\Local\Temp\cc1QWPm5.s 			page 19


  85:Core/Src/lcd.c **** 	
  96              		.loc 1 85 2 view .LVU19
  85:Core/Src/lcd.c **** 	
  97              		.loc 1 85 11 is_stmt 0 view .LVU20
  98 0008 4FF0DA41 		mov	r1, #1828716544
  99 000c 0B88     		ldrh	r3, [r1]
 100              	.LBE465:
 101              	.LBE464:
 930:Core/Src/lcd.c **** 	
 931:Core/Src/lcd.c **** 	//»ńČˇşěÉ«Í¨µŔÓëÂĚÉ«Í¨µŔµÄÖµ
 932:Core/Src/lcd.c **** 	usRG = ILI9341_Read_Data ();  	/*READ OUT RED AND GREEN DATA  */
 102              		.loc 1 932 2 is_stmt 1 view .LVU21
 103              	.LBB466:
 104              	.LBI466:
  83:Core/Src/lcd.c **** {
 105              		.loc 1 83 11 view .LVU22
 106              	.LBB467:
  85:Core/Src/lcd.c **** 	
 107              		.loc 1 85 2 view .LVU23
  85:Core/Src/lcd.c **** 	
 108              		.loc 1 85 11 is_stmt 0 view .LVU24
 109 000e 0B88     		ldrh	r3, [r1]
 110 0010 9AB2     		uxth	r2, r3
 111              	.LVL3:
  85:Core/Src/lcd.c **** 	
 112              		.loc 1 85 11 view .LVU25
 113              	.LBE467:
 114              	.LBE466:
 933:Core/Src/lcd.c **** 	usB = ILI9341_Read_Data ();  		/*READ OUT BLUE DATA*/
 115              		.loc 1 933 2 is_stmt 1 view .LVU26
 116              	.LBB468:
 117              	.LBI468:
  83:Core/Src/lcd.c **** {
 118              		.loc 1 83 11 view .LVU27
 119              	.LBB469:
  85:Core/Src/lcd.c **** 	
 120              		.loc 1 85 2 view .LVU28
  85:Core/Src/lcd.c **** 	
 121              		.loc 1 85 11 is_stmt 0 view .LVU29
 122 0012 0988     		ldrh	r1, [r1]
 123              	.LVL4:
  85:Core/Src/lcd.c **** 	
 124              		.loc 1 85 11 view .LVU30
 125              	.LBE469:
 126              	.LBE468:
 934:Core/Src/lcd.c **** 
 935:Core/Src/lcd.c ****   return ( (usRG&0xF800)| ((usRG<<3)&0x7E0) | (usB>>11) );
 127              		.loc 1 935 3 is_stmt 1 view .LVU31
 128              		.loc 1 935 17 is_stmt 0 view .LVU32
 129 0014 03F47840 		and	r0, r3, #63488
 130 0018 00B2     		sxth	r0, r0
 131              		.loc 1 935 33 view .LVU33
 132 001a D300     		lsls	r3, r2, #3
 133              		.loc 1 935 37 view .LVU34
 134 001c 03F4FC63 		and	r3, r3, #2016
 135              		.loc 1 935 25 view .LVU35
 136 0020 1843     		orrs	r0, r0, r3
ARM GAS  C:\Users\84759\AppData\Local\Temp\cc1QWPm5.s 			page 20


 137              		.loc 1 935 45 view .LVU36
 138 0022 C1F3C423 		ubfx	r3, r1, #11, #5
 139 0026 1843     		orrs	r0, r0, r3
 936:Core/Src/lcd.c **** }
 140              		.loc 1 936 1 view .LVU37
 141 0028 80B2     		uxth	r0, r0
 142 002a 7047     		bx	lr
 143              		.cfi_endproc
 144              	.LFE82:
 146              		.section	.text.ILI9341_GPIO_Config,"ax",%progbits
 147              		.align	1
 148              		.syntax unified
 149              		.thumb
 150              		.thumb_func
 152              	ILI9341_GPIO_Config:
 153              	.LFB69:
 108:Core/Src/lcd.c **** 	GPIO_InitTypeDef GPIO_Initure;
 154              		.loc 1 108 1 is_stmt 1 view -0
 155              		.cfi_startproc
 156              		@ args = 0, pretend = 0, frame = 40
 157              		@ frame_needed = 0, uses_anonymous_args = 0
 158 0000 10B5     		push	{r4, lr}
 159              	.LCFI2:
 160              		.cfi_def_cfa_offset 8
 161              		.cfi_offset 4, -8
 162              		.cfi_offset 14, -4
 163 0002 8AB0     		sub	sp, sp, #40
 164              	.LCFI3:
 165              		.cfi_def_cfa_offset 48
 109:Core/Src/lcd.c ****   
 166              		.loc 1 109 2 view .LVU39
 112:Core/Src/lcd.c ****   __HAL_RCC_GPIOE_CLK_ENABLE();
 167              		.loc 1 112 3 view .LVU40
 168              	.LBB470:
 112:Core/Src/lcd.c ****   __HAL_RCC_GPIOE_CLK_ENABLE();
 169              		.loc 1 112 3 view .LVU41
 112:Core/Src/lcd.c ****   __HAL_RCC_GPIOE_CLK_ENABLE();
 170              		.loc 1 112 3 view .LVU42
 171 0004 2C4B     		ldr	r3, .L8
 172 0006 9A69     		ldr	r2, [r3, #24]
 173 0008 42F02002 		orr	r2, r2, #32
 174 000c 9A61     		str	r2, [r3, #24]
 112:Core/Src/lcd.c ****   __HAL_RCC_GPIOE_CLK_ENABLE();
 175              		.loc 1 112 3 view .LVU43
 176 000e 9A69     		ldr	r2, [r3, #24]
 177 0010 02F02002 		and	r2, r2, #32
 178 0014 0192     		str	r2, [sp, #4]
 112:Core/Src/lcd.c ****   __HAL_RCC_GPIOE_CLK_ENABLE();
 179              		.loc 1 112 3 view .LVU44
 180 0016 019A     		ldr	r2, [sp, #4]
 181              	.LBE470:
 112:Core/Src/lcd.c ****   __HAL_RCC_GPIOE_CLK_ENABLE();
 182              		.loc 1 112 3 view .LVU45
 113:Core/Src/lcd.c ****   __HAL_RCC_GPIOF_CLK_ENABLE();
 183              		.loc 1 113 3 view .LVU46
 184              	.LBB471:
 113:Core/Src/lcd.c ****   __HAL_RCC_GPIOF_CLK_ENABLE();
ARM GAS  C:\Users\84759\AppData\Local\Temp\cc1QWPm5.s 			page 21


 185              		.loc 1 113 3 view .LVU47
 113:Core/Src/lcd.c ****   __HAL_RCC_GPIOF_CLK_ENABLE();
 186              		.loc 1 113 3 view .LVU48
 187 0018 9A69     		ldr	r2, [r3, #24]
 188 001a 42F04002 		orr	r2, r2, #64
 189 001e 9A61     		str	r2, [r3, #24]
 113:Core/Src/lcd.c ****   __HAL_RCC_GPIOF_CLK_ENABLE();
 190              		.loc 1 113 3 view .LVU49
 191 0020 9A69     		ldr	r2, [r3, #24]
 192 0022 02F04002 		and	r2, r2, #64
 193 0026 0292     		str	r2, [sp, #8]
 113:Core/Src/lcd.c ****   __HAL_RCC_GPIOF_CLK_ENABLE();
 194              		.loc 1 113 3 view .LVU50
 195 0028 029A     		ldr	r2, [sp, #8]
 196              	.LBE471:
 113:Core/Src/lcd.c ****   __HAL_RCC_GPIOF_CLK_ENABLE();
 197              		.loc 1 113 3 view .LVU51
 114:Core/Src/lcd.c ****   __HAL_RCC_GPIOG_CLK_ENABLE();
 198              		.loc 1 114 3 view .LVU52
 199              	.LBB472:
 114:Core/Src/lcd.c ****   __HAL_RCC_GPIOG_CLK_ENABLE();
 200              		.loc 1 114 3 view .LVU53
 114:Core/Src/lcd.c ****   __HAL_RCC_GPIOG_CLK_ENABLE();
 201              		.loc 1 114 3 view .LVU54
 202 002a 9A69     		ldr	r2, [r3, #24]
 203 002c 42F08002 		orr	r2, r2, #128
 204 0030 9A61     		str	r2, [r3, #24]
 114:Core/Src/lcd.c ****   __HAL_RCC_GPIOG_CLK_ENABLE();
 205              		.loc 1 114 3 view .LVU55
 206 0032 9A69     		ldr	r2, [r3, #24]
 207 0034 02F08002 		and	r2, r2, #128
 208 0038 0392     		str	r2, [sp, #12]
 114:Core/Src/lcd.c ****   __HAL_RCC_GPIOG_CLK_ENABLE();
 209              		.loc 1 114 3 view .LVU56
 210 003a 039A     		ldr	r2, [sp, #12]
 211              	.LBE472:
 114:Core/Src/lcd.c ****   __HAL_RCC_GPIOG_CLK_ENABLE();
 212              		.loc 1 114 3 view .LVU57
 115:Core/Src/lcd.c ****   __HAL_RCC_FSMC_CLK_ENABLE();			//ĘąÄÜFSMCĘ±ÖÓ
 213              		.loc 1 115 3 view .LVU58
 214              	.LBB473:
 115:Core/Src/lcd.c ****   __HAL_RCC_FSMC_CLK_ENABLE();			//ĘąÄÜFSMCĘ±ÖÓ
 215              		.loc 1 115 3 view .LVU59
 115:Core/Src/lcd.c ****   __HAL_RCC_FSMC_CLK_ENABLE();			//ĘąÄÜFSMCĘ±ÖÓ
 216              		.loc 1 115 3 view .LVU60
 217 003c 9A69     		ldr	r2, [r3, #24]
 218 003e 42F48072 		orr	r2, r2, #256
 219 0042 9A61     		str	r2, [r3, #24]
 115:Core/Src/lcd.c ****   __HAL_RCC_FSMC_CLK_ENABLE();			//ĘąÄÜFSMCĘ±ÖÓ
 220              		.loc 1 115 3 view .LVU61
 221 0044 9A69     		ldr	r2, [r3, #24]
 222 0046 02F48072 		and	r2, r2, #256
 223 004a 0492     		str	r2, [sp, #16]
 115:Core/Src/lcd.c ****   __HAL_RCC_FSMC_CLK_ENABLE();			//ĘąÄÜFSMCĘ±ÖÓ
 224              		.loc 1 115 3 view .LVU62
 225 004c 049A     		ldr	r2, [sp, #16]
 226              	.LBE473:
ARM GAS  C:\Users\84759\AppData\Local\Temp\cc1QWPm5.s 			page 22


 115:Core/Src/lcd.c ****   __HAL_RCC_FSMC_CLK_ENABLE();			//ĘąÄÜFSMCĘ±ÖÓ
 227              		.loc 1 115 3 view .LVU63
 116:Core/Src/lcd.c ****   
 228              		.loc 1 116 3 view .LVU64
 229              	.LBB474:
 116:Core/Src/lcd.c ****   
 230              		.loc 1 116 3 view .LVU65
 116:Core/Src/lcd.c ****   
 231              		.loc 1 116 3 view .LVU66
 232 004e 5A69     		ldr	r2, [r3, #20]
 233 0050 42F48072 		orr	r2, r2, #256
 234 0054 5A61     		str	r2, [r3, #20]
 116:Core/Src/lcd.c ****   
 235              		.loc 1 116 3 view .LVU67
 236 0056 5B69     		ldr	r3, [r3, #20]
 237 0058 03F48073 		and	r3, r3, #256
 238 005c 0593     		str	r3, [sp, #20]
 116:Core/Src/lcd.c ****   
 239              		.loc 1 116 3 view .LVU68
 240 005e 059B     		ldr	r3, [sp, #20]
 241              	.LBE474:
 116:Core/Src/lcd.c ****   
 242              		.loc 1 116 3 view .LVU69
 119:Core/Src/lcd.c ****   GPIO_Initure.Pull      = GPIO_PULLUP;
 243              		.loc 1 119 3 view .LVU70
 119:Core/Src/lcd.c ****   GPIO_Initure.Pull      = GPIO_PULLUP;
 244              		.loc 1 119 26 is_stmt 0 view .LVU71
 245 0060 0123     		movs	r3, #1
 246 0062 0793     		str	r3, [sp, #28]
 120:Core/Src/lcd.c ****   GPIO_Initure.Speed     = GPIO_SPEED_FREQ_HIGH;
 247              		.loc 1 120 3 is_stmt 1 view .LVU72
 120:Core/Src/lcd.c ****   GPIO_Initure.Speed     = GPIO_SPEED_FREQ_HIGH;
 248              		.loc 1 120 26 is_stmt 0 view .LVU73
 249 0064 0893     		str	r3, [sp, #32]
 121:Core/Src/lcd.c **** 
 250              		.loc 1 121 3 is_stmt 1 view .LVU74
 121:Core/Src/lcd.c **** 
 251              		.loc 1 121 26 is_stmt 0 view .LVU75
 252 0066 0323     		movs	r3, #3
 253 0068 0993     		str	r3, [sp, #36]
 124:Core/Src/lcd.c **** 	HAL_GPIO_Init(GPIOG,&GPIO_Initure);
 254              		.loc 1 124 3 is_stmt 1 view .LVU76
 124:Core/Src/lcd.c **** 	HAL_GPIO_Init(GPIOG,&GPIO_Initure);
 255              		.loc 1 124 19 is_stmt 0 view .LVU77
 256 006a 4FF48053 		mov	r3, #4096
 257 006e 0693     		str	r3, [sp, #24]
 125:Core/Src/lcd.c ****   
 258              		.loc 1 125 2 is_stmt 1 view .LVU78
 259 0070 124C     		ldr	r4, .L8+4
 260 0072 06A9     		add	r1, sp, #24
 261 0074 2046     		mov	r0, r4
 262 0076 FFF7FEFF 		bl	HAL_GPIO_Init
 263              	.LVL5:
 128:Core/Src/lcd.c **** 	HAL_GPIO_Init(GPIOG,&GPIO_Initure);
 264              		.loc 1 128 2 view .LVU79
 128:Core/Src/lcd.c **** 	HAL_GPIO_Init(GPIOG,&GPIO_Initure);
 265              		.loc 1 128 18 is_stmt 0 view .LVU80
ARM GAS  C:\Users\84759\AppData\Local\Temp\cc1QWPm5.s 			page 23


 266 007a 4FF40063 		mov	r3, #2048
 267 007e 0693     		str	r3, [sp, #24]
 129:Core/Src/lcd.c ****   
 268              		.loc 1 129 2 is_stmt 1 view .LVU81
 269 0080 06A9     		add	r1, sp, #24
 270 0082 2046     		mov	r0, r4
 271 0084 FFF7FEFF 		bl	HAL_GPIO_Init
 272              	.LVL6:
 131:Core/Src/lcd.c **** //  GPIO_Initure.Alternate=GPIO_AF12_FSMC;	//¸´ÓĂÎŞFSMC
 273              		.loc 1 131 3 view .LVU82
 131:Core/Src/lcd.c **** //  GPIO_Initure.Alternate=GPIO_AF12_FSMC;	//¸´ÓĂÎŞFSMC
 274              		.loc 1 131 20 is_stmt 0 view .LVU83
 275 0088 0223     		movs	r3, #2
 276 008a 0793     		str	r3, [sp, #28]
 135:Core/Src/lcd.c **** 					         GPIO_PIN_9|GPIO_PIN_10|GPIO_PIN_14|GPIO_PIN_15; 
 277              		.loc 1 135 2 is_stmt 1 view .LVU84
 135:Core/Src/lcd.c **** 					         GPIO_PIN_9|GPIO_PIN_10|GPIO_PIN_14|GPIO_PIN_15; 
 278              		.loc 1 135 18 is_stmt 0 view .LVU85
 279 008c 4CF23373 		movw	r3, #50995
 280 0090 0693     		str	r3, [sp, #24]
 137:Core/Src/lcd.c ****   
 281              		.loc 1 137 3 is_stmt 1 view .LVU86
 282 0092 06A9     		add	r1, sp, #24
 283 0094 0A48     		ldr	r0, .L8+8
 284 0096 FFF7FEFF 		bl	HAL_GPIO_Init
 285              	.LVL7:
 140:Core/Src/lcd.c ****                      GPIO_PIN_12|GPIO_PIN_13|GPIO_PIN_14|GPIO_PIN_15;
 286              		.loc 1 140 2 view .LVU87
 140:Core/Src/lcd.c ****                      GPIO_PIN_12|GPIO_PIN_13|GPIO_PIN_14|GPIO_PIN_15;
 287              		.loc 1 140 18 is_stmt 0 view .LVU88
 288 009a 4FF68473 		movw	r3, #65412
 289 009e 0693     		str	r3, [sp, #24]
 142:Core/Src/lcd.c **** 	
 290              		.loc 1 142 2 is_stmt 1 view .LVU89
 291 00a0 06A9     		add	r1, sp, #24
 292 00a2 0848     		ldr	r0, .L8+12
 293 00a4 FFF7FEFF 		bl	HAL_GPIO_Init
 294              	.LVL8:
 145:Core/Src/lcd.c **** 	HAL_GPIO_Init(GPIOG,&GPIO_Initure);
 295              		.loc 1 145 2 view .LVU90
 145:Core/Src/lcd.c **** 	HAL_GPIO_Init(GPIOG,&GPIO_Initure);
 296              		.loc 1 145 18 is_stmt 0 view .LVU91
 297 00a8 4023     		movs	r3, #64
 298 00aa 0693     		str	r3, [sp, #24]
 146:Core/Src/lcd.c **** 
 299              		.loc 1 146 2 is_stmt 1 view .LVU92
 300 00ac 06A9     		add	r1, sp, #24
 301 00ae 2046     		mov	r0, r4
 302 00b0 FFF7FEFF 		bl	HAL_GPIO_Init
 303              	.LVL9:
 253:Core/Src/lcd.c **** 
 304              		.loc 1 253 1 is_stmt 0 view .LVU93
 305 00b4 0AB0     		add	sp, sp, #40
 306              	.LCFI4:
 307              		.cfi_def_cfa_offset 8
 308              		@ sp needed
 309 00b6 10BD     		pop	{r4, pc}
ARM GAS  C:\Users\84759\AppData\Local\Temp\cc1QWPm5.s 			page 24


 310              	.L9:
 311              		.align	2
 312              	.L8:
 313 00b8 00100240 		.word	1073876992
 314 00bc 00200140 		.word	1073815552
 315 00c0 00140140 		.word	1073812480
 316 00c4 00180140 		.word	1073813504
 317              		.cfi_endproc
 318              	.LFE69:
 320              		.section	.text.ILI9341_FSMC_Config,"ax",%progbits
 321              		.align	1
 322              		.syntax unified
 323              		.thumb
 324              		.thumb_func
 326              	ILI9341_FSMC_Config:
 327              	.LFB70:
 262:Core/Src/lcd.c **** 	SRAM_Handler.Instance = FSMC_NORSRAM_DEVICE;
 328              		.loc 1 262 1 is_stmt 1 view -0
 329              		.cfi_startproc
 330              		@ args = 0, pretend = 0, frame = 0
 331              		@ frame_needed = 0, uses_anonymous_args = 0
 332 0000 38B5     		push	{r3, r4, r5, lr}
 333              	.LCFI5:
 334              		.cfi_def_cfa_offset 16
 335              		.cfi_offset 3, -16
 336              		.cfi_offset 4, -12
 337              		.cfi_offset 5, -8
 338              		.cfi_offset 14, -4
 263:Core/Src/lcd.c ****    SRAM_Handler.Extended = FSMC_NORSRAM_EXTENDED_DEVICE;
 339              		.loc 1 263 2 view .LVU95
 263:Core/Src/lcd.c ****    SRAM_Handler.Extended = FSMC_NORSRAM_EXTENDED_DEVICE;
 340              		.loc 1 263 24 is_stmt 0 view .LVU96
 341 0002 154C     		ldr	r4, .L12
 342 0004 4FF02043 		mov	r3, #-1610612736
 343 0008 2360     		str	r3, [r4]
 264:Core/Src/lcd.c ****   
 344              		.loc 1 264 4 is_stmt 1 view .LVU97
 264:Core/Src/lcd.c ****   
 345              		.loc 1 264 26 is_stmt 0 view .LVU98
 346 000a 03F58273 		add	r3, r3, #260
 347 000e 6360     		str	r3, [r4, #4]
 267:Core/Src/lcd.c ****   Timing.AddressHoldTime       = 0x00;
 348              		.loc 1 267 3 is_stmt 1 view .LVU99
 267:Core/Src/lcd.c ****   Timing.AddressHoldTime       = 0x00;
 349              		.loc 1 267 32 is_stmt 0 view .LVU100
 350 0010 124D     		ldr	r5, .L12+4
 351 0012 0023     		movs	r3, #0
 352 0014 2B60     		str	r3, [r5]
 268:Core/Src/lcd.c ****   Timing.DataSetupTime         = 0x08;
 353              		.loc 1 268 3 is_stmt 1 view .LVU101
 268:Core/Src/lcd.c ****   Timing.DataSetupTime         = 0x08;
 354              		.loc 1 268 32 is_stmt 0 view .LVU102
 355 0016 6B60     		str	r3, [r5, #4]
 269:Core/Src/lcd.c ****   Timing.BusTurnAroundDuration = 0x00;
 356              		.loc 1 269 3 is_stmt 1 view .LVU103
 269:Core/Src/lcd.c ****   Timing.BusTurnAroundDuration = 0x00;
 357              		.loc 1 269 32 is_stmt 0 view .LVU104
ARM GAS  C:\Users\84759\AppData\Local\Temp\cc1QWPm5.s 			page 25


 358 0018 0822     		movs	r2, #8
 359 001a AA60     		str	r2, [r5, #8]
 270:Core/Src/lcd.c ****   Timing.CLKDivision           = 0x00;
 360              		.loc 1 270 3 is_stmt 1 view .LVU105
 270:Core/Src/lcd.c ****   Timing.CLKDivision           = 0x00;
 361              		.loc 1 270 32 is_stmt 0 view .LVU106
 362 001c EB60     		str	r3, [r5, #12]
 271:Core/Src/lcd.c ****   Timing.DataLatency           = 0x00;
 363              		.loc 1 271 3 is_stmt 1 view .LVU107
 271:Core/Src/lcd.c ****   Timing.DataLatency           = 0x00;
 364              		.loc 1 271 32 is_stmt 0 view .LVU108
 365 001e 2B61     		str	r3, [r5, #16]
 272:Core/Src/lcd.c ****   Timing.AccessMode            = FSMC_ACCESS_MODE_B;
 366              		.loc 1 272 3 is_stmt 1 view .LVU109
 272:Core/Src/lcd.c ****   Timing.AccessMode            = FSMC_ACCESS_MODE_B;
 367              		.loc 1 272 32 is_stmt 0 view .LVU110
 368 0020 6B61     		str	r3, [r5, #20]
 273:Core/Src/lcd.c ****  
 369              		.loc 1 273 3 is_stmt 1 view .LVU111
 273:Core/Src/lcd.c ****  
 370              		.loc 1 273 32 is_stmt 0 view .LVU112
 371 0022 4FF08051 		mov	r1, #268435456
 372 0026 A961     		str	r1, [r5, #24]
 275:Core/Src/lcd.c **** 	SRAM_Handler.Init.DataAddressMux=FSMC_DATA_ADDRESS_MUX_DISABLE; 	//µŘÖ·/ĘýľÝĎß˛»¸´ÓĂ
 373              		.loc 1 275 3 is_stmt 1 view .LVU113
 275:Core/Src/lcd.c **** 	SRAM_Handler.Init.DataAddressMux=FSMC_DATA_ADDRESS_MUX_DISABLE; 	//µŘÖ·/ĘýľÝĎß˛»¸´ÓĂ
 374              		.loc 1 275 27 is_stmt 0 view .LVU114
 375 0028 0621     		movs	r1, #6
 376 002a A160     		str	r1, [r4, #8]
 276:Core/Src/lcd.c **** 	SRAM_Handler.Init.MemoryType=FSMC_MEMORY_TYPE_NOR;   				       //NOR
 377              		.loc 1 276 2 is_stmt 1 view .LVU115
 276:Core/Src/lcd.c **** 	SRAM_Handler.Init.MemoryType=FSMC_MEMORY_TYPE_NOR;   				       //NOR
 378              		.loc 1 276 34 is_stmt 0 view .LVU116
 379 002c E360     		str	r3, [r4, #12]
 277:Core/Src/lcd.c **** 	SRAM_Handler.Init.MemoryDataWidth=FSMC_NORSRAM_MEM_BUS_WIDTH_16; 	//16Î»ĘýľÝżí¶Č
 380              		.loc 1 277 2 is_stmt 1 view .LVU117
 277:Core/Src/lcd.c **** 	SRAM_Handler.Init.MemoryDataWidth=FSMC_NORSRAM_MEM_BUS_WIDTH_16; 	//16Î»ĘýľÝżí¶Č
 381              		.loc 1 277 30 is_stmt 0 view .LVU118
 382 002e 2261     		str	r2, [r4, #16]
 278:Core/Src/lcd.c **** 	SRAM_Handler.Init.BurstAccessMode=FSMC_BURST_ACCESS_MODE_DISABLE; //ĘÇ·ńĘąÄÜÍ»·˘·ĂÎĘ,˝ö¶ÔÍ¬˛˝Í»·˘´
 383              		.loc 1 278 2 is_stmt 1 view .LVU119
 278:Core/Src/lcd.c **** 	SRAM_Handler.Init.BurstAccessMode=FSMC_BURST_ACCESS_MODE_DISABLE; //ĘÇ·ńĘąÄÜÍ»·˘·ĂÎĘ,˝ö¶ÔÍ¬˛˝Í»·˘´
 384              		.loc 1 278 35 is_stmt 0 view .LVU120
 385 0030 1022     		movs	r2, #16
 386 0032 6261     		str	r2, [r4, #20]
 279:Core/Src/lcd.c **** 	SRAM_Handler.Init.WaitSignalPolarity=FSMC_WAIT_SIGNAL_POLARITY_LOW;//µČ´ýĐĹşĹµÄĽ«ĐÔ,˝öÔÚÍ»·˘ÄŁĘ˝·Ă
 387              		.loc 1 279 2 is_stmt 1 view .LVU121
 279:Core/Src/lcd.c **** 	SRAM_Handler.Init.WaitSignalPolarity=FSMC_WAIT_SIGNAL_POLARITY_LOW;//µČ´ýĐĹşĹµÄĽ«ĐÔ,˝öÔÚÍ»·˘ÄŁĘ˝·Ă
 388              		.loc 1 279 35 is_stmt 0 view .LVU122
 389 0034 A361     		str	r3, [r4, #24]
 280:Core/Src/lcd.c **** 	SRAM_Handler.Init.WaitSignalActive=FSMC_WAIT_TIMING_BEFORE_WS;   	//´ć´˘Ć÷ĘÇÔÚµČ´ýÖÜĆÚÖ®Ç°µÄŇ»¸öĘ±
 390              		.loc 1 280 2 is_stmt 1 view .LVU123
 280:Core/Src/lcd.c **** 	SRAM_Handler.Init.WaitSignalActive=FSMC_WAIT_TIMING_BEFORE_WS;   	//´ć´˘Ć÷ĘÇÔÚµČ´ýÖÜĆÚÖ®Ç°µÄŇ»¸öĘ±
 391              		.loc 1 280 38 is_stmt 0 view .LVU124
 392 0036 E361     		str	r3, [r4, #28]
 281:Core/Src/lcd.c **** 	SRAM_Handler.Init.WriteOperation=FSMC_WRITE_OPERATION_ENABLE;    	//´ć´˘Ć÷Đ´ĘąÄÜ
 393              		.loc 1 281 2 is_stmt 1 view .LVU125
ARM GAS  C:\Users\84759\AppData\Local\Temp\cc1QWPm5.s 			page 26


 281:Core/Src/lcd.c **** 	SRAM_Handler.Init.WriteOperation=FSMC_WRITE_OPERATION_ENABLE;    	//´ć´˘Ć÷Đ´ĘąÄÜ
 394              		.loc 1 281 36 is_stmt 0 view .LVU126
 395 0038 6362     		str	r3, [r4, #36]
 282:Core/Src/lcd.c **** 	SRAM_Handler.Init.WaitSignal=FSMC_WAIT_SIGNAL_DISABLE;           	//µČ´ýĘąÄÜÎ»,´Ë´¦Î´ÓĂµ˝
 396              		.loc 1 282 2 is_stmt 1 view .LVU127
 282:Core/Src/lcd.c **** 	SRAM_Handler.Init.WaitSignal=FSMC_WAIT_SIGNAL_DISABLE;           	//µČ´ýĘąÄÜÎ»,´Ë´¦Î´ÓĂµ˝
 397              		.loc 1 282 34 is_stmt 0 view .LVU128
 398 003a 4FF48052 		mov	r2, #4096
 399 003e A262     		str	r2, [r4, #40]
 283:Core/Src/lcd.c **** 	SRAM_Handler.Init.ExtendedMode=FSMC_EXTENDED_MODE_DISABLE;        	//¶ÁĐ´ĘąÓĂĎŕÍ¬µÄĘ±Đň
 400              		.loc 1 283 2 is_stmt 1 view .LVU129
 283:Core/Src/lcd.c **** 	SRAM_Handler.Init.ExtendedMode=FSMC_EXTENDED_MODE_DISABLE;        	//¶ÁĐ´ĘąÓĂĎŕÍ¬µÄĘ±Đň
 401              		.loc 1 283 30 is_stmt 0 view .LVU130
 402 0040 E362     		str	r3, [r4, #44]
 284:Core/Src/lcd.c **** 	SRAM_Handler.Init.AsynchronousWait=FSMC_ASYNCHRONOUS_WAIT_DISABLE;	//ĘÇ·ńĘąÄÜÍ¬˛˝´«ĘäÄŁĘ˝ĎÂµÄµČ´ýĐ
 403              		.loc 1 284 2 is_stmt 1 view .LVU131
 284:Core/Src/lcd.c **** 	SRAM_Handler.Init.AsynchronousWait=FSMC_ASYNCHRONOUS_WAIT_DISABLE;	//ĘÇ·ńĘąÄÜÍ¬˛˝´«ĘäÄŁĘ˝ĎÂµÄµČ´ýĐ
 404              		.loc 1 284 32 is_stmt 0 view .LVU132
 405 0042 2363     		str	r3, [r4, #48]
 285:Core/Src/lcd.c **** 	SRAM_Handler.Init.WriteBurst=FSMC_WRITE_BURST_DISABLE;           	  //˝űÖąÍ»·˘Đ´
 406              		.loc 1 285 2 is_stmt 1 view .LVU133
 285:Core/Src/lcd.c **** 	SRAM_Handler.Init.WriteBurst=FSMC_WRITE_BURST_DISABLE;           	  //˝űÖąÍ»·˘Đ´
 407              		.loc 1 285 36 is_stmt 0 view .LVU134
 408 0044 6363     		str	r3, [r4, #52]
 286:Core/Src/lcd.c ****   
 409              		.loc 1 286 2 is_stmt 1 view .LVU135
 286:Core/Src/lcd.c ****   
 410              		.loc 1 286 30 is_stmt 0 view .LVU136
 411 0046 A363     		str	r3, [r4, #56]
 289:Core/Src/lcd.c ****   HAL_SRAM_Init(& SRAM_Handler, &Timing, &Timing);
 412              		.loc 1 289 4 is_stmt 1 view .LVU137
 413 0048 FFF7FEFF 		bl	ILI9341_GPIO_Config
 414              	.LVL10:
 290:Core/Src/lcd.c **** 		
 415              		.loc 1 290 3 view .LVU138
 416 004c 2A46     		mov	r2, r5
 417 004e 2946     		mov	r1, r5
 418 0050 2046     		mov	r0, r4
 419 0052 FFF7FEFF 		bl	HAL_SRAM_Init
 420              	.LVL11:
 292:Core/Src/lcd.c **** 
 421              		.loc 1 292 1 is_stmt 0 view .LVU139
 422 0056 38BD     		pop	{r3, r4, r5, pc}
 423              	.L13:
 424              		.align	2
 425              	.L12:
 426 0058 00000000 		.word	.LANCHOR0
 427 005c 00000000 		.word	.LANCHOR1
 428              		.cfi_endproc
 429              	.LFE70:
 431              		.section	.text.ILI9341_Write_Cmd,"ax",%progbits
 432              		.align	1
 433              		.global	ILI9341_Write_Cmd
 434              		.syntax unified
 435              		.thumb
 436              		.thumb_func
 438              	ILI9341_Write_Cmd:
ARM GAS  C:\Users\84759\AppData\Local\Temp\cc1QWPm5.s 			page 27


 439              	.LVL12:
 440              	.LFB65:
  60:Core/Src/lcd.c **** 	* ( __IO uint16_t * ) ( FSMC_Addr_ILI9341_CMD ) = usCmd;
 441              		.loc 1 60 1 is_stmt 1 view -0
 442              		.cfi_startproc
 443              		@ args = 0, pretend = 0, frame = 0
 444              		@ frame_needed = 0, uses_anonymous_args = 0
 445              		@ link register save eliminated.
  61:Core/Src/lcd.c **** 	
 446              		.loc 1 61 2 view .LVU141
  61:Core/Src/lcd.c **** 	
 447              		.loc 1 61 50 is_stmt 0 view .LVU142
 448 0000 4FF0D843 		mov	r3, #1811939328
 449 0004 1880     		strh	r0, [r3]	@ movhi
  63:Core/Src/lcd.c **** 
 450              		.loc 1 63 1 view .LVU143
 451 0006 7047     		bx	lr
 452              		.cfi_endproc
 453              	.LFE65:
 455              		.section	.text.ILI9341_Write_Data,"ax",%progbits
 456              		.align	1
 457              		.global	ILI9341_Write_Data
 458              		.syntax unified
 459              		.thumb
 460              		.thumb_func
 462              	ILI9341_Write_Data:
 463              	.LVL13:
 464              	.LFB66:
  72:Core/Src/lcd.c **** 	* ( __IO uint16_t * ) ( FSMC_Addr_ILI9341_DATA ) = usData;
 465              		.loc 1 72 1 is_stmt 1 view -0
 466              		.cfi_startproc
 467              		@ args = 0, pretend = 0, frame = 0
 468              		@ frame_needed = 0, uses_anonymous_args = 0
 469              		@ link register save eliminated.
  73:Core/Src/lcd.c **** 	
 470              		.loc 1 73 2 view .LVU145
  73:Core/Src/lcd.c **** 	
 471              		.loc 1 73 51 is_stmt 0 view .LVU146
 472 0000 4FF0DA43 		mov	r3, #1828716544
 473 0004 1880     		strh	r0, [r3]	@ movhi
  75:Core/Src/lcd.c **** 
 474              		.loc 1 75 1 view .LVU147
 475 0006 7047     		bx	lr
 476              		.cfi_endproc
 477              	.LFE66:
 479              		.section	.text.ILI9341_Read_Data,"ax",%progbits
 480              		.align	1
 481              		.global	ILI9341_Read_Data
 482              		.syntax unified
 483              		.thumb
 484              		.thumb_func
 486              	ILI9341_Read_Data:
 487              	.LFB67:
  84:Core/Src/lcd.c **** 	return ( * ( __IO uint16_t * ) ( FSMC_Addr_ILI9341_DATA ) );
 488              		.loc 1 84 1 is_stmt 1 view -0
 489              		.cfi_startproc
 490              		@ args = 0, pretend = 0, frame = 0
ARM GAS  C:\Users\84759\AppData\Local\Temp\cc1QWPm5.s 			page 28


 491              		@ frame_needed = 0, uses_anonymous_args = 0
 492              		@ link register save eliminated.
  85:Core/Src/lcd.c **** 	
 493              		.loc 1 85 2 view .LVU149
  85:Core/Src/lcd.c **** 	
 494              		.loc 1 85 11 is_stmt 0 view .LVU150
 495 0000 4FF0DA43 		mov	r3, #1828716544
 496 0004 1888     		ldrh	r0, [r3]
  87:Core/Src/lcd.c **** 
 497              		.loc 1 87 1 view .LVU151
 498 0006 80B2     		uxth	r0, r0
 499 0008 7047     		bx	lr
 500              		.cfi_endproc
 501              	.LFE67:
 503              		.section	.text.ILI9341_BackLed_Control,"ax",%progbits
 504              		.align	1
 505              		.global	ILI9341_BackLed_Control
 506              		.syntax unified
 507              		.thumb
 508              		.thumb_func
 510              	ILI9341_BackLed_Control:
 511              	.LVL14:
 512              	.LFB73:
 653:Core/Src/lcd.c **** 	if ( enumState )
 513              		.loc 1 653 1 is_stmt 1 view -0
 514              		.cfi_startproc
 515              		@ args = 0, pretend = 0, frame = 0
 516              		@ frame_needed = 0, uses_anonymous_args = 0
 517              		@ link register save eliminated.
 654:Core/Src/lcd.c ****   {
 518              		.loc 1 654 2 view .LVU153
 654:Core/Src/lcd.c ****   {
 519              		.loc 1 654 5 is_stmt 0 view .LVU154
 520 0000 20B1     		cbz	r0, .L18
 656:Core/Src/lcd.c ****   }
 521              		.loc 1 656 5 is_stmt 1 view .LVU155
 522 0002 044B     		ldr	r3, .L20
 523 0004 4FF48002 		mov	r2, #4194304
 524 0008 1A61     		str	r2, [r3, #16]
 656:Core/Src/lcd.c ****   }
 525              		.loc 1 656 33 view .LVU156
 526 000a 7047     		bx	lr
 527              	.L18:
 660:Core/Src/lcd.c ****   }		
 528              		.loc 1 660 5 view .LVU157
 529 000c 014B     		ldr	r3, .L20
 530 000e 4022     		movs	r2, #64
 531 0010 1A61     		str	r2, [r3, #16]
 660:Core/Src/lcd.c ****   }		
 532              		.loc 1 660 33 view .LVU158
 662:Core/Src/lcd.c **** 
 533              		.loc 1 662 1 is_stmt 0 view .LVU159
 534 0012 7047     		bx	lr
 535              	.L21:
 536              		.align	2
 537              	.L20:
 538 0014 00200140 		.word	1073815552
ARM GAS  C:\Users\84759\AppData\Local\Temp\cc1QWPm5.s 			page 29


 539              		.cfi_endproc
 540              	.LFE73:
 542              		.section	.text.ILI9341_ReadID,"ax",%progbits
 543              		.align	1
 544              		.global	ILI9341_ReadID
 545              		.syntax unified
 546              		.thumb
 547              		.thumb_func
 549              	ILI9341_ReadID:
 550              	.LFB74:
 672:Core/Src/lcd.c **** 	uint16_t id = 0;
 551              		.loc 1 672 1 is_stmt 1 view -0
 552              		.cfi_startproc
 553              		@ args = 0, pretend = 0, frame = 0
 554              		@ frame_needed = 0, uses_anonymous_args = 0
 555              		@ link register save eliminated.
 673:Core/Src/lcd.c **** 	
 556              		.loc 1 673 2 view .LVU161
 557              	.LVL15:
 675:Core/Src/lcd.c **** 	ILI9341_Read_Data();
 558              		.loc 1 675 2 view .LVU162
 559              	.LBB475:
 560              	.LBI475:
  59:Core/Src/lcd.c **** {
 561              		.loc 1 59 7 view .LVU163
 562              	.LBB476:
  61:Core/Src/lcd.c **** 	
 563              		.loc 1 61 2 view .LVU164
  61:Core/Src/lcd.c **** 	
 564              		.loc 1 61 50 is_stmt 0 view .LVU165
 565 0000 4FF0D843 		mov	r3, #1811939328
 566 0004 0422     		movs	r2, #4
 567 0006 1A80     		strh	r2, [r3]	@ movhi
 568              	.LVL16:
  61:Core/Src/lcd.c **** 	
 569              		.loc 1 61 50 view .LVU166
 570              	.LBE476:
 571              	.LBE475:
 676:Core/Src/lcd.c **** 	ILI9341_Read_Data();
 572              		.loc 1 676 2 is_stmt 1 view .LVU167
 573              	.LBB477:
 574              	.LBI477:
  83:Core/Src/lcd.c **** {
 575              		.loc 1 83 11 view .LVU168
 576              	.LBB478:
  85:Core/Src/lcd.c **** 	
 577              		.loc 1 85 2 view .LVU169
  85:Core/Src/lcd.c **** 	
 578              		.loc 1 85 11 is_stmt 0 view .LVU170
 579 0008 4FF0DA43 		mov	r3, #1828716544
 580 000c 1A88     		ldrh	r2, [r3]
 581              	.LBE478:
 582              	.LBE477:
 677:Core/Src/lcd.c **** 	id = ILI9341_Read_Data();
 583              		.loc 1 677 2 is_stmt 1 view .LVU171
 584              	.LBB479:
 585              	.LBI479:
ARM GAS  C:\Users\84759\AppData\Local\Temp\cc1QWPm5.s 			page 30


  83:Core/Src/lcd.c **** {
 586              		.loc 1 83 11 view .LVU172
 587              	.LBB480:
  85:Core/Src/lcd.c **** 	
 588              		.loc 1 85 2 view .LVU173
  85:Core/Src/lcd.c **** 	
 589              		.loc 1 85 11 is_stmt 0 view .LVU174
 590 000e 1A88     		ldrh	r2, [r3]
 591              	.LBE480:
 592              	.LBE479:
 678:Core/Src/lcd.c **** 	id <<= 8;
 593              		.loc 1 678 2 is_stmt 1 view .LVU175
 594              	.LBB481:
 595              	.LBI481:
  83:Core/Src/lcd.c **** {
 596              		.loc 1 83 11 view .LVU176
 597              	.LBB482:
  85:Core/Src/lcd.c **** 	
 598              		.loc 1 85 2 view .LVU177
  85:Core/Src/lcd.c **** 	
 599              		.loc 1 85 11 is_stmt 0 view .LVU178
 600 0010 1888     		ldrh	r0, [r3]
 601 0012 80B2     		uxth	r0, r0
 602              	.LVL17:
  85:Core/Src/lcd.c **** 	
 603              		.loc 1 85 11 view .LVU179
 604              	.LBE482:
 605              	.LBE481:
 679:Core/Src/lcd.c **** 	id |= ILI9341_Read_Data();
 606              		.loc 1 679 2 is_stmt 1 view .LVU180
 679:Core/Src/lcd.c **** 	id |= ILI9341_Read_Data();
 607              		.loc 1 679 5 is_stmt 0 view .LVU181
 608 0014 0002     		lsls	r0, r0, #8
 609              	.LVL18:
 679:Core/Src/lcd.c **** 	id |= ILI9341_Read_Data();
 610              		.loc 1 679 5 view .LVU182
 611 0016 80B2     		uxth	r0, r0
 612              	.LVL19:
 680:Core/Src/lcd.c **** 	
 613              		.loc 1 680 2 is_stmt 1 view .LVU183
 614              	.LBB483:
 615              	.LBI483:
  83:Core/Src/lcd.c **** {
 616              		.loc 1 83 11 view .LVU184
 617              	.LBB484:
  85:Core/Src/lcd.c **** 	
 618              		.loc 1 85 2 view .LVU185
  85:Core/Src/lcd.c **** 	
 619              		.loc 1 85 11 is_stmt 0 view .LVU186
 620 0018 1B88     		ldrh	r3, [r3]
 621 001a 9BB2     		uxth	r3, r3
 622              	.LBE484:
 623              	.LBE483:
 680:Core/Src/lcd.c **** 	
 624              		.loc 1 680 5 view .LVU187
 625 001c 1843     		orrs	r0, r0, r3
 626              	.LVL20:
ARM GAS  C:\Users\84759\AppData\Local\Temp\cc1QWPm5.s 			page 31


 682:Core/Src/lcd.c ****   {
 627              		.loc 1 682 3 is_stmt 1 view .LVU188
 682:Core/Src/lcd.c ****   {
 628              		.loc 1 682 5 is_stmt 0 view .LVU189
 629 001e 48F25253 		movw	r3, #34130
 630 0022 9842     		cmp	r0, r3
 631 0024 13D0     		beq	.L23
 688:Core/Src/lcd.c ****     ILI9341_Read_Data();
 632              		.loc 1 688 5 is_stmt 1 view .LVU190
 633              	.LVL21:
 634              	.LBB485:
 635              	.LBI485:
  59:Core/Src/lcd.c **** {
 636              		.loc 1 59 7 view .LVU191
 637              	.LBB486:
  61:Core/Src/lcd.c **** 	
 638              		.loc 1 61 2 view .LVU192
  61:Core/Src/lcd.c **** 	
 639              		.loc 1 61 50 is_stmt 0 view .LVU193
 640 0026 4FF0D843 		mov	r3, #1811939328
 641 002a D322     		movs	r2, #211
 642 002c 1A80     		strh	r2, [r3]	@ movhi
 643              	.LVL22:
  61:Core/Src/lcd.c **** 	
 644              		.loc 1 61 50 view .LVU194
 645              	.LBE486:
 646              	.LBE485:
 689:Core/Src/lcd.c ****     ILI9341_Read_Data();
 647              		.loc 1 689 5 is_stmt 1 view .LVU195
 648              	.LBB487:
 649              	.LBI487:
  83:Core/Src/lcd.c **** {
 650              		.loc 1 83 11 view .LVU196
 651              	.LBB488:
  85:Core/Src/lcd.c **** 	
 652              		.loc 1 85 2 view .LVU197
  85:Core/Src/lcd.c **** 	
 653              		.loc 1 85 11 is_stmt 0 view .LVU198
 654 002e 4FF0DA43 		mov	r3, #1828716544
 655 0032 1A88     		ldrh	r2, [r3]
 656              	.LBE488:
 657              	.LBE487:
 690:Core/Src/lcd.c ****     id = ILI9341_Read_Data();
 658              		.loc 1 690 5 is_stmt 1 view .LVU199
 659              	.LBB489:
 660              	.LBI489:
  83:Core/Src/lcd.c **** {
 661              		.loc 1 83 11 view .LVU200
 662              	.LBB490:
  85:Core/Src/lcd.c **** 	
 663              		.loc 1 85 2 view .LVU201
  85:Core/Src/lcd.c **** 	
 664              		.loc 1 85 11 is_stmt 0 view .LVU202
 665 0034 1A88     		ldrh	r2, [r3]
 666              	.LBE490:
 667              	.LBE489:
 691:Core/Src/lcd.c ****     id <<= 8;
ARM GAS  C:\Users\84759\AppData\Local\Temp\cc1QWPm5.s 			page 32


 668              		.loc 1 691 5 is_stmt 1 view .LVU203
 669              	.LBB491:
 670              	.LBI491:
  83:Core/Src/lcd.c **** {
 671              		.loc 1 83 11 view .LVU204
 672              	.LBB492:
  85:Core/Src/lcd.c **** 	
 673              		.loc 1 85 2 view .LVU205
  85:Core/Src/lcd.c **** 	
 674              		.loc 1 85 11 is_stmt 0 view .LVU206
 675 0036 1888     		ldrh	r0, [r3]
 676              	.LVL23:
  85:Core/Src/lcd.c **** 	
 677              		.loc 1 85 11 view .LVU207
 678 0038 80B2     		uxth	r0, r0
 679              	.LVL24:
  85:Core/Src/lcd.c **** 	
 680              		.loc 1 85 11 view .LVU208
 681              	.LBE492:
 682              	.LBE491:
 692:Core/Src/lcd.c ****     id |= ILI9341_Read_Data();
 683              		.loc 1 692 5 is_stmt 1 view .LVU209
 692:Core/Src/lcd.c ****     id |= ILI9341_Read_Data();
 684              		.loc 1 692 8 is_stmt 0 view .LVU210
 685 003a 0002     		lsls	r0, r0, #8
 686              	.LVL25:
 692:Core/Src/lcd.c ****     id |= ILI9341_Read_Data();
 687              		.loc 1 692 8 view .LVU211
 688 003c 80B2     		uxth	r0, r0
 689              	.LVL26:
 693:Core/Src/lcd.c ****     if(id == LCDID_ILI9341)
 690              		.loc 1 693 5 is_stmt 1 view .LVU212
 691              	.LBB493:
 692              	.LBI493:
  83:Core/Src/lcd.c **** {
 693              		.loc 1 83 11 view .LVU213
 694              	.LBB494:
  85:Core/Src/lcd.c **** 	
 695              		.loc 1 85 2 view .LVU214
  85:Core/Src/lcd.c **** 	
 696              		.loc 1 85 11 is_stmt 0 view .LVU215
 697 003e 1B88     		ldrh	r3, [r3]
 698 0040 9BB2     		uxth	r3, r3
 699              	.LBE494:
 700              	.LBE493:
 693:Core/Src/lcd.c ****     if(id == LCDID_ILI9341)
 701              		.loc 1 693 8 view .LVU216
 702 0042 1843     		orrs	r0, r0, r3
 703              	.LVL27:
 694:Core/Src/lcd.c ****     {
 704              		.loc 1 694 5 is_stmt 1 view .LVU217
 694:Core/Src/lcd.c ****     {
 705              		.loc 1 694 7 is_stmt 0 view .LVU218
 706 0044 49F24133 		movw	r3, #37697
 707 0048 9842     		cmp	r0, r3
 708 004a 00D0     		beq	.L23
 700:Core/Src/lcd.c **** }
ARM GAS  C:\Users\84759\AppData\Local\Temp\cc1QWPm5.s 			page 33


 709              		.loc 1 700 9 view .LVU219
 710 004c 0020     		movs	r0, #0
 711              	.LVL28:
 712              	.L23:
 701:Core/Src/lcd.c **** 
 713              		.loc 1 701 1 view .LVU220
 714 004e 7047     		bx	lr
 715              		.cfi_endproc
 716              	.LFE74:
 718              		.section	.text.ILI9341_REG_Config,"ax",%progbits
 719              		.align	1
 720              		.syntax unified
 721              		.thumb
 722              		.thumb_func
 724              	ILI9341_REG_Config:
 725              	.LFB71:
 301:Core/Src/lcd.c ****   lcdid = ILI9341_ReadID();
 726              		.loc 1 301 1 is_stmt 1 view -0
 727              		.cfi_startproc
 728              		@ args = 0, pretend = 0, frame = 0
 729              		@ frame_needed = 0, uses_anonymous_args = 0
 730 0000 2DE9F84F 		push	{r3, r4, r5, r6, r7, r8, r9, r10, fp, lr}
 731              	.LCFI6:
 732              		.cfi_def_cfa_offset 40
 733              		.cfi_offset 3, -40
 734              		.cfi_offset 4, -36
 735              		.cfi_offset 5, -32
 736              		.cfi_offset 6, -28
 737              		.cfi_offset 7, -24
 738              		.cfi_offset 8, -20
 739              		.cfi_offset 9, -16
 740              		.cfi_offset 10, -12
 741              		.cfi_offset 11, -8
 742              		.cfi_offset 14, -4
 302:Core/Src/lcd.c ****   
 743              		.loc 1 302 3 view .LVU222
 302:Core/Src/lcd.c ****   
 744              		.loc 1 302 11 is_stmt 0 view .LVU223
 745 0004 FFF7FEFF 		bl	ILI9341_ReadID
 746              	.LVL29:
 302:Core/Src/lcd.c ****   
 747              		.loc 1 302 9 view .LVU224
 748 0008 664B     		ldr	r3, .L30
 749 000a 1880     		strh	r0, [r3]	@ movhi
 304:Core/Src/lcd.c ****   {
 750              		.loc 1 304 3 is_stmt 1 view .LVU225
 304:Core/Src/lcd.c ****   {
 751              		.loc 1 304 5 is_stmt 0 view .LVU226
 752 000c 49F24133 		movw	r3, #37697
 753 0010 9842     		cmp	r0, r3
 754 0012 06D0     		beq	.L28
 460:Core/Src/lcd.c ****   {
 755              		.loc 1 460 8 is_stmt 1 view .LVU227
 460:Core/Src/lcd.c ****   {
 756              		.loc 1 460 10 is_stmt 0 view .LVU228
 757 0014 48F25253 		movw	r3, #34130
 758 0018 9842     		cmp	r0, r3
ARM GAS  C:\Users\84759\AppData\Local\Temp\cc1QWPm5.s 			page 34


 759 001a 00F0C780 		beq	.L29
 760              	.L24:
 620:Core/Src/lcd.c **** 
 761              		.loc 1 620 1 view .LVU229
 762 001e BDE8F88F 		pop	{r3, r4, r5, r6, r7, r8, r9, r10, fp, pc}
 763              	.L28:
 307:Core/Src/lcd.c ****     ILI9341_Write_Cmd ( 0xCF  );
 764              		.loc 1 307 20 is_stmt 1 view .LVU230
 308:Core/Src/lcd.c ****     ILI9341_Write_Data ( 0x00  );
 765              		.loc 1 308 5 view .LVU231
 766              	.LVL30:
 767              	.LBB495:
 768              	.LBI495:
  59:Core/Src/lcd.c **** {
 769              		.loc 1 59 7 view .LVU232
 770              	.LBB496:
  61:Core/Src/lcd.c **** 	
 771              		.loc 1 61 2 view .LVU233
  61:Core/Src/lcd.c **** 	
 772              		.loc 1 61 50 is_stmt 0 view .LVU234
 773 0022 4FF0D844 		mov	r4, #1811939328
 774 0026 CF23     		movs	r3, #207
 775 0028 2380     		strh	r3, [r4]	@ movhi
 776              	.LVL31:
  61:Core/Src/lcd.c **** 	
 777              		.loc 1 61 50 view .LVU235
 778              	.LBE496:
 779              	.LBE495:
 309:Core/Src/lcd.c ****     ILI9341_Write_Data ( 0x81  );
 780              		.loc 1 309 5 is_stmt 1 view .LVU236
 781              	.LBB497:
 782              	.LBI497:
  71:Core/Src/lcd.c **** {
 783              		.loc 1 71 7 view .LVU237
 784              	.LBB498:
  73:Core/Src/lcd.c **** 	
 785              		.loc 1 73 2 view .LVU238
  73:Core/Src/lcd.c **** 	
 786              		.loc 1 73 51 is_stmt 0 view .LVU239
 787 002a 4FF0DA43 		mov	r3, #1828716544
 788 002e 0022     		movs	r2, #0
 789 0030 1A80     		strh	r2, [r3]	@ movhi
 790              	.LVL32:
  73:Core/Src/lcd.c **** 	
 791              		.loc 1 73 51 view .LVU240
 792              	.LBE498:
 793              	.LBE497:
 310:Core/Src/lcd.c ****     ILI9341_Write_Data ( 0x30  );
 794              		.loc 1 310 5 is_stmt 1 view .LVU241
 795              	.LBB499:
 796              	.LBI499:
  71:Core/Src/lcd.c **** {
 797              		.loc 1 71 7 view .LVU242
 798              	.LBB500:
  73:Core/Src/lcd.c **** 	
 799              		.loc 1 73 2 view .LVU243
  73:Core/Src/lcd.c **** 	
ARM GAS  C:\Users\84759\AppData\Local\Temp\cc1QWPm5.s 			page 35


 800              		.loc 1 73 51 is_stmt 0 view .LVU244
 801 0032 8121     		movs	r1, #129
 802 0034 1980     		strh	r1, [r3]	@ movhi
 803              	.LVL33:
  73:Core/Src/lcd.c **** 	
 804              		.loc 1 73 51 view .LVU245
 805              	.LBE500:
 806              	.LBE499:
 311:Core/Src/lcd.c ****     
 807              		.loc 1 311 5 is_stmt 1 view .LVU246
 808              	.LBB501:
 809              	.LBI501:
  71:Core/Src/lcd.c **** {
 810              		.loc 1 71 7 view .LVU247
 811              	.LBB502:
  73:Core/Src/lcd.c **** 	
 812              		.loc 1 73 2 view .LVU248
  73:Core/Src/lcd.c **** 	
 813              		.loc 1 73 51 is_stmt 0 view .LVU249
 814 0036 3026     		movs	r6, #48
 815 0038 1E80     		strh	r6, [r3]	@ movhi
 816              	.LVL34:
  73:Core/Src/lcd.c **** 	
 817              		.loc 1 73 51 view .LVU250
 818              	.LBE502:
 819              	.LBE501:
 314:Core/Src/lcd.c ****     ILI9341_Write_Cmd ( 0xED );
 820              		.loc 1 314 19 is_stmt 1 view .LVU251
 315:Core/Src/lcd.c ****     ILI9341_Write_Data ( 0x64 );
 821              		.loc 1 315 5 view .LVU252
 822              	.LBB503:
 823              	.LBI503:
  59:Core/Src/lcd.c **** {
 824              		.loc 1 59 7 view .LVU253
 825              	.LBB504:
  61:Core/Src/lcd.c **** 	
 826              		.loc 1 61 2 view .LVU254
  61:Core/Src/lcd.c **** 	
 827              		.loc 1 61 50 is_stmt 0 view .LVU255
 828 003a ED20     		movs	r0, #237
 829 003c 2080     		strh	r0, [r4]	@ movhi
 830              	.LVL35:
  61:Core/Src/lcd.c **** 	
 831              		.loc 1 61 50 view .LVU256
 832              	.LBE504:
 833              	.LBE503:
 316:Core/Src/lcd.c ****     ILI9341_Write_Data ( 0x03 );
 834              		.loc 1 316 5 is_stmt 1 view .LVU257
 835              	.LBB505:
 836              	.LBI505:
  71:Core/Src/lcd.c **** {
 837              		.loc 1 71 7 view .LVU258
 838              	.LBB506:
  73:Core/Src/lcd.c **** 	
 839              		.loc 1 73 2 view .LVU259
  73:Core/Src/lcd.c **** 	
 840              		.loc 1 73 51 is_stmt 0 view .LVU260
ARM GAS  C:\Users\84759\AppData\Local\Temp\cc1QWPm5.s 			page 36


 841 003e 6420     		movs	r0, #100
 842 0040 1880     		strh	r0, [r3]	@ movhi
 843              	.LVL36:
  73:Core/Src/lcd.c **** 	
 844              		.loc 1 73 51 view .LVU261
 845              	.LBE506:
 846              	.LBE505:
 317:Core/Src/lcd.c ****     ILI9341_Write_Data ( 0x12 );
 847              		.loc 1 317 5 is_stmt 1 view .LVU262
 848              	.LBB507:
 849              	.LBI507:
  71:Core/Src/lcd.c **** {
 850              		.loc 1 71 7 view .LVU263
 851              	.LBB508:
  73:Core/Src/lcd.c **** 	
 852              		.loc 1 73 2 view .LVU264
  73:Core/Src/lcd.c **** 	
 853              		.loc 1 73 51 is_stmt 0 view .LVU265
 854 0042 0327     		movs	r7, #3
 855 0044 1F80     		strh	r7, [r3]	@ movhi
 856              	.LVL37:
  73:Core/Src/lcd.c **** 	
 857              		.loc 1 73 51 view .LVU266
 858              	.LBE508:
 859              	.LBE507:
 318:Core/Src/lcd.c ****     ILI9341_Write_Data ( 0x81 );
 860              		.loc 1 318 5 is_stmt 1 view .LVU267
 861              	.LBB509:
 862              	.LBI509:
  71:Core/Src/lcd.c **** {
 863              		.loc 1 71 7 view .LVU268
 864              	.LBB510:
  73:Core/Src/lcd.c **** 	
 865              		.loc 1 73 2 view .LVU269
  73:Core/Src/lcd.c **** 	
 866              		.loc 1 73 51 is_stmt 0 view .LVU270
 867 0046 1220     		movs	r0, #18
 868 0048 1880     		strh	r0, [r3]	@ movhi
 869              	.LVL38:
  73:Core/Src/lcd.c **** 	
 870              		.loc 1 73 51 view .LVU271
 871              	.LBE510:
 872              	.LBE509:
 319:Core/Src/lcd.c ****     
 873              		.loc 1 319 5 is_stmt 1 view .LVU272
 874              	.LBB511:
 875              	.LBI511:
  71:Core/Src/lcd.c **** {
 876              		.loc 1 71 7 view .LVU273
 877              	.LBB512:
  73:Core/Src/lcd.c **** 	
 878              		.loc 1 73 2 view .LVU274
  73:Core/Src/lcd.c **** 	
 879              		.loc 1 73 51 is_stmt 0 view .LVU275
 880 004a 1980     		strh	r1, [r3]	@ movhi
 881              	.LVL39:
  73:Core/Src/lcd.c **** 	
ARM GAS  C:\Users\84759\AppData\Local\Temp\cc1QWPm5.s 			page 37


 882              		.loc 1 73 51 view .LVU276
 883              	.LBE512:
 884              	.LBE511:
 322:Core/Src/lcd.c ****     ILI9341_Write_Cmd ( 0xE8 );
 885              		.loc 1 322 19 is_stmt 1 view .LVU277
 323:Core/Src/lcd.c ****     ILI9341_Write_Data ( 0x85 );
 886              		.loc 1 323 5 view .LVU278
 887              	.LBB513:
 888              	.LBI513:
  59:Core/Src/lcd.c **** {
 889              		.loc 1 59 7 view .LVU279
 890              	.LBB514:
  61:Core/Src/lcd.c **** 	
 891              		.loc 1 61 2 view .LVU280
  61:Core/Src/lcd.c **** 	
 892              		.loc 1 61 50 is_stmt 0 view .LVU281
 893 004c E821     		movs	r1, #232
 894 004e 2180     		strh	r1, [r4]	@ movhi
 895              	.LVL40:
  61:Core/Src/lcd.c **** 	
 896              		.loc 1 61 50 view .LVU282
 897              	.LBE514:
 898              	.LBE513:
 324:Core/Src/lcd.c ****     ILI9341_Write_Data ( 0x10 );
 899              		.loc 1 324 5 is_stmt 1 view .LVU283
 900              	.LBB515:
 901              	.LBI515:
  71:Core/Src/lcd.c **** {
 902              		.loc 1 71 7 view .LVU284
 903              	.LBB516:
  73:Core/Src/lcd.c **** 	
 904              		.loc 1 73 2 view .LVU285
  73:Core/Src/lcd.c **** 	
 905              		.loc 1 73 51 is_stmt 0 view .LVU286
 906 0050 8521     		movs	r1, #133
 907 0052 1980     		strh	r1, [r3]	@ movhi
 908              	.LVL41:
  73:Core/Src/lcd.c **** 	
 909              		.loc 1 73 51 view .LVU287
 910              	.LBE516:
 911              	.LBE515:
 325:Core/Src/lcd.c ****     ILI9341_Write_Data ( 0x78 );
 912              		.loc 1 325 5 is_stmt 1 view .LVU288
 913              	.LBB517:
 914              	.LBI517:
  71:Core/Src/lcd.c **** {
 915              		.loc 1 71 7 view .LVU289
 916              	.LBB518:
  73:Core/Src/lcd.c **** 	
 917              		.loc 1 73 2 view .LVU290
  73:Core/Src/lcd.c **** 	
 918              		.loc 1 73 51 is_stmt 0 view .LVU291
 919 0054 4FF01009 		mov	r9, #16
 920 0058 A3F80090 		strh	r9, [r3]	@ movhi
 921              	.LVL42:
  73:Core/Src/lcd.c **** 	
 922              		.loc 1 73 51 view .LVU292
ARM GAS  C:\Users\84759\AppData\Local\Temp\cc1QWPm5.s 			page 38


 923              	.LBE518:
 924              	.LBE517:
 326:Core/Src/lcd.c ****     
 925              		.loc 1 326 5 is_stmt 1 view .LVU293
 926              	.LBB519:
 927              	.LBI519:
  71:Core/Src/lcd.c **** {
 928              		.loc 1 71 7 view .LVU294
 929              	.LBB520:
  73:Core/Src/lcd.c **** 	
 930              		.loc 1 73 2 view .LVU295
  73:Core/Src/lcd.c **** 	
 931              		.loc 1 73 51 is_stmt 0 view .LVU296
 932 005c 7821     		movs	r1, #120
 933 005e 1980     		strh	r1, [r3]	@ movhi
 934              	.LVL43:
  73:Core/Src/lcd.c **** 	
 935              		.loc 1 73 51 view .LVU297
 936              	.LBE520:
 937              	.LBE519:
 329:Core/Src/lcd.c ****     ILI9341_Write_Cmd ( 0xCB );
 938              		.loc 1 329 19 is_stmt 1 view .LVU298
 330:Core/Src/lcd.c ****     ILI9341_Write_Data ( 0x39 );
 939              		.loc 1 330 5 view .LVU299
 940              	.LBB521:
 941              	.LBI521:
  59:Core/Src/lcd.c **** {
 942              		.loc 1 59 7 view .LVU300
 943              	.LBB522:
  61:Core/Src/lcd.c **** 	
 944              		.loc 1 61 2 view .LVU301
  61:Core/Src/lcd.c **** 	
 945              		.loc 1 61 50 is_stmt 0 view .LVU302
 946 0060 CB21     		movs	r1, #203
 947 0062 2180     		strh	r1, [r4]	@ movhi
 948              	.LVL44:
  61:Core/Src/lcd.c **** 	
 949              		.loc 1 61 50 view .LVU303
 950              	.LBE522:
 951              	.LBE521:
 331:Core/Src/lcd.c ****     ILI9341_Write_Data ( 0x2C );
 952              		.loc 1 331 5 is_stmt 1 view .LVU304
 953              	.LBB523:
 954              	.LBI523:
  71:Core/Src/lcd.c **** {
 955              		.loc 1 71 7 view .LVU305
 956              	.LBB524:
  73:Core/Src/lcd.c **** 	
 957              		.loc 1 73 2 view .LVU306
  73:Core/Src/lcd.c **** 	
 958              		.loc 1 73 51 is_stmt 0 view .LVU307
 959 0064 4FF03908 		mov	r8, #57
 960 0068 A3F80080 		strh	r8, [r3]	@ movhi
 961              	.LVL45:
  73:Core/Src/lcd.c **** 	
 962              		.loc 1 73 51 view .LVU308
 963              	.LBE524:
ARM GAS  C:\Users\84759\AppData\Local\Temp\cc1QWPm5.s 			page 39


 964              	.LBE523:
 332:Core/Src/lcd.c ****     ILI9341_Write_Data ( 0x00 );
 965              		.loc 1 332 5 is_stmt 1 view .LVU309
 966              	.LBB525:
 967              	.LBI525:
  71:Core/Src/lcd.c **** {
 968              		.loc 1 71 7 view .LVU310
 969              	.LBB526:
  73:Core/Src/lcd.c **** 	
 970              		.loc 1 73 2 view .LVU311
  73:Core/Src/lcd.c **** 	
 971              		.loc 1 73 51 is_stmt 0 view .LVU312
 972 006c 2C21     		movs	r1, #44
 973 006e 1980     		strh	r1, [r3]	@ movhi
 974              	.LVL46:
  73:Core/Src/lcd.c **** 	
 975              		.loc 1 73 51 view .LVU313
 976              	.LBE526:
 977              	.LBE525:
 333:Core/Src/lcd.c ****     ILI9341_Write_Data ( 0x34 );
 978              		.loc 1 333 5 is_stmt 1 view .LVU314
 979              	.LBB527:
 980              	.LBI527:
  71:Core/Src/lcd.c **** {
 981              		.loc 1 71 7 view .LVU315
 982              	.LBB528:
  73:Core/Src/lcd.c **** 	
 983              		.loc 1 73 2 view .LVU316
  73:Core/Src/lcd.c **** 	
 984              		.loc 1 73 51 is_stmt 0 view .LVU317
 985 0070 1A80     		strh	r2, [r3]	@ movhi
 986              	.LVL47:
  73:Core/Src/lcd.c **** 	
 987              		.loc 1 73 51 view .LVU318
 988              	.LBE528:
 989              	.LBE527:
 334:Core/Src/lcd.c ****     //ILI9341_Write_Data ( 0x02 );
 990              		.loc 1 334 5 is_stmt 1 view .LVU319
 991              	.LBB529:
 992              	.LBI529:
  71:Core/Src/lcd.c **** {
 993              		.loc 1 71 7 view .LVU320
 994              	.LBB530:
  73:Core/Src/lcd.c **** 	
 995              		.loc 1 73 2 view .LVU321
  73:Core/Src/lcd.c **** 	
 996              		.loc 1 73 51 is_stmt 0 view .LVU322
 997 0072 3421     		movs	r1, #52
 998 0074 1980     		strh	r1, [r3]	@ movhi
 999              	.LVL48:
  73:Core/Src/lcd.c **** 	
 1000              		.loc 1 73 51 view .LVU323
 1001              	.LBE530:
 1002              	.LBE529:
 336:Core/Src/lcd.c ****     
 1003              		.loc 1 336 5 is_stmt 1 view .LVU324
 1004              	.LBB531:
ARM GAS  C:\Users\84759\AppData\Local\Temp\cc1QWPm5.s 			page 40


 1005              	.LBI531:
  71:Core/Src/lcd.c **** {
 1006              		.loc 1 71 7 view .LVU325
 1007              	.LBB532:
  73:Core/Src/lcd.c **** 	
 1008              		.loc 1 73 2 view .LVU326
  73:Core/Src/lcd.c **** 	
 1009              		.loc 1 73 51 is_stmt 0 view .LVU327
 1010 0076 0620     		movs	r0, #6
 1011 0078 1880     		strh	r0, [r3]	@ movhi
 1012              	.LVL49:
  73:Core/Src/lcd.c **** 	
 1013              		.loc 1 73 51 view .LVU328
 1014              	.LBE532:
 1015              	.LBE531:
 339:Core/Src/lcd.c ****     ILI9341_Write_Cmd ( 0xF7 );
 1016              		.loc 1 339 19 is_stmt 1 view .LVU329
 340:Core/Src/lcd.c ****     ILI9341_Write_Data ( 0x20 );
 1017              		.loc 1 340 5 view .LVU330
 1018              	.LBB533:
 1019              	.LBI533:
  59:Core/Src/lcd.c **** {
 1020              		.loc 1 59 7 view .LVU331
 1021              	.LBB534:
  61:Core/Src/lcd.c **** 	
 1022              		.loc 1 61 2 view .LVU332
  61:Core/Src/lcd.c **** 	
 1023              		.loc 1 61 50 is_stmt 0 view .LVU333
 1024 007a F721     		movs	r1, #247
 1025 007c 2180     		strh	r1, [r4]	@ movhi
 1026              	.LVL50:
  61:Core/Src/lcd.c **** 	
 1027              		.loc 1 61 50 view .LVU334
 1028              	.LBE534:
 1029              	.LBE533:
 341:Core/Src/lcd.c ****     
 1030              		.loc 1 341 5 is_stmt 1 view .LVU335
 1031              	.LBB535:
 1032              	.LBI535:
  71:Core/Src/lcd.c **** {
 1033              		.loc 1 71 7 view .LVU336
 1034              	.LBB536:
  73:Core/Src/lcd.c **** 	
 1035              		.loc 1 73 2 view .LVU337
  73:Core/Src/lcd.c **** 	
 1036              		.loc 1 73 51 is_stmt 0 view .LVU338
 1037 007e 2021     		movs	r1, #32
 1038 0080 1980     		strh	r1, [r3]	@ movhi
 1039              	.LVL51:
  73:Core/Src/lcd.c **** 	
 1040              		.loc 1 73 51 view .LVU339
 1041              	.LBE536:
 1042              	.LBE535:
 344:Core/Src/lcd.c ****     ILI9341_Write_Cmd ( 0xEA );
 1043              		.loc 1 344 19 is_stmt 1 view .LVU340
 345:Core/Src/lcd.c ****     ILI9341_Write_Data ( 0x00 );
 1044              		.loc 1 345 5 view .LVU341
ARM GAS  C:\Users\84759\AppData\Local\Temp\cc1QWPm5.s 			page 41


 1045              	.LBB537:
 1046              	.LBI537:
  59:Core/Src/lcd.c **** {
 1047              		.loc 1 59 7 view .LVU342
 1048              	.LBB538:
  61:Core/Src/lcd.c **** 	
 1049              		.loc 1 61 2 view .LVU343
  61:Core/Src/lcd.c **** 	
 1050              		.loc 1 61 50 is_stmt 0 view .LVU344
 1051 0082 EA21     		movs	r1, #234
 1052 0084 2180     		strh	r1, [r4]	@ movhi
 1053              	.LVL52:
  61:Core/Src/lcd.c **** 	
 1054              		.loc 1 61 50 view .LVU345
 1055              	.LBE538:
 1056              	.LBE537:
 346:Core/Src/lcd.c ****     ILI9341_Write_Data ( 0x00 );
 1057              		.loc 1 346 5 is_stmt 1 view .LVU346
 1058              	.LBB539:
 1059              	.LBI539:
  71:Core/Src/lcd.c **** {
 1060              		.loc 1 71 7 view .LVU347
 1061              	.LBB540:
  73:Core/Src/lcd.c **** 	
 1062              		.loc 1 73 2 view .LVU348
  73:Core/Src/lcd.c **** 	
 1063              		.loc 1 73 51 is_stmt 0 view .LVU349
 1064 0086 1A80     		strh	r2, [r3]	@ movhi
 1065              	.LVL53:
  73:Core/Src/lcd.c **** 	
 1066              		.loc 1 73 51 view .LVU350
 1067              	.LBE540:
 1068              	.LBE539:
 347:Core/Src/lcd.c ****     
 1069              		.loc 1 347 5 is_stmt 1 view .LVU351
 1070              	.LBB541:
 1071              	.LBI541:
  71:Core/Src/lcd.c **** {
 1072              		.loc 1 71 7 view .LVU352
 1073              	.LBB542:
  73:Core/Src/lcd.c **** 	
 1074              		.loc 1 73 2 view .LVU353
  73:Core/Src/lcd.c **** 	
 1075              		.loc 1 73 51 is_stmt 0 view .LVU354
 1076 0088 1A80     		strh	r2, [r3]	@ movhi
 1077              	.LVL54:
  73:Core/Src/lcd.c **** 	
 1078              		.loc 1 73 51 view .LVU355
 1079              	.LBE542:
 1080              	.LBE541:
 350:Core/Src/lcd.c ****     ILI9341_Write_Cmd ( 0xB1 );
 1081              		.loc 1 350 19 is_stmt 1 view .LVU356
 351:Core/Src/lcd.c ****     ILI9341_Write_Data ( 0x00 );
 1082              		.loc 1 351 5 view .LVU357
 1083              	.LBB543:
 1084              	.LBI543:
  59:Core/Src/lcd.c **** {
ARM GAS  C:\Users\84759\AppData\Local\Temp\cc1QWPm5.s 			page 42


 1085              		.loc 1 59 7 view .LVU358
 1086              	.LBB544:
  61:Core/Src/lcd.c **** 	
 1087              		.loc 1 61 2 view .LVU359
  61:Core/Src/lcd.c **** 	
 1088              		.loc 1 61 50 is_stmt 0 view .LVU360
 1089 008a B121     		movs	r1, #177
 1090 008c 2180     		strh	r1, [r4]	@ movhi
 1091              	.LVL55:
  61:Core/Src/lcd.c **** 	
 1092              		.loc 1 61 50 view .LVU361
 1093              	.LBE544:
 1094              	.LBE543:
 352:Core/Src/lcd.c ****     ILI9341_Write_Data ( 0x1B );
 1095              		.loc 1 352 5 is_stmt 1 view .LVU362
 1096              	.LBB545:
 1097              	.LBI545:
  71:Core/Src/lcd.c **** {
 1098              		.loc 1 71 7 view .LVU363
 1099              	.LBB546:
  73:Core/Src/lcd.c **** 	
 1100              		.loc 1 73 2 view .LVU364
  73:Core/Src/lcd.c **** 	
 1101              		.loc 1 73 51 is_stmt 0 view .LVU365
 1102 008e 1A80     		strh	r2, [r3]	@ movhi
 1103              	.LVL56:
  73:Core/Src/lcd.c **** 	
 1104              		.loc 1 73 51 view .LVU366
 1105              	.LBE546:
 1106              	.LBE545:
 353:Core/Src/lcd.c ****     
 1107              		.loc 1 353 5 is_stmt 1 view .LVU367
 1108              	.LBB547:
 1109              	.LBI547:
  71:Core/Src/lcd.c **** {
 1110              		.loc 1 71 7 view .LVU368
 1111              	.LBB548:
  73:Core/Src/lcd.c **** 	
 1112              		.loc 1 73 2 view .LVU369
  73:Core/Src/lcd.c **** 	
 1113              		.loc 1 73 51 is_stmt 0 view .LVU370
 1114 0090 4FF01B0A 		mov	r10, #27
 1115 0094 A3F800A0 		strh	r10, [r3]	@ movhi
 1116              	.LVL57:
  73:Core/Src/lcd.c **** 	
 1117              		.loc 1 73 51 view .LVU371
 1118              	.LBE548:
 1119              	.LBE547:
 356:Core/Src/lcd.c ****     ILI9341_Write_Cmd ( 0xB6 );
 1120              		.loc 1 356 19 is_stmt 1 view .LVU372
 357:Core/Src/lcd.c ****     ILI9341_Write_Data ( 0x0A );
 1121              		.loc 1 357 5 view .LVU373
 1122              	.LBB549:
 1123              	.LBI549:
  59:Core/Src/lcd.c **** {
 1124              		.loc 1 59 7 view .LVU374
 1125              	.LBB550:
ARM GAS  C:\Users\84759\AppData\Local\Temp\cc1QWPm5.s 			page 43


  61:Core/Src/lcd.c **** 	
 1126              		.loc 1 61 2 view .LVU375
  61:Core/Src/lcd.c **** 	
 1127              		.loc 1 61 50 is_stmt 0 view .LVU376
 1128 0098 B621     		movs	r1, #182
 1129 009a 2180     		strh	r1, [r4]	@ movhi
 1130              	.LVL58:
  61:Core/Src/lcd.c **** 	
 1131              		.loc 1 61 50 view .LVU377
 1132              	.LBE550:
 1133              	.LBE549:
 358:Core/Src/lcd.c ****     ILI9341_Write_Data ( 0xA2 );
 1134              		.loc 1 358 5 is_stmt 1 view .LVU378
 1135              	.LBB551:
 1136              	.LBI551:
  71:Core/Src/lcd.c **** {
 1137              		.loc 1 71 7 view .LVU379
 1138              	.LBB552:
  73:Core/Src/lcd.c **** 	
 1139              		.loc 1 73 2 view .LVU380
  73:Core/Src/lcd.c **** 	
 1140              		.loc 1 73 51 is_stmt 0 view .LVU381
 1141 009c 0A21     		movs	r1, #10
 1142 009e 1980     		strh	r1, [r3]	@ movhi
 1143              	.LVL59:
  73:Core/Src/lcd.c **** 	
 1144              		.loc 1 73 51 view .LVU382
 1145              	.LBE552:
 1146              	.LBE551:
 359:Core/Src/lcd.c ****     
 1147              		.loc 1 359 5 is_stmt 1 view .LVU383
 1148              	.LBB553:
 1149              	.LBI553:
  71:Core/Src/lcd.c **** {
 1150              		.loc 1 71 7 view .LVU384
 1151              	.LBB554:
  73:Core/Src/lcd.c **** 	
 1152              		.loc 1 73 2 view .LVU385
  73:Core/Src/lcd.c **** 	
 1153              		.loc 1 73 51 is_stmt 0 view .LVU386
 1154 00a0 A221     		movs	r1, #162
 1155 00a2 1980     		strh	r1, [r3]	@ movhi
 1156              	.LVL60:
  73:Core/Src/lcd.c **** 	
 1157              		.loc 1 73 51 view .LVU387
 1158              	.LBE554:
 1159              	.LBE553:
 362:Core/Src/lcd.c ****     ILI9341_Write_Cmd ( 0xC0 );
 1160              		.loc 1 362 19 is_stmt 1 view .LVU388
 363:Core/Src/lcd.c ****     ILI9341_Write_Data ( 0x35 );
 1161              		.loc 1 363 5 view .LVU389
 1162              	.LBB555:
 1163              	.LBI555:
  59:Core/Src/lcd.c **** {
 1164              		.loc 1 59 7 view .LVU390
 1165              	.LBB556:
  61:Core/Src/lcd.c **** 	
ARM GAS  C:\Users\84759\AppData\Local\Temp\cc1QWPm5.s 			page 44


 1166              		.loc 1 61 2 view .LVU391
  61:Core/Src/lcd.c **** 	
 1167              		.loc 1 61 50 is_stmt 0 view .LVU392
 1168 00a4 C025     		movs	r5, #192
 1169 00a6 2580     		strh	r5, [r4]	@ movhi
 1170              	.LVL61:
  61:Core/Src/lcd.c **** 	
 1171              		.loc 1 61 50 view .LVU393
 1172              	.LBE556:
 1173              	.LBE555:
 364:Core/Src/lcd.c ****     
 1174              		.loc 1 364 5 is_stmt 1 view .LVU394
 1175              	.LBB557:
 1176              	.LBI557:
  71:Core/Src/lcd.c **** {
 1177              		.loc 1 71 7 view .LVU395
 1178              	.LBB558:
  73:Core/Src/lcd.c **** 	
 1179              		.loc 1 73 2 view .LVU396
  73:Core/Src/lcd.c **** 	
 1180              		.loc 1 73 51 is_stmt 0 view .LVU397
 1181 00a8 3525     		movs	r5, #53
 1182 00aa 1D80     		strh	r5, [r3]	@ movhi
 1183              	.LVL62:
  73:Core/Src/lcd.c **** 	
 1184              		.loc 1 73 51 view .LVU398
 1185              	.LBE558:
 1186              	.LBE557:
 367:Core/Src/lcd.c ****     ILI9341_Write_Cmd ( 0xC1 );
 1187              		.loc 1 367 19 is_stmt 1 view .LVU399
 368:Core/Src/lcd.c ****     ILI9341_Write_Data ( 0x11 );
 1188              		.loc 1 368 5 view .LVU400
 1189              	.LBB559:
 1190              	.LBI559:
  59:Core/Src/lcd.c **** {
 1191              		.loc 1 59 7 view .LVU401
 1192              	.LBB560:
  61:Core/Src/lcd.c **** 	
 1193              		.loc 1 61 2 view .LVU402
  61:Core/Src/lcd.c **** 	
 1194              		.loc 1 61 50 is_stmt 0 view .LVU403
 1195 00ac C125     		movs	r5, #193
 1196 00ae 2580     		strh	r5, [r4]	@ movhi
 1197              	.LVL63:
  61:Core/Src/lcd.c **** 	
 1198              		.loc 1 61 50 view .LVU404
 1199              	.LBE560:
 1200              	.LBE559:
 369:Core/Src/lcd.c ****     
 1201              		.loc 1 369 5 is_stmt 1 view .LVU405
 1202              	.LBB561:
 1203              	.LBI561:
  71:Core/Src/lcd.c **** {
 1204              		.loc 1 71 7 view .LVU406
 1205              	.LBB562:
  73:Core/Src/lcd.c **** 	
 1206              		.loc 1 73 2 view .LVU407
ARM GAS  C:\Users\84759\AppData\Local\Temp\cc1QWPm5.s 			page 45


  73:Core/Src/lcd.c **** 	
 1207              		.loc 1 73 51 is_stmt 0 view .LVU408
 1208 00b0 4FF0110C 		mov	ip, #17
 1209 00b4 A3F800C0 		strh	ip, [r3]	@ movhi
 1210              	.LVL64:
  73:Core/Src/lcd.c **** 	
 1211              		.loc 1 73 51 view .LVU409
 1212              	.LBE562:
 1213              	.LBE561:
 372:Core/Src/lcd.c ****     ILI9341_Write_Data ( 0x45 );
 1214              		.loc 1 372 5 is_stmt 1 view .LVU410
 1215              	.LBB563:
 1216              	.LBI563:
  59:Core/Src/lcd.c **** {
 1217              		.loc 1 59 7 view .LVU411
 1218              	.LBB564:
  61:Core/Src/lcd.c **** 	
 1219              		.loc 1 61 2 view .LVU412
  61:Core/Src/lcd.c **** 	
 1220              		.loc 1 61 50 is_stmt 0 view .LVU413
 1221 00b8 C525     		movs	r5, #197
 1222 00ba 2580     		strh	r5, [r4]	@ movhi
 1223              	.LVL65:
  61:Core/Src/lcd.c **** 	
 1224              		.loc 1 61 50 view .LVU414
 1225              	.LBE564:
 1226              	.LBE563:
 373:Core/Src/lcd.c ****     ILI9341_Write_Data ( 0x45 );
 1227              		.loc 1 373 5 is_stmt 1 view .LVU415
 1228              	.LBB565:
 1229              	.LBI565:
  71:Core/Src/lcd.c **** {
 1230              		.loc 1 71 7 view .LVU416
 1231              	.LBB566:
  73:Core/Src/lcd.c **** 	
 1232              		.loc 1 73 2 view .LVU417
  73:Core/Src/lcd.c **** 	
 1233              		.loc 1 73 51 is_stmt 0 view .LVU418
 1234 00bc 4525     		movs	r5, #69
 1235 00be 1D80     		strh	r5, [r3]	@ movhi
 1236              	.LVL66:
  73:Core/Src/lcd.c **** 	
 1237              		.loc 1 73 51 view .LVU419
 1238              	.LBE566:
 1239              	.LBE565:
 374:Core/Src/lcd.c ****     
 1240              		.loc 1 374 5 is_stmt 1 view .LVU420
 1241              	.LBB567:
 1242              	.LBI567:
  71:Core/Src/lcd.c **** {
 1243              		.loc 1 71 7 view .LVU421
 1244              	.LBB568:
  73:Core/Src/lcd.c **** 	
 1245              		.loc 1 73 2 view .LVU422
  73:Core/Src/lcd.c **** 	
 1246              		.loc 1 73 51 is_stmt 0 view .LVU423
 1247 00c0 1D80     		strh	r5, [r3]	@ movhi
ARM GAS  C:\Users\84759\AppData\Local\Temp\cc1QWPm5.s 			page 46


 1248              	.LVL67:
  73:Core/Src/lcd.c **** 	
 1249              		.loc 1 73 51 view .LVU424
 1250              	.LBE568:
 1251              	.LBE567:
 377:Core/Src/lcd.c ****     ILI9341_Write_Data ( 0xA2 );
 1252              		.loc 1 377 5 is_stmt 1 view .LVU425
 1253              	.LBB569:
 1254              	.LBI569:
  59:Core/Src/lcd.c **** {
 1255              		.loc 1 59 7 view .LVU426
 1256              	.LBB570:
  61:Core/Src/lcd.c **** 	
 1257              		.loc 1 61 2 view .LVU427
  61:Core/Src/lcd.c **** 	
 1258              		.loc 1 61 50 is_stmt 0 view .LVU428
 1259 00c2 C725     		movs	r5, #199
 1260 00c4 2580     		strh	r5, [r4]	@ movhi
 1261              	.LVL68:
  61:Core/Src/lcd.c **** 	
 1262              		.loc 1 61 50 view .LVU429
 1263              	.LBE570:
 1264              	.LBE569:
 378:Core/Src/lcd.c ****     
 1265              		.loc 1 378 5 is_stmt 1 view .LVU430
 1266              	.LBB571:
 1267              	.LBI571:
  71:Core/Src/lcd.c **** {
 1268              		.loc 1 71 7 view .LVU431
 1269              	.LBB572:
  73:Core/Src/lcd.c **** 	
 1270              		.loc 1 73 2 view .LVU432
  73:Core/Src/lcd.c **** 	
 1271              		.loc 1 73 51 is_stmt 0 view .LVU433
 1272 00c6 1980     		strh	r1, [r3]	@ movhi
 1273              	.LVL69:
  73:Core/Src/lcd.c **** 	
 1274              		.loc 1 73 51 view .LVU434
 1275              	.LBE572:
 1276              	.LBE571:
 381:Core/Src/lcd.c ****     ILI9341_Write_Data ( 0x00 );
 1277              		.loc 1 381 5 is_stmt 1 view .LVU435
 1278              	.LBB573:
 1279              	.LBI573:
  59:Core/Src/lcd.c **** {
 1280              		.loc 1 59 7 view .LVU436
 1281              	.LBB574:
  61:Core/Src/lcd.c **** 	
 1282              		.loc 1 61 2 view .LVU437
  61:Core/Src/lcd.c **** 	
 1283              		.loc 1 61 50 is_stmt 0 view .LVU438
 1284 00c8 F221     		movs	r1, #242
 1285 00ca 2180     		strh	r1, [r4]	@ movhi
 1286              	.LVL70:
  61:Core/Src/lcd.c **** 	
 1287              		.loc 1 61 50 view .LVU439
 1288              	.LBE574:
ARM GAS  C:\Users\84759\AppData\Local\Temp\cc1QWPm5.s 			page 47


 1289              	.LBE573:
 382:Core/Src/lcd.c ****     
 1290              		.loc 1 382 5 is_stmt 1 view .LVU440
 1291              	.LBB575:
 1292              	.LBI575:
  71:Core/Src/lcd.c **** {
 1293              		.loc 1 71 7 view .LVU441
 1294              	.LBB576:
  73:Core/Src/lcd.c **** 	
 1295              		.loc 1 73 2 view .LVU442
  73:Core/Src/lcd.c **** 	
 1296              		.loc 1 73 51 is_stmt 0 view .LVU443
 1297 00cc 1A80     		strh	r2, [r3]	@ movhi
 1298              	.LVL71:
  73:Core/Src/lcd.c **** 	
 1299              		.loc 1 73 51 view .LVU444
 1300              	.LBE576:
 1301              	.LBE575:
 385:Core/Src/lcd.c ****     ILI9341_Write_Data ( 0x01 );
 1302              		.loc 1 385 5 is_stmt 1 view .LVU445
 1303              	.LBB577:
 1304              	.LBI577:
  59:Core/Src/lcd.c **** {
 1305              		.loc 1 59 7 view .LVU446
 1306              	.LBB578:
  61:Core/Src/lcd.c **** 	
 1307              		.loc 1 61 2 view .LVU447
  61:Core/Src/lcd.c **** 	
 1308              		.loc 1 61 50 is_stmt 0 view .LVU448
 1309 00ce 2625     		movs	r5, #38
 1310 00d0 2580     		strh	r5, [r4]	@ movhi
 1311              	.LVL72:
  61:Core/Src/lcd.c **** 	
 1312              		.loc 1 61 50 view .LVU449
 1313              	.LBE578:
 1314              	.LBE577:
 386:Core/Src/lcd.c ****     DEBUG_DELAY ();
 1315              		.loc 1 386 5 is_stmt 1 view .LVU450
 1316              	.LBB579:
 1317              	.LBI579:
  71:Core/Src/lcd.c **** {
 1318              		.loc 1 71 7 view .LVU451
 1319              	.LBB580:
  73:Core/Src/lcd.c **** 	
 1320              		.loc 1 73 2 view .LVU452
  73:Core/Src/lcd.c **** 	
 1321              		.loc 1 73 51 is_stmt 0 view .LVU453
 1322 00d2 4FF0010E 		mov	lr, #1
 1323 00d6 A3F800E0 		strh	lr, [r3]	@ movhi
 1324              	.LVL73:
  73:Core/Src/lcd.c **** 	
 1325              		.loc 1 73 51 view .LVU454
 1326              	.LBE580:
 1327              	.LBE579:
 387:Core/Src/lcd.c ****     
 1328              		.loc 1 387 19 is_stmt 1 view .LVU455
 390:Core/Src/lcd.c ****     ILI9341_Write_Data ( 0x0F );
ARM GAS  C:\Users\84759\AppData\Local\Temp\cc1QWPm5.s 			page 48


 1329              		.loc 1 390 5 view .LVU456
 1330              	.LBB581:
 1331              	.LBI581:
  59:Core/Src/lcd.c **** {
 1332              		.loc 1 59 7 view .LVU457
 1333              	.LBB582:
  61:Core/Src/lcd.c **** 	
 1334              		.loc 1 61 2 view .LVU458
  61:Core/Src/lcd.c **** 	
 1335              		.loc 1 61 50 is_stmt 0 view .LVU459
 1336 00da E021     		movs	r1, #224
 1337 00dc 2180     		strh	r1, [r4]	@ movhi
 1338              	.LVL74:
  61:Core/Src/lcd.c **** 	
 1339              		.loc 1 61 50 view .LVU460
 1340              	.LBE582:
 1341              	.LBE581:
 391:Core/Src/lcd.c ****     ILI9341_Write_Data ( 0x26 );
 1342              		.loc 1 391 5 is_stmt 1 view .LVU461
 1343              	.LBB583:
 1344              	.LBI583:
  71:Core/Src/lcd.c **** {
 1345              		.loc 1 71 7 view .LVU462
 1346              	.LBB584:
  73:Core/Src/lcd.c **** 	
 1347              		.loc 1 73 2 view .LVU463
  73:Core/Src/lcd.c **** 	
 1348              		.loc 1 73 51 is_stmt 0 view .LVU464
 1349 00de 0F21     		movs	r1, #15
 1350 00e0 1980     		strh	r1, [r3]	@ movhi
 1351              	.LVL75:
  73:Core/Src/lcd.c **** 	
 1352              		.loc 1 73 51 view .LVU465
 1353              	.LBE584:
 1354              	.LBE583:
 392:Core/Src/lcd.c ****     ILI9341_Write_Data ( 0x24 );
 1355              		.loc 1 392 5 is_stmt 1 view .LVU466
 1356              	.LBB585:
 1357              	.LBI585:
  71:Core/Src/lcd.c **** {
 1358              		.loc 1 71 7 view .LVU467
 1359              	.LBB586:
  73:Core/Src/lcd.c **** 	
 1360              		.loc 1 73 2 view .LVU468
  73:Core/Src/lcd.c **** 	
 1361              		.loc 1 73 51 is_stmt 0 view .LVU469
 1362 00e2 1D80     		strh	r5, [r3]	@ movhi
 1363              	.LVL76:
  73:Core/Src/lcd.c **** 	
 1364              		.loc 1 73 51 view .LVU470
 1365              	.LBE586:
 1366              	.LBE585:
 393:Core/Src/lcd.c ****     ILI9341_Write_Data ( 0x0B );
 1367              		.loc 1 393 5 is_stmt 1 view .LVU471
 1368              	.LBB587:
 1369              	.LBI587:
  71:Core/Src/lcd.c **** {
ARM GAS  C:\Users\84759\AppData\Local\Temp\cc1QWPm5.s 			page 49


 1370              		.loc 1 71 7 view .LVU472
 1371              	.LBB588:
  73:Core/Src/lcd.c **** 	
 1372              		.loc 1 73 2 view .LVU473
  73:Core/Src/lcd.c **** 	
 1373              		.loc 1 73 51 is_stmt 0 view .LVU474
 1374 00e4 2425     		movs	r5, #36
 1375 00e6 1D80     		strh	r5, [r3]	@ movhi
 1376              	.LVL77:
  73:Core/Src/lcd.c **** 	
 1377              		.loc 1 73 51 view .LVU475
 1378              	.LBE588:
 1379              	.LBE587:
 394:Core/Src/lcd.c ****     ILI9341_Write_Data ( 0x0E );
 1380              		.loc 1 394 5 is_stmt 1 view .LVU476
 1381              	.LBB589:
 1382              	.LBI589:
  71:Core/Src/lcd.c **** {
 1383              		.loc 1 71 7 view .LVU477
 1384              	.LBB590:
  73:Core/Src/lcd.c **** 	
 1385              		.loc 1 73 2 view .LVU478
  73:Core/Src/lcd.c **** 	
 1386              		.loc 1 73 51 is_stmt 0 view .LVU479
 1387 00e8 0B25     		movs	r5, #11
 1388 00ea 1D80     		strh	r5, [r3]	@ movhi
 1389              	.LVL78:
  73:Core/Src/lcd.c **** 	
 1390              		.loc 1 73 51 view .LVU480
 1391              	.LBE590:
 1392              	.LBE589:
 395:Core/Src/lcd.c ****     ILI9341_Write_Data ( 0x09 );
 1393              		.loc 1 395 5 is_stmt 1 view .LVU481
 1394              	.LBB591:
 1395              	.LBI591:
  71:Core/Src/lcd.c **** {
 1396              		.loc 1 71 7 view .LVU482
 1397              	.LBB592:
  73:Core/Src/lcd.c **** 	
 1398              		.loc 1 73 2 view .LVU483
  73:Core/Src/lcd.c **** 	
 1399              		.loc 1 73 51 is_stmt 0 view .LVU484
 1400 00ec 0E25     		movs	r5, #14
 1401 00ee 1D80     		strh	r5, [r3]	@ movhi
 1402              	.LVL79:
  73:Core/Src/lcd.c **** 	
 1403              		.loc 1 73 51 view .LVU485
 1404              	.LBE592:
 1405              	.LBE591:
 396:Core/Src/lcd.c ****     ILI9341_Write_Data ( 0x54 );
 1406              		.loc 1 396 5 is_stmt 1 view .LVU486
 1407              	.LBB593:
 1408              	.LBI593:
  71:Core/Src/lcd.c **** {
 1409              		.loc 1 71 7 view .LVU487
 1410              	.LBB594:
  73:Core/Src/lcd.c **** 	
ARM GAS  C:\Users\84759\AppData\Local\Temp\cc1QWPm5.s 			page 50


 1411              		.loc 1 73 2 view .LVU488
  73:Core/Src/lcd.c **** 	
 1412              		.loc 1 73 51 is_stmt 0 view .LVU489
 1413 00f0 0925     		movs	r5, #9
 1414 00f2 1D80     		strh	r5, [r3]	@ movhi
 1415              	.LVL80:
  73:Core/Src/lcd.c **** 	
 1416              		.loc 1 73 51 view .LVU490
 1417              	.LBE594:
 1418              	.LBE593:
 397:Core/Src/lcd.c ****     ILI9341_Write_Data ( 0xA8 );
 1419              		.loc 1 397 5 is_stmt 1 view .LVU491
 1420              	.LBB595:
 1421              	.LBI595:
  71:Core/Src/lcd.c **** {
 1422              		.loc 1 71 7 view .LVU492
 1423              	.LBB596:
  73:Core/Src/lcd.c **** 	
 1424              		.loc 1 73 2 view .LVU493
  73:Core/Src/lcd.c **** 	
 1425              		.loc 1 73 51 is_stmt 0 view .LVU494
 1426 00f4 4FF0540B 		mov	fp, #84
 1427 00f8 A3F800B0 		strh	fp, [r3]	@ movhi
 1428              	.LVL81:
  73:Core/Src/lcd.c **** 	
 1429              		.loc 1 73 51 view .LVU495
 1430              	.LBE596:
 1431              	.LBE595:
 398:Core/Src/lcd.c ****     ILI9341_Write_Data ( 0x46 );
 1432              		.loc 1 398 5 is_stmt 1 view .LVU496
 1433              	.LBB597:
 1434              	.LBI597:
  71:Core/Src/lcd.c **** {
 1435              		.loc 1 71 7 view .LVU497
 1436              	.LBB598:
  73:Core/Src/lcd.c **** 	
 1437              		.loc 1 73 2 view .LVU498
  73:Core/Src/lcd.c **** 	
 1438              		.loc 1 73 51 is_stmt 0 view .LVU499
 1439 00fc 4FF0A80B 		mov	fp, #168
 1440 0100 A3F800B0 		strh	fp, [r3]	@ movhi
 1441              	.LVL82:
  73:Core/Src/lcd.c **** 	
 1442              		.loc 1 73 51 view .LVU500
 1443              	.LBE598:
 1444              	.LBE597:
 399:Core/Src/lcd.c ****     ILI9341_Write_Data ( 0x0C );
 1445              		.loc 1 399 5 is_stmt 1 view .LVU501
 1446              	.LBB599:
 1447              	.LBI599:
  71:Core/Src/lcd.c **** {
 1448              		.loc 1 71 7 view .LVU502
 1449              	.LBB600:
  73:Core/Src/lcd.c **** 	
 1450              		.loc 1 73 2 view .LVU503
  73:Core/Src/lcd.c **** 	
 1451              		.loc 1 73 51 is_stmt 0 view .LVU504
ARM GAS  C:\Users\84759\AppData\Local\Temp\cc1QWPm5.s 			page 51


 1452 0104 4FF0460B 		mov	fp, #70
 1453 0108 A3F800B0 		strh	fp, [r3]	@ movhi
 1454              	.LVL83:
  73:Core/Src/lcd.c **** 	
 1455              		.loc 1 73 51 view .LVU505
 1456              	.LBE600:
 1457              	.LBE599:
 400:Core/Src/lcd.c ****     ILI9341_Write_Data ( 0x17 );
 1458              		.loc 1 400 5 is_stmt 1 view .LVU506
 1459              	.LBB601:
 1460              	.LBI601:
  71:Core/Src/lcd.c **** {
 1461              		.loc 1 71 7 view .LVU507
 1462              	.LBB602:
  73:Core/Src/lcd.c **** 	
 1463              		.loc 1 73 2 view .LVU508
  73:Core/Src/lcd.c **** 	
 1464              		.loc 1 73 51 is_stmt 0 view .LVU509
 1465 010c 4FF00C0B 		mov	fp, #12
 1466 0110 A3F800B0 		strh	fp, [r3]	@ movhi
 1467              	.LVL84:
  73:Core/Src/lcd.c **** 	
 1468              		.loc 1 73 51 view .LVU510
 1469              	.LBE602:
 1470              	.LBE601:
 401:Core/Src/lcd.c ****     ILI9341_Write_Data ( 0x09 );
 1471              		.loc 1 401 5 is_stmt 1 view .LVU511
 1472              	.LBB603:
 1473              	.LBI603:
  71:Core/Src/lcd.c **** {
 1474              		.loc 1 71 7 view .LVU512
 1475              	.LBB604:
  73:Core/Src/lcd.c **** 	
 1476              		.loc 1 73 2 view .LVU513
  73:Core/Src/lcd.c **** 	
 1477              		.loc 1 73 51 is_stmt 0 view .LVU514
 1478 0114 4FF0170B 		mov	fp, #23
 1479 0118 A3F800B0 		strh	fp, [r3]	@ movhi
 1480              	.LVL85:
  73:Core/Src/lcd.c **** 	
 1481              		.loc 1 73 51 view .LVU515
 1482              	.LBE604:
 1483              	.LBE603:
 402:Core/Src/lcd.c ****     ILI9341_Write_Data ( 0x0F );
 1484              		.loc 1 402 5 is_stmt 1 view .LVU516
 1485              	.LBB605:
 1486              	.LBI605:
  71:Core/Src/lcd.c **** {
 1487              		.loc 1 71 7 view .LVU517
 1488              	.LBB606:
  73:Core/Src/lcd.c **** 	
 1489              		.loc 1 73 2 view .LVU518
  73:Core/Src/lcd.c **** 	
 1490              		.loc 1 73 51 is_stmt 0 view .LVU519
 1491 011c 1D80     		strh	r5, [r3]	@ movhi
 1492              	.LVL86:
  73:Core/Src/lcd.c **** 	
ARM GAS  C:\Users\84759\AppData\Local\Temp\cc1QWPm5.s 			page 52


 1493              		.loc 1 73 51 view .LVU520
 1494              	.LBE606:
 1495              	.LBE605:
 403:Core/Src/lcd.c ****     ILI9341_Write_Data ( 0x07 );
 1496              		.loc 1 403 5 is_stmt 1 view .LVU521
 1497              	.LBB607:
 1498              	.LBI607:
  71:Core/Src/lcd.c **** {
 1499              		.loc 1 71 7 view .LVU522
 1500              	.LBB608:
  73:Core/Src/lcd.c **** 	
 1501              		.loc 1 73 2 view .LVU523
  73:Core/Src/lcd.c **** 	
 1502              		.loc 1 73 51 is_stmt 0 view .LVU524
 1503 011e 1980     		strh	r1, [r3]	@ movhi
 1504              	.LVL87:
  73:Core/Src/lcd.c **** 	
 1505              		.loc 1 73 51 view .LVU525
 1506              	.LBE608:
 1507              	.LBE607:
 404:Core/Src/lcd.c ****     ILI9341_Write_Data ( 0x00 );
 1508              		.loc 1 404 5 is_stmt 1 view .LVU526
 1509              	.LBB609:
 1510              	.LBI609:
  71:Core/Src/lcd.c **** {
 1511              		.loc 1 71 7 view .LVU527
 1512              	.LBB610:
  73:Core/Src/lcd.c **** 	
 1513              		.loc 1 73 2 view .LVU528
  73:Core/Src/lcd.c **** 	
 1514              		.loc 1 73 51 is_stmt 0 view .LVU529
 1515 0120 0725     		movs	r5, #7
 1516 0122 1D80     		strh	r5, [r3]	@ movhi
 1517              	.LVL88:
  73:Core/Src/lcd.c **** 	
 1518              		.loc 1 73 51 view .LVU530
 1519              	.LBE610:
 1520              	.LBE609:
 405:Core/Src/lcd.c ****     
 1521              		.loc 1 405 5 is_stmt 1 view .LVU531
 1522              	.LBB611:
 1523              	.LBI611:
  71:Core/Src/lcd.c **** {
 1524              		.loc 1 71 7 view .LVU532
 1525              	.LBB612:
  73:Core/Src/lcd.c **** 	
 1526              		.loc 1 73 2 view .LVU533
  73:Core/Src/lcd.c **** 	
 1527              		.loc 1 73 51 is_stmt 0 view .LVU534
 1528 0124 1A80     		strh	r2, [r3]	@ movhi
 1529              	.LVL89:
  73:Core/Src/lcd.c **** 	
 1530              		.loc 1 73 51 view .LVU535
 1531              	.LBE612:
 1532              	.LBE611:
 408:Core/Src/lcd.c ****     ILI9341_Write_Data ( 0x00 );
 1533              		.loc 1 408 5 is_stmt 1 view .LVU536
ARM GAS  C:\Users\84759\AppData\Local\Temp\cc1QWPm5.s 			page 53


 1534              	.LBB613:
 1535              	.LBI613:
  59:Core/Src/lcd.c **** {
 1536              		.loc 1 59 7 view .LVU537
 1537              	.LBB614:
  61:Core/Src/lcd.c **** 	
 1538              		.loc 1 61 2 view .LVU538
  61:Core/Src/lcd.c **** 	
 1539              		.loc 1 61 50 is_stmt 0 view .LVU539
 1540 0126 4FF0E10B 		mov	fp, #225
 1541 012a A4F800B0 		strh	fp, [r4]	@ movhi
 1542              	.LVL90:
  61:Core/Src/lcd.c **** 	
 1543              		.loc 1 61 50 view .LVU540
 1544              	.LBE614:
 1545              	.LBE613:
 409:Core/Src/lcd.c ****     ILI9341_Write_Data ( 0x19 );
 1546              		.loc 1 409 5 is_stmt 1 view .LVU541
 1547              	.LBB615:
 1548              	.LBI615:
  71:Core/Src/lcd.c **** {
 1549              		.loc 1 71 7 view .LVU542
 1550              	.LBB616:
  73:Core/Src/lcd.c **** 	
 1551              		.loc 1 73 2 view .LVU543
  73:Core/Src/lcd.c **** 	
 1552              		.loc 1 73 51 is_stmt 0 view .LVU544
 1553 012e 1A80     		strh	r2, [r3]	@ movhi
 1554              	.LVL91:
  73:Core/Src/lcd.c **** 	
 1555              		.loc 1 73 51 view .LVU545
 1556              	.LBE616:
 1557              	.LBE615:
 410:Core/Src/lcd.c ****     ILI9341_Write_Data ( 0x1B );
 1558              		.loc 1 410 5 is_stmt 1 view .LVU546
 1559              	.LBB617:
 1560              	.LBI617:
  71:Core/Src/lcd.c **** {
 1561              		.loc 1 71 7 view .LVU547
 1562              	.LBB618:
  73:Core/Src/lcd.c **** 	
 1563              		.loc 1 73 2 view .LVU548
  73:Core/Src/lcd.c **** 	
 1564              		.loc 1 73 51 is_stmt 0 view .LVU549
 1565 0130 4FF0190B 		mov	fp, #25
 1566 0134 A3F800B0 		strh	fp, [r3]	@ movhi
 1567              	.LVL92:
  73:Core/Src/lcd.c **** 	
 1568              		.loc 1 73 51 view .LVU550
 1569              	.LBE618:
 1570              	.LBE617:
 411:Core/Src/lcd.c ****     ILI9341_Write_Data ( 0x04 );
 1571              		.loc 1 411 5 is_stmt 1 view .LVU551
 1572              	.LBB619:
 1573              	.LBI619:
  71:Core/Src/lcd.c **** {
 1574              		.loc 1 71 7 view .LVU552
ARM GAS  C:\Users\84759\AppData\Local\Temp\cc1QWPm5.s 			page 54


 1575              	.LBB620:
  73:Core/Src/lcd.c **** 	
 1576              		.loc 1 73 2 view .LVU553
  73:Core/Src/lcd.c **** 	
 1577              		.loc 1 73 51 is_stmt 0 view .LVU554
 1578 0138 A3F800A0 		strh	r10, [r3]	@ movhi
 1579              	.LVL93:
  73:Core/Src/lcd.c **** 	
 1580              		.loc 1 73 51 view .LVU555
 1581              	.LBE620:
 1582              	.LBE619:
 412:Core/Src/lcd.c ****     ILI9341_Write_Data ( 0x10 );
 1583              		.loc 1 412 5 is_stmt 1 view .LVU556
 1584              	.LBB621:
 1585              	.LBI621:
  71:Core/Src/lcd.c **** {
 1586              		.loc 1 71 7 view .LVU557
 1587              	.LBB622:
  73:Core/Src/lcd.c **** 	
 1588              		.loc 1 73 2 view .LVU558
  73:Core/Src/lcd.c **** 	
 1589              		.loc 1 73 51 is_stmt 0 view .LVU559
 1590 013c 4FF0040A 		mov	r10, #4
 1591 0140 A3F800A0 		strh	r10, [r3]	@ movhi
 1592              	.LVL94:
  73:Core/Src/lcd.c **** 	
 1593              		.loc 1 73 51 view .LVU560
 1594              	.LBE622:
 1595              	.LBE621:
 413:Core/Src/lcd.c ****     ILI9341_Write_Data ( 0x07 );
 1596              		.loc 1 413 5 is_stmt 1 view .LVU561
 1597              	.LBB623:
 1598              	.LBI623:
  71:Core/Src/lcd.c **** {
 1599              		.loc 1 71 7 view .LVU562
 1600              	.LBB624:
  73:Core/Src/lcd.c **** 	
 1601              		.loc 1 73 2 view .LVU563
  73:Core/Src/lcd.c **** 	
 1602              		.loc 1 73 51 is_stmt 0 view .LVU564
 1603 0144 A3F80090 		strh	r9, [r3]	@ movhi
 1604              	.LVL95:
  73:Core/Src/lcd.c **** 	
 1605              		.loc 1 73 51 view .LVU565
 1606              	.LBE624:
 1607              	.LBE623:
 414:Core/Src/lcd.c ****     ILI9341_Write_Data ( 0x2A );
 1608              		.loc 1 414 5 is_stmt 1 view .LVU566
 1609              	.LBB625:
 1610              	.LBI625:
  71:Core/Src/lcd.c **** {
 1611              		.loc 1 71 7 view .LVU567
 1612              	.LBB626:
  73:Core/Src/lcd.c **** 	
 1613              		.loc 1 73 2 view .LVU568
  73:Core/Src/lcd.c **** 	
 1614              		.loc 1 73 51 is_stmt 0 view .LVU569
ARM GAS  C:\Users\84759\AppData\Local\Temp\cc1QWPm5.s 			page 55


 1615 0148 1D80     		strh	r5, [r3]	@ movhi
 1616              	.LVL96:
  73:Core/Src/lcd.c **** 	
 1617              		.loc 1 73 51 view .LVU570
 1618              	.LBE626:
 1619              	.LBE625:
 415:Core/Src/lcd.c ****     ILI9341_Write_Data ( 0x47 );
 1620              		.loc 1 415 5 is_stmt 1 view .LVU571
 1621              	.LBB627:
 1622              	.LBI627:
  71:Core/Src/lcd.c **** {
 1623              		.loc 1 71 7 view .LVU572
 1624              	.LBB628:
  73:Core/Src/lcd.c **** 	
 1625              		.loc 1 73 2 view .LVU573
  73:Core/Src/lcd.c **** 	
 1626              		.loc 1 73 51 is_stmt 0 view .LVU574
 1627 014a 2A25     		movs	r5, #42
 1628 014c 1D80     		strh	r5, [r3]	@ movhi
 1629              	.LVL97:
  73:Core/Src/lcd.c **** 	
 1630              		.loc 1 73 51 view .LVU575
 1631              	.LBE628:
 1632              	.LBE627:
 416:Core/Src/lcd.c ****     ILI9341_Write_Data ( 0x39 );
 1633              		.loc 1 416 5 is_stmt 1 view .LVU576
 1634              	.LBB629:
 1635              	.LBI629:
  71:Core/Src/lcd.c **** {
 1636              		.loc 1 71 7 view .LVU577
 1637              	.LBB630:
  73:Core/Src/lcd.c **** 	
 1638              		.loc 1 73 2 view .LVU578
  73:Core/Src/lcd.c **** 	
 1639              		.loc 1 73 51 is_stmt 0 view .LVU579
 1640 014e 4FF04709 		mov	r9, #71
 1641 0152 A3F80090 		strh	r9, [r3]	@ movhi
 1642              	.LVL98:
  73:Core/Src/lcd.c **** 	
 1643              		.loc 1 73 51 view .LVU580
 1644              	.LBE630:
 1645              	.LBE629:
 417:Core/Src/lcd.c ****     ILI9341_Write_Data ( 0x03 );
 1646              		.loc 1 417 5 is_stmt 1 view .LVU581
 1647              	.LBB631:
 1648              	.LBI631:
  71:Core/Src/lcd.c **** {
 1649              		.loc 1 71 7 view .LVU582
 1650              	.LBB632:
  73:Core/Src/lcd.c **** 	
 1651              		.loc 1 73 2 view .LVU583
  73:Core/Src/lcd.c **** 	
 1652              		.loc 1 73 51 is_stmt 0 view .LVU584
 1653 0156 A3F80080 		strh	r8, [r3]	@ movhi
 1654              	.LVL99:
  73:Core/Src/lcd.c **** 	
 1655              		.loc 1 73 51 view .LVU585
ARM GAS  C:\Users\84759\AppData\Local\Temp\cc1QWPm5.s 			page 56


 1656              	.LBE632:
 1657              	.LBE631:
 418:Core/Src/lcd.c ****     ILI9341_Write_Data ( 0x06 );
 1658              		.loc 1 418 5 is_stmt 1 view .LVU586
 1659              	.LBB633:
 1660              	.LBI633:
  71:Core/Src/lcd.c **** {
 1661              		.loc 1 71 7 view .LVU587
 1662              	.LBB634:
  73:Core/Src/lcd.c **** 	
 1663              		.loc 1 73 2 view .LVU588
  73:Core/Src/lcd.c **** 	
 1664              		.loc 1 73 51 is_stmt 0 view .LVU589
 1665 015a 1F80     		strh	r7, [r3]	@ movhi
 1666              	.LVL100:
  73:Core/Src/lcd.c **** 	
 1667              		.loc 1 73 51 view .LVU590
 1668              	.LBE634:
 1669              	.LBE633:
 419:Core/Src/lcd.c ****     ILI9341_Write_Data ( 0x06 );
 1670              		.loc 1 419 5 is_stmt 1 view .LVU591
 1671              	.LBB635:
 1672              	.LBI635:
  71:Core/Src/lcd.c **** {
 1673              		.loc 1 71 7 view .LVU592
 1674              	.LBB636:
  73:Core/Src/lcd.c **** 	
 1675              		.loc 1 73 2 view .LVU593
  73:Core/Src/lcd.c **** 	
 1676              		.loc 1 73 51 is_stmt 0 view .LVU594
 1677 015c 1880     		strh	r0, [r3]	@ movhi
 1678              	.LVL101:
  73:Core/Src/lcd.c **** 	
 1679              		.loc 1 73 51 view .LVU595
 1680              	.LBE636:
 1681              	.LBE635:
 420:Core/Src/lcd.c ****     ILI9341_Write_Data ( 0x30 );
 1682              		.loc 1 420 5 is_stmt 1 view .LVU596
 1683              	.LBB637:
 1684              	.LBI637:
  71:Core/Src/lcd.c **** {
 1685              		.loc 1 71 7 view .LVU597
 1686              	.LBB638:
  73:Core/Src/lcd.c **** 	
 1687              		.loc 1 73 2 view .LVU598
  73:Core/Src/lcd.c **** 	
 1688              		.loc 1 73 51 is_stmt 0 view .LVU599
 1689 015e 1880     		strh	r0, [r3]	@ movhi
 1690              	.LVL102:
  73:Core/Src/lcd.c **** 	
 1691              		.loc 1 73 51 view .LVU600
 1692              	.LBE638:
 1693              	.LBE637:
 421:Core/Src/lcd.c ****     ILI9341_Write_Data ( 0x38 );
 1694              		.loc 1 421 5 is_stmt 1 view .LVU601
 1695              	.LBB639:
 1696              	.LBI639:
ARM GAS  C:\Users\84759\AppData\Local\Temp\cc1QWPm5.s 			page 57


  71:Core/Src/lcd.c **** {
 1697              		.loc 1 71 7 view .LVU602
 1698              	.LBB640:
  73:Core/Src/lcd.c **** 	
 1699              		.loc 1 73 2 view .LVU603
  73:Core/Src/lcd.c **** 	
 1700              		.loc 1 73 51 is_stmt 0 view .LVU604
 1701 0160 1E80     		strh	r6, [r3]	@ movhi
 1702              	.LVL103:
  73:Core/Src/lcd.c **** 	
 1703              		.loc 1 73 51 view .LVU605
 1704              	.LBE640:
 1705              	.LBE639:
 422:Core/Src/lcd.c ****     ILI9341_Write_Data ( 0x0F );
 1706              		.loc 1 422 5 is_stmt 1 view .LVU606
 1707              	.LBB641:
 1708              	.LBI641:
  71:Core/Src/lcd.c **** {
 1709              		.loc 1 71 7 view .LVU607
 1710              	.LBB642:
  73:Core/Src/lcd.c **** 	
 1711              		.loc 1 73 2 view .LVU608
  73:Core/Src/lcd.c **** 	
 1712              		.loc 1 73 51 is_stmt 0 view .LVU609
 1713 0162 3820     		movs	r0, #56
 1714 0164 1880     		strh	r0, [r3]	@ movhi
 1715              	.LVL104:
  73:Core/Src/lcd.c **** 	
 1716              		.loc 1 73 51 view .LVU610
 1717              	.LBE642:
 1718              	.LBE641:
 423:Core/Src/lcd.c ****     
 1719              		.loc 1 423 5 is_stmt 1 view .LVU611
 1720              	.LBB643:
 1721              	.LBI643:
  71:Core/Src/lcd.c **** {
 1722              		.loc 1 71 7 view .LVU612
 1723              	.LBB644:
  73:Core/Src/lcd.c **** 	
 1724              		.loc 1 73 2 view .LVU613
  73:Core/Src/lcd.c **** 	
 1725              		.loc 1 73 51 is_stmt 0 view .LVU614
 1726 0166 1980     		strh	r1, [r3]	@ movhi
 1727              	.LVL105:
  73:Core/Src/lcd.c **** 	
 1728              		.loc 1 73 51 view .LVU615
 1729              	.LBE644:
 1730              	.LBE643:
 426:Core/Src/lcd.c ****     ILI9341_Write_Cmd ( 0x36 ); 	
 1731              		.loc 1 426 19 is_stmt 1 view .LVU616
 427:Core/Src/lcd.c ****     ILI9341_Write_Data ( 0xC8 );    /*ĘúĆÁ  ×óÉĎ˝Çµ˝ (Ćđµă)µ˝ÓŇĎÂ˝Ç (ÖŐµă)É¨Ăč·˝Ę˝*/
 1732              		.loc 1 427 5 view .LVU617
 1733              	.LBB645:
 1734              	.LBI645:
  59:Core/Src/lcd.c **** {
 1735              		.loc 1 59 7 view .LVU618
 1736              	.LBB646:
ARM GAS  C:\Users\84759\AppData\Local\Temp\cc1QWPm5.s 			page 58


  61:Core/Src/lcd.c **** 	
 1737              		.loc 1 61 2 view .LVU619
  61:Core/Src/lcd.c **** 	
 1738              		.loc 1 61 50 is_stmt 0 view .LVU620
 1739 0168 3621     		movs	r1, #54
 1740 016a 2180     		strh	r1, [r4]	@ movhi
 1741              	.LVL106:
  61:Core/Src/lcd.c **** 	
 1742              		.loc 1 61 50 view .LVU621
 1743              	.LBE646:
 1744              	.LBE645:
 428:Core/Src/lcd.c ****     DEBUG_DELAY ();
 1745              		.loc 1 428 5 is_stmt 1 view .LVU622
 1746              	.LBB647:
 1747              	.LBI647:
  71:Core/Src/lcd.c **** {
 1748              		.loc 1 71 7 view .LVU623
 1749              	.LBB648:
  73:Core/Src/lcd.c **** 	
 1750              		.loc 1 73 2 view .LVU624
  73:Core/Src/lcd.c **** 	
 1751              		.loc 1 73 51 is_stmt 0 view .LVU625
 1752 016c C821     		movs	r1, #200
 1753 016e 1980     		strh	r1, [r3]	@ movhi
 1754              	.LVL107:
  73:Core/Src/lcd.c **** 	
 1755              		.loc 1 73 51 view .LVU626
 1756              	.LBE648:
 1757              	.LBE647:
 429:Core/Src/lcd.c ****     
 1758              		.loc 1 429 19 is_stmt 1 view .LVU627
 432:Core/Src/lcd.c ****     ILI9341_Write_Data ( 0x00 );
 1759              		.loc 1 432 5 view .LVU628
 1760              	.LBB649:
 1761              	.LBI649:
  59:Core/Src/lcd.c **** {
 1762              		.loc 1 59 7 view .LVU629
 1763              	.LBB650:
  61:Core/Src/lcd.c **** 	
 1764              		.loc 1 61 2 view .LVU630
  61:Core/Src/lcd.c **** 	
 1765              		.loc 1 61 50 is_stmt 0 view .LVU631
 1766 0170 2580     		strh	r5, [r4]	@ movhi
 1767              	.LVL108:
  61:Core/Src/lcd.c **** 	
 1768              		.loc 1 61 50 view .LVU632
 1769              	.LBE650:
 1770              	.LBE649:
 433:Core/Src/lcd.c ****     ILI9341_Write_Data ( 0x00 );
 1771              		.loc 1 433 5 is_stmt 1 view .LVU633
 1772              	.LBB651:
 1773              	.LBI651:
  71:Core/Src/lcd.c **** {
 1774              		.loc 1 71 7 view .LVU634
 1775              	.LBB652:
  73:Core/Src/lcd.c **** 	
 1776              		.loc 1 73 2 view .LVU635
ARM GAS  C:\Users\84759\AppData\Local\Temp\cc1QWPm5.s 			page 59


  73:Core/Src/lcd.c **** 	
 1777              		.loc 1 73 51 is_stmt 0 view .LVU636
 1778 0172 1A80     		strh	r2, [r3]	@ movhi
 1779              	.LVL109:
  73:Core/Src/lcd.c **** 	
 1780              		.loc 1 73 51 view .LVU637
 1781              	.LBE652:
 1782              	.LBE651:
 434:Core/Src/lcd.c ****     ILI9341_Write_Data ( 0x00 );
 1783              		.loc 1 434 5 is_stmt 1 view .LVU638
 1784              	.LBB653:
 1785              	.LBI653:
  71:Core/Src/lcd.c **** {
 1786              		.loc 1 71 7 view .LVU639
 1787              	.LBB654:
  73:Core/Src/lcd.c **** 	
 1788              		.loc 1 73 2 view .LVU640
  73:Core/Src/lcd.c **** 	
 1789              		.loc 1 73 51 is_stmt 0 view .LVU641
 1790 0174 1A80     		strh	r2, [r3]	@ movhi
 1791              	.LVL110:
  73:Core/Src/lcd.c **** 	
 1792              		.loc 1 73 51 view .LVU642
 1793              	.LBE654:
 1794              	.LBE653:
 435:Core/Src/lcd.c ****     ILI9341_Write_Data ( 0xEF );
 1795              		.loc 1 435 5 is_stmt 1 view .LVU643
 1796              	.LBB655:
 1797              	.LBI655:
  71:Core/Src/lcd.c **** {
 1798              		.loc 1 71 7 view .LVU644
 1799              	.LBB656:
  73:Core/Src/lcd.c **** 	
 1800              		.loc 1 73 2 view .LVU645
  73:Core/Src/lcd.c **** 	
 1801              		.loc 1 73 51 is_stmt 0 view .LVU646
 1802 0176 1A80     		strh	r2, [r3]	@ movhi
 1803              	.LVL111:
  73:Core/Src/lcd.c **** 	
 1804              		.loc 1 73 51 view .LVU647
 1805              	.LBE656:
 1806              	.LBE655:
 436:Core/Src/lcd.c ****     
 1807              		.loc 1 436 5 is_stmt 1 view .LVU648
 1808              	.LBB657:
 1809              	.LBI657:
  71:Core/Src/lcd.c **** {
 1810              		.loc 1 71 7 view .LVU649
 1811              	.LBB658:
  73:Core/Src/lcd.c **** 	
 1812              		.loc 1 73 2 view .LVU650
  73:Core/Src/lcd.c **** 	
 1813              		.loc 1 73 51 is_stmt 0 view .LVU651
 1814 0178 EF21     		movs	r1, #239
 1815 017a 1980     		strh	r1, [r3]	@ movhi
 1816              	.LVL112:
  73:Core/Src/lcd.c **** 	
ARM GAS  C:\Users\84759\AppData\Local\Temp\cc1QWPm5.s 			page 60


 1817              		.loc 1 73 51 view .LVU652
 1818              	.LBE658:
 1819              	.LBE657:
 439:Core/Src/lcd.c ****     ILI9341_Write_Cmd ( CMD_SetCoordinateY ); 
 1820              		.loc 1 439 19 is_stmt 1 view .LVU653
 440:Core/Src/lcd.c ****     ILI9341_Write_Data ( 0x00 );
 1821              		.loc 1 440 5 view .LVU654
 1822              	.LBB659:
 1823              	.LBI659:
  59:Core/Src/lcd.c **** {
 1824              		.loc 1 59 7 view .LVU655
 1825              	.LBB660:
  61:Core/Src/lcd.c **** 	
 1826              		.loc 1 61 2 view .LVU656
  61:Core/Src/lcd.c **** 	
 1827              		.loc 1 61 50 is_stmt 0 view .LVU657
 1828 017c 2B21     		movs	r1, #43
 1829 017e 2180     		strh	r1, [r4]	@ movhi
 1830              	.LVL113:
  61:Core/Src/lcd.c **** 	
 1831              		.loc 1 61 50 view .LVU658
 1832              	.LBE660:
 1833              	.LBE659:
 441:Core/Src/lcd.c ****     ILI9341_Write_Data ( 0x00 );
 1834              		.loc 1 441 5 is_stmt 1 view .LVU659
 1835              	.LBB661:
 1836              	.LBI661:
  71:Core/Src/lcd.c **** {
 1837              		.loc 1 71 7 view .LVU660
 1838              	.LBB662:
  73:Core/Src/lcd.c **** 	
 1839              		.loc 1 73 2 view .LVU661
  73:Core/Src/lcd.c **** 	
 1840              		.loc 1 73 51 is_stmt 0 view .LVU662
 1841 0180 1A80     		strh	r2, [r3]	@ movhi
 1842              	.LVL114:
  73:Core/Src/lcd.c **** 	
 1843              		.loc 1 73 51 view .LVU663
 1844              	.LBE662:
 1845              	.LBE661:
 442:Core/Src/lcd.c ****     ILI9341_Write_Data ( 0x01 );
 1846              		.loc 1 442 5 is_stmt 1 view .LVU664
 1847              	.LBB663:
 1848              	.LBI663:
  71:Core/Src/lcd.c **** {
 1849              		.loc 1 71 7 view .LVU665
 1850              	.LBB664:
  73:Core/Src/lcd.c **** 	
 1851              		.loc 1 73 2 view .LVU666
  73:Core/Src/lcd.c **** 	
 1852              		.loc 1 73 51 is_stmt 0 view .LVU667
 1853 0182 1A80     		strh	r2, [r3]	@ movhi
 1854              	.LVL115:
  73:Core/Src/lcd.c **** 	
 1855              		.loc 1 73 51 view .LVU668
 1856              	.LBE664:
 1857              	.LBE663:
ARM GAS  C:\Users\84759\AppData\Local\Temp\cc1QWPm5.s 			page 61


 443:Core/Src/lcd.c ****     ILI9341_Write_Data ( 0x3F );
 1858              		.loc 1 443 5 is_stmt 1 view .LVU669
 1859              	.LBB665:
 1860              	.LBI665:
  71:Core/Src/lcd.c **** {
 1861              		.loc 1 71 7 view .LVU670
 1862              	.LBB666:
  73:Core/Src/lcd.c **** 	
 1863              		.loc 1 73 2 view .LVU671
  73:Core/Src/lcd.c **** 	
 1864              		.loc 1 73 51 is_stmt 0 view .LVU672
 1865 0184 A3F800E0 		strh	lr, [r3]	@ movhi
 1866              	.LVL116:
  73:Core/Src/lcd.c **** 	
 1867              		.loc 1 73 51 view .LVU673
 1868              	.LBE666:
 1869              	.LBE665:
 444:Core/Src/lcd.c ****     
 1870              		.loc 1 444 5 is_stmt 1 view .LVU674
 1871              	.LBB667:
 1872              	.LBI667:
  71:Core/Src/lcd.c **** {
 1873              		.loc 1 71 7 view .LVU675
 1874              	.LBB668:
  73:Core/Src/lcd.c **** 	
 1875              		.loc 1 73 2 view .LVU676
  73:Core/Src/lcd.c **** 	
 1876              		.loc 1 73 51 is_stmt 0 view .LVU677
 1877 0188 3F22     		movs	r2, #63
 1878 018a 1A80     		strh	r2, [r3]	@ movhi
 1879              	.LVL117:
  73:Core/Src/lcd.c **** 	
 1880              		.loc 1 73 51 view .LVU678
 1881              	.LBE668:
 1882              	.LBE667:
 447:Core/Src/lcd.c ****     ILI9341_Write_Cmd ( 0x3a ); 
 1883              		.loc 1 447 19 is_stmt 1 view .LVU679
 448:Core/Src/lcd.c ****     ILI9341_Write_Data ( 0x55 );
 1884              		.loc 1 448 5 view .LVU680
 1885              	.LBB669:
 1886              	.LBI669:
  59:Core/Src/lcd.c **** {
 1887              		.loc 1 59 7 view .LVU681
 1888              	.LBB670:
  61:Core/Src/lcd.c **** 	
 1889              		.loc 1 61 2 view .LVU682
  61:Core/Src/lcd.c **** 	
 1890              		.loc 1 61 50 is_stmt 0 view .LVU683
 1891 018c 3A22     		movs	r2, #58
 1892 018e 2280     		strh	r2, [r4]	@ movhi
 1893              	.LVL118:
  61:Core/Src/lcd.c **** 	
 1894              		.loc 1 61 50 view .LVU684
 1895              	.LBE670:
 1896              	.LBE669:
 449:Core/Src/lcd.c ****     
 1897              		.loc 1 449 5 is_stmt 1 view .LVU685
ARM GAS  C:\Users\84759\AppData\Local\Temp\cc1QWPm5.s 			page 62


 1898              	.LBB671:
 1899              	.LBI671:
  71:Core/Src/lcd.c **** {
 1900              		.loc 1 71 7 view .LVU686
 1901              	.LBB672:
  73:Core/Src/lcd.c **** 	
 1902              		.loc 1 73 2 view .LVU687
  73:Core/Src/lcd.c **** 	
 1903              		.loc 1 73 51 is_stmt 0 view .LVU688
 1904 0190 5522     		movs	r2, #85
 1905 0192 1A80     		strh	r2, [r3]	@ movhi
 1906              	.LVL119:
  73:Core/Src/lcd.c **** 	
 1907              		.loc 1 73 51 view .LVU689
 1908              	.LBE672:
 1909              	.LBE671:
 452:Core/Src/lcd.c ****     ILI9341_Delay ( 0xAFFf<<2 );
 1910              		.loc 1 452 5 is_stmt 1 view .LVU690
 1911              	.LBB673:
 1912              	.LBI673:
  59:Core/Src/lcd.c **** {
 1913              		.loc 1 59 7 view .LVU691
 1914              	.LBB674:
  61:Core/Src/lcd.c **** 	
 1915              		.loc 1 61 2 view .LVU692
  61:Core/Src/lcd.c **** 	
 1916              		.loc 1 61 50 is_stmt 0 view .LVU693
 1917 0194 A4F800C0 		strh	ip, [r4]	@ movhi
 1918              	.LVL120:
  61:Core/Src/lcd.c **** 	
 1919              		.loc 1 61 50 view .LVU694
 1920              	.LBE674:
 1921              	.LBE673:
 453:Core/Src/lcd.c ****     DEBUG_DELAY ();
 1922              		.loc 1 453 5 is_stmt 1 view .LVU695
 1923 0198 0348     		ldr	r0, .L30+4
 1924 019a FFF7FEFF 		bl	ILI9341_Delay
 1925              	.LVL121:
 454:Core/Src/lcd.c ****     
 1926              		.loc 1 454 19 view .LVU696
 457:Core/Src/lcd.c **** 	}
 1927              		.loc 1 457 5 view .LVU697
 1928              	.LBB675:
 1929              	.LBI675:
  59:Core/Src/lcd.c **** {
 1930              		.loc 1 59 7 view .LVU698
 1931              	.LBB676:
  61:Core/Src/lcd.c **** 	
 1932              		.loc 1 61 2 view .LVU699
  61:Core/Src/lcd.c **** 	
 1933              		.loc 1 61 50 is_stmt 0 view .LVU700
 1934 019e 2923     		movs	r3, #41
 1935 01a0 2380     		strh	r3, [r4]	@ movhi
  63:Core/Src/lcd.c **** 
 1936              		.loc 1 63 1 view .LVU701
 1937 01a2 3CE7     		b	.L24
 1938              	.L31:
ARM GAS  C:\Users\84759\AppData\Local\Temp\cc1QWPm5.s 			page 63


 1939              		.align	2
 1940              	.L30:
 1941 01a4 00000000 		.word	.LANCHOR2
 1942 01a8 FCBF0200 		.word	180220
 1943              	.LVL122:
 1944              	.L29:
  63:Core/Src/lcd.c **** 
 1945              		.loc 1 63 1 view .LVU702
 1946              	.LBE676:
 1947              	.LBE675:
 463:Core/Src/lcd.c ****     ILI9341_Write_Cmd ( 0xCF  );
 1948              		.loc 1 463 20 is_stmt 1 view .LVU703
 464:Core/Src/lcd.c ****     ILI9341_Write_Data ( 0x00  );
 1949              		.loc 1 464 5 view .LVU704
 1950              	.LBB677:
 1951              	.LBI677:
  59:Core/Src/lcd.c **** {
 1952              		.loc 1 59 7 view .LVU705
 1953              	.LBB678:
  61:Core/Src/lcd.c **** 	
 1954              		.loc 1 61 2 view .LVU706
  61:Core/Src/lcd.c **** 	
 1955              		.loc 1 61 50 is_stmt 0 view .LVU707
 1956 01ac 4FF0D844 		mov	r4, #1811939328
 1957 01b0 CF23     		movs	r3, #207
 1958 01b2 2380     		strh	r3, [r4]	@ movhi
 1959              	.LVL123:
  61:Core/Src/lcd.c **** 	
 1960              		.loc 1 61 50 view .LVU708
 1961              	.LBE678:
 1962              	.LBE677:
 465:Core/Src/lcd.c ****     ILI9341_Write_Data ( 0xC1  );
 1963              		.loc 1 465 5 is_stmt 1 view .LVU709
 1964              	.LBB679:
 1965              	.LBI679:
  71:Core/Src/lcd.c **** {
 1966              		.loc 1 71 7 view .LVU710
 1967              	.LBB680:
  73:Core/Src/lcd.c **** 	
 1968              		.loc 1 73 2 view .LVU711
  73:Core/Src/lcd.c **** 	
 1969              		.loc 1 73 51 is_stmt 0 view .LVU712
 1970 01b4 4FF0DA43 		mov	r3, #1828716544
 1971 01b8 0022     		movs	r2, #0
 1972 01ba 1A80     		strh	r2, [r3]	@ movhi
 1973              	.LVL124:
  73:Core/Src/lcd.c **** 	
 1974              		.loc 1 73 51 view .LVU713
 1975              	.LBE680:
 1976              	.LBE679:
 466:Core/Src/lcd.c ****     ILI9341_Write_Data ( 0x30  );
 1977              		.loc 1 466 5 is_stmt 1 view .LVU714
 1978              	.LBB681:
 1979              	.LBI681:
  71:Core/Src/lcd.c **** {
 1980              		.loc 1 71 7 view .LVU715
 1981              	.LBB682:
ARM GAS  C:\Users\84759\AppData\Local\Temp\cc1QWPm5.s 			page 64


  73:Core/Src/lcd.c **** 	
 1982              		.loc 1 73 2 view .LVU716
  73:Core/Src/lcd.c **** 	
 1983              		.loc 1 73 51 is_stmt 0 view .LVU717
 1984 01bc C126     		movs	r6, #193
 1985 01be 1E80     		strh	r6, [r3]	@ movhi
 1986              	.LVL125:
  73:Core/Src/lcd.c **** 	
 1987              		.loc 1 73 51 view .LVU718
 1988              	.LBE682:
 1989              	.LBE681:
 467:Core/Src/lcd.c ****     
 1990              		.loc 1 467 5 is_stmt 1 view .LVU719
 1991              	.LBB683:
 1992              	.LBI683:
  71:Core/Src/lcd.c **** {
 1993              		.loc 1 71 7 view .LVU720
 1994              	.LBB684:
  73:Core/Src/lcd.c **** 	
 1995              		.loc 1 73 2 view .LVU721
  73:Core/Src/lcd.c **** 	
 1996              		.loc 1 73 51 is_stmt 0 view .LVU722
 1997 01c0 4FF0300E 		mov	lr, #48
 1998 01c4 A3F800E0 		strh	lr, [r3]	@ movhi
 1999              	.LVL126:
  73:Core/Src/lcd.c **** 	
 2000              		.loc 1 73 51 view .LVU723
 2001              	.LBE684:
 2002              	.LBE683:
 470:Core/Src/lcd.c ****     ILI9341_Write_Cmd ( 0xED );
 2003              		.loc 1 470 19 is_stmt 1 view .LVU724
 471:Core/Src/lcd.c ****     ILI9341_Write_Data ( 0x64 );
 2004              		.loc 1 471 5 view .LVU725
 2005              	.LBB685:
 2006              	.LBI685:
  59:Core/Src/lcd.c **** {
 2007              		.loc 1 59 7 view .LVU726
 2008              	.LBB686:
  61:Core/Src/lcd.c **** 	
 2009              		.loc 1 61 2 view .LVU727
  61:Core/Src/lcd.c **** 	
 2010              		.loc 1 61 50 is_stmt 0 view .LVU728
 2011 01c8 ED21     		movs	r1, #237
 2012 01ca 2180     		strh	r1, [r4]	@ movhi
 2013              	.LVL127:
  61:Core/Src/lcd.c **** 	
 2014              		.loc 1 61 50 view .LVU729
 2015              	.LBE686:
 2016              	.LBE685:
 472:Core/Src/lcd.c ****     ILI9341_Write_Data ( 0x03 );
 2017              		.loc 1 472 5 is_stmt 1 view .LVU730
 2018              	.LBB687:
 2019              	.LBI687:
  71:Core/Src/lcd.c **** {
 2020              		.loc 1 71 7 view .LVU731
 2021              	.LBB688:
  73:Core/Src/lcd.c **** 	
ARM GAS  C:\Users\84759\AppData\Local\Temp\cc1QWPm5.s 			page 65


 2022              		.loc 1 73 2 view .LVU732
  73:Core/Src/lcd.c **** 	
 2023              		.loc 1 73 51 is_stmt 0 view .LVU733
 2024 01cc 6421     		movs	r1, #100
 2025 01ce 1980     		strh	r1, [r3]	@ movhi
 2026              	.LVL128:
  73:Core/Src/lcd.c **** 	
 2027              		.loc 1 73 51 view .LVU734
 2028              	.LBE688:
 2029              	.LBE687:
 473:Core/Src/lcd.c ****     ILI9341_Write_Data ( 0x12 );
 2030              		.loc 1 473 5 is_stmt 1 view .LVU735
 2031              	.LBB689:
 2032              	.LBI689:
  71:Core/Src/lcd.c **** {
 2033              		.loc 1 71 7 view .LVU736
 2034              	.LBB690:
  73:Core/Src/lcd.c **** 	
 2035              		.loc 1 73 2 view .LVU737
  73:Core/Src/lcd.c **** 	
 2036              		.loc 1 73 51 is_stmt 0 view .LVU738
 2037 01d0 0321     		movs	r1, #3
 2038 01d2 1980     		strh	r1, [r3]	@ movhi
 2039              	.LVL129:
  73:Core/Src/lcd.c **** 	
 2040              		.loc 1 73 51 view .LVU739
 2041              	.LBE690:
 2042              	.LBE689:
 474:Core/Src/lcd.c ****     ILI9341_Write_Data ( 0x81 );
 2043              		.loc 1 474 5 is_stmt 1 view .LVU740
 2044              	.LBB691:
 2045              	.LBI691:
  71:Core/Src/lcd.c **** {
 2046              		.loc 1 71 7 view .LVU741
 2047              	.LBB692:
  73:Core/Src/lcd.c **** 	
 2048              		.loc 1 73 2 view .LVU742
  73:Core/Src/lcd.c **** 	
 2049              		.loc 1 73 51 is_stmt 0 view .LVU743
 2050 01d4 1221     		movs	r1, #18
 2051 01d6 1980     		strh	r1, [r3]	@ movhi
 2052              	.LVL130:
  73:Core/Src/lcd.c **** 	
 2053              		.loc 1 73 51 view .LVU744
 2054              	.LBE692:
 2055              	.LBE691:
 475:Core/Src/lcd.c ****     
 2056              		.loc 1 475 5 is_stmt 1 view .LVU745
 2057              	.LBB693:
 2058              	.LBI693:
  71:Core/Src/lcd.c **** {
 2059              		.loc 1 71 7 view .LVU746
 2060              	.LBB694:
  73:Core/Src/lcd.c **** 	
 2061              		.loc 1 73 2 view .LVU747
  73:Core/Src/lcd.c **** 	
 2062              		.loc 1 73 51 is_stmt 0 view .LVU748
ARM GAS  C:\Users\84759\AppData\Local\Temp\cc1QWPm5.s 			page 66


 2063 01d8 8120     		movs	r0, #129
 2064 01da 1880     		strh	r0, [r3]	@ movhi
 2065              	.LVL131:
  73:Core/Src/lcd.c **** 	
 2066              		.loc 1 73 51 view .LVU749
 2067              	.LBE694:
 2068              	.LBE693:
 478:Core/Src/lcd.c ****     ILI9341_Write_Cmd ( 0xE8 );
 2069              		.loc 1 478 19 is_stmt 1 view .LVU750
 479:Core/Src/lcd.c ****     ILI9341_Write_Data ( 0x85 );
 2070              		.loc 1 479 5 view .LVU751
 2071              	.LBB695:
 2072              	.LBI695:
  59:Core/Src/lcd.c **** {
 2073              		.loc 1 59 7 view .LVU752
 2074              	.LBB696:
  61:Core/Src/lcd.c **** 	
 2075              		.loc 1 61 2 view .LVU753
  61:Core/Src/lcd.c **** 	
 2076              		.loc 1 61 50 is_stmt 0 view .LVU754
 2077 01dc E820     		movs	r0, #232
 2078 01de 2080     		strh	r0, [r4]	@ movhi
 2079              	.LVL132:
  61:Core/Src/lcd.c **** 	
 2080              		.loc 1 61 50 view .LVU755
 2081              	.LBE696:
 2082              	.LBE695:
 480:Core/Src/lcd.c ****     ILI9341_Write_Data ( 0x10 );
 2083              		.loc 1 480 5 is_stmt 1 view .LVU756
 2084              	.LBB697:
 2085              	.LBI697:
  71:Core/Src/lcd.c **** {
 2086              		.loc 1 71 7 view .LVU757
 2087              	.LBB698:
  73:Core/Src/lcd.c **** 	
 2088              		.loc 1 73 2 view .LVU758
  73:Core/Src/lcd.c **** 	
 2089              		.loc 1 73 51 is_stmt 0 view .LVU759
 2090 01e0 8520     		movs	r0, #133
 2091 01e2 1880     		strh	r0, [r3]	@ movhi
 2092              	.LVL133:
  73:Core/Src/lcd.c **** 	
 2093              		.loc 1 73 51 view .LVU760
 2094              	.LBE698:
 2095              	.LBE697:
 481:Core/Src/lcd.c ****     ILI9341_Write_Data ( 0x78 );
 2096              		.loc 1 481 5 is_stmt 1 view .LVU761
 2097              	.LBB699:
 2098              	.LBI699:
  71:Core/Src/lcd.c **** {
 2099              		.loc 1 71 7 view .LVU762
 2100              	.LBB700:
  73:Core/Src/lcd.c **** 	
 2101              		.loc 1 73 2 view .LVU763
  73:Core/Src/lcd.c **** 	
 2102              		.loc 1 73 51 is_stmt 0 view .LVU764
 2103 01e4 1020     		movs	r0, #16
ARM GAS  C:\Users\84759\AppData\Local\Temp\cc1QWPm5.s 			page 67


 2104 01e6 1880     		strh	r0, [r3]	@ movhi
 2105              	.LVL134:
  73:Core/Src/lcd.c **** 	
 2106              		.loc 1 73 51 view .LVU765
 2107              	.LBE700:
 2108              	.LBE699:
 482:Core/Src/lcd.c ****     
 2109              		.loc 1 482 5 is_stmt 1 view .LVU766
 2110              	.LBB701:
 2111              	.LBI701:
  71:Core/Src/lcd.c **** {
 2112              		.loc 1 71 7 view .LVU767
 2113              	.LBB702:
  73:Core/Src/lcd.c **** 	
 2114              		.loc 1 73 2 view .LVU768
  73:Core/Src/lcd.c **** 	
 2115              		.loc 1 73 51 is_stmt 0 view .LVU769
 2116 01e8 7820     		movs	r0, #120
 2117 01ea 1880     		strh	r0, [r3]	@ movhi
 2118              	.LVL135:
  73:Core/Src/lcd.c **** 	
 2119              		.loc 1 73 51 view .LVU770
 2120              	.LBE702:
 2121              	.LBE701:
 485:Core/Src/lcd.c ****     ILI9341_Write_Cmd ( 0xCB );
 2122              		.loc 1 485 19 is_stmt 1 view .LVU771
 486:Core/Src/lcd.c ****     ILI9341_Write_Data ( 0x39 );
 2123              		.loc 1 486 5 view .LVU772
 2124              	.LBB703:
 2125              	.LBI703:
  59:Core/Src/lcd.c **** {
 2126              		.loc 1 59 7 view .LVU773
 2127              	.LBB704:
  61:Core/Src/lcd.c **** 	
 2128              		.loc 1 61 2 view .LVU774
  61:Core/Src/lcd.c **** 	
 2129              		.loc 1 61 50 is_stmt 0 view .LVU775
 2130 01ec CB20     		movs	r0, #203
 2131 01ee 2080     		strh	r0, [r4]	@ movhi
 2132              	.LVL136:
  61:Core/Src/lcd.c **** 	
 2133              		.loc 1 61 50 view .LVU776
 2134              	.LBE704:
 2135              	.LBE703:
 487:Core/Src/lcd.c ****     ILI9341_Write_Data ( 0x2C );
 2136              		.loc 1 487 5 is_stmt 1 view .LVU777
 2137              	.LBB705:
 2138              	.LBI705:
  71:Core/Src/lcd.c **** {
 2139              		.loc 1 71 7 view .LVU778
 2140              	.LBB706:
  73:Core/Src/lcd.c **** 	
 2141              		.loc 1 73 2 view .LVU779
  73:Core/Src/lcd.c **** 	
 2142              		.loc 1 73 51 is_stmt 0 view .LVU780
 2143 01f0 3920     		movs	r0, #57
 2144 01f2 1880     		strh	r0, [r3]	@ movhi
ARM GAS  C:\Users\84759\AppData\Local\Temp\cc1QWPm5.s 			page 68


 2145              	.LVL137:
  73:Core/Src/lcd.c **** 	
 2146              		.loc 1 73 51 view .LVU781
 2147              	.LBE706:
 2148              	.LBE705:
 488:Core/Src/lcd.c ****     ILI9341_Write_Data ( 0x00 );
 2149              		.loc 1 488 5 is_stmt 1 view .LVU782
 2150              	.LBB707:
 2151              	.LBI707:
  71:Core/Src/lcd.c **** {
 2152              		.loc 1 71 7 view .LVU783
 2153              	.LBB708:
  73:Core/Src/lcd.c **** 	
 2154              		.loc 1 73 2 view .LVU784
  73:Core/Src/lcd.c **** 	
 2155              		.loc 1 73 51 is_stmt 0 view .LVU785
 2156 01f4 2C25     		movs	r5, #44
 2157 01f6 1D80     		strh	r5, [r3]	@ movhi
 2158              	.LVL138:
  73:Core/Src/lcd.c **** 	
 2159              		.loc 1 73 51 view .LVU786
 2160              	.LBE708:
 2161              	.LBE707:
 489:Core/Src/lcd.c ****     ILI9341_Write_Data ( 0x34 );
 2162              		.loc 1 489 5 is_stmt 1 view .LVU787
 2163              	.LBB709:
 2164              	.LBI709:
  71:Core/Src/lcd.c **** {
 2165              		.loc 1 71 7 view .LVU788
 2166              	.LBB710:
  73:Core/Src/lcd.c **** 	
 2167              		.loc 1 73 2 view .LVU789
  73:Core/Src/lcd.c **** 	
 2168              		.loc 1 73 51 is_stmt 0 view .LVU790
 2169 01f8 1A80     		strh	r2, [r3]	@ movhi
 2170              	.LVL139:
  73:Core/Src/lcd.c **** 	
 2171              		.loc 1 73 51 view .LVU791
 2172              	.LBE710:
 2173              	.LBE709:
 490:Core/Src/lcd.c ****     ILI9341_Write_Data ( 0x02 );
 2174              		.loc 1 490 5 is_stmt 1 view .LVU792
 2175              	.LBB711:
 2176              	.LBI711:
  71:Core/Src/lcd.c **** {
 2177              		.loc 1 71 7 view .LVU793
 2178              	.LBB712:
  73:Core/Src/lcd.c **** 	
 2179              		.loc 1 73 2 view .LVU794
  73:Core/Src/lcd.c **** 	
 2180              		.loc 1 73 51 is_stmt 0 view .LVU795
 2181 01fa 3420     		movs	r0, #52
 2182 01fc 1880     		strh	r0, [r3]	@ movhi
 2183              	.LVL140:
  73:Core/Src/lcd.c **** 	
 2184              		.loc 1 73 51 view .LVU796
 2185              	.LBE712:
ARM GAS  C:\Users\84759\AppData\Local\Temp\cc1QWPm5.s 			page 69


 2186              	.LBE711:
 491:Core/Src/lcd.c ****     
 2187              		.loc 1 491 5 is_stmt 1 view .LVU797
 2188              	.LBB713:
 2189              	.LBI713:
  71:Core/Src/lcd.c **** {
 2190              		.loc 1 71 7 view .LVU798
 2191              	.LBB714:
  73:Core/Src/lcd.c **** 	
 2192              		.loc 1 73 2 view .LVU799
  73:Core/Src/lcd.c **** 	
 2193              		.loc 1 73 51 is_stmt 0 view .LVU800
 2194 01fe 0220     		movs	r0, #2
 2195 0200 1880     		strh	r0, [r3]	@ movhi
 2196              	.LVL141:
  73:Core/Src/lcd.c **** 	
 2197              		.loc 1 73 51 view .LVU801
 2198              	.LBE714:
 2199              	.LBE713:
 494:Core/Src/lcd.c ****     ILI9341_Write_Cmd ( 0xF7 );
 2200              		.loc 1 494 19 is_stmt 1 view .LVU802
 495:Core/Src/lcd.c ****     ILI9341_Write_Data ( 0x20 );
 2201              		.loc 1 495 5 view .LVU803
 2202              	.LBB715:
 2203              	.LBI715:
  59:Core/Src/lcd.c **** {
 2204              		.loc 1 59 7 view .LVU804
 2205              	.LBB716:
  61:Core/Src/lcd.c **** 	
 2206              		.loc 1 61 2 view .LVU805
  61:Core/Src/lcd.c **** 	
 2207              		.loc 1 61 50 is_stmt 0 view .LVU806
 2208 0202 F727     		movs	r7, #247
 2209 0204 2780     		strh	r7, [r4]	@ movhi
 2210              	.LVL142:
  61:Core/Src/lcd.c **** 	
 2211              		.loc 1 61 50 view .LVU807
 2212              	.LBE716:
 2213              	.LBE715:
 496:Core/Src/lcd.c ****     
 2214              		.loc 1 496 5 is_stmt 1 view .LVU808
 2215              	.LBB717:
 2216              	.LBI717:
  71:Core/Src/lcd.c **** {
 2217              		.loc 1 71 7 view .LVU809
 2218              	.LBB718:
  73:Core/Src/lcd.c **** 	
 2219              		.loc 1 73 2 view .LVU810
  73:Core/Src/lcd.c **** 	
 2220              		.loc 1 73 51 is_stmt 0 view .LVU811
 2221 0206 2027     		movs	r7, #32
 2222 0208 1F80     		strh	r7, [r3]	@ movhi
 2223              	.LVL143:
  73:Core/Src/lcd.c **** 	
 2224              		.loc 1 73 51 view .LVU812
 2225              	.LBE718:
 2226              	.LBE717:
ARM GAS  C:\Users\84759\AppData\Local\Temp\cc1QWPm5.s 			page 70


 499:Core/Src/lcd.c ****     ILI9341_Write_Cmd ( 0xEA );
 2227              		.loc 1 499 19 is_stmt 1 view .LVU813
 500:Core/Src/lcd.c ****     ILI9341_Write_Data ( 0x00 );
 2228              		.loc 1 500 5 view .LVU814
 2229              	.LBB719:
 2230              	.LBI719:
  59:Core/Src/lcd.c **** {
 2231              		.loc 1 59 7 view .LVU815
 2232              	.LBB720:
  61:Core/Src/lcd.c **** 	
 2233              		.loc 1 61 2 view .LVU816
  61:Core/Src/lcd.c **** 	
 2234              		.loc 1 61 50 is_stmt 0 view .LVU817
 2235 020a EA27     		movs	r7, #234
 2236 020c 2780     		strh	r7, [r4]	@ movhi
 2237              	.LVL144:
  61:Core/Src/lcd.c **** 	
 2238              		.loc 1 61 50 view .LVU818
 2239              	.LBE720:
 2240              	.LBE719:
 501:Core/Src/lcd.c ****     ILI9341_Write_Data ( 0x00 );
 2241              		.loc 1 501 5 is_stmt 1 view .LVU819
 2242              	.LBB721:
 2243              	.LBI721:
  71:Core/Src/lcd.c **** {
 2244              		.loc 1 71 7 view .LVU820
 2245              	.LBB722:
  73:Core/Src/lcd.c **** 	
 2246              		.loc 1 73 2 view .LVU821
  73:Core/Src/lcd.c **** 	
 2247              		.loc 1 73 51 is_stmt 0 view .LVU822
 2248 020e 1A80     		strh	r2, [r3]	@ movhi
 2249              	.LVL145:
  73:Core/Src/lcd.c **** 	
 2250              		.loc 1 73 51 view .LVU823
 2251              	.LBE722:
 2252              	.LBE721:
 502:Core/Src/lcd.c ****     
 2253              		.loc 1 502 5 is_stmt 1 view .LVU824
 2254              	.LBB723:
 2255              	.LBI723:
  71:Core/Src/lcd.c **** {
 2256              		.loc 1 71 7 view .LVU825
 2257              	.LBB724:
  73:Core/Src/lcd.c **** 	
 2258              		.loc 1 73 2 view .LVU826
  73:Core/Src/lcd.c **** 	
 2259              		.loc 1 73 51 is_stmt 0 view .LVU827
 2260 0210 1A80     		strh	r2, [r3]	@ movhi
 2261              	.LVL146:
  73:Core/Src/lcd.c **** 	
 2262              		.loc 1 73 51 view .LVU828
 2263              	.LBE724:
 2264              	.LBE723:
 506:Core/Src/lcd.c ****     ILI9341_Write_Cmd ( 0xC0 );   //Power control
 2265              		.loc 1 506 19 is_stmt 1 view .LVU829
 507:Core/Src/lcd.c ****     ILI9341_Write_Data ( 0x21 );  //VRH[5:0]
ARM GAS  C:\Users\84759\AppData\Local\Temp\cc1QWPm5.s 			page 71


 2266              		.loc 1 507 5 view .LVU830
 2267              	.LBB725:
 2268              	.LBI725:
  59:Core/Src/lcd.c **** {
 2269              		.loc 1 59 7 view .LVU831
 2270              	.LBB726:
  61:Core/Src/lcd.c **** 	
 2271              		.loc 1 61 2 view .LVU832
  61:Core/Src/lcd.c **** 	
 2272              		.loc 1 61 50 is_stmt 0 view .LVU833
 2273 0212 C027     		movs	r7, #192
 2274 0214 2780     		strh	r7, [r4]	@ movhi
 2275              	.LVL147:
  61:Core/Src/lcd.c **** 	
 2276              		.loc 1 61 50 view .LVU834
 2277              	.LBE726:
 2278              	.LBE725:
 508:Core/Src/lcd.c ****     
 2279              		.loc 1 508 5 is_stmt 1 view .LVU835
 2280              	.LBB727:
 2281              	.LBI727:
  71:Core/Src/lcd.c **** {
 2282              		.loc 1 71 7 view .LVU836
 2283              	.LBB728:
  73:Core/Src/lcd.c **** 	
 2284              		.loc 1 73 2 view .LVU837
  73:Core/Src/lcd.c **** 	
 2285              		.loc 1 73 51 is_stmt 0 view .LVU838
 2286 0216 2127     		movs	r7, #33
 2287 0218 1F80     		strh	r7, [r3]	@ movhi
 2288              	.LVL148:
  73:Core/Src/lcd.c **** 	
 2289              		.loc 1 73 51 view .LVU839
 2290              	.LBE728:
 2291              	.LBE727:
 511:Core/Src/lcd.c ****     ILI9341_Write_Cmd ( 0xC1 );   //Power control
 2292              		.loc 1 511 19 is_stmt 1 view .LVU840
 512:Core/Src/lcd.c ****     ILI9341_Write_Data ( 0x11 );  //SAP[2:0];BT[3:0]
 2293              		.loc 1 512 5 view .LVU841
 2294              	.LBB729:
 2295              	.LBI729:
  59:Core/Src/lcd.c **** {
 2296              		.loc 1 59 7 view .LVU842
 2297              	.LBB730:
  61:Core/Src/lcd.c **** 	
 2298              		.loc 1 61 2 view .LVU843
  61:Core/Src/lcd.c **** 	
 2299              		.loc 1 61 50 is_stmt 0 view .LVU844
 2300 021a 2680     		strh	r6, [r4]	@ movhi
 2301              	.LVL149:
  61:Core/Src/lcd.c **** 	
 2302              		.loc 1 61 50 view .LVU845
 2303              	.LBE730:
 2304              	.LBE729:
 513:Core/Src/lcd.c ****     
 2305              		.loc 1 513 5 is_stmt 1 view .LVU846
 2306              	.LBB731:
ARM GAS  C:\Users\84759\AppData\Local\Temp\cc1QWPm5.s 			page 72


 2307              	.LBI731:
  71:Core/Src/lcd.c **** {
 2308              		.loc 1 71 7 view .LVU847
 2309              	.LBB732:
  73:Core/Src/lcd.c **** 	
 2310              		.loc 1 73 2 view .LVU848
  73:Core/Src/lcd.c **** 	
 2311              		.loc 1 73 51 is_stmt 0 view .LVU849
 2312 021c 1127     		movs	r7, #17
 2313 021e 1F80     		strh	r7, [r3]	@ movhi
 2314              	.LVL150:
  73:Core/Src/lcd.c **** 	
 2315              		.loc 1 73 51 view .LVU850
 2316              	.LBE732:
 2317              	.LBE731:
 516:Core/Src/lcd.c ****     ILI9341_Write_Data ( 0x2D );
 2318              		.loc 1 516 5 is_stmt 1 view .LVU851
 2319              	.LBB733:
 2320              	.LBI733:
  59:Core/Src/lcd.c **** {
 2321              		.loc 1 59 7 view .LVU852
 2322              	.LBB734:
  61:Core/Src/lcd.c **** 	
 2323              		.loc 1 61 2 view .LVU853
  61:Core/Src/lcd.c **** 	
 2324              		.loc 1 61 50 is_stmt 0 view .LVU854
 2325 0220 C526     		movs	r6, #197
 2326 0222 2680     		strh	r6, [r4]	@ movhi
 2327              	.LVL151:
  61:Core/Src/lcd.c **** 	
 2328              		.loc 1 61 50 view .LVU855
 2329              	.LBE734:
 2330              	.LBE733:
 517:Core/Src/lcd.c ****     ILI9341_Write_Data ( 0x33 );
 2331              		.loc 1 517 5 is_stmt 1 view .LVU856
 2332              	.LBB735:
 2333              	.LBI735:
  71:Core/Src/lcd.c **** {
 2334              		.loc 1 71 7 view .LVU857
 2335              	.LBB736:
  73:Core/Src/lcd.c **** 	
 2336              		.loc 1 73 2 view .LVU858
  73:Core/Src/lcd.c **** 	
 2337              		.loc 1 73 51 is_stmt 0 view .LVU859
 2338 0224 4FF02D0C 		mov	ip, #45
 2339 0228 A3F800C0 		strh	ip, [r3]	@ movhi
 2340              	.LVL152:
  73:Core/Src/lcd.c **** 	
 2341              		.loc 1 73 51 view .LVU860
 2342              	.LBE736:
 2343              	.LBE735:
 518:Core/Src/lcd.c ****     
 2344              		.loc 1 518 5 is_stmt 1 view .LVU861
 2345              	.LBB737:
 2346              	.LBI737:
  71:Core/Src/lcd.c **** {
 2347              		.loc 1 71 7 view .LVU862
ARM GAS  C:\Users\84759\AppData\Local\Temp\cc1QWPm5.s 			page 73


 2348              	.LBB738:
  73:Core/Src/lcd.c **** 	
 2349              		.loc 1 73 2 view .LVU863
  73:Core/Src/lcd.c **** 	
 2350              		.loc 1 73 51 is_stmt 0 view .LVU864
 2351 022c 3326     		movs	r6, #51
 2352 022e 1E80     		strh	r6, [r3]	@ movhi
 2353              	.LVL153:
  73:Core/Src/lcd.c **** 	
 2354              		.loc 1 73 51 view .LVU865
 2355              	.LBE738:
 2356              	.LBE737:
 525:Core/Src/lcd.c ****     ILI9341_Write_Cmd ( 0x36 );   //Memory Access Control
 2357              		.loc 1 525 19 is_stmt 1 view .LVU866
 526:Core/Src/lcd.c ****     ILI9341_Write_Data ( 0x00 );  /*ĘúĆÁ  ×óÉĎ˝Çµ˝ (Ćđµă)µ˝ÓŇĎÂ˝Ç (ÖŐµă)É¨Ăč·˝Ę˝*/
 2358              		.loc 1 526 5 view .LVU867
 2359              	.LBB739:
 2360              	.LBI739:
  59:Core/Src/lcd.c **** {
 2361              		.loc 1 59 7 view .LVU868
 2362              	.LBB740:
  61:Core/Src/lcd.c **** 	
 2363              		.loc 1 61 2 view .LVU869
  61:Core/Src/lcd.c **** 	
 2364              		.loc 1 61 50 is_stmt 0 view .LVU870
 2365 0230 3626     		movs	r6, #54
 2366 0232 2680     		strh	r6, [r4]	@ movhi
 2367              	.LVL154:
  61:Core/Src/lcd.c **** 	
 2368              		.loc 1 61 50 view .LVU871
 2369              	.LBE740:
 2370              	.LBE739:
 527:Core/Src/lcd.c ****     DEBUG_DELAY ();
 2371              		.loc 1 527 5 is_stmt 1 view .LVU872
 2372              	.LBB741:
 2373              	.LBI741:
  71:Core/Src/lcd.c **** {
 2374              		.loc 1 71 7 view .LVU873
 2375              	.LBB742:
  73:Core/Src/lcd.c **** 	
 2376              		.loc 1 73 2 view .LVU874
  73:Core/Src/lcd.c **** 	
 2377              		.loc 1 73 51 is_stmt 0 view .LVU875
 2378 0234 1A80     		strh	r2, [r3]	@ movhi
 2379              	.LVL155:
  73:Core/Src/lcd.c **** 	
 2380              		.loc 1 73 51 view .LVU876
 2381              	.LBE742:
 2382              	.LBE741:
 528:Core/Src/lcd.c ****     
 2383              		.loc 1 528 19 is_stmt 1 view .LVU877
 530:Core/Src/lcd.c ****     ILI9341_Write_Data(0x55); 
 2384              		.loc 1 530 5 view .LVU878
 2385              	.LBB743:
 2386              	.LBI743:
  59:Core/Src/lcd.c **** {
 2387              		.loc 1 59 7 view .LVU879
ARM GAS  C:\Users\84759\AppData\Local\Temp\cc1QWPm5.s 			page 74


 2388              	.LBB744:
  61:Core/Src/lcd.c **** 	
 2389              		.loc 1 61 2 view .LVU880
  61:Core/Src/lcd.c **** 	
 2390              		.loc 1 61 50 is_stmt 0 view .LVU881
 2391 0236 3A26     		movs	r6, #58
 2392 0238 2680     		strh	r6, [r4]	@ movhi
 2393              	.LVL156:
  61:Core/Src/lcd.c **** 	
 2394              		.loc 1 61 50 view .LVU882
 2395              	.LBE744:
 2396              	.LBE743:
 531:Core/Src/lcd.c ****     
 2397              		.loc 1 531 5 is_stmt 1 view .LVU883
 2398              	.LBB745:
 2399              	.LBI745:
  71:Core/Src/lcd.c **** {
 2400              		.loc 1 71 7 view .LVU884
 2401              	.LBB746:
  73:Core/Src/lcd.c **** 	
 2402              		.loc 1 73 2 view .LVU885
  73:Core/Src/lcd.c **** 	
 2403              		.loc 1 73 51 is_stmt 0 view .LVU886
 2404 023a 5526     		movs	r6, #85
 2405 023c 1E80     		strh	r6, [r3]	@ movhi
 2406              	.LVL157:
  73:Core/Src/lcd.c **** 	
 2407              		.loc 1 73 51 view .LVU887
 2408              	.LBE746:
 2409              	.LBE745:
 534:Core/Src/lcd.c ****     ILI9341_Write_Cmd ( 0xB1 );
 2410              		.loc 1 534 19 is_stmt 1 view .LVU888
 535:Core/Src/lcd.c ****     ILI9341_Write_Data ( 0x00 );
 2411              		.loc 1 535 5 view .LVU889
 2412              	.LBB747:
 2413              	.LBI747:
  59:Core/Src/lcd.c **** {
 2414              		.loc 1 59 7 view .LVU890
 2415              	.LBB748:
  61:Core/Src/lcd.c **** 	
 2416              		.loc 1 61 2 view .LVU891
  61:Core/Src/lcd.c **** 	
 2417              		.loc 1 61 50 is_stmt 0 view .LVU892
 2418 023e B126     		movs	r6, #177
 2419 0240 2680     		strh	r6, [r4]	@ movhi
 2420              	.LVL158:
  61:Core/Src/lcd.c **** 	
 2421              		.loc 1 61 50 view .LVU893
 2422              	.LBE748:
 2423              	.LBE747:
 536:Core/Src/lcd.c ****     ILI9341_Write_Data ( 0x17 );
 2424              		.loc 1 536 5 is_stmt 1 view .LVU894
 2425              	.LBB749:
 2426              	.LBI749:
  71:Core/Src/lcd.c **** {
 2427              		.loc 1 71 7 view .LVU895
 2428              	.LBB750:
ARM GAS  C:\Users\84759\AppData\Local\Temp\cc1QWPm5.s 			page 75


  73:Core/Src/lcd.c **** 	
 2429              		.loc 1 73 2 view .LVU896
  73:Core/Src/lcd.c **** 	
 2430              		.loc 1 73 51 is_stmt 0 view .LVU897
 2431 0242 1A80     		strh	r2, [r3]	@ movhi
 2432              	.LVL159:
  73:Core/Src/lcd.c **** 	
 2433              		.loc 1 73 51 view .LVU898
 2434              	.LBE750:
 2435              	.LBE749:
 537:Core/Src/lcd.c ****     
 2436              		.loc 1 537 5 is_stmt 1 view .LVU899
 2437              	.LBB751:
 2438              	.LBI751:
  71:Core/Src/lcd.c **** {
 2439              		.loc 1 71 7 view .LVU900
 2440              	.LBB752:
  73:Core/Src/lcd.c **** 	
 2441              		.loc 1 73 2 view .LVU901
  73:Core/Src/lcd.c **** 	
 2442              		.loc 1 73 51 is_stmt 0 view .LVU902
 2443 0244 4FF01709 		mov	r9, #23
 2444 0248 A3F80090 		strh	r9, [r3]	@ movhi
 2445              	.LVL160:
  73:Core/Src/lcd.c **** 	
 2446              		.loc 1 73 51 view .LVU903
 2447              	.LBE752:
 2448              	.LBE751:
 540:Core/Src/lcd.c ****     ILI9341_Write_Cmd ( 0xB6 );
 2449              		.loc 1 540 19 is_stmt 1 view .LVU904
 541:Core/Src/lcd.c ****     ILI9341_Write_Data ( 0x0A );
 2450              		.loc 1 541 5 view .LVU905
 2451              	.LBB753:
 2452              	.LBI753:
  59:Core/Src/lcd.c **** {
 2453              		.loc 1 59 7 view .LVU906
 2454              	.LBB754:
  61:Core/Src/lcd.c **** 	
 2455              		.loc 1 61 2 view .LVU907
  61:Core/Src/lcd.c **** 	
 2456              		.loc 1 61 50 is_stmt 0 view .LVU908
 2457 024c B626     		movs	r6, #182
 2458 024e 2680     		strh	r6, [r4]	@ movhi
 2459              	.LVL161:
  61:Core/Src/lcd.c **** 	
 2460              		.loc 1 61 50 view .LVU909
 2461              	.LBE754:
 2462              	.LBE753:
 542:Core/Src/lcd.c ****     ILI9341_Write_Data ( 0xA2 );
 2463              		.loc 1 542 5 is_stmt 1 view .LVU910
 2464              	.LBB755:
 2465              	.LBI755:
  71:Core/Src/lcd.c **** {
 2466              		.loc 1 71 7 view .LVU911
 2467              	.LBB756:
  73:Core/Src/lcd.c **** 	
 2468              		.loc 1 73 2 view .LVU912
ARM GAS  C:\Users\84759\AppData\Local\Temp\cc1QWPm5.s 			page 76


  73:Core/Src/lcd.c **** 	
 2469              		.loc 1 73 51 is_stmt 0 view .LVU913
 2470 0250 0A26     		movs	r6, #10
 2471 0252 1E80     		strh	r6, [r3]	@ movhi
 2472              	.LVL162:
  73:Core/Src/lcd.c **** 	
 2473              		.loc 1 73 51 view .LVU914
 2474              	.LBE756:
 2475              	.LBE755:
 543:Core/Src/lcd.c ****     
 2476              		.loc 1 543 5 is_stmt 1 view .LVU915
 2477              	.LBB757:
 2478              	.LBI757:
  71:Core/Src/lcd.c **** {
 2479              		.loc 1 71 7 view .LVU916
 2480              	.LBB758:
  73:Core/Src/lcd.c **** 	
 2481              		.loc 1 73 2 view .LVU917
  73:Core/Src/lcd.c **** 	
 2482              		.loc 1 73 51 is_stmt 0 view .LVU918
 2483 0254 A226     		movs	r6, #162
 2484 0256 1E80     		strh	r6, [r3]	@ movhi
 2485              	.LVL163:
  73:Core/Src/lcd.c **** 	
 2486              		.loc 1 73 51 view .LVU919
 2487              	.LBE758:
 2488              	.LBE757:
 545:Core/Src/lcd.c ****     ILI9341_Write_Data(0x01); 
 2489              		.loc 1 545 5 is_stmt 1 view .LVU920
 2490              	.LBB759:
 2491              	.LBI759:
  59:Core/Src/lcd.c **** {
 2492              		.loc 1 59 7 view .LVU921
 2493              	.LBB760:
  61:Core/Src/lcd.c **** 	
 2494              		.loc 1 61 2 view .LVU922
  61:Core/Src/lcd.c **** 	
 2495              		.loc 1 61 50 is_stmt 0 view .LVU923
 2496 0258 F626     		movs	r6, #246
 2497 025a 2680     		strh	r6, [r4]	@ movhi
 2498              	.LVL164:
  61:Core/Src/lcd.c **** 	
 2499              		.loc 1 61 50 view .LVU924
 2500              	.LBE760:
 2501              	.LBE759:
 546:Core/Src/lcd.c ****     ILI9341_Write_Data(0x30); 
 2502              		.loc 1 546 5 is_stmt 1 view .LVU925
 2503              	.LBB761:
 2504              	.LBI761:
  71:Core/Src/lcd.c **** {
 2505              		.loc 1 71 7 view .LVU926
 2506              	.LBB762:
  73:Core/Src/lcd.c **** 	
 2507              		.loc 1 73 2 view .LVU927
  73:Core/Src/lcd.c **** 	
 2508              		.loc 1 73 51 is_stmt 0 view .LVU928
 2509 025c 0126     		movs	r6, #1
ARM GAS  C:\Users\84759\AppData\Local\Temp\cc1QWPm5.s 			page 77


 2510 025e 1E80     		strh	r6, [r3]	@ movhi
 2511              	.LVL165:
  73:Core/Src/lcd.c **** 	
 2512              		.loc 1 73 51 view .LVU929
 2513              	.LBE762:
 2514              	.LBE761:
 547:Core/Src/lcd.c ****     
 2515              		.loc 1 547 5 is_stmt 1 view .LVU930
 2516              	.LBB763:
 2517              	.LBI763:
  71:Core/Src/lcd.c **** {
 2518              		.loc 1 71 7 view .LVU931
 2519              	.LBB764:
  73:Core/Src/lcd.c **** 	
 2520              		.loc 1 73 2 view .LVU932
  73:Core/Src/lcd.c **** 	
 2521              		.loc 1 73 51 is_stmt 0 view .LVU933
 2522 0260 A3F800E0 		strh	lr, [r3]	@ movhi
 2523              	.LVL166:
  73:Core/Src/lcd.c **** 	
 2524              		.loc 1 73 51 view .LVU934
 2525              	.LBE764:
 2526              	.LBE763:
 550:Core/Src/lcd.c ****     ILI9341_Write_Data ( 0x00 );
 2527              		.loc 1 550 5 is_stmt 1 view .LVU935
 2528              	.LBB765:
 2529              	.LBI765:
  59:Core/Src/lcd.c **** {
 2530              		.loc 1 59 7 view .LVU936
 2531              	.LBB766:
  61:Core/Src/lcd.c **** 	
 2532              		.loc 1 61 2 view .LVU937
  61:Core/Src/lcd.c **** 	
 2533              		.loc 1 61 50 is_stmt 0 view .LVU938
 2534 0264 4FF0F20E 		mov	lr, #242
 2535 0268 A4F800E0 		strh	lr, [r4]	@ movhi
 2536              	.LVL167:
  61:Core/Src/lcd.c **** 	
 2537              		.loc 1 61 50 view .LVU939
 2538              	.LBE766:
 2539              	.LBE765:
 551:Core/Src/lcd.c ****     
 2540              		.loc 1 551 5 is_stmt 1 view .LVU940
 2541              	.LBB767:
 2542              	.LBI767:
  71:Core/Src/lcd.c **** {
 2543              		.loc 1 71 7 view .LVU941
 2544              	.LBB768:
  73:Core/Src/lcd.c **** 	
 2545              		.loc 1 73 2 view .LVU942
  73:Core/Src/lcd.c **** 	
 2546              		.loc 1 73 51 is_stmt 0 view .LVU943
 2547 026c 1A80     		strh	r2, [r3]	@ movhi
 2548              	.LVL168:
  73:Core/Src/lcd.c **** 	
 2549              		.loc 1 73 51 view .LVU944
 2550              	.LBE768:
ARM GAS  C:\Users\84759\AppData\Local\Temp\cc1QWPm5.s 			page 78


 2551              	.LBE767:
 554:Core/Src/lcd.c ****     ILI9341_Write_Data ( 0x01 );
 2552              		.loc 1 554 5 is_stmt 1 view .LVU945
 2553              	.LBB769:
 2554              	.LBI769:
  59:Core/Src/lcd.c **** {
 2555              		.loc 1 59 7 view .LVU946
 2556              	.LBB770:
  61:Core/Src/lcd.c **** 	
 2557              		.loc 1 61 2 view .LVU947
  61:Core/Src/lcd.c **** 	
 2558              		.loc 1 61 50 is_stmt 0 view .LVU948
 2559 026e 4FF0260E 		mov	lr, #38
 2560 0272 A4F800E0 		strh	lr, [r4]	@ movhi
 2561              	.LVL169:
  61:Core/Src/lcd.c **** 	
 2562              		.loc 1 61 50 view .LVU949
 2563              	.LBE770:
 2564              	.LBE769:
 555:Core/Src/lcd.c ****     DEBUG_DELAY ();
 2565              		.loc 1 555 5 is_stmt 1 view .LVU950
 2566              	.LBB771:
 2567              	.LBI771:
  71:Core/Src/lcd.c **** {
 2568              		.loc 1 71 7 view .LVU951
 2569              	.LBB772:
  73:Core/Src/lcd.c **** 	
 2570              		.loc 1 73 2 view .LVU952
  73:Core/Src/lcd.c **** 	
 2571              		.loc 1 73 51 is_stmt 0 view .LVU953
 2572 0276 1E80     		strh	r6, [r3]	@ movhi
 2573              	.LVL170:
  73:Core/Src/lcd.c **** 	
 2574              		.loc 1 73 51 view .LVU954
 2575              	.LBE772:
 2576              	.LBE771:
 556:Core/Src/lcd.c ****     
 2577              		.loc 1 556 19 is_stmt 1 view .LVU955
 559:Core/Src/lcd.c ****     ILI9341_Write_Data(0xd0);         
 2578              		.loc 1 559 5 view .LVU956
 2579              	.LBB773:
 2580              	.LBI773:
  59:Core/Src/lcd.c **** {
 2581              		.loc 1 59 7 view .LVU957
 2582              	.LBB774:
  61:Core/Src/lcd.c **** 	
 2583              		.loc 1 61 2 view .LVU958
  61:Core/Src/lcd.c **** 	
 2584              		.loc 1 61 50 is_stmt 0 view .LVU959
 2585 0278 E026     		movs	r6, #224
 2586 027a 2680     		strh	r6, [r4]	@ movhi
 2587              	.LVL171:
  61:Core/Src/lcd.c **** 	
 2588              		.loc 1 61 50 view .LVU960
 2589              	.LBE774:
 2590              	.LBE773:
 560:Core/Src/lcd.c ****     ILI9341_Write_Data(0x00); 
ARM GAS  C:\Users\84759\AppData\Local\Temp\cc1QWPm5.s 			page 79


 2591              		.loc 1 560 5 is_stmt 1 view .LVU961
 2592              	.LBB775:
 2593              	.LBI775:
  71:Core/Src/lcd.c **** {
 2594              		.loc 1 71 7 view .LVU962
 2595              	.LBB776:
  73:Core/Src/lcd.c **** 	
 2596              		.loc 1 73 2 view .LVU963
  73:Core/Src/lcd.c **** 	
 2597              		.loc 1 73 51 is_stmt 0 view .LVU964
 2598 027c 4FF0D008 		mov	r8, #208
 2599 0280 A3F80080 		strh	r8, [r3]	@ movhi
 2600              	.LVL172:
  73:Core/Src/lcd.c **** 	
 2601              		.loc 1 73 51 view .LVU965
 2602              	.LBE776:
 2603              	.LBE775:
 561:Core/Src/lcd.c ****     ILI9341_Write_Data(0x02); 
 2604              		.loc 1 561 5 is_stmt 1 view .LVU966
 2605              	.LBB777:
 2606              	.LBI777:
  71:Core/Src/lcd.c **** {
 2607              		.loc 1 71 7 view .LVU967
 2608              	.LBB778:
  73:Core/Src/lcd.c **** 	
 2609              		.loc 1 73 2 view .LVU968
  73:Core/Src/lcd.c **** 	
 2610              		.loc 1 73 51 is_stmt 0 view .LVU969
 2611 0284 1A80     		strh	r2, [r3]	@ movhi
 2612              	.LVL173:
  73:Core/Src/lcd.c **** 	
 2613              		.loc 1 73 51 view .LVU970
 2614              	.LBE778:
 2615              	.LBE777:
 562:Core/Src/lcd.c ****     ILI9341_Write_Data(0x07); 
 2616              		.loc 1 562 5 is_stmt 1 view .LVU971
 2617              	.LBB779:
 2618              	.LBI779:
  71:Core/Src/lcd.c **** {
 2619              		.loc 1 71 7 view .LVU972
 2620              	.LBB780:
  73:Core/Src/lcd.c **** 	
 2621              		.loc 1 73 2 view .LVU973
  73:Core/Src/lcd.c **** 	
 2622              		.loc 1 73 51 is_stmt 0 view .LVU974
 2623 0286 1880     		strh	r0, [r3]	@ movhi
 2624              	.LVL174:
  73:Core/Src/lcd.c **** 	
 2625              		.loc 1 73 51 view .LVU975
 2626              	.LBE780:
 2627              	.LBE779:
 563:Core/Src/lcd.c ****     ILI9341_Write_Data(0x0b); 
 2628              		.loc 1 563 5 is_stmt 1 view .LVU976
 2629              	.LBB781:
 2630              	.LBI781:
  71:Core/Src/lcd.c **** {
 2631              		.loc 1 71 7 view .LVU977
ARM GAS  C:\Users\84759\AppData\Local\Temp\cc1QWPm5.s 			page 80


 2632              	.LBB782:
  73:Core/Src/lcd.c **** 	
 2633              		.loc 1 73 2 view .LVU978
  73:Core/Src/lcd.c **** 	
 2634              		.loc 1 73 51 is_stmt 0 view .LVU979
 2635 0288 4FF0070E 		mov	lr, #7
 2636 028c A3F800E0 		strh	lr, [r3]	@ movhi
 2637              	.LVL175:
  73:Core/Src/lcd.c **** 	
 2638              		.loc 1 73 51 view .LVU980
 2639              	.LBE782:
 2640              	.LBE781:
 564:Core/Src/lcd.c ****     ILI9341_Write_Data(0x1a); 
 2641              		.loc 1 564 5 is_stmt 1 view .LVU981
 2642              	.LBB783:
 2643              	.LBI783:
  71:Core/Src/lcd.c **** {
 2644              		.loc 1 71 7 view .LVU982
 2645              	.LBB784:
  73:Core/Src/lcd.c **** 	
 2646              		.loc 1 73 2 view .LVU983
  73:Core/Src/lcd.c **** 	
 2647              		.loc 1 73 51 is_stmt 0 view .LVU984
 2648 0290 0B26     		movs	r6, #11
 2649 0292 1E80     		strh	r6, [r3]	@ movhi
 2650              	.LVL176:
  73:Core/Src/lcd.c **** 	
 2651              		.loc 1 73 51 view .LVU985
 2652              	.LBE784:
 2653              	.LBE783:
 565:Core/Src/lcd.c ****     ILI9341_Write_Data(0x31); 
 2654              		.loc 1 565 5 is_stmt 1 view .LVU986
 2655              	.LBB785:
 2656              	.LBI785:
  71:Core/Src/lcd.c **** {
 2657              		.loc 1 71 7 view .LVU987
 2658              	.LBB786:
  73:Core/Src/lcd.c **** 	
 2659              		.loc 1 73 2 view .LVU988
  73:Core/Src/lcd.c **** 	
 2660              		.loc 1 73 51 is_stmt 0 view .LVU989
 2661 0294 1A26     		movs	r6, #26
 2662 0296 1E80     		strh	r6, [r3]	@ movhi
 2663              	.LVL177:
  73:Core/Src/lcd.c **** 	
 2664              		.loc 1 73 51 view .LVU990
 2665              	.LBE786:
 2666              	.LBE785:
 566:Core/Src/lcd.c ****     ILI9341_Write_Data(0x54); 
 2667              		.loc 1 566 5 is_stmt 1 view .LVU991
 2668              	.LBB787:
 2669              	.LBI787:
  71:Core/Src/lcd.c **** {
 2670              		.loc 1 71 7 view .LVU992
 2671              	.LBB788:
  73:Core/Src/lcd.c **** 	
 2672              		.loc 1 73 2 view .LVU993
ARM GAS  C:\Users\84759\AppData\Local\Temp\cc1QWPm5.s 			page 81


  73:Core/Src/lcd.c **** 	
 2673              		.loc 1 73 51 is_stmt 0 view .LVU994
 2674 0298 3126     		movs	r6, #49
 2675 029a 1E80     		strh	r6, [r3]	@ movhi
 2676              	.LVL178:
  73:Core/Src/lcd.c **** 	
 2677              		.loc 1 73 51 view .LVU995
 2678              	.LBE788:
 2679              	.LBE787:
 567:Core/Src/lcd.c ****     ILI9341_Write_Data(0x40); 
 2680              		.loc 1 567 5 is_stmt 1 view .LVU996
 2681              	.LBB789:
 2682              	.LBI789:
  71:Core/Src/lcd.c **** {
 2683              		.loc 1 71 7 view .LVU997
 2684              	.LBB790:
  73:Core/Src/lcd.c **** 	
 2685              		.loc 1 73 2 view .LVU998
  73:Core/Src/lcd.c **** 	
 2686              		.loc 1 73 51 is_stmt 0 view .LVU999
 2687 029c 5426     		movs	r6, #84
 2688 029e 1E80     		strh	r6, [r3]	@ movhi
 2689              	.LVL179:
  73:Core/Src/lcd.c **** 	
 2690              		.loc 1 73 51 view .LVU1000
 2691              	.LBE790:
 2692              	.LBE789:
 568:Core/Src/lcd.c ****     ILI9341_Write_Data(0x29); 
 2693              		.loc 1 568 5 is_stmt 1 view .LVU1001
 2694              	.LBB791:
 2695              	.LBI791:
  71:Core/Src/lcd.c **** {
 2696              		.loc 1 71 7 view .LVU1002
 2697              	.LBB792:
  73:Core/Src/lcd.c **** 	
 2698              		.loc 1 73 2 view .LVU1003
  73:Core/Src/lcd.c **** 	
 2699              		.loc 1 73 51 is_stmt 0 view .LVU1004
 2700 02a0 4026     		movs	r6, #64
 2701 02a2 1E80     		strh	r6, [r3]	@ movhi
 2702              	.LVL180:
  73:Core/Src/lcd.c **** 	
 2703              		.loc 1 73 51 view .LVU1005
 2704              	.LBE792:
 2705              	.LBE791:
 569:Core/Src/lcd.c ****     ILI9341_Write_Data(0x12); 
 2706              		.loc 1 569 5 is_stmt 1 view .LVU1006
 2707              	.LBB793:
 2708              	.LBI793:
  71:Core/Src/lcd.c **** {
 2709              		.loc 1 71 7 view .LVU1007
 2710              	.LBB794:
  73:Core/Src/lcd.c **** 	
 2711              		.loc 1 73 2 view .LVU1008
  73:Core/Src/lcd.c **** 	
 2712              		.loc 1 73 51 is_stmt 0 view .LVU1009
 2713 02a4 2926     		movs	r6, #41
ARM GAS  C:\Users\84759\AppData\Local\Temp\cc1QWPm5.s 			page 82


 2714 02a6 1E80     		strh	r6, [r3]	@ movhi
 2715              	.LVL181:
  73:Core/Src/lcd.c **** 	
 2716              		.loc 1 73 51 view .LVU1010
 2717              	.LBE794:
 2718              	.LBE793:
 570:Core/Src/lcd.c ****     ILI9341_Write_Data(0x12); 
 2719              		.loc 1 570 5 is_stmt 1 view .LVU1011
 2720              	.LBB795:
 2721              	.LBI795:
  71:Core/Src/lcd.c **** {
 2722              		.loc 1 71 7 view .LVU1012
 2723              	.LBB796:
  73:Core/Src/lcd.c **** 	
 2724              		.loc 1 73 2 view .LVU1013
  73:Core/Src/lcd.c **** 	
 2725              		.loc 1 73 51 is_stmt 0 view .LVU1014
 2726 02a8 1980     		strh	r1, [r3]	@ movhi
 2727              	.LVL182:
  73:Core/Src/lcd.c **** 	
 2728              		.loc 1 73 51 view .LVU1015
 2729              	.LBE796:
 2730              	.LBE795:
 571:Core/Src/lcd.c ****     ILI9341_Write_Data(0x12); 
 2731              		.loc 1 571 5 is_stmt 1 view .LVU1016
 2732              	.LBB797:
 2733              	.LBI797:
  71:Core/Src/lcd.c **** {
 2734              		.loc 1 71 7 view .LVU1017
 2735              	.LBB798:
  73:Core/Src/lcd.c **** 	
 2736              		.loc 1 73 2 view .LVU1018
  73:Core/Src/lcd.c **** 	
 2737              		.loc 1 73 51 is_stmt 0 view .LVU1019
 2738 02aa 1980     		strh	r1, [r3]	@ movhi
 2739              	.LVL183:
  73:Core/Src/lcd.c **** 	
 2740              		.loc 1 73 51 view .LVU1020
 2741              	.LBE798:
 2742              	.LBE797:
 572:Core/Src/lcd.c ****     ILI9341_Write_Data(0x17);
 2743              		.loc 1 572 5 is_stmt 1 view .LVU1021
 2744              	.LBB799:
 2745              	.LBI799:
  71:Core/Src/lcd.c **** {
 2746              		.loc 1 71 7 view .LVU1022
 2747              	.LBB800:
  73:Core/Src/lcd.c **** 	
 2748              		.loc 1 73 2 view .LVU1023
  73:Core/Src/lcd.c **** 	
 2749              		.loc 1 73 51 is_stmt 0 view .LVU1024
 2750 02ac 1980     		strh	r1, [r3]	@ movhi
 2751              	.LVL184:
  73:Core/Src/lcd.c **** 	
 2752              		.loc 1 73 51 view .LVU1025
 2753              	.LBE800:
 2754              	.LBE799:
ARM GAS  C:\Users\84759\AppData\Local\Temp\cc1QWPm5.s 			page 83


 573:Core/Src/lcd.c **** 
 2755              		.loc 1 573 5 is_stmt 1 view .LVU1026
 2756              	.LBB801:
 2757              	.LBI801:
  71:Core/Src/lcd.c **** {
 2758              		.loc 1 71 7 view .LVU1027
 2759              	.LBB802:
  73:Core/Src/lcd.c **** 	
 2760              		.loc 1 73 2 view .LVU1028
  73:Core/Src/lcd.c **** 	
 2761              		.loc 1 73 51 is_stmt 0 view .LVU1029
 2762 02ae A3F80090 		strh	r9, [r3]	@ movhi
 2763              	.LVL185:
  73:Core/Src/lcd.c **** 	
 2764              		.loc 1 73 51 view .LVU1030
 2765              	.LBE802:
 2766              	.LBE801:
 576:Core/Src/lcd.c ****     ILI9341_Write_Data(0xd0); 
 2767              		.loc 1 576 5 is_stmt 1 view .LVU1031
 2768              	.LBB803:
 2769              	.LBI803:
  59:Core/Src/lcd.c **** {
 2770              		.loc 1 59 7 view .LVU1032
 2771              	.LBB804:
  61:Core/Src/lcd.c **** 	
 2772              		.loc 1 61 2 view .LVU1033
  61:Core/Src/lcd.c **** 	
 2773              		.loc 1 61 50 is_stmt 0 view .LVU1034
 2774 02b2 E121     		movs	r1, #225
 2775 02b4 2180     		strh	r1, [r4]	@ movhi
 2776              	.LVL186:
  61:Core/Src/lcd.c **** 	
 2777              		.loc 1 61 50 view .LVU1035
 2778              	.LBE804:
 2779              	.LBE803:
 577:Core/Src/lcd.c ****     ILI9341_Write_Data(0x00); 
 2780              		.loc 1 577 5 is_stmt 1 view .LVU1036
 2781              	.LBB805:
 2782              	.LBI805:
  71:Core/Src/lcd.c **** {
 2783              		.loc 1 71 7 view .LVU1037
 2784              	.LBB806:
  73:Core/Src/lcd.c **** 	
 2785              		.loc 1 73 2 view .LVU1038
  73:Core/Src/lcd.c **** 	
 2786              		.loc 1 73 51 is_stmt 0 view .LVU1039
 2787 02b6 A3F80080 		strh	r8, [r3]	@ movhi
 2788              	.LVL187:
  73:Core/Src/lcd.c **** 	
 2789              		.loc 1 73 51 view .LVU1040
 2790              	.LBE806:
 2791              	.LBE805:
 578:Core/Src/lcd.c ****     ILI9341_Write_Data(0x02); 
 2792              		.loc 1 578 5 is_stmt 1 view .LVU1041
 2793              	.LBB807:
 2794              	.LBI807:
  71:Core/Src/lcd.c **** {
ARM GAS  C:\Users\84759\AppData\Local\Temp\cc1QWPm5.s 			page 84


 2795              		.loc 1 71 7 view .LVU1042
 2796              	.LBB808:
  73:Core/Src/lcd.c **** 	
 2797              		.loc 1 73 2 view .LVU1043
  73:Core/Src/lcd.c **** 	
 2798              		.loc 1 73 51 is_stmt 0 view .LVU1044
 2799 02ba 1A80     		strh	r2, [r3]	@ movhi
 2800              	.LVL188:
  73:Core/Src/lcd.c **** 	
 2801              		.loc 1 73 51 view .LVU1045
 2802              	.LBE808:
 2803              	.LBE807:
 579:Core/Src/lcd.c ****     ILI9341_Write_Data(0x07); 
 2804              		.loc 1 579 5 is_stmt 1 view .LVU1046
 2805              	.LBB809:
 2806              	.LBI809:
  71:Core/Src/lcd.c **** {
 2807              		.loc 1 71 7 view .LVU1047
 2808              	.LBB810:
  73:Core/Src/lcd.c **** 	
 2809              		.loc 1 73 2 view .LVU1048
  73:Core/Src/lcd.c **** 	
 2810              		.loc 1 73 51 is_stmt 0 view .LVU1049
 2811 02bc 1880     		strh	r0, [r3]	@ movhi
 2812              	.LVL189:
  73:Core/Src/lcd.c **** 	
 2813              		.loc 1 73 51 view .LVU1050
 2814              	.LBE810:
 2815              	.LBE809:
 580:Core/Src/lcd.c ****     ILI9341_Write_Data(0x05); 
 2816              		.loc 1 580 5 is_stmt 1 view .LVU1051
 2817              	.LBB811:
 2818              	.LBI811:
  71:Core/Src/lcd.c **** {
 2819              		.loc 1 71 7 view .LVU1052
 2820              	.LBB812:
  73:Core/Src/lcd.c **** 	
 2821              		.loc 1 73 2 view .LVU1053
  73:Core/Src/lcd.c **** 	
 2822              		.loc 1 73 51 is_stmt 0 view .LVU1054
 2823 02be A3F800E0 		strh	lr, [r3]	@ movhi
 2824              	.LVL190:
  73:Core/Src/lcd.c **** 	
 2825              		.loc 1 73 51 view .LVU1055
 2826              	.LBE812:
 2827              	.LBE811:
 581:Core/Src/lcd.c ****     ILI9341_Write_Data(0x25); 
 2828              		.loc 1 581 5 is_stmt 1 view .LVU1056
 2829              	.LBB813:
 2830              	.LBI813:
  71:Core/Src/lcd.c **** {
 2831              		.loc 1 71 7 view .LVU1057
 2832              	.LBB814:
  73:Core/Src/lcd.c **** 	
 2833              		.loc 1 73 2 view .LVU1058
  73:Core/Src/lcd.c **** 	
 2834              		.loc 1 73 51 is_stmt 0 view .LVU1059
ARM GAS  C:\Users\84759\AppData\Local\Temp\cc1QWPm5.s 			page 85


 2835 02c2 0522     		movs	r2, #5
 2836 02c4 1A80     		strh	r2, [r3]	@ movhi
 2837              	.LVL191:
  73:Core/Src/lcd.c **** 	
 2838              		.loc 1 73 51 view .LVU1060
 2839              	.LBE814:
 2840              	.LBE813:
 582:Core/Src/lcd.c ****     ILI9341_Write_Data(0x2d); 
 2841              		.loc 1 582 5 is_stmt 1 view .LVU1061
 2842              	.LBB815:
 2843              	.LBI815:
  71:Core/Src/lcd.c **** {
 2844              		.loc 1 71 7 view .LVU1062
 2845              	.LBB816:
  73:Core/Src/lcd.c **** 	
 2846              		.loc 1 73 2 view .LVU1063
  73:Core/Src/lcd.c **** 	
 2847              		.loc 1 73 51 is_stmt 0 view .LVU1064
 2848 02c6 2522     		movs	r2, #37
 2849 02c8 1A80     		strh	r2, [r3]	@ movhi
 2850              	.LVL192:
  73:Core/Src/lcd.c **** 	
 2851              		.loc 1 73 51 view .LVU1065
 2852              	.LBE816:
 2853              	.LBE815:
 583:Core/Src/lcd.c ****     ILI9341_Write_Data(0x44); 
 2854              		.loc 1 583 5 is_stmt 1 view .LVU1066
 2855              	.LBB817:
 2856              	.LBI817:
  71:Core/Src/lcd.c **** {
 2857              		.loc 1 71 7 view .LVU1067
 2858              	.LBB818:
  73:Core/Src/lcd.c **** 	
 2859              		.loc 1 73 2 view .LVU1068
  73:Core/Src/lcd.c **** 	
 2860              		.loc 1 73 51 is_stmt 0 view .LVU1069
 2861 02ca A3F800C0 		strh	ip, [r3]	@ movhi
 2862              	.LVL193:
  73:Core/Src/lcd.c **** 	
 2863              		.loc 1 73 51 view .LVU1070
 2864              	.LBE818:
 2865              	.LBE817:
 584:Core/Src/lcd.c ****     ILI9341_Write_Data(0x45); 
 2866              		.loc 1 584 5 is_stmt 1 view .LVU1071
 2867              	.LBB819:
 2868              	.LBI819:
  71:Core/Src/lcd.c **** {
 2869              		.loc 1 71 7 view .LVU1072
 2870              	.LBB820:
  73:Core/Src/lcd.c **** 	
 2871              		.loc 1 73 2 view .LVU1073
  73:Core/Src/lcd.c **** 	
 2872              		.loc 1 73 51 is_stmt 0 view .LVU1074
 2873 02ce 4422     		movs	r2, #68
 2874 02d0 1A80     		strh	r2, [r3]	@ movhi
 2875              	.LVL194:
  73:Core/Src/lcd.c **** 	
ARM GAS  C:\Users\84759\AppData\Local\Temp\cc1QWPm5.s 			page 86


 2876              		.loc 1 73 51 view .LVU1075
 2877              	.LBE820:
 2878              	.LBE819:
 585:Core/Src/lcd.c ****     ILI9341_Write_Data(0x1c); 
 2879              		.loc 1 585 5 is_stmt 1 view .LVU1076
 2880              	.LBB821:
 2881              	.LBI821:
  71:Core/Src/lcd.c **** {
 2882              		.loc 1 71 7 view .LVU1077
 2883              	.LBB822:
  73:Core/Src/lcd.c **** 	
 2884              		.loc 1 73 2 view .LVU1078
  73:Core/Src/lcd.c **** 	
 2885              		.loc 1 73 51 is_stmt 0 view .LVU1079
 2886 02d2 4522     		movs	r2, #69
 2887 02d4 1A80     		strh	r2, [r3]	@ movhi
 2888              	.LVL195:
  73:Core/Src/lcd.c **** 	
 2889              		.loc 1 73 51 view .LVU1080
 2890              	.LBE822:
 2891              	.LBE821:
 586:Core/Src/lcd.c ****     ILI9341_Write_Data(0x18); 
 2892              		.loc 1 586 5 is_stmt 1 view .LVU1081
 2893              	.LBB823:
 2894              	.LBI823:
  71:Core/Src/lcd.c **** {
 2895              		.loc 1 71 7 view .LVU1082
 2896              	.LBB824:
  73:Core/Src/lcd.c **** 	
 2897              		.loc 1 73 2 view .LVU1083
  73:Core/Src/lcd.c **** 	
 2898              		.loc 1 73 51 is_stmt 0 view .LVU1084
 2899 02d6 1C22     		movs	r2, #28
 2900 02d8 1A80     		strh	r2, [r3]	@ movhi
 2901              	.LVL196:
  73:Core/Src/lcd.c **** 	
 2902              		.loc 1 73 51 view .LVU1085
 2903              	.LBE824:
 2904              	.LBE823:
 587:Core/Src/lcd.c ****     ILI9341_Write_Data(0x16); 
 2905              		.loc 1 587 5 is_stmt 1 view .LVU1086
 2906              	.LBB825:
 2907              	.LBI825:
  71:Core/Src/lcd.c **** {
 2908              		.loc 1 71 7 view .LVU1087
 2909              	.LBB826:
  73:Core/Src/lcd.c **** 	
 2910              		.loc 1 73 2 view .LVU1088
  73:Core/Src/lcd.c **** 	
 2911              		.loc 1 73 51 is_stmt 0 view .LVU1089
 2912 02da 1821     		movs	r1, #24
 2913 02dc 1980     		strh	r1, [r3]	@ movhi
 2914              	.LVL197:
  73:Core/Src/lcd.c **** 	
 2915              		.loc 1 73 51 view .LVU1090
 2916              	.LBE826:
 2917              	.LBE825:
ARM GAS  C:\Users\84759\AppData\Local\Temp\cc1QWPm5.s 			page 87


 588:Core/Src/lcd.c ****     ILI9341_Write_Data(0x1c); 
 2918              		.loc 1 588 5 is_stmt 1 view .LVU1091
 2919              	.LBB827:
 2920              	.LBI827:
  71:Core/Src/lcd.c **** {
 2921              		.loc 1 71 7 view .LVU1092
 2922              	.LBB828:
  73:Core/Src/lcd.c **** 	
 2923              		.loc 1 73 2 view .LVU1093
  73:Core/Src/lcd.c **** 	
 2924              		.loc 1 73 51 is_stmt 0 view .LVU1094
 2925 02de 1621     		movs	r1, #22
 2926 02e0 1980     		strh	r1, [r3]	@ movhi
 2927              	.LVL198:
  73:Core/Src/lcd.c **** 	
 2928              		.loc 1 73 51 view .LVU1095
 2929              	.LBE828:
 2930              	.LBE827:
 589:Core/Src/lcd.c ****     ILI9341_Write_Data(0x1d); 
 2931              		.loc 1 589 5 is_stmt 1 view .LVU1096
 2932              	.LBB829:
 2933              	.LBI829:
  71:Core/Src/lcd.c **** {
 2934              		.loc 1 71 7 view .LVU1097
 2935              	.LBB830:
  73:Core/Src/lcd.c **** 	
 2936              		.loc 1 73 2 view .LVU1098
  73:Core/Src/lcd.c **** 	
 2937              		.loc 1 73 51 is_stmt 0 view .LVU1099
 2938 02e2 1A80     		strh	r2, [r3]	@ movhi
 2939              	.LVL199:
  73:Core/Src/lcd.c **** 	
 2940              		.loc 1 73 51 view .LVU1100
 2941              	.LBE830:
 2942              	.LBE829:
 590:Core/Src/lcd.c ****   
 2943              		.loc 1 590 5 is_stmt 1 view .LVU1101
 2944              	.LBB831:
 2945              	.LBI831:
  71:Core/Src/lcd.c **** {
 2946              		.loc 1 71 7 view .LVU1102
 2947              	.LBB832:
  73:Core/Src/lcd.c **** 	
 2948              		.loc 1 73 2 view .LVU1103
  73:Core/Src/lcd.c **** 	
 2949              		.loc 1 73 51 is_stmt 0 view .LVU1104
 2950 02e4 1D22     		movs	r2, #29
 2951 02e6 1A80     		strh	r2, [r3]	@ movhi
 2952              	.LVL200:
  73:Core/Src/lcd.c **** 	
 2953              		.loc 1 73 51 view .LVU1105
 2954              	.LBE832:
 2955              	.LBE831:
 610:Core/Src/lcd.c ****     ILI9341_Delay ( 0xAFFf<<2 );
 2956              		.loc 1 610 5 is_stmt 1 view .LVU1106
 2957              	.LBB833:
 2958              	.LBI833:
ARM GAS  C:\Users\84759\AppData\Local\Temp\cc1QWPm5.s 			page 88


  59:Core/Src/lcd.c **** {
 2959              		.loc 1 59 7 view .LVU1107
 2960              	.LBB834:
  61:Core/Src/lcd.c **** 	
 2961              		.loc 1 61 2 view .LVU1108
  61:Core/Src/lcd.c **** 	
 2962              		.loc 1 61 50 is_stmt 0 view .LVU1109
 2963 02e8 2780     		strh	r7, [r4]	@ movhi
 2964              	.LVL201:
  61:Core/Src/lcd.c **** 	
 2965              		.loc 1 61 50 view .LVU1110
 2966              	.LBE834:
 2967              	.LBE833:
 611:Core/Src/lcd.c ****     DEBUG_DELAY ();
 2968              		.loc 1 611 5 is_stmt 1 view .LVU1111
 2969 02ea 0348     		ldr	r0, .L32
 2970 02ec FFF7FEFF 		bl	ILI9341_Delay
 2971              	.LVL202:
 612:Core/Src/lcd.c ****     
 2972              		.loc 1 612 19 view .LVU1112
 615:Core/Src/lcd.c ****     
 2973              		.loc 1 615 5 view .LVU1113
 2974              	.LBB835:
 2975              	.LBI835:
  59:Core/Src/lcd.c **** {
 2976              		.loc 1 59 7 view .LVU1114
 2977              	.LBB836:
  61:Core/Src/lcd.c **** 	
 2978              		.loc 1 61 2 view .LVU1115
  61:Core/Src/lcd.c **** 	
 2979              		.loc 1 61 50 is_stmt 0 view .LVU1116
 2980 02f0 2680     		strh	r6, [r4]	@ movhi
 2981              	.LVL203:
  61:Core/Src/lcd.c **** 	
 2982              		.loc 1 61 50 view .LVU1117
 2983              	.LBE836:
 2984              	.LBE835:
 617:Core/Src/lcd.c ****   }
 2985              		.loc 1 617 5 is_stmt 1 view .LVU1118
 2986              	.LBB837:
 2987              	.LBI837:
  59:Core/Src/lcd.c **** {
 2988              		.loc 1 59 7 view .LVU1119
 2989              	.LBB838:
  61:Core/Src/lcd.c **** 	
 2990              		.loc 1 61 2 view .LVU1120
  61:Core/Src/lcd.c **** 	
 2991              		.loc 1 61 50 is_stmt 0 view .LVU1121
 2992 02f2 2580     		strh	r5, [r4]	@ movhi
 2993              	.LVL204:
  61:Core/Src/lcd.c **** 	
 2994              		.loc 1 61 50 view .LVU1122
 2995              	.LBE838:
 2996              	.LBE837:
 620:Core/Src/lcd.c **** 
 2997              		.loc 1 620 1 view .LVU1123
 2998 02f4 93E6     		b	.L24
ARM GAS  C:\Users\84759\AppData\Local\Temp\cc1QWPm5.s 			page 89


 2999              	.L33:
 3000 02f6 00BF     		.align	2
 3001              	.L32:
 3002 02f8 FCBF0200 		.word	180220
 3003              		.cfi_endproc
 3004              	.LFE71:
 3006              		.section	.text.ILI9341_Rst,"ax",%progbits
 3007              		.align	1
 3008              		.global	ILI9341_Rst
 3009              		.syntax unified
 3010              		.thumb
 3011              		.thumb_func
 3013              	ILI9341_Rst:
 3014              	.LFB75:
 710:Core/Src/lcd.c **** 	digitalL( GPIOG,GPIO_PIN_11);	 //µÍµçĆ˝¸´Î»
 3015              		.loc 1 710 1 is_stmt 1 view -0
 3016              		.cfi_startproc
 3017              		@ args = 0, pretend = 0, frame = 0
 3018              		@ frame_needed = 0, uses_anonymous_args = 0
 3019 0000 10B5     		push	{r4, lr}
 3020              	.LCFI7:
 3021              		.cfi_def_cfa_offset 8
 3022              		.cfi_offset 4, -8
 3023              		.cfi_offset 14, -4
 711:Core/Src/lcd.c **** 
 3024              		.loc 1 711 2 view .LVU1125
 3025 0002 084C     		ldr	r4, .L36
 3026 0004 4FF00063 		mov	r3, #134217728
 3027 0008 2361     		str	r3, [r4, #16]
 711:Core/Src/lcd.c **** 
 3028              		.loc 1 711 30 view .LVU1126
 713:Core/Src/lcd.c **** 
 3029              		.loc 1 713 2 view .LVU1127
 3030 000a 40F6FF20 		movw	r0, #2815
 3031 000e FFF7FEFF 		bl	ILI9341_Delay
 3032              	.LVL205:
 715:Core/Src/lcd.c **** 
 3033              		.loc 1 715 2 view .LVU1128
 3034 0012 4FF40063 		mov	r3, #2048
 3035 0016 2361     		str	r3, [r4, #16]
 715:Core/Src/lcd.c **** 
 3036              		.loc 1 715 30 view .LVU1129
 717:Core/Src/lcd.c **** 	
 3037              		.loc 1 717 2 view .LVU1130
 3038 0018 40F6FF20 		movw	r0, #2815
 3039 001c FFF7FEFF 		bl	ILI9341_Delay
 3040              	.LVL206:
 719:Core/Src/lcd.c **** 
 3041              		.loc 1 719 1 is_stmt 0 view .LVU1131
 3042 0020 10BD     		pop	{r4, pc}
 3043              	.L37:
 3044 0022 00BF     		.align	2
 3045              	.L36:
 3046 0024 00200140 		.word	1073815552
 3047              		.cfi_endproc
 3048              	.LFE75:
 3050              		.section	.text.ILI9341_GramScan,"ax",%progbits
ARM GAS  C:\Users\84759\AppData\Local\Temp\cc1QWPm5.s 			page 90


 3051              		.align	1
 3052              		.global	ILI9341_GramScan
 3053              		.syntax unified
 3054              		.thumb
 3055              		.thumb_func
 3057              	ILI9341_GramScan:
 3058              	.LVL207:
 3059              	.LFB76:
 772:Core/Src/lcd.c **** 	//˛ÎĘýĽě˛éŁ¬Ö»żÉĘäČë0-7
 3060              		.loc 1 772 1 is_stmt 1 view -0
 3061              		.cfi_startproc
 3062              		@ args = 0, pretend = 0, frame = 0
 3063              		@ frame_needed = 0, uses_anonymous_args = 0
 3064              		@ link register save eliminated.
 774:Core/Src/lcd.c **** 		return;
 3065              		.loc 1 774 2 view .LVU1133
 774:Core/Src/lcd.c **** 		return;
 3066              		.loc 1 774 4 is_stmt 0 view .LVU1134
 3067 0000 0728     		cmp	r0, #7
 3068 0002 53D8     		bhi	.L45
 772:Core/Src/lcd.c **** 	//˛ÎĘýĽě˛éŁ¬Ö»żÉĘäČë0-7
 3069              		.loc 1 772 1 view .LVU1135
 3070 0004 10B4     		push	{r4}
 3071              	.LCFI8:
 3072              		.cfi_def_cfa_offset 4
 3073              		.cfi_offset 4, -4
 778:Core/Src/lcd.c **** 	
 3074              		.loc 1 778 2 is_stmt 1 view .LVU1136
 778:Core/Src/lcd.c **** 	
 3075              		.loc 1 778 16 is_stmt 0 view .LVU1137
 3076 0006 2A4B     		ldr	r3, .L50
 3077 0008 1870     		strb	r0, [r3]
 781:Core/Src/lcd.c **** 	{
 3078              		.loc 1 781 2 is_stmt 1 view .LVU1138
 781:Core/Src/lcd.c **** 	{
 3079              		.loc 1 781 4 is_stmt 0 view .LVU1139
 3080 000a 10F0010F 		tst	r0, #1
 3081 000e 39D1     		bne	.L40
 784:Core/Src/lcd.c **** 		LCD_Y_LENGTH =	ILI9341_MORE_PIXEL;
 3082              		.loc 1 784 3 is_stmt 1 view .LVU1140
 784:Core/Src/lcd.c **** 		LCD_Y_LENGTH =	ILI9341_MORE_PIXEL;
 3083              		.loc 1 784 16 is_stmt 0 view .LVU1141
 3084 0010 284B     		ldr	r3, .L50+4
 3085 0012 F022     		movs	r2, #240
 3086 0014 1A80     		strh	r2, [r3]	@ movhi
 785:Core/Src/lcd.c **** 	}
 3087              		.loc 1 785 3 is_stmt 1 view .LVU1142
 785:Core/Src/lcd.c **** 	}
 3088              		.loc 1 785 16 is_stmt 0 view .LVU1143
 3089 0016 284B     		ldr	r3, .L50+8
 3090 0018 4FF4A072 		mov	r2, #320
 3091 001c 1A80     		strh	r2, [r3]	@ movhi
 3092              	.L41:
 795:Core/Src/lcd.c **** 	if(lcdid == LCDID_ILI9341)
 3093              		.loc 1 795 2 is_stmt 1 view .LVU1144
 3094              	.LVL208:
 3095              	.LBB839:
ARM GAS  C:\Users\84759\AppData\Local\Temp\cc1QWPm5.s 			page 91


 3096              	.LBI839:
  59:Core/Src/lcd.c **** {
 3097              		.loc 1 59 7 view .LVU1145
 3098              	.LBB840:
  61:Core/Src/lcd.c **** 	
 3099              		.loc 1 61 2 view .LVU1146
  61:Core/Src/lcd.c **** 	
 3100              		.loc 1 61 50 is_stmt 0 view .LVU1147
 3101 001e 4FF0D843 		mov	r3, #1811939328
 3102 0022 3622     		movs	r2, #54
 3103 0024 1A80     		strh	r2, [r3]	@ movhi
 3104              	.LVL209:
  61:Core/Src/lcd.c **** 	
 3105              		.loc 1 61 50 view .LVU1148
 3106              	.LBE840:
 3107              	.LBE839:
 796:Core/Src/lcd.c ****   {
 3108              		.loc 1 796 2 is_stmt 1 view .LVU1149
 796:Core/Src/lcd.c ****   {
 3109              		.loc 1 796 11 is_stmt 0 view .LVU1150
 3110 0026 254B     		ldr	r3, .L50+12
 3111 0028 1B88     		ldrh	r3, [r3]
 796:Core/Src/lcd.c ****   {
 3112              		.loc 1 796 4 view .LVU1151
 3113 002a 49F24132 		movw	r2, #37697
 3114 002e 9342     		cmp	r3, r2
 3115 0030 30D0     		beq	.L48
 800:Core/Src/lcd.c ****   {
 3116              		.loc 1 800 8 is_stmt 1 view .LVU1152
 800:Core/Src/lcd.c ****   {
 3117              		.loc 1 800 10 is_stmt 0 view .LVU1153
 3118 0032 48F25252 		movw	r2, #34130
 3119 0036 9342     		cmp	r3, r2
 3120 0038 33D0     		beq	.L49
 3121              	.LVL210:
 3122              	.L43:
 804:Core/Src/lcd.c **** 	ILI9341_Write_Data ( 0x00 );		/* x ĆđĘĽ×ř±ę¸ß8Î» */
 3123              		.loc 1 804 2 is_stmt 1 view .LVU1154
 3124              	.LBB841:
 3125              	.LBI841:
  59:Core/Src/lcd.c **** {
 3126              		.loc 1 59 7 view .LVU1155
 3127              	.LBB842:
  61:Core/Src/lcd.c **** 	
 3128              		.loc 1 61 2 view .LVU1156
  61:Core/Src/lcd.c **** 	
 3129              		.loc 1 61 50 is_stmt 0 view .LVU1157
 3130 003a 4FF0D841 		mov	r1, #1811939328
 3131 003e 2A23     		movs	r3, #42
 3132 0040 0B80     		strh	r3, [r1]	@ movhi
 3133              	.LVL211:
  61:Core/Src/lcd.c **** 	
 3134              		.loc 1 61 50 view .LVU1158
 3135              	.LBE842:
 3136              	.LBE841:
 805:Core/Src/lcd.c **** 	ILI9341_Write_Data ( 0x00 );		/* x ĆđĘĽ×ř±ęµÍ8Î» */
 3137              		.loc 1 805 2 is_stmt 1 view .LVU1159
ARM GAS  C:\Users\84759\AppData\Local\Temp\cc1QWPm5.s 			page 92


 3138              	.LBB843:
 3139              	.LBI843:
  71:Core/Src/lcd.c **** {
 3140              		.loc 1 71 7 view .LVU1160
 3141              	.LBB844:
  73:Core/Src/lcd.c **** 	
 3142              		.loc 1 73 2 view .LVU1161
  73:Core/Src/lcd.c **** 	
 3143              		.loc 1 73 51 is_stmt 0 view .LVU1162
 3144 0042 4FF0DA43 		mov	r3, #1828716544
 3145 0046 0020     		movs	r0, #0
 3146 0048 1880     		strh	r0, [r3]	@ movhi
 3147              	.LVL212:
  73:Core/Src/lcd.c **** 	
 3148              		.loc 1 73 51 view .LVU1163
 3149              	.LBE844:
 3150              	.LBE843:
 806:Core/Src/lcd.c **** 	ILI9341_Write_Data ( ((LCD_X_LENGTH-1)>>8)&0xFF ); /* x ˝áĘř×ř±ę¸ß8Î» */	
 3151              		.loc 1 806 2 is_stmt 1 view .LVU1164
 3152              	.LBB845:
 3153              	.LBI845:
  71:Core/Src/lcd.c **** {
 3154              		.loc 1 71 7 view .LVU1165
 3155              	.LBB846:
  73:Core/Src/lcd.c **** 	
 3156              		.loc 1 73 2 view .LVU1166
  73:Core/Src/lcd.c **** 	
 3157              		.loc 1 73 51 is_stmt 0 view .LVU1167
 3158 004a 1880     		strh	r0, [r3]	@ movhi
 3159              	.LVL213:
  73:Core/Src/lcd.c **** 	
 3160              		.loc 1 73 51 view .LVU1168
 3161              	.LBE846:
 3162              	.LBE845:
 807:Core/Src/lcd.c **** 	ILI9341_Write_Data ( (LCD_X_LENGTH-1)&0xFF );				/* x ˝áĘř×ř±ęµÍ8Î» */
 3163              		.loc 1 807 2 is_stmt 1 view .LVU1169
 807:Core/Src/lcd.c **** 	ILI9341_Write_Data ( (LCD_X_LENGTH-1)&0xFF );				/* x ˝áĘř×ř±ęµÍ8Î» */
 3164              		.loc 1 807 37 is_stmt 0 view .LVU1170
 3165 004c 194C     		ldr	r4, .L50+4
 3166 004e 2288     		ldrh	r2, [r4]
 3167 0050 013A     		subs	r2, r2, #1
 807:Core/Src/lcd.c **** 	ILI9341_Write_Data ( (LCD_X_LENGTH-1)&0xFF );				/* x ˝áĘř×ř±ęµÍ8Î» */
 3168              		.loc 1 807 2 view .LVU1171
 3169 0052 C2F30722 		ubfx	r2, r2, #8, #8
 3170              	.LVL214:
 3171              	.LBB847:
 3172              	.LBI847:
  71:Core/Src/lcd.c **** {
 3173              		.loc 1 71 7 is_stmt 1 view .LVU1172
 3174              	.LBB848:
  73:Core/Src/lcd.c **** 	
 3175              		.loc 1 73 2 view .LVU1173
  73:Core/Src/lcd.c **** 	
 3176              		.loc 1 73 51 is_stmt 0 view .LVU1174
 3177 0056 1A80     		strh	r2, [r3]	@ movhi
 3178              	.LVL215:
  73:Core/Src/lcd.c **** 	
ARM GAS  C:\Users\84759\AppData\Local\Temp\cc1QWPm5.s 			page 93


 3179              		.loc 1 73 51 view .LVU1175
 3180              	.LBE848:
 3181              	.LBE847:
 808:Core/Src/lcd.c **** 
 3182              		.loc 1 808 2 is_stmt 1 view .LVU1176
 808:Core/Src/lcd.c **** 
 3183              		.loc 1 808 39 is_stmt 0 view .LVU1177
 3184 0058 2288     		ldrh	r2, [r4]
 808:Core/Src/lcd.c **** 
 3185              		.loc 1 808 36 view .LVU1178
 3186 005a 013A     		subs	r2, r2, #1
 808:Core/Src/lcd.c **** 
 3187              		.loc 1 808 2 view .LVU1179
 3188 005c D2B2     		uxtb	r2, r2
 3189              	.LVL216:
 3190              	.LBB849:
 3191              	.LBI849:
  71:Core/Src/lcd.c **** {
 3192              		.loc 1 71 7 is_stmt 1 view .LVU1180
 3193              	.LBB850:
  73:Core/Src/lcd.c **** 	
 3194              		.loc 1 73 2 view .LVU1181
  73:Core/Src/lcd.c **** 	
 3195              		.loc 1 73 51 is_stmt 0 view .LVU1182
 3196 005e 1A80     		strh	r2, [r3]	@ movhi
 3197              	.LVL217:
  73:Core/Src/lcd.c **** 	
 3198              		.loc 1 73 51 view .LVU1183
 3199              	.LBE850:
 3200              	.LBE849:
 810:Core/Src/lcd.c **** 	ILI9341_Write_Data ( 0x00 );		/* y ĆđĘĽ×ř±ę¸ß8Î» */
 3201              		.loc 1 810 2 is_stmt 1 view .LVU1184
 3202              	.LBB851:
 3203              	.LBI851:
  59:Core/Src/lcd.c **** {
 3204              		.loc 1 59 7 view .LVU1185
 3205              	.LBB852:
  61:Core/Src/lcd.c **** 	
 3206              		.loc 1 61 2 view .LVU1186
  61:Core/Src/lcd.c **** 	
 3207              		.loc 1 61 50 is_stmt 0 view .LVU1187
 3208 0060 2B22     		movs	r2, #43
 3209 0062 0A80     		strh	r2, [r1]	@ movhi
 3210              	.LVL218:
  61:Core/Src/lcd.c **** 	
 3211              		.loc 1 61 50 view .LVU1188
 3212              	.LBE852:
 3213              	.LBE851:
 811:Core/Src/lcd.c **** 	ILI9341_Write_Data ( 0x00 );		/* y ĆđĘĽ×ř±ęµÍ8Î» */
 3214              		.loc 1 811 2 is_stmt 1 view .LVU1189
 3215              	.LBB853:
 3216              	.LBI853:
  71:Core/Src/lcd.c **** {
 3217              		.loc 1 71 7 view .LVU1190
 3218              	.LBB854:
  73:Core/Src/lcd.c **** 	
 3219              		.loc 1 73 2 view .LVU1191
ARM GAS  C:\Users\84759\AppData\Local\Temp\cc1QWPm5.s 			page 94


  73:Core/Src/lcd.c **** 	
 3220              		.loc 1 73 51 is_stmt 0 view .LVU1192
 3221 0064 1880     		strh	r0, [r3]	@ movhi
 3222              	.LVL219:
  73:Core/Src/lcd.c **** 	
 3223              		.loc 1 73 51 view .LVU1193
 3224              	.LBE854:
 3225              	.LBE853:
 812:Core/Src/lcd.c **** 	ILI9341_Write_Data ( ((LCD_Y_LENGTH-1)>>8)&0xFF );	/* y ˝áĘř×ř±ę¸ß8Î» */	 
 3226              		.loc 1 812 2 is_stmt 1 view .LVU1194
 3227              	.LBB855:
 3228              	.LBI855:
  71:Core/Src/lcd.c **** {
 3229              		.loc 1 71 7 view .LVU1195
 3230              	.LBB856:
  73:Core/Src/lcd.c **** 	
 3231              		.loc 1 73 2 view .LVU1196
  73:Core/Src/lcd.c **** 	
 3232              		.loc 1 73 51 is_stmt 0 view .LVU1197
 3233 0066 1880     		strh	r0, [r3]	@ movhi
 3234              	.LVL220:
  73:Core/Src/lcd.c **** 	
 3235              		.loc 1 73 51 view .LVU1198
 3236              	.LBE856:
 3237              	.LBE855:
 813:Core/Src/lcd.c **** 	ILI9341_Write_Data ( (LCD_Y_LENGTH-1)&0xFF );				/* y ˝áĘř×ř±ęµÍ8Î» */
 3238              		.loc 1 813 2 is_stmt 1 view .LVU1199
 813:Core/Src/lcd.c **** 	ILI9341_Write_Data ( (LCD_Y_LENGTH-1)&0xFF );				/* y ˝áĘř×ř±ęµÍ8Î» */
 3239              		.loc 1 813 37 is_stmt 0 view .LVU1200
 3240 0068 1348     		ldr	r0, .L50+8
 3241 006a 0288     		ldrh	r2, [r0]
 3242 006c 013A     		subs	r2, r2, #1
 813:Core/Src/lcd.c **** 	ILI9341_Write_Data ( (LCD_Y_LENGTH-1)&0xFF );				/* y ˝áĘř×ř±ęµÍ8Î» */
 3243              		.loc 1 813 2 view .LVU1201
 3244 006e C2F30722 		ubfx	r2, r2, #8, #8
 3245              	.LVL221:
 3246              	.LBB857:
 3247              	.LBI857:
  71:Core/Src/lcd.c **** {
 3248              		.loc 1 71 7 is_stmt 1 view .LVU1202
 3249              	.LBB858:
  73:Core/Src/lcd.c **** 	
 3250              		.loc 1 73 2 view .LVU1203
  73:Core/Src/lcd.c **** 	
 3251              		.loc 1 73 51 is_stmt 0 view .LVU1204
 3252 0072 1A80     		strh	r2, [r3]	@ movhi
 3253              	.LVL222:
  73:Core/Src/lcd.c **** 	
 3254              		.loc 1 73 51 view .LVU1205
 3255              	.LBE858:
 3256              	.LBE857:
 814:Core/Src/lcd.c **** 
 3257              		.loc 1 814 2 is_stmt 1 view .LVU1206
 814:Core/Src/lcd.c **** 
 3258              		.loc 1 814 39 is_stmt 0 view .LVU1207
 3259 0074 0288     		ldrh	r2, [r0]
 814:Core/Src/lcd.c **** 
ARM GAS  C:\Users\84759\AppData\Local\Temp\cc1QWPm5.s 			page 95


 3260              		.loc 1 814 36 view .LVU1208
 3261 0076 013A     		subs	r2, r2, #1
 814:Core/Src/lcd.c **** 
 3262              		.loc 1 814 2 view .LVU1209
 3263 0078 D2B2     		uxtb	r2, r2
 3264              	.LVL223:
 3265              	.LBB859:
 3266              	.LBI859:
  71:Core/Src/lcd.c **** {
 3267              		.loc 1 71 7 is_stmt 1 view .LVU1210
 3268              	.LBB860:
  73:Core/Src/lcd.c **** 	
 3269              		.loc 1 73 2 view .LVU1211
  73:Core/Src/lcd.c **** 	
 3270              		.loc 1 73 51 is_stmt 0 view .LVU1212
 3271 007a 1A80     		strh	r2, [r3]	@ movhi
 3272              	.LVL224:
  73:Core/Src/lcd.c **** 	
 3273              		.loc 1 73 51 view .LVU1213
 3274              	.LBE860:
 3275              	.LBE859:
 817:Core/Src/lcd.c **** }
 3276              		.loc 1 817 2 is_stmt 1 view .LVU1214
 3277              	.LBB861:
 3278              	.LBI861:
  59:Core/Src/lcd.c **** {
 3279              		.loc 1 59 7 view .LVU1215
 3280              	.LBB862:
  61:Core/Src/lcd.c **** 	
 3281              		.loc 1 61 2 view .LVU1216
  61:Core/Src/lcd.c **** 	
 3282              		.loc 1 61 50 is_stmt 0 view .LVU1217
 3283 007c 2C23     		movs	r3, #44
 3284 007e 0B80     		strh	r3, [r1]	@ movhi
 3285              	.LVL225:
  61:Core/Src/lcd.c **** 	
 3286              		.loc 1 61 50 view .LVU1218
 3287              	.LBE862:
 3288              	.LBE861:
 818:Core/Src/lcd.c **** 
 3289              		.loc 1 818 1 view .LVU1219
 3290 0080 10BC     		pop	{r4}
 3291              	.LCFI9:
 3292              		.cfi_remember_state
 3293              		.cfi_restore 4
 3294              		.cfi_def_cfa_offset 0
 3295 0082 7047     		bx	lr
 3296              	.LVL226:
 3297              	.L40:
 3298              	.LCFI10:
 3299              		.cfi_restore_state
 790:Core/Src/lcd.c **** 		LCD_Y_LENGTH =	ILI9341_LESS_PIXEL; 
 3300              		.loc 1 790 3 is_stmt 1 view .LVU1220
 790:Core/Src/lcd.c **** 		LCD_Y_LENGTH =	ILI9341_LESS_PIXEL; 
 3301              		.loc 1 790 16 is_stmt 0 view .LVU1221
 3302 0084 0B4B     		ldr	r3, .L50+4
 3303 0086 4FF4A072 		mov	r2, #320
ARM GAS  C:\Users\84759\AppData\Local\Temp\cc1QWPm5.s 			page 96


 3304 008a 1A80     		strh	r2, [r3]	@ movhi
 791:Core/Src/lcd.c **** 	}
 3305              		.loc 1 791 3 is_stmt 1 view .LVU1222
 791:Core/Src/lcd.c **** 	}
 3306              		.loc 1 791 16 is_stmt 0 view .LVU1223
 3307 008c 0A4B     		ldr	r3, .L50+8
 3308 008e F022     		movs	r2, #240
 3309 0090 1A80     		strh	r2, [r3]	@ movhi
 3310 0092 C4E7     		b	.L41
 3311              	.L48:
 798:Core/Src/lcd.c ****   }
 3312              		.loc 1 798 5 is_stmt 1 view .LVU1224
 798:Core/Src/lcd.c ****   }
 3313              		.loc 1 798 41 is_stmt 0 view .LVU1225
 3314 0094 4001     		lsls	r0, r0, #5
 3315              	.LVL227:
 798:Core/Src/lcd.c ****   }
 3316              		.loc 1 798 5 view .LVU1226
 3317 0096 40F00800 		orr	r0, r0, #8
 3318              	.LVL228:
 3319              	.LBB863:
 3320              	.LBI863:
  71:Core/Src/lcd.c **** {
 3321              		.loc 1 71 7 is_stmt 1 view .LVU1227
 3322              	.LBB864:
  73:Core/Src/lcd.c **** 	
 3323              		.loc 1 73 2 view .LVU1228
  73:Core/Src/lcd.c **** 	
 3324              		.loc 1 73 51 is_stmt 0 view .LVU1229
 3325 009a 4FF0DA43 		mov	r3, #1828716544
 3326 009e 1880     		strh	r0, [r3]	@ movhi
  75:Core/Src/lcd.c **** 
 3327              		.loc 1 75 1 view .LVU1230
 3328 00a0 CBE7     		b	.L43
 3329              	.LVL229:
 3330              	.L49:
  75:Core/Src/lcd.c **** 
 3331              		.loc 1 75 1 view .LVU1231
 3332              	.LBE864:
 3333              	.LBE863:
 802:Core/Src/lcd.c ****   }
 3334              		.loc 1 802 5 is_stmt 1 view .LVU1232
 3335 00a2 4001     		lsls	r0, r0, #5
 3336              	.LVL230:
 3337              	.LBB865:
 3338              	.LBI865:
  71:Core/Src/lcd.c **** {
 3339              		.loc 1 71 7 view .LVU1233
 3340              	.LBB866:
  73:Core/Src/lcd.c **** 	
 3341              		.loc 1 73 2 view .LVU1234
  73:Core/Src/lcd.c **** 	
 3342              		.loc 1 73 51 is_stmt 0 view .LVU1235
 3343 00a4 4FF0DA43 		mov	r3, #1828716544
 3344 00a8 1880     		strh	r0, [r3]	@ movhi
  75:Core/Src/lcd.c **** 
 3345              		.loc 1 75 1 view .LVU1236
ARM GAS  C:\Users\84759\AppData\Local\Temp\cc1QWPm5.s 			page 97


 3346 00aa C6E7     		b	.L43
 3347              	.LVL231:
 3348              	.L45:
 3349              	.LCFI11:
 3350              		.cfi_def_cfa_offset 0
 3351              		.cfi_restore 4
  75:Core/Src/lcd.c **** 
 3352              		.loc 1 75 1 view .LVU1237
 3353 00ac 7047     		bx	lr
 3354              	.L51:
 3355 00ae 00BF     		.align	2
 3356              	.L50:
 3357 00b0 00000000 		.word	.LANCHOR3
 3358 00b4 00000000 		.word	.LANCHOR4
 3359 00b8 00000000 		.word	.LANCHOR5
 3360 00bc 00000000 		.word	.LANCHOR2
 3361              	.LBE866:
 3362              	.LBE865:
 3363              		.cfi_endproc
 3364              	.LFE76:
 3366              		.section	.text.ILI9341_Init,"ax",%progbits
 3367              		.align	1
 3368              		.global	ILI9341_Init
 3369              		.syntax unified
 3370              		.thumb
 3371              		.thumb_func
 3373              	ILI9341_Init:
 3374              	.LFB72:
 630:Core/Src/lcd.c **** 	ILI9341_GPIO_Config ();
 3375              		.loc 1 630 1 is_stmt 1 view -0
 3376              		.cfi_startproc
 3377              		@ args = 0, pretend = 0, frame = 0
 3378              		@ frame_needed = 0, uses_anonymous_args = 0
 3379 0000 08B5     		push	{r3, lr}
 3380              	.LCFI12:
 3381              		.cfi_def_cfa_offset 8
 3382              		.cfi_offset 3, -8
 3383              		.cfi_offset 14, -4
 631:Core/Src/lcd.c **** 	ILI9341_FSMC_Config ();
 3384              		.loc 1 631 2 view .LVU1239
 3385 0002 FFF7FEFF 		bl	ILI9341_GPIO_Config
 3386              	.LVL232:
 632:Core/Src/lcd.c **** 	
 3387              		.loc 1 632 2 view .LVU1240
 3388 0006 FFF7FEFF 		bl	ILI9341_FSMC_Config
 3389              	.LVL233:
 634:Core/Src/lcd.c **** 	ILI9341_Rst ();
 3390              		.loc 1 634 2 view .LVU1241
 3391 000a 0120     		movs	r0, #1
 3392 000c FFF7FEFF 		bl	ILI9341_BackLed_Control
 3393              	.LVL234:
 635:Core/Src/lcd.c **** 	ILI9341_REG_Config ();
 3394              		.loc 1 635 2 view .LVU1242
 3395 0010 FFF7FEFF 		bl	ILI9341_Rst
 3396              	.LVL235:
 636:Core/Src/lcd.c **** 	
 3397              		.loc 1 636 2 view .LVU1243
ARM GAS  C:\Users\84759\AppData\Local\Temp\cc1QWPm5.s 			page 98


 3398 0014 FFF7FEFF 		bl	ILI9341_REG_Config
 3399              	.LVL236:
 639:Core/Src/lcd.c **** }
 3400              		.loc 1 639 2 view .LVU1244
 3401 0018 024B     		ldr	r3, .L54
 3402 001a 1878     		ldrb	r0, [r3]	@ zero_extendqisi2
 3403 001c FFF7FEFF 		bl	ILI9341_GramScan
 3404              	.LVL237:
 640:Core/Src/lcd.c **** 
 3405              		.loc 1 640 1 is_stmt 0 view .LVU1245
 3406 0020 08BD     		pop	{r3, pc}
 3407              	.L55:
 3408 0022 00BF     		.align	2
 3409              	.L54:
 3410 0024 00000000 		.word	.LANCHOR3
 3411              		.cfi_endproc
 3412              	.LFE72:
 3414              		.section	.text.ILI9341_OpenWindow,"ax",%progbits
 3415              		.align	1
 3416              		.global	ILI9341_OpenWindow
 3417              		.syntax unified
 3418              		.thumb
 3419              		.thumb_func
 3421              	ILI9341_OpenWindow:
 3422              	.LVL238:
 3423              	.LFB77:
 831:Core/Src/lcd.c **** 	ILI9341_Write_Cmd ( CMD_SetCoordinateX ); 				 /* ÉčÖĂX×ř±ę */
 3424              		.loc 1 831 1 is_stmt 1 view -0
 3425              		.cfi_startproc
 3426              		@ args = 0, pretend = 0, frame = 0
 3427              		@ frame_needed = 0, uses_anonymous_args = 0
 831:Core/Src/lcd.c **** 	ILI9341_Write_Cmd ( CMD_SetCoordinateX ); 				 /* ÉčÖĂX×ř±ę */
 3428              		.loc 1 831 1 is_stmt 0 view .LVU1247
 3429 0000 10B5     		push	{r4, lr}
 3430              	.LCFI13:
 3431              		.cfi_def_cfa_offset 8
 3432              		.cfi_offset 4, -8
 3433              		.cfi_offset 14, -4
 832:Core/Src/lcd.c **** 	ILI9341_Write_Data ( usX >> 8  );	 /* ĎČ¸ß8Î»Ł¬Č»şóµÍ8Î» */
 3434              		.loc 1 832 2 is_stmt 1 view .LVU1248
 3435              	.LVL239:
 3436              	.LBB867:
 3437              	.LBI867:
  59:Core/Src/lcd.c **** {
 3438              		.loc 1 59 7 view .LVU1249
 3439              	.LBB868:
  61:Core/Src/lcd.c **** 	
 3440              		.loc 1 61 2 view .LVU1250
  61:Core/Src/lcd.c **** 	
 3441              		.loc 1 61 50 is_stmt 0 view .LVU1251
 3442 0002 4FF0D84E 		mov	lr, #1811939328
 3443 0006 2A24     		movs	r4, #42
 3444 0008 AEF80040 		strh	r4, [lr]	@ movhi
 3445              	.LVL240:
  61:Core/Src/lcd.c **** 	
 3446              		.loc 1 61 50 view .LVU1252
 3447              	.LBE868:
ARM GAS  C:\Users\84759\AppData\Local\Temp\cc1QWPm5.s 			page 99


 3448              	.LBE867:
 833:Core/Src/lcd.c **** 	ILI9341_Write_Data ( usX & 0xff  );	 /* ÉčÖĂĆđĘĽµăşÍ˝áĘřµă*/
 3449              		.loc 1 833 2 is_stmt 1 view .LVU1253
 3450 000c 040A     		lsrs	r4, r0, #8
 3451              	.LVL241:
 3452              	.LBB869:
 3453              	.LBI869:
  71:Core/Src/lcd.c **** {
 3454              		.loc 1 71 7 view .LVU1254
 3455              	.LBB870:
  73:Core/Src/lcd.c **** 	
 3456              		.loc 1 73 2 view .LVU1255
  73:Core/Src/lcd.c **** 	
 3457              		.loc 1 73 51 is_stmt 0 view .LVU1256
 3458 000e 4FF0DA4C 		mov	ip, #1828716544
 3459 0012 ACF80040 		strh	r4, [ip]	@ movhi
 3460              	.LVL242:
  73:Core/Src/lcd.c **** 	
 3461              		.loc 1 73 51 view .LVU1257
 3462              	.LBE870:
 3463              	.LBE869:
 834:Core/Src/lcd.c **** 	ILI9341_Write_Data ( ( usX + usWidth - 1 ) >> 8  );
 3464              		.loc 1 834 2 is_stmt 1 view .LVU1258
 3465 0016 C4B2     		uxtb	r4, r0
 3466              	.LVL243:
 3467              	.LBB871:
 3468              	.LBI871:
  71:Core/Src/lcd.c **** {
 3469              		.loc 1 71 7 view .LVU1259
 3470              	.LBB872:
  73:Core/Src/lcd.c **** 	
 3471              		.loc 1 73 2 view .LVU1260
  73:Core/Src/lcd.c **** 	
 3472              		.loc 1 73 51 is_stmt 0 view .LVU1261
 3473 0018 ACF80040 		strh	r4, [ip]	@ movhi
 3474              	.LVL244:
  73:Core/Src/lcd.c **** 	
 3475              		.loc 1 73 51 view .LVU1262
 3476              	.LBE872:
 3477              	.LBE871:
 835:Core/Src/lcd.c **** 	ILI9341_Write_Data ( ( usX + usWidth - 1 ) & 0xff  );
 3478              		.loc 1 835 2 is_stmt 1 view .LVU1263
 835:Core/Src/lcd.c **** 	ILI9341_Write_Data ( ( usX + usWidth - 1 ) & 0xff  );
 3479              		.loc 1 835 29 is_stmt 0 view .LVU1264
 3480 001c 1044     		add	r0, r0, r2
 3481              	.LVL245:
 835:Core/Src/lcd.c **** 	ILI9341_Write_Data ( ( usX + usWidth - 1 ) & 0xff  );
 3482              		.loc 1 835 39 view .LVU1265
 3483 001e 421E     		subs	r2, r0, #1
 3484              	.LVL246:
 835:Core/Src/lcd.c **** 	ILI9341_Write_Data ( ( usX + usWidth - 1 ) & 0xff  );
 3485              		.loc 1 835 2 view .LVU1266
 3486 0020 C2F30F22 		ubfx	r2, r2, #8, #16
 3487              	.LVL247:
 3488              	.LBB873:
 3489              	.LBI873:
  71:Core/Src/lcd.c **** {
ARM GAS  C:\Users\84759\AppData\Local\Temp\cc1QWPm5.s 			page 100


 3490              		.loc 1 71 7 is_stmt 1 view .LVU1267
 3491              	.LBB874:
  73:Core/Src/lcd.c **** 	
 3492              		.loc 1 73 2 view .LVU1268
  73:Core/Src/lcd.c **** 	
 3493              		.loc 1 73 51 is_stmt 0 view .LVU1269
 3494 0024 ACF80020 		strh	r2, [ip]	@ movhi
 3495              	.LVL248:
  73:Core/Src/lcd.c **** 	
 3496              		.loc 1 73 51 view .LVU1270
 3497              	.LBE874:
 3498              	.LBE873:
 836:Core/Src/lcd.c **** 
 3499              		.loc 1 836 2 is_stmt 1 view .LVU1271
 836:Core/Src/lcd.c **** 
 3500              		.loc 1 836 29 is_stmt 0 view .LVU1272
 3501 0028 80B2     		uxth	r0, r0
 836:Core/Src/lcd.c **** 
 3502              		.loc 1 836 39 view .LVU1273
 3503 002a 0138     		subs	r0, r0, #1
 836:Core/Src/lcd.c **** 
 3504              		.loc 1 836 2 view .LVU1274
 3505 002c C0B2     		uxtb	r0, r0
 3506              	.LVL249:
 3507              	.LBB875:
 3508              	.LBI875:
  71:Core/Src/lcd.c **** {
 3509              		.loc 1 71 7 is_stmt 1 view .LVU1275
 3510              	.LBB876:
  73:Core/Src/lcd.c **** 	
 3511              		.loc 1 73 2 view .LVU1276
  73:Core/Src/lcd.c **** 	
 3512              		.loc 1 73 51 is_stmt 0 view .LVU1277
 3513 002e ACF80000 		strh	r0, [ip]	@ movhi
 3514              	.LVL250:
  73:Core/Src/lcd.c **** 	
 3515              		.loc 1 73 51 view .LVU1278
 3516              	.LBE876:
 3517              	.LBE875:
 838:Core/Src/lcd.c **** 	ILI9341_Write_Data ( usY >> 8  );
 3518              		.loc 1 838 2 is_stmt 1 view .LVU1279
 3519              	.LBB877:
 3520              	.LBI877:
  59:Core/Src/lcd.c **** {
 3521              		.loc 1 59 7 view .LVU1280
 3522              	.LBB878:
  61:Core/Src/lcd.c **** 	
 3523              		.loc 1 61 2 view .LVU1281
  61:Core/Src/lcd.c **** 	
 3524              		.loc 1 61 50 is_stmt 0 view .LVU1282
 3525 0032 2B22     		movs	r2, #43
 3526 0034 AEF80020 		strh	r2, [lr]	@ movhi
 3527              	.LVL251:
  61:Core/Src/lcd.c **** 	
 3528              		.loc 1 61 50 view .LVU1283
 3529              	.LBE878:
 3530              	.LBE877:
ARM GAS  C:\Users\84759\AppData\Local\Temp\cc1QWPm5.s 			page 101


 839:Core/Src/lcd.c **** 	ILI9341_Write_Data ( usY & 0xff  );
 3531              		.loc 1 839 2 is_stmt 1 view .LVU1284
 3532 0038 0A0A     		lsrs	r2, r1, #8
 3533              	.LVL252:
 3534              	.LBB879:
 3535              	.LBI879:
  71:Core/Src/lcd.c **** {
 3536              		.loc 1 71 7 view .LVU1285
 3537              	.LBB880:
  73:Core/Src/lcd.c **** 	
 3538              		.loc 1 73 2 view .LVU1286
  73:Core/Src/lcd.c **** 	
 3539              		.loc 1 73 51 is_stmt 0 view .LVU1287
 3540 003a ACF80020 		strh	r2, [ip]	@ movhi
 3541              	.LVL253:
  73:Core/Src/lcd.c **** 	
 3542              		.loc 1 73 51 view .LVU1288
 3543              	.LBE880:
 3544              	.LBE879:
 840:Core/Src/lcd.c **** 	ILI9341_Write_Data ( ( usY + usHeight - 1 ) >> 8 );
 3545              		.loc 1 840 2 is_stmt 1 view .LVU1289
 3546 003e CAB2     		uxtb	r2, r1
 3547              	.LVL254:
 3548              	.LBB881:
 3549              	.LBI881:
  71:Core/Src/lcd.c **** {
 3550              		.loc 1 71 7 view .LVU1290
 3551              	.LBB882:
  73:Core/Src/lcd.c **** 	
 3552              		.loc 1 73 2 view .LVU1291
  73:Core/Src/lcd.c **** 	
 3553              		.loc 1 73 51 is_stmt 0 view .LVU1292
 3554 0040 ACF80020 		strh	r2, [ip]	@ movhi
 3555              	.LVL255:
  73:Core/Src/lcd.c **** 	
 3556              		.loc 1 73 51 view .LVU1293
 3557              	.LBE882:
 3558              	.LBE881:
 841:Core/Src/lcd.c **** 	ILI9341_Write_Data ( ( usY + usHeight - 1) & 0xff );
 3559              		.loc 1 841 2 is_stmt 1 view .LVU1294
 841:Core/Src/lcd.c **** 	ILI9341_Write_Data ( ( usY + usHeight - 1) & 0xff );
 3560              		.loc 1 841 29 is_stmt 0 view .LVU1295
 3561 0044 1944     		add	r1, r1, r3
 3562              	.LVL256:
 841:Core/Src/lcd.c **** 	ILI9341_Write_Data ( ( usY + usHeight - 1) & 0xff );
 3563              		.loc 1 841 40 view .LVU1296
 3564 0046 4B1E     		subs	r3, r1, #1
 3565              	.LVL257:
 841:Core/Src/lcd.c **** 	ILI9341_Write_Data ( ( usY + usHeight - 1) & 0xff );
 3566              		.loc 1 841 2 view .LVU1297
 3567 0048 C3F30F23 		ubfx	r3, r3, #8, #16
 3568              	.LVL258:
 3569              	.LBB883:
 3570              	.LBI883:
  71:Core/Src/lcd.c **** {
 3571              		.loc 1 71 7 is_stmt 1 view .LVU1298
 3572              	.LBB884:
ARM GAS  C:\Users\84759\AppData\Local\Temp\cc1QWPm5.s 			page 102


  73:Core/Src/lcd.c **** 	
 3573              		.loc 1 73 2 view .LVU1299
  73:Core/Src/lcd.c **** 	
 3574              		.loc 1 73 51 is_stmt 0 view .LVU1300
 3575 004c ACF80030 		strh	r3, [ip]	@ movhi
 3576              	.LVL259:
  73:Core/Src/lcd.c **** 	
 3577              		.loc 1 73 51 view .LVU1301
 3578              	.LBE884:
 3579              	.LBE883:
 842:Core/Src/lcd.c **** 	
 3580              		.loc 1 842 2 is_stmt 1 view .LVU1302
 842:Core/Src/lcd.c **** 	
 3581              		.loc 1 842 29 is_stmt 0 view .LVU1303
 3582 0050 89B2     		uxth	r1, r1
 842:Core/Src/lcd.c **** 	
 3583              		.loc 1 842 40 view .LVU1304
 3584 0052 0139     		subs	r1, r1, #1
 842:Core/Src/lcd.c **** 	
 3585              		.loc 1 842 2 view .LVU1305
 3586 0054 C9B2     		uxtb	r1, r1
 3587              	.LVL260:
 3588              	.LBB885:
 3589              	.LBI885:
  71:Core/Src/lcd.c **** {
 3590              		.loc 1 71 7 is_stmt 1 view .LVU1306
 3591              	.LBB886:
  73:Core/Src/lcd.c **** 	
 3592              		.loc 1 73 2 view .LVU1307
  73:Core/Src/lcd.c **** 	
 3593              		.loc 1 73 51 is_stmt 0 view .LVU1308
 3594 0056 ACF80010 		strh	r1, [ip]	@ movhi
 3595              	.LVL261:
  73:Core/Src/lcd.c **** 	
 3596              		.loc 1 73 51 view .LVU1309
 3597              	.LBE886:
 3598              	.LBE885:
 844:Core/Src/lcd.c **** 
 3599              		.loc 1 844 1 view .LVU1310
 3600 005a 10BD     		pop	{r4, pc}
 3601              		.cfi_endproc
 3602              	.LFE77:
 3604              		.section	.text.ILI9341_SetCursor,"ax",%progbits
 3605              		.align	1
 3606              		.syntax unified
 3607              		.thumb
 3608              		.thumb_func
 3610              	ILI9341_SetCursor:
 3611              	.LVL262:
 3612              	.LFB78:
 854:Core/Src/lcd.c **** 	ILI9341_OpenWindow ( usX, usY, 1, 1 );
 3613              		.loc 1 854 1 is_stmt 1 view -0
 3614              		.cfi_startproc
 3615              		@ args = 0, pretend = 0, frame = 0
 3616              		@ frame_needed = 0, uses_anonymous_args = 0
 854:Core/Src/lcd.c **** 	ILI9341_OpenWindow ( usX, usY, 1, 1 );
 3617              		.loc 1 854 1 is_stmt 0 view .LVU1312
ARM GAS  C:\Users\84759\AppData\Local\Temp\cc1QWPm5.s 			page 103


 3618 0000 08B5     		push	{r3, lr}
 3619              	.LCFI14:
 3620              		.cfi_def_cfa_offset 8
 3621              		.cfi_offset 3, -8
 3622              		.cfi_offset 14, -4
 855:Core/Src/lcd.c **** }
 3623              		.loc 1 855 2 is_stmt 1 view .LVU1313
 3624 0002 0123     		movs	r3, #1
 3625 0004 1A46     		mov	r2, r3
 3626 0006 FFF7FEFF 		bl	ILI9341_OpenWindow
 3627              	.LVL263:
 856:Core/Src/lcd.c **** 
 3628              		.loc 1 856 1 is_stmt 0 view .LVU1314
 3629 000a 08BD     		pop	{r3, pc}
 3630              		.cfi_endproc
 3631              	.LFE78:
 3633              		.section	.text.ILI9341_Clear,"ax",%progbits
 3634              		.align	1
 3635              		.global	ILI9341_Clear
 3636              		.syntax unified
 3637              		.thumb
 3638              		.thumb_func
 3640              	ILI9341_Clear:
 3641              	.LVL264:
 3642              	.LFB80:
 890:Core/Src/lcd.c **** 	ILI9341_OpenWindow ( usX, usY, usWidth, usHeight );
 3643              		.loc 1 890 1 is_stmt 1 view -0
 3644              		.cfi_startproc
 3645              		@ args = 0, pretend = 0, frame = 0
 3646              		@ frame_needed = 0, uses_anonymous_args = 0
 890:Core/Src/lcd.c **** 	ILI9341_OpenWindow ( usX, usY, usWidth, usHeight );
 3647              		.loc 1 890 1 is_stmt 0 view .LVU1316
 3648 0000 38B5     		push	{r3, r4, r5, lr}
 3649              	.LCFI15:
 3650              		.cfi_def_cfa_offset 16
 3651              		.cfi_offset 3, -16
 3652              		.cfi_offset 4, -12
 3653              		.cfi_offset 5, -8
 3654              		.cfi_offset 14, -4
 3655 0002 1446     		mov	r4, r2
 3656 0004 1D46     		mov	r5, r3
 891:Core/Src/lcd.c **** 
 3657              		.loc 1 891 2 is_stmt 1 view .LVU1317
 3658 0006 FFF7FEFF 		bl	ILI9341_OpenWindow
 3659              	.LVL265:
 893:Core/Src/lcd.c **** 	
 3660              		.loc 1 893 2 view .LVU1318
 893:Core/Src/lcd.c **** 	
 3661              		.loc 1 893 30 is_stmt 0 view .LVU1319
 3662 000a 05FB04F1 		mul	r1, r5, r4
 893:Core/Src/lcd.c **** 	
 3663              		.loc 1 893 2 view .LVU1320
 3664 000e 074B     		ldr	r3, .L64
 3665 0010 1888     		ldrh	r0, [r3]
 3666              	.LVL266:
 3667              	.LBB887:
 3668              	.LBI887:
ARM GAS  C:\Users\84759\AppData\Local\Temp\cc1QWPm5.s 			page 104


 865:Core/Src/lcd.c **** {
 3669              		.loc 1 865 22 is_stmt 1 view .LVU1321
 3670              	.LBB888:
 867:Core/Src/lcd.c **** 	
 3671              		.loc 1 867 2 view .LVU1322
 871:Core/Src/lcd.c **** 		
 3672              		.loc 1 871 2 view .LVU1323
 3673              	.LBB889:
 3674              	.LBI889:
  59:Core/Src/lcd.c **** {
 3675              		.loc 1 59 7 view .LVU1324
 3676              	.LBB890:
  61:Core/Src/lcd.c **** 	
 3677              		.loc 1 61 2 view .LVU1325
  61:Core/Src/lcd.c **** 	
 3678              		.loc 1 61 50 is_stmt 0 view .LVU1326
 3679 0012 4FF0D843 		mov	r3, #1811939328
 3680 0016 2C22     		movs	r2, #44
 3681 0018 1A80     		strh	r2, [r3]	@ movhi
 3682              	.LVL267:
  61:Core/Src/lcd.c **** 	
 3683              		.loc 1 61 50 view .LVU1327
 3684              	.LBE890:
 3685              	.LBE889:
 873:Core/Src/lcd.c **** 		ILI9341_Write_Data ( usColor );
 3686              		.loc 1 873 2 is_stmt 1 view .LVU1328
 873:Core/Src/lcd.c **** 		ILI9341_Write_Data ( usColor );
 3687              		.loc 1 873 10 is_stmt 0 view .LVU1329
 3688 001a 0023     		movs	r3, #0
 873:Core/Src/lcd.c **** 		ILI9341_Write_Data ( usColor );
 3689              		.loc 1 873 2 view .LVU1330
 3690 001c 03E0     		b	.L61
 3691              	.LVL268:
 3692              	.L62:
 874:Core/Src/lcd.c **** 		
 3693              		.loc 1 874 3 is_stmt 1 view .LVU1331
 3694              	.LBB891:
 3695              	.LBI891:
  71:Core/Src/lcd.c **** {
 3696              		.loc 1 71 7 view .LVU1332
 3697              	.LBB892:
  73:Core/Src/lcd.c **** 	
 3698              		.loc 1 73 2 view .LVU1333
  73:Core/Src/lcd.c **** 	
 3699              		.loc 1 73 51 is_stmt 0 view .LVU1334
 3700 001e 4FF0DA42 		mov	r2, #1828716544
 3701 0022 1080     		strh	r0, [r2]	@ movhi
 3702              	.LVL269:
  73:Core/Src/lcd.c **** 	
 3703              		.loc 1 73 51 view .LVU1335
 3704              	.LBE892:
 3705              	.LBE891:
 873:Core/Src/lcd.c **** 		ILI9341_Write_Data ( usColor );
 3706              		.loc 1 873 34 is_stmt 1 view .LVU1336
 873:Core/Src/lcd.c **** 		ILI9341_Write_Data ( usColor );
 3707              		.loc 1 873 36 is_stmt 0 view .LVU1337
 3708 0024 0133     		adds	r3, r3, #1
ARM GAS  C:\Users\84759\AppData\Local\Temp\cc1QWPm5.s 			page 105


 3709              	.LVL270:
 3710              	.L61:
