ARM GAS  C:\Users\84759\AppData\Local\Temp\cc1QWPm5.s 			page 1


   1              		.cpu cortex-m3
   2              		.arch armv7-m
   3              		.fpu softvfp
   4              		.eabi_attribute 20, 1
   5              		.eabi_attribute 21, 1
   6              		.eabi_attribute 23, 3
   7              		.eabi_attribute 24, 1
   8              		.eabi_attribute 25, 1
   9              		.eabi_attribute 26, 1
  10              		.eabi_attribute 30, 1
  11              		.eabi_attribute 34, 1
  12              		.eabi_attribute 18, 4
  13              		.file	"lcd.c"
  14              		.text
  15              	.Ltext0:
  16              		.cfi_sections	.debug_frame
  17              		.section	.text.ILI9341_Delay,"ax",%progbits
  18              		.align	1
  19              		.syntax unified
  20              		.thumb
  21              		.thumb_func
  23              	ILI9341_Delay:
  24              	.LVL0:
  25              	.LFB68:
  26              		.file 1 "Core/Src/lcd.c"
   1:Core/Src/lcd.c **** /**
   2:Core/Src/lcd.c ****   ******************************************************************************
   3:Core/Src/lcd.c ****   * @file    bsp_ili9341_lcd.c
   4:Core/Src/lcd.c ****   * @version V1.0
   5:Core/Src/lcd.c ****   * @date    2013-xx-xx
   6:Core/Src/lcd.c ****   * @brief   ili9341Ňşľ§ĆÁÇý¶Ż
   7:Core/Src/lcd.c ****   ******************************************************************************
   8:Core/Src/lcd.c ****   * @attention
   9:Core/Src/lcd.c ****   *
  10:Core/Src/lcd.c ****   * ĘµŃéĆ˝Ě¨:Ň°»đ F103-°ÔµŔ STM32 żŞ·˘°ĺ 
  11:Core/Src/lcd.c ****   * ÂŰĚł    :http://www.firebbs.cn
  12:Core/Src/lcd.c ****   * ĚÔ±¦    :https://fire-stm32.taobao.com
  13:Core/Src/lcd.c ****   *
  14:Core/Src/lcd.c ****   ******************************************************************************
  15:Core/Src/lcd.c ****   */ 
  16:Core/Src/lcd.c **** 
  17:Core/Src/lcd.c **** #include "lcd.h"
  18:Core/Src/lcd.c **** #include "fonts.h"	
  19:Core/Src/lcd.c **** 
  20:Core/Src/lcd.c **** static SRAM_HandleTypeDef  SRAM_Handler;
  21:Core/Src/lcd.c **** static FSMC_NORSRAM_TimingTypeDef Timing;
  22:Core/Src/lcd.c **** 
  23:Core/Src/lcd.c **** //¸ůľÝŇşľ§É¨Ăč·˝Ďň¶ř±ä»ŻµÄXYĎńËŘżí¶Č
  24:Core/Src/lcd.c **** //µ÷ÓĂILI9341_GramScanşŻĘýÉčÖĂ·˝ĎňĘ±»á×Ô¶Ż¸ü¸Ä
  25:Core/Src/lcd.c **** uint16_t LCD_X_LENGTH = ILI9341_LESS_PIXEL;
  26:Core/Src/lcd.c **** uint16_t LCD_Y_LENGTH = ILI9341_MORE_PIXEL;
  27:Core/Src/lcd.c **** 
  28:Core/Src/lcd.c **** //Ňşľ§ĆÁÉ¨ĂčÄŁĘ˝Ł¬±ľ±äÁżÖ÷ŇŞÓĂÓÚ·˝±ăŃˇÔń´ĄĂţĆÁµÄĽĆËă˛ÎĘý
  29:Core/Src/lcd.c **** //˛ÎĘýżÉŃˇÖµÎŞ0-7
  30:Core/Src/lcd.c **** //µ÷ÓĂILI9341_GramScanşŻĘýÉčÖĂ·˝ĎňĘ±»á×Ô¶Ż¸ü¸Ä
  31:Core/Src/lcd.c **** //LCD¸ŐłőĘĽ»ŻÍęłÉĘ±»áĘąÓĂ±ľÄ¬ČĎÖµ
  32:Core/Src/lcd.c **** uint8_t LCD_SCAN_MODE = 6;
ARM GAS  C:\Users\84759\AppData\Local\Temp\cc1QWPm5.s 			page 2


  33:Core/Src/lcd.c **** 
  34:Core/Src/lcd.c **** 
  35:Core/Src/lcd.c **** //±Ł´ćŇşľ§ĆÁÇý¶ŻicµÄ ID
  36:Core/Src/lcd.c **** uint16_t lcdid = LCDID_UNKNOWN;
  37:Core/Src/lcd.c **** 
  38:Core/Src/lcd.c **** 
  39:Core/Src/lcd.c **** static sFONT *LCD_Currentfonts = &Font8x16;  //Ó˘ÎÄ×ÖĚĺ
  40:Core/Src/lcd.c **** static uint16_t CurrentTextColor   = BLACK;//Ç°ľ°É«
  41:Core/Src/lcd.c **** static uint16_t CurrentBackColor   = WHITE;//±łľ°É«
  42:Core/Src/lcd.c **** 
  43:Core/Src/lcd.c **** __inline void                 ILI9341_Write_Cmd           ( uint16_t usCmd );
  44:Core/Src/lcd.c **** __inline void                 ILI9341_Write_Data          ( uint16_t usData );
  45:Core/Src/lcd.c **** __inline uint16_t             ILI9341_Read_Data           ( void );
  46:Core/Src/lcd.c **** static void                   ILI9341_Delay               ( __IO uint32_t nCount );
  47:Core/Src/lcd.c **** static void                   ILI9341_GPIO_Config         ( void );
  48:Core/Src/lcd.c **** static void                   ILI9341_FSMC_Config         ( void );
  49:Core/Src/lcd.c **** static void                   ILI9341_REG_Config          ( void );
  50:Core/Src/lcd.c **** static void                   ILI9341_SetCursor           ( uint16_t usX, uint16_t usY );
  51:Core/Src/lcd.c **** static __inline void          ILI9341_FillColor           ( uint32_t ulAmout_Point, uint16_t usColo
  52:Core/Src/lcd.c **** static uint16_t               ILI9341_Read_PixelData      ( void );
  53:Core/Src/lcd.c **** 
  54:Core/Src/lcd.c **** /**
  55:Core/Src/lcd.c ****   * @brief  ĎňILI9341Đ´ČëĂüÁî
  56:Core/Src/lcd.c ****   * @param  usCmd :ŇŞĐ´ČëµÄĂüÁîŁ¨±íĽÄ´ćĆ÷µŘÖ·Ł©
  57:Core/Src/lcd.c ****   * @retval ÎŢ
  58:Core/Src/lcd.c ****   */	
  59:Core/Src/lcd.c ****  void ILI9341_Write_Cmd ( uint16_t usCmd )
  60:Core/Src/lcd.c **** {
  61:Core/Src/lcd.c **** 	* ( __IO uint16_t * ) ( FSMC_Addr_ILI9341_CMD ) = usCmd;
  62:Core/Src/lcd.c **** 	
  63:Core/Src/lcd.c **** }
  64:Core/Src/lcd.c **** 
  65:Core/Src/lcd.c **** 
  66:Core/Src/lcd.c **** /**
  67:Core/Src/lcd.c ****   * @brief  ĎňILI9341Đ´ČëĘýľÝ
  68:Core/Src/lcd.c ****   * @param  usData :ŇŞĐ´ČëµÄĘýľÝ
  69:Core/Src/lcd.c ****   * @retval ÎŢ
  70:Core/Src/lcd.c ****   */	
  71:Core/Src/lcd.c ****  void ILI9341_Write_Data ( uint16_t usData )
  72:Core/Src/lcd.c **** {
  73:Core/Src/lcd.c **** 	* ( __IO uint16_t * ) ( FSMC_Addr_ILI9341_DATA ) = usData;
  74:Core/Src/lcd.c **** 	
  75:Core/Src/lcd.c **** }
  76:Core/Src/lcd.c **** 
  77:Core/Src/lcd.c **** 
  78:Core/Src/lcd.c **** /**
  79:Core/Src/lcd.c ****   * @brief  ´ÓILI9341¶ÁČˇĘýľÝ
  80:Core/Src/lcd.c ****   * @param  ÎŢ
  81:Core/Src/lcd.c ****   * @retval ¶ÁČˇµ˝µÄĘýľÝ
  82:Core/Src/lcd.c ****   */	
  83:Core/Src/lcd.c ****  uint16_t ILI9341_Read_Data ( void )
  84:Core/Src/lcd.c **** {
  85:Core/Src/lcd.c **** 	return ( * ( __IO uint16_t * ) ( FSMC_Addr_ILI9341_DATA ) );
  86:Core/Src/lcd.c **** 	
  87:Core/Src/lcd.c **** }
  88:Core/Src/lcd.c **** 
  89:Core/Src/lcd.c **** 
ARM GAS  C:\Users\84759\AppData\Local\Temp\cc1QWPm5.s 			page 3


  90:Core/Src/lcd.c **** /**
  91:Core/Src/lcd.c ****   * @brief  ÓĂÓÚ ILI9341 ĽňµĄŃÓĘ±şŻĘý
  92:Core/Src/lcd.c ****   * @param  nCount ŁşŃÓĘ±ĽĆĘýÖµ
  93:Core/Src/lcd.c ****   * @retval ÎŢ
  94:Core/Src/lcd.c ****   */	
  95:Core/Src/lcd.c **** static void ILI9341_Delay ( __IO uint32_t nCount )
  96:Core/Src/lcd.c **** {
  27              		.loc 1 96 1 view -0
  28              		.cfi_startproc
  29              		@ args = 0, pretend = 0, frame = 8
  30              		@ frame_needed = 0, uses_anonymous_args = 0
  31              		@ link register save eliminated.
  32              		.loc 1 96 1 is_stmt 0 view .LVU1
  33 0000 82B0     		sub	sp, sp, #8
  34              	.LCFI0:
  35              		.cfi_def_cfa_offset 8
  36 0002 0190     		str	r0, [sp, #4]
  97:Core/Src/lcd.c ****   for ( ; nCount != 0; nCount -- );
  37              		.loc 1 97 3 is_stmt 1 view .LVU2
  38 0004 02E0     		b	.L2
  39              	.L3:
  40              		.loc 1 97 35 discriminator 2 view .LVU3
  41              		.loc 1 97 24 discriminator 2 view .LVU4
  42              		.loc 1 97 31 is_stmt 0 discriminator 2 view .LVU5
  43 0006 019B     		ldr	r3, [sp, #4]
  44 0008 013B     		subs	r3, r3, #1
  45 000a 0193     		str	r3, [sp, #4]
  46              	.L2:
  47              		.loc 1 97 11 is_stmt 1 discriminator 1 view .LVU6
  48              		.loc 1 97 18 is_stmt 0 discriminator 1 view .LVU7
  49 000c 019B     		ldr	r3, [sp, #4]
  50              		.loc 1 97 3 discriminator 1 view .LVU8
  51 000e 002B     		cmp	r3, #0
  52 0010 F9D1     		bne	.L3
  98:Core/Src/lcd.c **** 	
  99:Core/Src/lcd.c **** }
  53              		.loc 1 99 1 view .LVU9
  54 0012 02B0     		add	sp, sp, #8
  55              	.LCFI1:
  56              		.cfi_def_cfa_offset 0
  57              		@ sp needed
  58 0014 7047     		bx	lr
  59              		.cfi_endproc
  60              	.LFE68:
  62              		.section	.text.ILI9341_Read_PixelData,"ax",%progbits
  63              		.align	1
  64              		.syntax unified
  65              		.thumb
  66              		.thumb_func
  68              	ILI9341_Read_PixelData:
  69              	.LFB82:
 100:Core/Src/lcd.c **** 
 101:Core/Src/lcd.c **** 
 102:Core/Src/lcd.c **** /**
 103:Core/Src/lcd.c ****   * @brief  łőĘĽ»ŻILI9341µÄIOŇý˝Ĺ
 104:Core/Src/lcd.c ****   * @param  ÎŢ
 105:Core/Src/lcd.c ****   * @retval ÎŢ
ARM GAS  C:\Users\84759\AppData\Local\Temp\cc1QWPm5.s 			page 4


 106:Core/Src/lcd.c ****   */
 107:Core/Src/lcd.c **** static void ILI9341_GPIO_Config ( void )
 108:Core/Src/lcd.c **** {
 109:Core/Src/lcd.c **** 	GPIO_InitTypeDef GPIO_Initure;
 110:Core/Src/lcd.c ****   
 111:Core/Src/lcd.c ****       /* Enable GPIOs clock */
 112:Core/Src/lcd.c ****   __HAL_RCC_GPIOD_CLK_ENABLE();
 113:Core/Src/lcd.c ****   __HAL_RCC_GPIOE_CLK_ENABLE();
 114:Core/Src/lcd.c ****   __HAL_RCC_GPIOF_CLK_ENABLE();
 115:Core/Src/lcd.c ****   __HAL_RCC_GPIOG_CLK_ENABLE();
 116:Core/Src/lcd.c ****   __HAL_RCC_FSMC_CLK_ENABLE();			//ĘąÄÜFSMCĘ±ÖÓ
 117:Core/Src/lcd.c ****   
 118:Core/Src/lcd.c ****     /* Common GPIO configuration */
 119:Core/Src/lcd.c ****   GPIO_Initure.Mode      = GPIO_MODE_OUTPUT_PP;  //ÍĆÍěĘäłö
 120:Core/Src/lcd.c ****   GPIO_Initure.Pull      = GPIO_PULLUP;
 121:Core/Src/lcd.c ****   GPIO_Initure.Speed     = GPIO_SPEED_FREQ_HIGH;
 122:Core/Src/lcd.c **** 
 123:Core/Src/lcd.c ****   
 124:Core/Src/lcd.c ****   GPIO_Initure.Pin=GPIO_PIN_12;
 125:Core/Src/lcd.c **** 	HAL_GPIO_Init(GPIOG,&GPIO_Initure);
 126:Core/Src/lcd.c ****   
 127:Core/Src/lcd.c ****   //łőĘĽ»Ż¸´Î»Ňý˝ĹG11
 128:Core/Src/lcd.c **** 	GPIO_Initure.Pin=GPIO_PIN_11;
 129:Core/Src/lcd.c **** 	HAL_GPIO_Init(GPIOG,&GPIO_Initure);
 130:Core/Src/lcd.c ****   
 131:Core/Src/lcd.c ****   GPIO_Initure.Mode=GPIO_MODE_AF_PP; 
 132:Core/Src/lcd.c **** //  GPIO_Initure.Alternate=GPIO_AF12_FSMC;	//¸´ÓĂÎŞFSMC
 133:Core/Src/lcd.c ****   
 134:Core/Src/lcd.c **** 	//łőĘĽ»ŻPD0,1,4,5,8,9,10,14,15
 135:Core/Src/lcd.c **** 	GPIO_Initure.Pin=GPIO_PIN_0|GPIO_PIN_1|GPIO_PIN_4|GPIO_PIN_5|GPIO_PIN_8|\
 136:Core/Src/lcd.c **** 					         GPIO_PIN_9|GPIO_PIN_10|GPIO_PIN_14|GPIO_PIN_15; 
 137:Core/Src/lcd.c ****   HAL_GPIO_Init(GPIOD, &GPIO_Initure);
 138:Core/Src/lcd.c ****   
 139:Core/Src/lcd.c ****   	//łőĘĽ»ŻPE2,7,8,9,10,11,12,13,14,15
 140:Core/Src/lcd.c **** 	GPIO_Initure.Pin=GPIO_PIN_2|GPIO_PIN_7|GPIO_PIN_8|GPIO_PIN_9|GPIO_PIN_10|GPIO_PIN_11|\
 141:Core/Src/lcd.c ****                      GPIO_PIN_12|GPIO_PIN_13|GPIO_PIN_14|GPIO_PIN_15;
 142:Core/Src/lcd.c **** 	HAL_GPIO_Init(GPIOE,&GPIO_Initure);
 143:Core/Src/lcd.c **** 	
 144:Core/Src/lcd.c **** 	//łőĘĽ»ŻG12
 145:Core/Src/lcd.c **** 	GPIO_Initure.Pin=GPIO_PIN_6;
 146:Core/Src/lcd.c **** 	HAL_GPIO_Init(GPIOG,&GPIO_Initure);
 147:Core/Src/lcd.c **** 
 148:Core/Src/lcd.c **** 
 149:Core/Src/lcd.c **** //	/* ĘąÄÜFSMC¶ÔÓ¦ĎŕÓ¦ąÜ˝ĹĘ±ÖÓ*/
 150:Core/Src/lcd.c **** //	RCC_APB2PeriphClockCmd ( 	
 151:Core/Src/lcd.c **** //													/*żŘÖĆĐĹşĹ*/
 152:Core/Src/lcd.c **** //													ILI9341_CS_CLK|ILI9341_DC_CLK|ILI9341_WR_CLK|
 153:Core/Src/lcd.c **** //													ILI9341_RD_CLK	|ILI9341_BK_CLK|ILI9341_RST_CLK|
 154:Core/Src/lcd.c **** //													/*ĘýľÝĐĹşĹ*/
 155:Core/Src/lcd.c **** //													ILI9341_D0_CLK|ILI9341_D1_CLK|	ILI9341_D2_CLK | 
 156:Core/Src/lcd.c **** //													ILI9341_D3_CLK | ILI9341_D4_CLK|ILI9341_D5_CLK|
 157:Core/Src/lcd.c **** //													ILI9341_D6_CLK | ILI9341_D7_CLK|ILI9341_D8_CLK|
 158:Core/Src/lcd.c **** //													ILI9341_D9_CLK | ILI9341_D10_CLK|ILI9341_D11_CLK|
 159:Core/Src/lcd.c **** //													ILI9341_D12_CLK | ILI9341_D13_CLK|ILI9341_D14_CLK|
 160:Core/Src/lcd.c **** //													ILI9341_D15_CLK	, ENABLE );
 161:Core/Src/lcd.c **** //		
 162:Core/Src/lcd.c **** //	
ARM GAS  C:\Users\84759\AppData\Local\Temp\cc1QWPm5.s 			page 5


 163:Core/Src/lcd.c **** //	/* ĹäÖĂFSMCĎŕ¶ÔÓ¦µÄĘýľÝĎß,FSMC-D0~D15 */	
 164:Core/Src/lcd.c **** //	GPIO_InitStructure.GPIO_Speed = GPIO_Speed_50MHz;
 165:Core/Src/lcd.c **** //	GPIO_InitStructure.GPIO_Mode =  GPIO_Mode_AF_PP;
 166:Core/Src/lcd.c **** //	
 167:Core/Src/lcd.c **** //	GPIO_InitStructure.GPIO_Pin = ILI9341_D0_PIN;
 168:Core/Src/lcd.c **** //	GPIO_Init ( ILI9341_D0_PORT, & GPIO_InitStructure );
 169:Core/Src/lcd.c **** 
 170:Core/Src/lcd.c **** //	GPIO_InitStructure.GPIO_Pin = ILI9341_D1_PIN;
 171:Core/Src/lcd.c **** //	GPIO_Init ( ILI9341_D1_PORT, & GPIO_InitStructure );
 172:Core/Src/lcd.c **** //	
 173:Core/Src/lcd.c **** //	GPIO_InitStructure.GPIO_Pin = ILI9341_D2_PIN;
 174:Core/Src/lcd.c **** //	GPIO_Init ( ILI9341_D2_PORT, & GPIO_InitStructure );
 175:Core/Src/lcd.c **** //	
 176:Core/Src/lcd.c **** //	GPIO_InitStructure.GPIO_Pin = ILI9341_D3_PIN;
 177:Core/Src/lcd.c **** //	GPIO_Init ( ILI9341_D3_PORT, & GPIO_InitStructure );
 178:Core/Src/lcd.c **** //	
 179:Core/Src/lcd.c **** //	GPIO_InitStructure.GPIO_Pin = ILI9341_D4_PIN;
 180:Core/Src/lcd.c **** //	GPIO_Init ( ILI9341_D4_PORT, & GPIO_InitStructure );
 181:Core/Src/lcd.c **** //	
 182:Core/Src/lcd.c **** //	GPIO_InitStructure.GPIO_Pin = ILI9341_D5_PIN;
 183:Core/Src/lcd.c **** //	GPIO_Init ( ILI9341_D5_PORT, & GPIO_InitStructure );
 184:Core/Src/lcd.c **** //	
 185:Core/Src/lcd.c **** //	GPIO_InitStructure.GPIO_Pin = ILI9341_D6_PIN;
 186:Core/Src/lcd.c **** //	GPIO_Init ( ILI9341_D6_PORT, & GPIO_InitStructure );
 187:Core/Src/lcd.c **** //	
 188:Core/Src/lcd.c **** //	GPIO_InitStructure.GPIO_Pin = ILI9341_D7_PIN;
 189:Core/Src/lcd.c **** //	GPIO_Init ( ILI9341_D7_PORT, & GPIO_InitStructure );
 190:Core/Src/lcd.c **** //	
 191:Core/Src/lcd.c **** //	GPIO_InitStructure.GPIO_Pin = ILI9341_D8_PIN;
 192:Core/Src/lcd.c **** //	GPIO_Init ( ILI9341_D8_PORT, & GPIO_InitStructure );
 193:Core/Src/lcd.c **** //	
 194:Core/Src/lcd.c **** //	GPIO_InitStructure.GPIO_Pin = ILI9341_D9_PIN;
 195:Core/Src/lcd.c **** //	GPIO_Init ( ILI9341_D9_PORT, & GPIO_InitStructure );
 196:Core/Src/lcd.c **** //	
 197:Core/Src/lcd.c **** //	GPIO_InitStructure.GPIO_Pin = ILI9341_D10_PIN;
 198:Core/Src/lcd.c **** //	GPIO_Init ( ILI9341_D10_PORT, & GPIO_InitStructure );
 199:Core/Src/lcd.c **** //	
 200:Core/Src/lcd.c **** //	GPIO_InitStructure.GPIO_Pin = ILI9341_D11_PIN;
 201:Core/Src/lcd.c **** //	GPIO_Init ( ILI9341_D11_PORT, & GPIO_InitStructure );
 202:Core/Src/lcd.c **** 
 203:Core/Src/lcd.c **** //	GPIO_InitStructure.GPIO_Pin = ILI9341_D12_PIN;
 204:Core/Src/lcd.c **** //	GPIO_Init ( ILI9341_D12_PORT, & GPIO_InitStructure );	
 205:Core/Src/lcd.c **** //	
 206:Core/Src/lcd.c **** //	GPIO_InitStructure.GPIO_Pin = ILI9341_D13_PIN;
 207:Core/Src/lcd.c **** //	GPIO_Init ( ILI9341_D13_PORT, & GPIO_InitStructure );
 208:Core/Src/lcd.c **** //	
 209:Core/Src/lcd.c **** //	GPIO_InitStructure.GPIO_Pin = ILI9341_D14_PIN;
 210:Core/Src/lcd.c **** //	GPIO_Init ( ILI9341_D14_PORT, & GPIO_InitStructure );
 211:Core/Src/lcd.c **** //	
 212:Core/Src/lcd.c **** //	GPIO_InitStructure.GPIO_Pin = ILI9341_D15_PIN;
 213:Core/Src/lcd.c **** //	GPIO_Init ( ILI9341_D15_PORT, & GPIO_InitStructure );
 214:Core/Src/lcd.c **** //	
 215:Core/Src/lcd.c **** 
 216:Core/Src/lcd.c **** //	
 217:Core/Src/lcd.c **** //	/* ĹäÖĂFSMCĎŕ¶ÔÓ¦µÄżŘÖĆĎß
 218:Core/Src/lcd.c **** //	 * FSMC_NOE   :LCD-RD
 219:Core/Src/lcd.c **** //	 * FSMC_NWE   :LCD-WR
ARM GAS  C:\Users\84759\AppData\Local\Temp\cc1QWPm5.s 			page 6


 220:Core/Src/lcd.c **** //	 * FSMC_NE1   :LCD-CS
 221:Core/Src/lcd.c **** //	 * FSMC_A16  	:LCD-DC
 222:Core/Src/lcd.c **** //	 */
 223:Core/Src/lcd.c **** //	GPIO_InitStructure.GPIO_Speed = GPIO_Speed_50MHz;
 224:Core/Src/lcd.c **** //	GPIO_InitStructure.GPIO_Mode =  GPIO_Mode_AF_PP;
 225:Core/Src/lcd.c **** //	
 226:Core/Src/lcd.c **** //	GPIO_InitStructure.GPIO_Pin = ILI9341_RD_PIN; 
 227:Core/Src/lcd.c **** //	GPIO_Init (ILI9341_RD_PORT, & GPIO_InitStructure );
 228:Core/Src/lcd.c **** //	
 229:Core/Src/lcd.c **** //	GPIO_InitStructure.GPIO_Pin = ILI9341_WR_PIN; 
 230:Core/Src/lcd.c **** //	GPIO_Init (ILI9341_WR_PORT, & GPIO_InitStructure );
 231:Core/Src/lcd.c **** //	
 232:Core/Src/lcd.c **** //	GPIO_InitStructure.GPIO_Pin = ILI9341_CS_PIN; 
 233:Core/Src/lcd.c **** //	GPIO_Init ( ILI9341_CS_PORT, & GPIO_InitStructure );  
 234:Core/Src/lcd.c **** //	
 235:Core/Src/lcd.c **** //	GPIO_InitStructure.GPIO_Pin = ILI9341_DC_PIN; 
 236:Core/Src/lcd.c **** //	GPIO_Init ( ILI9341_DC_PORT, & GPIO_InitStructure );
 237:Core/Src/lcd.c **** //	
 238:Core/Src/lcd.c **** 
 239:Core/Src/lcd.c **** //  /* ĹäÖĂLCD¸´Î»RSTżŘÖĆąÜ˝Ĺ*/
 240:Core/Src/lcd.c **** //	GPIO_InitStructure.GPIO_Mode = GPIO_Mode_Out_PP;
 241:Core/Src/lcd.c **** //	GPIO_InitStructure.GPIO_Speed = GPIO_Speed_50MHz;
 242:Core/Src/lcd.c **** //	
 243:Core/Src/lcd.c **** //	GPIO_InitStructure.GPIO_Pin = ILI9341_RST_PIN; 
 244:Core/Src/lcd.c **** //	GPIO_Init ( ILI9341_RST_PORT, & GPIO_InitStructure );
 245:Core/Src/lcd.c **** //	
 246:Core/Src/lcd.c **** //	
 247:Core/Src/lcd.c **** //	/* ĹäÖĂLCD±łąâżŘÖĆąÜ˝ĹBK*/
 248:Core/Src/lcd.c **** //	GPIO_InitStructure.GPIO_Mode = GPIO_Mode_Out_PP;
 249:Core/Src/lcd.c **** //	GPIO_InitStructure.GPIO_Speed = GPIO_Speed_50MHz;  
 250:Core/Src/lcd.c **** //	
 251:Core/Src/lcd.c **** //	GPIO_InitStructure.GPIO_Pin = ILI9341_BK_PIN; 
 252:Core/Src/lcd.c **** //	GPIO_Init ( ILI9341_BK_PORT, & GPIO_InitStructure );
 253:Core/Src/lcd.c **** }
 254:Core/Src/lcd.c **** 
 255:Core/Src/lcd.c **** 
 256:Core/Src/lcd.c ****  /**
 257:Core/Src/lcd.c ****   * @brief  LCD  FSMC ÄŁĘ˝ĹäÖĂ
 258:Core/Src/lcd.c ****   * @param  ÎŢ
 259:Core/Src/lcd.c ****   * @retval ÎŢ
 260:Core/Src/lcd.c ****   */
 261:Core/Src/lcd.c **** static void ILI9341_FSMC_Config ( void )
 262:Core/Src/lcd.c **** {
 263:Core/Src/lcd.c **** 	SRAM_Handler.Instance = FSMC_NORSRAM_DEVICE;
 264:Core/Src/lcd.c ****    SRAM_Handler.Extended = FSMC_NORSRAM_EXTENDED_DEVICE;
 265:Core/Src/lcd.c ****   
 266:Core/Src/lcd.c ****   /* SRAM device configuration */  
 267:Core/Src/lcd.c ****   Timing.AddressSetupTime      = 0x00;
 268:Core/Src/lcd.c ****   Timing.AddressHoldTime       = 0x00;
 269:Core/Src/lcd.c ****   Timing.DataSetupTime         = 0x08;
 270:Core/Src/lcd.c ****   Timing.BusTurnAroundDuration = 0x00;
 271:Core/Src/lcd.c ****   Timing.CLKDivision           = 0x00;
 272:Core/Src/lcd.c ****   Timing.DataLatency           = 0x00;
 273:Core/Src/lcd.c ****   Timing.AccessMode            = FSMC_ACCESS_MODE_B;
 274:Core/Src/lcd.c ****  
 275:Core/Src/lcd.c ****   SRAM_Handler.Init.NSBank=FSMC_Bank1_NORSRAMx    ;     					        //ĘąÓĂNE4
 276:Core/Src/lcd.c **** 	SRAM_Handler.Init.DataAddressMux=FSMC_DATA_ADDRESS_MUX_DISABLE; 	//µŘÖ·/ĘýľÝĎß˛»¸´ÓĂ
ARM GAS  C:\Users\84759\AppData\Local\Temp\cc1QWPm5.s 			page 7


 277:Core/Src/lcd.c **** 	SRAM_Handler.Init.MemoryType=FSMC_MEMORY_TYPE_NOR;   				       //NOR
 278:Core/Src/lcd.c **** 	SRAM_Handler.Init.MemoryDataWidth=FSMC_NORSRAM_MEM_BUS_WIDTH_16; 	//16Î»ĘýľÝżí¶Č
 279:Core/Src/lcd.c **** 	SRAM_Handler.Init.BurstAccessMode=FSMC_BURST_ACCESS_MODE_DISABLE; //ĘÇ·ńĘąÄÜÍ»·˘·ĂÎĘ,˝ö¶ÔÍ¬˛˝Í»·˘´
 280:Core/Src/lcd.c **** 	SRAM_Handler.Init.WaitSignalPolarity=FSMC_WAIT_SIGNAL_POLARITY_LOW;//µČ´ýĐĹşĹµÄĽ«ĐÔ,˝öÔÚÍ»·˘ÄŁĘ˝·Ă
 281:Core/Src/lcd.c **** 	SRAM_Handler.Init.WaitSignalActive=FSMC_WAIT_TIMING_BEFORE_WS;   	//´ć´˘Ć÷ĘÇÔÚµČ´ýÖÜĆÚÖ®Ç°µÄŇ»¸öĘ±
 282:Core/Src/lcd.c **** 	SRAM_Handler.Init.WriteOperation=FSMC_WRITE_OPERATION_ENABLE;    	//´ć´˘Ć÷Đ´ĘąÄÜ
 283:Core/Src/lcd.c **** 	SRAM_Handler.Init.WaitSignal=FSMC_WAIT_SIGNAL_DISABLE;           	//µČ´ýĘąÄÜÎ»,´Ë´¦Î´ÓĂµ˝
 284:Core/Src/lcd.c **** 	SRAM_Handler.Init.ExtendedMode=FSMC_EXTENDED_MODE_DISABLE;        	//¶ÁĐ´ĘąÓĂĎŕÍ¬µÄĘ±Đň
 285:Core/Src/lcd.c **** 	SRAM_Handler.Init.AsynchronousWait=FSMC_ASYNCHRONOUS_WAIT_DISABLE;	//ĘÇ·ńĘąÄÜÍ¬˛˝´«ĘäÄŁĘ˝ĎÂµÄµČ´ýĐ
 286:Core/Src/lcd.c **** 	SRAM_Handler.Init.WriteBurst=FSMC_WRITE_BURST_DISABLE;           	  //˝űÖąÍ»·˘Đ´
 287:Core/Src/lcd.c ****   
 288:Core/Src/lcd.c ****   /* SRAM controller initialization */
 289:Core/Src/lcd.c ****    ILI9341_GPIO_Config();
 290:Core/Src/lcd.c ****   HAL_SRAM_Init(& SRAM_Handler, &Timing, &Timing);
 291:Core/Src/lcd.c **** 		
 292:Core/Src/lcd.c **** }
 293:Core/Src/lcd.c **** 
 294:Core/Src/lcd.c **** 
 295:Core/Src/lcd.c **** /**
 296:Core/Src/lcd.c ****  * @brief  łőĘĽ»ŻILI9341ĽÄ´ćĆ÷
 297:Core/Src/lcd.c ****  * @param  ÎŢ
 298:Core/Src/lcd.c ****  * @retval ÎŢ
 299:Core/Src/lcd.c ****  */
 300:Core/Src/lcd.c **** static void ILI9341_REG_Config ( void )
 301:Core/Src/lcd.c **** {
 302:Core/Src/lcd.c ****   lcdid = ILI9341_ReadID();
 303:Core/Src/lcd.c ****   
 304:Core/Src/lcd.c ****   if(lcdid == LCDID_ILI9341)
 305:Core/Src/lcd.c ****   {
 306:Core/Src/lcd.c ****     /*  Power control B (CFh)  */
 307:Core/Src/lcd.c ****     DEBUG_DELAY  ();
 308:Core/Src/lcd.c ****     ILI9341_Write_Cmd ( 0xCF  );
 309:Core/Src/lcd.c ****     ILI9341_Write_Data ( 0x00  );
 310:Core/Src/lcd.c ****     ILI9341_Write_Data ( 0x81  );
 311:Core/Src/lcd.c ****     ILI9341_Write_Data ( 0x30  );
 312:Core/Src/lcd.c ****     
 313:Core/Src/lcd.c ****     /*  Power on sequence control (EDh) */
 314:Core/Src/lcd.c ****     DEBUG_DELAY ();
 315:Core/Src/lcd.c ****     ILI9341_Write_Cmd ( 0xED );
 316:Core/Src/lcd.c ****     ILI9341_Write_Data ( 0x64 );
 317:Core/Src/lcd.c ****     ILI9341_Write_Data ( 0x03 );
 318:Core/Src/lcd.c ****     ILI9341_Write_Data ( 0x12 );
 319:Core/Src/lcd.c ****     ILI9341_Write_Data ( 0x81 );
 320:Core/Src/lcd.c ****     
 321:Core/Src/lcd.c ****     /*  Driver timing control A (E8h) */
 322:Core/Src/lcd.c ****     DEBUG_DELAY ();
 323:Core/Src/lcd.c ****     ILI9341_Write_Cmd ( 0xE8 );
 324:Core/Src/lcd.c ****     ILI9341_Write_Data ( 0x85 );
 325:Core/Src/lcd.c ****     ILI9341_Write_Data ( 0x10 );
 326:Core/Src/lcd.c ****     ILI9341_Write_Data ( 0x78 );
 327:Core/Src/lcd.c ****     
 328:Core/Src/lcd.c ****     /*  Power control A (CBh) */
 329:Core/Src/lcd.c ****     DEBUG_DELAY ();
 330:Core/Src/lcd.c ****     ILI9341_Write_Cmd ( 0xCB );
 331:Core/Src/lcd.c ****     ILI9341_Write_Data ( 0x39 );
 332:Core/Src/lcd.c ****     ILI9341_Write_Data ( 0x2C );
 333:Core/Src/lcd.c ****     ILI9341_Write_Data ( 0x00 );
ARM GAS  C:\Users\84759\AppData\Local\Temp\cc1QWPm5.s 			page 8


 334:Core/Src/lcd.c ****     ILI9341_Write_Data ( 0x34 );
 335:Core/Src/lcd.c ****     //ILI9341_Write_Data ( 0x02 );
 336:Core/Src/lcd.c ****     ILI9341_Write_Data ( 0x06 ); //Ô­Ŕ´ĘÇ0x02¸ÄÎŞ0x06żÉ·ŔÖąŇşľ§ĎÔĘľ°×ĆÁĘ±ÓĐĚőÎĆµÄÇéżö
 337:Core/Src/lcd.c ****     
 338:Core/Src/lcd.c ****     /* Pump ratio control (F7h) */
 339:Core/Src/lcd.c ****     DEBUG_DELAY ();
 340:Core/Src/lcd.c ****     ILI9341_Write_Cmd ( 0xF7 );
 341:Core/Src/lcd.c ****     ILI9341_Write_Data ( 0x20 );
 342:Core/Src/lcd.c ****     
 343:Core/Src/lcd.c ****     /* Driver timing control B */
 344:Core/Src/lcd.c ****     DEBUG_DELAY ();
 345:Core/Src/lcd.c ****     ILI9341_Write_Cmd ( 0xEA );
 346:Core/Src/lcd.c ****     ILI9341_Write_Data ( 0x00 );
 347:Core/Src/lcd.c ****     ILI9341_Write_Data ( 0x00 );
 348:Core/Src/lcd.c ****     
 349:Core/Src/lcd.c ****     /* Frame Rate Control (In Normal Mode/Full Colors) (B1h) */
 350:Core/Src/lcd.c ****     DEBUG_DELAY ();
 351:Core/Src/lcd.c ****     ILI9341_Write_Cmd ( 0xB1 );
 352:Core/Src/lcd.c ****     ILI9341_Write_Data ( 0x00 );
 353:Core/Src/lcd.c ****     ILI9341_Write_Data ( 0x1B );
 354:Core/Src/lcd.c ****     
 355:Core/Src/lcd.c ****     /*  Display Function Control (B6h) */
 356:Core/Src/lcd.c ****     DEBUG_DELAY ();
 357:Core/Src/lcd.c ****     ILI9341_Write_Cmd ( 0xB6 );
 358:Core/Src/lcd.c ****     ILI9341_Write_Data ( 0x0A );
 359:Core/Src/lcd.c ****     ILI9341_Write_Data ( 0xA2 );
 360:Core/Src/lcd.c ****     
 361:Core/Src/lcd.c ****     /* Power Control 1 (C0h) */
 362:Core/Src/lcd.c ****     DEBUG_DELAY ();
 363:Core/Src/lcd.c ****     ILI9341_Write_Cmd ( 0xC0 );
 364:Core/Src/lcd.c ****     ILI9341_Write_Data ( 0x35 );
 365:Core/Src/lcd.c ****     
 366:Core/Src/lcd.c ****     /* Power Control 2 (C1h) */
 367:Core/Src/lcd.c ****     DEBUG_DELAY ();
 368:Core/Src/lcd.c ****     ILI9341_Write_Cmd ( 0xC1 );
 369:Core/Src/lcd.c ****     ILI9341_Write_Data ( 0x11 );
 370:Core/Src/lcd.c ****     
 371:Core/Src/lcd.c ****     /* VCOM Control 1 (C5h) */
 372:Core/Src/lcd.c ****     ILI9341_Write_Cmd ( 0xC5 );
 373:Core/Src/lcd.c ****     ILI9341_Write_Data ( 0x45 );
 374:Core/Src/lcd.c ****     ILI9341_Write_Data ( 0x45 );
 375:Core/Src/lcd.c ****     
 376:Core/Src/lcd.c ****     /*  VCOM Control 2 (C7h)  */
 377:Core/Src/lcd.c ****     ILI9341_Write_Cmd ( 0xC7 );
 378:Core/Src/lcd.c ****     ILI9341_Write_Data ( 0xA2 );
 379:Core/Src/lcd.c ****     
 380:Core/Src/lcd.c ****     /* Enable 3G (F2h) */
 381:Core/Src/lcd.c ****     ILI9341_Write_Cmd ( 0xF2 );
 382:Core/Src/lcd.c ****     ILI9341_Write_Data ( 0x00 );
 383:Core/Src/lcd.c ****     
 384:Core/Src/lcd.c ****     /* Gamma Set (26h) */
 385:Core/Src/lcd.c ****     ILI9341_Write_Cmd ( 0x26 );
 386:Core/Src/lcd.c ****     ILI9341_Write_Data ( 0x01 );
 387:Core/Src/lcd.c ****     DEBUG_DELAY ();
 388:Core/Src/lcd.c ****     
 389:Core/Src/lcd.c ****     /* Positive Gamma Correction */
 390:Core/Src/lcd.c ****     ILI9341_Write_Cmd ( 0xE0 ); //Set Gamma
ARM GAS  C:\Users\84759\AppData\Local\Temp\cc1QWPm5.s 			page 9


 391:Core/Src/lcd.c ****     ILI9341_Write_Data ( 0x0F );
 392:Core/Src/lcd.c ****     ILI9341_Write_Data ( 0x26 );
 393:Core/Src/lcd.c ****     ILI9341_Write_Data ( 0x24 );
 394:Core/Src/lcd.c ****     ILI9341_Write_Data ( 0x0B );
 395:Core/Src/lcd.c ****     ILI9341_Write_Data ( 0x0E );
 396:Core/Src/lcd.c ****     ILI9341_Write_Data ( 0x09 );
 397:Core/Src/lcd.c ****     ILI9341_Write_Data ( 0x54 );
 398:Core/Src/lcd.c ****     ILI9341_Write_Data ( 0xA8 );
 399:Core/Src/lcd.c ****     ILI9341_Write_Data ( 0x46 );
 400:Core/Src/lcd.c ****     ILI9341_Write_Data ( 0x0C );
 401:Core/Src/lcd.c ****     ILI9341_Write_Data ( 0x17 );
 402:Core/Src/lcd.c ****     ILI9341_Write_Data ( 0x09 );
 403:Core/Src/lcd.c ****     ILI9341_Write_Data ( 0x0F );
 404:Core/Src/lcd.c ****     ILI9341_Write_Data ( 0x07 );
 405:Core/Src/lcd.c ****     ILI9341_Write_Data ( 0x00 );
 406:Core/Src/lcd.c ****     
 407:Core/Src/lcd.c ****     /* Negative Gamma Correction (E1h) */
 408:Core/Src/lcd.c ****     ILI9341_Write_Cmd ( 0XE1 ); //Set Gamma
 409:Core/Src/lcd.c ****     ILI9341_Write_Data ( 0x00 );
 410:Core/Src/lcd.c ****     ILI9341_Write_Data ( 0x19 );
 411:Core/Src/lcd.c ****     ILI9341_Write_Data ( 0x1B );
 412:Core/Src/lcd.c ****     ILI9341_Write_Data ( 0x04 );
 413:Core/Src/lcd.c ****     ILI9341_Write_Data ( 0x10 );
 414:Core/Src/lcd.c ****     ILI9341_Write_Data ( 0x07 );
 415:Core/Src/lcd.c ****     ILI9341_Write_Data ( 0x2A );
 416:Core/Src/lcd.c ****     ILI9341_Write_Data ( 0x47 );
 417:Core/Src/lcd.c ****     ILI9341_Write_Data ( 0x39 );
 418:Core/Src/lcd.c ****     ILI9341_Write_Data ( 0x03 );
 419:Core/Src/lcd.c ****     ILI9341_Write_Data ( 0x06 );
 420:Core/Src/lcd.c ****     ILI9341_Write_Data ( 0x06 );
 421:Core/Src/lcd.c ****     ILI9341_Write_Data ( 0x30 );
 422:Core/Src/lcd.c ****     ILI9341_Write_Data ( 0x38 );
 423:Core/Src/lcd.c ****     ILI9341_Write_Data ( 0x0F );
 424:Core/Src/lcd.c ****     
 425:Core/Src/lcd.c ****     /* memory access control set */
 426:Core/Src/lcd.c ****     DEBUG_DELAY ();
 427:Core/Src/lcd.c ****     ILI9341_Write_Cmd ( 0x36 ); 	
 428:Core/Src/lcd.c ****     ILI9341_Write_Data ( 0xC8 );    /*ĘúĆÁ  ×óÉĎ˝Çµ˝ (Ćđµă)µ˝ÓŇĎÂ˝Ç (ÖŐµă)É¨Ăč·˝Ę˝*/
 429:Core/Src/lcd.c ****     DEBUG_DELAY ();
 430:Core/Src/lcd.c ****     
 431:Core/Src/lcd.c ****     /* column address control set */
 432:Core/Src/lcd.c ****     ILI9341_Write_Cmd ( CMD_SetCoordinateX ); 
 433:Core/Src/lcd.c ****     ILI9341_Write_Data ( 0x00 );
 434:Core/Src/lcd.c ****     ILI9341_Write_Data ( 0x00 );
 435:Core/Src/lcd.c ****     ILI9341_Write_Data ( 0x00 );
 436:Core/Src/lcd.c ****     ILI9341_Write_Data ( 0xEF );
 437:Core/Src/lcd.c ****     
 438:Core/Src/lcd.c ****     /* page address control set */
 439:Core/Src/lcd.c ****     DEBUG_DELAY ();
 440:Core/Src/lcd.c ****     ILI9341_Write_Cmd ( CMD_SetCoordinateY ); 
 441:Core/Src/lcd.c ****     ILI9341_Write_Data ( 0x00 );
 442:Core/Src/lcd.c ****     ILI9341_Write_Data ( 0x00 );
 443:Core/Src/lcd.c ****     ILI9341_Write_Data ( 0x01 );
 444:Core/Src/lcd.c ****     ILI9341_Write_Data ( 0x3F );
 445:Core/Src/lcd.c ****     
 446:Core/Src/lcd.c ****     /*  Pixel Format Set (3Ah)  */
 447:Core/Src/lcd.c ****     DEBUG_DELAY ();
ARM GAS  C:\Users\84759\AppData\Local\Temp\cc1QWPm5.s 			page 10


 448:Core/Src/lcd.c ****     ILI9341_Write_Cmd ( 0x3a ); 
 449:Core/Src/lcd.c ****     ILI9341_Write_Data ( 0x55 );
 450:Core/Src/lcd.c ****     
 451:Core/Src/lcd.c ****     /* Sleep Out (11h)  */
 452:Core/Src/lcd.c ****     ILI9341_Write_Cmd ( 0x11 );	
 453:Core/Src/lcd.c ****     ILI9341_Delay ( 0xAFFf<<2 );
 454:Core/Src/lcd.c ****     DEBUG_DELAY ();
 455:Core/Src/lcd.c ****     
 456:Core/Src/lcd.c ****     /* Display ON (29h) */
 457:Core/Src/lcd.c ****     ILI9341_Write_Cmd ( 0x29 ); 
 458:Core/Src/lcd.c **** 	}
 459:Core/Src/lcd.c ****   
 460:Core/Src/lcd.c ****   else if(lcdid == LCDID_ST7789V)
 461:Core/Src/lcd.c ****   {
 462:Core/Src/lcd.c ****     /*  Power control B (CFh)  */
 463:Core/Src/lcd.c ****     DEBUG_DELAY  ();
 464:Core/Src/lcd.c ****     ILI9341_Write_Cmd ( 0xCF  );
 465:Core/Src/lcd.c ****     ILI9341_Write_Data ( 0x00  );
 466:Core/Src/lcd.c ****     ILI9341_Write_Data ( 0xC1  );
 467:Core/Src/lcd.c ****     ILI9341_Write_Data ( 0x30  );
 468:Core/Src/lcd.c ****     
 469:Core/Src/lcd.c ****     /*  Power on sequence control (EDh) */
 470:Core/Src/lcd.c ****     DEBUG_DELAY ();
 471:Core/Src/lcd.c ****     ILI9341_Write_Cmd ( 0xED );
 472:Core/Src/lcd.c ****     ILI9341_Write_Data ( 0x64 );
 473:Core/Src/lcd.c ****     ILI9341_Write_Data ( 0x03 );
 474:Core/Src/lcd.c ****     ILI9341_Write_Data ( 0x12 );
 475:Core/Src/lcd.c ****     ILI9341_Write_Data ( 0x81 );
 476:Core/Src/lcd.c ****     
 477:Core/Src/lcd.c ****     /*  Driver timing control A (E8h) */
 478:Core/Src/lcd.c ****     DEBUG_DELAY ();
 479:Core/Src/lcd.c ****     ILI9341_Write_Cmd ( 0xE8 );
 480:Core/Src/lcd.c ****     ILI9341_Write_Data ( 0x85 );
 481:Core/Src/lcd.c ****     ILI9341_Write_Data ( 0x10 );
 482:Core/Src/lcd.c ****     ILI9341_Write_Data ( 0x78 );
 483:Core/Src/lcd.c ****     
 484:Core/Src/lcd.c ****     /*  Power control A (CBh) */
 485:Core/Src/lcd.c ****     DEBUG_DELAY ();
 486:Core/Src/lcd.c ****     ILI9341_Write_Cmd ( 0xCB );
 487:Core/Src/lcd.c ****     ILI9341_Write_Data ( 0x39 );
 488:Core/Src/lcd.c ****     ILI9341_Write_Data ( 0x2C );
 489:Core/Src/lcd.c ****     ILI9341_Write_Data ( 0x00 );
 490:Core/Src/lcd.c ****     ILI9341_Write_Data ( 0x34 );
 491:Core/Src/lcd.c ****     ILI9341_Write_Data ( 0x02 );
 492:Core/Src/lcd.c ****     
 493:Core/Src/lcd.c ****     /* Pump ratio control (F7h) */
 494:Core/Src/lcd.c ****     DEBUG_DELAY ();
 495:Core/Src/lcd.c ****     ILI9341_Write_Cmd ( 0xF7 );
 496:Core/Src/lcd.c ****     ILI9341_Write_Data ( 0x20 );
 497:Core/Src/lcd.c ****     
 498:Core/Src/lcd.c ****     /* Driver timing control B */
 499:Core/Src/lcd.c ****     DEBUG_DELAY ();
 500:Core/Src/lcd.c ****     ILI9341_Write_Cmd ( 0xEA );
 501:Core/Src/lcd.c ****     ILI9341_Write_Data ( 0x00 );
 502:Core/Src/lcd.c ****     ILI9341_Write_Data ( 0x00 );
 503:Core/Src/lcd.c ****     
 504:Core/Src/lcd.c ****     
ARM GAS  C:\Users\84759\AppData\Local\Temp\cc1QWPm5.s 			page 11


 505:Core/Src/lcd.c ****     /* Power Control 1 (C0h) */
 506:Core/Src/lcd.c ****     DEBUG_DELAY ();
 507:Core/Src/lcd.c ****     ILI9341_Write_Cmd ( 0xC0 );   //Power control
 508:Core/Src/lcd.c ****     ILI9341_Write_Data ( 0x21 );  //VRH[5:0]
 509:Core/Src/lcd.c ****     
 510:Core/Src/lcd.c ****     /* Power Control 2 (C1h) */
 511:Core/Src/lcd.c ****     DEBUG_DELAY ();
 512:Core/Src/lcd.c ****     ILI9341_Write_Cmd ( 0xC1 );   //Power control
 513:Core/Src/lcd.c ****     ILI9341_Write_Data ( 0x11 );  //SAP[2:0];BT[3:0]
 514:Core/Src/lcd.c ****     
 515:Core/Src/lcd.c ****     /* VCOM Control 1 (C5h) */
 516:Core/Src/lcd.c ****     ILI9341_Write_Cmd ( 0xC5 );
 517:Core/Src/lcd.c ****     ILI9341_Write_Data ( 0x2D );
 518:Core/Src/lcd.c ****     ILI9341_Write_Data ( 0x33 );
 519:Core/Src/lcd.c ****     
 520:Core/Src/lcd.c ****     /*  VCOM Control 2 (C7h)  */
 521:Core/Src/lcd.c **** //	ILI9341_Write_Cmd ( 0xC7 );
 522:Core/Src/lcd.c **** //	ILI9341_Write_Data ( 0XC0 );
 523:Core/Src/lcd.c ****     
 524:Core/Src/lcd.c ****     /* memory access control set */
 525:Core/Src/lcd.c ****     DEBUG_DELAY ();
 526:Core/Src/lcd.c ****     ILI9341_Write_Cmd ( 0x36 );   //Memory Access Control
 527:Core/Src/lcd.c ****     ILI9341_Write_Data ( 0x00 );  /*ĘúĆÁ  ×óÉĎ˝Çµ˝ (Ćđµă)µ˝ÓŇĎÂ˝Ç (ÖŐµă)É¨Ăč·˝Ę˝*/
 528:Core/Src/lcd.c ****     DEBUG_DELAY ();
 529:Core/Src/lcd.c ****     
 530:Core/Src/lcd.c ****     ILI9341_Write_Cmd(0x3A);   
 531:Core/Src/lcd.c ****     ILI9341_Write_Data(0x55); 
 532:Core/Src/lcd.c ****     
 533:Core/Src/lcd.c ****       /* Frame Rate Control (In Normal Mode/Full Colors) (B1h) */
 534:Core/Src/lcd.c ****     DEBUG_DELAY ();
 535:Core/Src/lcd.c ****     ILI9341_Write_Cmd ( 0xB1 );
 536:Core/Src/lcd.c ****     ILI9341_Write_Data ( 0x00 );
 537:Core/Src/lcd.c ****     ILI9341_Write_Data ( 0x17 );
 538:Core/Src/lcd.c ****     
 539:Core/Src/lcd.c ****     /*  Display Function Control (B6h) */
 540:Core/Src/lcd.c ****     DEBUG_DELAY ();
 541:Core/Src/lcd.c ****     ILI9341_Write_Cmd ( 0xB6 );
 542:Core/Src/lcd.c ****     ILI9341_Write_Data ( 0x0A );
 543:Core/Src/lcd.c ****     ILI9341_Write_Data ( 0xA2 );
 544:Core/Src/lcd.c ****     
 545:Core/Src/lcd.c ****     ILI9341_Write_Cmd(0xF6);    			
 546:Core/Src/lcd.c ****     ILI9341_Write_Data(0x01); 
 547:Core/Src/lcd.c ****     ILI9341_Write_Data(0x30); 
 548:Core/Src/lcd.c ****     
 549:Core/Src/lcd.c ****     /* Enable 3G (F2h) */
 550:Core/Src/lcd.c ****     ILI9341_Write_Cmd ( 0xF2 );
 551:Core/Src/lcd.c ****     ILI9341_Write_Data ( 0x00 );
 552:Core/Src/lcd.c ****     
 553:Core/Src/lcd.c ****     /* Gamma Set (26h) */
 554:Core/Src/lcd.c ****     ILI9341_Write_Cmd ( 0x26 );
 555:Core/Src/lcd.c ****     ILI9341_Write_Data ( 0x01 );
 556:Core/Src/lcd.c ****     DEBUG_DELAY ();
 557:Core/Src/lcd.c ****     
 558:Core/Src/lcd.c ****     /* Positive Gamma Correction */
 559:Core/Src/lcd.c ****     ILI9341_Write_Cmd(0xe0); //Positive gamma
 560:Core/Src/lcd.c ****     ILI9341_Write_Data(0xd0);         
 561:Core/Src/lcd.c ****     ILI9341_Write_Data(0x00); 
ARM GAS  C:\Users\84759\AppData\Local\Temp\cc1QWPm5.s 			page 12


 562:Core/Src/lcd.c ****     ILI9341_Write_Data(0x02); 
 563:Core/Src/lcd.c ****     ILI9341_Write_Data(0x07); 
 564:Core/Src/lcd.c ****     ILI9341_Write_Data(0x0b); 
 565:Core/Src/lcd.c ****     ILI9341_Write_Data(0x1a); 
 566:Core/Src/lcd.c ****     ILI9341_Write_Data(0x31); 
 567:Core/Src/lcd.c ****     ILI9341_Write_Data(0x54); 
 568:Core/Src/lcd.c ****     ILI9341_Write_Data(0x40); 
 569:Core/Src/lcd.c ****     ILI9341_Write_Data(0x29); 
 570:Core/Src/lcd.c ****     ILI9341_Write_Data(0x12); 
 571:Core/Src/lcd.c ****     ILI9341_Write_Data(0x12); 
 572:Core/Src/lcd.c ****     ILI9341_Write_Data(0x12); 
 573:Core/Src/lcd.c ****     ILI9341_Write_Data(0x17);
 574:Core/Src/lcd.c **** 
 575:Core/Src/lcd.c ****     /* Negative Gamma Correction (E1h) */
 576:Core/Src/lcd.c ****     ILI9341_Write_Cmd(0xe1); //Negative gamma
 577:Core/Src/lcd.c ****     ILI9341_Write_Data(0xd0); 
 578:Core/Src/lcd.c ****     ILI9341_Write_Data(0x00); 
 579:Core/Src/lcd.c ****     ILI9341_Write_Data(0x02); 
 580:Core/Src/lcd.c ****     ILI9341_Write_Data(0x07); 
 581:Core/Src/lcd.c ****     ILI9341_Write_Data(0x05); 
 582:Core/Src/lcd.c ****     ILI9341_Write_Data(0x25); 
 583:Core/Src/lcd.c ****     ILI9341_Write_Data(0x2d); 
 584:Core/Src/lcd.c ****     ILI9341_Write_Data(0x44); 
 585:Core/Src/lcd.c ****     ILI9341_Write_Data(0x45); 
 586:Core/Src/lcd.c ****     ILI9341_Write_Data(0x1c); 
 587:Core/Src/lcd.c ****     ILI9341_Write_Data(0x18); 
 588:Core/Src/lcd.c ****     ILI9341_Write_Data(0x16); 
 589:Core/Src/lcd.c ****     ILI9341_Write_Data(0x1c); 
 590:Core/Src/lcd.c ****     ILI9341_Write_Data(0x1d); 
 591:Core/Src/lcd.c ****   
 592:Core/Src/lcd.c **** 	
 593:Core/Src/lcd.c **** //	/* column address control set */
 594:Core/Src/lcd.c **** //	ILI9341_Write_Cmd ( CMD_SetCoordinateX ); 
 595:Core/Src/lcd.c **** //	ILI9341_Write_Data ( 0x00 );
 596:Core/Src/lcd.c **** //	ILI9341_Write_Data ( 0x00 );
 597:Core/Src/lcd.c **** //	ILI9341_Write_Data ( 0x00 );
 598:Core/Src/lcd.c **** //	ILI9341_Write_Data ( 0xEF );
 599:Core/Src/lcd.c **** //	
 600:Core/Src/lcd.c **** //	/* page address control set */
 601:Core/Src/lcd.c **** //	DEBUG_DELAY ();
 602:Core/Src/lcd.c **** //	ILI9341_Write_Cmd ( CMD_SetCoordinateY ); 
 603:Core/Src/lcd.c **** //	ILI9341_Write_Data ( 0x00 );
 604:Core/Src/lcd.c **** //	ILI9341_Write_Data ( 0x00 );
 605:Core/Src/lcd.c **** //	ILI9341_Write_Data ( 0x01 );
 606:Core/Src/lcd.c **** //	ILI9341_Write_Data ( 0x3F );
 607:Core/Src/lcd.c **** 	
 608:Core/Src/lcd.c **** 	
 609:Core/Src/lcd.c ****     /* Sleep Out (11h)  */
 610:Core/Src/lcd.c ****     ILI9341_Write_Cmd ( 0x11 );	  //Exit Sleep
 611:Core/Src/lcd.c ****     ILI9341_Delay ( 0xAFFf<<2 );
 612:Core/Src/lcd.c ****     DEBUG_DELAY ();
 613:Core/Src/lcd.c ****     
 614:Core/Src/lcd.c ****     /* Display ON (29h) */
 615:Core/Src/lcd.c ****     ILI9341_Write_Cmd ( 0x29 );   //Display on
 616:Core/Src/lcd.c ****     
 617:Core/Src/lcd.c ****     ILI9341_Write_Cmd(0x2c);
 618:Core/Src/lcd.c ****   }
ARM GAS  C:\Users\84759\AppData\Local\Temp\cc1QWPm5.s 			page 13


 619:Core/Src/lcd.c **** 	
 620:Core/Src/lcd.c **** }
 621:Core/Src/lcd.c **** 
 622:Core/Src/lcd.c **** 
 623:Core/Src/lcd.c **** 
 624:Core/Src/lcd.c **** /**
 625:Core/Src/lcd.c ****  * @brief  ILI9341łőĘĽ»ŻşŻĘýŁ¬ČçąűŇŞÓĂµ˝lcdŁ¬Ň»¶¨ŇŞµ÷ÓĂŐâ¸öşŻĘý
 626:Core/Src/lcd.c ****  * @param  ÎŢ
 627:Core/Src/lcd.c ****  * @retval ÎŢ
 628:Core/Src/lcd.c ****  */
 629:Core/Src/lcd.c **** void ILI9341_Init ( void )
 630:Core/Src/lcd.c **** {
 631:Core/Src/lcd.c **** 	ILI9341_GPIO_Config ();
 632:Core/Src/lcd.c **** 	ILI9341_FSMC_Config ();
 633:Core/Src/lcd.c **** 	
 634:Core/Src/lcd.c **** 	ILI9341_BackLed_Control ( ENABLE );      //µăÁÁLCD±łąâµĆ
 635:Core/Src/lcd.c **** 	ILI9341_Rst ();
 636:Core/Src/lcd.c **** 	ILI9341_REG_Config ();
 637:Core/Src/lcd.c **** 	
 638:Core/Src/lcd.c **** 	//ÉčÖĂÄ¬ČĎÉ¨Ăč·˝ĎňŁ¬ĆäÖĐ 6 ÄŁĘ˝ÎŞ´ó˛ż·ÖŇşľ§ŔýłĚµÄÄ¬ČĎĎÔĘľ·˝Ďň  
 639:Core/Src/lcd.c **** 	ILI9341_GramScan(LCD_SCAN_MODE);
 640:Core/Src/lcd.c **** }
 641:Core/Src/lcd.c **** 
 642:Core/Src/lcd.c **** 
 643:Core/Src/lcd.c **** 
 644:Core/Src/lcd.c **** /**
 645:Core/Src/lcd.c ****  * @brief  ILI9341G±łąâLEDżŘÖĆ
 646:Core/Src/lcd.c ****  * @param  enumState Łşľö¶¨ĘÇ·ńĘąÄÜ±łąâLED
 647:Core/Src/lcd.c ****   *   ¸Ă˛ÎĘýÎŞŇÔĎÂÖµÖ®Ň»Łş
 648:Core/Src/lcd.c ****   *     @arg ENABLE :ĘąÄÜ±łąâLED
 649:Core/Src/lcd.c ****   *     @arg DISABLE :˝űÓĂ±łąâLED
 650:Core/Src/lcd.c ****  * @retval ÎŢ
 651:Core/Src/lcd.c ****  */
 652:Core/Src/lcd.c **** void  ILI9341_BackLed_Control ( FunctionalState enumState )
 653:Core/Src/lcd.c **** {
 654:Core/Src/lcd.c **** 	if ( enumState )
 655:Core/Src/lcd.c ****   {
 656:Core/Src/lcd.c ****     digitalL( GPIOG, GPIO_PIN_6);	
 657:Core/Src/lcd.c ****   }
 658:Core/Src/lcd.c **** 	else
 659:Core/Src/lcd.c ****   {
 660:Core/Src/lcd.c ****     digitalH( GPIOG, GPIO_PIN_6);
 661:Core/Src/lcd.c ****   }		
 662:Core/Src/lcd.c **** }
 663:Core/Src/lcd.c **** 
 664:Core/Src/lcd.c **** 
 665:Core/Src/lcd.c **** /**
 666:Core/Src/lcd.c ****  * @brief  ¶ÁČˇLCDÇý¶ŻĐľĆ¬IDşŻĘýŁ¬żÉÓĂÓÚ˛âĘÔµ×˛ăµÄ¶ÁĐ´şŻĘý
 667:Core/Src/lcd.c ****  * @param  ÎŢ
 668:Core/Src/lcd.c ****  * @retval ŐýłŁĘ±·µ»ŘÖµÎŞLCDÇý¶ŻĐľĆ¬ID: LCDID_ILI9341/LCDID_ST7789V
 669:Core/Src/lcd.c ****  *         ·ńÔň·µ»Ř: LCDID_UNKNOWN
 670:Core/Src/lcd.c ****  */
 671:Core/Src/lcd.c **** uint16_t ILI9341_ReadID(void)
 672:Core/Src/lcd.c **** {
 673:Core/Src/lcd.c **** 	uint16_t id = 0;
 674:Core/Src/lcd.c **** 	
 675:Core/Src/lcd.c **** 	ILI9341_Write_Cmd(0x04);
ARM GAS  C:\Users\84759\AppData\Local\Temp\cc1QWPm5.s 			page 14


 676:Core/Src/lcd.c **** 	ILI9341_Read_Data();
 677:Core/Src/lcd.c **** 	ILI9341_Read_Data();
 678:Core/Src/lcd.c **** 	id = ILI9341_Read_Data();
 679:Core/Src/lcd.c **** 	id <<= 8;
 680:Core/Src/lcd.c **** 	id |= ILI9341_Read_Data();
 681:Core/Src/lcd.c **** 	
 682:Core/Src/lcd.c ****   if(id == LCDID_ST7789V)
 683:Core/Src/lcd.c ****   {
 684:Core/Src/lcd.c ****     return id;
 685:Core/Src/lcd.c ****   }
 686:Core/Src/lcd.c ****   else
 687:Core/Src/lcd.c ****   {
 688:Core/Src/lcd.c ****     ILI9341_Write_Cmd(0xD3);
 689:Core/Src/lcd.c ****     ILI9341_Read_Data();
 690:Core/Src/lcd.c ****     ILI9341_Read_Data();
 691:Core/Src/lcd.c ****     id = ILI9341_Read_Data();
 692:Core/Src/lcd.c ****     id <<= 8;
 693:Core/Src/lcd.c ****     id |= ILI9341_Read_Data();
 694:Core/Src/lcd.c ****     if(id == LCDID_ILI9341)
 695:Core/Src/lcd.c ****     {
 696:Core/Src/lcd.c ****       return id;
 697:Core/Src/lcd.c ****     }
 698:Core/Src/lcd.c ****   }
 699:Core/Src/lcd.c ****   
 700:Core/Src/lcd.c **** 	return LCDID_UNKNOWN;
 701:Core/Src/lcd.c **** }
 702:Core/Src/lcd.c **** 
 703:Core/Src/lcd.c **** 
 704:Core/Src/lcd.c **** /**
 705:Core/Src/lcd.c ****  * @brief  ILI9341G ČíĽţ¸´Î»
 706:Core/Src/lcd.c ****  * @param  ÎŢ
 707:Core/Src/lcd.c ****  * @retval ÎŢ
 708:Core/Src/lcd.c ****  */
 709:Core/Src/lcd.c **** void ILI9341_Rst( void )
 710:Core/Src/lcd.c **** {			
 711:Core/Src/lcd.c **** 	digitalL( GPIOG,GPIO_PIN_11);	 //µÍµçĆ˝¸´Î»
 712:Core/Src/lcd.c **** 
 713:Core/Src/lcd.c **** 	ILI9341_Delay ( 0xAFF ); 						   
 714:Core/Src/lcd.c **** 
 715:Core/Src/lcd.c **** 	digitalH( GPIOG,GPIO_PIN_11);		 	 
 716:Core/Src/lcd.c **** 
 717:Core/Src/lcd.c **** 	ILI9341_Delay ( 0xAFF ); 	 	
 718:Core/Src/lcd.c **** 	
 719:Core/Src/lcd.c **** }
 720:Core/Src/lcd.c **** 
 721:Core/Src/lcd.c **** 
 722:Core/Src/lcd.c **** /**
 723:Core/Src/lcd.c ****  * @brief  ÉčÖĂILI9341µÄGRAMµÄÉ¨Ăč·˝Ďň 
 724:Core/Src/lcd.c ****  * @param  ucOption ŁşŃˇÔńGRAMµÄÉ¨Ăč·˝Ďň 
 725:Core/Src/lcd.c ****  *     @arg 0-7 :˛ÎĘýżÉŃˇÖµÎŞ0-7Őâ°Ë¸ö·˝Ďň
 726:Core/Src/lcd.c ****  *
 727:Core/Src/lcd.c ****  *	ŁˇŁˇŁˇĆäÖĐ0ˇ˘3ˇ˘5ˇ˘6 ÄŁĘ˝ĘĘşĎ´Ó×óÖÁÓŇĎÔĘľÎÄ×ÖŁ¬
 728:Core/Src/lcd.c ****  *				˛»ÍĆĽöĘąÓĂĆäËüÄŁĘ˝ĎÔĘľÎÄ×Ö	ĆäËüÄŁĘ˝ĎÔĘľÎÄ×Ö»áÓĐľµĎńĐ§ąű			
 729:Core/Src/lcd.c ****  *		
 730:Core/Src/lcd.c ****  *	ĆäÖĐ0ˇ˘2ˇ˘4ˇ˘6 ÄŁĘ˝µÄX·˝ĎňĎńËŘÎŞ240Ł¬Y·˝ĎňĎńËŘÎŞ320
 731:Core/Src/lcd.c ****  *	ĆäÖĐ1ˇ˘3ˇ˘5ˇ˘7 ÄŁĘ˝ĎÂX·˝ĎňĎńËŘÎŞ320Ł¬Y·˝ĎňĎńËŘÎŞ240
 732:Core/Src/lcd.c ****  *
ARM GAS  C:\Users\84759\AppData\Local\Temp\cc1QWPm5.s 			page 15


 733:Core/Src/lcd.c ****  *	ĆäÖĐ 6 ÄŁĘ˝ÎŞ´ó˛ż·ÖŇşľ§ŔýłĚµÄÄ¬ČĎĎÔĘľ·˝Ďň
 734:Core/Src/lcd.c ****  *	ĆäÖĐ 3 ÄŁĘ˝ÎŞÉăĎńÍ·ŔýłĚĘąÓĂµÄ·˝Ďň
 735:Core/Src/lcd.c ****  *	ĆäÖĐ 0 ÄŁĘ˝ÎŞBMPÍĽĆ¬ĎÔĘľŔýłĚĘąÓĂµÄ·˝Ďň
 736:Core/Src/lcd.c ****  *
 737:Core/Src/lcd.c ****  * @retval ÎŢ
 738:Core/Src/lcd.c ****  * @note  ×ř±ęÍĽŔýŁşA±íĘľĎňÉĎŁ¬V±íĘľĎňĎÂŁ¬<±íĘľĎň×óŁ¬>±íĘľĎňÓŇ
 739:Core/Src/lcd.c **** 					X±íĘľXÖáŁ¬Y±íĘľYÖá
 740:Core/Src/lcd.c **** 
 741:Core/Src/lcd.c **** ------------------------------------------------------------
 742:Core/Src/lcd.c **** ÄŁĘ˝0Łş				.		ÄŁĘ˝1Łş		.	ÄŁĘ˝2Łş			.	ÄŁĘ˝3Łş					
 743:Core/Src/lcd.c **** 					A		.					A		.		A					.		A									
 744:Core/Src/lcd.c **** 					|		.					|		.		|					.		|							
 745:Core/Src/lcd.c **** 					Y		.					X		.		Y					.		X					
 746:Core/Src/lcd.c **** 					0		.					1		.		2					.		3					
 747:Core/Src/lcd.c **** 	<--- X0 o		.	<----Y1	o		.		o 2X--->  .		o 3Y--->	
 748:Core/Src/lcd.c **** ------------------------------------------------------------	
 749:Core/Src/lcd.c **** ÄŁĘ˝4Łş				.	ÄŁĘ˝5Łş			.	ÄŁĘ˝6Łş			.	ÄŁĘ˝7Łş					
 750:Core/Src/lcd.c **** 	<--- X4 o		.	<--- Y5 o		.		o 6X--->  .		o 7Y--->	
 751:Core/Src/lcd.c **** 					4		.					5		.		6					.		7	
 752:Core/Src/lcd.c **** 					Y		.					X		.		Y					.		X						
 753:Core/Src/lcd.c **** 					|		.					|		.		|					.		|							
 754:Core/Src/lcd.c **** 					V		.					V		.		V					.		V		
 755:Core/Src/lcd.c **** ---------------------------------------------------------				
 756:Core/Src/lcd.c **** 											 LCDĆÁĘľŔý
 757:Core/Src/lcd.c **** 								|-----------------|
 758:Core/Src/lcd.c **** 								|			Ň°»đLogo		|
 759:Core/Src/lcd.c **** 								|									|
 760:Core/Src/lcd.c **** 								|									|
 761:Core/Src/lcd.c **** 								|									|
 762:Core/Src/lcd.c **** 								|									|
 763:Core/Src/lcd.c **** 								|									|
 764:Core/Src/lcd.c **** 								|									|
 765:Core/Src/lcd.c **** 								|									|
 766:Core/Src/lcd.c **** 								|									|
 767:Core/Src/lcd.c **** 								|-----------------|
 768:Core/Src/lcd.c **** 								ĆÁÄ»ŐýĂćŁ¨żí240Ł¬¸ß320Ł©
 769:Core/Src/lcd.c **** 
 770:Core/Src/lcd.c ****  *******************************************************/
 771:Core/Src/lcd.c **** void ILI9341_GramScan ( uint8_t ucOption )
 772:Core/Src/lcd.c **** {	
 773:Core/Src/lcd.c **** 	//˛ÎĘýĽě˛éŁ¬Ö»żÉĘäČë0-7
 774:Core/Src/lcd.c **** 	if(ucOption >7 )
 775:Core/Src/lcd.c **** 		return;
 776:Core/Src/lcd.c **** 	
 777:Core/Src/lcd.c **** 	//¸ůľÝÄŁĘ˝¸üĐÂLCD_SCAN_MODEµÄÖµŁ¬Ö÷ŇŞÓĂÓÚ´ĄĂţĆÁŃˇÔńĽĆËă˛ÎĘý
 778:Core/Src/lcd.c **** 	LCD_SCAN_MODE = ucOption;
 779:Core/Src/lcd.c **** 	
 780:Core/Src/lcd.c **** 	//¸ůľÝÄŁĘ˝¸üĐÂXY·˝ĎňµÄĎńËŘżí¶Č
 781:Core/Src/lcd.c **** 	if(ucOption%2 == 0)	
 782:Core/Src/lcd.c **** 	{
 783:Core/Src/lcd.c **** 		//0 2 4 6ÄŁĘ˝ĎÂX·˝ĎňĎńËŘżí¶ČÎŞ240Ł¬Y·˝ĎňÎŞ320
 784:Core/Src/lcd.c **** 		LCD_X_LENGTH = ILI9341_LESS_PIXEL;
 785:Core/Src/lcd.c **** 		LCD_Y_LENGTH =	ILI9341_MORE_PIXEL;
 786:Core/Src/lcd.c **** 	}
 787:Core/Src/lcd.c **** 	else				
 788:Core/Src/lcd.c **** 	{
 789:Core/Src/lcd.c **** 		//1 3 5 7ÄŁĘ˝ĎÂX·˝ĎňĎńËŘżí¶ČÎŞ320Ł¬Y·˝ĎňÎŞ240
ARM GAS  C:\Users\84759\AppData\Local\Temp\cc1QWPm5.s 			page 16


 790:Core/Src/lcd.c **** 		LCD_X_LENGTH = ILI9341_MORE_PIXEL;
 791:Core/Src/lcd.c **** 		LCD_Y_LENGTH =	ILI9341_LESS_PIXEL; 
 792:Core/Src/lcd.c **** 	}
 793:Core/Src/lcd.c **** 
 794:Core/Src/lcd.c **** 	//0x36ĂüÁî˛ÎĘýµÄ¸ß3Î»żÉÓĂÓÚÉčÖĂGRAMÉ¨Ăč·˝Ďň	
 795:Core/Src/lcd.c **** 	ILI9341_Write_Cmd ( 0x36 ); 
 796:Core/Src/lcd.c **** 	if(lcdid == LCDID_ILI9341)
 797:Core/Src/lcd.c ****   {
 798:Core/Src/lcd.c ****     ILI9341_Write_Data ( 0x08 |(ucOption<<5));//¸ůľÝucOptionµÄÖµÉčÖĂLCD˛ÎĘýŁ¬ą˛0-7ÖÖÄŁĘ˝
 799:Core/Src/lcd.c ****   }
 800:Core/Src/lcd.c ****   else if(lcdid == LCDID_ST7789V)
 801:Core/Src/lcd.c ****   {
 802:Core/Src/lcd.c ****     ILI9341_Write_Data ( 0x00 |(ucOption<<5));//¸ůľÝucOptionµÄÖµÉčÖĂLCD˛ÎĘýŁ¬ą˛0-7ÖÖÄŁĘ˝
 803:Core/Src/lcd.c ****   }
 804:Core/Src/lcd.c **** 	ILI9341_Write_Cmd ( CMD_SetCoordinateX ); 
 805:Core/Src/lcd.c **** 	ILI9341_Write_Data ( 0x00 );		/* x ĆđĘĽ×ř±ę¸ß8Î» */
 806:Core/Src/lcd.c **** 	ILI9341_Write_Data ( 0x00 );		/* x ĆđĘĽ×ř±ęµÍ8Î» */
 807:Core/Src/lcd.c **** 	ILI9341_Write_Data ( ((LCD_X_LENGTH-1)>>8)&0xFF ); /* x ˝áĘř×ř±ę¸ß8Î» */	
 808:Core/Src/lcd.c **** 	ILI9341_Write_Data ( (LCD_X_LENGTH-1)&0xFF );				/* x ˝áĘř×ř±ęµÍ8Î» */
 809:Core/Src/lcd.c **** 
 810:Core/Src/lcd.c **** 	ILI9341_Write_Cmd ( CMD_SetCoordinateY ); 
 811:Core/Src/lcd.c **** 	ILI9341_Write_Data ( 0x00 );		/* y ĆđĘĽ×ř±ę¸ß8Î» */
 812:Core/Src/lcd.c **** 	ILI9341_Write_Data ( 0x00 );		/* y ĆđĘĽ×ř±ęµÍ8Î» */
 813:Core/Src/lcd.c **** 	ILI9341_Write_Data ( ((LCD_Y_LENGTH-1)>>8)&0xFF );	/* y ˝áĘř×ř±ę¸ß8Î» */	 
 814:Core/Src/lcd.c **** 	ILI9341_Write_Data ( (LCD_Y_LENGTH-1)&0xFF );				/* y ˝áĘř×ř±ęµÍ8Î» */
 815:Core/Src/lcd.c **** 
 816:Core/Src/lcd.c **** 	/* write gram start */
 817:Core/Src/lcd.c **** 	ILI9341_Write_Cmd ( CMD_SetPixel );	
 818:Core/Src/lcd.c **** }
 819:Core/Src/lcd.c **** 
 820:Core/Src/lcd.c **** 
 821:Core/Src/lcd.c **** 
 822:Core/Src/lcd.c **** /**
 823:Core/Src/lcd.c ****  * @brief  ÔÚILI9341ĎÔĘľĆ÷ÉĎżŞ±ŮŇ»¸ö´°żÚ
 824:Core/Src/lcd.c ****  * @param  usX ŁşÔÚĚŘ¶¨É¨Ăč·˝ĎňĎÂ´°żÚµÄĆđµăX×ř±ę
 825:Core/Src/lcd.c ****  * @param  usY ŁşÔÚĚŘ¶¨É¨Ăč·˝ĎňĎÂ´°żÚµÄĆđµăY×ř±ę
 826:Core/Src/lcd.c ****  * @param  usWidth Łş´°żÚµÄżí¶Č
 827:Core/Src/lcd.c ****  * @param  usHeight Łş´°żÚµÄ¸ß¶Č
 828:Core/Src/lcd.c ****  * @retval ÎŢ
 829:Core/Src/lcd.c ****  */
 830:Core/Src/lcd.c **** void ILI9341_OpenWindow ( uint16_t usX, uint16_t usY, uint16_t usWidth, uint16_t usHeight )
 831:Core/Src/lcd.c **** {	
 832:Core/Src/lcd.c **** 	ILI9341_Write_Cmd ( CMD_SetCoordinateX ); 				 /* ÉčÖĂX×ř±ę */
 833:Core/Src/lcd.c **** 	ILI9341_Write_Data ( usX >> 8  );	 /* ĎČ¸ß8Î»Ł¬Č»şóµÍ8Î» */
 834:Core/Src/lcd.c **** 	ILI9341_Write_Data ( usX & 0xff  );	 /* ÉčÖĂĆđĘĽµăşÍ˝áĘřµă*/
 835:Core/Src/lcd.c **** 	ILI9341_Write_Data ( ( usX + usWidth - 1 ) >> 8  );
 836:Core/Src/lcd.c **** 	ILI9341_Write_Data ( ( usX + usWidth - 1 ) & 0xff  );
 837:Core/Src/lcd.c **** 
 838:Core/Src/lcd.c **** 	ILI9341_Write_Cmd ( CMD_SetCoordinateY ); 			     /* ÉčÖĂY×ř±ę*/
 839:Core/Src/lcd.c **** 	ILI9341_Write_Data ( usY >> 8  );
 840:Core/Src/lcd.c **** 	ILI9341_Write_Data ( usY & 0xff  );
 841:Core/Src/lcd.c **** 	ILI9341_Write_Data ( ( usY + usHeight - 1 ) >> 8 );
 842:Core/Src/lcd.c **** 	ILI9341_Write_Data ( ( usY + usHeight - 1) & 0xff );
 843:Core/Src/lcd.c **** 	
 844:Core/Src/lcd.c **** }
 845:Core/Src/lcd.c **** 
 846:Core/Src/lcd.c **** 
ARM GAS  C:\Users\84759\AppData\Local\Temp\cc1QWPm5.s 			page 17


 847:Core/Src/lcd.c **** /**
 848:Core/Src/lcd.c ****  * @brief  Éč¶¨ILI9341µÄąâ±ę×ř±ę
 849:Core/Src/lcd.c ****  * @param  usX ŁşÔÚĚŘ¶¨É¨Ăč·˝ĎňĎÂąâ±ęµÄX×ř±ę
 850:Core/Src/lcd.c ****  * @param  usY ŁşÔÚĚŘ¶¨É¨Ăč·˝ĎňĎÂąâ±ęµÄY×ř±ę
 851:Core/Src/lcd.c ****  * @retval ÎŢ
 852:Core/Src/lcd.c ****  */
 853:Core/Src/lcd.c **** static void ILI9341_SetCursor ( uint16_t usX, uint16_t usY )	
 854:Core/Src/lcd.c **** {
 855:Core/Src/lcd.c **** 	ILI9341_OpenWindow ( usX, usY, 1, 1 );
 856:Core/Src/lcd.c **** }
 857:Core/Src/lcd.c **** 
 858:Core/Src/lcd.c **** 
 859:Core/Src/lcd.c **** /**
 860:Core/Src/lcd.c ****  * @brief  ÔÚILI9341ĎÔĘľĆ÷ÉĎŇÔÄłŇ»ŃŐÉ«ĚîłäĎńËŘµă
 861:Core/Src/lcd.c ****  * @param  ulAmout_Point ŁşŇŞĚîłäŃŐÉ«µÄĎńËŘµăµÄ×ÜĘýÄż
 862:Core/Src/lcd.c ****  * @param  usColor ŁşŃŐÉ«
 863:Core/Src/lcd.c ****  * @retval ÎŢ
 864:Core/Src/lcd.c ****  */
 865:Core/Src/lcd.c **** static __inline void ILI9341_FillColor ( uint32_t ulAmout_Point, uint16_t usColor )
 866:Core/Src/lcd.c **** {
 867:Core/Src/lcd.c **** 	uint32_t i = 0;
 868:Core/Src/lcd.c **** 	
 869:Core/Src/lcd.c **** 	
 870:Core/Src/lcd.c **** 	/* memory write */
 871:Core/Src/lcd.c **** 	ILI9341_Write_Cmd ( CMD_SetPixel );	
 872:Core/Src/lcd.c **** 		
 873:Core/Src/lcd.c **** 	for ( i = 0; i < ulAmout_Point; i ++ )
 874:Core/Src/lcd.c **** 		ILI9341_Write_Data ( usColor );
 875:Core/Src/lcd.c **** 		
 876:Core/Src/lcd.c **** 	
 877:Core/Src/lcd.c **** }
 878:Core/Src/lcd.c **** 
 879:Core/Src/lcd.c **** 
 880:Core/Src/lcd.c **** /**
 881:Core/Src/lcd.c ****  * @brief  ¶ÔILI9341ĎÔĘľĆ÷µÄÄłŇ»´°żÚŇÔÄłÖÖŃŐÉ«˝řĐĐÇĺĆÁ
 882:Core/Src/lcd.c ****  * @param  usX ŁşÔÚĚŘ¶¨É¨Ăč·˝ĎňĎÂ´°żÚµÄĆđµăX×ř±ę
 883:Core/Src/lcd.c ****  * @param  usY ŁşÔÚĚŘ¶¨É¨Ăč·˝ĎňĎÂ´°żÚµÄĆđµăY×ř±ę
 884:Core/Src/lcd.c ****  * @param  usWidth Łş´°żÚµÄżí¶Č
 885:Core/Src/lcd.c ****  * @param  usHeight Łş´°żÚµÄ¸ß¶Č
 886:Core/Src/lcd.c ****  * @note żÉĘąÓĂLCD_SetBackColorˇ˘LCD_SetTextColorˇ˘LCD_SetColorsşŻĘýÉčÖĂŃŐÉ«
 887:Core/Src/lcd.c ****  * @retval ÎŢ
 888:Core/Src/lcd.c ****  */
 889:Core/Src/lcd.c **** void ILI9341_Clear ( uint16_t usX, uint16_t usY, uint16_t usWidth, uint16_t usHeight )
 890:Core/Src/lcd.c **** {
 891:Core/Src/lcd.c **** 	ILI9341_OpenWindow ( usX, usY, usWidth, usHeight );
 892:Core/Src/lcd.c **** 
 893:Core/Src/lcd.c **** 	ILI9341_FillColor ( usWidth * usHeight, CurrentBackColor );		
 894:Core/Src/lcd.c **** 	
 895:Core/Src/lcd.c **** }
 896:Core/Src/lcd.c **** 
 897:Core/Src/lcd.c **** 
 898:Core/Src/lcd.c **** /**
 899:Core/Src/lcd.c ****  * @brief  ¶ÔILI9341ĎÔĘľĆ÷µÄÄłŇ»µăŇÔÄłÖÖŃŐÉ«˝řĐĐĚîłä
 900:Core/Src/lcd.c ****  * @param  usX ŁşÔÚĚŘ¶¨É¨Ăč·˝ĎňĎÂ¸ĂµăµÄX×ř±ę
 901:Core/Src/lcd.c ****  * @param  usY ŁşÔÚĚŘ¶¨É¨Ăč·˝ĎňĎÂ¸ĂµăµÄY×ř±ę
 902:Core/Src/lcd.c ****  * @note żÉĘąÓĂLCD_SetBackColorˇ˘LCD_SetTextColorˇ˘LCD_SetColorsşŻĘýÉčÖĂŃŐÉ«
 903:Core/Src/lcd.c ****  * @retval ÎŢ
ARM GAS  C:\Users\84759\AppData\Local\Temp\cc1QWPm5.s 			page 18


 904:Core/Src/lcd.c ****  */
 905:Core/Src/lcd.c **** void ILI9341_SetPointPixel ( uint16_t usX, uint16_t usY )	
 906:Core/Src/lcd.c **** {	
 907:Core/Src/lcd.c **** 	if ( ( usX < LCD_X_LENGTH ) && ( usY < LCD_Y_LENGTH ) )
 908:Core/Src/lcd.c ****   {
 909:Core/Src/lcd.c **** 		ILI9341_SetCursor ( usX, usY );
 910:Core/Src/lcd.c **** 		
 911:Core/Src/lcd.c **** 		ILI9341_FillColor ( 1, CurrentTextColor );
 912:Core/Src/lcd.c **** 	}
 913:Core/Src/lcd.c **** 	
 914:Core/Src/lcd.c **** }
 915:Core/Src/lcd.c **** 
 916:Core/Src/lcd.c **** 
 917:Core/Src/lcd.c **** /**
 918:Core/Src/lcd.c ****  * @brief  ¶ÁČˇ GRAM µÄŇ»¸öĎńËŘĘýľÝ
 919:Core/Src/lcd.c ****  * @param  ÎŢ
 920:Core/Src/lcd.c ****  * @retval ĎńËŘĘýľÝ
 921:Core/Src/lcd.c ****  */
 922:Core/Src/lcd.c **** static uint16_t ILI9341_Read_PixelData ( void )	
 923:Core/Src/lcd.c **** {	
  70              		.loc 1 923 1 is_stmt 1 view -0
  71              		.cfi_startproc
  72              		@ args = 0, pretend = 0, frame = 0
  73              		@ frame_needed = 0, uses_anonymous_args = 0
  74              		@ link register save eliminated.
 924:Core/Src/lcd.c **** 	uint16_t usRG=0, usB=0 ;
  75              		.loc 1 924 2 view .LVU11
  76              	.LVL1:
 925:Core/Src/lcd.c **** 
 926:Core/Src/lcd.c **** 	
 927:Core/Src/lcd.c **** 	ILI9341_Write_Cmd ( 0x2E );   /* ¶ÁĘýľÝ */
  77              		.loc 1 927 2 view .LVU12
  78              	.LBB462:
  79              	.LBI462:
  59:Core/Src/lcd.c **** {
  80              		.loc 1 59 7 view .LVU13
  81              	.LBB463:
  61:Core/Src/lcd.c **** 	
  82              		.loc 1 61 2 view .LVU14
  61:Core/Src/lcd.c **** 	
  83              		.loc 1 61 50 is_stmt 0 view .LVU15
  84 0000 4FF0D843 		mov	r3, #1811939328
  85 0004 2E22     		movs	r2, #46
  86 0006 1A80     		strh	r2, [r3]	@ movhi
  87              	.LVL2:
  61:Core/Src/lcd.c **** 	
  88              		.loc 1 61 50 view .LVU16
  89              	.LBE463:
  90              	.LBE462:
 928:Core/Src/lcd.c **** 	//ČĄµôÇ°Ň»´Î¶ÁČˇ˝áąű
 929:Core/Src/lcd.c **** 	ILI9341_Read_Data (); 	      /*FIRST READ OUT DUMMY DATA*/
  91              		.loc 1 929 2 is_stmt 1 view .LVU17
  92              	.LBB464:
  93              	.LBI464:
  83:Core/Src/lcd.c **** {
  94              		.loc 1 83 11 view .LVU18
  95              	.LBB465:
ARM GAS  C:\Users\84759\AppData\Local\Temp\cc1QWPm5.s 			page 19


  85:Core/Src/lcd.c **** 	
  96              		.loc 1 85 2 view .LVU19
  85:Core/Src/lcd.c **** 	
  97              		.loc 1 85 11 is_stmt 0 view .LVU20
  98 0008 4FF0DA41 		mov	r1, #1828716544
  99 000c 0B88     		ldrh	r3, [r1]
 100              	.LBE465:
 101              	.LBE464:
 930:Core/Src/lcd.c **** 	
 931:Core/Src/lcd.c **** 	//»ńČˇşěÉ«Í¨µŔÓëÂĚÉ«Í¨µŔµÄÖµ
 932:Core/Src/lcd.c **** 	usRG = ILI9341_Read_Data ();  	/*READ OUT RED AND GREEN DATA  */
 102              		.loc 1 932 2 is_stmt 1 view .LVU21
 103              	.LBB466:
 104              	.LBI466:
  83:Core/Src/lcd.c **** {
 105              		.loc 1 83 11 view .LVU22
 106              	.LBB467:
  85:Core/Src/lcd.c **** 	
 107              		.loc 1 85 2 view .LVU23
  85:Core/Src/lcd.c **** 	
 108              		.loc 1 85 11 is_stmt 0 view .LVU24
 109 000e 0B88     		ldrh	r3, [r1]
 110 0010 9AB2     		uxth	r2, r3
 111              	.LVL3:
  85:Core/Src/lcd.c **** 	
 112              		.loc 1 85 11 view .LVU25
 113              	.LBE467:
 114              	.LBE466:
 933:Core/Src/lcd.c **** 	usB = ILI9341_Read_Data ();  		/*READ OUT BLUE DATA*/
 115              		.loc 1 933 2 is_stmt 1 view .LVU26
 116              	.LBB468:
 117              	.LBI468:
  83:Core/Src/lcd.c **** {
 118              		.loc 1 83 11 view .LVU27
 119              	.LBB469:
  85:Core/Src/lcd.c **** 	
 120              		.loc 1 85 2 view .LVU28
  85:Core/Src/lcd.c **** 	
 121              		.loc 1 85 11 is_stmt 0 view .LVU29
 122 0012 0988     		ldrh	r1, [r1]
 123              	.LVL4:
  85:Core/Src/lcd.c **** 	
 124              		.loc 1 85 11 view .LVU30
 125              	.LBE469:
 126              	.LBE468:
 934:Core/Src/lcd.c **** 
 935:Core/Src/lcd.c ****   return ( (usRG&0xF800)| ((usRG<<3)&0x7E0) | (usB>>11) );
 127              		.loc 1 935 3 is_stmt 1 view .LVU31
 128              		.loc 1 935 17 is_stmt 0 view .LVU32
 129 0014 03F47840 		and	r0, r3, #63488
 130 0018 00B2     		sxth	r0, r0
 131              		.loc 1 935 33 view .LVU33
 132 001a D300     		lsls	r3, r2, #3
 133              		.loc 1 935 37 view .LVU34
 134 001c 03F4FC63 		and	r3, r3, #2016
 135              		.loc 1 935 25 view .LVU35
 136 0020 1843     		orrs	r0, r0, r3
ARM GAS  C:\Users\84759\AppData\Local\Temp\cc1QWPm5.s 			page 20


 137              		.loc 1 935 45 view .LVU36
 138 0022 C1F3C423 		ubfx	r3, r1, #11, #5
 139 0026 1843     		orrs	r0, r0, r3
 936:Core/Src/lcd.c **** }
 140              		.loc 1 936 1 view .LVU37
 141 0028 80B2     		uxth	r0, r0
 142 002a 7047     		bx	lr
 143              		.cfi_endproc
 144              	.LFE82:
 146              		.section	.text.ILI9341_GPIO_Config,"ax",%progbits
 147              		.align	1
 148              		.syntax unified
 149              		.thumb
 150              		.thumb_func
 152              	ILI9341_GPIO_Config:
 153              	.LFB69:
 108:Core/Src/lcd.c **** 	GPIO_InitTypeDef GPIO_Initure;
 154              		.loc 1 108 1 is_stmt 1 view -0
 155              		.cfi_startproc
 156              		@ args = 0, pretend = 0, frame = 40
 157              		@ frame_needed = 0, uses_anonymous_args = 0
 158 0000 10B5     		push	{r4, lr}
 159              	.LCFI2:
 160              		.cfi_def_cfa_offset 8
 161              		.cfi_offset 4, -8
 162              		.cfi_offset 14, -4
 163 0002 8AB0     		sub	sp, sp, #40
 164              	.LCFI3:
 165              		.cfi_def_cfa_offset 48
 109:Core/Src/lcd.c ****   
 166              		.loc 1 109 2 view .LVU39
 112:Core/Src/lcd.c ****   __HAL_RCC_GPIOE_CLK_ENABLE();
 167              		.loc 1 112 3 view .LVU40
 168              	.LBB470:
 112:Core/Src/lcd.c ****   __HAL_RCC_GPIOE_CLK_ENABLE();
 169              		.loc 1 112 3 view .LVU41
 112:Core/Src/lcd.c ****   __HAL_RCC_GPIOE_CLK_ENABLE();
 170              		.loc 1 112 3 view .LVU42
 171 0004 2C4B     		ldr	r3, .L8
 172 0006 9A69     		ldr	r2, [r3, #24]
 173 0008 42F02002 		orr	r2, r2, #32
 174 000c 9A61     		str	r2, [r3, #24]
 112:Core/Src/lcd.c ****   __HAL_RCC_GPIOE_CLK_ENABLE();
 175              		.loc 1 112 3 view .LVU43
 176 000e 9A69     		ldr	r2, [r3, #24]
 177 0010 02F02002 		and	r2, r2, #32
 178 0014 0192     		str	r2, [sp, #4]
 112:Core/Src/lcd.c ****   __HAL_RCC_GPIOE_CLK_ENABLE();
 179              		.loc 1 112 3 view .LVU44
 180 0016 019A     		ldr	r2, [sp, #4]
 181              	.LBE470:
 112:Core/Src/lcd.c ****   __HAL_RCC_GPIOE_CLK_ENABLE();
 182              		.loc 1 112 3 view .LVU45
 113:Core/Src/lcd.c ****   __HAL_RCC_GPIOF_CLK_ENABLE();
 183              		.loc 1 113 3 view .LVU46
 184              	.LBB471:
 113:Core/Src/lcd.c ****   __HAL_RCC_GPIOF_CLK_ENABLE();
ARM GAS  C:\Users\84759\AppData\Local\Temp\cc1QWPm5.s 			page 21


 185              		.loc 1 113 3 view .LVU47
 113:Core/Src/lcd.c ****   __HAL_RCC_GPIOF_CLK_ENABLE();
 186              		.loc 1 113 3 view .LVU48
 187 0018 9A69     		ldr	r2, [r3, #24]
 188 001a 42F04002 		orr	r2, r2, #64
 189 001e 9A61     		str	r2, [r3, #24]
 113:Core/Src/lcd.c ****   __HAL_RCC_GPIOF_CLK_ENABLE();
 190              		.loc 1 113 3 view .LVU49
 191 0020 9A69     		ldr	r2, [r3, #24]
 192 0022 02F04002 		and	r2, r2, #64
 193 0026 0292     		str	r2, [sp, #8]
 113:Core/Src/lcd.c ****   __HAL_RCC_GPIOF_CLK_ENABLE();
 194              		.loc 1 113 3 view .LVU50
 195 0028 029A     		ldr	r2, [sp, #8]
 196              	.LBE471:
 113:Core/Src/lcd.c ****   __HAL_RCC_GPIOF_CLK_ENABLE();
 197              		.loc 1 113 3 view .LVU51
 114:Core/Src/lcd.c ****   __HAL_RCC_GPIOG_CLK_ENABLE();
 198              		.loc 1 114 3 view .LVU52
 199              	.LBB472:
 114:Core/Src/lcd.c ****   __HAL_RCC_GPIOG_CLK_ENABLE();
 200              		.loc 1 114 3 view .LVU53
 114:Core/Src/lcd.c ****   __HAL_RCC_GPIOG_CLK_ENABLE();
 201              		.loc 1 114 3 view .LVU54
 202 002a 9A69     		ldr	r2, [r3, #24]
 203 002c 42F08002 		orr	r2, r2, #128
 204 0030 9A61     		str	r2, [r3, #24]
 114:Core/Src/lcd.c ****   __HAL_RCC_GPIOG_CLK_ENABLE();
 205              		.loc 1 114 3 view .LVU55
 206 0032 9A69     		ldr	r2, [r3, #24]
 207 0034 02F08002 		and	r2, r2, #128
 208 0038 0392     		str	r2, [sp, #12]
 114:Core/Src/lcd.c ****   __HAL_RCC_GPIOG_CLK_ENABLE();
 209              		.loc 1 114 3 view .LVU56
 210 003a 039A     		ldr	r2, [sp, #12]
 211              	.LBE472:
 114:Core/Src/lcd.c ****   __HAL_RCC_GPIOG_CLK_ENABLE();
 212              		.loc 1 114 3 view .LVU57
 115:Core/Src/lcd.c ****   __HAL_RCC_FSMC_CLK_ENABLE();			//ĘąÄÜFSMCĘ±ÖÓ
 213              		.loc 1 115 3 view .LVU58
 214              	.LBB473:
 115:Core/Src/lcd.c ****   __HAL_RCC_FSMC_CLK_ENABLE();			//ĘąÄÜFSMCĘ±ÖÓ
 215              		.loc 1 115 3 view .LVU59
 115:Core/Src/lcd.c ****   __HAL_RCC_FSMC_CLK_ENABLE();			//ĘąÄÜFSMCĘ±ÖÓ
 216              		.loc 1 115 3 view .LVU60
 217 003c 9A69     		ldr	r2, [r3, #24]
 218 003e 42F48072 		orr	r2, r2, #256
 219 0042 9A61     		str	r2, [r3, #24]
 115:Core/Src/lcd.c ****   __HAL_RCC_FSMC_CLK_ENABLE();			//ĘąÄÜFSMCĘ±ÖÓ
 220              		.loc 1 115 3 view .LVU61
 221 0044 9A69     		ldr	r2, [r3, #24]
 222 0046 02F48072 		and	r2, r2, #256
 223 004a 0492     		str	r2, [sp, #16]
 115:Core/Src/lcd.c ****   __HAL_RCC_FSMC_CLK_ENABLE();			//ĘąÄÜFSMCĘ±ÖÓ
 224              		.loc 1 115 3 view .LVU62
 225 004c 049A     		ldr	r2, [sp, #16]
 226              	.LBE473:
ARM GAS  C:\Users\84759\AppData\Local\Temp\cc1QWPm5.s 			page 22


 115:Core/Src/lcd.c ****   __HAL_RCC_FSMC_CLK_ENABLE();			//ĘąÄÜFSMCĘ±ÖÓ
 227              		.loc 1 115 3 view .LVU63
 116:Core/Src/lcd.c ****   
 228              		.loc 1 116 3 view .LVU64
 229              	.LBB474:
 116:Core/Src/lcd.c ****   
 230              		.loc 1 116 3 view .LVU65
 116:Core/Src/lcd.c ****   
 231              		.loc 1 116 3 view .LVU66
 232 004e 5A69     		ldr	r2, [r3, #20]
 233 0050 42F48072 		orr	r2, r2, #256
 234 0054 5A61     		str	r2, [r3, #20]
 116:Core/Src/lcd.c ****   
 235              		.loc 1 116 3 view .LVU67
 236 0056 5B69     		ldr	r3, [r3, #20]
 237 0058 03F48073 		and	r3, r3, #256
 238 005c 0593     		str	r3, [sp, #20]
 116:Core/Src/lcd.c ****   
 239              		.loc 1 116 3 view .LVU68
 240 005e 059B     		ldr	r3, [sp, #20]
 241              	.LBE474:
 116:Core/Src/lcd.c ****   
 242              		.loc 1 116 3 view .LVU69
 119:Core/Src/lcd.c ****   GPIO_Initure.Pull      = GPIO_PULLUP;
 243              		.loc 1 119 3 view .LVU70
 119:Core/Src/lcd.c ****   GPIO_Initure.Pull      = GPIO_PULLUP;
 244              		.loc 1 119 26 is_stmt 0 view .LVU71
 245 0060 0123     		movs	r3, #1
 246 0062 0793     		str	r3, [sp, #28]
 120:Core/Src/lcd.c ****   GPIO_Initure.Speed     = GPIO_SPEED_FREQ_HIGH;
 247              		.loc 1 120 3 is_stmt 1 view .LVU72
 120:Core/Src/lcd.c ****   GPIO_Initure.Speed     = GPIO_SPEED_FREQ_HIGH;
 248              		.loc 1 120 26 is_stmt 0 view .LVU73
 249 0064 0893     		str	r3, [sp, #32]
 121:Core/Src/lcd.c **** 
 250              		.loc 1 121 3 is_stmt 1 view .LVU74
 121:Core/Src/lcd.c **** 
 251              		.loc 1 121 26 is_stmt 0 view .LVU75
 252 0066 0323     		movs	r3, #3
 253 0068 0993     		str	r3, [sp, #36]
 124:Core/Src/lcd.c **** 	HAL_GPIO_Init(GPIOG,&GPIO_Initure);
 254              		.loc 1 124 3 is_stmt 1 view .LVU76
 124:Core/Src/lcd.c **** 	HAL_GPIO_Init(GPIOG,&GPIO_Initure);
 255              		.loc 1 124 19 is_stmt 0 view .LVU77
 256 006a 4FF48053 		mov	r3, #4096
 257 006e 0693     		str	r3, [sp, #24]
 125:Core/Src/lcd.c ****   
 258              		.loc 1 125 2 is_stmt 1 view .LVU78
 259 0070 124C     		ldr	r4, .L8+4
 260 0072 06A9     		add	r1, sp, #24
 261 0074 2046     		mov	r0, r4
 262 0076 FFF7FEFF 		bl	HAL_GPIO_Init
 263              	.LVL5:
 128:Core/Src/lcd.c **** 	HAL_GPIO_Init(GPIOG,&GPIO_Initure);
 264              		.loc 1 128 2 view .LVU79
 128:Core/Src/lcd.c **** 	HAL_GPIO_Init(GPIOG,&GPIO_Initure);
 265              		.loc 1 128 18 is_stmt 0 view .LVU80
ARM GAS  C:\Users\84759\AppData\Local\Temp\cc1QWPm5.s 			page 23


 266 007a 4FF40063 		mov	r3, #2048
 267 007e 0693     		str	r3, [sp, #24]
 129:Core/Src/lcd.c ****   
 268              		.loc 1 129 2 is_stmt 1 view .LVU81
 269 0080 06A9     		add	r1, sp, #24
 270 0082 2046     		mov	r0, r4
 271 0084 FFF7FEFF 		bl	HAL_GPIO_Init
 272              	.LVL6:
 131:Core/Src/lcd.c **** //  GPIO_Initure.Alternate=GPIO_AF12_FSMC;	//¸´ÓĂÎŞFSMC
 273              		.loc 1 131 3 view .LVU82
 131:Core/Src/lcd.c **** //  GPIO_Initure.Alternate=GPIO_AF12_FSMC;	//¸´ÓĂÎŞFSMC
 274              		.loc 1 131 20 is_stmt 0 view .LVU83
 275 0088 0223     		movs	r3, #2
 276 008a 0793     		str	r3, [sp, #28]
 135:Core/Src/lcd.c **** 					         GPIO_PIN_9|GPIO_PIN_10|GPIO_PIN_14|GPIO_PIN_15; 
 277              		.loc 1 135 2 is_stmt 1 view .LVU84
 135:Core/Src/lcd.c **** 					         GPIO_PIN_9|GPIO_PIN_10|GPIO_PIN_14|GPIO_PIN_15; 
 278              		.loc 1 135 18 is_stmt 0 view .LVU85
 279 008c 4CF23373 		movw	r3, #50995
 280 0090 0693     		str	r3, [sp, #24]
 137:Core/Src/lcd.c ****   
 281              		.loc 1 137 3 is_stmt 1 view .LVU86
 282 0092 06A9     		add	r1, sp, #24
 283 0094 0A48     		ldr	r0, .L8+8
 284 0096 FFF7FEFF 		bl	HAL_GPIO_Init
 285              	.LVL7:
 140:Core/Src/lcd.c ****                      GPIO_PIN_12|GPIO_PIN_13|GPIO_PIN_14|GPIO_PIN_15;
 286              		.loc 1 140 2 view .LVU87
 140:Core/Src/lcd.c ****                      GPIO_PIN_12|GPIO_PIN_13|GPIO_PIN_14|GPIO_PIN_15;
 287              		.loc 1 140 18 is_stmt 0 view .LVU88
 288 009a 4FF68473 		movw	r3, #65412
 289 009e 0693     		str	r3, [sp, #24]
 142:Core/Src/lcd.c **** 	
 290              		.loc 1 142 2 is_stmt 1 view .LVU89
 291 00a0 06A9     		add	r1, sp, #24
 292 00a2 0848     		ldr	r0, .L8+12
 293 00a4 FFF7FEFF 		bl	HAL_GPIO_Init
 294              	.LVL8:
 145:Core/Src/lcd.c **** 	HAL_GPIO_Init(GPIOG,&GPIO_Initure);
 295              		.loc 1 145 2 view .LVU90
 145:Core/Src/lcd.c **** 	HAL_GPIO_Init(GPIOG,&GPIO_Initure);
 296              		.loc 1 145 18 is_stmt 0 view .LVU91
 297 00a8 4023     		movs	r3, #64
 298 00aa 0693     		str	r3, [sp, #24]
 146:Core/Src/lcd.c **** 
 299              		.loc 1 146 2 is_stmt 1 view .LVU92
 300 00ac 06A9     		add	r1, sp, #24
 301 00ae 2046     		mov	r0, r4
 302 00b0 FFF7FEFF 		bl	HAL_GPIO_Init
 303              	.LVL9:
 253:Core/Src/lcd.c **** 
 304              		.loc 1 253 1 is_stmt 0 view .LVU93
 305 00b4 0AB0     		add	sp, sp, #40
 306              	.LCFI4:
 307              		.cfi_def_cfa_offset 8
 308              		@ sp needed
 309 00b6 10BD     		pop	{r4, pc}
ARM GAS  C:\Users\84759\AppData\Local\Temp\cc1QWPm5.s 			page 24


 310              	.L9:
 311              		.align	2
 312              	.L8:
 313 00b8 00100240 		.word	1073876992
 314 00bc 00200140 		.word	1073815552
 315 00c0 00140140 		.word	1073812480
 316 00c4 00180140 		.word	1073813504
 317              		.cfi_endproc
 318              	.LFE69:
 320              		.section	.text.ILI9341_FSMC_Config,"ax",%progbits
 321              		.align	1
 322              		.syntax unified
 323              		.thumb
 324              		.thumb_func
 326              	ILI9341_FSMC_Config:
 327              	.LFB70:
 262:Core/Src/lcd.c **** 	SRAM_Handler.Instance = FSMC_NORSRAM_DEVICE;
 328              		.loc 1 262 1 is_stmt 1 view -0
 329              		.cfi_startproc
 330              		@ args = 0, pretend = 0, frame = 0
 331              		@ frame_needed = 0, uses_anonymous_args = 0
 332 0000 38B5     		push	{r3, r4, r5, lr}
 333              	.LCFI5:
 334              		.cfi_def_cfa_offset 16
 335              		.cfi_offset 3, -16
 336              		.cfi_offset 4, -12
 337              		.cfi_offset 5, -8
 338              		.cfi_offset 14, -4
 263:Core/Src/lcd.c ****    SRAM_Handler.Extended = FSMC_NORSRAM_EXTENDED_DEVICE;
 339              		.loc 1 263 2 view .LVU95
 263:Core/Src/lcd.c ****    SRAM_Handler.Extended = FSMC_NORSRAM_EXTENDED_DEVICE;
 340              		.loc 1 263 24 is_stmt 0 view .LVU96
 341 0002 154C     		ldr	r4, .L12
 342 0004 4FF02043 		mov	r3, #-1610612736
 343 0008 2360     		str	r3, [r4]
 264:Core/Src/lcd.c ****   
 344              		.loc 1 264 4 is_stmt 1 view .LVU97
 264:Core/Src/lcd.c ****   
 345              		.loc 1 264 26 is_stmt 0 view .LVU98
 346 000a 03F58273 		add	r3, r3, #260
 347 000e 6360     		str	r3, [r4, #4]
 267:Core/Src/lcd.c ****   Timing.AddressHoldTime       = 0x00;
 348              		.loc 1 267 3 is_stmt 1 view .LVU99
 267:Core/Src/lcd.c ****   Timing.AddressHoldTime       = 0x00;
 349              		.loc 1 267 32 is_stmt 0 view .LVU100
 350 0010 124D     		ldr	r5, .L12+4
 351 0012 0023     		movs	r3, #0
 352 0014 2B60     		str	r3, [r5]
 268:Core/Src/lcd.c ****   Timing.DataSetupTime         = 0x08;
 353              		.loc 1 268 3 is_stmt 1 view .LVU101
 268:Core/Src/lcd.c ****   Timing.DataSetupTime         = 0x08;
 354              		.loc 1 268 32 is_stmt 0 view .LVU102
 355 0016 6B60     		str	r3, [r5, #4]
 269:Core/Src/lcd.c ****   Timing.BusTurnAroundDuration = 0x00;
 356              		.loc 1 269 3 is_stmt 1 view .LVU103
 269:Core/Src/lcd.c ****   Timing.BusTurnAroundDuration = 0x00;
 357              		.loc 1 269 32 is_stmt 0 view .LVU104
ARM GAS  C:\Users\84759\AppData\Local\Temp\cc1QWPm5.s 			page 25


 358 0018 0822     		movs	r2, #8
 359 001a AA60     		str	r2, [r5, #8]
 270:Core/Src/lcd.c ****   Timing.CLKDivision           = 0x00;
 360              		.loc 1 270 3 is_stmt 1 view .LVU105
 270:Core/Src/lcd.c ****   Timing.CLKDivision           = 0x00;
 361              		.loc 1 270 32 is_stmt 0 view .LVU106
 362 001c EB60     		str	r3, [r5, #12]
 271:Core/Src/lcd.c ****   Timing.DataLatency           = 0x00;
 363              		.loc 1 271 3 is_stmt 1 view .LVU107
 271:Core/Src/lcd.c ****   Timing.DataLatency           = 0x00;
 364              		.loc 1 271 32 is_stmt 0 view .LVU108
 365 001e 2B61     		str	r3, [r5, #16]
 272:Core/Src/lcd.c ****   Timing.AccessMode            = FSMC_ACCESS_MODE_B;
 366              		.loc 1 272 3 is_stmt 1 view .LVU109
 272:Core/Src/lcd.c ****   Timing.AccessMode            = FSMC_ACCESS_MODE_B;
 367              		.loc 1 272 32 is_stmt 0 view .LVU110
 368 0020 6B61     		str	r3, [r5, #20]
 273:Core/Src/lcd.c ****  
 369              		.loc 1 273 3 is_stmt 1 view .LVU111
 273:Core/Src/lcd.c ****  
 370              		.loc 1 273 32 is_stmt 0 view .LVU112
 371 0022 4FF08051 		mov	r1, #268435456
 372 0026 A961     		str	r1, [r5, #24]
 275:Core/Src/lcd.c **** 	SRAM_Handler.Init.DataAddressMux=FSMC_DATA_ADDRESS_MUX_DISABLE; 	//µŘÖ·/ĘýľÝĎß˛»¸´ÓĂ
 373              		.loc 1 275 3 is_stmt 1 view .LVU113
 275:Core/Src/lcd.c **** 	SRAM_Handler.Init.DataAddressMux=FSMC_DATA_ADDRESS_MUX_DISABLE; 	//µŘÖ·/ĘýľÝĎß˛»¸´ÓĂ
 374              		.loc 1 275 27 is_stmt 0 view .LVU114
 375 0028 0621     		movs	r1, #6
 376 002a A160     		str	r1, [r4, #8]
 276:Core/Src/lcd.c **** 	SRAM_Handler.Init.MemoryType=FSMC_MEMORY_TYPE_NOR;   				       //NOR
 377              		.loc 1 276 2 is_stmt 1 view .LVU115
 276:Core/Src/lcd.c **** 	SRAM_Handler.Init.MemoryType=FSMC_MEMORY_TYPE_NOR;   				       //NOR
 378              		.loc 1 276 34 is_stmt 0 view .LVU116
 379 002c E360     		str	r3, [r4, #12]
 277:Core/Src/lcd.c **** 	SRAM_Handler.Init.MemoryDataWidth=FSMC_NORSRAM_MEM_BUS_WIDTH_16; 	//16Î»ĘýľÝżí¶Č
 380              		.loc 1 277 2 is_stmt 1 view .LVU117
 277:Core/Src/lcd.c **** 	SRAM_Handler.Init.MemoryDataWidth=FSMC_NORSRAM_MEM_BUS_WIDTH_16; 	//16Î»ĘýľÝżí¶Č
 381              		.loc 1 277 30 is_stmt 0 view .LVU118
 382 002e 2261     		str	r2, [r4, #16]
 278:Core/Src/lcd.c **** 	SRAM_Handler.Init.BurstAccessMode=FSMC_BURST_ACCESS_MODE_DISABLE; //ĘÇ·ńĘąÄÜÍ»·˘·ĂÎĘ,˝ö¶ÔÍ¬˛˝Í»·˘´
 383              		.loc 1 278 2 is_stmt 1 view .LVU119
 278:Core/Src/lcd.c **** 	SRAM_Handler.Init.BurstAccessMode=FSMC_BURST_ACCESS_MODE_DISABLE; //ĘÇ·ńĘąÄÜÍ»·˘·ĂÎĘ,˝ö¶ÔÍ¬˛˝Í»·˘´
 384              		.loc 1 278 35 is_stmt 0 view .LVU120
 385 0030 1022     		movs	r2, #16
 386 0032 6261     		str	r2, [r4, #20]
 279:Core/Src/lcd.c **** 	SRAM_Handler.Init.WaitSignalPolarity=FSMC_WAIT_SIGNAL_POLARITY_LOW;//µČ´ýĐĹşĹµÄĽ«ĐÔ,˝öÔÚÍ»·˘ÄŁĘ˝·Ă
 387              		.loc 1 279 2 is_stmt 1 view .LVU121
 279:Core/Src/lcd.c **** 	SRAM_Handler.Init.WaitSignalPolarity=FSMC_WAIT_SIGNAL_POLARITY_LOW;//µČ´ýĐĹşĹµÄĽ«ĐÔ,˝öÔÚÍ»·˘ÄŁĘ˝·Ă
 388              		.loc 1 279 35 is_stmt 0 view .LVU122
 389 0034 A361     		str	r3, [r4, #24]
 280:Core/Src/lcd.c **** 	SRAM_Handler.Init.WaitSignalActive=FSMC_WAIT_TIMING_BEFORE_WS;   	//´ć´˘Ć÷ĘÇÔÚµČ´ýÖÜĆÚÖ®Ç°µÄŇ»¸öĘ±
 390              		.loc 1 280 2 is_stmt 1 view .LVU123
 280:Core/Src/lcd.c **** 	SRAM_Handler.Init.WaitSignalActive=FSMC_WAIT_TIMING_BEFORE_WS;   	//´ć´˘Ć÷ĘÇÔÚµČ´ýÖÜĆÚÖ®Ç°µÄŇ»¸öĘ±
 391              		.loc 1 280 38 is_stmt 0 view .LVU124
 392 0036 E361     		str	r3, [r4, #28]
 281:Core/Src/lcd.c **** 	SRAM_Handler.Init.WriteOperation=FSMC_WRITE_OPERATION_ENABLE;    	//´ć´˘Ć÷Đ´ĘąÄÜ
 393              		.loc 1 281 2 is_stmt 1 view .LVU125
ARM GAS  C:\Users\84759\AppData\Local\Temp\cc1QWPm5.s 			page 26


 281:Core/Src/lcd.c **** 	SRAM_Handler.Init.WriteOperation=FSMC_WRITE_OPERATION_ENABLE;    	//´ć´˘Ć÷Đ´ĘąÄÜ
 394              		.loc 1 281 36 is_stmt 0 view .LVU126
 395 0038 6362     		str	r3, [r4, #36]
 282:Core/Src/lcd.c **** 	SRAM_Handler.Init.WaitSignal=FSMC_WAIT_SIGNAL_DISABLE;           	//µČ´ýĘąÄÜÎ»,´Ë´¦Î´ÓĂµ˝
 396              		.loc 1 282 2 is_stmt 1 view .LVU127
 282:Core/Src/lcd.c **** 	SRAM_Handler.Init.WaitSignal=FSMC_WAIT_SIGNAL_DISABLE;           	//µČ´ýĘąÄÜÎ»,´Ë´¦Î´ÓĂµ˝
 397              		.loc 1 282 34 is_stmt 0 view .LVU128
 398 003a 4FF48052 		mov	r2, #4096
 399 003e A262     		str	r2, [r4, #40]
 283:Core/Src/lcd.c **** 	SRAM_Handler.Init.ExtendedMode=FSMC_EXTENDED_MODE_DISABLE;        	//¶ÁĐ´ĘąÓĂĎŕÍ¬µÄĘ±Đň
 400              		.loc 1 283 2 is_stmt 1 view .LVU129
 283:Core/Src/lcd.c **** 	SRAM_Handler.Init.ExtendedMode=FSMC_EXTENDED_MODE_DISABLE;        	//¶ÁĐ´ĘąÓĂĎŕÍ¬µÄĘ±Đň
 401              		.loc 1 283 30 is_stmt 0 view .LVU130
 402 0040 E362     		str	r3, [r4, #44]
 284:Core/Src/lcd.c **** 	SRAM_Handler.Init.AsynchronousWait=FSMC_ASYNCHRONOUS_WAIT_DISABLE;	//ĘÇ·ńĘąÄÜÍ¬˛˝´«ĘäÄŁĘ˝ĎÂµÄµČ´ýĐ
 403              		.loc 1 284 2 is_stmt 1 view .LVU131
 284:Core/Src/lcd.c **** 	SRAM_Handler.Init.AsynchronousWait=FSMC_ASYNCHRONOUS_WAIT_DISABLE;	//ĘÇ·ńĘąÄÜÍ¬˛˝´«ĘäÄŁĘ˝ĎÂµÄµČ´ýĐ
 404              		.loc 1 284 32 is_stmt 0 view .LVU132
 405 0042 2363     		str	r3, [r4, #48]
 285:Core/Src/lcd.c **** 	SRAM_Handler.Init.WriteBurst=FSMC_WRITE_BURST_DISABLE;           	  //˝űÖąÍ»·˘Đ´
 406              		.loc 1 285 2 is_stmt 1 view .LVU133
 285:Core/Src/lcd.c **** 	SRAM_Handler.Init.WriteBurst=FSMC_WRITE_BURST_DISABLE;           	  //˝űÖąÍ»·˘Đ´
 407              		.loc 1 285 36 is_stmt 0 view .LVU134
 408 0044 6363     		str	r3, [r4, #52]
 286:Core/Src/lcd.c ****   
 409              		.loc 1 286 2 is_stmt 1 view .LVU135
 286:Core/Src/lcd.c ****   
 410              		.loc 1 286 30 is_stmt 0 view .LVU136
 411 0046 A363     		str	r3, [r4, #56]
 289:Core/Src/lcd.c ****   HAL_SRAM_Init(& SRAM_Handler, &Timing, &Timing);
 412              		.loc 1 289 4 is_stmt 1 view .LVU137
 413 0048 FFF7FEFF 		bl	ILI9341_GPIO_Config
 414              	.LVL10:
 290:Core/Src/lcd.c **** 		
 415              		.loc 1 290 3 view .LVU138
 416 004c 2A46     		mov	r2, r5
 417 004e 2946     		mov	r1, r5
 418 0050 2046     		mov	r0, r4
 419 0052 FFF7FEFF 		bl	HAL_SRAM_Init
 420              	.LVL11:
 292:Core/Src/lcd.c **** 
 421              		.loc 1 292 1 is_stmt 0 view .LVU139
 422 0056 38BD     		pop	{r3, r4, r5, pc}
 423              	.L13:
 424              		.align	2
 425              	.L12:
 426 0058 00000000 		.word	.LANCHOR0
 427 005c 00000000 		.word	.LANCHOR1
 428              		.cfi_endproc
 429              	.LFE70:
 431              		.section	.text.ILI9341_Write_Cmd,"ax",%progbits
 432              		.align	1
 433              		.global	ILI9341_Write_Cmd
 434              		.syntax unified
 435              		.thumb
 436              		.thumb_func
 438              	ILI9341_Write_Cmd:
ARM GAS  C:\Users\84759\AppData\Local\Temp\cc1QWPm5.s 			page 27


 439              	.LVL12:
 440              	.LFB65:
  60:Core/Src/lcd.c **** 	* ( __IO uint16_t * ) ( FSMC_Addr_ILI9341_CMD ) = usCmd;
 441              		.loc 1 60 1 is_stmt 1 view -0
 442              		.cfi_startproc
 443              		@ args = 0, pretend = 0, frame = 0
 444              		@ frame_needed = 0, uses_anonymous_args = 0
 445              		@ link register save eliminated.
  61:Core/Src/lcd.c **** 	
 446              		.loc 1 61 2 view .LVU141
  61:Core/Src/lcd.c **** 	
 447              		.loc 1 61 50 is_stmt 0 view .LVU142
 448 0000 4FF0D843 		mov	r3, #1811939328
 449 0004 1880     		strh	r0, [r3]	@ movhi
  63:Core/Src/lcd.c **** 
 450              		.loc 1 63 1 view .LVU143
 451 0006 7047     		bx	lr
 452              		.cfi_endproc
 453              	.LFE65:
 455              		.section	.text.ILI9341_Write_Data,"ax",%progbits
 456              		.align	1
 457              		.global	ILI9341_Write_Data
 458              		.syntax unified
 459              		.thumb
 460              		.thumb_func
 462              	ILI9341_Write_Data:
 463              	.LVL13:
 464              	.LFB66:
  72:Core/Src/lcd.c **** 	* ( __IO uint16_t * ) ( FSMC_Addr_ILI9341_DATA ) = usData;
 465              		.loc 1 72 1 is_stmt 1 view -0
 466              		.cfi_startproc
 467              		@ args = 0, pretend = 0, frame = 0
 468              		@ frame_needed = 0, uses_anonymous_args = 0
 469              		@ link register save eliminated.
  73:Core/Src/lcd.c **** 	
 470              		.loc 1 73 2 view .LVU145
  73:Core/Src/lcd.c **** 	
 471              		.loc 1 73 51 is_stmt 0 view .LVU146
 472 0000 4FF0DA43 		mov	r3, #1828716544
 473 0004 1880     		strh	r0, [r3]	@ movhi
  75:Core/Src/lcd.c **** 
 474              		.loc 1 75 1 view .LVU147
 475 0006 7047     		bx	lr
 476              		.cfi_endproc
 477              	.LFE66:
 479              		.section	.text.ILI9341_Read_Data,"ax",%progbits
 480              		.align	1
 481              		.global	ILI9341_Read_Data
 482              		.syntax unified
 483              		.thumb
 484              		.thumb_func
 486              	ILI9341_Read_Data:
 487              	.LFB67:
  84:Core/Src/lcd.c **** 	return ( * ( __IO uint16_t * ) ( FSMC_Addr_ILI9341_DATA ) );
 488              		.loc 1 84 1 is_stmt 1 view -0
 489              		.cfi_startproc
 490              		@ args = 0, pretend = 0, frame = 0
ARM GAS  C:\Users\84759\AppData\Local\Temp\cc1QWPm5.s 			page 28


 491              		@ frame_needed = 0, uses_anonymous_args = 0
 492              		@ link register save eliminated.
  85:Core/Src/lcd.c **** 	
 493              		.loc 1 85 2 view .LVU149
  85:Core/Src/lcd.c **** 	
 494              		.loc 1 85 11 is_stmt 0 view .LVU150
 495 0000 4FF0DA43 		mov	r3, #1828716544
 496 0004 1888     		ldrh	r0, [r3]
  87:Core/Src/lcd.c **** 
 497              		.loc 1 87 1 view .LVU151
 498 0006 80B2     		uxth	r0, r0
 499 0008 7047     		bx	lr
 500              		.cfi_endproc
 501              	.LFE67:
 503              		.section	.text.ILI9341_BackLed_Control,"ax",%progbits
 504              		.align	1
 505              		.global	ILI9341_BackLed_Control
 506              		.syntax unified
 507              		.thumb
 508              		.thumb_func
 510              	ILI9341_BackLed_Control:
 511              	.LVL14:
 512              	.LFB73:
 653:Core/Src/lcd.c **** 	if ( enumState )
 513              		.loc 1 653 1 is_stmt 1 view -0
 514              		.cfi_startproc
 515              		@ args = 0, pretend = 0, frame = 0
 516              		@ frame_needed = 0, uses_anonymous_args = 0
 517              		@ link register save eliminated.
 654:Core/Src/lcd.c ****   {
 518              		.loc 1 654 2 view .LVU153
 654:Core/Src/lcd.c ****   {
 519              		.loc 1 654 5 is_stmt 0 view .LVU154
 520 0000 20B1     		cbz	r0, .L18
 656:Core/Src/lcd.c ****   }
 521              		.loc 1 656 5 is_stmt 1 view .LVU155
 522 0002 044B     		ldr	r3, .L20
 523 0004 4FF48002 		mov	r2, #4194304
 524 0008 1A61     		str	r2, [r3, #16]
 656:Core/Src/lcd.c ****   }
 525              		.loc 1 656 33 view .LVU156
 526 000a 7047     		bx	lr
 527              	.L18:
 660:Core/Src/lcd.c ****   }		
 528              		.loc 1 660 5 view .LVU157
 529 000c 014B     		ldr	r3, .L20
 530 000e 4022     		movs	r2, #64
 531 0010 1A61     		str	r2, [r3, #16]
 660:Core/Src/lcd.c ****   }		
 532              		.loc 1 660 33 view .LVU158
 662:Core/Src/lcd.c **** 
 533              		.loc 1 662 1 is_stmt 0 view .LVU159
 534 0012 7047     		bx	lr
 535              	.L21:
 536              		.align	2
 537              	.L20:
 538 0014 00200140 		.word	1073815552
ARM GAS  C:\Users\84759\AppData\Local\Temp\cc1QWPm5.s 			page 29


 539              		.cfi_endproc
 540              	.LFE73:
 542              		.section	.text.ILI9341_ReadID,"ax",%progbits
 543              		.align	1
 544              		.global	ILI9341_ReadID
 545              		.syntax unified
 546              		.thumb
 547              		.thumb_func
 549              	ILI9341_ReadID:
 550              	.LFB74:
 672:Core/Src/lcd.c **** 	uint16_t id = 0;
 551              		.loc 1 672 1 is_stmt 1 view -0
 552              		.cfi_startproc
 553              		@ args = 0, pretend = 0, frame = 0
 554              		@ frame_needed = 0, uses_anonymous_args = 0
 555              		@ link register save eliminated.
 673:Core/Src/lcd.c **** 	
 556              		.loc 1 673 2 view .LVU161
 557              	.LVL15:
 675:Core/Src/lcd.c **** 	ILI9341_Read_Data();
 558              		.loc 1 675 2 view .LVU162
 559              	.LBB475:
 560              	.LBI475:
  59:Core/Src/lcd.c **** {
 561              		.loc 1 59 7 view .LVU163
 562              	.LBB476:
  61:Core/Src/lcd.c **** 	
 563              		.loc 1 61 2 view .LVU164
  61:Core/Src/lcd.c **** 	
 564              		.loc 1 61 50 is_stmt 0 view .LVU165
 565 0000 4FF0D843 		mov	r3, #1811939328
 566 0004 0422     		movs	r2, #4
 567 0006 1A80     		strh	r2, [r3]	@ movhi
 568              	.LVL16:
  61:Core/Src/lcd.c **** 	
 569              		.loc 1 61 50 view .LVU166
 570              	.LBE476:
 571              	.LBE475:
 676:Core/Src/lcd.c **** 	ILI9341_Read_Data();
 572              		.loc 1 676 2 is_stmt 1 view .LVU167
 573              	.LBB477:
 574              	.LBI477:
  83:Core/Src/lcd.c **** {
 575              		.loc 1 83 11 view .LVU168
 576              	.LBB478:
  85:Core/Src/lcd.c **** 	
 577              		.loc 1 85 2 view .LVU169
  85:Core/Src/lcd.c **** 	
 578              		.loc 1 85 11 is_stmt 0 view .LVU170
 579 0008 4FF0DA43 		mov	r3, #1828716544
 580 000c 1A88     		ldrh	r2, [r3]
 581              	.LBE478:
 582              	.LBE477:
 677:Core/Src/lcd.c **** 	id = ILI9341_Read_Data();
 583              		.loc 1 677 2 is_stmt 1 view .LVU171
 584              	.LBB479:
 585              	.LBI479:
ARM GAS  C:\Users\84759\AppData\Local\Temp\cc1QWPm5.s 			page 30


  83:Core/Src/lcd.c **** {
 586              		.loc 1 83 11 view .LVU172
 587              	.LBB480:
  85:Core/Src/lcd.c **** 	
 588              		.loc 1 85 2 view .LVU173
  85:Core/Src/lcd.c **** 	
 589              		.loc 1 85 11 is_stmt 0 view .LVU174
 590 000e 1A88     		ldrh	r2, [r3]
 591              	.LBE480:
 592              	.LBE479:
 678:Core/Src/lcd.c **** 	id <<= 8;
 593              		.loc 1 678 2 is_stmt 1 view .LVU175
 594              	.LBB481:
 595              	.LBI481:
  83:Core/Src/lcd.c **** {
 596              		.loc 1 83 11 view .LVU176
 597              	.LBB482:
  85:Core/Src/lcd.c **** 	
 598              		.loc 1 85 2 view .LVU177
  85:Core/Src/lcd.c **** 	
 599              		.loc 1 85 11 is_stmt 0 view .LVU178
 600 0010 1888     		ldrh	r0, [r3]
 601 0012 80B2     		uxth	r0, r0
 602              	.LVL17:
  85:Core/Src/lcd.c **** 	
 603              		.loc 1 85 11 view .LVU179
 604              	.LBE482:
 605              	.LBE481:
 679:Core/Src/lcd.c **** 	id |= ILI9341_Read_Data();
 606              		.loc 1 679 2 is_stmt 1 view .LVU180
 679:Core/Src/lcd.c **** 	id |= ILI9341_Read_Data();
 607              		.loc 1 679 5 is_stmt 0 view .LVU181
 608 0014 0002     		lsls	r0, r0, #8
 609              	.LVL18:
 679:Core/Src/lcd.c **** 	id |= ILI9341_Read_Data();
 610              		.loc 1 679 5 view .LVU182
 611 0016 80B2     		uxth	r0, r0
 612              	.LVL19:
 680:Core/Src/lcd.c **** 	
 613              		.loc 1 680 2 is_stmt 1 view .LVU183
 614              	.LBB483:
 615              	.LBI483:
  83:Core/Src/lcd.c **** {
 616              		.loc 1 83 11 view .LVU184
 617              	.LBB484:
  85:Core/Src/lcd.c **** 	
 618              		.loc 1 85 2 view .LVU185
  85:Core/Src/lcd.c **** 	
 619              		.loc 1 85 11 is_stmt 0 view .LVU186
 620 0018 1B88     		ldrh	r3, [r3]
 621 001a 9BB2     		uxth	r3, r3
 622              	.LBE484:
 623              	.LBE483:
 680:Core/Src/lcd.c **** 	
 624              		.loc 1 680 5 view .LVU187
 625 001c 1843     		orrs	r0, r0, r3
 626              	.LVL20:
ARM GAS  C:\Users\84759\AppData\Local\Temp\cc1QWPm5.s 			page 31


 682:Core/Src/lcd.c ****   {
 627              		.loc 1 682 3 is_stmt 1 view .LVU188
 682:Core/Src/lcd.c ****   {
 628              		.loc 1 682 5 is_stmt 0 view .LVU189
 629 001e 48F25253 		movw	r3, #34130
 630 0022 9842     		cmp	r0, r3
 631 0024 13D0     		beq	.L23
 688:Core/Src/lcd.c ****     ILI9341_Read_Data();
 632              		.loc 1 688 5 is_stmt 1 view .LVU190
 633              	.LVL21:
 634              	.LBB485:
 635              	.LBI485:
  59:Core/Src/lcd.c **** {
 636              		.loc 1 59 7 view .LVU191
 637              	.LBB486:
  61:Core/Src/lcd.c **** 	
 638              		.loc 1 61 2 view .LVU192
  61:Core/Src/lcd.c **** 	
 639              		.loc 1 61 50 is_stmt 0 view .LVU193
 640 0026 4FF0D843 		mov	r3, #1811939328
 641 002a D322     		movs	r2, #211
 642 002c 1A80     		strh	r2, [r3]	@ movhi
 643              	.LVL22:
  61:Core/Src/lcd.c **** 	
 644              		.loc 1 61 50 view .LVU194
 645              	.LBE486:
 646              	.LBE485:
 689:Core/Src/lcd.c ****     ILI9341_Read_Data();
 647              		.loc 1 689 5 is_stmt 1 view .LVU195
 648              	.LBB487:
 649              	.LBI487:
  83:Core/Src/lcd.c **** {
 650              		.loc 1 83 11 view .LVU196
 651              	.LBB488:
  85:Core/Src/lcd.c **** 	
 652              		.loc 1 85 2 view .LVU197
  85:Core/Src/lcd.c **** 	
 653              		.loc 1 85 11 is_stmt 0 view .LVU198
 654 002e 4FF0DA43 		mov	r3, #1828716544
 655 0032 1A88     		ldrh	r2, [r3]
 656              	.LBE488:
 657              	.LBE487:
 690:Core/Src/lcd.c ****     id = ILI9341_Read_Data();
 658              		.loc 1 690 5 is_stmt 1 view .LVU199
 659              	.LBB489:
 660              	.LBI489:
  83:Core/Src/lcd.c **** {
 661              		.loc 1 83 11 view .LVU200
 662              	.LBB490:
  85:Core/Src/lcd.c **** 	
 663              		.loc 1 85 2 view .LVU201
  85:Core/Src/lcd.c **** 	
 664              		.loc 1 85 11 is_stmt 0 view .LVU202
 665 0034 1A88     		ldrh	r2, [r3]
 666              	.LBE490:
 667              	.LBE489:
 691:Core/Src/lcd.c ****     id <<= 8;
ARM GAS  C:\Users\84759\AppData\Local\Temp\cc1QWPm5.s 			page 32


 668              		.loc 1 691 5 is_stmt 1 view .LVU203
 669              	.LBB491:
 670              	.LBI491:
  83:Core/Src/lcd.c **** {
 671              		.loc 1 83 11 view .LVU204
 672              	.LBB492:
  85:Core/Src/lcd.c **** 	
 673              		.loc 1 85 2 view .LVU205
  85:Core/Src/lcd.c **** 	
 674              		.loc 1 85 11 is_stmt 0 view .LVU206
 675 0036 1888     		ldrh	r0, [r3]
 676              	.LVL23:
  85:Core/Src/lcd.c **** 	
 677              		.loc 1 85 11 view .LVU207
 678 0038 80B2     		uxth	r0, r0
 679              	.LVL24:
  85:Core/Src/lcd.c **** 	
 680              		.loc 1 85 11 view .LVU208
 681              	.LBE492:
 682              	.LBE491:
 692:Core/Src/lcd.c ****     id |= ILI9341_Read_Data();
 683              		.loc 1 692 5 is_stmt 1 view .LVU209
 692:Core/Src/lcd.c ****     id |= ILI9341_Read_Data();
 684              		.loc 1 692 8 is_stmt 0 view .LVU210
 685 003a 0002     		lsls	r0, r0, #8
 686              	.LVL25:
 692:Core/Src/lcd.c ****     id |= ILI9341_Read_Data();
 687              		.loc 1 692 8 view .LVU211
 688 003c 80B2     		uxth	r0, r0
 689              	.LVL26:
 693:Core/Src/lcd.c ****     if(id == LCDID_ILI9341)
 690              		.loc 1 693 5 is_stmt 1 view .LVU212
 691              	.LBB493:
 692              	.LBI493:
  83:Core/Src/lcd.c **** {
 693              		.loc 1 83 11 view .LVU213
 694              	.LBB494:
  85:Core/Src/lcd.c **** 	
 695              		.loc 1 85 2 view .LVU214
  85:Core/Src/lcd.c **** 	
 696              		.loc 1 85 11 is_stmt 0 view .LVU215
 697 003e 1B88     		ldrh	r3, [r3]
 698 0040 9BB2     		uxth	r3, r3
 699              	.LBE494:
 700              	.LBE493:
 693:Core/Src/lcd.c ****     if(id == LCDID_ILI9341)
 701              		.loc 1 693 8 view .LVU216
 702 0042 1843     		orrs	r0, r0, r3
 703              	.LVL27:
 694:Core/Src/lcd.c ****     {
 704              		.loc 1 694 5 is_stmt 1 view .LVU217
 694:Core/Src/lcd.c ****     {
 705              		.loc 1 694 7 is_stmt 0 view .LVU218
 706 0044 49F24133 		movw	r3, #37697
 707 0048 9842     		cmp	r0, r3
 708 004a 00D0     		beq	.L23
 700:Core/Src/lcd.c **** }
ARM GAS  C:\Users\84759\AppData\Local\Temp\cc1QWPm5.s 			page 33


 709              		.loc 1 700 9 view .LVU219
 710 004c 0020     		movs	r0, #0
 711              	.LVL28:
 712              	.L23:
 701:Core/Src/lcd.c **** 
 713              		.loc 1 701 1 view .LVU220
 714 004e 7047     		bx	lr
 715              		.cfi_endproc
 716              	.LFE74:
 718              		.section	.text.ILI9341_REG_Config,"ax",%progbits
 719              		.align	1
 720              		.syntax unified
 721              		.thumb
 722              		.thumb_func
 724              	ILI9341_REG_Config:
 725              	.LFB71:
 301:Core/Src/lcd.c ****   lcdid = ILI9341_ReadID();
 726              		.loc 1 301 1 is_stmt 1 view -0
 727              		.cfi_startproc
 728              		@ args = 0, pretend = 0, frame = 0
 729              		@ frame_needed = 0, uses_anonymous_args = 0
 730 0000 2DE9F84F 		push	{r3, r4, r5, r6, r7, r8, r9, r10, fp, lr}
 731              	.LCFI6:
 732              		.cfi_def_cfa_offset 40
 733              		.cfi_offset 3, -40
 734              		.cfi_offset 4, -36
 735              		.cfi_offset 5, -32
 736              		.cfi_offset 6, -28
 737              		.cfi_offset 7, -24
 738              		.cfi_offset 8, -20
 739              		.cfi_offset 9, -16
 740              		.cfi_offset 10, -12
 741              		.cfi_offset 11, -8
 742              		.cfi_offset 14, -4
 302:Core/Src/lcd.c ****   
 743              		.loc 1 302 3 view .LVU222
 302:Core/Src/lcd.c ****   
 744              		.loc 1 302 11 is_stmt 0 view .LVU223
 745 0004 FFF7FEFF 		bl	ILI9341_ReadID
 746              	.LVL29:
 302:Core/Src/lcd.c ****   
 747              		.loc 1 302 9 view .LVU224
 748 0008 664B     		ldr	r3, .L30
 749 000a 1880     		strh	r0, [r3]	@ movhi
 304:Core/Src/lcd.c ****   {
 750              		.loc 1 304 3 is_stmt 1 view .LVU225
 304:Core/Src/lcd.c ****   {
 751              		.loc 1 304 5 is_stmt 0 view .LVU226
 752 000c 49F24133 		movw	r3, #37697
 753 0010 9842     		cmp	r0, r3
 754 0012 06D0     		beq	.L28
 460:Core/Src/lcd.c ****   {
 755              		.loc 1 460 8 is_stmt 1 view .LVU227
 460:Core/Src/lcd.c ****   {
 756              		.loc 1 460 10 is_stmt 0 view .LVU228
 757 0014 48F25253 		movw	r3, #34130
 758 0018 9842     		cmp	r0, r3
ARM GAS  C:\Users\84759\AppData\Local\Temp\cc1QWPm5.s 			page 34


 759 001a 00F0C780 		beq	.L29
 760              	.L24:
 620:Core/Src/lcd.c **** 
 761              		.loc 1 620 1 view .LVU229
 762 001e BDE8F88F 		pop	{r3, r4, r5, r6, r7, r8, r9, r10, fp, pc}
 763              	.L28:
 307:Core/Src/lcd.c ****     ILI9341_Write_Cmd ( 0xCF  );
 764              		.loc 1 307 20 is_stmt 1 view .LVU230
 308:Core/Src/lcd.c ****     ILI9341_Write_Data ( 0x00  );
 765              		.loc 1 308 5 view .LVU231
 766              	.LVL30:
 767              	.LBB495:
 768              	.LBI495:
  59:Core/Src/lcd.c **** {
 769              		.loc 1 59 7 view .LVU232
 770              	.LBB496:
  61:Core/Src/lcd.c **** 	
 771              		.loc 1 61 2 view .LVU233
  61:Core/Src/lcd.c **** 	
 772              		.loc 1 61 50 is_stmt 0 view .LVU234
 773 0022 4FF0D844 		mov	r4, #1811939328
 774 0026 CF23     		movs	r3, #207
 775 0028 2380     		strh	r3, [r4]	@ movhi
 776              	.LVL31:
  61:Core/Src/lcd.c **** 	
 777              		.loc 1 61 50 view .LVU235
 778              	.LBE496:
 779              	.LBE495:
 309:Core/Src/lcd.c ****     ILI9341_Write_Data ( 0x81  );
 780              		.loc 1 309 5 is_stmt 1 view .LVU236
 781              	.LBB497:
 782              	.LBI497:
  71:Core/Src/lcd.c **** {
 783              		.loc 1 71 7 view .LVU237
 784              	.LBB498:
  73:Core/Src/lcd.c **** 	
 785              		.loc 1 73 2 view .LVU238
  73:Core/Src/lcd.c **** 	
 786              		.loc 1 73 51 is_stmt 0 view .LVU239
 787 002a 4FF0DA43 		mov	r3, #1828716544
 788 002e 0022     		movs	r2, #0
 789 0030 1A80     		strh	r2, [r3]	@ movhi
 790              	.LVL32:
  73:Core/Src/lcd.c **** 	
 791              		.loc 1 73 51 view .LVU240
 792              	.LBE498:
 793              	.LBE497:
 310:Core/Src/lcd.c ****     ILI9341_Write_Data ( 0x30  );
 794              		.loc 1 310 5 is_stmt 1 view .LVU241
 795              	.LBB499:
 796              	.LBI499:
  71:Core/Src/lcd.c **** {
 797              		.loc 1 71 7 view .LVU242
 798              	.LBB500:
  73:Core/Src/lcd.c **** 	
 799              		.loc 1 73 2 view .LVU243
  73:Core/Src/lcd.c **** 	
ARM GAS  C:\Users\84759\AppData\Local\Temp\cc1QWPm5.s 			page 35


 800              		.loc 1 73 51 is_stmt 0 view .LVU244
 801 0032 8121     		movs	r1, #129
 802 0034 1980     		strh	r1, [r3]	@ movhi
 803              	.LVL33:
  73:Core/Src/lcd.c **** 	
 804              		.loc 1 73 51 view .LVU245
 805              	.LBE500:
 806              	.LBE499:
 311:Core/Src/lcd.c ****     
 807              		.loc 1 311 5 is_stmt 1 view .LVU246
 808              	.LBB501:
 809              	.LBI501:
  71:Core/Src/lcd.c **** {
 810              		.loc 1 71 7 view .LVU247
 811              	.LBB502:
  73:Core/Src/lcd.c **** 	
 812              		.loc 1 73 2 view .LVU248
  73:Core/Src/lcd.c **** 	
 813              		.loc 1 73 51 is_stmt 0 view .LVU249
 814 0036 3026     		movs	r6, #48
 815 0038 1E80     		strh	r6, [r3]	@ movhi
 816              	.LVL34:
  73:Core/Src/lcd.c **** 	
 817              		.loc 1 73 51 view .LVU250
 818              	.LBE502:
 819              	.LBE501:
 314:Core/Src/lcd.c ****     ILI9341_Write_Cmd ( 0xED );
 820              		.loc 1 314 19 is_stmt 1 view .LVU251
 315:Core/Src/lcd.c ****     ILI9341_Write_Data ( 0x64 );
 821              		.loc 1 315 5 view .LVU252
 822              	.LBB503:
 823              	.LBI503:
  59:Core/Src/lcd.c **** {
 824              		.loc 1 59 7 view .LVU253
 825              	.LBB504:
  61:Core/Src/lcd.c **** 	
 826              		.loc 1 61 2 view .LVU254
  61:Core/Src/lcd.c **** 	
 827              		.loc 1 61 50 is_stmt 0 view .LVU255
 828 003a ED20     		movs	r0, #237
 829 003c 2080     		strh	r0, [r4]	@ movhi
 830              	.LVL35:
  61:Core/Src/lcd.c **** 	
 831              		.loc 1 61 50 view .LVU256
 832              	.LBE504:
 833              	.LBE503:
 316:Core/Src/lcd.c ****     ILI9341_Write_Data ( 0x03 );
 834              		.loc 1 316 5 is_stmt 1 view .LVU257
 835              	.LBB505:
 836              	.LBI505:
  71:Core/Src/lcd.c **** {
 837              		.loc 1 71 7 view .LVU258
 838              	.LBB506:
  73:Core/Src/lcd.c **** 	
 839              		.loc 1 73 2 view .LVU259
  73:Core/Src/lcd.c **** 	
 840              		.loc 1 73 51 is_stmt 0 view .LVU260
ARM GAS  C:\Users\84759\AppData\Local\Temp\cc1QWPm5.s 			page 36


 841 003e 6420     		movs	r0, #100
 842 0040 1880     		strh	r0, [r3]	@ movhi
 843              	.LVL36:
  73:Core/Src/lcd.c **** 	
 844              		.loc 1 73 51 view .LVU261
 845              	.LBE506:
 846              	.LBE505:
 317:Core/Src/lcd.c ****     ILI9341_Write_Data ( 0x12 );
 847              		.loc 1 317 5 is_stmt 1 view .LVU262
 848              	.LBB507:
 849              	.LBI507:
  71:Core/Src/lcd.c **** {
 850              		.loc 1 71 7 view .LVU263
 851              	.LBB508:
  73:Core/Src/lcd.c **** 	
 852              		.loc 1 73 2 view .LVU264
  73:Core/Src/lcd.c **** 	
 853              		.loc 1 73 51 is_stmt 0 view .LVU265
 854 0042 0327     		movs	r7, #3
 855 0044 1F80     		strh	r7, [r3]	@ movhi
 856              	.LVL37:
  73:Core/Src/lcd.c **** 	
 857              		.loc 1 73 51 view .LVU266
 858              	.LBE508:
 859              	.LBE507:
 318:Core/Src/lcd.c ****     ILI9341_Write_Data ( 0x81 );
 860              		.loc 1 318 5 is_stmt 1 view .LVU267
 861              	.LBB509:
 862              	.LBI509:
  71:Core/Src/lcd.c **** {
 863              		.loc 1 71 7 view .LVU268
 864              	.LBB510:
  73:Core/Src/lcd.c **** 	
 865              		.loc 1 73 2 view .LVU269
  73:Core/Src/lcd.c **** 	
 866              		.loc 1 73 51 is_stmt 0 view .LVU270
 867 0046 1220     		movs	r0, #18
 868 0048 1880     		strh	r0, [r3]	@ movhi
 869              	.LVL38:
  73:Core/Src/lcd.c **** 	
 870              		.loc 1 73 51 view .LVU271
 871              	.LBE510:
 872              	.LBE509:
 319:Core/Src/lcd.c ****     
 873              		.loc 1 319 5 is_stmt 1 view .LVU272
 874              	.LBB511:
 875              	.LBI511:
  71:Core/Src/lcd.c **** {
 876              		.loc 1 71 7 view .LVU273
 877              	.LBB512:
  73:Core/Src/lcd.c **** 	
 878              		.loc 1 73 2 view .LVU274
  73:Core/Src/lcd.c **** 	
 879              		.loc 1 73 51 is_stmt 0 view .LVU275
 880 004a 1980     		strh	r1, [r3]	@ movhi
 881              	.LVL39:
  73:Core/Src/lcd.c **** 	
ARM GAS  C:\Users\84759\AppData\Local\Temp\cc1QWPm5.s 			page 37


 882              		.loc 1 73 51 view .LVU276
 883              	.LBE512:
 884              	.LBE511:
 322:Core/Src/lcd.c ****     ILI9341_Write_Cmd ( 0xE8 );
 885              		.loc 1 322 19 is_stmt 1 view .LVU277
 323:Core/Src/lcd.c ****     ILI9341_Write_Data ( 0x85 );
 886              		.loc 1 323 5 view .LVU278
 887              	.LBB513:
 888              	.LBI513:
  59:Core/Src/lcd.c **** {
 889              		.loc 1 59 7 view .LVU279
 890              	.LBB514:
  61:Core/Src/lcd.c **** 	
 891              		.loc 1 61 2 view .LVU280
  61:Core/Src/lcd.c **** 	
 892              		.loc 1 61 50 is_stmt 0 view .LVU281
 893 004c E821     		movs	r1, #232
 894 004e 2180     		strh	r1, [r4]	@ movhi
 895              	.LVL40:
  61:Core/Src/lcd.c **** 	
 896              		.loc 1 61 50 view .LVU282
 897              	.LBE514:
 898              	.LBE513:
 324:Core/Src/lcd.c ****     ILI9341_Write_Data ( 0x10 );
 899              		.loc 1 324 5 is_stmt 1 view .LVU283
 900              	.LBB515:
 901              	.LBI515:
  71:Core/Src/lcd.c **** {
 902              		.loc 1 71 7 view .LVU284
 903              	.LBB516:
  73:Core/Src/lcd.c **** 	
 904              		.loc 1 73 2 view .LVU285
  73:Core/Src/lcd.c **** 	
 905              		.loc 1 73 51 is_stmt 0 view .LVU286
 906 0050 8521     		movs	r1, #133
 907 0052 1980     		strh	r1, [r3]	@ movhi
 908              	.LVL41:
  73:Core/Src/lcd.c **** 	
 909              		.loc 1 73 51 view .LVU287
 910              	.LBE516:
 911              	.LBE515:
 325:Core/Src/lcd.c ****     ILI9341_Write_Data ( 0x78 );
 912              		.loc 1 325 5 is_stmt 1 view .LVU288
 913              	.LBB517:
 914              	.LBI517:
  71:Core/Src/lcd.c **** {
 915              		.loc 1 71 7 view .LVU289
 916              	.LBB518:
  73:Core/Src/lcd.c **** 	
 917              		.loc 1 73 2 view .LVU290
  73:Core/Src/lcd.c **** 	
 918              		.loc 1 73 51 is_stmt 0 view .LVU291
 919 0054 4FF01009 		mov	r9, #16
 920 0058 A3F80090 		strh	r9, [r3]	@ movhi
 921              	.LVL42:
  73:Core/Src/lcd.c **** 	
 922              		.loc 1 73 51 view .LVU292
ARM GAS  C:\Users\84759\AppData\Local\Temp\cc1QWPm5.s 			page 38


 923              	.LBE518:
 924              	.LBE517:
 326:Core/Src/lcd.c ****     
 925              		.loc 1 326 5 is_stmt 1 view .LVU293
 926              	.LBB519:
 927              	.LBI519:
  71:Core/Src/lcd.c **** {
 928              		.loc 1 71 7 view .LVU294
 929              	.LBB520:
  73:Core/Src/lcd.c **** 	
 930              		.loc 1 73 2 view .LVU295
  73:Core/Src/lcd.c **** 	
 931              		.loc 1 73 51 is_stmt 0 view .LVU296
 932 005c 7821     		movs	r1, #120
 933 005e 1980     		strh	r1, [r3]	@ movhi
 934              	.LVL43:
  73:Core/Src/lcd.c **** 	
 935              		.loc 1 73 51 view .LVU297
 936              	.LBE520:
 937              	.LBE519:
 329:Core/Src/lcd.c ****     ILI9341_Write_Cmd ( 0xCB );
 938              		.loc 1 329 19 is_stmt 1 view .LVU298
 330:Core/Src/lcd.c ****     ILI9341_Write_Data ( 0x39 );
 939              		.loc 1 330 5 view .LVU299
 940              	.LBB521:
 941              	.LBI521:
  59:Core/Src/lcd.c **** {
 942              		.loc 1 59 7 view .LVU300
 943              	.LBB522:
  61:Core/Src/lcd.c **** 	
 944              		.loc 1 61 2 view .LVU301
  61:Core/Src/lcd.c **** 	
 945              		.loc 1 61 50 is_stmt 0 view .LVU302
 946 0060 CB21     		movs	r1, #203
 947 0062 2180     		strh	r1, [r4]	@ movhi
 948              	.LVL44:
  61:Core/Src/lcd.c **** 	
 949              		.loc 1 61 50 view .LVU303
 950              	.LBE522:
 951              	.LBE521:
 331:Core/Src/lcd.c ****     ILI9341_Write_Data ( 0x2C );
 952              		.loc 1 331 5 is_stmt 1 view .LVU304
 953              	.LBB523:
 954              	.LBI523:
  71:Core/Src/lcd.c **** {
 955              		.loc 1 71 7 view .LVU305
 956              	.LBB524:
  73:Core/Src/lcd.c **** 	
 957              		.loc 1 73 2 view .LVU306
  73:Core/Src/lcd.c **** 	
 958              		.loc 1 73 51 is_stmt 0 view .LVU307
 959 0064 4FF03908 		mov	r8, #57
 960 0068 A3F80080 		strh	r8, [r3]	@ movhi
 961              	.LVL45:
  73:Core/Src/lcd.c **** 	
 962              		.loc 1 73 51 view .LVU308
 963              	.LBE524:
ARM GAS  C:\Users\84759\AppData\Local\Temp\cc1QWPm5.s 			page 39


 964              	.LBE523:
 332:Core/Src/lcd.c ****     ILI9341_Write_Data ( 0x00 );
 965              		.loc 1 332 5 is_stmt 1 view .LVU309
 966              	.LBB525:
 967              	.LBI525:
  71:Core/Src/lcd.c **** {
 968              		.loc 1 71 7 view .LVU310
 969              	.LBB526:
  73:Core/Src/lcd.c **** 	
 970              		.loc 1 73 2 view .LVU311
  73:Core/Src/lcd.c **** 	
 971              		.loc 1 73 51 is_stmt 0 view .LVU312
 972 006c 2C21     		movs	r1, #44
 973 006e 1980     		strh	r1, [r3]	@ movhi
 974              	.LVL46:
  73:Core/Src/lcd.c **** 	
 975              		.loc 1 73 51 view .LVU313
 976              	.LBE526:
 977              	.LBE525:
 333:Core/Src/lcd.c ****     ILI9341_Write_Data ( 0x34 );
 978              		.loc 1 333 5 is_stmt 1 view .LVU314
 979              	.LBB527:
 980              	.LBI527:
  71:Core/Src/lcd.c **** {
 981              		.loc 1 71 7 view .LVU315
 982              	.LBB528:
  73:Core/Src/lcd.c **** 	
 983              		.loc 1 73 2 view .LVU316
  73:Core/Src/lcd.c **** 	
 984              		.loc 1 73 51 is_stmt 0 view .LVU317
 985 0070 1A80     		strh	r2, [r3]	@ movhi
 986              	.LVL47:
  73:Core/Src/lcd.c **** 	
 987              		.loc 1 73 51 view .LVU318
 988              	.LBE528:
 989              	.LBE527:
 334:Core/Src/lcd.c ****     //ILI9341_Write_Data ( 0x02 );
 990              		.loc 1 334 5 is_stmt 1 view .LVU319
 991              	.LBB529:
 992              	.LBI529:
  71:Core/Src/lcd.c **** {
 993              		.loc 1 71 7 view .LVU320
 994              	.LBB530:
  73:Core/Src/lcd.c **** 	
 995              		.loc 1 73 2 view .LVU321
  73:Core/Src/lcd.c **** 	
 996              		.loc 1 73 51 is_stmt 0 view .LVU322
 997 0072 3421     		movs	r1, #52
 998 0074 1980     		strh	r1, [r3]	@ movhi
 999              	.LVL48:
  73:Core/Src/lcd.c **** 	
 1000              		.loc 1 73 51 view .LVU323
 1001              	.LBE530:
 1002              	.LBE529:
 336:Core/Src/lcd.c ****     
 1003              		.loc 1 336 5 is_stmt 1 view .LVU324
 1004              	.LBB531:
ARM GAS  C:\Users\84759\AppData\Local\Temp\cc1QWPm5.s 			page 40


 1005              	.LBI531:
  71:Core/Src/lcd.c **** {
 1006              		.loc 1 71 7 view .LVU325
 1007              	.LBB532:
  73:Core/Src/lcd.c **** 	
 1008              		.loc 1 73 2 view .LVU326
  73:Core/Src/lcd.c **** 	
 1009              		.loc 1 73 51 is_stmt 0 view .LVU327
 1010 0076 0620     		movs	r0, #6
 1011 0078 1880     		strh	r0, [r3]	@ movhi
 1012              	.LVL49:
  73:Core/Src/lcd.c **** 	
 1013              		.loc 1 73 51 view .LVU328
 1014              	.LBE532:
 1015              	.LBE531:
 339:Core/Src/lcd.c ****     ILI9341_Write_Cmd ( 0xF7 );
 1016              		.loc 1 339 19 is_stmt 1 view .LVU329
 340:Core/Src/lcd.c ****     ILI9341_Write_Data ( 0x20 );
 1017              		.loc 1 340 5 view .LVU330
 1018              	.LBB533:
 1019              	.LBI533:
  59:Core/Src/lcd.c **** {
 1020              		.loc 1 59 7 view .LVU331
 1021              	.LBB534:
  61:Core/Src/lcd.c **** 	
 1022              		.loc 1 61 2 view .LVU332
  61:Core/Src/lcd.c **** 	
 1023              		.loc 1 61 50 is_stmt 0 view .LVU333
 1024 007a F721     		movs	r1, #247
 1025 007c 2180     		strh	r1, [r4]	@ movhi
 1026              	.LVL50:
  61:Core/Src/lcd.c **** 	
 1027              		.loc 1 61 50 view .LVU334
 1028              	.LBE534:
 1029              	.LBE533:
 341:Core/Src/lcd.c ****     
 1030              		.loc 1 341 5 is_stmt 1 view .LVU335
 1031              	.LBB535:
 1032              	.LBI535:
  71:Core/Src/lcd.c **** {
 1033              		.loc 1 71 7 view .LVU336
 1034              	.LBB536:
  73:Core/Src/lcd.c **** 	
 1035              		.loc 1 73 2 view .LVU337
  73:Core/Src/lcd.c **** 	
 1036              		.loc 1 73 51 is_stmt 0 view .LVU338
 1037 007e 2021     		movs	r1, #32
 1038 0080 1980     		strh	r1, [r3]	@ movhi
 1039              	.LVL51:
  73:Core/Src/lcd.c **** 	
 1040              		.loc 1 73 51 view .LVU339
 1041              	.LBE536:
 1042              	.LBE535:
 344:Core/Src/lcd.c ****     ILI9341_Write_Cmd ( 0xEA );
 1043              		.loc 1 344 19 is_stmt 1 view .LVU340
 345:Core/Src/lcd.c ****     ILI9341_Write_Data ( 0x00 );
 1044              		.loc 1 345 5 view .LVU341
ARM GAS  C:\Users\84759\AppData\Local\Temp\cc1QWPm5.s 			page 41


 1045              	.LBB537:
 1046              	.LBI537:
  59:Core/Src/lcd.c **** {
 1047              		.loc 1 59 7 view .LVU342
 1048              	.LBB538:
  61:Core/Src/lcd.c **** 	
 1049              		.loc 1 61 2 view .LVU343
  61:Core/Src/lcd.c **** 	
 1050              		.loc 1 61 50 is_stmt 0 view .LVU344
 1051 0082 EA21     		movs	r1, #234
 1052 0084 2180     		strh	r1, [r4]	@ movhi
 1053              	.LVL52:
  61:Core/Src/lcd.c **** 	
 1054              		.loc 1 61 50 view .LVU345
 1055              	.LBE538:
 1056              	.LBE537:
 346:Core/Src/lcd.c ****     ILI9341_Write_Data ( 0x00 );
 1057              		.loc 1 346 5 is_stmt 1 view .LVU346
 1058              	.LBB539:
 1059              	.LBI539:
  71:Core/Src/lcd.c **** {
 1060              		.loc 1 71 7 view .LVU347
 1061              	.LBB540:
  73:Core/Src/lcd.c **** 	
 1062              		.loc 1 73 2 view .LVU348
  73:Core/Src/lcd.c **** 	
 1063              		.loc 1 73 51 is_stmt 0 view .LVU349
 1064 0086 1A80     		strh	r2, [r3]	@ movhi
 1065              	.LVL53:
  73:Core/Src/lcd.c **** 	
 1066              		.loc 1 73 51 view .LVU350
 1067              	.LBE540:
 1068              	.LBE539:
 347:Core/Src/lcd.c ****     
 1069              		.loc 1 347 5 is_stmt 1 view .LVU351
 1070              	.LBB541:
 1071              	.LBI541:
  71:Core/Src/lcd.c **** {
 1072              		.loc 1 71 7 view .LVU352
 1073              	.LBB542:
  73:Core/Src/lcd.c **** 	
 1074              		.loc 1 73 2 view .LVU353
  73:Core/Src/lcd.c **** 	
 1075              		.loc 1 73 51 is_stmt 0 view .LVU354
 1076 0088 1A80     		strh	r2, [r3]	@ movhi
 1077              	.LVL54:
  73:Core/Src/lcd.c **** 	
 1078              		.loc 1 73 51 view .LVU355
 1079              	.LBE542:
 1080              	.LBE541:
 350:Core/Src/lcd.c ****     ILI9341_Write_Cmd ( 0xB1 );
 1081              		.loc 1 350 19 is_stmt 1 view .LVU356
 351:Core/Src/lcd.c ****     ILI9341_Write_Data ( 0x00 );
 1082              		.loc 1 351 5 view .LVU357
 1083              	.LBB543:
 1084              	.LBI543:
  59:Core/Src/lcd.c **** {
ARM GAS  C:\Users\84759\AppData\Local\Temp\cc1QWPm5.s 			page 42


 1085              		.loc 1 59 7 view .LVU358
 1086              	.LBB544:
  61:Core/Src/lcd.c **** 	
 1087              		.loc 1 61 2 view .LVU359
  61:Core/Src/lcd.c **** 	
 1088              		.loc 1 61 50 is_stmt 0 view .LVU360
 1089 008a B121     		movs	r1, #177
 1090 008c 2180     		strh	r1, [r4]	@ movhi
 1091              	.LVL55:
  61:Core/Src/lcd.c **** 	
 1092              		.loc 1 61 50 view .LVU361
 1093              	.LBE544:
 1094              	.LBE543:
 352:Core/Src/lcd.c ****     ILI9341_Write_Data ( 0x1B );
 1095              		.loc 1 352 5 is_stmt 1 view .LVU362
 1096              	.LBB545:
 1097              	.LBI545:
  71:Core/Src/lcd.c **** {
 1098              		.loc 1 71 7 view .LVU363
 1099              	.LBB546:
  73:Core/Src/lcd.c **** 	
 1100              		.loc 1 73 2 view .LVU364
  73:Core/Src/lcd.c **** 	
 1101              		.loc 1 73 51 is_stmt 0 view .LVU365
 1102 008e 1A80     		strh	r2, [r3]	@ movhi
 1103              	.LVL56:
  73:Core/Src/lcd.c **** 	
 1104              		.loc 1 73 51 view .LVU366
 1105              	.LBE546:
 1106              	.LBE545:
 353:Core/Src/lcd.c ****     
 1107              		.loc 1 353 5 is_stmt 1 view .LVU367
 1108              	.LBB547:
 1109              	.LBI547:
  71:Core/Src/lcd.c **** {
 1110              		.loc 1 71 7 view .LVU368
 1111              	.LBB548:
  73:Core/Src/lcd.c **** 	
 1112              		.loc 1 73 2 view .LVU369
  73:Core/Src/lcd.c **** 	
 1113              		.loc 1 73 51 is_stmt 0 view .LVU370
 1114 0090 4FF01B0A 		mov	r10, #27
 1115 0094 A3F800A0 		strh	r10, [r3]	@ movhi
 1116              	.LVL57:
  73:Core/Src/lcd.c **** 	
 1117              		.loc 1 73 51 view .LVU371
 1118              	.LBE548:
 1119              	.LBE547:
 356:Core/Src/lcd.c ****     ILI9341_Write_Cmd ( 0xB6 );
 1120              		.loc 1 356 19 is_stmt 1 view .LVU372
 357:Core/Src/lcd.c ****     ILI9341_Write_Data ( 0x0A );
 1121              		.loc 1 357 5 view .LVU373
 1122              	.LBB549:
 1123              	.LBI549:
  59:Core/Src/lcd.c **** {
 1124              		.loc 1 59 7 view .LVU374
 1125              	.LBB550:
ARM GAS  C:\Users\84759\AppData\Local\Temp\cc1QWPm5.s 			page 43


  61:Core/Src/lcd.c **** 	
 1126              		.loc 1 61 2 view .LVU375
  61:Core/Src/lcd.c **** 	
 1127              		.loc 1 61 50 is_stmt 0 view .LVU376
 1128 0098 B621     		movs	r1, #182
 1129 009a 2180     		strh	r1, [r4]	@ movhi
 1130              	.LVL58:
  61:Core/Src/lcd.c **** 	
 1131              		.loc 1 61 50 view .LVU377
 1132              	.LBE550:
 1133              	.LBE549:
 358:Core/Src/lcd.c ****     ILI9341_Write_Data ( 0xA2 );
 1134              		.loc 1 358 5 is_stmt 1 view .LVU378
 1135              	.LBB551:
 1136              	.LBI551:
  71:Core/Src/lcd.c **** {
 1137              		.loc 1 71 7 view .LVU379
 1138              	.LBB552:
  73:Core/Src/lcd.c **** 	
 1139              		.loc 1 73 2 view .LVU380
  73:Core/Src/lcd.c **** 	
 1140              		.loc 1 73 51 is_stmt 0 view .LVU381
 1141 009c 0A21     		movs	r1, #10
 1142 009e 1980     		strh	r1, [r3]	@ movhi
 1143              	.LVL59:
  73:Core/Src/lcd.c **** 	
 1144              		.loc 1 73 51 view .LVU382
 1145              	.LBE552:
 1146              	.LBE551:
 359:Core/Src/lcd.c ****     
 1147              		.loc 1 359 5 is_stmt 1 view .LVU383
 1148              	.LBB553:
 1149              	.LBI553:
  71:Core/Src/lcd.c **** {
 1150              		.loc 1 71 7 view .LVU384
 1151              	.LBB554:
  73:Core/Src/lcd.c **** 	
 1152              		.loc 1 73 2 view .LVU385
  73:Core/Src/lcd.c **** 	
 1153              		.loc 1 73 51 is_stmt 0 view .LVU386
 1154 00a0 A221     		movs	r1, #162
 1155 00a2 1980     		strh	r1, [r3]	@ movhi
 1156              	.LVL60:
  73:Core/Src/lcd.c **** 	
 1157              		.loc 1 73 51 view .LVU387
 1158              	.LBE554:
 1159              	.LBE553:
 362:Core/Src/lcd.c ****     ILI9341_Write_Cmd ( 0xC0 );
 1160              		.loc 1 362 19 is_stmt 1 view .LVU388
 363:Core/Src/lcd.c ****     ILI9341_Write_Data ( 0x35 );
 1161              		.loc 1 363 5 view .LVU389
 1162              	.LBB555:
 1163              	.LBI555:
  59:Core/Src/lcd.c **** {
 1164              		.loc 1 59 7 view .LVU390
 1165              	.LBB556:
  61:Core/Src/lcd.c **** 	
ARM GAS  C:\Users\84759\AppData\Local\Temp\cc1QWPm5.s 			page 44


 1166              		.loc 1 61 2 view .LVU391
  61:Core/Src/lcd.c **** 	
 1167              		.loc 1 61 50 is_stmt 0 view .LVU392
 1168 00a4 C025     		movs	r5, #192
 1169 00a6 2580     		strh	r5, [r4]	@ movhi
 1170              	.LVL61:
  61:Core/Src/lcd.c **** 	
 1171              		.loc 1 61 50 view .LVU393
 1172              	.LBE556:
 1173              	.LBE555:
 364:Core/Src/lcd.c ****     
 1174              		.loc 1 364 5 is_stmt 1 view .LVU394
 1175              	.LBB557:
 1176              	.LBI557:
  71:Core/Src/lcd.c **** {
 1177              		.loc 1 71 7 view .LVU395
 1178              	.LBB558:
  73:Core/Src/lcd.c **** 	
 1179              		.loc 1 73 2 view .LVU396
  73:Core/Src/lcd.c **** 	
 1180              		.loc 1 73 51 is_stmt 0 view .LVU397
 1181 00a8 3525     		movs	r5, #53
 1182 00aa 1D80     		strh	r5, [r3]	@ movhi
 1183              	.LVL62:
  73:Core/Src/lcd.c **** 	
 1184              		.loc 1 73 51 view .LVU398
 1185              	.LBE558:
 1186              	.LBE557:
 367:Core/Src/lcd.c ****     ILI9341_Write_Cmd ( 0xC1 );
 1187              		.loc 1 367 19 is_stmt 1 view .LVU399
 368:Core/Src/lcd.c ****     ILI9341_Write_Data ( 0x11 );
 1188              		.loc 1 368 5 view .LVU400
 1189              	.LBB559:
 1190              	.LBI559:
  59:Core/Src/lcd.c **** {
 1191              		.loc 1 59 7 view .LVU401
 1192              	.LBB560:
  61:Core/Src/lcd.c **** 	
 1193              		.loc 1 61 2 view .LVU402
  61:Core/Src/lcd.c **** 	
 1194              		.loc 1 61 50 is_stmt 0 view .LVU403
 1195 00ac C125     		movs	r5, #193
 1196 00ae 2580     		strh	r5, [r4]	@ movhi
 1197              	.LVL63:
  61:Core/Src/lcd.c **** 	
 1198              		.loc 1 61 50 view .LVU404
 1199              	.LBE560:
 1200              	.LBE559:
 369:Core/Src/lcd.c ****     
 1201              		.loc 1 369 5 is_stmt 1 view .LVU405
 1202              	.LBB561:
 1203              	.LBI561:
  71:Core/Src/lcd.c **** {
 1204              		.loc 1 71 7 view .LVU406
 1205              	.LBB562:
  73:Core/Src/lcd.c **** 	
 1206              		.loc 1 73 2 view .LVU407
ARM GAS  C:\Users\84759\AppData\Local\Temp\cc1QWPm5.s 			page 45


  73:Core/Src/lcd.c **** 	
 1207              		.loc 1 73 51 is_stmt 0 view .LVU408
 1208 00b0 4FF0110C 		mov	ip, #17
 1209 00b4 A3F800C0 		strh	ip, [r3]	@ movhi
 1210              	.LVL64:
  73:Core/Src/lcd.c **** 	
 1211              		.loc 1 73 51 view .LVU409
 1212              	.LBE562:
 1213              	.LBE561:
 372:Core/Src/lcd.c ****     ILI9341_Write_Data ( 0x45 );
 1214              		.loc 1 372 5 is_stmt 1 view .LVU410
 1215              	.LBB563:
 1216              	.LBI563:
  59:Core/Src/lcd.c **** {
 1217              		.loc 1 59 7 view .LVU411
 1218              	.LBB564:
  61:Core/Src/lcd.c **** 	
 1219              		.loc 1 61 2 view .LVU412
  61:Core/Src/lcd.c **** 	
 1220              		.loc 1 61 50 is_stmt 0 view .LVU413
 1221 00b8 C525     		movs	r5, #197
 1222 00ba 2580     		strh	r5, [r4]	@ movhi
 1223              	.LVL65:
  61:Core/Src/lcd.c **** 	
 1224              		.loc 1 61 50 view .LVU414
 1225              	.LBE564:
 1226              	.LBE563:
 373:Core/Src/lcd.c ****     ILI9341_Write_Data ( 0x45 );
 1227              		.loc 1 373 5 is_stmt 1 view .LVU415
 1228              	.LBB565:
 1229              	.LBI565:
  71:Core/Src/lcd.c **** {
 1230              		.loc 1 71 7 view .LVU416
 1231              	.LBB566:
  73:Core/Src/lcd.c **** 	
 1232              		.loc 1 73 2 view .LVU417
  73:Core/Src/lcd.c **** 	
 1233              		.loc 1 73 51 is_stmt 0 view .LVU418
 1234 00bc 4525     		movs	r5, #69
 1235 00be 1D80     		strh	r5, [r3]	@ movhi
 1236              	.LVL66:
  73:Core/Src/lcd.c **** 	
 1237              		.loc 1 73 51 view .LVU419
 1238              	.LBE566:
 1239              	.LBE565:
 374:Core/Src/lcd.c ****     
 1240              		.loc 1 374 5 is_stmt 1 view .LVU420
 1241              	.LBB567:
 1242              	.LBI567:
  71:Core/Src/lcd.c **** {
 1243              		.loc 1 71 7 view .LVU421
 1244              	.LBB568:
  73:Core/Src/lcd.c **** 	
 1245              		.loc 1 73 2 view .LVU422
  73:Core/Src/lcd.c **** 	
 1246              		.loc 1 73 51 is_stmt 0 view .LVU423
 1247 00c0 1D80     		strh	r5, [r3]	@ movhi
ARM GAS  C:\Users\84759\AppData\Local\Temp\cc1QWPm5.s 			page 46


 1248              	.LVL67:
  73:Core/Src/lcd.c **** 	
 1249              		.loc 1 73 51 view .LVU424
 1250              	.LBE568:
 1251              	.LBE567:
 377:Core/Src/lcd.c ****     ILI9341_Write_Data ( 0xA2 );
 1252              		.loc 1 377 5 is_stmt 1 view .LVU425
 1253              	.LBB569:
 1254              	.LBI569:
  59:Core/Src/lcd.c **** {
 1255              		.loc 1 59 7 view .LVU426
 1256              	.LBB570:
  61:Core/Src/lcd.c **** 	
 1257              		.loc 1 61 2 view .LVU427
  61:Core/Src/lcd.c **** 	
 1258              		.loc 1 61 50 is_stmt 0 view .LVU428
 1259 00c2 C725     		movs	r5, #199
 1260 00c4 2580     		strh	r5, [r4]	@ movhi
 1261              	.LVL68:
  61:Core/Src/lcd.c **** 	
 1262              		.loc 1 61 50 view .LVU429
 1263              	.LBE570:
 1264              	.LBE569:
 378:Core/Src/lcd.c ****     
 1265              		.loc 1 378 5 is_stmt 1 view .LVU430
 1266              	.LBB571:
 1267              	.LBI571:
  71:Core/Src/lcd.c **** {
 1268              		.loc 1 71 7 view .LVU431
 1269              	.LBB572:
  73:Core/Src/lcd.c **** 	
 1270              		.loc 1 73 2 view .LVU432
  73:Core/Src/lcd.c **** 	
 1271              		.loc 1 73 51 is_stmt 0 view .LVU433
 1272 00c6 1980     		strh	r1, [r3]	@ movhi
 1273              	.LVL69:
  73:Core/Src/lcd.c **** 	
 1274              		.loc 1 73 51 view .LVU434
 1275              	.LBE572:
 1276              	.LBE571:
 381:Core/Src/lcd.c ****     ILI9341_Write_Data ( 0x00 );
 1277              		.loc 1 381 5 is_stmt 1 view .LVU435
 1278              	.LBB573:
 1279              	.LBI573:
  59:Core/Src/lcd.c **** {
 1280              		.loc 1 59 7 view .LVU436
 1281              	.LBB574:
  61:Core/Src/lcd.c **** 	
 1282              		.loc 1 61 2 view .LVU437
  61:Core/Src/lcd.c **** 	
 1283              		.loc 1 61 50 is_stmt 0 view .LVU438
 1284 00c8 F221     		movs	r1, #242
 1285 00ca 2180     		strh	r1, [r4]	@ movhi
 1286              	.LVL70:
  61:Core/Src/lcd.c **** 	
 1287              		.loc 1 61 50 view .LVU439
 1288              	.LBE574:
ARM GAS  C:\Users\84759\AppData\Local\Temp\cc1QWPm5.s 			page 47


 1289              	.LBE573:
 382:Core/Src/lcd.c ****     
 1290              		.loc 1 382 5 is_stmt 1 view .LVU440
 1291              	.LBB575:
 1292              	.LBI575:
  71:Core/Src/lcd.c **** {
 1293              		.loc 1 71 7 view .LVU441
 1294              	.LBB576:
  73:Core/Src/lcd.c **** 	
 1295              		.loc 1 73 2 view .LVU442
  73:Core/Src/lcd.c **** 	
 1296              		.loc 1 73 51 is_stmt 0 view .LVU443
 1297 00cc 1A80     		strh	r2, [r3]	@ movhi
 1298              	.LVL71:
  73:Core/Src/lcd.c **** 	
 1299              		.loc 1 73 51 view .LVU444
 1300              	.LBE576:
 1301              	.LBE575:
 385:Core/Src/lcd.c ****     ILI9341_Write_Data ( 0x01 );
 1302              		.loc 1 385 5 is_stmt 1 view .LVU445
 1303              	.LBB577:
 1304              	.LBI577:
  59:Core/Src/lcd.c **** {
 1305              		.loc 1 59 7 view .LVU446
 1306              	.LBB578:
  61:Core/Src/lcd.c **** 	
 1307              		.loc 1 61 2 view .LVU447
  61:Core/Src/lcd.c **** 	
 1308              		.loc 1 61 50 is_stmt 0 view .LVU448
 1309 00ce 2625     		movs	r5, #38
 1310 00d0 2580     		strh	r5, [r4]	@ movhi
 1311              	.LVL72:
  61:Core/Src/lcd.c **** 	
 1312              		.loc 1 61 50 view .LVU449
 1313              	.LBE578:
 1314              	.LBE577:
 386:Core/Src/lcd.c ****     DEBUG_DELAY ();
 1315              		.loc 1 386 5 is_stmt 1 view .LVU450
 1316              	.LBB579:
 1317              	.LBI579:
  71:Core/Src/lcd.c **** {
 1318              		.loc 1 71 7 view .LVU451
 1319              	.LBB580:
  73:Core/Src/lcd.c **** 	
 1320              		.loc 1 73 2 view .LVU452
  73:Core/Src/lcd.c **** 	
 1321              		.loc 1 73 51 is_stmt 0 view .LVU453
 1322 00d2 4FF0010E 		mov	lr, #1
 1323 00d6 A3F800E0 		strh	lr, [r3]	@ movhi
 1324              	.LVL73:
  73:Core/Src/lcd.c **** 	
 1325              		.loc 1 73 51 view .LVU454
 1326              	.LBE580:
 1327              	.LBE579:
 387:Core/Src/lcd.c ****     
 1328              		.loc 1 387 19 is_stmt 1 view .LVU455
 390:Core/Src/lcd.c ****     ILI9341_Write_Data ( 0x0F );
ARM GAS  C:\Users\84759\AppData\Local\Temp\cc1QWPm5.s 			page 48


 1329              		.loc 1 390 5 view .LVU456
 1330              	.LBB581:
 1331              	.LBI581:
  59:Core/Src/lcd.c **** {
 1332              		.loc 1 59 7 view .LVU457
 1333              	.LBB582:
  61:Core/Src/lcd.c **** 	
 1334              		.loc 1 61 2 view .LVU458
  61:Core/Src/lcd.c **** 	
 1335              		.loc 1 61 50 is_stmt 0 view .LVU459
 1336 00da E021     		movs	r1, #224
 1337 00dc 2180     		strh	r1, [r4]	@ movhi
 1338              	.LVL74:
  61:Core/Src/lcd.c **** 	
 1339              		.loc 1 61 50 view .LVU460
 1340              	.LBE582:
 1341              	.LBE581:
 391:Core/Src/lcd.c ****     ILI9341_Write_Data ( 0x26 );
 1342              		.loc 1 391 5 is_stmt 1 view .LVU461
 1343              	.LBB583:
 1344              	.LBI583:
  71:Core/Src/lcd.c **** {
 1345              		.loc 1 71 7 view .LVU462
 1346              	.LBB584:
  73:Core/Src/lcd.c **** 	
 1347              		.loc 1 73 2 view .LVU463
  73:Core/Src/lcd.c **** 	
 1348              		.loc 1 73 51 is_stmt 0 view .LVU464
 1349 00de 0F21     		movs	r1, #15
 1350 00e0 1980     		strh	r1, [r3]	@ movhi
 1351              	.LVL75:
  73:Core/Src/lcd.c **** 	
 1352              		.loc 1 73 51 view .LVU465
 1353              	.LBE584:
 1354              	.LBE583:
 392:Core/Src/lcd.c ****     ILI9341_Write_Data ( 0x24 );
 1355              		.loc 1 392 5 is_stmt 1 view .LVU466
 1356              	.LBB585:
 1357              	.LBI585:
  71:Core/Src/lcd.c **** {
 1358              		.loc 1 71 7 view .LVU467
 1359              	.LBB586:
  73:Core/Src/lcd.c **** 	
 1360              		.loc 1 73 2 view .LVU468
  73:Core/Src/lcd.c **** 	
 1361              		.loc 1 73 51 is_stmt 0 view .LVU469
 1362 00e2 1D80     		strh	r5, [r3]	@ movhi
 1363              	.LVL76:
  73:Core/Src/lcd.c **** 	
 1364              		.loc 1 73 51 view .LVU470
 1365              	.LBE586:
 1366              	.LBE585:
 393:Core/Src/lcd.c ****     ILI9341_Write_Data ( 0x0B );
 1367              		.loc 1 393 5 is_stmt 1 view .LVU471
 1368              	.LBB587:
 1369              	.LBI587:
  71:Core/Src/lcd.c **** {
ARM GAS  C:\Users\84759\AppData\Local\Temp\cc1QWPm5.s 			page 49


 1370              		.loc 1 71 7 view .LVU472
 1371              	.LBB588:
  73:Core/Src/lcd.c **** 	
 1372              		.loc 1 73 2 view .LVU473
  73:Core/Src/lcd.c **** 	
 1373              		.loc 1 73 51 is_stmt 0 view .LVU474
 1374 00e4 2425     		movs	r5, #36
 1375 00e6 1D80     		strh	r5, [r3]	@ movhi
 1376              	.LVL77:
  73:Core/Src/lcd.c **** 	
 1377              		.loc 1 73 51 view .LVU475
 1378              	.LBE588:
 1379              	.LBE587:
 394:Core/Src/lcd.c ****     ILI9341_Write_Data ( 0x0E );
 1380              		.loc 1 394 5 is_stmt 1 view .LVU476
 1381              	.LBB589:
 1382              	.LBI589:
  71:Core/Src/lcd.c **** {
 1383              		.loc 1 71 7 view .LVU477
 1384              	.LBB590:
  73:Core/Src/lcd.c **** 	
 1385              		.loc 1 73 2 view .LVU478
  73:Core/Src/lcd.c **** 	
 1386              		.loc 1 73 51 is_stmt 0 view .LVU479
 1387 00e8 0B25     		movs	r5, #11
 1388 00ea 1D80     		strh	r5, [r3]	@ movhi
 1389              	.LVL78:
  73:Core/Src/lcd.c **** 	
 1390              		.loc 1 73 51 view .LVU480
 1391              	.LBE590:
 1392              	.LBE589:
 395:Core/Src/lcd.c ****     ILI9341_Write_Data ( 0x09 );
 1393              		.loc 1 395 5 is_stmt 1 view .LVU481
 1394              	.LBB591:
 1395              	.LBI591:
  71:Core/Src/lcd.c **** {
 1396              		.loc 1 71 7 view .LVU482
 1397              	.LBB592:
  73:Core/Src/lcd.c **** 	
 1398              		.loc 1 73 2 view .LVU483
  73:Core/Src/lcd.c **** 	
 1399              		.loc 1 73 51 is_stmt 0 view .LVU484
 1400 00ec 0E25     		movs	r5, #14
 1401 00ee 1D80     		strh	r5, [r3]	@ movhi
 1402              	.LVL79:
  73:Core/Src/lcd.c **** 	
 1403              		.loc 1 73 51 view .LVU485
 1404              	.LBE592:
 1405              	.LBE591:
 396:Core/Src/lcd.c ****     ILI9341_Write_Data ( 0x54 );
 1406              		.loc 1 396 5 is_stmt 1 view .LVU486
 1407              	.LBB593:
 1408              	.LBI593:
  71:Core/Src/lcd.c **** {
 1409              		.loc 1 71 7 view .LVU487
 1410              	.LBB594:
  73:Core/Src/lcd.c **** 	
ARM GAS  C:\Users\84759\AppData\Local\Temp\cc1QWPm5.s 			page 50


 1411              		.loc 1 73 2 view .LVU488
  73:Core/Src/lcd.c **** 	
 1412              		.loc 1 73 51 is_stmt 0 view .LVU489
 1413 00f0 0925     		movs	r5, #9
 1414 00f2 1D80     		strh	r5, [r3]	@ movhi
 1415              	.LVL80:
  73:Core/Src/lcd.c **** 	
 1416              		.loc 1 73 51 view .LVU490
 1417              	.LBE594:
 1418              	.LBE593:
 397:Core/Src/lcd.c ****     ILI9341_Write_Data ( 0xA8 );
 1419              		.loc 1 397 5 is_stmt 1 view .LVU491
 1420              	.LBB595:
 1421              	.LBI595:
  71:Core/Src/lcd.c **** {
 1422              		.loc 1 71 7 view .LVU492
 1423              	.LBB596:
  73:Core/Src/lcd.c **** 	
 1424              		.loc 1 73 2 view .LVU493
  73:Core/Src/lcd.c **** 	
 1425              		.loc 1 73 51 is_stmt 0 view .LVU494
 1426 00f4 4FF0540B 		mov	fp, #84
 1427 00f8 A3F800B0 		strh	fp, [r3]	@ movhi
 1428              	.LVL81:
  73:Core/Src/lcd.c **** 	
 1429              		.loc 1 73 51 view .LVU495
 1430              	.LBE596:
 1431              	.LBE595:
 398:Core/Src/lcd.c ****     ILI9341_Write_Data ( 0x46 );
 1432              		.loc 1 398 5 is_stmt 1 view .LVU496
 1433              	.LBB597:
 1434              	.LBI597:
  71:Core/Src/lcd.c **** {
 1435              		.loc 1 71 7 view .LVU497
 1436              	.LBB598:
  73:Core/Src/lcd.c **** 	
 1437              		.loc 1 73 2 view .LVU498
  73:Core/Src/lcd.c **** 	
 1438              		.loc 1 73 51 is_stmt 0 view .LVU499
 1439 00fc 4FF0A80B 		mov	fp, #168
 1440 0100 A3F800B0 		strh	fp, [r3]	@ movhi
 1441              	.LVL82:
  73:Core/Src/lcd.c **** 	
 1442              		.loc 1 73 51 view .LVU500
 1443              	.LBE598:
 1444              	.LBE597:
 399:Core/Src/lcd.c ****     ILI9341_Write_Data ( 0x0C );
 1445              		.loc 1 399 5 is_stmt 1 view .LVU501
 1446              	.LBB599:
 1447              	.LBI599:
  71:Core/Src/lcd.c **** {
 1448              		.loc 1 71 7 view .LVU502
 1449              	.LBB600:
  73:Core/Src/lcd.c **** 	
 1450              		.loc 1 73 2 view .LVU503
  73:Core/Src/lcd.c **** 	
 1451              		.loc 1 73 51 is_stmt 0 view .LVU504
ARM GAS  C:\Users\84759\AppData\Local\Temp\cc1QWPm5.s 			page 51


 1452 0104 4FF0460B 		mov	fp, #70
 1453 0108 A3F800B0 		strh	fp, [r3]	@ movhi
 1454              	.LVL83:
  73:Core/Src/lcd.c **** 	
 1455              		.loc 1 73 51 view .LVU505
 1456              	.LBE600:
 1457              	.LBE599:
 400:Core/Src/lcd.c ****     ILI9341_Write_Data ( 0x17 );
 1458              		.loc 1 400 5 is_stmt 1 view .LVU506
 1459              	.LBB601:
 1460              	.LBI601:
  71:Core/Src/lcd.c **** {
 1461              		.loc 1 71 7 view .LVU507
 1462              	.LBB602:
  73:Core/Src/lcd.c **** 	
 1463              		.loc 1 73 2 view .LVU508
  73:Core/Src/lcd.c **** 	
 1464              		.loc 1 73 51 is_stmt 0 view .LVU509
 1465 010c 4FF00C0B 		mov	fp, #12
 1466 0110 A3F800B0 		strh	fp, [r3]	@ movhi
 1467              	.LVL84:
  73:Core/Src/lcd.c **** 	
 1468              		.loc 1 73 51 view .LVU510
 1469              	.LBE602:
 1470              	.LBE601:
 401:Core/Src/lcd.c ****     ILI9341_Write_Data ( 0x09 );
 1471              		.loc 1 401 5 is_stmt 1 view .LVU511
 1472              	.LBB603:
 1473              	.LBI603:
  71:Core/Src/lcd.c **** {
 1474              		.loc 1 71 7 view .LVU512
 1475              	.LBB604:
  73:Core/Src/lcd.c **** 	
 1476              		.loc 1 73 2 view .LVU513
  73:Core/Src/lcd.c **** 	
 1477              		.loc 1 73 51 is_stmt 0 view .LVU514
 1478 0114 4FF0170B 		mov	fp, #23
 1479 0118 A3F800B0 		strh	fp, [r3]	@ movhi
 1480              	.LVL85:
  73:Core/Src/lcd.c **** 	
 1481              		.loc 1 73 51 view .LVU515
 1482              	.LBE604:
 1483              	.LBE603:
 402:Core/Src/lcd.c ****     ILI9341_Write_Data ( 0x0F );
 1484              		.loc 1 402 5 is_stmt 1 view .LVU516
 1485              	.LBB605:
 1486              	.LBI605:
  71:Core/Src/lcd.c **** {
 1487              		.loc 1 71 7 view .LVU517
 1488              	.LBB606:
  73:Core/Src/lcd.c **** 	
 1489              		.loc 1 73 2 view .LVU518
  73:Core/Src/lcd.c **** 	
 1490              		.loc 1 73 51 is_stmt 0 view .LVU519
 1491 011c 1D80     		strh	r5, [r3]	@ movhi
 1492              	.LVL86:
  73:Core/Src/lcd.c **** 	
ARM GAS  C:\Users\84759\AppData\Local\Temp\cc1QWPm5.s 			page 52


 1493              		.loc 1 73 51 view .LVU520
 1494              	.LBE606:
 1495              	.LBE605:
 403:Core/Src/lcd.c ****     ILI9341_Write_Data ( 0x07 );
 1496              		.loc 1 403 5 is_stmt 1 view .LVU521
 1497              	.LBB607:
 1498              	.LBI607:
  71:Core/Src/lcd.c **** {
 1499              		.loc 1 71 7 view .LVU522
 1500              	.LBB608:
  73:Core/Src/lcd.c **** 	
 1501              		.loc 1 73 2 view .LVU523
  73:Core/Src/lcd.c **** 	
 1502              		.loc 1 73 51 is_stmt 0 view .LVU524
 1503 011e 1980     		strh	r1, [r3]	@ movhi
 1504              	.LVL87:
  73:Core/Src/lcd.c **** 	
 1505              		.loc 1 73 51 view .LVU525
 1506              	.LBE608:
 1507              	.LBE607:
 404:Core/Src/lcd.c ****     ILI9341_Write_Data ( 0x00 );
 1508              		.loc 1 404 5 is_stmt 1 view .LVU526
 1509              	.LBB609:
 1510              	.LBI609:
  71:Core/Src/lcd.c **** {
 1511              		.loc 1 71 7 view .LVU527
 1512              	.LBB610:
  73:Core/Src/lcd.c **** 	
 1513              		.loc 1 73 2 view .LVU528
  73:Core/Src/lcd.c **** 	
 1514              		.loc 1 73 51 is_stmt 0 view .LVU529
 1515 0120 0725     		movs	r5, #7
 1516 0122 1D80     		strh	r5, [r3]	@ movhi
 1517              	.LVL88:
  73:Core/Src/lcd.c **** 	
 1518              		.loc 1 73 51 view .LVU530
 1519              	.LBE610:
 1520              	.LBE609:
 405:Core/Src/lcd.c ****     
 1521              		.loc 1 405 5 is_stmt 1 view .LVU531
 1522              	.LBB611:
 1523              	.LBI611:
  71:Core/Src/lcd.c **** {
 1524              		.loc 1 71 7 view .LVU532
 1525              	.LBB612:
  73:Core/Src/lcd.c **** 	
 1526              		.loc 1 73 2 view .LVU533
  73:Core/Src/lcd.c **** 	
 1527              		.loc 1 73 51 is_stmt 0 view .LVU534
 1528 0124 1A80     		strh	r2, [r3]	@ movhi
 1529              	.LVL89:
  73:Core/Src/lcd.c **** 	
 1530              		.loc 1 73 51 view .LVU535
 1531              	.LBE612:
 1532              	.LBE611:
 408:Core/Src/lcd.c ****     ILI9341_Write_Data ( 0x00 );
 1533              		.loc 1 408 5 is_stmt 1 view .LVU536
ARM GAS  C:\Users\84759\AppData\Local\Temp\cc1QWPm5.s 			page 53


 1534              	.LBB613:
 1535              	.LBI613:
  59:Core/Src/lcd.c **** {
 1536              		.loc 1 59 7 view .LVU537
 1537              	.LBB614:
  61:Core/Src/lcd.c **** 	
 1538              		.loc 1 61 2 view .LVU538
  61:Core/Src/lcd.c **** 	
 1539              		.loc 1 61 50 is_stmt 0 view .LVU539
 1540 0126 4FF0E10B 		mov	fp, #225
 1541 012a A4F800B0 		strh	fp, [r4]	@ movhi
 1542              	.LVL90:
  61:Core/Src/lcd.c **** 	
 1543              		.loc 1 61 50 view .LVU540
 1544              	.LBE614:
 1545              	.LBE613:
 409:Core/Src/lcd.c ****     ILI9341_Write_Data ( 0x19 );
 1546              		.loc 1 409 5 is_stmt 1 view .LVU541
 1547              	.LBB615:
 1548              	.LBI615:
  71:Core/Src/lcd.c **** {
 1549              		.loc 1 71 7 view .LVU542
 1550              	.LBB616:
  73:Core/Src/lcd.c **** 	
 1551              		.loc 1 73 2 view .LVU543
  73:Core/Src/lcd.c **** 	
 1552              		.loc 1 73 51 is_stmt 0 view .LVU544
 1553 012e 1A80     		strh	r2, [r3]	@ movhi
 1554              	.LVL91:
  73:Core/Src/lcd.c **** 	
 1555              		.loc 1 73 51 view .LVU545
 1556              	.LBE616:
 1557              	.LBE615:
 410:Core/Src/lcd.c ****     ILI9341_Write_Data ( 0x1B );
 1558              		.loc 1 410 5 is_stmt 1 view .LVU546
 1559              	.LBB617:
 1560              	.LBI617:
  71:Core/Src/lcd.c **** {
 1561              		.loc 1 71 7 view .LVU547
 1562              	.LBB618:
  73:Core/Src/lcd.c **** 	
 1563              		.loc 1 73 2 view .LVU548
  73:Core/Src/lcd.c **** 	
 1564              		.loc 1 73 51 is_stmt 0 view .LVU549
 1565 0130 4FF0190B 		mov	fp, #25
 1566 0134 A3F800B0 		strh	fp, [r3]	@ movhi
 1567              	.LVL92:
  73:Core/Src/lcd.c **** 	
 1568              		.loc 1 73 51 view .LVU550
 1569              	.LBE618:
 1570              	.LBE617:
 411:Core/Src/lcd.c ****     ILI9341_Write_Data ( 0x04 );
 1571              		.loc 1 411 5 is_stmt 1 view .LVU551
 1572              	.LBB619:
 1573              	.LBI619:
  71:Core/Src/lcd.c **** {
 1574              		.loc 1 71 7 view .LVU552
ARM GAS  C:\Users\84759\AppData\Local\Temp\cc1QWPm5.s 			page 54


 1575              	.LBB620:
  73:Core/Src/lcd.c **** 	
 1576              		.loc 1 73 2 view .LVU553
  73:Core/Src/lcd.c **** 	
 1577              		.loc 1 73 51 is_stmt 0 view .LVU554
 1578 0138 A3F800A0 		strh	r10, [r3]	@ movhi
 1579              	.LVL93:
  73:Core/Src/lcd.c **** 	
 1580              		.loc 1 73 51 view .LVU555
 1581              	.LBE620:
 1582              	.LBE619:
 412:Core/Src/lcd.c ****     ILI9341_Write_Data ( 0x10 );
 1583              		.loc 1 412 5 is_stmt 1 view .LVU556
 1584              	.LBB621:
 1585              	.LBI621:
  71:Core/Src/lcd.c **** {
 1586              		.loc 1 71 7 view .LVU557
 1587              	.LBB622:
  73:Core/Src/lcd.c **** 	
 1588              		.loc 1 73 2 view .LVU558
  73:Core/Src/lcd.c **** 	
 1589              		.loc 1 73 51 is_stmt 0 view .LVU559
 1590 013c 4FF0040A 		mov	r10, #4
 1591 0140 A3F800A0 		strh	r10, [r3]	@ movhi
 1592              	.LVL94:
  73:Core/Src/lcd.c **** 	
 1593              		.loc 1 73 51 view .LVU560
 1594              	.LBE622:
 1595              	.LBE621:
 413:Core/Src/lcd.c ****     ILI9341_Write_Data ( 0x07 );
 1596              		.loc 1 413 5 is_stmt 1 view .LVU561
 1597              	.LBB623:
 1598              	.LBI623:
  71:Core/Src/lcd.c **** {
 1599              		.loc 1 71 7 view .LVU562
 1600              	.LBB624:
  73:Core/Src/lcd.c **** 	
 1601              		.loc 1 73 2 view .LVU563
  73:Core/Src/lcd.c **** 	
 1602              		.loc 1 73 51 is_stmt 0 view .LVU564
 1603 0144 A3F80090 		strh	r9, [r3]	@ movhi
 1604              	.LVL95:
  73:Core/Src/lcd.c **** 	
 1605              		.loc 1 73 51 view .LVU565
 1606              	.LBE624:
 1607              	.LBE623:
 414:Core/Src/lcd.c ****     ILI9341_Write_Data ( 0x2A );
 1608              		.loc 1 414 5 is_stmt 1 view .LVU566
 1609              	.LBB625:
 1610              	.LBI625:
  71:Core/Src/lcd.c **** {
 1611              		.loc 1 71 7 view .LVU567
 1612              	.LBB626:
  73:Core/Src/lcd.c **** 	
 1613              		.loc 1 73 2 view .LVU568
  73:Core/Src/lcd.c **** 	
 1614              		.loc 1 73 51 is_stmt 0 view .LVU569
ARM GAS  C:\Users\84759\AppData\Local\Temp\cc1QWPm5.s 			page 55


 1615 0148 1D80     		strh	r5, [r3]	@ movhi
 1616              	.LVL96:
  73:Core/Src/lcd.c **** 	
 1617              		.loc 1 73 51 view .LVU570
 1618              	.LBE626:
 1619              	.LBE625:
 415:Core/Src/lcd.c ****     ILI9341_Write_Data ( 0x47 );
 1620              		.loc 1 415 5 is_stmt 1 view .LVU571
 1621              	.LBB627:
 1622              	.LBI627:
  71:Core/Src/lcd.c **** {
 1623              		.loc 1 71 7 view .LVU572
 1624              	.LBB628:
  73:Core/Src/lcd.c **** 	
 1625              		.loc 1 73 2 view .LVU573
  73:Core/Src/lcd.c **** 	
 1626              		.loc 1 73 51 is_stmt 0 view .LVU574
 1627 014a 2A25     		movs	r5, #42
 1628 014c 1D80     		strh	r5, [r3]	@ movhi
 1629              	.LVL97:
  73:Core/Src/lcd.c **** 	
 1630              		.loc 1 73 51 view .LVU575
 1631              	.LBE628:
 1632              	.LBE627:
 416:Core/Src/lcd.c ****     ILI9341_Write_Data ( 0x39 );
 1633              		.loc 1 416 5 is_stmt 1 view .LVU576
 1634              	.LBB629:
 1635              	.LBI629:
  71:Core/Src/lcd.c **** {
 1636              		.loc 1 71 7 view .LVU577
 1637              	.LBB630:
  73:Core/Src/lcd.c **** 	
 1638              		.loc 1 73 2 view .LVU578
  73:Core/Src/lcd.c **** 	
 1639              		.loc 1 73 51 is_stmt 0 view .LVU579
 1640 014e 4FF04709 		mov	r9, #71
 1641 0152 A3F80090 		strh	r9, [r3]	@ movhi
 1642              	.LVL98:
  73:Core/Src/lcd.c **** 	
 1643              		.loc 1 73 51 view .LVU580
 1644              	.LBE630:
 1645              	.LBE629:
 417:Core/Src/lcd.c ****     ILI9341_Write_Data ( 0x03 );
 1646              		.loc 1 417 5 is_stmt 1 view .LVU581
 1647              	.LBB631:
 1648              	.LBI631:
  71:Core/Src/lcd.c **** {
 1649              		.loc 1 71 7 view .LVU582
 1650              	.LBB632:
  73:Core/Src/lcd.c **** 	
 1651              		.loc 1 73 2 view .LVU583
  73:Core/Src/lcd.c **** 	
 1652              		.loc 1 73 51 is_stmt 0 view .LVU584
 1653 0156 A3F80080 		strh	r8, [r3]	@ movhi
 1654              	.LVL99:
  73:Core/Src/lcd.c **** 	
 1655              		.loc 1 73 51 view .LVU585
ARM GAS  C:\Users\84759\AppData\Local\Temp\cc1QWPm5.s 			page 56


 1656              	.LBE632:
 1657              	.LBE631:
 418:Core/Src/lcd.c ****     ILI9341_Write_Data ( 0x06 );
 1658              		.loc 1 418 5 is_stmt 1 view .LVU586
 1659              	.LBB633:
 1660              	.LBI633:
  71:Core/Src/lcd.c **** {
 1661              		.loc 1 71 7 view .LVU587
 1662              	.LBB634:
  73:Core/Src/lcd.c **** 	
 1663              		.loc 1 73 2 view .LVU588
  73:Core/Src/lcd.c **** 	
 1664              		.loc 1 73 51 is_stmt 0 view .LVU589
 1665 015a 1F80     		strh	r7, [r3]	@ movhi
 1666              	.LVL100:
  73:Core/Src/lcd.c **** 	
 1667              		.loc 1 73 51 view .LVU590
 1668              	.LBE634:
 1669              	.LBE633:
 419:Core/Src/lcd.c ****     ILI9341_Write_Data ( 0x06 );
 1670              		.loc 1 419 5 is_stmt 1 view .LVU591
 1671              	.LBB635:
 1672              	.LBI635:
  71:Core/Src/lcd.c **** {
 1673              		.loc 1 71 7 view .LVU592
 1674              	.LBB636:
  73:Core/Src/lcd.c **** 	
 1675              		.loc 1 73 2 view .LVU593
  73:Core/Src/lcd.c **** 	
 1676              		.loc 1 73 51 is_stmt 0 view .LVU594
 1677 015c 1880     		strh	r0, [r3]	@ movhi
 1678              	.LVL101:
  73:Core/Src/lcd.c **** 	
 1679              		.loc 1 73 51 view .LVU595
 1680              	.LBE636:
 1681              	.LBE635:
 420:Core/Src/lcd.c ****     ILI9341_Write_Data ( 0x30 );
 1682              		.loc 1 420 5 is_stmt 1 view .LVU596
 1683              	.LBB637:
 1684              	.LBI637:
  71:Core/Src/lcd.c **** {
 1685              		.loc 1 71 7 view .LVU597
 1686              	.LBB638:
  73:Core/Src/lcd.c **** 	
 1687              		.loc 1 73 2 view .LVU598
  73:Core/Src/lcd.c **** 	
 1688              		.loc 1 73 51 is_stmt 0 view .LVU599
 1689 015e 1880     		strh	r0, [r3]	@ movhi
 1690              	.LVL102:
  73:Core/Src/lcd.c **** 	
 1691              		.loc 1 73 51 view .LVU600
 1692              	.LBE638:
 1693              	.LBE637:
 421:Core/Src/lcd.c ****     ILI9341_Write_Data ( 0x38 );
 1694              		.loc 1 421 5 is_stmt 1 view .LVU601
 1695              	.LBB639:
 1696              	.LBI639:
ARM GAS  C:\Users\84759\AppData\Local\Temp\cc1QWPm5.s 			page 57


  71:Core/Src/lcd.c **** {
 1697              		.loc 1 71 7 view .LVU602
 1698              	.LBB640:
  73:Core/Src/lcd.c **** 	
 1699              		.loc 1 73 2 view .LVU603
  73:Core/Src/lcd.c **** 	
 1700              		.loc 1 73 51 is_stmt 0 view .LVU604
 1701 0160 1E80     		strh	r6, [r3]	@ movhi
 1702              	.LVL103:
  73:Core/Src/lcd.c **** 	
 1703              		.loc 1 73 51 view .LVU605
 1704              	.LBE640:
 1705              	.LBE639:
 422:Core/Src/lcd.c ****     ILI9341_Write_Data ( 0x0F );
 1706              		.loc 1 422 5 is_stmt 1 view .LVU606
 1707              	.LBB641:
 1708              	.LBI641:
  71:Core/Src/lcd.c **** {
 1709              		.loc 1 71 7 view .LVU607
 1710              	.LBB642:
  73:Core/Src/lcd.c **** 	
 1711              		.loc 1 73 2 view .LVU608
  73:Core/Src/lcd.c **** 	
 1712              		.loc 1 73 51 is_stmt 0 view .LVU609
 1713 0162 3820     		movs	r0, #56
 1714 0164 1880     		strh	r0, [r3]	@ movhi
 1715              	.LVL104:
  73:Core/Src/lcd.c **** 	
 1716              		.loc 1 73 51 view .LVU610
 1717              	.LBE642:
 1718              	.LBE641:
 423:Core/Src/lcd.c ****     
 1719              		.loc 1 423 5 is_stmt 1 view .LVU611
 1720              	.LBB643:
 1721              	.LBI643:
  71:Core/Src/lcd.c **** {
 1722              		.loc 1 71 7 view .LVU612
 1723              	.LBB644:
  73:Core/Src/lcd.c **** 	
 1724              		.loc 1 73 2 view .LVU613
  73:Core/Src/lcd.c **** 	
 1725              		.loc 1 73 51 is_stmt 0 view .LVU614
 1726 0166 1980     		strh	r1, [r3]	@ movhi
 1727              	.LVL105:
  73:Core/Src/lcd.c **** 	
 1728              		.loc 1 73 51 view .LVU615
 1729              	.LBE644:
 1730              	.LBE643:
 426:Core/Src/lcd.c ****     ILI9341_Write_Cmd ( 0x36 ); 	
 1731              		.loc 1 426 19 is_stmt 1 view .LVU616
 427:Core/Src/lcd.c ****     ILI9341_Write_Data ( 0xC8 );    /*ĘúĆÁ  ×óÉĎ˝Çµ˝ (Ćđµă)µ˝ÓŇĎÂ˝Ç (ÖŐµă)É¨Ăč·˝Ę˝*/
 1732              		.loc 1 427 5 view .LVU617
 1733              	.LBB645:
 1734              	.LBI645:
  59:Core/Src/lcd.c **** {
 1735              		.loc 1 59 7 view .LVU618
 1736              	.LBB646:
ARM GAS  C:\Users\84759\AppData\Local\Temp\cc1QWPm5.s 			page 58


  61:Core/Src/lcd.c **** 	
 1737              		.loc 1 61 2 view .LVU619
  61:Core/Src/lcd.c **** 	
 1738              		.loc 1 61 50 is_stmt 0 view .LVU620
 1739 0168 3621     		movs	r1, #54
 1740 016a 2180     		strh	r1, [r4]	@ movhi
 1741              	.LVL106:
  61:Core/Src/lcd.c **** 	
 1742              		.loc 1 61 50 view .LVU621
 1743              	.LBE646:
 1744              	.LBE645:
 428:Core/Src/lcd.c ****     DEBUG_DELAY ();
 1745              		.loc 1 428 5 is_stmt 1 view .LVU622
 1746              	.LBB647:
 1747              	.LBI647:
  71:Core/Src/lcd.c **** {
 1748              		.loc 1 71 7 view .LVU623
 1749              	.LBB648:
  73:Core/Src/lcd.c **** 	
 1750              		.loc 1 73 2 view .LVU624
  73:Core/Src/lcd.c **** 	
 1751              		.loc 1 73 51 is_stmt 0 view .LVU625
 1752 016c C821     		movs	r1, #200
 1753 016e 1980     		strh	r1, [r3]	@ movhi
 1754              	.LVL107:
  73:Core/Src/lcd.c **** 	
 1755              		.loc 1 73 51 view .LVU626
 1756              	.LBE648:
 1757              	.LBE647:
 429:Core/Src/lcd.c ****     
 1758              		.loc 1 429 19 is_stmt 1 view .LVU627
 432:Core/Src/lcd.c ****     ILI9341_Write_Data ( 0x00 );
 1759              		.loc 1 432 5 view .LVU628
 1760              	.LBB649:
 1761              	.LBI649:
  59:Core/Src/lcd.c **** {
 1762              		.loc 1 59 7 view .LVU629
 1763              	.LBB650:
  61:Core/Src/lcd.c **** 	
 1764              		.loc 1 61 2 view .LVU630
  61:Core/Src/lcd.c **** 	
 1765              		.loc 1 61 50 is_stmt 0 view .LVU631
 1766 0170 2580     		strh	r5, [r4]	@ movhi
 1767              	.LVL108:
  61:Core/Src/lcd.c **** 	
 1768              		.loc 1 61 50 view .LVU632
 1769              	.LBE650:
 1770              	.LBE649:
 433:Core/Src/lcd.c ****     ILI9341_Write_Data ( 0x00 );
 1771              		.loc 1 433 5 is_stmt 1 view .LVU633
 1772              	.LBB651:
 1773              	.LBI651:
  71:Core/Src/lcd.c **** {
 1774              		.loc 1 71 7 view .LVU634
 1775              	.LBB652:
  73:Core/Src/lcd.c **** 	
 1776              		.loc 1 73 2 view .LVU635
ARM GAS  C:\Users\84759\AppData\Local\Temp\cc1QWPm5.s 			page 59


  73:Core/Src/lcd.c **** 	
 1777              		.loc 1 73 51 is_stmt 0 view .LVU636
 1778 0172 1A80     		strh	r2, [r3]	@ movhi
 1779              	.LVL109:
  73:Core/Src/lcd.c **** 	
 1780              		.loc 1 73 51 view .LVU637
 1781              	.LBE652:
 1782              	.LBE651:
 434:Core/Src/lcd.c ****     ILI9341_Write_Data ( 0x00 );
 1783              		.loc 1 434 5 is_stmt 1 view .LVU638
 1784              	.LBB653:
 1785              	.LBI653:
  71:Core/Src/lcd.c **** {
 1786              		.loc 1 71 7 view .LVU639
 1787              	.LBB654:
  73:Core/Src/lcd.c **** 	
 1788              		.loc 1 73 2 view .LVU640
  73:Core/Src/lcd.c **** 	
 1789              		.loc 1 73 51 is_stmt 0 view .LVU641
 1790 0174 1A80     		strh	r2, [r3]	@ movhi
 1791              	.LVL110:
  73:Core/Src/lcd.c **** 	
 1792              		.loc 1 73 51 view .LVU642
 1793              	.LBE654:
 1794              	.LBE653:
 435:Core/Src/lcd.c ****     ILI9341_Write_Data ( 0xEF );
 1795              		.loc 1 435 5 is_stmt 1 view .LVU643
 1796              	.LBB655:
 1797              	.LBI655:
  71:Core/Src/lcd.c **** {
 1798              		.loc 1 71 7 view .LVU644
 1799              	.LBB656:
  73:Core/Src/lcd.c **** 	
 1800              		.loc 1 73 2 view .LVU645
  73:Core/Src/lcd.c **** 	
 1801              		.loc 1 73 51 is_stmt 0 view .LVU646
 1802 0176 1A80     		strh	r2, [r3]	@ movhi
 1803              	.LVL111:
  73:Core/Src/lcd.c **** 	
 1804              		.loc 1 73 51 view .LVU647
 1805              	.LBE656:
 1806              	.LBE655:
 436:Core/Src/lcd.c ****     
 1807              		.loc 1 436 5 is_stmt 1 view .LVU648
 1808              	.LBB657:
 1809              	.LBI657:
  71:Core/Src/lcd.c **** {
 1810              		.loc 1 71 7 view .LVU649
 1811              	.LBB658:
  73:Core/Src/lcd.c **** 	
 1812              		.loc 1 73 2 view .LVU650
  73:Core/Src/lcd.c **** 	
 1813              		.loc 1 73 51 is_stmt 0 view .LVU651
 1814 0178 EF21     		movs	r1, #239
 1815 017a 1980     		strh	r1, [r3]	@ movhi
 1816              	.LVL112:
  73:Core/Src/lcd.c **** 	
ARM GAS  C:\Users\84759\AppData\Local\Temp\cc1QWPm5.s 			page 60


 1817              		.loc 1 73 51 view .LVU652
 1818              	.LBE658:
 1819              	.LBE657:
 439:Core/Src/lcd.c ****     ILI9341_Write_Cmd ( CMD_SetCoordinateY ); 
 1820              		.loc 1 439 19 is_stmt 1 view .LVU653
 440:Core/Src/lcd.c ****     ILI9341_Write_Data ( 0x00 );
 1821              		.loc 1 440 5 view .LVU654
 1822              	.LBB659:
 1823              	.LBI659:
  59:Core/Src/lcd.c **** {
 1824              		.loc 1 59 7 view .LVU655
 1825              	.LBB660:
  61:Core/Src/lcd.c **** 	
 1826              		.loc 1 61 2 view .LVU656
  61:Core/Src/lcd.c **** 	
 1827              		.loc 1 61 50 is_stmt 0 view .LVU657
 1828 017c 2B21     		movs	r1, #43
 1829 017e 2180     		strh	r1, [r4]	@ movhi
 1830              	.LVL113:
  61:Core/Src/lcd.c **** 	
 1831              		.loc 1 61 50 view .LVU658
 1832              	.LBE660:
 1833              	.LBE659:
 441:Core/Src/lcd.c ****     ILI9341_Write_Data ( 0x00 );
 1834              		.loc 1 441 5 is_stmt 1 view .LVU659
 1835              	.LBB661:
 1836              	.LBI661:
  71:Core/Src/lcd.c **** {
 1837              		.loc 1 71 7 view .LVU660
 1838              	.LBB662:
  73:Core/Src/lcd.c **** 	
 1839              		.loc 1 73 2 view .LVU661
  73:Core/Src/lcd.c **** 	
 1840              		.loc 1 73 51 is_stmt 0 view .LVU662
 1841 0180 1A80     		strh	r2, [r3]	@ movhi
 1842              	.LVL114:
  73:Core/Src/lcd.c **** 	
 1843              		.loc 1 73 51 view .LVU663
 1844              	.LBE662:
 1845              	.LBE661:
 442:Core/Src/lcd.c ****     ILI9341_Write_Data ( 0x01 );
 1846              		.loc 1 442 5 is_stmt 1 view .LVU664
 1847              	.LBB663:
 1848              	.LBI663:
  71:Core/Src/lcd.c **** {
 1849              		.loc 1 71 7 view .LVU665
 1850              	.LBB664:
  73:Core/Src/lcd.c **** 	
 1851              		.loc 1 73 2 view .LVU666
  73:Core/Src/lcd.c **** 	
 1852              		.loc 1 73 51 is_stmt 0 view .LVU667
 1853 0182 1A80     		strh	r2, [r3]	@ movhi
 1854              	.LVL115:
  73:Core/Src/lcd.c **** 	
 1855              		.loc 1 73 51 view .LVU668
 1856              	.LBE664:
 1857              	.LBE663:
ARM GAS  C:\Users\84759\AppData\Local\Temp\cc1QWPm5.s 			page 61


 443:Core/Src/lcd.c ****     ILI9341_Write_Data ( 0x3F );
 1858              		.loc 1 443 5 is_stmt 1 view .LVU669
 1859              	.LBB665:
 1860              	.LBI665:
  71:Core/Src/lcd.c **** {
 1861              		.loc 1 71 7 view .LVU670
 1862              	.LBB666:
  73:Core/Src/lcd.c **** 	
 1863              		.loc 1 73 2 view .LVU671
  73:Core/Src/lcd.c **** 	
 1864              		.loc 1 73 51 is_stmt 0 view .LVU672
 1865 0184 A3F800E0 		strh	lr, [r3]	@ movhi
 1866              	.LVL116:
  73:Core/Src/lcd.c **** 	
 1867              		.loc 1 73 51 view .LVU673
 1868              	.LBE666:
 1869              	.LBE665:
 444:Core/Src/lcd.c ****     
 1870              		.loc 1 444 5 is_stmt 1 view .LVU674
 1871              	.LBB667:
 1872              	.LBI667:
  71:Core/Src/lcd.c **** {
 1873              		.loc 1 71 7 view .LVU675
 1874              	.LBB668:
  73:Core/Src/lcd.c **** 	
 1875              		.loc 1 73 2 view .LVU676
  73:Core/Src/lcd.c **** 	
 1876              		.loc 1 73 51 is_stmt 0 view .LVU677
 1877 0188 3F22     		movs	r2, #63
 1878 018a 1A80     		strh	r2, [r3]	@ movhi
 1879              	.LVL117:
  73:Core/Src/lcd.c **** 	
 1880              		.loc 1 73 51 view .LVU678
 1881              	.LBE668:
 1882              	.LBE667:
 447:Core/Src/lcd.c ****     ILI9341_Write_Cmd ( 0x3a ); 
 1883              		.loc 1 447 19 is_stmt 1 view .LVU679
 448:Core/Src/lcd.c ****     ILI9341_Write_Data ( 0x55 );
 1884              		.loc 1 448 5 view .LVU680
 1885              	.LBB669:
 1886              	.LBI669:
  59:Core/Src/lcd.c **** {
 1887              		.loc 1 59 7 view .LVU681
 1888              	.LBB670:
  61:Core/Src/lcd.c **** 	
 1889              		.loc 1 61 2 view .LVU682
  61:Core/Src/lcd.c **** 	
 1890              		.loc 1 61 50 is_stmt 0 view .LVU683
 1891 018c 3A22     		movs	r2, #58
 1892 018e 2280     		strh	r2, [r4]	@ movhi
 1893              	.LVL118:
  61:Core/Src/lcd.c **** 	
 1894              		.loc 1 61 50 view .LVU684
 1895              	.LBE670:
 1896              	.LBE669:
 449:Core/Src/lcd.c ****     
 1897              		.loc 1 449 5 is_stmt 1 view .LVU685
ARM GAS  C:\Users\84759\AppData\Local\Temp\cc1QWPm5.s 			page 62


 1898              	.LBB671:
 1899              	.LBI671:
  71:Core/Src/lcd.c **** {
 1900              		.loc 1 71 7 view .LVU686
 1901              	.LBB672:
  73:Core/Src/lcd.c **** 	
 1902              		.loc 1 73 2 view .LVU687
  73:Core/Src/lcd.c **** 	
 1903              		.loc 1 73 51 is_stmt 0 view .LVU688
 1904 0190 5522     		movs	r2, #85
 1905 0192 1A80     		strh	r2, [r3]	@ movhi
 1906              	.LVL119:
  73:Core/Src/lcd.c **** 	
 1907              		.loc 1 73 51 view .LVU689
 1908              	.LBE672:
 1909              	.LBE671:
 452:Core/Src/lcd.c ****     ILI9341_Delay ( 0xAFFf<<2 );
 1910              		.loc 1 452 5 is_stmt 1 view .LVU690
 1911              	.LBB673:
 1912              	.LBI673:
  59:Core/Src/lcd.c **** {
 1913              		.loc 1 59 7 view .LVU691
 1914              	.LBB674:
  61:Core/Src/lcd.c **** 	
 1915              		.loc 1 61 2 view .LVU692
  61:Core/Src/lcd.c **** 	
 1916              		.loc 1 61 50 is_stmt 0 view .LVU693
 1917 0194 A4F800C0 		strh	ip, [r4]	@ movhi
 1918              	.LVL120:
  61:Core/Src/lcd.c **** 	
 1919              		.loc 1 61 50 view .LVU694
 1920              	.LBE674:
 1921              	.LBE673:
 453:Core/Src/lcd.c ****     DEBUG_DELAY ();
 1922              		.loc 1 453 5 is_stmt 1 view .LVU695
 1923 0198 0348     		ldr	r0, .L30+4
 1924 019a FFF7FEFF 		bl	ILI9341_Delay
 1925              	.LVL121:
 454:Core/Src/lcd.c ****     
 1926              		.loc 1 454 19 view .LVU696
 457:Core/Src/lcd.c **** 	}
 1927              		.loc 1 457 5 view .LVU697
 1928              	.LBB675:
 1929              	.LBI675:
  59:Core/Src/lcd.c **** {
 1930              		.loc 1 59 7 view .LVU698
 1931              	.LBB676:
  61:Core/Src/lcd.c **** 	
 1932              		.loc 1 61 2 view .LVU699
  61:Core/Src/lcd.c **** 	
 1933              		.loc 1 61 50 is_stmt 0 view .LVU700
 1934 019e 2923     		movs	r3, #41
 1935 01a0 2380     		strh	r3, [r4]	@ movhi
  63:Core/Src/lcd.c **** 
 1936              		.loc 1 63 1 view .LVU701
 1937 01a2 3CE7     		b	.L24
 1938              	.L31:
ARM GAS  C:\Users\84759\AppData\Local\Temp\cc1QWPm5.s 			page 63


 1939              		.align	2
 1940              	.L30:
 1941 01a4 00000000 		.word	.LANCHOR2
 1942 01a8 FCBF0200 		.word	180220
 1943              	.LVL122:
 1944              	.L29:
  63:Core/Src/lcd.c **** 
 1945              		.loc 1 63 1 view .LVU702
 1946              	.LBE676:
 1947              	.LBE675:
 463:Core/Src/lcd.c ****     ILI9341_Write_Cmd ( 0xCF  );
 1948              		.loc 1 463 20 is_stmt 1 view .LVU703
 464:Core/Src/lcd.c ****     ILI9341_Write_Data ( 0x00  );
 1949              		.loc 1 464 5 view .LVU704
 1950              	.LBB677:
 1951              	.LBI677:
  59:Core/Src/lcd.c **** {
 1952              		.loc 1 59 7 view .LVU705
 1953              	.LBB678:
  61:Core/Src/lcd.c **** 	
 1954              		.loc 1 61 2 view .LVU706
  61:Core/Src/lcd.c **** 	
 1955              		.loc 1 61 50 is_stmt 0 view .LVU707
 1956 01ac 4FF0D844 		mov	r4, #1811939328
 1957 01b0 CF23     		movs	r3, #207
 1958 01b2 2380     		strh	r3, [r4]	@ movhi
 1959              	.LVL123:
  61:Core/Src/lcd.c **** 	
 1960              		.loc 1 61 50 view .LVU708
 1961              	.LBE678:
 1962              	.LBE677:
 465:Core/Src/lcd.c ****     ILI9341_Write_Data ( 0xC1  );
 1963              		.loc 1 465 5 is_stmt 1 view .LVU709
 1964              	.LBB679:
 1965              	.LBI679:
  71:Core/Src/lcd.c **** {
 1966              		.loc 1 71 7 view .LVU710
 1967              	.LBB680:
  73:Core/Src/lcd.c **** 	
 1968              		.loc 1 73 2 view .LVU711
  73:Core/Src/lcd.c **** 	
 1969              		.loc 1 73 51 is_stmt 0 view .LVU712
 1970 01b4 4FF0DA43 		mov	r3, #1828716544
 1971 01b8 0022     		movs	r2, #0
 1972 01ba 1A80     		strh	r2, [r3]	@ movhi
 1973              	.LVL124:
  73:Core/Src/lcd.c **** 	
 1974              		.loc 1 73 51 view .LVU713
 1975              	.LBE680:
 1976              	.LBE679:
 466:Core/Src/lcd.c ****     ILI9341_Write_Data ( 0x30  );
 1977              		.loc 1 466 5 is_stmt 1 view .LVU714
 1978              	.LBB681:
 1979              	.LBI681:
  71:Core/Src/lcd.c **** {
 1980              		.loc 1 71 7 view .LVU715
 1981              	.LBB682:
ARM GAS  C:\Users\84759\AppData\Local\Temp\cc1QWPm5.s 			page 64


  73:Core/Src/lcd.c **** 	
 1982              		.loc 1 73 2 view .LVU716
  73:Core/Src/lcd.c **** 	
 1983              		.loc 1 73 51 is_stmt 0 view .LVU717
 1984 01bc C126     		movs	r6, #193
 1985 01be 1E80     		strh	r6, [r3]	@ movhi
 1986              	.LVL125:
  73:Core/Src/lcd.c **** 	
 1987              		.loc 1 73 51 view .LVU718
 1988              	.LBE682:
 1989              	.LBE681:
 467:Core/Src/lcd.c ****     
 1990              		.loc 1 467 5 is_stmt 1 view .LVU719
 1991              	.LBB683:
 1992              	.LBI683:
  71:Core/Src/lcd.c **** {
 1993              		.loc 1 71 7 view .LVU720
 1994              	.LBB684:
  73:Core/Src/lcd.c **** 	
 1995              		.loc 1 73 2 view .LVU721
  73:Core/Src/lcd.c **** 	
 1996              		.loc 1 73 51 is_stmt 0 view .LVU722
 1997 01c0 4FF0300E 		mov	lr, #48
 1998 01c4 A3F800E0 		strh	lr, [r3]	@ movhi
 1999              	.LVL126:
  73:Core/Src/lcd.c **** 	
 2000              		.loc 1 73 51 view .LVU723
 2001              	.LBE684:
 2002              	.LBE683:
 470:Core/Src/lcd.c ****     ILI9341_Write_Cmd ( 0xED );
 2003              		.loc 1 470 19 is_stmt 1 view .LVU724
 471:Core/Src/lcd.c ****     ILI9341_Write_Data ( 0x64 );
 2004              		.loc 1 471 5 view .LVU725
 2005              	.LBB685:
 2006              	.LBI685:
  59:Core/Src/lcd.c **** {
 2007              		.loc 1 59 7 view .LVU726
 2008              	.LBB686:
  61:Core/Src/lcd.c **** 	
 2009              		.loc 1 61 2 view .LVU727
  61:Core/Src/lcd.c **** 	
 2010              		.loc 1 61 50 is_stmt 0 view .LVU728
 2011 01c8 ED21     		movs	r1, #237
 2012 01ca 2180     		strh	r1, [r4]	@ movhi
 2013              	.LVL127:
  61:Core/Src/lcd.c **** 	
 2014              		.loc 1 61 50 view .LVU729
 2015              	.LBE686:
 2016              	.LBE685:
 472:Core/Src/lcd.c ****     ILI9341_Write_Data ( 0x03 );
 2017              		.loc 1 472 5 is_stmt 1 view .LVU730
 2018              	.LBB687:
 2019              	.LBI687:
  71:Core/Src/lcd.c **** {
 2020              		.loc 1 71 7 view .LVU731
 2021              	.LBB688:
  73:Core/Src/lcd.c **** 	
ARM GAS  C:\Users\84759\AppData\Local\Temp\cc1QWPm5.s 			page 65


 2022              		.loc 1 73 2 view .LVU732
  73:Core/Src/lcd.c **** 	
 2023              		.loc 1 73 51 is_stmt 0 view .LVU733
 2024 01cc 6421     		movs	r1, #100
 2025 01ce 1980     		strh	r1, [r3]	@ movhi
 2026              	.LVL128:
  73:Core/Src/lcd.c **** 	
 2027              		.loc 1 73 51 view .LVU734
 2028              	.LBE688:
 2029              	.LBE687:
 473:Core/Src/lcd.c ****     ILI9341_Write_Data ( 0x12 );
 2030              		.loc 1 473 5 is_stmt 1 view .LVU735
 2031              	.LBB689:
 2032              	.LBI689:
  71:Core/Src/lcd.c **** {
 2033              		.loc 1 71 7 view .LVU736
 2034              	.LBB690:
  73:Core/Src/lcd.c **** 	
 2035              		.loc 1 73 2 view .LVU737
  73:Core/Src/lcd.c **** 	
 2036              		.loc 1 73 51 is_stmt 0 view .LVU738
 2037 01d0 0321     		movs	r1, #3
 2038 01d2 1980     		strh	r1, [r3]	@ movhi
 2039              	.LVL129:
  73:Core/Src/lcd.c **** 	
 2040              		.loc 1 73 51 view .LVU739
 2041              	.LBE690:
 2042              	.LBE689:
 474:Core/Src/lcd.c ****     ILI9341_Write_Data ( 0x81 );
 2043              		.loc 1 474 5 is_stmt 1 view .LVU740
 2044              	.LBB691:
 2045              	.LBI691:
  71:Core/Src/lcd.c **** {
 2046              		.loc 1 71 7 view .LVU741
 2047              	.LBB692:
  73:Core/Src/lcd.c **** 	
 2048              		.loc 1 73 2 view .LVU742
  73:Core/Src/lcd.c **** 	
 2049              		.loc 1 73 51 is_stmt 0 view .LVU743
 2050 01d4 1221     		movs	r1, #18
 2051 01d6 1980     		strh	r1, [r3]	@ movhi
 2052              	.LVL130:
  73:Core/Src/lcd.c **** 	
 2053              		.loc 1 73 51 view .LVU744
 2054              	.LBE692:
 2055              	.LBE691:
 475:Core/Src/lcd.c ****     
 2056              		.loc 1 475 5 is_stmt 1 view .LVU745
 2057              	.LBB693:
 2058              	.LBI693:
  71:Core/Src/lcd.c **** {
 2059              		.loc 1 71 7 view .LVU746
 2060              	.LBB694:
  73:Core/Src/lcd.c **** 	
 2061              		.loc 1 73 2 view .LVU747
  73:Core/Src/lcd.c **** 	
 2062              		.loc 1 73 51 is_stmt 0 view .LVU748
ARM GAS  C:\Users\84759\AppData\Local\Temp\cc1QWPm5.s 			page 66


 2063 01d8 8120     		movs	r0, #129
 2064 01da 1880     		strh	r0, [r3]	@ movhi
 2065              	.LVL131:
  73:Core/Src/lcd.c **** 	
 2066              		.loc 1 73 51 view .LVU749
 2067              	.LBE694:
 2068              	.LBE693:
 478:Core/Src/lcd.c ****     ILI9341_Write_Cmd ( 0xE8 );
 2069              		.loc 1 478 19 is_stmt 1 view .LVU750
 479:Core/Src/lcd.c ****     ILI9341_Write_Data ( 0x85 );
 2070              		.loc 1 479 5 view .LVU751
 2071              	.LBB695:
 2072              	.LBI695:
  59:Core/Src/lcd.c **** {
 2073              		.loc 1 59 7 view .LVU752
 2074              	.LBB696:
  61:Core/Src/lcd.c **** 	
 2075              		.loc 1 61 2 view .LVU753
  61:Core/Src/lcd.c **** 	
 2076              		.loc 1 61 50 is_stmt 0 view .LVU754
 2077 01dc E820     		movs	r0, #232
 2078 01de 2080     		strh	r0, [r4]	@ movhi
 2079              	.LVL132:
  61:Core/Src/lcd.c **** 	
 2080              		.loc 1 61 50 view .LVU755
 2081              	.LBE696:
 2082              	.LBE695:
 480:Core/Src/lcd.c ****     ILI9341_Write_Data ( 0x10 );
 2083              		.loc 1 480 5 is_stmt 1 view .LVU756
 2084              	.LBB697:
 2085              	.LBI697:
  71:Core/Src/lcd.c **** {
 2086              		.loc 1 71 7 view .LVU757
 2087              	.LBB698:
  73:Core/Src/lcd.c **** 	
 2088              		.loc 1 73 2 view .LVU758
  73:Core/Src/lcd.c **** 	
 2089              		.loc 1 73 51 is_stmt 0 view .LVU759
 2090 01e0 8520     		movs	r0, #133
 2091 01e2 1880     		strh	r0, [r3]	@ movhi
 2092              	.LVL133:
  73:Core/Src/lcd.c **** 	
 2093              		.loc 1 73 51 view .LVU760
 2094              	.LBE698:
 2095              	.LBE697:
 481:Core/Src/lcd.c ****     ILI9341_Write_Data ( 0x78 );
 2096              		.loc 1 481 5 is_stmt 1 view .LVU761
 2097              	.LBB699:
 2098              	.LBI699:
  71:Core/Src/lcd.c **** {
 2099              		.loc 1 71 7 view .LVU762
 2100              	.LBB700:
  73:Core/Src/lcd.c **** 	
 2101              		.loc 1 73 2 view .LVU763
  73:Core/Src/lcd.c **** 	
 2102              		.loc 1 73 51 is_stmt 0 view .LVU764
 2103 01e4 1020     		movs	r0, #16
ARM GAS  C:\Users\84759\AppData\Local\Temp\cc1QWPm5.s 			page 67


 2104 01e6 1880     		strh	r0, [r3]	@ movhi
 2105              	.LVL134:
  73:Core/Src/lcd.c **** 	
 2106              		.loc 1 73 51 view .LVU765
 2107              	.LBE700:
 2108              	.LBE699:
 482:Core/Src/lcd.c ****     
 2109              		.loc 1 482 5 is_stmt 1 view .LVU766
 2110              	.LBB701:
 2111              	.LBI701:
  71:Core/Src/lcd.c **** {
 2112              		.loc 1 71 7 view .LVU767
 2113              	.LBB702:
  73:Core/Src/lcd.c **** 	
 2114              		.loc 1 73 2 view .LVU768
  73:Core/Src/lcd.c **** 	
 2115              		.loc 1 73 51 is_stmt 0 view .LVU769
 2116 01e8 7820     		movs	r0, #120
 2117 01ea 1880     		strh	r0, [r3]	@ movhi
 2118              	.LVL135:
  73:Core/Src/lcd.c **** 	
 2119              		.loc 1 73 51 view .LVU770
 2120              	.LBE702:
 2121              	.LBE701:
 485:Core/Src/lcd.c ****     ILI9341_Write_Cmd ( 0xCB );
 2122              		.loc 1 485 19 is_stmt 1 view .LVU771
 486:Core/Src/lcd.c ****     ILI9341_Write_Data ( 0x39 );
 2123              		.loc 1 486 5 view .LVU772
 2124              	.LBB703:
 2125              	.LBI703:
  59:Core/Src/lcd.c **** {
 2126              		.loc 1 59 7 view .LVU773
 2127              	.LBB704:
  61:Core/Src/lcd.c **** 	
 2128              		.loc 1 61 2 view .LVU774
  61:Core/Src/lcd.c **** 	
 2129              		.loc 1 61 50 is_stmt 0 view .LVU775
 2130 01ec CB20     		movs	r0, #203
 2131 01ee 2080     		strh	r0, [r4]	@ movhi
 2132              	.LVL136:
  61:Core/Src/lcd.c **** 	
 2133              		.loc 1 61 50 view .LVU776
 2134              	.LBE704:
 2135              	.LBE703:
 487:Core/Src/lcd.c ****     ILI9341_Write_Data ( 0x2C );
 2136              		.loc 1 487 5 is_stmt 1 view .LVU777
 2137              	.LBB705:
 2138              	.LBI705:
  71:Core/Src/lcd.c **** {
 2139              		.loc 1 71 7 view .LVU778
 2140              	.LBB706:
  73:Core/Src/lcd.c **** 	
 2141              		.loc 1 73 2 view .LVU779
  73:Core/Src/lcd.c **** 	
 2142              		.loc 1 73 51 is_stmt 0 view .LVU780
 2143 01f0 3920     		movs	r0, #57
 2144 01f2 1880     		strh	r0, [r3]	@ movhi
ARM GAS  C:\Users\84759\AppData\Local\Temp\cc1QWPm5.s 			page 68


 2145              	.LVL137:
  73:Core/Src/lcd.c **** 	
 2146              		.loc 1 73 51 view .LVU781
 2147              	.LBE706:
 2148              	.LBE705:
 488:Core/Src/lcd.c ****     ILI9341_Write_Data ( 0x00 );
 2149              		.loc 1 488 5 is_stmt 1 view .LVU782
 2150              	.LBB707:
 2151              	.LBI707:
  71:Core/Src/lcd.c **** {
 2152              		.loc 1 71 7 view .LVU783
 2153              	.LBB708:
  73:Core/Src/lcd.c **** 	
 2154              		.loc 1 73 2 view .LVU784
  73:Core/Src/lcd.c **** 	
 2155              		.loc 1 73 51 is_stmt 0 view .LVU785
 2156 01f4 2C25     		movs	r5, #44
 2157 01f6 1D80     		strh	r5, [r3]	@ movhi
 2158              	.LVL138:
  73:Core/Src/lcd.c **** 	
 2159              		.loc 1 73 51 view .LVU786
 2160              	.LBE708:
 2161              	.LBE707:
 489:Core/Src/lcd.c ****     ILI9341_Write_Data ( 0x34 );
 2162              		.loc 1 489 5 is_stmt 1 view .LVU787
 2163              	.LBB709:
 2164              	.LBI709:
  71:Core/Src/lcd.c **** {
 2165              		.loc 1 71 7 view .LVU788
 2166              	.LBB710:
  73:Core/Src/lcd.c **** 	
 2167              		.loc 1 73 2 view .LVU789
  73:Core/Src/lcd.c **** 	
 2168              		.loc 1 73 51 is_stmt 0 view .LVU790
 2169 01f8 1A80     		strh	r2, [r3]	@ movhi
 2170              	.LVL139:
  73:Core/Src/lcd.c **** 	
 2171              		.loc 1 73 51 view .LVU791
 2172              	.LBE710:
 2173              	.LBE709:
 490:Core/Src/lcd.c ****     ILI9341_Write_Data ( 0x02 );
 2174              		.loc 1 490 5 is_stmt 1 view .LVU792
 2175              	.LBB711:
 2176              	.LBI711:
  71:Core/Src/lcd.c **** {
 2177              		.loc 1 71 7 view .LVU793
 2178              	.LBB712:
  73:Core/Src/lcd.c **** 	
 2179              		.loc 1 73 2 view .LVU794
  73:Core/Src/lcd.c **** 	
 2180              		.loc 1 73 51 is_stmt 0 view .LVU795
 2181 01fa 3420     		movs	r0, #52
 2182 01fc 1880     		strh	r0, [r3]	@ movhi
 2183              	.LVL140:
  73:Core/Src/lcd.c **** 	
 2184              		.loc 1 73 51 view .LVU796
 2185              	.LBE712:
ARM GAS  C:\Users\84759\AppData\Local\Temp\cc1QWPm5.s 			page 69


 2186              	.LBE711:
 491:Core/Src/lcd.c ****     
 2187              		.loc 1 491 5 is_stmt 1 view .LVU797
 2188              	.LBB713:
 2189              	.LBI713:
  71:Core/Src/lcd.c **** {
 2190              		.loc 1 71 7 view .LVU798
 2191              	.LBB714:
  73:Core/Src/lcd.c **** 	
 2192              		.loc 1 73 2 view .LVU799
  73:Core/Src/lcd.c **** 	
 2193              		.loc 1 73 51 is_stmt 0 view .LVU800
 2194 01fe 0220     		movs	r0, #2
 2195 0200 1880     		strh	r0, [r3]	@ movhi
 2196              	.LVL141:
  73:Core/Src/lcd.c **** 	
 2197              		.loc 1 73 51 view .LVU801
 2198              	.LBE714:
 2199              	.LBE713:
 494:Core/Src/lcd.c ****     ILI9341_Write_Cmd ( 0xF7 );
 2200              		.loc 1 494 19 is_stmt 1 view .LVU802
 495:Core/Src/lcd.c ****     ILI9341_Write_Data ( 0x20 );
 2201              		.loc 1 495 5 view .LVU803
 2202              	.LBB715:
 2203              	.LBI715:
  59:Core/Src/lcd.c **** {
 2204              		.loc 1 59 7 view .LVU804
 2205              	.LBB716:
  61:Core/Src/lcd.c **** 	
 2206              		.loc 1 61 2 view .LVU805
  61:Core/Src/lcd.c **** 	
 2207              		.loc 1 61 50 is_stmt 0 view .LVU806
 2208 0202 F727     		movs	r7, #247
 2209 0204 2780     		strh	r7, [r4]	@ movhi
 2210              	.LVL142:
  61:Core/Src/lcd.c **** 	
 2211              		.loc 1 61 50 view .LVU807
 2212              	.LBE716:
 2213              	.LBE715:
 496:Core/Src/lcd.c ****     
 2214              		.loc 1 496 5 is_stmt 1 view .LVU808
 2215              	.LBB717:
 2216              	.LBI717:
  71:Core/Src/lcd.c **** {
 2217              		.loc 1 71 7 view .LVU809
 2218              	.LBB718:
  73:Core/Src/lcd.c **** 	
 2219              		.loc 1 73 2 view .LVU810
  73:Core/Src/lcd.c **** 	
 2220              		.loc 1 73 51 is_stmt 0 view .LVU811
 2221 0206 2027     		movs	r7, #32
 2222 0208 1F80     		strh	r7, [r3]	@ movhi
 2223              	.LVL143:
  73:Core/Src/lcd.c **** 	
 2224              		.loc 1 73 51 view .LVU812
 2225              	.LBE718:
 2226              	.LBE717:
ARM GAS  C:\Users\84759\AppData\Local\Temp\cc1QWPm5.s 			page 70


 499:Core/Src/lcd.c ****     ILI9341_Write_Cmd ( 0xEA );
 2227              		.loc 1 499 19 is_stmt 1 view .LVU813
 500:Core/Src/lcd.c ****     ILI9341_Write_Data ( 0x00 );
 2228              		.loc 1 500 5 view .LVU814
 2229              	.LBB719:
 2230              	.LBI719:
  59:Core/Src/lcd.c **** {
 2231              		.loc 1 59 7 view .LVU815
 2232              	.LBB720:
  61:Core/Src/lcd.c **** 	
 2233              		.loc 1 61 2 view .LVU816
  61:Core/Src/lcd.c **** 	
 2234              		.loc 1 61 50 is_stmt 0 view .LVU817
 2235 020a EA27     		movs	r7, #234
 2236 020c 2780     		strh	r7, [r4]	@ movhi
 2237              	.LVL144:
  61:Core/Src/lcd.c **** 	
 2238              		.loc 1 61 50 view .LVU818
 2239              	.LBE720:
 2240              	.LBE719:
 501:Core/Src/lcd.c ****     ILI9341_Write_Data ( 0x00 );
 2241              		.loc 1 501 5 is_stmt 1 view .LVU819
 2242              	.LBB721:
 2243              	.LBI721:
  71:Core/Src/lcd.c **** {
 2244              		.loc 1 71 7 view .LVU820
 2245              	.LBB722:
  73:Core/Src/lcd.c **** 	
 2246              		.loc 1 73 2 view .LVU821
  73:Core/Src/lcd.c **** 	
 2247              		.loc 1 73 51 is_stmt 0 view .LVU822
 2248 020e 1A80     		strh	r2, [r3]	@ movhi
 2249              	.LVL145:
  73:Core/Src/lcd.c **** 	
 2250              		.loc 1 73 51 view .LVU823
 2251              	.LBE722:
 2252              	.LBE721:
 502:Core/Src/lcd.c ****     
 2253              		.loc 1 502 5 is_stmt 1 view .LVU824
 2254              	.LBB723:
 2255              	.LBI723:
  71:Core/Src/lcd.c **** {
 2256              		.loc 1 71 7 view .LVU825
 2257              	.LBB724:
  73:Core/Src/lcd.c **** 	
 2258              		.loc 1 73 2 view .LVU826
  73:Core/Src/lcd.c **** 	
 2259              		.loc 1 73 51 is_stmt 0 view .LVU827
 2260 0210 1A80     		strh	r2, [r3]	@ movhi
 2261              	.LVL146:
  73:Core/Src/lcd.c **** 	
 2262              		.loc 1 73 51 view .LVU828
 2263              	.LBE724:
 2264              	.LBE723:
 506:Core/Src/lcd.c ****     ILI9341_Write_Cmd ( 0xC0 );   //Power control
 2265              		.loc 1 506 19 is_stmt 1 view .LVU829
 507:Core/Src/lcd.c ****     ILI9341_Write_Data ( 0x21 );  //VRH[5:0]
ARM GAS  C:\Users\84759\AppData\Local\Temp\cc1QWPm5.s 			page 71


 2266              		.loc 1 507 5 view .LVU830
 2267              	.LBB725:
 2268              	.LBI725:
  59:Core/Src/lcd.c **** {
 2269              		.loc 1 59 7 view .LVU831
 2270              	.LBB726:
  61:Core/Src/lcd.c **** 	
 2271              		.loc 1 61 2 view .LVU832
  61:Core/Src/lcd.c **** 	
 2272              		.loc 1 61 50 is_stmt 0 view .LVU833
 2273 0212 C027     		movs	r7, #192
 2274 0214 2780     		strh	r7, [r4]	@ movhi
 2275              	.LVL147:
  61:Core/Src/lcd.c **** 	
 2276              		.loc 1 61 50 view .LVU834
 2277              	.LBE726:
 2278              	.LBE725:
 508:Core/Src/lcd.c ****     
 2279              		.loc 1 508 5 is_stmt 1 view .LVU835
 2280              	.LBB727:
 2281              	.LBI727:
  71:Core/Src/lcd.c **** {
 2282              		.loc 1 71 7 view .LVU836
 2283              	.LBB728:
  73:Core/Src/lcd.c **** 	
 2284              		.loc 1 73 2 view .LVU837
  73:Core/Src/lcd.c **** 	
 2285              		.loc 1 73 51 is_stmt 0 view .LVU838
 2286 0216 2127     		movs	r7, #33
 2287 0218 1F80     		strh	r7, [r3]	@ movhi
 2288              	.LVL148:
  73:Core/Src/lcd.c **** 	
 2289              		.loc 1 73 51 view .LVU839
 2290              	.LBE728:
 2291              	.LBE727:
 511:Core/Src/lcd.c ****     ILI9341_Write_Cmd ( 0xC1 );   //Power control
 2292              		.loc 1 511 19 is_stmt 1 view .LVU840
 512:Core/Src/lcd.c ****     ILI9341_Write_Data ( 0x11 );  //SAP[2:0];BT[3:0]
 2293              		.loc 1 512 5 view .LVU841
 2294              	.LBB729:
 2295              	.LBI729:
  59:Core/Src/lcd.c **** {
 2296              		.loc 1 59 7 view .LVU842
 2297              	.LBB730:
  61:Core/Src/lcd.c **** 	
 2298              		.loc 1 61 2 view .LVU843
  61:Core/Src/lcd.c **** 	
 2299              		.loc 1 61 50 is_stmt 0 view .LVU844
 2300 021a 2680     		strh	r6, [r4]	@ movhi
 2301              	.LVL149:
  61:Core/Src/lcd.c **** 	
 2302              		.loc 1 61 50 view .LVU845
 2303              	.LBE730:
 2304              	.LBE729:
 513:Core/Src/lcd.c ****     
 2305              		.loc 1 513 5 is_stmt 1 view .LVU846
 2306              	.LBB731:
ARM GAS  C:\Users\84759\AppData\Local\Temp\cc1QWPm5.s 			page 72


 2307              	.LBI731:
  71:Core/Src/lcd.c **** {
 2308              		.loc 1 71 7 view .LVU847
 2309              	.LBB732:
  73:Core/Src/lcd.c **** 	
 2310              		.loc 1 73 2 view .LVU848
  73:Core/Src/lcd.c **** 	
 2311              		.loc 1 73 51 is_stmt 0 view .LVU849
 2312 021c 1127     		movs	r7, #17
 2313 021e 1F80     		strh	r7, [r3]	@ movhi
 2314              	.LVL150:
  73:Core/Src/lcd.c **** 	
 2315              		.loc 1 73 51 view .LVU850
 2316              	.LBE732:
 2317              	.LBE731:
 516:Core/Src/lcd.c ****     ILI9341_Write_Data ( 0x2D );
 2318              		.loc 1 516 5 is_stmt 1 view .LVU851
 2319              	.LBB733:
 2320              	.LBI733:
  59:Core/Src/lcd.c **** {
 2321              		.loc 1 59 7 view .LVU852
 2322              	.LBB734:
  61:Core/Src/lcd.c **** 	
 2323              		.loc 1 61 2 view .LVU853
  61:Core/Src/lcd.c **** 	
 2324              		.loc 1 61 50 is_stmt 0 view .LVU854
 2325 0220 C526     		movs	r6, #197
 2326 0222 2680     		strh	r6, [r4]	@ movhi
 2327              	.LVL151:
  61:Core/Src/lcd.c **** 	
 2328              		.loc 1 61 50 view .LVU855
 2329              	.LBE734:
 2330              	.LBE733:
 517:Core/Src/lcd.c ****     ILI9341_Write_Data ( 0x33 );
 2331              		.loc 1 517 5 is_stmt 1 view .LVU856
 2332              	.LBB735:
 2333              	.LBI735:
  71:Core/Src/lcd.c **** {
 2334              		.loc 1 71 7 view .LVU857
 2335              	.LBB736:
  73:Core/Src/lcd.c **** 	
 2336              		.loc 1 73 2 view .LVU858
  73:Core/Src/lcd.c **** 	
 2337              		.loc 1 73 51 is_stmt 0 view .LVU859
 2338 0224 4FF02D0C 		mov	ip, #45
 2339 0228 A3F800C0 		strh	ip, [r3]	@ movhi
 2340              	.LVL152:
  73:Core/Src/lcd.c **** 	
 2341              		.loc 1 73 51 view .LVU860
 2342              	.LBE736:
 2343              	.LBE735:
 518:Core/Src/lcd.c ****     
 2344              		.loc 1 518 5 is_stmt 1 view .LVU861
 2345              	.LBB737:
 2346              	.LBI737:
  71:Core/Src/lcd.c **** {
 2347              		.loc 1 71 7 view .LVU862
ARM GAS  C:\Users\84759\AppData\Local\Temp\cc1QWPm5.s 			page 73


 2348              	.LBB738:
  73:Core/Src/lcd.c **** 	
 2349              		.loc 1 73 2 view .LVU863
  73:Core/Src/lcd.c **** 	
 2350              		.loc 1 73 51 is_stmt 0 view .LVU864
 2351 022c 3326     		movs	r6, #51
 2352 022e 1E80     		strh	r6, [r3]	@ movhi
 2353              	.LVL153:
  73:Core/Src/lcd.c **** 	
 2354              		.loc 1 73 51 view .LVU865
 2355              	.LBE738:
 2356              	.LBE737:
 525:Core/Src/lcd.c ****     ILI9341_Write_Cmd ( 0x36 );   //Memory Access Control
 2357              		.loc 1 525 19 is_stmt 1 view .LVU866
 526:Core/Src/lcd.c ****     ILI9341_Write_Data ( 0x00 );  /*ĘúĆÁ  ×óÉĎ˝Çµ˝ (Ćđµă)µ˝ÓŇĎÂ˝Ç (ÖŐµă)É¨Ăč·˝Ę˝*/
 2358              		.loc 1 526 5 view .LVU867
 2359              	.LBB739:
 2360              	.LBI739:
  59:Core/Src/lcd.c **** {
 2361              		.loc 1 59 7 view .LVU868
 2362              	.LBB740:
  61:Core/Src/lcd.c **** 	
 2363              		.loc 1 61 2 view .LVU869
  61:Core/Src/lcd.c **** 	
 2364              		.loc 1 61 50 is_stmt 0 view .LVU870
 2365 0230 3626     		movs	r6, #54
 2366 0232 2680     		strh	r6, [r4]	@ movhi
 2367              	.LVL154:
  61:Core/Src/lcd.c **** 	
 2368              		.loc 1 61 50 view .LVU871
 2369              	.LBE740:
 2370              	.LBE739:
 527:Core/Src/lcd.c ****     DEBUG_DELAY ();
 2371              		.loc 1 527 5 is_stmt 1 view .LVU872
 2372              	.LBB741:
 2373              	.LBI741:
  71:Core/Src/lcd.c **** {
 2374              		.loc 1 71 7 view .LVU873
 2375              	.LBB742:
  73:Core/Src/lcd.c **** 	
 2376              		.loc 1 73 2 view .LVU874
  73:Core/Src/lcd.c **** 	
 2377              		.loc 1 73 51 is_stmt 0 view .LVU875
 2378 0234 1A80     		strh	r2, [r3]	@ movhi
 2379              	.LVL155:
  73:Core/Src/lcd.c **** 	
 2380              		.loc 1 73 51 view .LVU876
 2381              	.LBE742:
 2382              	.LBE741:
 528:Core/Src/lcd.c ****     
 2383              		.loc 1 528 19 is_stmt 1 view .LVU877
 530:Core/Src/lcd.c ****     ILI9341_Write_Data(0x55); 
 2384              		.loc 1 530 5 view .LVU878
 2385              	.LBB743:
 2386              	.LBI743:
  59:Core/Src/lcd.c **** {
 2387              		.loc 1 59 7 view .LVU879
ARM GAS  C:\Users\84759\AppData\Local\Temp\cc1QWPm5.s 			page 74


 2388              	.LBB744:
  61:Core/Src/lcd.c **** 	
 2389              		.loc 1 61 2 view .LVU880
  61:Core/Src/lcd.c **** 	
 2390              		.loc 1 61 50 is_stmt 0 view .LVU881
 2391 0236 3A26     		movs	r6, #58
 2392 0238 2680     		strh	r6, [r4]	@ movhi
 2393              	.LVL156:
  61:Core/Src/lcd.c **** 	
 2394              		.loc 1 61 50 view .LVU882
 2395              	.LBE744:
 2396              	.LBE743:
 531:Core/Src/lcd.c ****     
 2397              		.loc 1 531 5 is_stmt 1 view .LVU883
 2398              	.LBB745:
 2399              	.LBI745:
  71:Core/Src/lcd.c **** {
 2400              		.loc 1 71 7 view .LVU884
 2401              	.LBB746:
  73:Core/Src/lcd.c **** 	
 2402              		.loc 1 73 2 view .LVU885
  73:Core/Src/lcd.c **** 	
 2403              		.loc 1 73 51 is_stmt 0 view .LVU886
 2404 023a 5526     		movs	r6, #85
 2405 023c 1E80     		strh	r6, [r3]	@ movhi
 2406              	.LVL157:
  73:Core/Src/lcd.c **** 	
 2407              		.loc 1 73 51 view .LVU887
 2408              	.LBE746:
 2409              	.LBE745:
 534:Core/Src/lcd.c ****     ILI9341_Write_Cmd ( 0xB1 );
 2410              		.loc 1 534 19 is_stmt 1 view .LVU888
 535:Core/Src/lcd.c ****     ILI9341_Write_Data ( 0x00 );
 2411              		.loc 1 535 5 view .LVU889
 2412              	.LBB747:
 2413              	.LBI747:
  59:Core/Src/lcd.c **** {
 2414              		.loc 1 59 7 view .LVU890
 2415              	.LBB748:
  61:Core/Src/lcd.c **** 	
 2416              		.loc 1 61 2 view .LVU891
  61:Core/Src/lcd.c **** 	
 2417              		.loc 1 61 50 is_stmt 0 view .LVU892
 2418 023e B126     		movs	r6, #177
 2419 0240 2680     		strh	r6, [r4]	@ movhi
 2420              	.LVL158:
  61:Core/Src/lcd.c **** 	
 2421              		.loc 1 61 50 view .LVU893
 2422              	.LBE748:
 2423              	.LBE747:
 536:Core/Src/lcd.c ****     ILI9341_Write_Data ( 0x17 );
 2424              		.loc 1 536 5 is_stmt 1 view .LVU894
 2425              	.LBB749:
 2426              	.LBI749:
  71:Core/Src/lcd.c **** {
 2427              		.loc 1 71 7 view .LVU895
 2428              	.LBB750:
ARM GAS  C:\Users\84759\AppData\Local\Temp\cc1QWPm5.s 			page 75


  73:Core/Src/lcd.c **** 	
 2429              		.loc 1 73 2 view .LVU896
  73:Core/Src/lcd.c **** 	
 2430              		.loc 1 73 51 is_stmt 0 view .LVU897
 2431 0242 1A80     		strh	r2, [r3]	@ movhi
 2432              	.LVL159:
  73:Core/Src/lcd.c **** 	
 2433              		.loc 1 73 51 view .LVU898
 2434              	.LBE750:
 2435              	.LBE749:
 537:Core/Src/lcd.c ****     
 2436              		.loc 1 537 5 is_stmt 1 view .LVU899
 2437              	.LBB751:
 2438              	.LBI751:
  71:Core/Src/lcd.c **** {
 2439              		.loc 1 71 7 view .LVU900
 2440              	.LBB752:
  73:Core/Src/lcd.c **** 	
 2441              		.loc 1 73 2 view .LVU901
  73:Core/Src/lcd.c **** 	
 2442              		.loc 1 73 51 is_stmt 0 view .LVU902
 2443 0244 4FF01709 		mov	r9, #23
 2444 0248 A3F80090 		strh	r9, [r3]	@ movhi
 2445              	.LVL160:
  73:Core/Src/lcd.c **** 	
 2446              		.loc 1 73 51 view .LVU903
 2447              	.LBE752:
 2448              	.LBE751:
 540:Core/Src/lcd.c ****     ILI9341_Write_Cmd ( 0xB6 );
 2449              		.loc 1 540 19 is_stmt 1 view .LVU904
 541:Core/Src/lcd.c ****     ILI9341_Write_Data ( 0x0A );
 2450              		.loc 1 541 5 view .LVU905
 2451              	.LBB753:
 2452              	.LBI753:
  59:Core/Src/lcd.c **** {
 2453              		.loc 1 59 7 view .LVU906
 2454              	.LBB754:
  61:Core/Src/lcd.c **** 	
 2455              		.loc 1 61 2 view .LVU907
  61:Core/Src/lcd.c **** 	
 2456              		.loc 1 61 50 is_stmt 0 view .LVU908
 2457 024c B626     		movs	r6, #182
 2458 024e 2680     		strh	r6, [r4]	@ movhi
 2459              	.LVL161:
  61:Core/Src/lcd.c **** 	
 2460              		.loc 1 61 50 view .LVU909
 2461              	.LBE754:
 2462              	.LBE753:
 542:Core/Src/lcd.c ****     ILI9341_Write_Data ( 0xA2 );
 2463              		.loc 1 542 5 is_stmt 1 view .LVU910
 2464              	.LBB755:
 2465              	.LBI755:
  71:Core/Src/lcd.c **** {
 2466              		.loc 1 71 7 view .LVU911
 2467              	.LBB756:
  73:Core/Src/lcd.c **** 	
 2468              		.loc 1 73 2 view .LVU912
ARM GAS  C:\Users\84759\AppData\Local\Temp\cc1QWPm5.s 			page 76


  73:Core/Src/lcd.c **** 	
 2469              		.loc 1 73 51 is_stmt 0 view .LVU913
 2470 0250 0A26     		movs	r6, #10
 2471 0252 1E80     		strh	r6, [r3]	@ movhi
 2472              	.LVL162:
  73:Core/Src/lcd.c **** 	
 2473              		.loc 1 73 51 view .LVU914
 2474              	.LBE756:
 2475              	.LBE755:
 543:Core/Src/lcd.c ****     
 2476              		.loc 1 543 5 is_stmt 1 view .LVU915
 2477              	.LBB757:
 2478              	.LBI757:
  71:Core/Src/lcd.c **** {
 2479              		.loc 1 71 7 view .LVU916
 2480              	.LBB758:
  73:Core/Src/lcd.c **** 	
 2481              		.loc 1 73 2 view .LVU917
  73:Core/Src/lcd.c **** 	
 2482              		.loc 1 73 51 is_stmt 0 view .LVU918
 2483 0254 A226     		movs	r6, #162
 2484 0256 1E80     		strh	r6, [r3]	@ movhi
 2485              	.LVL163:
  73:Core/Src/lcd.c **** 	
 2486              		.loc 1 73 51 view .LVU919
 2487              	.LBE758:
 2488              	.LBE757:
 545:Core/Src/lcd.c ****     ILI9341_Write_Data(0x01); 
 2489              		.loc 1 545 5 is_stmt 1 view .LVU920
 2490              	.LBB759:
 2491              	.LBI759:
  59:Core/Src/lcd.c **** {
 2492              		.loc 1 59 7 view .LVU921
 2493              	.LBB760:
  61:Core/Src/lcd.c **** 	
 2494              		.loc 1 61 2 view .LVU922
  61:Core/Src/lcd.c **** 	
 2495              		.loc 1 61 50 is_stmt 0 view .LVU923
 2496 0258 F626     		movs	r6, #246
 2497 025a 2680     		strh	r6, [r4]	@ movhi
 2498              	.LVL164:
  61:Core/Src/lcd.c **** 	
 2499              		.loc 1 61 50 view .LVU924
 2500              	.LBE760:
 2501              	.LBE759:
 546:Core/Src/lcd.c ****     ILI9341_Write_Data(0x30); 
 2502              		.loc 1 546 5 is_stmt 1 view .LVU925
 2503              	.LBB761:
 2504              	.LBI761:
  71:Core/Src/lcd.c **** {
 2505              		.loc 1 71 7 view .LVU926
 2506              	.LBB762:
  73:Core/Src/lcd.c **** 	
 2507              		.loc 1 73 2 view .LVU927
  73:Core/Src/lcd.c **** 	
 2508              		.loc 1 73 51 is_stmt 0 view .LVU928
 2509 025c 0126     		movs	r6, #1
ARM GAS  C:\Users\84759\AppData\Local\Temp\cc1QWPm5.s 			page 77


 2510 025e 1E80     		strh	r6, [r3]	@ movhi
 2511              	.LVL165:
  73:Core/Src/lcd.c **** 	
 2512              		.loc 1 73 51 view .LVU929
 2513              	.LBE762:
 2514              	.LBE761:
 547:Core/Src/lcd.c ****     
 2515              		.loc 1 547 5 is_stmt 1 view .LVU930
 2516              	.LBB763:
 2517              	.LBI763:
  71:Core/Src/lcd.c **** {
 2518              		.loc 1 71 7 view .LVU931
 2519              	.LBB764:
  73:Core/Src/lcd.c **** 	
 2520              		.loc 1 73 2 view .LVU932
  73:Core/Src/lcd.c **** 	
 2521              		.loc 1 73 51 is_stmt 0 view .LVU933
 2522 0260 A3F800E0 		strh	lr, [r3]	@ movhi
 2523              	.LVL166:
  73:Core/Src/lcd.c **** 	
 2524              		.loc 1 73 51 view .LVU934
 2525              	.LBE764:
 2526              	.LBE763:
 550:Core/Src/lcd.c ****     ILI9341_Write_Data ( 0x00 );
 2527              		.loc 1 550 5 is_stmt 1 view .LVU935
 2528              	.LBB765:
 2529              	.LBI765:
  59:Core/Src/lcd.c **** {
 2530              		.loc 1 59 7 view .LVU936
 2531              	.LBB766:
  61:Core/Src/lcd.c **** 	
 2532              		.loc 1 61 2 view .LVU937
  61:Core/Src/lcd.c **** 	
 2533              		.loc 1 61 50 is_stmt 0 view .LVU938
 2534 0264 4FF0F20E 		mov	lr, #242
 2535 0268 A4F800E0 		strh	lr, [r4]	@ movhi
 2536              	.LVL167:
  61:Core/Src/lcd.c **** 	
 2537              		.loc 1 61 50 view .LVU939
 2538              	.LBE766:
 2539              	.LBE765:
 551:Core/Src/lcd.c ****     
 2540              		.loc 1 551 5 is_stmt 1 view .LVU940
 2541              	.LBB767:
 2542              	.LBI767:
  71:Core/Src/lcd.c **** {
 2543              		.loc 1 71 7 view .LVU941
 2544              	.LBB768:
  73:Core/Src/lcd.c **** 	
 2545              		.loc 1 73 2 view .LVU942
  73:Core/Src/lcd.c **** 	
 2546              		.loc 1 73 51 is_stmt 0 view .LVU943
 2547 026c 1A80     		strh	r2, [r3]	@ movhi
 2548              	.LVL168:
  73:Core/Src/lcd.c **** 	
 2549              		.loc 1 73 51 view .LVU944
 2550              	.LBE768:
ARM GAS  C:\Users\84759\AppData\Local\Temp\cc1QWPm5.s 			page 78


 2551              	.LBE767:
 554:Core/Src/lcd.c ****     ILI9341_Write_Data ( 0x01 );
 2552              		.loc 1 554 5 is_stmt 1 view .LVU945
 2553              	.LBB769:
 2554              	.LBI769:
  59:Core/Src/lcd.c **** {
 2555              		.loc 1 59 7 view .LVU946
 2556              	.LBB770:
  61:Core/Src/lcd.c **** 	
 2557              		.loc 1 61 2 view .LVU947
  61:Core/Src/lcd.c **** 	
 2558              		.loc 1 61 50 is_stmt 0 view .LVU948
 2559 026e 4FF0260E 		mov	lr, #38
 2560 0272 A4F800E0 		strh	lr, [r4]	@ movhi
 2561              	.LVL169:
  61:Core/Src/lcd.c **** 	
 2562              		.loc 1 61 50 view .LVU949
 2563              	.LBE770:
 2564              	.LBE769:
 555:Core/Src/lcd.c ****     DEBUG_DELAY ();
 2565              		.loc 1 555 5 is_stmt 1 view .LVU950
 2566              	.LBB771:
 2567              	.LBI771:
  71:Core/Src/lcd.c **** {
 2568              		.loc 1 71 7 view .LVU951
 2569              	.LBB772:
  73:Core/Src/lcd.c **** 	
 2570              		.loc 1 73 2 view .LVU952
  73:Core/Src/lcd.c **** 	
 2571              		.loc 1 73 51 is_stmt 0 view .LVU953
 2572 0276 1E80     		strh	r6, [r3]	@ movhi
 2573              	.LVL170:
  73:Core/Src/lcd.c **** 	
 2574              		.loc 1 73 51 view .LVU954
 2575              	.LBE772:
 2576              	.LBE771:
 556:Core/Src/lcd.c ****     
 2577              		.loc 1 556 19 is_stmt 1 view .LVU955
 559:Core/Src/lcd.c ****     ILI9341_Write_Data(0xd0);         
 2578              		.loc 1 559 5 view .LVU956
 2579              	.LBB773:
 2580              	.LBI773:
  59:Core/Src/lcd.c **** {
 2581              		.loc 1 59 7 view .LVU957
 2582              	.LBB774:
  61:Core/Src/lcd.c **** 	
 2583              		.loc 1 61 2 view .LVU958
  61:Core/Src/lcd.c **** 	
 2584              		.loc 1 61 50 is_stmt 0 view .LVU959
 2585 0278 E026     		movs	r6, #224
 2586 027a 2680     		strh	r6, [r4]	@ movhi
 2587              	.LVL171:
  61:Core/Src/lcd.c **** 	
 2588              		.loc 1 61 50 view .LVU960
 2589              	.LBE774:
 2590              	.LBE773:
 560:Core/Src/lcd.c ****     ILI9341_Write_Data(0x00); 
ARM GAS  C:\Users\84759\AppData\Local\Temp\cc1QWPm5.s 			page 79


 2591              		.loc 1 560 5 is_stmt 1 view .LVU961
 2592              	.LBB775:
 2593              	.LBI775:
  71:Core/Src/lcd.c **** {
 2594              		.loc 1 71 7 view .LVU962
 2595              	.LBB776:
  73:Core/Src/lcd.c **** 	
 2596              		.loc 1 73 2 view .LVU963
  73:Core/Src/lcd.c **** 	
 2597              		.loc 1 73 51 is_stmt 0 view .LVU964
 2598 027c 4FF0D008 		mov	r8, #208
 2599 0280 A3F80080 		strh	r8, [r3]	@ movhi
 2600              	.LVL172:
  73:Core/Src/lcd.c **** 	
 2601              		.loc 1 73 51 view .LVU965
 2602              	.LBE776:
 2603              	.LBE775:
 561:Core/Src/lcd.c ****     ILI9341_Write_Data(0x02); 
 2604              		.loc 1 561 5 is_stmt 1 view .LVU966
 2605              	.LBB777:
 2606              	.LBI777:
  71:Core/Src/lcd.c **** {
 2607              		.loc 1 71 7 view .LVU967
 2608              	.LBB778:
  73:Core/Src/lcd.c **** 	
 2609              		.loc 1 73 2 view .LVU968
  73:Core/Src/lcd.c **** 	
 2610              		.loc 1 73 51 is_stmt 0 view .LVU969
 2611 0284 1A80     		strh	r2, [r3]	@ movhi
 2612              	.LVL173:
  73:Core/Src/lcd.c **** 	
 2613              		.loc 1 73 51 view .LVU970
 2614              	.LBE778:
 2615              	.LBE777:
 562:Core/Src/lcd.c ****     ILI9341_Write_Data(0x07); 
 2616              		.loc 1 562 5 is_stmt 1 view .LVU971
 2617              	.LBB779:
 2618              	.LBI779:
  71:Core/Src/lcd.c **** {
 2619              		.loc 1 71 7 view .LVU972
 2620              	.LBB780:
  73:Core/Src/lcd.c **** 	
 2621              		.loc 1 73 2 view .LVU973
  73:Core/Src/lcd.c **** 	
 2622              		.loc 1 73 51 is_stmt 0 view .LVU974
 2623 0286 1880     		strh	r0, [r3]	@ movhi
 2624              	.LVL174:
  73:Core/Src/lcd.c **** 	
 2625              		.loc 1 73 51 view .LVU975
 2626              	.LBE780:
 2627              	.LBE779:
 563:Core/Src/lcd.c ****     ILI9341_Write_Data(0x0b); 
 2628              		.loc 1 563 5 is_stmt 1 view .LVU976
 2629              	.LBB781:
 2630              	.LBI781:
  71:Core/Src/lcd.c **** {
 2631              		.loc 1 71 7 view .LVU977
ARM GAS  C:\Users\84759\AppData\Local\Temp\cc1QWPm5.s 			page 80


 2632              	.LBB782:
  73:Core/Src/lcd.c **** 	
 2633              		.loc 1 73 2 view .LVU978
  73:Core/Src/lcd.c **** 	
 2634              		.loc 1 73 51 is_stmt 0 view .LVU979
 2635 0288 4FF0070E 		mov	lr, #7
 2636 028c A3F800E0 		strh	lr, [r3]	@ movhi
 2637              	.LVL175:
  73:Core/Src/lcd.c **** 	
 2638              		.loc 1 73 51 view .LVU980
 2639              	.LBE782:
 2640              	.LBE781:
 564:Core/Src/lcd.c ****     ILI9341_Write_Data(0x1a); 
 2641              		.loc 1 564 5 is_stmt 1 view .LVU981
 2642              	.LBB783:
 2643              	.LBI783:
  71:Core/Src/lcd.c **** {
 2644              		.loc 1 71 7 view .LVU982
 2645              	.LBB784:
  73:Core/Src/lcd.c **** 	
 2646              		.loc 1 73 2 view .LVU983
  73:Core/Src/lcd.c **** 	
 2647              		.loc 1 73 51 is_stmt 0 view .LVU984
 2648 0290 0B26     		movs	r6, #11
 2649 0292 1E80     		strh	r6, [r3]	@ movhi
 2650              	.LVL176:
  73:Core/Src/lcd.c **** 	
 2651              		.loc 1 73 51 view .LVU985
 2652              	.LBE784:
 2653              	.LBE783:
 565:Core/Src/lcd.c ****     ILI9341_Write_Data(0x31); 
 2654              		.loc 1 565 5 is_stmt 1 view .LVU986
 2655              	.LBB785:
 2656              	.LBI785:
  71:Core/Src/lcd.c **** {
 2657              		.loc 1 71 7 view .LVU987
 2658              	.LBB786:
  73:Core/Src/lcd.c **** 	
 2659              		.loc 1 73 2 view .LVU988
  73:Core/Src/lcd.c **** 	
 2660              		.loc 1 73 51 is_stmt 0 view .LVU989
 2661 0294 1A26     		movs	r6, #26
 2662 0296 1E80     		strh	r6, [r3]	@ movhi
 2663              	.LVL177:
  73:Core/Src/lcd.c **** 	
 2664              		.loc 1 73 51 view .LVU990
 2665              	.LBE786:
 2666              	.LBE785:
 566:Core/Src/lcd.c ****     ILI9341_Write_Data(0x54); 
 2667              		.loc 1 566 5 is_stmt 1 view .LVU991
 2668              	.LBB787:
 2669              	.LBI787:
  71:Core/Src/lcd.c **** {
 2670              		.loc 1 71 7 view .LVU992
 2671              	.LBB788:
  73:Core/Src/lcd.c **** 	
 2672              		.loc 1 73 2 view .LVU993
ARM GAS  C:\Users\84759\AppData\Local\Temp\cc1QWPm5.s 			page 81


  73:Core/Src/lcd.c **** 	
 2673              		.loc 1 73 51 is_stmt 0 view .LVU994
 2674 0298 3126     		movs	r6, #49
 2675 029a 1E80     		strh	r6, [r3]	@ movhi
 2676              	.LVL178:
  73:Core/Src/lcd.c **** 	
 2677              		.loc 1 73 51 view .LVU995
 2678              	.LBE788:
 2679              	.LBE787:
 567:Core/Src/lcd.c ****     ILI9341_Write_Data(0x40); 
 2680              		.loc 1 567 5 is_stmt 1 view .LVU996
 2681              	.LBB789:
 2682              	.LBI789:
  71:Core/Src/lcd.c **** {
 2683              		.loc 1 71 7 view .LVU997
 2684              	.LBB790:
  73:Core/Src/lcd.c **** 	
 2685              		.loc 1 73 2 view .LVU998
  73:Core/Src/lcd.c **** 	
 2686              		.loc 1 73 51 is_stmt 0 view .LVU999
 2687 029c 5426     		movs	r6, #84
 2688 029e 1E80     		strh	r6, [r3]	@ movhi
 2689              	.LVL179:
  73:Core/Src/lcd.c **** 	
 2690              		.loc 1 73 51 view .LVU1000
 2691              	.LBE790:
 2692              	.LBE789:
 568:Core/Src/lcd.c ****     ILI9341_Write_Data(0x29); 
 2693              		.loc 1 568 5 is_stmt 1 view .LVU1001
 2694              	.LBB791:
 2695              	.LBI791:
  71:Core/Src/lcd.c **** {
 2696              		.loc 1 71 7 view .LVU1002
 2697              	.LBB792:
  73:Core/Src/lcd.c **** 	
 2698              		.loc 1 73 2 view .LVU1003
  73:Core/Src/lcd.c **** 	
 2699              		.loc 1 73 51 is_stmt 0 view .LVU1004
 2700 02a0 4026     		movs	r6, #64
 2701 02a2 1E80     		strh	r6, [r3]	@ movhi
 2702              	.LVL180:
  73:Core/Src/lcd.c **** 	
 2703              		.loc 1 73 51 view .LVU1005
 2704              	.LBE792:
 2705              	.LBE791:
 569:Core/Src/lcd.c ****     ILI9341_Write_Data(0x12); 
 2706              		.loc 1 569 5 is_stmt 1 view .LVU1006
 2707              	.LBB793:
 2708              	.LBI793:
  71:Core/Src/lcd.c **** {
 2709              		.loc 1 71 7 view .LVU1007
 2710              	.LBB794:
  73:Core/Src/lcd.c **** 	
 2711              		.loc 1 73 2 view .LVU1008
  73:Core/Src/lcd.c **** 	
 2712              		.loc 1 73 51 is_stmt 0 view .LVU1009
 2713 02a4 2926     		movs	r6, #41
ARM GAS  C:\Users\84759\AppData\Local\Temp\cc1QWPm5.s 			page 82


 2714 02a6 1E80     		strh	r6, [r3]	@ movhi
 2715              	.LVL181:
  73:Core/Src/lcd.c **** 	
 2716              		.loc 1 73 51 view .LVU1010
 2717              	.LBE794:
 2718              	.LBE793:
 570:Core/Src/lcd.c ****     ILI9341_Write_Data(0x12); 
 2719              		.loc 1 570 5 is_stmt 1 view .LVU1011
 2720              	.LBB795:
 2721              	.LBI795:
  71:Core/Src/lcd.c **** {
 2722              		.loc 1 71 7 view .LVU1012
 2723              	.LBB796:
  73:Core/Src/lcd.c **** 	
 2724              		.loc 1 73 2 view .LVU1013
  73:Core/Src/lcd.c **** 	
 2725              		.loc 1 73 51 is_stmt 0 view .LVU1014
 2726 02a8 1980     		strh	r1, [r3]	@ movhi
 2727              	.LVL182:
  73:Core/Src/lcd.c **** 	
 2728              		.loc 1 73 51 view .LVU1015
 2729              	.LBE796:
 2730              	.LBE795:
 571:Core/Src/lcd.c ****     ILI9341_Write_Data(0x12); 
 2731              		.loc 1 571 5 is_stmt 1 view .LVU1016
 2732              	.LBB797:
 2733              	.LBI797:
  71:Core/Src/lcd.c **** {
 2734              		.loc 1 71 7 view .LVU1017
 2735              	.LBB798:
  73:Core/Src/lcd.c **** 	
 2736              		.loc 1 73 2 view .LVU1018
  73:Core/Src/lcd.c **** 	
 2737              		.loc 1 73 51 is_stmt 0 view .LVU1019
 2738 02aa 1980     		strh	r1, [r3]	@ movhi
 2739              	.LVL183:
  73:Core/Src/lcd.c **** 	
 2740              		.loc 1 73 51 view .LVU1020
 2741              	.LBE798:
 2742              	.LBE797:
 572:Core/Src/lcd.c ****     ILI9341_Write_Data(0x17);
 2743              		.loc 1 572 5 is_stmt 1 view .LVU1021
 2744              	.LBB799:
 2745              	.LBI799:
  71:Core/Src/lcd.c **** {
 2746              		.loc 1 71 7 view .LVU1022
 2747              	.LBB800:
  73:Core/Src/lcd.c **** 	
 2748              		.loc 1 73 2 view .LVU1023
  73:Core/Src/lcd.c **** 	
 2749              		.loc 1 73 51 is_stmt 0 view .LVU1024
 2750 02ac 1980     		strh	r1, [r3]	@ movhi
 2751              	.LVL184:
  73:Core/Src/lcd.c **** 	
 2752              		.loc 1 73 51 view .LVU1025
 2753              	.LBE800:
 2754              	.LBE799:
ARM GAS  C:\Users\84759\AppData\Local\Temp\cc1QWPm5.s 			page 83


 573:Core/Src/lcd.c **** 
 2755              		.loc 1 573 5 is_stmt 1 view .LVU1026
 2756              	.LBB801:
 2757              	.LBI801:
  71:Core/Src/lcd.c **** {
 2758              		.loc 1 71 7 view .LVU1027
 2759              	.LBB802:
  73:Core/Src/lcd.c **** 	
 2760              		.loc 1 73 2 view .LVU1028
  73:Core/Src/lcd.c **** 	
 2761              		.loc 1 73 51 is_stmt 0 view .LVU1029
 2762 02ae A3F80090 		strh	r9, [r3]	@ movhi
 2763              	.LVL185:
  73:Core/Src/lcd.c **** 	
 2764              		.loc 1 73 51 view .LVU1030
 2765              	.LBE802:
 2766              	.LBE801:
 576:Core/Src/lcd.c ****     ILI9341_Write_Data(0xd0); 
 2767              		.loc 1 576 5 is_stmt 1 view .LVU1031
 2768              	.LBB803:
 2769              	.LBI803:
  59:Core/Src/lcd.c **** {
 2770              		.loc 1 59 7 view .LVU1032
 2771              	.LBB804:
  61:Core/Src/lcd.c **** 	
 2772              		.loc 1 61 2 view .LVU1033
  61:Core/Src/lcd.c **** 	
 2773              		.loc 1 61 50 is_stmt 0 view .LVU1034
 2774 02b2 E121     		movs	r1, #225
 2775 02b4 2180     		strh	r1, [r4]	@ movhi
 2776              	.LVL186:
  61:Core/Src/lcd.c **** 	
 2777              		.loc 1 61 50 view .LVU1035
 2778              	.LBE804:
 2779              	.LBE803:
 577:Core/Src/lcd.c ****     ILI9341_Write_Data(0x00); 
 2780              		.loc 1 577 5 is_stmt 1 view .LVU1036
 2781              	.LBB805:
 2782              	.LBI805:
  71:Core/Src/lcd.c **** {
 2783              		.loc 1 71 7 view .LVU1037
 2784              	.LBB806:
  73:Core/Src/lcd.c **** 	
 2785              		.loc 1 73 2 view .LVU1038
  73:Core/Src/lcd.c **** 	
 2786              		.loc 1 73 51 is_stmt 0 view .LVU1039
 2787 02b6 A3F80080 		strh	r8, [r3]	@ movhi
 2788              	.LVL187:
  73:Core/Src/lcd.c **** 	
 2789              		.loc 1 73 51 view .LVU1040
 2790              	.LBE806:
 2791              	.LBE805:
 578:Core/Src/lcd.c ****     ILI9341_Write_Data(0x02); 
 2792              		.loc 1 578 5 is_stmt 1 view .LVU1041
 2793              	.LBB807:
 2794              	.LBI807:
  71:Core/Src/lcd.c **** {
ARM GAS  C:\Users\84759\AppData\Local\Temp\cc1QWPm5.s 			page 84


 2795              		.loc 1 71 7 view .LVU1042
 2796              	.LBB808:
  73:Core/Src/lcd.c **** 	
 2797              		.loc 1 73 2 view .LVU1043
  73:Core/Src/lcd.c **** 	
 2798              		.loc 1 73 51 is_stmt 0 view .LVU1044
 2799 02ba 1A80     		strh	r2, [r3]	@ movhi
 2800              	.LVL188:
  73:Core/Src/lcd.c **** 	
 2801              		.loc 1 73 51 view .LVU1045
 2802              	.LBE808:
 2803              	.LBE807:
 579:Core/Src/lcd.c ****     ILI9341_Write_Data(0x07); 
 2804              		.loc 1 579 5 is_stmt 1 view .LVU1046
 2805              	.LBB809:
 2806              	.LBI809:
  71:Core/Src/lcd.c **** {
 2807              		.loc 1 71 7 view .LVU1047
 2808              	.LBB810:
  73:Core/Src/lcd.c **** 	
 2809              		.loc 1 73 2 view .LVU1048
  73:Core/Src/lcd.c **** 	
 2810              		.loc 1 73 51 is_stmt 0 view .LVU1049
 2811 02bc 1880     		strh	r0, [r3]	@ movhi
 2812              	.LVL189:
  73:Core/Src/lcd.c **** 	
 2813              		.loc 1 73 51 view .LVU1050
 2814              	.LBE810:
 2815              	.LBE809:
 580:Core/Src/lcd.c ****     ILI9341_Write_Data(0x05); 
 2816              		.loc 1 580 5 is_stmt 1 view .LVU1051
 2817              	.LBB811:
 2818              	.LBI811:
  71:Core/Src/lcd.c **** {
 2819              		.loc 1 71 7 view .LVU1052
 2820              	.LBB812:
  73:Core/Src/lcd.c **** 	
 2821              		.loc 1 73 2 view .LVU1053
  73:Core/Src/lcd.c **** 	
 2822              		.loc 1 73 51 is_stmt 0 view .LVU1054
 2823 02be A3F800E0 		strh	lr, [r3]	@ movhi
 2824              	.LVL190:
  73:Core/Src/lcd.c **** 	
 2825              		.loc 1 73 51 view .LVU1055
 2826              	.LBE812:
 2827              	.LBE811:
 581:Core/Src/lcd.c ****     ILI9341_Write_Data(0x25); 
 2828              		.loc 1 581 5 is_stmt 1 view .LVU1056
 2829              	.LBB813:
 2830              	.LBI813:
  71:Core/Src/lcd.c **** {
 2831              		.loc 1 71 7 view .LVU1057
 2832              	.LBB814:
  73:Core/Src/lcd.c **** 	
 2833              		.loc 1 73 2 view .LVU1058
  73:Core/Src/lcd.c **** 	
 2834              		.loc 1 73 51 is_stmt 0 view .LVU1059
ARM GAS  C:\Users\84759\AppData\Local\Temp\cc1QWPm5.s 			page 85


 2835 02c2 0522     		movs	r2, #5
 2836 02c4 1A80     		strh	r2, [r3]	@ movhi
 2837              	.LVL191:
  73:Core/Src/lcd.c **** 	
 2838              		.loc 1 73 51 view .LVU1060
 2839              	.LBE814:
 2840              	.LBE813:
 582:Core/Src/lcd.c ****     ILI9341_Write_Data(0x2d); 
 2841              		.loc 1 582 5 is_stmt 1 view .LVU1061
 2842              	.LBB815:
 2843              	.LBI815:
  71:Core/Src/lcd.c **** {
 2844              		.loc 1 71 7 view .LVU1062
 2845              	.LBB816:
  73:Core/Src/lcd.c **** 	
 2846              		.loc 1 73 2 view .LVU1063
  73:Core/Src/lcd.c **** 	
 2847              		.loc 1 73 51 is_stmt 0 view .LVU1064
 2848 02c6 2522     		movs	r2, #37
 2849 02c8 1A80     		strh	r2, [r3]	@ movhi
 2850              	.LVL192:
  73:Core/Src/lcd.c **** 	
 2851              		.loc 1 73 51 view .LVU1065
 2852              	.LBE816:
 2853              	.LBE815:
 583:Core/Src/lcd.c ****     ILI9341_Write_Data(0x44); 
 2854              		.loc 1 583 5 is_stmt 1 view .LVU1066
 2855              	.LBB817:
 2856              	.LBI817:
  71:Core/Src/lcd.c **** {
 2857              		.loc 1 71 7 view .LVU1067
 2858              	.LBB818:
  73:Core/Src/lcd.c **** 	
 2859              		.loc 1 73 2 view .LVU1068
  73:Core/Src/lcd.c **** 	
 2860              		.loc 1 73 51 is_stmt 0 view .LVU1069
 2861 02ca A3F800C0 		strh	ip, [r3]	@ movhi
 2862              	.LVL193:
  73:Core/Src/lcd.c **** 	
 2863              		.loc 1 73 51 view .LVU1070
 2864              	.LBE818:
 2865              	.LBE817:
 584:Core/Src/lcd.c ****     ILI9341_Write_Data(0x45); 
 2866              		.loc 1 584 5 is_stmt 1 view .LVU1071
 2867              	.LBB819:
 2868              	.LBI819:
  71:Core/Src/lcd.c **** {
 2869              		.loc 1 71 7 view .LVU1072
 2870              	.LBB820:
  73:Core/Src/lcd.c **** 	
 2871              		.loc 1 73 2 view .LVU1073
  73:Core/Src/lcd.c **** 	
 2872              		.loc 1 73 51 is_stmt 0 view .LVU1074
 2873 02ce 4422     		movs	r2, #68
 2874 02d0 1A80     		strh	r2, [r3]	@ movhi
 2875              	.LVL194:
  73:Core/Src/lcd.c **** 	
ARM GAS  C:\Users\84759\AppData\Local\Temp\cc1QWPm5.s 			page 86


 2876              		.loc 1 73 51 view .LVU1075
 2877              	.LBE820:
 2878              	.LBE819:
 585:Core/Src/lcd.c ****     ILI9341_Write_Data(0x1c); 
 2879              		.loc 1 585 5 is_stmt 1 view .LVU1076
 2880              	.LBB821:
 2881              	.LBI821:
  71:Core/Src/lcd.c **** {
 2882              		.loc 1 71 7 view .LVU1077
 2883              	.LBB822:
  73:Core/Src/lcd.c **** 	
 2884              		.loc 1 73 2 view .LVU1078
  73:Core/Src/lcd.c **** 	
 2885              		.loc 1 73 51 is_stmt 0 view .LVU1079
 2886 02d2 4522     		movs	r2, #69
 2887 02d4 1A80     		strh	r2, [r3]	@ movhi
 2888              	.LVL195:
  73:Core/Src/lcd.c **** 	
 2889              		.loc 1 73 51 view .LVU1080
 2890              	.LBE822:
 2891              	.LBE821:
 586:Core/Src/lcd.c ****     ILI9341_Write_Data(0x18); 
 2892              		.loc 1 586 5 is_stmt 1 view .LVU1081
 2893              	.LBB823:
 2894              	.LBI823:
  71:Core/Src/lcd.c **** {
 2895              		.loc 1 71 7 view .LVU1082
 2896              	.LBB824:
  73:Core/Src/lcd.c **** 	
 2897              		.loc 1 73 2 view .LVU1083
  73:Core/Src/lcd.c **** 	
 2898              		.loc 1 73 51 is_stmt 0 view .LVU1084
 2899 02d6 1C22     		movs	r2, #28
 2900 02d8 1A80     		strh	r2, [r3]	@ movhi
 2901              	.LVL196:
  73:Core/Src/lcd.c **** 	
 2902              		.loc 1 73 51 view .LVU1085
 2903              	.LBE824:
 2904              	.LBE823:
 587:Core/Src/lcd.c ****     ILI9341_Write_Data(0x16); 
 2905              		.loc 1 587 5 is_stmt 1 view .LVU1086
 2906              	.LBB825:
 2907              	.LBI825:
  71:Core/Src/lcd.c **** {
 2908              		.loc 1 71 7 view .LVU1087
 2909              	.LBB826:
  73:Core/Src/lcd.c **** 	
 2910              		.loc 1 73 2 view .LVU1088
  73:Core/Src/lcd.c **** 	
 2911              		.loc 1 73 51 is_stmt 0 view .LVU1089
 2912 02da 1821     		movs	r1, #24
 2913 02dc 1980     		strh	r1, [r3]	@ movhi
 2914              	.LVL197:
  73:Core/Src/lcd.c **** 	
 2915              		.loc 1 73 51 view .LVU1090
 2916              	.LBE826:
 2917              	.LBE825:
ARM GAS  C:\Users\84759\AppData\Local\Temp\cc1QWPm5.s 			page 87


 588:Core/Src/lcd.c ****     ILI9341_Write_Data(0x1c); 
 2918              		.loc 1 588 5 is_stmt 1 view .LVU1091
 2919              	.LBB827:
 2920              	.LBI827:
  71:Core/Src/lcd.c **** {
 2921              		.loc 1 71 7 view .LVU1092
 2922              	.LBB828:
  73:Core/Src/lcd.c **** 	
 2923              		.loc 1 73 2 view .LVU1093
  73:Core/Src/lcd.c **** 	
 2924              		.loc 1 73 51 is_stmt 0 view .LVU1094
 2925 02de 1621     		movs	r1, #22
 2926 02e0 1980     		strh	r1, [r3]	@ movhi
 2927              	.LVL198:
  73:Core/Src/lcd.c **** 	
 2928              		.loc 1 73 51 view .LVU1095
 2929              	.LBE828:
 2930              	.LBE827:
 589:Core/Src/lcd.c ****     ILI9341_Write_Data(0x1d); 
 2931              		.loc 1 589 5 is_stmt 1 view .LVU1096
 2932              	.LBB829:
 2933              	.LBI829:
  71:Core/Src/lcd.c **** {
 2934              		.loc 1 71 7 view .LVU1097
 2935              	.LBB830:
  73:Core/Src/lcd.c **** 	
 2936              		.loc 1 73 2 view .LVU1098
  73:Core/Src/lcd.c **** 	
 2937              		.loc 1 73 51 is_stmt 0 view .LVU1099
 2938 02e2 1A80     		strh	r2, [r3]	@ movhi
 2939              	.LVL199:
  73:Core/Src/lcd.c **** 	
 2940              		.loc 1 73 51 view .LVU1100
 2941              	.LBE830:
 2942              	.LBE829:
 590:Core/Src/lcd.c ****   
 2943              		.loc 1 590 5 is_stmt 1 view .LVU1101
 2944              	.LBB831:
 2945              	.LBI831:
  71:Core/Src/lcd.c **** {
 2946              		.loc 1 71 7 view .LVU1102
 2947              	.LBB832:
  73:Core/Src/lcd.c **** 	
 2948              		.loc 1 73 2 view .LVU1103
  73:Core/Src/lcd.c **** 	
 2949              		.loc 1 73 51 is_stmt 0 view .LVU1104
 2950 02e4 1D22     		movs	r2, #29
 2951 02e6 1A80     		strh	r2, [r3]	@ movhi
 2952              	.LVL200:
  73:Core/Src/lcd.c **** 	
 2953              		.loc 1 73 51 view .LVU1105
 2954              	.LBE832:
 2955              	.LBE831:
 610:Core/Src/lcd.c ****     ILI9341_Delay ( 0xAFFf<<2 );
 2956              		.loc 1 610 5 is_stmt 1 view .LVU1106
 2957              	.LBB833:
 2958              	.LBI833:
ARM GAS  C:\Users\84759\AppData\Local\Temp\cc1QWPm5.s 			page 88


  59:Core/Src/lcd.c **** {
 2959              		.loc 1 59 7 view .LVU1107
 2960              	.LBB834:
  61:Core/Src/lcd.c **** 	
 2961              		.loc 1 61 2 view .LVU1108
  61:Core/Src/lcd.c **** 	
 2962              		.loc 1 61 50 is_stmt 0 view .LVU1109
 2963 02e8 2780     		strh	r7, [r4]	@ movhi
 2964              	.LVL201:
  61:Core/Src/lcd.c **** 	
 2965              		.loc 1 61 50 view .LVU1110
 2966              	.LBE834:
 2967              	.LBE833:
 611:Core/Src/lcd.c ****     DEBUG_DELAY ();
 2968              		.loc 1 611 5 is_stmt 1 view .LVU1111
 2969 02ea 0348     		ldr	r0, .L32
 2970 02ec FFF7FEFF 		bl	ILI9341_Delay
 2971              	.LVL202:
 612:Core/Src/lcd.c ****     
 2972              		.loc 1 612 19 view .LVU1112
 615:Core/Src/lcd.c ****     
 2973              		.loc 1 615 5 view .LVU1113
 2974              	.LBB835:
 2975              	.LBI835:
  59:Core/Src/lcd.c **** {
 2976              		.loc 1 59 7 view .LVU1114
 2977              	.LBB836:
  61:Core/Src/lcd.c **** 	
 2978              		.loc 1 61 2 view .LVU1115
  61:Core/Src/lcd.c **** 	
 2979              		.loc 1 61 50 is_stmt 0 view .LVU1116
 2980 02f0 2680     		strh	r6, [r4]	@ movhi
 2981              	.LVL203:
  61:Core/Src/lcd.c **** 	
 2982              		.loc 1 61 50 view .LVU1117
 2983              	.LBE836:
 2984              	.LBE835:
 617:Core/Src/lcd.c ****   }
 2985              		.loc 1 617 5 is_stmt 1 view .LVU1118
 2986              	.LBB837:
 2987              	.LBI837:
  59:Core/Src/lcd.c **** {
 2988              		.loc 1 59 7 view .LVU1119
 2989              	.LBB838:
  61:Core/Src/lcd.c **** 	
 2990              		.loc 1 61 2 view .LVU1120
  61:Core/Src/lcd.c **** 	
 2991              		.loc 1 61 50 is_stmt 0 view .LVU1121
 2992 02f2 2580     		strh	r5, [r4]	@ movhi
 2993              	.LVL204:
  61:Core/Src/lcd.c **** 	
 2994              		.loc 1 61 50 view .LVU1122
 2995              	.LBE838:
 2996              	.LBE837:
 620:Core/Src/lcd.c **** 
 2997              		.loc 1 620 1 view .LVU1123
 2998 02f4 93E6     		b	.L24
ARM GAS  C:\Users\84759\AppData\Local\Temp\cc1QWPm5.s 			page 89


 2999              	.L33:
 3000 02f6 00BF     		.align	2
 3001              	.L32:
 3002 02f8 FCBF0200 		.word	180220
 3003              		.cfi_endproc
 3004              	.LFE71:
 3006              		.section	.text.ILI9341_Rst,"ax",%progbits
 3007              		.align	1
 3008              		.global	ILI9341_Rst
 3009              		.syntax unified
 3010              		.thumb
 3011              		.thumb_func
 3013              	ILI9341_Rst:
 3014              	.LFB75:
 710:Core/Src/lcd.c **** 	digitalL( GPIOG,GPIO_PIN_11);	 //µÍµçĆ˝¸´Î»
 3015              		.loc 1 710 1 is_stmt 1 view -0
 3016              		.cfi_startproc
 3017              		@ args = 0, pretend = 0, frame = 0
 3018              		@ frame_needed = 0, uses_anonymous_args = 0
 3019 0000 10B5     		push	{r4, lr}
 3020              	.LCFI7:
 3021              		.cfi_def_cfa_offset 8
 3022              		.cfi_offset 4, -8
 3023              		.cfi_offset 14, -4
 711:Core/Src/lcd.c **** 
 3024              		.loc 1 711 2 view .LVU1125
 3025 0002 084C     		ldr	r4, .L36
 3026 0004 4FF00063 		mov	r3, #134217728
 3027 0008 2361     		str	r3, [r4, #16]
 711:Core/Src/lcd.c **** 
 3028              		.loc 1 711 30 view .LVU1126
 713:Core/Src/lcd.c **** 
 3029              		.loc 1 713 2 view .LVU1127
 3030 000a 40F6FF20 		movw	r0, #2815
 3031 000e FFF7FEFF 		bl	ILI9341_Delay
 3032              	.LVL205:
 715:Core/Src/lcd.c **** 
 3033              		.loc 1 715 2 view .LVU1128
 3034 0012 4FF40063 		mov	r3, #2048
 3035 0016 2361     		str	r3, [r4, #16]
 715:Core/Src/lcd.c **** 
 3036              		.loc 1 715 30 view .LVU1129
 717:Core/Src/lcd.c **** 	
 3037              		.loc 1 717 2 view .LVU1130
 3038 0018 40F6FF20 		movw	r0, #2815
 3039 001c FFF7FEFF 		bl	ILI9341_Delay
 3040              	.LVL206:
 719:Core/Src/lcd.c **** 
 3041              		.loc 1 719 1 is_stmt 0 view .LVU1131
 3042 0020 10BD     		pop	{r4, pc}
 3043              	.L37:
 3044 0022 00BF     		.align	2
 3045              	.L36:
 3046 0024 00200140 		.word	1073815552
 3047              		.cfi_endproc
 3048              	.LFE75:
 3050              		.section	.text.ILI9341_GramScan,"ax",%progbits
ARM GAS  C:\Users\84759\AppData\Local\Temp\cc1QWPm5.s 			page 90


 3051              		.align	1
 3052              		.global	ILI9341_GramScan
 3053              		.syntax unified
 3054              		.thumb
 3055              		.thumb_func
 3057              	ILI9341_GramScan:
 3058              	.LVL207:
 3059              	.LFB76:
 772:Core/Src/lcd.c **** 	//˛ÎĘýĽě˛éŁ¬Ö»żÉĘäČë0-7
 3060              		.loc 1 772 1 is_stmt 1 view -0
 3061              		.cfi_startproc
 3062              		@ args = 0, pretend = 0, frame = 0
 3063              		@ frame_needed = 0, uses_anonymous_args = 0
 3064              		@ link register save eliminated.
 774:Core/Src/lcd.c **** 		return;
 3065              		.loc 1 774 2 view .LVU1133
 774:Core/Src/lcd.c **** 		return;
 3066              		.loc 1 774 4 is_stmt 0 view .LVU1134
 3067 0000 0728     		cmp	r0, #7
 3068 0002 53D8     		bhi	.L45
 772:Core/Src/lcd.c **** 	//˛ÎĘýĽě˛éŁ¬Ö»żÉĘäČë0-7
 3069              		.loc 1 772 1 view .LVU1135
 3070 0004 10B4     		push	{r4}
 3071              	.LCFI8:
 3072              		.cfi_def_cfa_offset 4
 3073              		.cfi_offset 4, -4
 778:Core/Src/lcd.c **** 	
 3074              		.loc 1 778 2 is_stmt 1 view .LVU1136
 778:Core/Src/lcd.c **** 	
 3075              		.loc 1 778 16 is_stmt 0 view .LVU1137
 3076 0006 2A4B     		ldr	r3, .L50
 3077 0008 1870     		strb	r0, [r3]
 781:Core/Src/lcd.c **** 	{
 3078              		.loc 1 781 2 is_stmt 1 view .LVU1138
 781:Core/Src/lcd.c **** 	{
 3079              		.loc 1 781 4 is_stmt 0 view .LVU1139
 3080 000a 10F0010F 		tst	r0, #1
 3081 000e 39D1     		bne	.L40
 784:Core/Src/lcd.c **** 		LCD_Y_LENGTH =	ILI9341_MORE_PIXEL;
 3082              		.loc 1 784 3 is_stmt 1 view .LVU1140
 784:Core/Src/lcd.c **** 		LCD_Y_LENGTH =	ILI9341_MORE_PIXEL;
 3083              		.loc 1 784 16 is_stmt 0 view .LVU1141
 3084 0010 284B     		ldr	r3, .L50+4
 3085 0012 F022     		movs	r2, #240
 3086 0014 1A80     		strh	r2, [r3]	@ movhi
 785:Core/Src/lcd.c **** 	}
 3087              		.loc 1 785 3 is_stmt 1 view .LVU1142
 785:Core/Src/lcd.c **** 	}
 3088              		.loc 1 785 16 is_stmt 0 view .LVU1143
 3089 0016 284B     		ldr	r3, .L50+8
 3090 0018 4FF4A072 		mov	r2, #320
 3091 001c 1A80     		strh	r2, [r3]	@ movhi
 3092              	.L41:
 795:Core/Src/lcd.c **** 	if(lcdid == LCDID_ILI9341)
 3093              		.loc 1 795 2 is_stmt 1 view .LVU1144
 3094              	.LVL208:
 3095              	.LBB839:
ARM GAS  C:\Users\84759\AppData\Local\Temp\cc1QWPm5.s 			page 91


 3096              	.LBI839:
  59:Core/Src/lcd.c **** {
 3097              		.loc 1 59 7 view .LVU1145
 3098              	.LBB840:
  61:Core/Src/lcd.c **** 	
 3099              		.loc 1 61 2 view .LVU1146
  61:Core/Src/lcd.c **** 	
 3100              		.loc 1 61 50 is_stmt 0 view .LVU1147
 3101 001e 4FF0D843 		mov	r3, #1811939328
 3102 0022 3622     		movs	r2, #54
 3103 0024 1A80     		strh	r2, [r3]	@ movhi
 3104              	.LVL209:
  61:Core/Src/lcd.c **** 	
 3105              		.loc 1 61 50 view .LVU1148
 3106              	.LBE840:
 3107              	.LBE839:
 796:Core/Src/lcd.c ****   {
 3108              		.loc 1 796 2 is_stmt 1 view .LVU1149
 796:Core/Src/lcd.c ****   {
 3109              		.loc 1 796 11 is_stmt 0 view .LVU1150
 3110 0026 254B     		ldr	r3, .L50+12
 3111 0028 1B88     		ldrh	r3, [r3]
 796:Core/Src/lcd.c ****   {
 3112              		.loc 1 796 4 view .LVU1151
 3113 002a 49F24132 		movw	r2, #37697
 3114 002e 9342     		cmp	r3, r2
 3115 0030 30D0     		beq	.L48
 800:Core/Src/lcd.c ****   {
 3116              		.loc 1 800 8 is_stmt 1 view .LVU1152
 800:Core/Src/lcd.c ****   {
 3117              		.loc 1 800 10 is_stmt 0 view .LVU1153
 3118 0032 48F25252 		movw	r2, #34130
 3119 0036 9342     		cmp	r3, r2
 3120 0038 33D0     		beq	.L49
 3121              	.LVL210:
 3122              	.L43:
 804:Core/Src/lcd.c **** 	ILI9341_Write_Data ( 0x00 );		/* x ĆđĘĽ×ř±ę¸ß8Î» */
 3123              		.loc 1 804 2 is_stmt 1 view .LVU1154
 3124              	.LBB841:
 3125              	.LBI841:
  59:Core/Src/lcd.c **** {
 3126              		.loc 1 59 7 view .LVU1155
 3127              	.LBB842:
  61:Core/Src/lcd.c **** 	
 3128              		.loc 1 61 2 view .LVU1156
  61:Core/Src/lcd.c **** 	
 3129              		.loc 1 61 50 is_stmt 0 view .LVU1157
 3130 003a 4FF0D841 		mov	r1, #1811939328
 3131 003e 2A23     		movs	r3, #42
 3132 0040 0B80     		strh	r3, [r1]	@ movhi
 3133              	.LVL211:
  61:Core/Src/lcd.c **** 	
 3134              		.loc 1 61 50 view .LVU1158
 3135              	.LBE842:
 3136              	.LBE841:
 805:Core/Src/lcd.c **** 	ILI9341_Write_Data ( 0x00 );		/* x ĆđĘĽ×ř±ęµÍ8Î» */
 3137              		.loc 1 805 2 is_stmt 1 view .LVU1159
ARM GAS  C:\Users\84759\AppData\Local\Temp\cc1QWPm5.s 			page 92


 3138              	.LBB843:
 3139              	.LBI843:
  71:Core/Src/lcd.c **** {
 3140              		.loc 1 71 7 view .LVU1160
 3141              	.LBB844:
  73:Core/Src/lcd.c **** 	
 3142              		.loc 1 73 2 view .LVU1161
  73:Core/Src/lcd.c **** 	
 3143              		.loc 1 73 51 is_stmt 0 view .LVU1162
 3144 0042 4FF0DA43 		mov	r3, #1828716544
 3145 0046 0020     		movs	r0, #0
 3146 0048 1880     		strh	r0, [r3]	@ movhi
 3147              	.LVL212:
  73:Core/Src/lcd.c **** 	
 3148              		.loc 1 73 51 view .LVU1163
 3149              	.LBE844:
 3150              	.LBE843:
 806:Core/Src/lcd.c **** 	ILI9341_Write_Data ( ((LCD_X_LENGTH-1)>>8)&0xFF ); /* x ˝áĘř×ř±ę¸ß8Î» */	
 3151              		.loc 1 806 2 is_stmt 1 view .LVU1164
 3152              	.LBB845:
 3153              	.LBI845:
  71:Core/Src/lcd.c **** {
 3154              		.loc 1 71 7 view .LVU1165
 3155              	.LBB846:
  73:Core/Src/lcd.c **** 	
 3156              		.loc 1 73 2 view .LVU1166
  73:Core/Src/lcd.c **** 	
 3157              		.loc 1 73 51 is_stmt 0 view .LVU1167
 3158 004a 1880     		strh	r0, [r3]	@ movhi
 3159              	.LVL213:
  73:Core/Src/lcd.c **** 	
 3160              		.loc 1 73 51 view .LVU1168
 3161              	.LBE846:
 3162              	.LBE845:
 807:Core/Src/lcd.c **** 	ILI9341_Write_Data ( (LCD_X_LENGTH-1)&0xFF );				/* x ˝áĘř×ř±ęµÍ8Î» */
 3163              		.loc 1 807 2 is_stmt 1 view .LVU1169
 807:Core/Src/lcd.c **** 	ILI9341_Write_Data ( (LCD_X_LENGTH-1)&0xFF );				/* x ˝áĘř×ř±ęµÍ8Î» */
 3164              		.loc 1 807 37 is_stmt 0 view .LVU1170
 3165 004c 194C     		ldr	r4, .L50+4
 3166 004e 2288     		ldrh	r2, [r4]
 3167 0050 013A     		subs	r2, r2, #1
 807:Core/Src/lcd.c **** 	ILI9341_Write_Data ( (LCD_X_LENGTH-1)&0xFF );				/* x ˝áĘř×ř±ęµÍ8Î» */
 3168              		.loc 1 807 2 view .LVU1171
 3169 0052 C2F30722 		ubfx	r2, r2, #8, #8
 3170              	.LVL214:
 3171              	.LBB847:
 3172              	.LBI847:
  71:Core/Src/lcd.c **** {
 3173              		.loc 1 71 7 is_stmt 1 view .LVU1172
 3174              	.LBB848:
  73:Core/Src/lcd.c **** 	
 3175              		.loc 1 73 2 view .LVU1173
  73:Core/Src/lcd.c **** 	
 3176              		.loc 1 73 51 is_stmt 0 view .LVU1174
 3177 0056 1A80     		strh	r2, [r3]	@ movhi
 3178              	.LVL215:
  73:Core/Src/lcd.c **** 	
ARM GAS  C:\Users\84759\AppData\Local\Temp\cc1QWPm5.s 			page 93


 3179              		.loc 1 73 51 view .LVU1175
 3180              	.LBE848:
 3181              	.LBE847:
 808:Core/Src/lcd.c **** 
 3182              		.loc 1 808 2 is_stmt 1 view .LVU1176
 808:Core/Src/lcd.c **** 
 3183              		.loc 1 808 39 is_stmt 0 view .LVU1177
 3184 0058 2288     		ldrh	r2, [r4]
 808:Core/Src/lcd.c **** 
 3185              		.loc 1 808 36 view .LVU1178
 3186 005a 013A     		subs	r2, r2, #1
 808:Core/Src/lcd.c **** 
 3187              		.loc 1 808 2 view .LVU1179
 3188 005c D2B2     		uxtb	r2, r2
 3189              	.LVL216:
 3190              	.LBB849:
 3191              	.LBI849:
  71:Core/Src/lcd.c **** {
 3192              		.loc 1 71 7 is_stmt 1 view .LVU1180
 3193              	.LBB850:
  73:Core/Src/lcd.c **** 	
 3194              		.loc 1 73 2 view .LVU1181
  73:Core/Src/lcd.c **** 	
 3195              		.loc 1 73 51 is_stmt 0 view .LVU1182
 3196 005e 1A80     		strh	r2, [r3]	@ movhi
 3197              	.LVL217:
  73:Core/Src/lcd.c **** 	
 3198              		.loc 1 73 51 view .LVU1183
 3199              	.LBE850:
 3200              	.LBE849:
 810:Core/Src/lcd.c **** 	ILI9341_Write_Data ( 0x00 );		/* y ĆđĘĽ×ř±ę¸ß8Î» */
 3201              		.loc 1 810 2 is_stmt 1 view .LVU1184
 3202              	.LBB851:
 3203              	.LBI851:
  59:Core/Src/lcd.c **** {
 3204              		.loc 1 59 7 view .LVU1185
 3205              	.LBB852:
  61:Core/Src/lcd.c **** 	
 3206              		.loc 1 61 2 view .LVU1186
  61:Core/Src/lcd.c **** 	
 3207              		.loc 1 61 50 is_stmt 0 view .LVU1187
 3208 0060 2B22     		movs	r2, #43
 3209 0062 0A80     		strh	r2, [r1]	@ movhi
 3210              	.LVL218:
  61:Core/Src/lcd.c **** 	
 3211              		.loc 1 61 50 view .LVU1188
 3212              	.LBE852:
 3213              	.LBE851:
 811:Core/Src/lcd.c **** 	ILI9341_Write_Data ( 0x00 );		/* y ĆđĘĽ×ř±ęµÍ8Î» */
 3214              		.loc 1 811 2 is_stmt 1 view .LVU1189
 3215              	.LBB853:
 3216              	.LBI853:
  71:Core/Src/lcd.c **** {
 3217              		.loc 1 71 7 view .LVU1190
 3218              	.LBB854:
  73:Core/Src/lcd.c **** 	
 3219              		.loc 1 73 2 view .LVU1191
ARM GAS  C:\Users\84759\AppData\Local\Temp\cc1QWPm5.s 			page 94


  73:Core/Src/lcd.c **** 	
 3220              		.loc 1 73 51 is_stmt 0 view .LVU1192
 3221 0064 1880     		strh	r0, [r3]	@ movhi
 3222              	.LVL219:
  73:Core/Src/lcd.c **** 	
 3223              		.loc 1 73 51 view .LVU1193
 3224              	.LBE854:
 3225              	.LBE853:
 812:Core/Src/lcd.c **** 	ILI9341_Write_Data ( ((LCD_Y_LENGTH-1)>>8)&0xFF );	/* y ˝áĘř×ř±ę¸ß8Î» */	 
 3226              		.loc 1 812 2 is_stmt 1 view .LVU1194
 3227              	.LBB855:
 3228              	.LBI855:
  71:Core/Src/lcd.c **** {
 3229              		.loc 1 71 7 view .LVU1195
 3230              	.LBB856:
  73:Core/Src/lcd.c **** 	
 3231              		.loc 1 73 2 view .LVU1196
  73:Core/Src/lcd.c **** 	
 3232              		.loc 1 73 51 is_stmt 0 view .LVU1197
 3233 0066 1880     		strh	r0, [r3]	@ movhi
 3234              	.LVL220:
  73:Core/Src/lcd.c **** 	
 3235              		.loc 1 73 51 view .LVU1198
 3236              	.LBE856:
 3237              	.LBE855:
 813:Core/Src/lcd.c **** 	ILI9341_Write_Data ( (LCD_Y_LENGTH-1)&0xFF );				/* y ˝áĘř×ř±ęµÍ8Î» */
 3238              		.loc 1 813 2 is_stmt 1 view .LVU1199
 813:Core/Src/lcd.c **** 	ILI9341_Write_Data ( (LCD_Y_LENGTH-1)&0xFF );				/* y ˝áĘř×ř±ęµÍ8Î» */
 3239              		.loc 1 813 37 is_stmt 0 view .LVU1200
 3240 0068 1348     		ldr	r0, .L50+8
 3241 006a 0288     		ldrh	r2, [r0]
 3242 006c 013A     		subs	r2, r2, #1
 813:Core/Src/lcd.c **** 	ILI9341_Write_Data ( (LCD_Y_LENGTH-1)&0xFF );				/* y ˝áĘř×ř±ęµÍ8Î» */
 3243              		.loc 1 813 2 view .LVU1201
 3244 006e C2F30722 		ubfx	r2, r2, #8, #8
 3245              	.LVL221:
 3246              	.LBB857:
 3247              	.LBI857:
  71:Core/Src/lcd.c **** {
 3248              		.loc 1 71 7 is_stmt 1 view .LVU1202
 3249              	.LBB858:
  73:Core/Src/lcd.c **** 	
 3250              		.loc 1 73 2 view .LVU1203
  73:Core/Src/lcd.c **** 	
 3251              		.loc 1 73 51 is_stmt 0 view .LVU1204
 3252 0072 1A80     		strh	r2, [r3]	@ movhi
 3253              	.LVL222:
  73:Core/Src/lcd.c **** 	
 3254              		.loc 1 73 51 view .LVU1205
 3255              	.LBE858:
 3256              	.LBE857:
 814:Core/Src/lcd.c **** 
 3257              		.loc 1 814 2 is_stmt 1 view .LVU1206
 814:Core/Src/lcd.c **** 
 3258              		.loc 1 814 39 is_stmt 0 view .LVU1207
 3259 0074 0288     		ldrh	r2, [r0]
 814:Core/Src/lcd.c **** 
ARM GAS  C:\Users\84759\AppData\Local\Temp\cc1QWPm5.s 			page 95


 3260              		.loc 1 814 36 view .LVU1208
 3261 0076 013A     		subs	r2, r2, #1
 814:Core/Src/lcd.c **** 
 3262              		.loc 1 814 2 view .LVU1209
 3263 0078 D2B2     		uxtb	r2, r2
 3264              	.LVL223:
 3265              	.LBB859:
 3266              	.LBI859:
  71:Core/Src/lcd.c **** {
 3267              		.loc 1 71 7 is_stmt 1 view .LVU1210
 3268              	.LBB860:
  73:Core/Src/lcd.c **** 	
 3269              		.loc 1 73 2 view .LVU1211
  73:Core/Src/lcd.c **** 	
 3270              		.loc 1 73 51 is_stmt 0 view .LVU1212
 3271 007a 1A80     		strh	r2, [r3]	@ movhi
 3272              	.LVL224:
  73:Core/Src/lcd.c **** 	
 3273              		.loc 1 73 51 view .LVU1213
 3274              	.LBE860:
 3275              	.LBE859:
 817:Core/Src/lcd.c **** }
 3276              		.loc 1 817 2 is_stmt 1 view .LVU1214
 3277              	.LBB861:
 3278              	.LBI861:
  59:Core/Src/lcd.c **** {
 3279              		.loc 1 59 7 view .LVU1215
 3280              	.LBB862:
  61:Core/Src/lcd.c **** 	
 3281              		.loc 1 61 2 view .LVU1216
  61:Core/Src/lcd.c **** 	
 3282              		.loc 1 61 50 is_stmt 0 view .LVU1217
 3283 007c 2C23     		movs	r3, #44
 3284 007e 0B80     		strh	r3, [r1]	@ movhi
 3285              	.LVL225:
  61:Core/Src/lcd.c **** 	
 3286              		.loc 1 61 50 view .LVU1218
 3287              	.LBE862:
 3288              	.LBE861:
 818:Core/Src/lcd.c **** 
 3289              		.loc 1 818 1 view .LVU1219
 3290 0080 10BC     		pop	{r4}
 3291              	.LCFI9:
 3292              		.cfi_remember_state
 3293              		.cfi_restore 4
 3294              		.cfi_def_cfa_offset 0
 3295 0082 7047     		bx	lr
 3296              	.LVL226:
 3297              	.L40:
 3298              	.LCFI10:
 3299              		.cfi_restore_state
 790:Core/Src/lcd.c **** 		LCD_Y_LENGTH =	ILI9341_LESS_PIXEL; 
 3300              		.loc 1 790 3 is_stmt 1 view .LVU1220
 790:Core/Src/lcd.c **** 		LCD_Y_LENGTH =	ILI9341_LESS_PIXEL; 
 3301              		.loc 1 790 16 is_stmt 0 view .LVU1221
 3302 0084 0B4B     		ldr	r3, .L50+4
 3303 0086 4FF4A072 		mov	r2, #320
ARM GAS  C:\Users\84759\AppData\Local\Temp\cc1QWPm5.s 			page 96


 3304 008a 1A80     		strh	r2, [r3]	@ movhi
 791:Core/Src/lcd.c **** 	}
 3305              		.loc 1 791 3 is_stmt 1 view .LVU1222
 791:Core/Src/lcd.c **** 	}
 3306              		.loc 1 791 16 is_stmt 0 view .LVU1223
 3307 008c 0A4B     		ldr	r3, .L50+8
 3308 008e F022     		movs	r2, #240
 3309 0090 1A80     		strh	r2, [r3]	@ movhi
 3310 0092 C4E7     		b	.L41
 3311              	.L48:
 798:Core/Src/lcd.c ****   }
 3312              		.loc 1 798 5 is_stmt 1 view .LVU1224
 798:Core/Src/lcd.c ****   }
 3313              		.loc 1 798 41 is_stmt 0 view .LVU1225
 3314 0094 4001     		lsls	r0, r0, #5
 3315              	.LVL227:
 798:Core/Src/lcd.c ****   }
 3316              		.loc 1 798 5 view .LVU1226
 3317 0096 40F00800 		orr	r0, r0, #8
 3318              	.LVL228:
 3319              	.LBB863:
 3320              	.LBI863:
  71:Core/Src/lcd.c **** {
 3321              		.loc 1 71 7 is_stmt 1 view .LVU1227
 3322              	.LBB864:
  73:Core/Src/lcd.c **** 	
 3323              		.loc 1 73 2 view .LVU1228
  73:Core/Src/lcd.c **** 	
 3324              		.loc 1 73 51 is_stmt 0 view .LVU1229
 3325 009a 4FF0DA43 		mov	r3, #1828716544
 3326 009e 1880     		strh	r0, [r3]	@ movhi
  75:Core/Src/lcd.c **** 
 3327              		.loc 1 75 1 view .LVU1230
 3328 00a0 CBE7     		b	.L43
 3329              	.LVL229:
 3330              	.L49:
  75:Core/Src/lcd.c **** 
 3331              		.loc 1 75 1 view .LVU1231
 3332              	.LBE864:
 3333              	.LBE863:
 802:Core/Src/lcd.c ****   }
 3334              		.loc 1 802 5 is_stmt 1 view .LVU1232
 3335 00a2 4001     		lsls	r0, r0, #5
 3336              	.LVL230:
 3337              	.LBB865:
 3338              	.LBI865:
  71:Core/Src/lcd.c **** {
 3339              		.loc 1 71 7 view .LVU1233
 3340              	.LBB866:
  73:Core/Src/lcd.c **** 	
 3341              		.loc 1 73 2 view .LVU1234
  73:Core/Src/lcd.c **** 	
 3342              		.loc 1 73 51 is_stmt 0 view .LVU1235
 3343 00a4 4FF0DA43 		mov	r3, #1828716544
 3344 00a8 1880     		strh	r0, [r3]	@ movhi
  75:Core/Src/lcd.c **** 
 3345              		.loc 1 75 1 view .LVU1236
ARM GAS  C:\Users\84759\AppData\Local\Temp\cc1QWPm5.s 			page 97


 3346 00aa C6E7     		b	.L43
 3347              	.LVL231:
 3348              	.L45:
 3349              	.LCFI11:
 3350              		.cfi_def_cfa_offset 0
 3351              		.cfi_restore 4
  75:Core/Src/lcd.c **** 
 3352              		.loc 1 75 1 view .LVU1237
 3353 00ac 7047     		bx	lr
 3354              	.L51:
 3355 00ae 00BF     		.align	2
 3356              	.L50:
 3357 00b0 00000000 		.word	.LANCHOR3
 3358 00b4 00000000 		.word	.LANCHOR4
 3359 00b8 00000000 		.word	.LANCHOR5
 3360 00bc 00000000 		.word	.LANCHOR2
 3361              	.LBE866:
 3362              	.LBE865:
 3363              		.cfi_endproc
 3364              	.LFE76:
 3366              		.section	.text.ILI9341_Init,"ax",%progbits
 3367              		.align	1
 3368              		.global	ILI9341_Init
 3369              		.syntax unified
 3370              		.thumb
 3371              		.thumb_func
 3373              	ILI9341_Init:
 3374              	.LFB72:
 630:Core/Src/lcd.c **** 	ILI9341_GPIO_Config ();
 3375              		.loc 1 630 1 is_stmt 1 view -0
 3376              		.cfi_startproc
 3377              		@ args = 0, pretend = 0, frame = 0
 3378              		@ frame_needed = 0, uses_anonymous_args = 0
 3379 0000 08B5     		push	{r3, lr}
 3380              	.LCFI12:
 3381              		.cfi_def_cfa_offset 8
 3382              		.cfi_offset 3, -8
 3383              		.cfi_offset 14, -4
 631:Core/Src/lcd.c **** 	ILI9341_FSMC_Config ();
 3384              		.loc 1 631 2 view .LVU1239
 3385 0002 FFF7FEFF 		bl	ILI9341_GPIO_Config
 3386              	.LVL232:
 632:Core/Src/lcd.c **** 	
 3387              		.loc 1 632 2 view .LVU1240
 3388 0006 FFF7FEFF 		bl	ILI9341_FSMC_Config
 3389              	.LVL233:
 634:Core/Src/lcd.c **** 	ILI9341_Rst ();
 3390              		.loc 1 634 2 view .LVU1241
 3391 000a 0120     		movs	r0, #1
 3392 000c FFF7FEFF 		bl	ILI9341_BackLed_Control
 3393              	.LVL234:
 635:Core/Src/lcd.c **** 	ILI9341_REG_Config ();
 3394              		.loc 1 635 2 view .LVU1242
 3395 0010 FFF7FEFF 		bl	ILI9341_Rst
 3396              	.LVL235:
 636:Core/Src/lcd.c **** 	
 3397              		.loc 1 636 2 view .LVU1243
ARM GAS  C:\Users\84759\AppData\Local\Temp\cc1QWPm5.s 			page 98


 3398 0014 FFF7FEFF 		bl	ILI9341_REG_Config
 3399              	.LVL236:
 639:Core/Src/lcd.c **** }
 3400              		.loc 1 639 2 view .LVU1244
 3401 0018 024B     		ldr	r3, .L54
 3402 001a 1878     		ldrb	r0, [r3]	@ zero_extendqisi2
 3403 001c FFF7FEFF 		bl	ILI9341_GramScan
 3404              	.LVL237:
 640:Core/Src/lcd.c **** 
 3405              		.loc 1 640 1 is_stmt 0 view .LVU1245
 3406 0020 08BD     		pop	{r3, pc}
 3407              	.L55:
 3408 0022 00BF     		.align	2
 3409              	.L54:
 3410 0024 00000000 		.word	.LANCHOR3
 3411              		.cfi_endproc
 3412              	.LFE72:
 3414              		.section	.text.ILI9341_OpenWindow,"ax",%progbits
 3415              		.align	1
 3416              		.global	ILI9341_OpenWindow
 3417              		.syntax unified
 3418              		.thumb
 3419              		.thumb_func
 3421              	ILI9341_OpenWindow:
 3422              	.LVL238:
 3423              	.LFB77:
 831:Core/Src/lcd.c **** 	ILI9341_Write_Cmd ( CMD_SetCoordinateX ); 				 /* ÉčÖĂX×ř±ę */
 3424              		.loc 1 831 1 is_stmt 1 view -0
 3425              		.cfi_startproc
 3426              		@ args = 0, pretend = 0, frame = 0
 3427              		@ frame_needed = 0, uses_anonymous_args = 0
 831:Core/Src/lcd.c **** 	ILI9341_Write_Cmd ( CMD_SetCoordinateX ); 				 /* ÉčÖĂX×ř±ę */
 3428              		.loc 1 831 1 is_stmt 0 view .LVU1247
 3429 0000 10B5     		push	{r4, lr}
 3430              	.LCFI13:
 3431              		.cfi_def_cfa_offset 8
 3432              		.cfi_offset 4, -8
 3433              		.cfi_offset 14, -4
 832:Core/Src/lcd.c **** 	ILI9341_Write_Data ( usX >> 8  );	 /* ĎČ¸ß8Î»Ł¬Č»şóµÍ8Î» */
 3434              		.loc 1 832 2 is_stmt 1 view .LVU1248
 3435              	.LVL239:
 3436              	.LBB867:
 3437              	.LBI867:
  59:Core/Src/lcd.c **** {
 3438              		.loc 1 59 7 view .LVU1249
 3439              	.LBB868:
  61:Core/Src/lcd.c **** 	
 3440              		.loc 1 61 2 view .LVU1250
  61:Core/Src/lcd.c **** 	
 3441              		.loc 1 61 50 is_stmt 0 view .LVU1251
 3442 0002 4FF0D84E 		mov	lr, #1811939328
 3443 0006 2A24     		movs	r4, #42
 3444 0008 AEF80040 		strh	r4, [lr]	@ movhi
 3445              	.LVL240:
  61:Core/Src/lcd.c **** 	
 3446              		.loc 1 61 50 view .LVU1252
 3447              	.LBE868:
ARM GAS  C:\Users\84759\AppData\Local\Temp\cc1QWPm5.s 			page 99


 3448              	.LBE867:
 833:Core/Src/lcd.c **** 	ILI9341_Write_Data ( usX & 0xff  );	 /* ÉčÖĂĆđĘĽµăşÍ˝áĘřµă*/
 3449              		.loc 1 833 2 is_stmt 1 view .LVU1253
 3450 000c 040A     		lsrs	r4, r0, #8
 3451              	.LVL241:
 3452              	.LBB869:
 3453              	.LBI869:
  71:Core/Src/lcd.c **** {
 3454              		.loc 1 71 7 view .LVU1254
 3455              	.LBB870:
  73:Core/Src/lcd.c **** 	
 3456              		.loc 1 73 2 view .LVU1255
  73:Core/Src/lcd.c **** 	
 3457              		.loc 1 73 51 is_stmt 0 view .LVU1256
 3458 000e 4FF0DA4C 		mov	ip, #1828716544
 3459 0012 ACF80040 		strh	r4, [ip]	@ movhi
 3460              	.LVL242:
  73:Core/Src/lcd.c **** 	
 3461              		.loc 1 73 51 view .LVU1257
 3462              	.LBE870:
 3463              	.LBE869:
 834:Core/Src/lcd.c **** 	ILI9341_Write_Data ( ( usX + usWidth - 1 ) >> 8  );
 3464              		.loc 1 834 2 is_stmt 1 view .LVU1258
 3465 0016 C4B2     		uxtb	r4, r0
 3466              	.LVL243:
 3467              	.LBB871:
 3468              	.LBI871:
  71:Core/Src/lcd.c **** {
 3469              		.loc 1 71 7 view .LVU1259
 3470              	.LBB872:
  73:Core/Src/lcd.c **** 	
 3471              		.loc 1 73 2 view .LVU1260
  73:Core/Src/lcd.c **** 	
 3472              		.loc 1 73 51 is_stmt 0 view .LVU1261
 3473 0018 ACF80040 		strh	r4, [ip]	@ movhi
 3474              	.LVL244:
  73:Core/Src/lcd.c **** 	
 3475              		.loc 1 73 51 view .LVU1262
 3476              	.LBE872:
 3477              	.LBE871:
 835:Core/Src/lcd.c **** 	ILI9341_Write_Data ( ( usX + usWidth - 1 ) & 0xff  );
 3478              		.loc 1 835 2 is_stmt 1 view .LVU1263
 835:Core/Src/lcd.c **** 	ILI9341_Write_Data ( ( usX + usWidth - 1 ) & 0xff  );
 3479              		.loc 1 835 29 is_stmt 0 view .LVU1264
 3480 001c 1044     		add	r0, r0, r2
 3481              	.LVL245:
 835:Core/Src/lcd.c **** 	ILI9341_Write_Data ( ( usX + usWidth - 1 ) & 0xff  );
 3482              		.loc 1 835 39 view .LVU1265
 3483 001e 421E     		subs	r2, r0, #1
 3484              	.LVL246:
 835:Core/Src/lcd.c **** 	ILI9341_Write_Data ( ( usX + usWidth - 1 ) & 0xff  );
 3485              		.loc 1 835 2 view .LVU1266
 3486 0020 C2F30F22 		ubfx	r2, r2, #8, #16
 3487              	.LVL247:
 3488              	.LBB873:
 3489              	.LBI873:
  71:Core/Src/lcd.c **** {
ARM GAS  C:\Users\84759\AppData\Local\Temp\cc1QWPm5.s 			page 100


 3490              		.loc 1 71 7 is_stmt 1 view .LVU1267
 3491              	.LBB874:
  73:Core/Src/lcd.c **** 	
 3492              		.loc 1 73 2 view .LVU1268
  73:Core/Src/lcd.c **** 	
 3493              		.loc 1 73 51 is_stmt 0 view .LVU1269
 3494 0024 ACF80020 		strh	r2, [ip]	@ movhi
 3495              	.LVL248:
  73:Core/Src/lcd.c **** 	
 3496              		.loc 1 73 51 view .LVU1270
 3497              	.LBE874:
 3498              	.LBE873:
 836:Core/Src/lcd.c **** 
 3499              		.loc 1 836 2 is_stmt 1 view .LVU1271
 836:Core/Src/lcd.c **** 
 3500              		.loc 1 836 29 is_stmt 0 view .LVU1272
 3501 0028 80B2     		uxth	r0, r0
 836:Core/Src/lcd.c **** 
 3502              		.loc 1 836 39 view .LVU1273
 3503 002a 0138     		subs	r0, r0, #1
 836:Core/Src/lcd.c **** 
 3504              		.loc 1 836 2 view .LVU1274
 3505 002c C0B2     		uxtb	r0, r0
 3506              	.LVL249:
 3507              	.LBB875:
 3508              	.LBI875:
  71:Core/Src/lcd.c **** {
 3509              		.loc 1 71 7 is_stmt 1 view .LVU1275
 3510              	.LBB876:
  73:Core/Src/lcd.c **** 	
 3511              		.loc 1 73 2 view .LVU1276
  73:Core/Src/lcd.c **** 	
 3512              		.loc 1 73 51 is_stmt 0 view .LVU1277
 3513 002e ACF80000 		strh	r0, [ip]	@ movhi
 3514              	.LVL250:
  73:Core/Src/lcd.c **** 	
 3515              		.loc 1 73 51 view .LVU1278
 3516              	.LBE876:
 3517              	.LBE875:
 838:Core/Src/lcd.c **** 	ILI9341_Write_Data ( usY >> 8  );
 3518              		.loc 1 838 2 is_stmt 1 view .LVU1279
 3519              	.LBB877:
 3520              	.LBI877:
  59:Core/Src/lcd.c **** {
 3521              		.loc 1 59 7 view .LVU1280
 3522              	.LBB878:
  61:Core/Src/lcd.c **** 	
 3523              		.loc 1 61 2 view .LVU1281
  61:Core/Src/lcd.c **** 	
 3524              		.loc 1 61 50 is_stmt 0 view .LVU1282
 3525 0032 2B22     		movs	r2, #43
 3526 0034 AEF80020 		strh	r2, [lr]	@ movhi
 3527              	.LVL251:
  61:Core/Src/lcd.c **** 	
 3528              		.loc 1 61 50 view .LVU1283
 3529              	.LBE878:
 3530              	.LBE877:
ARM GAS  C:\Users\84759\AppData\Local\Temp\cc1QWPm5.s 			page 101


 839:Core/Src/lcd.c **** 	ILI9341_Write_Data ( usY & 0xff  );
 3531              		.loc 1 839 2 is_stmt 1 view .LVU1284
 3532 0038 0A0A     		lsrs	r2, r1, #8
 3533              	.LVL252:
 3534              	.LBB879:
 3535              	.LBI879:
  71:Core/Src/lcd.c **** {
 3536              		.loc 1 71 7 view .LVU1285
 3537              	.LBB880:
  73:Core/Src/lcd.c **** 	
 3538              		.loc 1 73 2 view .LVU1286
  73:Core/Src/lcd.c **** 	
 3539              		.loc 1 73 51 is_stmt 0 view .LVU1287
 3540 003a ACF80020 		strh	r2, [ip]	@ movhi
 3541              	.LVL253:
  73:Core/Src/lcd.c **** 	
 3542              		.loc 1 73 51 view .LVU1288
 3543              	.LBE880:
 3544              	.LBE879:
 840:Core/Src/lcd.c **** 	ILI9341_Write_Data ( ( usY + usHeight - 1 ) >> 8 );
 3545              		.loc 1 840 2 is_stmt 1 view .LVU1289
 3546 003e CAB2     		uxtb	r2, r1
 3547              	.LVL254:
 3548              	.LBB881:
 3549              	.LBI881:
  71:Core/Src/lcd.c **** {
 3550              		.loc 1 71 7 view .LVU1290
 3551              	.LBB882:
  73:Core/Src/lcd.c **** 	
 3552              		.loc 1 73 2 view .LVU1291
  73:Core/Src/lcd.c **** 	
 3553              		.loc 1 73 51 is_stmt 0 view .LVU1292
 3554 0040 ACF80020 		strh	r2, [ip]	@ movhi
 3555              	.LVL255:
  73:Core/Src/lcd.c **** 	
 3556              		.loc 1 73 51 view .LVU1293
 3557              	.LBE882:
 3558              	.LBE881:
 841:Core/Src/lcd.c **** 	ILI9341_Write_Data ( ( usY + usHeight - 1) & 0xff );
 3559              		.loc 1 841 2 is_stmt 1 view .LVU1294
 841:Core/Src/lcd.c **** 	ILI9341_Write_Data ( ( usY + usHeight - 1) & 0xff );
 3560              		.loc 1 841 29 is_stmt 0 view .LVU1295
 3561 0044 1944     		add	r1, r1, r3
 3562              	.LVL256:
 841:Core/Src/lcd.c **** 	ILI9341_Write_Data ( ( usY + usHeight - 1) & 0xff );
 3563              		.loc 1 841 40 view .LVU1296
 3564 0046 4B1E     		subs	r3, r1, #1
 3565              	.LVL257:
 841:Core/Src/lcd.c **** 	ILI9341_Write_Data ( ( usY + usHeight - 1) & 0xff );
 3566              		.loc 1 841 2 view .LVU1297
 3567 0048 C3F30F23 		ubfx	r3, r3, #8, #16
 3568              	.LVL258:
 3569              	.LBB883:
 3570              	.LBI883:
  71:Core/Src/lcd.c **** {
 3571              		.loc 1 71 7 is_stmt 1 view .LVU1298
 3572              	.LBB884:
ARM GAS  C:\Users\84759\AppData\Local\Temp\cc1QWPm5.s 			page 102


  73:Core/Src/lcd.c **** 	
 3573              		.loc 1 73 2 view .LVU1299
  73:Core/Src/lcd.c **** 	
 3574              		.loc 1 73 51 is_stmt 0 view .LVU1300
 3575 004c ACF80030 		strh	r3, [ip]	@ movhi
 3576              	.LVL259:
  73:Core/Src/lcd.c **** 	
 3577              		.loc 1 73 51 view .LVU1301
 3578              	.LBE884:
 3579              	.LBE883:
 842:Core/Src/lcd.c **** 	
 3580              		.loc 1 842 2 is_stmt 1 view .LVU1302
 842:Core/Src/lcd.c **** 	
 3581              		.loc 1 842 29 is_stmt 0 view .LVU1303
 3582 0050 89B2     		uxth	r1, r1
 842:Core/Src/lcd.c **** 	
 3583              		.loc 1 842 40 view .LVU1304
 3584 0052 0139     		subs	r1, r1, #1
 842:Core/Src/lcd.c **** 	
 3585              		.loc 1 842 2 view .LVU1305
 3586 0054 C9B2     		uxtb	r1, r1
 3587              	.LVL260:
 3588              	.LBB885:
 3589              	.LBI885:
  71:Core/Src/lcd.c **** {
 3590              		.loc 1 71 7 is_stmt 1 view .LVU1306
 3591              	.LBB886:
  73:Core/Src/lcd.c **** 	
 3592              		.loc 1 73 2 view .LVU1307
  73:Core/Src/lcd.c **** 	
 3593              		.loc 1 73 51 is_stmt 0 view .LVU1308
 3594 0056 ACF80010 		strh	r1, [ip]	@ movhi
 3595              	.LVL261:
  73:Core/Src/lcd.c **** 	
 3596              		.loc 1 73 51 view .LVU1309
 3597              	.LBE886:
 3598              	.LBE885:
 844:Core/Src/lcd.c **** 
 3599              		.loc 1 844 1 view .LVU1310
 3600 005a 10BD     		pop	{r4, pc}
 3601              		.cfi_endproc
 3602              	.LFE77:
 3604              		.section	.text.ILI9341_SetCursor,"ax",%progbits
 3605              		.align	1
 3606              		.syntax unified
 3607              		.thumb
 3608              		.thumb_func
 3610              	ILI9341_SetCursor:
 3611              	.LVL262:
 3612              	.LFB78:
 854:Core/Src/lcd.c **** 	ILI9341_OpenWindow ( usX, usY, 1, 1 );
 3613              		.loc 1 854 1 is_stmt 1 view -0
 3614              		.cfi_startproc
 3615              		@ args = 0, pretend = 0, frame = 0
 3616              		@ frame_needed = 0, uses_anonymous_args = 0
 854:Core/Src/lcd.c **** 	ILI9341_OpenWindow ( usX, usY, 1, 1 );
 3617              		.loc 1 854 1 is_stmt 0 view .LVU1312
ARM GAS  C:\Users\84759\AppData\Local\Temp\cc1QWPm5.s 			page 103


 3618 0000 08B5     		push	{r3, lr}
 3619              	.LCFI14:
 3620              		.cfi_def_cfa_offset 8
 3621              		.cfi_offset 3, -8
 3622              		.cfi_offset 14, -4
 855:Core/Src/lcd.c **** }
 3623              		.loc 1 855 2 is_stmt 1 view .LVU1313
 3624 0002 0123     		movs	r3, #1
 3625 0004 1A46     		mov	r2, r3
 3626 0006 FFF7FEFF 		bl	ILI9341_OpenWindow
 3627              	.LVL263:
 856:Core/Src/lcd.c **** 
 3628              		.loc 1 856 1 is_stmt 0 view .LVU1314
 3629 000a 08BD     		pop	{r3, pc}
 3630              		.cfi_endproc
 3631              	.LFE78:
 3633              		.section	.text.ILI9341_Clear,"ax",%progbits
 3634              		.align	1
 3635              		.global	ILI9341_Clear
 3636              		.syntax unified
 3637              		.thumb
 3638              		.thumb_func
 3640              	ILI9341_Clear:
 3641              	.LVL264:
 3642              	.LFB80:
 890:Core/Src/lcd.c **** 	ILI9341_OpenWindow ( usX, usY, usWidth, usHeight );
 3643              		.loc 1 890 1 is_stmt 1 view -0
 3644              		.cfi_startproc
 3645              		@ args = 0, pretend = 0, frame = 0
 3646              		@ frame_needed = 0, uses_anonymous_args = 0
 890:Core/Src/lcd.c **** 	ILI9341_OpenWindow ( usX, usY, usWidth, usHeight );
 3647              		.loc 1 890 1 is_stmt 0 view .LVU1316
 3648 0000 38B5     		push	{r3, r4, r5, lr}
 3649              	.LCFI15:
 3650              		.cfi_def_cfa_offset 16
 3651              		.cfi_offset 3, -16
 3652              		.cfi_offset 4, -12
 3653              		.cfi_offset 5, -8
 3654              		.cfi_offset 14, -4
 3655 0002 1446     		mov	r4, r2
 3656 0004 1D46     		mov	r5, r3
 891:Core/Src/lcd.c **** 
 3657              		.loc 1 891 2 is_stmt 1 view .LVU1317
 3658 0006 FFF7FEFF 		bl	ILI9341_OpenWindow
 3659              	.LVL265:
 893:Core/Src/lcd.c **** 	
 3660              		.loc 1 893 2 view .LVU1318
 893:Core/Src/lcd.c **** 	
 3661              		.loc 1 893 30 is_stmt 0 view .LVU1319
 3662 000a 05FB04F1 		mul	r1, r5, r4
 893:Core/Src/lcd.c **** 	
 3663              		.loc 1 893 2 view .LVU1320
 3664 000e 074B     		ldr	r3, .L64
 3665 0010 1888     		ldrh	r0, [r3]
 3666              	.LVL266:
 3667              	.LBB887:
 3668              	.LBI887:
ARM GAS  C:\Users\84759\AppData\Local\Temp\cc1QWPm5.s 			page 104


 865:Core/Src/lcd.c **** {
 3669              		.loc 1 865 22 is_stmt 1 view .LVU1321
 3670              	.LBB888:
 867:Core/Src/lcd.c **** 	
 3671              		.loc 1 867 2 view .LVU1322
 871:Core/Src/lcd.c **** 		
 3672              		.loc 1 871 2 view .LVU1323
 3673              	.LBB889:
 3674              	.LBI889:
  59:Core/Src/lcd.c **** {
 3675              		.loc 1 59 7 view .LVU1324
 3676              	.LBB890:
  61:Core/Src/lcd.c **** 	
 3677              		.loc 1 61 2 view .LVU1325
  61:Core/Src/lcd.c **** 	
 3678              		.loc 1 61 50 is_stmt 0 view .LVU1326
 3679 0012 4FF0D843 		mov	r3, #1811939328
 3680 0016 2C22     		movs	r2, #44
 3681 0018 1A80     		strh	r2, [r3]	@ movhi
 3682              	.LVL267:
  61:Core/Src/lcd.c **** 	
 3683              		.loc 1 61 50 view .LVU1327
 3684              	.LBE890:
 3685              	.LBE889:
 873:Core/Src/lcd.c **** 		ILI9341_Write_Data ( usColor );
 3686              		.loc 1 873 2 is_stmt 1 view .LVU1328
 873:Core/Src/lcd.c **** 		ILI9341_Write_Data ( usColor );
 3687              		.loc 1 873 10 is_stmt 0 view .LVU1329
 3688 001a 0023     		movs	r3, #0
 873:Core/Src/lcd.c **** 		ILI9341_Write_Data ( usColor );
 3689              		.loc 1 873 2 view .LVU1330
 3690 001c 03E0     		b	.L61
 3691              	.LVL268:
 3692              	.L62:
 874:Core/Src/lcd.c **** 		
 3693              		.loc 1 874 3 is_stmt 1 view .LVU1331
 3694              	.LBB891:
 3695              	.LBI891:
  71:Core/Src/lcd.c **** {
 3696              		.loc 1 71 7 view .LVU1332
 3697              	.LBB892:
  73:Core/Src/lcd.c **** 	
 3698              		.loc 1 73 2 view .LVU1333
  73:Core/Src/lcd.c **** 	
 3699              		.loc 1 73 51 is_stmt 0 view .LVU1334
 3700 001e 4FF0DA42 		mov	r2, #1828716544
 3701 0022 1080     		strh	r0, [r2]	@ movhi
 3702              	.LVL269:
  73:Core/Src/lcd.c **** 	
 3703              		.loc 1 73 51 view .LVU1335
 3704              	.LBE892:
 3705              	.LBE891:
 873:Core/Src/lcd.c **** 		ILI9341_Write_Data ( usColor );
 3706              		.loc 1 873 34 is_stmt 1 view .LVU1336
 873:Core/Src/lcd.c **** 		ILI9341_Write_Data ( usColor );
 3707              		.loc 1 873 36 is_stmt 0 view .LVU1337
 3708 0024 0133     		adds	r3, r3, #1
ARM GAS  C:\Users\84759\AppData\Local\Temp\cc1QWPm5.s 			page 105


 3709              	.LVL270:
 3710              	.L61:
 873:Core/Src/lcd.c **** 		ILI9341_Write_Data ( usColor );
 3711              		.loc 1 873 15 is_stmt 1 view .LVU1338
 873:Core/Src/lcd.c **** 		ILI9341_Write_Data ( usColor );
 3712              		.loc 1 873 2 is_stmt 0 view .LVU1339
 3713 0026 9942     		cmp	r1, r3
 3714 0028 F9D8     		bhi	.L62
 3715              	.LBE888:
 3716              	.LBE887:
 895:Core/Src/lcd.c **** 
 3717              		.loc 1 895 1 view .LVU1340
 3718 002a 38BD     		pop	{r3, r4, r5, pc}
 3719              	.LVL271:
 3720              	.L65:
 895:Core/Src/lcd.c **** 
 3721              		.loc 1 895 1 view .LVU1341
 3722              		.align	2
 3723              	.L64:
 3724 002c 00000000 		.word	.LANCHOR6
 3725              		.cfi_endproc
 3726              	.LFE80:
 3728              		.section	.text.ILI9341_SetPointPixel,"ax",%progbits
 3729              		.align	1
 3730              		.global	ILI9341_SetPointPixel
 3731              		.syntax unified
 3732              		.thumb
 3733              		.thumb_func
 3735              	ILI9341_SetPointPixel:
 3736              	.LVL272:
 3737              	.LFB81:
 906:Core/Src/lcd.c **** 	if ( ( usX < LCD_X_LENGTH ) && ( usY < LCD_Y_LENGTH ) )
 3738              		.loc 1 906 1 is_stmt 1 view -0
 3739              		.cfi_startproc
 3740              		@ args = 0, pretend = 0, frame = 0
 3741              		@ frame_needed = 0, uses_anonymous_args = 0
 906:Core/Src/lcd.c **** 	if ( ( usX < LCD_X_LENGTH ) && ( usY < LCD_Y_LENGTH ) )
 3742              		.loc 1 906 1 is_stmt 0 view .LVU1343
 3743 0000 08B5     		push	{r3, lr}
 3744              	.LCFI16:
 3745              		.cfi_def_cfa_offset 8
 3746              		.cfi_offset 3, -8
 3747              		.cfi_offset 14, -4
 907:Core/Src/lcd.c ****   {
 3748              		.loc 1 907 2 is_stmt 1 view .LVU1344
 907:Core/Src/lcd.c ****   {
 3749              		.loc 1 907 13 is_stmt 0 view .LVU1345
 3750 0002 0D4B     		ldr	r3, .L72
 3751 0004 1B88     		ldrh	r3, [r3]
 907:Core/Src/lcd.c ****   {
 3752              		.loc 1 907 5 view .LVU1346
 3753 0006 8342     		cmp	r3, r0
 3754 0008 03D9     		bls	.L66
 907:Core/Src/lcd.c ****   {
 3755              		.loc 1 907 39 discriminator 1 view .LVU1347
 3756 000a 0C4B     		ldr	r3, .L72+4
 3757 000c 1B88     		ldrh	r3, [r3]
ARM GAS  C:\Users\84759\AppData\Local\Temp\cc1QWPm5.s 			page 106


 907:Core/Src/lcd.c ****   {
 3758              		.loc 1 907 30 discriminator 1 view .LVU1348
 3759 000e 8B42     		cmp	r3, r1
 3760 0010 00D8     		bhi	.L71
 3761              	.LVL273:
 3762              	.L66:
 914:Core/Src/lcd.c **** 
 3763              		.loc 1 914 1 view .LVU1349
 3764 0012 08BD     		pop	{r3, pc}
 3765              	.LVL274:
 3766              	.L71:
 909:Core/Src/lcd.c **** 		
 3767              		.loc 1 909 3 is_stmt 1 view .LVU1350
 3768 0014 FFF7FEFF 		bl	ILI9341_SetCursor
 3769              	.LVL275:
 911:Core/Src/lcd.c **** 	}
 3770              		.loc 1 911 3 view .LVU1351
 3771 0018 094B     		ldr	r3, .L72+8
 3772 001a 1988     		ldrh	r1, [r3]
 3773              	.LVL276:
 3774              	.LBB893:
 3775              	.LBI893:
 865:Core/Src/lcd.c **** {
 3776              		.loc 1 865 22 view .LVU1352
 3777              	.LBB894:
 867:Core/Src/lcd.c **** 	
 3778              		.loc 1 867 2 view .LVU1353
 871:Core/Src/lcd.c **** 		
 3779              		.loc 1 871 2 view .LVU1354
 3780              	.LBB895:
 3781              	.LBI895:
  59:Core/Src/lcd.c **** {
 3782              		.loc 1 59 7 view .LVU1355
 3783              	.LBB896:
  61:Core/Src/lcd.c **** 	
 3784              		.loc 1 61 2 view .LVU1356
  61:Core/Src/lcd.c **** 	
 3785              		.loc 1 61 50 is_stmt 0 view .LVU1357
 3786 001c 4FF0D843 		mov	r3, #1811939328
 3787 0020 2C22     		movs	r2, #44
 3788 0022 1A80     		strh	r2, [r3]	@ movhi
 3789              	.LVL277:
  61:Core/Src/lcd.c **** 	
 3790              		.loc 1 61 50 view .LVU1358
 3791              	.LBE896:
 3792              	.LBE895:
 873:Core/Src/lcd.c **** 		ILI9341_Write_Data ( usColor );
 3793              		.loc 1 873 2 is_stmt 1 view .LVU1359
 873:Core/Src/lcd.c **** 		ILI9341_Write_Data ( usColor );
 3794              		.loc 1 873 10 is_stmt 0 view .LVU1360
 3795 0024 0023     		movs	r3, #0
 873:Core/Src/lcd.c **** 		ILI9341_Write_Data ( usColor );
 3796              		.loc 1 873 2 view .LVU1361
 3797 0026 03E0     		b	.L68
 3798              	.LVL278:
 3799              	.L69:
 874:Core/Src/lcd.c **** 		
ARM GAS  C:\Users\84759\AppData\Local\Temp\cc1QWPm5.s 			page 107


 3800              		.loc 1 874 3 is_stmt 1 view .LVU1362
 3801              	.LBB897:
 3802              	.LBI897:
  71:Core/Src/lcd.c **** {
 3803              		.loc 1 71 7 view .LVU1363
 3804              	.LBB898:
  73:Core/Src/lcd.c **** 	
 3805              		.loc 1 73 2 view .LVU1364
  73:Core/Src/lcd.c **** 	
 3806              		.loc 1 73 51 is_stmt 0 view .LVU1365
 3807 0028 4FF0DA42 		mov	r2, #1828716544
 3808 002c 1180     		strh	r1, [r2]	@ movhi
 3809              	.LVL279:
  73:Core/Src/lcd.c **** 	
 3810              		.loc 1 73 51 view .LVU1366
 3811              	.LBE898:
 3812              	.LBE897:
 873:Core/Src/lcd.c **** 		ILI9341_Write_Data ( usColor );
 3813              		.loc 1 873 34 is_stmt 1 view .LVU1367
 873:Core/Src/lcd.c **** 		ILI9341_Write_Data ( usColor );
 3814              		.loc 1 873 36 is_stmt 0 view .LVU1368
 3815 002e 0133     		adds	r3, r3, #1
 3816              	.LVL280:
 3817              	.L68:
 873:Core/Src/lcd.c **** 		ILI9341_Write_Data ( usColor );
 3818              		.loc 1 873 15 is_stmt 1 view .LVU1369
 873:Core/Src/lcd.c **** 		ILI9341_Write_Data ( usColor );
 3819              		.loc 1 873 2 is_stmt 0 view .LVU1370
 3820 0030 002B     		cmp	r3, #0
 3821 0032 F9D0     		beq	.L69
 3822 0034 EDE7     		b	.L66
 3823              	.L73:
 3824 0036 00BF     		.align	2
 3825              	.L72:
 3826 0038 00000000 		.word	.LANCHOR4
 3827 003c 00000000 		.word	.LANCHOR5
 3828 0040 00000000 		.word	.LANCHOR7
 3829              	.LBE894:
 3830              	.LBE893:
 3831              		.cfi_endproc
 3832              	.LFE81:
 3834              		.section	.text.ILI9341_GetPointPixel,"ax",%progbits
 3835              		.align	1
 3836              		.global	ILI9341_GetPointPixel
 3837              		.syntax unified
 3838              		.thumb
 3839              		.thumb_func
 3841              	ILI9341_GetPointPixel:
 3842              	.LVL281:
 3843              	.LFB83:
 937:Core/Src/lcd.c **** 
 938:Core/Src/lcd.c **** 
 939:Core/Src/lcd.c **** 
 940:Core/Src/lcd.c **** /**
 941:Core/Src/lcd.c ****  * @brief  »ńČˇ ILI9341 ĎÔĘľĆ÷ÉĎÄłŇ»¸ö×ř±ęµăµÄĎńËŘĘýľÝ
 942:Core/Src/lcd.c ****  * @param  usX ŁşÔÚĚŘ¶¨É¨Ăč·˝ĎňĎÂ¸ĂµăµÄX×ř±ę
 943:Core/Src/lcd.c ****  * @param  usY ŁşÔÚĚŘ¶¨É¨Ăč·˝ĎňĎÂ¸ĂµăµÄY×ř±ę
ARM GAS  C:\Users\84759\AppData\Local\Temp\cc1QWPm5.s 			page 108


 944:Core/Src/lcd.c ****  * @retval ĎńËŘĘýľÝ
 945:Core/Src/lcd.c ****  */
 946:Core/Src/lcd.c **** uint16_t ILI9341_GetPointPixel ( uint16_t usX, uint16_t usY )
 947:Core/Src/lcd.c **** { 
 3844              		.loc 1 947 1 is_stmt 1 view -0
 3845              		.cfi_startproc
 3846              		@ args = 0, pretend = 0, frame = 0
 3847              		@ frame_needed = 0, uses_anonymous_args = 0
 3848              		.loc 1 947 1 is_stmt 0 view .LVU1372
 3849 0000 08B5     		push	{r3, lr}
 3850              	.LCFI17:
 3851              		.cfi_def_cfa_offset 8
 3852              		.cfi_offset 3, -8
 3853              		.cfi_offset 14, -4
 948:Core/Src/lcd.c **** 	uint16_t usPixelData;
 3854              		.loc 1 948 2 is_stmt 1 view .LVU1373
 949:Core/Src/lcd.c **** 
 950:Core/Src/lcd.c **** 	
 951:Core/Src/lcd.c **** 	ILI9341_SetCursor ( usX, usY );
 3855              		.loc 1 951 2 view .LVU1374
 3856 0002 FFF7FEFF 		bl	ILI9341_SetCursor
 3857              	.LVL282:
 952:Core/Src/lcd.c **** 	
 953:Core/Src/lcd.c **** 	usPixelData = ILI9341_Read_PixelData ();
 3858              		.loc 1 953 2 view .LVU1375
 3859              		.loc 1 953 16 is_stmt 0 view .LVU1376
 3860 0006 FFF7FEFF 		bl	ILI9341_Read_PixelData
 3861              	.LVL283:
 954:Core/Src/lcd.c **** 	
 955:Core/Src/lcd.c **** 	return usPixelData;
 3862              		.loc 1 955 2 is_stmt 1 view .LVU1377
 956:Core/Src/lcd.c **** 	
 957:Core/Src/lcd.c **** }
 3863              		.loc 1 957 1 is_stmt 0 view .LVU1378
 3864 000a 08BD     		pop	{r3, pc}
 3865              		.cfi_endproc
 3866              	.LFE83:
 3868              		.section	.text.ILI9341_DrawLine,"ax",%progbits
 3869              		.align	1
 3870              		.global	ILI9341_DrawLine
 3871              		.syntax unified
 3872              		.thumb
 3873              		.thumb_func
 3875              	ILI9341_DrawLine:
 3876              	.LVL284:
 3877              	.LFB84:
 958:Core/Src/lcd.c **** 
 959:Core/Src/lcd.c **** 
 960:Core/Src/lcd.c **** /**
 961:Core/Src/lcd.c ****  * @brief  ÔÚ ILI9341 ĎÔĘľĆ÷ÉĎĘąÓĂ Bresenham Ëă·¨»­Ďß¶Î 
 962:Core/Src/lcd.c ****  * @param  usX1 ŁşÔÚĚŘ¶¨É¨Ăč·˝ĎňĎÂĎß¶ÎµÄŇ»¸ö¶ËµăX×ř±ę
 963:Core/Src/lcd.c ****  * @param  usY1 ŁşÔÚĚŘ¶¨É¨Ăč·˝ĎňĎÂĎß¶ÎµÄŇ»¸ö¶ËµăY×ř±ę
 964:Core/Src/lcd.c ****  * @param  usX2 ŁşÔÚĚŘ¶¨É¨Ăč·˝ĎňĎÂĎß¶ÎµÄÁíŇ»¸ö¶ËµăX×ř±ę
 965:Core/Src/lcd.c ****  * @param  usY2 ŁşÔÚĚŘ¶¨É¨Ăč·˝ĎňĎÂĎß¶ÎµÄÁíŇ»¸ö¶ËµăY×ř±ę
 966:Core/Src/lcd.c ****  * @note żÉĘąÓĂLCD_SetBackColorˇ˘LCD_SetTextColorˇ˘LCD_SetColorsşŻĘýÉčÖĂŃŐÉ«
 967:Core/Src/lcd.c ****  * @retval ÎŢ
 968:Core/Src/lcd.c ****  */
ARM GAS  C:\Users\84759\AppData\Local\Temp\cc1QWPm5.s 			page 109


 969:Core/Src/lcd.c **** void ILI9341_DrawLine ( uint16_t usX1, uint16_t usY1, uint16_t usX2, uint16_t usY2 )
 970:Core/Src/lcd.c **** {
 3878              		.loc 1 970 1 is_stmt 1 view -0
 3879              		.cfi_startproc
 3880              		@ args = 0, pretend = 0, frame = 8
 3881              		@ frame_needed = 0, uses_anonymous_args = 0
 3882              		.loc 1 970 1 is_stmt 0 view .LVU1380
 3883 0000 2DE9F04F 		push	{r4, r5, r6, r7, r8, r9, r10, fp, lr}
 3884              	.LCFI18:
 3885              		.cfi_def_cfa_offset 36
 3886              		.cfi_offset 4, -36
 3887              		.cfi_offset 5, -32
 3888              		.cfi_offset 6, -28
 3889              		.cfi_offset 7, -24
 3890              		.cfi_offset 8, -20
 3891              		.cfi_offset 9, -16
 3892              		.cfi_offset 10, -12
 3893              		.cfi_offset 11, -8
 3894              		.cfi_offset 14, -4
 3895 0004 83B0     		sub	sp, sp, #12
 3896              	.LCFI19:
 3897              		.cfi_def_cfa_offset 48
 3898 0006 8046     		mov	r8, r0
 3899 0008 8946     		mov	r9, r1
 971:Core/Src/lcd.c **** 	uint16_t us; 
 3900              		.loc 1 971 2 is_stmt 1 view .LVU1381
 972:Core/Src/lcd.c **** 	uint16_t usX_Current, usY_Current;
 3901              		.loc 1 972 2 view .LVU1382
 973:Core/Src/lcd.c **** 	
 974:Core/Src/lcd.c **** 	int32_t lError_X = 0, lError_Y = 0, lDelta_X, lDelta_Y, lDistance; 
 3902              		.loc 1 974 2 view .LVU1383
 3903              	.LVL285:
 975:Core/Src/lcd.c **** 	int32_t lIncrease_X, lIncrease_Y; 	
 3904              		.loc 1 975 2 view .LVU1384
 976:Core/Src/lcd.c **** 	
 977:Core/Src/lcd.c **** 	
 978:Core/Src/lcd.c **** 	lDelta_X = usX2 - usX1; //ĽĆËă×ř±ęÔöÁż 
 3905              		.loc 1 978 2 view .LVU1385
 3906              		.loc 1 978 11 is_stmt 0 view .LVU1386
 3907 000a A2EB000A 		sub	r10, r2, r0
 3908              	.LVL286:
 979:Core/Src/lcd.c **** 	lDelta_Y = usY2 - usY1; 
 3909              		.loc 1 979 2 is_stmt 1 view .LVU1387
 3910              		.loc 1 979 11 is_stmt 0 view .LVU1388
 3911 000e A3EB010B 		sub	fp, r3, r1
 3912              	.LVL287:
 980:Core/Src/lcd.c **** 	
 981:Core/Src/lcd.c **** 	usX_Current = usX1; 
 3913              		.loc 1 981 2 is_stmt 1 view .LVU1389
 982:Core/Src/lcd.c **** 	usY_Current = usY1; 
 3914              		.loc 1 982 2 view .LVU1390
 983:Core/Src/lcd.c **** 	
 984:Core/Src/lcd.c **** 	
 985:Core/Src/lcd.c **** 	if ( lDelta_X > 0 ) 
 3915              		.loc 1 985 2 view .LVU1391
 3916              		.loc 1 985 5 is_stmt 0 view .LVU1392
 3917 0012 BAF1000F 		cmp	r10, #0
ARM GAS  C:\Users\84759\AppData\Local\Temp\cc1QWPm5.s 			page 110


 3918 0016 0DDD     		ble	.L90
 986:Core/Src/lcd.c **** 		lIncrease_X = 1; //ÉčÖĂµĄ˛˝·˝Ďň 
 3919              		.loc 1 986 15 view .LVU1393
 3920 0018 0122     		movs	r2, #1
 3921              	.LVL288:
 3922              		.loc 1 986 15 view .LVU1394
 3923 001a 0092     		str	r2, [sp]
 3924              	.L77:
 3925              	.LVL289:
 987:Core/Src/lcd.c **** 	
 988:Core/Src/lcd.c **** 	else if ( lDelta_X == 0 ) 
 989:Core/Src/lcd.c **** 		lIncrease_X = 0;//´ąÖ±Ďß 
 990:Core/Src/lcd.c **** 	
 991:Core/Src/lcd.c **** 	else 
 992:Core/Src/lcd.c ****   { 
 993:Core/Src/lcd.c ****     lIncrease_X = -1;
 994:Core/Src/lcd.c ****     lDelta_X = - lDelta_X;
 995:Core/Src/lcd.c ****   } 
 996:Core/Src/lcd.c **** 
 997:Core/Src/lcd.c **** 	
 998:Core/Src/lcd.c **** 	if ( lDelta_Y > 0 )
 3926              		.loc 1 998 2 is_stmt 1 view .LVU1395
 3927              		.loc 1 998 5 is_stmt 0 view .LVU1396
 3928 001c BBF1000F 		cmp	fp, #0
 3929 0020 14DD     		ble	.L91
 999:Core/Src/lcd.c **** 		lIncrease_Y = 1; 
 3930              		.loc 1 999 15 view .LVU1397
 3931 0022 0123     		movs	r3, #1
 3932              	.LVL290:
 3933              		.loc 1 999 15 view .LVU1398
 3934 0024 0193     		str	r3, [sp, #4]
 3935              	.L78:
 3936              	.LVL291:
1000:Core/Src/lcd.c **** 	
1001:Core/Src/lcd.c **** 	else if ( lDelta_Y == 0 )
1002:Core/Src/lcd.c **** 		lIncrease_Y = 0;//Ë®Ć˝Ďß 
1003:Core/Src/lcd.c **** 	
1004:Core/Src/lcd.c **** 	else 
1005:Core/Src/lcd.c ****   {
1006:Core/Src/lcd.c ****     lIncrease_Y = -1;
1007:Core/Src/lcd.c ****     lDelta_Y = - lDelta_Y;
1008:Core/Src/lcd.c ****   } 
1009:Core/Src/lcd.c **** 
1010:Core/Src/lcd.c **** 	
1011:Core/Src/lcd.c **** 	if (  lDelta_X > lDelta_Y )
 3937              		.loc 1 1011 2 is_stmt 1 view .LVU1399
 3938              		.loc 1 1011 5 is_stmt 0 view .LVU1400
 3939 0026 DA45     		cmp	r10, fp
 3940 0028 1CDD     		ble	.L88
1012:Core/Src/lcd.c **** 		lDistance = lDelta_X; //ŃˇČˇ»ů±ľÔöÁż×ř±ęÖá 
 3941              		.loc 1 1012 13 view .LVU1401
 3942 002a 5646     		mov	r6, r10
 3943              	.L79:
 3944              	.LVL292:
1013:Core/Src/lcd.c **** 	
1014:Core/Src/lcd.c **** 	else 
1015:Core/Src/lcd.c **** 		lDistance = lDelta_Y; 
ARM GAS  C:\Users\84759\AppData\Local\Temp\cc1QWPm5.s 			page 111


1016:Core/Src/lcd.c **** 
1017:Core/Src/lcd.c **** 	
1018:Core/Src/lcd.c **** 	for ( us = 0; us <= lDistance + 1; us ++ )//»­ĎßĘäłö 
 3945              		.loc 1 1018 2 is_stmt 1 view .LVU1402
 974:Core/Src/lcd.c **** 	int32_t lIncrease_X, lIncrease_Y; 	
 3946              		.loc 1 974 24 is_stmt 0 view .LVU1403
 3947 002c 0025     		movs	r5, #0
 974:Core/Src/lcd.c **** 	int32_t lIncrease_X, lIncrease_Y; 	
 3948              		.loc 1 974 10 view .LVU1404
 3949 002e 2F46     		mov	r7, r5
 3950              		.loc 1 1018 11 view .LVU1405
 3951 0030 2C46     		mov	r4, r5
 3952              		.loc 1 1018 2 view .LVU1406
 3953 0032 1BE0     		b	.L80
 3954              	.LVL293:
 3955              	.L90:
 988:Core/Src/lcd.c **** 		lIncrease_X = 0;//´ąÖ±Ďß 
 3956              		.loc 1 988 7 is_stmt 1 view .LVU1407
 988:Core/Src/lcd.c **** 		lIncrease_X = 0;//´ąÖ±Ďß 
 3957              		.loc 1 988 10 is_stmt 0 view .LVU1408
 3958 0034 BAF1000F 		cmp	r10, #0
 3959 0038 05D0     		beq	.L85
 993:Core/Src/lcd.c ****     lDelta_X = - lDelta_X;
 3960              		.loc 1 993 5 is_stmt 1 view .LVU1409
 3961              	.LVL294:
 994:Core/Src/lcd.c ****   } 
 3962              		.loc 1 994 5 view .LVU1410
 994:Core/Src/lcd.c ****   } 
 3963              		.loc 1 994 14 is_stmt 0 view .LVU1411
 3964 003a A0EB020A 		sub	r10, r0, r2
 3965              	.LVL295:
 993:Core/Src/lcd.c ****     lDelta_X = - lDelta_X;
 3966              		.loc 1 993 17 view .LVU1412
 3967 003e 4FF0FF32 		mov	r2, #-1
 3968              	.LVL296:
 993:Core/Src/lcd.c ****     lDelta_X = - lDelta_X;
 3969              		.loc 1 993 17 view .LVU1413
 3970 0042 0092     		str	r2, [sp]
 3971 0044 EAE7     		b	.L77
 3972              	.LVL297:
 3973              	.L85:
 989:Core/Src/lcd.c **** 	
 3974              		.loc 1 989 15 view .LVU1414
 3975 0046 CDF800A0 		str	r10, [sp]
 3976 004a E7E7     		b	.L77
 3977              	.LVL298:
 3978              	.L91:
1001:Core/Src/lcd.c **** 		lIncrease_Y = 0;//Ë®Ć˝Ďß 
 3979              		.loc 1 1001 7 is_stmt 1 view .LVU1415
1001:Core/Src/lcd.c **** 		lIncrease_Y = 0;//Ë®Ć˝Ďß 
 3980              		.loc 1 1001 10 is_stmt 0 view .LVU1416
 3981 004c BBF1000F 		cmp	fp, #0
 3982 0050 05D0     		beq	.L87
1006:Core/Src/lcd.c ****     lDelta_Y = - lDelta_Y;
 3983              		.loc 1 1006 5 is_stmt 1 view .LVU1417
 3984              	.LVL299:
1007:Core/Src/lcd.c ****   } 
ARM GAS  C:\Users\84759\AppData\Local\Temp\cc1QWPm5.s 			page 112


 3985              		.loc 1 1007 5 view .LVU1418
1007:Core/Src/lcd.c ****   } 
 3986              		.loc 1 1007 14 is_stmt 0 view .LVU1419
 3987 0052 A1EB030B 		sub	fp, r1, r3
 3988              	.LVL300:
1006:Core/Src/lcd.c ****     lDelta_Y = - lDelta_Y;
 3989              		.loc 1 1006 17 view .LVU1420
 3990 0056 4FF0FF33 		mov	r3, #-1
 3991              	.LVL301:
1006:Core/Src/lcd.c ****     lDelta_Y = - lDelta_Y;
 3992              		.loc 1 1006 17 view .LVU1421
 3993 005a 0193     		str	r3, [sp, #4]
 3994 005c E3E7     		b	.L78
 3995              	.LVL302:
 3996              	.L87:
1002:Core/Src/lcd.c **** 	
 3997              		.loc 1 1002 15 view .LVU1422
 3998 005e CDF804B0 		str	fp, [sp, #4]
 3999 0062 E0E7     		b	.L78
 4000              	.LVL303:
 4001              	.L88:
1015:Core/Src/lcd.c **** 
 4002              		.loc 1 1015 13 view .LVU1423
 4003 0064 5E46     		mov	r6, fp
 4004 0066 E1E7     		b	.L79
 4005              	.LVL304:
 4006              	.L82:
 4007              		.loc 1 1018 37 is_stmt 1 discriminator 2 view .LVU1424
 4008              		.loc 1 1018 40 is_stmt 0 discriminator 2 view .LVU1425
 4009 0068 0134     		adds	r4, r4, #1
 4010              	.LVL305:
 4011              		.loc 1 1018 40 discriminator 2 view .LVU1426
 4012 006a A4B2     		uxth	r4, r4
 4013              	.LVL306:
 4014              	.L80:
 4015              		.loc 1 1018 16 is_stmt 1 discriminator 1 view .LVU1427
 4016              		.loc 1 1018 32 is_stmt 0 discriminator 1 view .LVU1428
 4017 006c 731C     		adds	r3, r6, #1
 4018              		.loc 1 1018 2 discriminator 1 view .LVU1429
 4019 006e 9C42     		cmp	r4, r3
 4020 0070 14DC     		bgt	.L92
1019:Core/Src/lcd.c **** 	{  
1020:Core/Src/lcd.c **** 		ILI9341_SetPointPixel ( usX_Current, usY_Current );//»­µă 
 4021              		.loc 1 1020 3 is_stmt 1 view .LVU1430
 4022 0072 4946     		mov	r1, r9
 4023 0074 4046     		mov	r0, r8
 4024 0076 FFF7FEFF 		bl	ILI9341_SetPointPixel
 4025              	.LVL307:
1021:Core/Src/lcd.c **** 		
1022:Core/Src/lcd.c **** 		lError_X += lDelta_X ; 
 4026              		.loc 1 1022 3 view .LVU1431
 4027              		.loc 1 1022 12 is_stmt 0 view .LVU1432
 4028 007a 5744     		add	r7, r7, r10
 4029              	.LVL308:
1023:Core/Src/lcd.c **** 		lError_Y += lDelta_Y ; 
 4030              		.loc 1 1023 3 is_stmt 1 view .LVU1433
 4031              		.loc 1 1023 12 is_stmt 0 view .LVU1434
ARM GAS  C:\Users\84759\AppData\Local\Temp\cc1QWPm5.s 			page 113


 4032 007c 5D44     		add	r5, r5, fp
 4033              	.LVL309:
1024:Core/Src/lcd.c **** 		
1025:Core/Src/lcd.c **** 		if ( lError_X > lDistance ) 
 4034              		.loc 1 1025 3 is_stmt 1 view .LVU1435
 4035              		.loc 1 1025 6 is_stmt 0 view .LVU1436
 4036 007e BE42     		cmp	r6, r7
 4037 0080 04DA     		bge	.L81
1026:Core/Src/lcd.c **** 		{ 
1027:Core/Src/lcd.c **** 			lError_X -= lDistance; 
 4038              		.loc 1 1027 4 is_stmt 1 view .LVU1437
 4039              		.loc 1 1027 13 is_stmt 0 view .LVU1438
 4040 0082 BF1B     		subs	r7, r7, r6
 4041              	.LVL310:
1028:Core/Src/lcd.c **** 			usX_Current += lIncrease_X; 
 4042              		.loc 1 1028 4 is_stmt 1 view .LVU1439
 4043              		.loc 1 1028 16 is_stmt 0 view .LVU1440
 4044 0084 009B     		ldr	r3, [sp]
 4045 0086 9844     		add	r8, r8, r3
 4046              	.LVL311:
 4047              		.loc 1 1028 16 view .LVU1441
 4048 0088 1FFA88F8 		uxth	r8, r8
 4049              	.LVL312:
 4050              	.L81:
1029:Core/Src/lcd.c **** 		}  
1030:Core/Src/lcd.c **** 		
1031:Core/Src/lcd.c **** 		if ( lError_Y > lDistance ) 
 4051              		.loc 1 1031 3 is_stmt 1 view .LVU1442
 4052              		.loc 1 1031 6 is_stmt 0 view .LVU1443
 4053 008c AE42     		cmp	r6, r5
 4054 008e EBDA     		bge	.L82
1032:Core/Src/lcd.c **** 		{ 
1033:Core/Src/lcd.c **** 			lError_Y -= lDistance; 
 4055              		.loc 1 1033 4 is_stmt 1 view .LVU1444
 4056              		.loc 1 1033 13 is_stmt 0 view .LVU1445
 4057 0090 AD1B     		subs	r5, r5, r6
 4058              	.LVL313:
1034:Core/Src/lcd.c **** 			usY_Current += lIncrease_Y; 
 4059              		.loc 1 1034 4 is_stmt 1 view .LVU1446
 4060              		.loc 1 1034 16 is_stmt 0 view .LVU1447
 4061 0092 019B     		ldr	r3, [sp, #4]
 4062 0094 9944     		add	r9, r9, r3
 4063              	.LVL314:
 4064              		.loc 1 1034 16 view .LVU1448
 4065 0096 1FFA89F9 		uxth	r9, r9
 4066              	.LVL315:
 4067              		.loc 1 1034 16 view .LVU1449
 4068 009a E5E7     		b	.L82
 4069              	.L92:
1035:Core/Src/lcd.c **** 		} 
1036:Core/Src/lcd.c **** 		
1037:Core/Src/lcd.c **** 	}  
1038:Core/Src/lcd.c **** 	
1039:Core/Src/lcd.c **** 	
1040:Core/Src/lcd.c **** }   
 4070              		.loc 1 1040 1 view .LVU1450
 4071 009c 03B0     		add	sp, sp, #12
ARM GAS  C:\Users\84759\AppData\Local\Temp\cc1QWPm5.s 			page 114


 4072              	.LCFI20:
 4073              		.cfi_def_cfa_offset 36
 4074              	.LVL316:
 4075              		.loc 1 1040 1 view .LVU1451
 4076              		@ sp needed
 4077 009e BDE8F08F 		pop	{r4, r5, r6, r7, r8, r9, r10, fp, pc}
 4078              		.loc 1 1040 1 view .LVU1452
 4079              		.cfi_endproc
 4080              	.LFE84:
 4082              		.section	.text.ILI9341_DrawRectangle,"ax",%progbits
 4083              		.align	1
 4084              		.global	ILI9341_DrawRectangle
 4085              		.syntax unified
 4086              		.thumb
 4087              		.thumb_func
 4089              	ILI9341_DrawRectangle:
 4090              	.LVL317:
 4091              	.LFB85:
1041:Core/Src/lcd.c **** 
1042:Core/Src/lcd.c **** 
1043:Core/Src/lcd.c **** /**
1044:Core/Src/lcd.c ****  * @brief  ÔÚ ILI9341 ĎÔĘľĆ÷ÉĎ»­Ň»¸öľŘĐÎ
1045:Core/Src/lcd.c ****  * @param  usX_Start ŁşÔÚĚŘ¶¨É¨Ăč·˝ĎňĎÂľŘĐÎµÄĆđĘĽµăX×ř±ę
1046:Core/Src/lcd.c ****  * @param  usY_Start ŁşÔÚĚŘ¶¨É¨Ăč·˝ĎňĎÂľŘĐÎµÄĆđĘĽµăY×ř±ę
1047:Core/Src/lcd.c ****  * @param  usWidthŁşľŘĐÎµÄżí¶ČŁ¨µĄÎ»ŁşĎńËŘŁ©
1048:Core/Src/lcd.c ****  * @param  usHeightŁşľŘĐÎµÄ¸ß¶ČŁ¨µĄÎ»ŁşĎńËŘŁ©
1049:Core/Src/lcd.c ****  * @param  ucFilled ŁşŃˇÔńĘÇ·ńĚîłä¸ĂľŘĐÎ
1050:Core/Src/lcd.c ****   *   ¸Ă˛ÎĘýÎŞŇÔĎÂÖµÖ®Ň»Łş
1051:Core/Src/lcd.c ****   *     @arg 0 :żŐĐÄľŘĐÎ
1052:Core/Src/lcd.c ****   *     @arg 1 :ĘµĐÄľŘĐÎ 
1053:Core/Src/lcd.c ****  * @note żÉĘąÓĂLCD_SetBackColorˇ˘LCD_SetTextColorˇ˘LCD_SetColorsşŻĘýÉčÖĂŃŐÉ«
1054:Core/Src/lcd.c ****  * @retval ÎŢ
1055:Core/Src/lcd.c ****  */
1056:Core/Src/lcd.c **** void ILI9341_DrawRectangle ( uint16_t usX_Start, uint16_t usY_Start, uint16_t usWidth, uint16_t usH
1057:Core/Src/lcd.c **** {
 4092              		.loc 1 1057 1 is_stmt 1 view -0
 4093              		.cfi_startproc
 4094              		@ args = 4, pretend = 0, frame = 0
 4095              		@ frame_needed = 0, uses_anonymous_args = 0
 4096              		.loc 1 1057 1 is_stmt 0 view .LVU1454
 4097 0000 F8B5     		push	{r3, r4, r5, r6, r7, lr}
 4098              	.LCFI21:
 4099              		.cfi_def_cfa_offset 24
 4100              		.cfi_offset 3, -24
 4101              		.cfi_offset 4, -20
 4102              		.cfi_offset 5, -16
 4103              		.cfi_offset 6, -12
 4104              		.cfi_offset 7, -8
 4105              		.cfi_offset 14, -4
 4106 0002 0646     		mov	r6, r0
 4107 0004 0D46     		mov	r5, r1
 4108 0006 1446     		mov	r4, r2
 4109 0008 1F46     		mov	r7, r3
 4110 000a 9DF81830 		ldrb	r3, [sp, #24]	@ zero_extendqisi2
 4111              	.LVL318:
1058:Core/Src/lcd.c **** 	if ( ucFilled )
 4112              		.loc 1 1058 2 is_stmt 1 view .LVU1455
ARM GAS  C:\Users\84759\AppData\Local\Temp\cc1QWPm5.s 			page 115


 4113              		.loc 1 1058 5 is_stmt 0 view .LVU1456
 4114 000e 9BB1     		cbz	r3, .L94
1059:Core/Src/lcd.c **** 	{
1060:Core/Src/lcd.c **** 		ILI9341_OpenWindow ( usX_Start, usY_Start, usWidth, usHeight );
 4115              		.loc 1 1060 3 is_stmt 1 view .LVU1457
 4116 0010 3B46     		mov	r3, r7
 4117 0012 FFF7FEFF 		bl	ILI9341_OpenWindow
 4118              	.LVL319:
1061:Core/Src/lcd.c **** 		ILI9341_FillColor ( usWidth * usHeight ,CurrentTextColor);	
 4119              		.loc 1 1061 3 view .LVU1458
 4120              		.loc 1 1061 31 is_stmt 0 view .LVU1459
 4121 0016 07FB04F3 		mul	r3, r7, r4
 4122              		.loc 1 1061 3 view .LVU1460
 4123 001a 174A     		ldr	r2, .L99
 4124 001c 1088     		ldrh	r0, [r2]
 4125              	.LVL320:
 4126              	.LBB899:
 4127              	.LBI899:
 865:Core/Src/lcd.c **** {
 4128              		.loc 1 865 22 is_stmt 1 view .LVU1461
 4129              	.LBB900:
 867:Core/Src/lcd.c **** 	
 4130              		.loc 1 867 2 view .LVU1462
 871:Core/Src/lcd.c **** 		
 4131              		.loc 1 871 2 view .LVU1463
 4132              	.LBB901:
 4133              	.LBI901:
  59:Core/Src/lcd.c **** {
 4134              		.loc 1 59 7 view .LVU1464
 4135              	.LBB902:
  61:Core/Src/lcd.c **** 	
 4136              		.loc 1 61 2 view .LVU1465
  61:Core/Src/lcd.c **** 	
 4137              		.loc 1 61 50 is_stmt 0 view .LVU1466
 4138 001e 4FF0D842 		mov	r2, #1811939328
 4139 0022 2C21     		movs	r1, #44
 4140 0024 1180     		strh	r1, [r2]	@ movhi
 4141              	.LVL321:
  61:Core/Src/lcd.c **** 	
 4142              		.loc 1 61 50 view .LVU1467
 4143              	.LBE902:
 4144              	.LBE901:
 873:Core/Src/lcd.c **** 		ILI9341_Write_Data ( usColor );
 4145              		.loc 1 873 2 is_stmt 1 view .LVU1468
 873:Core/Src/lcd.c **** 		ILI9341_Write_Data ( usColor );
 4146              		.loc 1 873 10 is_stmt 0 view .LVU1469
 4147 0026 0022     		movs	r2, #0
 873:Core/Src/lcd.c **** 		ILI9341_Write_Data ( usColor );
 4148              		.loc 1 873 2 view .LVU1470
 4149 0028 03E0     		b	.L95
 4150              	.LVL322:
 4151              	.L96:
 874:Core/Src/lcd.c **** 		
 4152              		.loc 1 874 3 is_stmt 1 view .LVU1471
 4153              	.LBB903:
 4154              	.LBI903:
  71:Core/Src/lcd.c **** {
ARM GAS  C:\Users\84759\AppData\Local\Temp\cc1QWPm5.s 			page 116


 4155              		.loc 1 71 7 view .LVU1472
 4156              	.LBB904:
  73:Core/Src/lcd.c **** 	
 4157              		.loc 1 73 2 view .LVU1473
  73:Core/Src/lcd.c **** 	
 4158              		.loc 1 73 51 is_stmt 0 view .LVU1474
 4159 002a 4FF0DA41 		mov	r1, #1828716544
 4160 002e 0880     		strh	r0, [r1]	@ movhi
 4161              	.LVL323:
  73:Core/Src/lcd.c **** 	
 4162              		.loc 1 73 51 view .LVU1475
 4163              	.LBE904:
 4164              	.LBE903:
 873:Core/Src/lcd.c **** 		ILI9341_Write_Data ( usColor );
 4165              		.loc 1 873 34 is_stmt 1 view .LVU1476
 873:Core/Src/lcd.c **** 		ILI9341_Write_Data ( usColor );
 4166              		.loc 1 873 36 is_stmt 0 view .LVU1477
 4167 0030 0132     		adds	r2, r2, #1
 4168              	.LVL324:
 4169              	.L95:
 873:Core/Src/lcd.c **** 		ILI9341_Write_Data ( usColor );
 4170              		.loc 1 873 15 is_stmt 1 view .LVU1478
 873:Core/Src/lcd.c **** 		ILI9341_Write_Data ( usColor );
 4171              		.loc 1 873 2 is_stmt 0 view .LVU1479
 4172 0032 9342     		cmp	r3, r2
 4173 0034 F9D8     		bhi	.L96
 4174              	.LVL325:
 4175              	.L93:
 873:Core/Src/lcd.c **** 		ILI9341_Write_Data ( usColor );
 4176              		.loc 1 873 2 view .LVU1480
 4177              	.LBE900:
 4178              	.LBE899:
1062:Core/Src/lcd.c **** 	}
1063:Core/Src/lcd.c **** 	else
1064:Core/Src/lcd.c **** 	{
1065:Core/Src/lcd.c **** 		ILI9341_DrawLine ( usX_Start, usY_Start, usX_Start + usWidth - 1, usY_Start );
1066:Core/Src/lcd.c **** 		ILI9341_DrawLine ( usX_Start, usY_Start + usHeight - 1, usX_Start + usWidth - 1, usY_Start + usHe
1067:Core/Src/lcd.c **** 		ILI9341_DrawLine ( usX_Start, usY_Start, usX_Start, usY_Start + usHeight - 1 );
1068:Core/Src/lcd.c **** 		ILI9341_DrawLine ( usX_Start + usWidth - 1, usY_Start, usX_Start + usWidth - 1, usY_Start + usHei
1069:Core/Src/lcd.c **** 	}
1070:Core/Src/lcd.c **** 
1071:Core/Src/lcd.c **** }
 4179              		.loc 1 1071 1 view .LVU1481
 4180 0036 F8BD     		pop	{r3, r4, r5, r6, r7, pc}
 4181              	.LVL326:
 4182              	.L94:
1065:Core/Src/lcd.c **** 		ILI9341_DrawLine ( usX_Start, usY_Start + usHeight - 1, usX_Start + usWidth - 1, usY_Start + usHe
 4183              		.loc 1 1065 3 is_stmt 1 view .LVU1482
1065:Core/Src/lcd.c **** 		ILI9341_DrawLine ( usX_Start, usY_Start + usHeight - 1, usX_Start + usWidth - 1, usY_Start + usHe
 4184              		.loc 1 1065 54 is_stmt 0 view .LVU1483
 4185 0038 0444     		add	r4, r4, r0
 4186 003a A4B2     		uxth	r4, r4
1065:Core/Src/lcd.c **** 		ILI9341_DrawLine ( usX_Start, usY_Start + usHeight - 1, usX_Start + usWidth - 1, usY_Start + usHe
 4187              		.loc 1 1065 3 view .LVU1484
 4188 003c 013C     		subs	r4, r4, #1
 4189 003e A4B2     		uxth	r4, r4
 4190 0040 0B46     		mov	r3, r1
ARM GAS  C:\Users\84759\AppData\Local\Temp\cc1QWPm5.s 			page 117


 4191 0042 2246     		mov	r2, r4
 4192              	.LVL327:
1065:Core/Src/lcd.c **** 		ILI9341_DrawLine ( usX_Start, usY_Start + usHeight - 1, usX_Start + usWidth - 1, usY_Start + usHe
 4193              		.loc 1 1065 3 view .LVU1485
 4194 0044 FFF7FEFF 		bl	ILI9341_DrawLine
 4195              	.LVL328:
1066:Core/Src/lcd.c **** 		ILI9341_DrawLine ( usX_Start, usY_Start, usX_Start, usY_Start + usHeight - 1 );
 4196              		.loc 1 1066 3 is_stmt 1 view .LVU1486
1066:Core/Src/lcd.c **** 		ILI9341_DrawLine ( usX_Start, usY_Start, usX_Start, usY_Start + usHeight - 1 );
 4197              		.loc 1 1066 43 is_stmt 0 view .LVU1487
 4198 0048 2F44     		add	r7, r7, r5
 4199 004a BFB2     		uxth	r7, r7
1066:Core/Src/lcd.c **** 		ILI9341_DrawLine ( usX_Start, usY_Start, usX_Start, usY_Start + usHeight - 1 );
 4200              		.loc 1 1066 3 view .LVU1488
 4201 004c 013F     		subs	r7, r7, #1
 4202 004e BFB2     		uxth	r7, r7
 4203 0050 3B46     		mov	r3, r7
 4204 0052 2246     		mov	r2, r4
 4205 0054 3946     		mov	r1, r7
 4206 0056 3046     		mov	r0, r6
 4207 0058 FFF7FEFF 		bl	ILI9341_DrawLine
 4208              	.LVL329:
1067:Core/Src/lcd.c **** 		ILI9341_DrawLine ( usX_Start + usWidth - 1, usY_Start, usX_Start + usWidth - 1, usY_Start + usHei
 4209              		.loc 1 1067 3 is_stmt 1 view .LVU1489
 4210 005c 3B46     		mov	r3, r7
 4211 005e 3246     		mov	r2, r6
 4212 0060 2946     		mov	r1, r5
 4213 0062 3046     		mov	r0, r6
 4214 0064 FFF7FEFF 		bl	ILI9341_DrawLine
 4215              	.LVL330:
1068:Core/Src/lcd.c **** 	}
 4216              		.loc 1 1068 3 view .LVU1490
 4217 0068 3B46     		mov	r3, r7
 4218 006a 2246     		mov	r2, r4
 4219 006c 2946     		mov	r1, r5
 4220 006e 2046     		mov	r0, r4
 4221 0070 FFF7FEFF 		bl	ILI9341_DrawLine
 4222              	.LVL331:
 4223              		.loc 1 1071 1 is_stmt 0 view .LVU1491
 4224 0074 DFE7     		b	.L93
 4225              	.L100:
 4226 0076 00BF     		.align	2
 4227              	.L99:
 4228 0078 00000000 		.word	.LANCHOR7
 4229              		.cfi_endproc
 4230              	.LFE85:
 4232              		.section	.text.ILI9341_DrawCircle,"ax",%progbits
 4233              		.align	1
 4234              		.global	ILI9341_DrawCircle
 4235              		.syntax unified
 4236              		.thumb
 4237              		.thumb_func
 4239              	ILI9341_DrawCircle:
 4240              	.LVL332:
 4241              	.LFB86:
1072:Core/Src/lcd.c **** 
1073:Core/Src/lcd.c **** 
ARM GAS  C:\Users\84759\AppData\Local\Temp\cc1QWPm5.s 			page 118


1074:Core/Src/lcd.c **** /**
1075:Core/Src/lcd.c ****  * @brief  ÔÚ ILI9341 ĎÔĘľĆ÷ÉĎĘąÓĂ Bresenham Ëă·¨»­Ô˛
1076:Core/Src/lcd.c ****  * @param  usX_Center ŁşÔÚĚŘ¶¨É¨Ăč·˝ĎňĎÂÔ˛ĐÄµÄX×ř±ę
1077:Core/Src/lcd.c ****  * @param  usY_Center ŁşÔÚĚŘ¶¨É¨Ăč·˝ĎňĎÂÔ˛ĐÄµÄY×ř±ę
1078:Core/Src/lcd.c ****  * @param  usRadiusŁşÔ˛µÄ°ëľ¶Ł¨µĄÎ»ŁşĎńËŘŁ©
1079:Core/Src/lcd.c ****  * @param  ucFilled ŁşŃˇÔńĘÇ·ńĚîłä¸ĂÔ˛
1080:Core/Src/lcd.c ****   *   ¸Ă˛ÎĘýÎŞŇÔĎÂÖµÖ®Ň»Łş
1081:Core/Src/lcd.c ****   *     @arg 0 :żŐĐÄÔ˛
1082:Core/Src/lcd.c ****   *     @arg 1 :ĘµĐÄÔ˛
1083:Core/Src/lcd.c ****  * @note żÉĘąÓĂLCD_SetBackColorˇ˘LCD_SetTextColorˇ˘LCD_SetColorsşŻĘýÉčÖĂŃŐÉ«
1084:Core/Src/lcd.c ****  * @retval ÎŢ
1085:Core/Src/lcd.c ****  */
1086:Core/Src/lcd.c **** void ILI9341_DrawCircle ( uint16_t usX_Center, uint16_t usY_Center, uint16_t usRadius, uint8_t ucFi
1087:Core/Src/lcd.c **** {
 4242              		.loc 1 1087 1 is_stmt 1 view -0
 4243              		.cfi_startproc
 4244              		@ args = 0, pretend = 0, frame = 16
 4245              		@ frame_needed = 0, uses_anonymous_args = 0
 4246              		.loc 1 1087 1 is_stmt 0 view .LVU1493
 4247 0000 2DE9F04F 		push	{r4, r5, r6, r7, r8, r9, r10, fp, lr}
 4248              	.LCFI22:
 4249              		.cfi_def_cfa_offset 36
 4250              		.cfi_offset 4, -36
 4251              		.cfi_offset 5, -32
 4252              		.cfi_offset 6, -28
 4253              		.cfi_offset 7, -24
 4254              		.cfi_offset 8, -20
 4255              		.cfi_offset 9, -16
 4256              		.cfi_offset 10, -12
 4257              		.cfi_offset 11, -8
 4258              		.cfi_offset 14, -4
 4259 0004 85B0     		sub	sp, sp, #20
 4260              	.LCFI23:
 4261              		.cfi_def_cfa_offset 56
 4262 0006 8346     		mov	fp, r0
 4263 0008 8A46     		mov	r10, r1
 4264 000a 0393     		str	r3, [sp, #12]
1088:Core/Src/lcd.c **** 	int16_t sCurrentX, sCurrentY;
 4265              		.loc 1 1088 2 is_stmt 1 view .LVU1494
1089:Core/Src/lcd.c **** 	int16_t sError;
 4266              		.loc 1 1089 2 view .LVU1495
1090:Core/Src/lcd.c **** 	
1091:Core/Src/lcd.c **** 	
1092:Core/Src/lcd.c **** 	sCurrentX = 0; sCurrentY = usRadius;	  
 4267              		.loc 1 1092 2 view .LVU1496
 4268              	.LVL333:
 4269              		.loc 1 1092 17 view .LVU1497
 4270              		.loc 1 1092 27 is_stmt 0 view .LVU1498
 4271 000c 13B2     		sxth	r3, r2
 4272              	.LVL334:
 4273              		.loc 1 1092 27 view .LVU1499
 4274 000e 0193     		str	r3, [sp, #4]
 4275              	.LVL335:
1093:Core/Src/lcd.c **** 	
1094:Core/Src/lcd.c **** 	sError = 3 - ( usRadius << 1 );     //ĹĐ¶ĎĎÂ¸öµăÎ»ÖĂµÄ±ęÖľ
 4276              		.loc 1 1094 2 is_stmt 1 view .LVU1500
 4277              		.loc 1 1094 26 is_stmt 0 view .LVU1501
ARM GAS  C:\Users\84759\AppData\Local\Temp\cc1QWPm5.s 			page 119


 4278 0010 5300     		lsls	r3, r2, #1
 4279 0012 9BB2     		uxth	r3, r3
 4280              		.loc 1 1094 13 view .LVU1502
 4281 0014 C3F10303 		rsb	r3, r3, #3
 4282              		.loc 1 1094 9 view .LVU1503
 4283 0018 1BB2     		sxth	r3, r3
 4284 001a 0293     		str	r3, [sp, #8]
 4285              	.LVL336:
1095:Core/Src/lcd.c **** 	
1096:Core/Src/lcd.c **** 	
1097:Core/Src/lcd.c **** 	while ( sCurrentX <= sCurrentY )
 4286              		.loc 1 1097 2 is_stmt 1 view .LVU1504
1092:Core/Src/lcd.c **** 	
 4287              		.loc 1 1092 12 is_stmt 0 view .LVU1505
 4288 001c 0023     		movs	r3, #0
 4289 001e 0093     		str	r3, [sp]
 4290              		.loc 1 1097 8 view .LVU1506
 4291 0020 56E0     		b	.L102
 4292              	.LVL337:
 4293              	.L105:
 4294              	.LBB905:
1098:Core/Src/lcd.c **** 	{
1099:Core/Src/lcd.c **** 		int16_t sCountY;
1100:Core/Src/lcd.c **** 		
1101:Core/Src/lcd.c **** 		
1102:Core/Src/lcd.c **** 		if ( ucFilled ) 			
1103:Core/Src/lcd.c **** 			for ( sCountY = sCurrentX; sCountY <= sCurrentY; sCountY ++ ) 
1104:Core/Src/lcd.c **** 			{                      
1105:Core/Src/lcd.c **** 				ILI9341_SetPointPixel ( usX_Center + sCurrentX, usY_Center + sCountY );           //1Ł¬ŃĐľż¶ÔĎó
 4295              		.loc 1 1105 5 is_stmt 1 discriminator 3 view .LVU1507
 4296 0022 BDF80050 		ldrh	r5, [sp]
 4297 0026 05EB0B07 		add	r7, r5, fp
 4298 002a BFB2     		uxth	r7, r7
 4299 002c A4B2     		uxth	r4, r4
 4300              		.loc 1 1105 5 is_stmt 0 discriminator 3 view .LVU1508
 4301 002e 04EB0A06 		add	r6, r4, r10
 4302 0032 B6B2     		uxth	r6, r6
 4303 0034 3146     		mov	r1, r6
 4304 0036 3846     		mov	r0, r7
 4305 0038 FFF7FEFF 		bl	ILI9341_SetPointPixel
 4306              	.LVL338:
1106:Core/Src/lcd.c **** 				ILI9341_SetPointPixel ( usX_Center - sCurrentX, usY_Center + sCountY );           //2       
 4307              		.loc 1 1106 5 is_stmt 1 discriminator 3 view .LVU1509
 4308 003c ABEB0508 		sub	r8, fp, r5
 4309 0040 1FFA88F8 		uxth	r8, r8
 4310 0044 3146     		mov	r1, r6
 4311 0046 4046     		mov	r0, r8
 4312 0048 FFF7FEFF 		bl	ILI9341_SetPointPixel
 4313              	.LVL339:
1107:Core/Src/lcd.c **** 				ILI9341_SetPointPixel ( usX_Center - sCountY,   usY_Center + sCurrentX );           //3
 4314              		.loc 1 1107 5 discriminator 3 view .LVU1510
 4315 004c ABEB0409 		sub	r9, fp, r4
 4316 0050 1FFA89F9 		uxth	r9, r9
 4317 0054 05EB0A06 		add	r6, r5, r10
 4318 0058 B6B2     		uxth	r6, r6
 4319 005a 3146     		mov	r1, r6
 4320 005c 4846     		mov	r0, r9
ARM GAS  C:\Users\84759\AppData\Local\Temp\cc1QWPm5.s 			page 120


 4321 005e FFF7FEFF 		bl	ILI9341_SetPointPixel
 4322              	.LVL340:
1108:Core/Src/lcd.c **** 				ILI9341_SetPointPixel ( usX_Center - sCountY,   usY_Center - sCurrentX );           //4
 4323              		.loc 1 1108 5 discriminator 3 view .LVU1511
 4324 0062 AAEB0505 		sub	r5, r10, r5
 4325 0066 ADB2     		uxth	r5, r5
 4326 0068 2946     		mov	r1, r5
 4327 006a 4846     		mov	r0, r9
 4328 006c FFF7FEFF 		bl	ILI9341_SetPointPixel
 4329              	.LVL341:
1109:Core/Src/lcd.c **** 				ILI9341_SetPointPixel ( usX_Center - sCurrentX, usY_Center - sCountY );           //5    
 4330              		.loc 1 1109 5 discriminator 3 view .LVU1512
 4331 0070 AAEB0409 		sub	r9, r10, r4
 4332 0074 1FFA89F9 		uxth	r9, r9
 4333 0078 4946     		mov	r1, r9
 4334 007a 4046     		mov	r0, r8
 4335 007c FFF7FEFF 		bl	ILI9341_SetPointPixel
 4336              	.LVL342:
1110:Core/Src/lcd.c ****         ILI9341_SetPointPixel ( usX_Center + sCurrentX, usY_Center - sCountY );           //6
 4337              		.loc 1 1110 9 discriminator 3 view .LVU1513
 4338 0080 4946     		mov	r1, r9
 4339 0082 3846     		mov	r0, r7
 4340 0084 FFF7FEFF 		bl	ILI9341_SetPointPixel
 4341              	.LVL343:
1111:Core/Src/lcd.c **** 				ILI9341_SetPointPixel ( usX_Center + sCountY,   usY_Center - sCurrentX );           //7 	
 4342              		.loc 1 1111 5 discriminator 3 view .LVU1514
 4343 0088 04EB0B07 		add	r7, r4, fp
 4344 008c BFB2     		uxth	r7, r7
 4345 008e 2946     		mov	r1, r5
 4346 0090 3846     		mov	r0, r7
 4347 0092 FFF7FEFF 		bl	ILI9341_SetPointPixel
 4348              	.LVL344:
1112:Core/Src/lcd.c ****         ILI9341_SetPointPixel ( usX_Center + sCountY,   usY_Center + sCurrentX );           //0				
 4349              		.loc 1 1112 9 discriminator 3 view .LVU1515
 4350 0096 3146     		mov	r1, r6
 4351 0098 3846     		mov	r0, r7
 4352 009a FFF7FEFF 		bl	ILI9341_SetPointPixel
 4353              	.LVL345:
1103:Core/Src/lcd.c **** 			{                      
 4354              		.loc 1 1103 53 discriminator 3 view .LVU1516
1103:Core/Src/lcd.c **** 			{                      
 4355              		.loc 1 1103 61 is_stmt 0 discriminator 3 view .LVU1517
 4356 009e 0134     		adds	r4, r4, #1
 4357              	.LVL346:
1103:Core/Src/lcd.c **** 			{                      
 4358              		.loc 1 1103 61 discriminator 3 view .LVU1518
 4359 00a0 24B2     		sxth	r4, r4
 4360              	.LVL347:
 4361              	.L103:
1103:Core/Src/lcd.c **** 			{                      
 4362              		.loc 1 1103 31 is_stmt 1 discriminator 1 view .LVU1519
1103:Core/Src/lcd.c **** 			{                      
 4363              		.loc 1 1103 4 is_stmt 0 discriminator 1 view .LVU1520
 4364 00a2 019B     		ldr	r3, [sp, #4]
 4365 00a4 A342     		cmp	r3, r4
 4366 00a6 BCDA     		bge	.L105
 4367              	.LVL348:
ARM GAS  C:\Users\84759\AppData\Local\Temp\cc1QWPm5.s 			page 121


 4368              	.L106:
1113:Core/Src/lcd.c **** 			}
1114:Core/Src/lcd.c **** 		
1115:Core/Src/lcd.c **** 		else
1116:Core/Src/lcd.c **** 		{          
1117:Core/Src/lcd.c **** 			ILI9341_SetPointPixel ( usX_Center + sCurrentX, usY_Center + sCurrentY );             //1Ł¬ŃĐľż¶
1118:Core/Src/lcd.c **** 			ILI9341_SetPointPixel ( usX_Center - sCurrentX, usY_Center + sCurrentY );             //2      
1119:Core/Src/lcd.c **** 			ILI9341_SetPointPixel ( usX_Center - sCurrentY, usY_Center + sCurrentX );             //3
1120:Core/Src/lcd.c **** 			ILI9341_SetPointPixel ( usX_Center - sCurrentY, usY_Center - sCurrentX );             //4
1121:Core/Src/lcd.c **** 			ILI9341_SetPointPixel ( usX_Center - sCurrentX, usY_Center - sCurrentY );             //5       
1122:Core/Src/lcd.c **** 			ILI9341_SetPointPixel ( usX_Center + sCurrentX, usY_Center - sCurrentY );             //6
1123:Core/Src/lcd.c **** 			ILI9341_SetPointPixel ( usX_Center + sCurrentY, usY_Center - sCurrentX );             //7 
1124:Core/Src/lcd.c **** 			ILI9341_SetPointPixel ( usX_Center + sCurrentY, usY_Center + sCurrentX );             //0
1125:Core/Src/lcd.c ****     }			
1126:Core/Src/lcd.c **** 		
1127:Core/Src/lcd.c **** 		
1128:Core/Src/lcd.c **** 		sCurrentX ++;
 4369              		.loc 1 1128 3 is_stmt 1 view .LVU1521
 4370              		.loc 1 1128 13 is_stmt 0 view .LVU1522
 4371 00a8 009A     		ldr	r2, [sp]
 4372 00aa 0132     		adds	r2, r2, #1
 4373 00ac 93B2     		uxth	r3, r2
 4374 00ae 12B2     		sxth	r2, r2
 4375 00b0 0092     		str	r2, [sp]
 4376              	.LVL349:
1129:Core/Src/lcd.c **** 
1130:Core/Src/lcd.c **** 		
1131:Core/Src/lcd.c **** 		if ( sError < 0 ) 
 4377              		.loc 1 1131 3 is_stmt 1 view .LVU1523
 4378              		.loc 1 1131 6 is_stmt 0 view .LVU1524
 4379 00b2 029A     		ldr	r2, [sp, #8]
 4380 00b4 002A     		cmp	r2, #0
 4381 00b6 54DB     		blt	.L113
1132:Core/Src/lcd.c **** 			sError += 4 * sCurrentX + 6;	  
1133:Core/Src/lcd.c **** 		
1134:Core/Src/lcd.c **** 		else
1135:Core/Src/lcd.c **** 		{
1136:Core/Src/lcd.c **** 			sError += 10 + 4 * ( sCurrentX - sCurrentY );   
 4382              		.loc 1 1136 4 is_stmt 1 view .LVU1525
 4383              		.loc 1 1136 35 is_stmt 0 view .LVU1526
 4384 00b8 009B     		ldr	r3, [sp]
 4385 00ba 019A     		ldr	r2, [sp, #4]
 4386 00bc 9B1A     		subs	r3, r3, r2
 4387              		.loc 1 1136 11 view .LVU1527
 4388 00be 0299     		ldr	r1, [sp, #8]
 4389 00c0 01EB8303 		add	r3, r1, r3, lsl #2
 4390 00c4 0A33     		adds	r3, r3, #10
 4391 00c6 1BB2     		sxth	r3, r3
 4392 00c8 0293     		str	r3, [sp, #8]
 4393              	.LVL350:
1137:Core/Src/lcd.c **** 			sCurrentY --;
 4394              		.loc 1 1137 4 is_stmt 1 view .LVU1528
 4395              		.loc 1 1137 14 is_stmt 0 view .LVU1529
 4396 00ca 531E     		subs	r3, r2, #1
 4397 00cc 1BB2     		sxth	r3, r3
 4398 00ce 0193     		str	r3, [sp, #4]
 4399              	.LVL351:
ARM GAS  C:\Users\84759\AppData\Local\Temp\cc1QWPm5.s 			page 122


 4400              	.L102:
 4401              		.loc 1 1137 14 view .LVU1530
 4402              	.LBE905:
1097:Core/Src/lcd.c **** 	{
 4403              		.loc 1 1097 8 is_stmt 1 view .LVU1531
 4404 00d0 009B     		ldr	r3, [sp]
 4405 00d2 019A     		ldr	r2, [sp, #4]
 4406 00d4 9342     		cmp	r3, r2
 4407 00d6 4BDC     		bgt	.L114
 4408              	.LBB906:
1099:Core/Src/lcd.c **** 		
 4409              		.loc 1 1099 3 view .LVU1532
1102:Core/Src/lcd.c **** 			for ( sCountY = sCurrentX; sCountY <= sCurrentY; sCountY ++ ) 
 4410              		.loc 1 1102 3 view .LVU1533
1102:Core/Src/lcd.c **** 			for ( sCountY = sCurrentX; sCountY <= sCurrentY; sCountY ++ ) 
 4411              		.loc 1 1102 6 is_stmt 0 view .LVU1534
 4412 00d8 039B     		ldr	r3, [sp, #12]
 4413 00da 002B     		cmp	r3, #0
 4414 00dc 3FD1     		bne	.L115
1117:Core/Src/lcd.c **** 			ILI9341_SetPointPixel ( usX_Center - sCurrentX, usY_Center + sCurrentY );             //2      
 4415              		.loc 1 1117 4 is_stmt 1 view .LVU1535
 4416 00de BDF80050 		ldrh	r5, [sp]
 4417 00e2 05EB0B06 		add	r6, r5, fp
 4418 00e6 B6B2     		uxth	r6, r6
 4419 00e8 BDF80440 		ldrh	r4, [sp, #4]
 4420 00ec 04EB0A08 		add	r8, r4, r10
 4421 00f0 1FFA88F8 		uxth	r8, r8
 4422 00f4 4146     		mov	r1, r8
 4423 00f6 3046     		mov	r0, r6
 4424 00f8 FFF7FEFF 		bl	ILI9341_SetPointPixel
 4425              	.LVL352:
1118:Core/Src/lcd.c **** 			ILI9341_SetPointPixel ( usX_Center - sCurrentY, usY_Center + sCurrentX );             //3
 4426              		.loc 1 1118 4 view .LVU1536
 4427 00fc ABEB0507 		sub	r7, fp, r5
 4428 0100 BFB2     		uxth	r7, r7
 4429 0102 4146     		mov	r1, r8
 4430 0104 3846     		mov	r0, r7
 4431 0106 FFF7FEFF 		bl	ILI9341_SetPointPixel
 4432              	.LVL353:
1119:Core/Src/lcd.c **** 			ILI9341_SetPointPixel ( usX_Center - sCurrentY, usY_Center - sCurrentX );             //4
 4433              		.loc 1 1119 4 view .LVU1537
 4434 010a ABEB0408 		sub	r8, fp, r4
 4435 010e 1FFA88F8 		uxth	r8, r8
 4436 0112 05EB0A09 		add	r9, r5, r10
 4437 0116 1FFA89F9 		uxth	r9, r9
 4438 011a 4946     		mov	r1, r9
 4439 011c 4046     		mov	r0, r8
 4440 011e FFF7FEFF 		bl	ILI9341_SetPointPixel
 4441              	.LVL354:
1120:Core/Src/lcd.c **** 			ILI9341_SetPointPixel ( usX_Center - sCurrentX, usY_Center - sCurrentY );             //5       
 4442              		.loc 1 1120 4 view .LVU1538
 4443 0122 AAEB0505 		sub	r5, r10, r5
 4444 0126 ADB2     		uxth	r5, r5
 4445 0128 2946     		mov	r1, r5
 4446 012a 4046     		mov	r0, r8
 4447 012c FFF7FEFF 		bl	ILI9341_SetPointPixel
 4448              	.LVL355:
ARM GAS  C:\Users\84759\AppData\Local\Temp\cc1QWPm5.s 			page 123


1121:Core/Src/lcd.c **** 			ILI9341_SetPointPixel ( usX_Center + sCurrentX, usY_Center - sCurrentY );             //6
 4449              		.loc 1 1121 4 view .LVU1539
 4450 0130 AAEB0408 		sub	r8, r10, r4
 4451 0134 1FFA88F8 		uxth	r8, r8
 4452 0138 4146     		mov	r1, r8
 4453 013a 3846     		mov	r0, r7
 4454 013c FFF7FEFF 		bl	ILI9341_SetPointPixel
 4455              	.LVL356:
1122:Core/Src/lcd.c **** 			ILI9341_SetPointPixel ( usX_Center + sCurrentY, usY_Center - sCurrentX );             //7 
 4456              		.loc 1 1122 4 view .LVU1540
 4457 0140 4146     		mov	r1, r8
 4458 0142 3046     		mov	r0, r6
 4459 0144 FFF7FEFF 		bl	ILI9341_SetPointPixel
 4460              	.LVL357:
1123:Core/Src/lcd.c **** 			ILI9341_SetPointPixel ( usX_Center + sCurrentY, usY_Center + sCurrentX );             //0
 4461              		.loc 1 1123 4 view .LVU1541
 4462 0148 5C44     		add	r4, r4, fp
 4463 014a A4B2     		uxth	r4, r4
 4464 014c 2946     		mov	r1, r5
 4465 014e 2046     		mov	r0, r4
 4466 0150 FFF7FEFF 		bl	ILI9341_SetPointPixel
 4467              	.LVL358:
1124:Core/Src/lcd.c ****     }			
 4468              		.loc 1 1124 4 view .LVU1542
 4469 0154 4946     		mov	r1, r9
 4470 0156 2046     		mov	r0, r4
 4471 0158 FFF7FEFF 		bl	ILI9341_SetPointPixel
 4472              	.LVL359:
 4473 015c A4E7     		b	.L106
 4474              	.L115:
1103:Core/Src/lcd.c **** 			{                      
 4475              		.loc 1 1103 18 is_stmt 0 view .LVU1543
 4476 015e 009C     		ldr	r4, [sp]
 4477 0160 9FE7     		b	.L103
 4478              	.L113:
1132:Core/Src/lcd.c **** 		
 4479              		.loc 1 1132 4 is_stmt 1 view .LVU1544
1132:Core/Src/lcd.c **** 		
 4480              		.loc 1 1132 16 is_stmt 0 view .LVU1545
 4481 0162 9B00     		lsls	r3, r3, #2
 4482 0164 9BB2     		uxth	r3, r3
1132:Core/Src/lcd.c **** 		
 4483              		.loc 1 1132 11 view .LVU1546
 4484 0166 1344     		add	r3, r3, r2
 4485 0168 0633     		adds	r3, r3, #6
 4486 016a 1BB2     		sxth	r3, r3
 4487 016c 0293     		str	r3, [sp, #8]
 4488              	.LVL360:
1132:Core/Src/lcd.c **** 		
 4489              		.loc 1 1132 11 view .LVU1547
 4490 016e AFE7     		b	.L102
 4491              	.L114:
1132:Core/Src/lcd.c **** 		
 4492              		.loc 1 1132 11 view .LVU1548
 4493              	.LBE906:
1138:Core/Src/lcd.c **** 		} 	
1139:Core/Src/lcd.c **** 		
ARM GAS  C:\Users\84759\AppData\Local\Temp\cc1QWPm5.s 			page 124


1140:Core/Src/lcd.c **** 		
1141:Core/Src/lcd.c **** 	}
1142:Core/Src/lcd.c **** 	
1143:Core/Src/lcd.c **** 	
1144:Core/Src/lcd.c **** }
 4494              		.loc 1 1144 1 view .LVU1549
 4495 0170 05B0     		add	sp, sp, #20
 4496              	.LCFI24:
 4497              		.cfi_def_cfa_offset 36
 4498              	.LVL361:
 4499              		.loc 1 1144 1 view .LVU1550
 4500              		@ sp needed
 4501 0172 BDE8F08F 		pop	{r4, r5, r6, r7, r8, r9, r10, fp, pc}
 4502              		.loc 1 1144 1 view .LVU1551
 4503              		.cfi_endproc
 4504              	.LFE86:
 4506              		.section	.text.ILI9341_DispChar_EN,"ax",%progbits
 4507              		.align	1
 4508              		.global	ILI9341_DispChar_EN
 4509              		.syntax unified
 4510              		.thumb
 4511              		.thumb_func
 4513              	ILI9341_DispChar_EN:
 4514              	.LVL362:
 4515              	.LFB87:
1145:Core/Src/lcd.c **** 
1146:Core/Src/lcd.c **** /**
1147:Core/Src/lcd.c ****  * @brief  ÔÚ ILI9341 ĎÔĘľĆ÷ÉĎĎÔĘľŇ»¸öÓ˘ÎÄ×Ö·ű
1148:Core/Src/lcd.c ****  * @param  usX ŁşÔÚĚŘ¶¨É¨Ăč·˝ĎňĎÂ×Ö·űµÄĆđĘĽX×ř±ę
1149:Core/Src/lcd.c ****  * @param  usY ŁşÔÚĚŘ¶¨É¨Ăč·˝ĎňĎÂ¸ĂµăµÄĆđĘĽY×ř±ę
1150:Core/Src/lcd.c ****  * @param  cChar ŁşŇŞĎÔĘľµÄÓ˘ÎÄ×Ö·ű
1151:Core/Src/lcd.c ****  * @note żÉĘąÓĂLCD_SetBackColorˇ˘LCD_SetTextColorˇ˘LCD_SetColorsşŻĘýÉčÖĂŃŐÉ«
1152:Core/Src/lcd.c ****  * @retval ÎŢ
1153:Core/Src/lcd.c ****  */
1154:Core/Src/lcd.c **** void ILI9341_DispChar_EN ( uint16_t usX, uint16_t usY, const char cChar )
1155:Core/Src/lcd.c **** {
 4516              		.loc 1 1155 1 is_stmt 1 view -0
 4517              		.cfi_startproc
 4518              		@ args = 0, pretend = 0, frame = 0
 4519              		@ frame_needed = 0, uses_anonymous_args = 0
 4520              		.loc 1 1155 1 is_stmt 0 view .LVU1553
 4521 0000 70B5     		push	{r4, r5, r6, lr}
 4522              	.LCFI25:
 4523              		.cfi_def_cfa_offset 16
 4524              		.cfi_offset 4, -16
 4525              		.cfi_offset 5, -12
 4526              		.cfi_offset 6, -8
 4527              		.cfi_offset 14, -4
1156:Core/Src/lcd.c **** 	uint8_t  byteCount, bitCount,fontLength;	
 4528              		.loc 1 1156 2 is_stmt 1 view .LVU1554
1157:Core/Src/lcd.c **** 	uint16_t ucRelativePositon;
 4529              		.loc 1 1157 2 view .LVU1555
1158:Core/Src/lcd.c **** 	uint8_t *Pfont;
 4530              		.loc 1 1158 2 view .LVU1556
1159:Core/Src/lcd.c **** 	
1160:Core/Src/lcd.c **** 	//¶ÔasciiÂë±íĆ«ŇĆŁ¨×ÖÄŁ±í˛»°üş¬ASCII±íµÄÇ°32¸ö·ÇÍĽĐÎ·űşĹŁ©
1161:Core/Src/lcd.c **** 	ucRelativePositon = cChar - ' ';
ARM GAS  C:\Users\84759\AppData\Local\Temp\cc1QWPm5.s 			page 125


 4531              		.loc 1 1161 2 view .LVU1557
 4532              		.loc 1 1161 20 is_stmt 0 view .LVU1558
 4533 0002 A2F12004 		sub	r4, r2, #32
 4534 0006 A4B2     		uxth	r4, r4
 4535              	.LVL363:
1162:Core/Src/lcd.c **** 	
1163:Core/Src/lcd.c **** 	//Ăż¸ö×ÖÄŁµÄ×Ö˝ÚĘý
1164:Core/Src/lcd.c **** 	fontLength = (LCD_Currentfonts->Width*LCD_Currentfonts->Height)/8;
 4536              		.loc 1 1164 2 is_stmt 1 view .LVU1559
 4537              		.loc 1 1164 32 is_stmt 0 view .LVU1560
 4538 0008 194B     		ldr	r3, .L128
 4539 000a 1D68     		ldr	r5, [r3]
 4540 000c AA88     		ldrh	r2, [r5, #4]
 4541              	.LVL364:
 4542              		.loc 1 1164 56 view .LVU1561
 4543 000e EB88     		ldrh	r3, [r5, #6]
 4544              		.loc 1 1164 39 view .LVU1562
 4545 0010 03FB02F6 		mul	r6, r3, r2
 4546              		.loc 1 1164 65 view .LVU1563
 4547 0014 002E     		cmp	r6, #0
 4548 0016 0CDB     		blt	.L125
 4549              	.L117:
 4550              		.loc 1 1164 13 view .LVU1564
 4551 0018 C6F3C706 		ubfx	r6, r6, #3, #8
 4552              	.LVL365:
1165:Core/Src/lcd.c **** 		
1166:Core/Src/lcd.c **** 	//×ÖÄŁĘ×µŘÖ·
1167:Core/Src/lcd.c **** 	/*asciiÂë±íĆ«ŇĆÖµłËŇÔĂż¸ö×ÖÄŁµÄ×Ö˝ÚĘýŁ¬Çółö×ÖÄŁµÄĆ«ŇĆÎ»ÖĂ*/
1168:Core/Src/lcd.c **** 	Pfont = (uint8_t *)&LCD_Currentfonts->table[ucRelativePositon * fontLength];
 4553              		.loc 1 1168 2 is_stmt 1 view .LVU1565
 4554              		.loc 1 1168 38 is_stmt 0 view .LVU1566
 4555 001c 2D68     		ldr	r5, [r5]
 4556              		.loc 1 1168 64 view .LVU1567
 4557 001e 06FB04F4 		mul	r4, r6, r4
 4558              	.LVL366:
1169:Core/Src/lcd.c **** 	
1170:Core/Src/lcd.c **** 	//ÉčÖĂĎÔĘľ´°żÚ
1171:Core/Src/lcd.c **** 	ILI9341_OpenWindow ( usX, usY, LCD_Currentfonts->Width, LCD_Currentfonts->Height);
 4559              		.loc 1 1171 2 is_stmt 1 view .LVU1568
 4560 0022 FFF7FEFF 		bl	ILI9341_OpenWindow
 4561              	.LVL367:
1172:Core/Src/lcd.c **** 	
1173:Core/Src/lcd.c **** 	ILI9341_Write_Cmd ( CMD_SetPixel );			
 4562              		.loc 1 1173 2 view .LVU1569
 4563              	.LBB907:
 4564              	.LBI907:
  59:Core/Src/lcd.c **** {
 4565              		.loc 1 59 7 view .LVU1570
 4566              	.LBB908:
  61:Core/Src/lcd.c **** 	
 4567              		.loc 1 61 2 view .LVU1571
  61:Core/Src/lcd.c **** 	
 4568              		.loc 1 61 50 is_stmt 0 view .LVU1572
 4569 0026 4FF0D843 		mov	r3, #1811939328
 4570 002a 2C22     		movs	r2, #44
 4571 002c 1A80     		strh	r2, [r3]	@ movhi
 4572              	.LVL368:
ARM GAS  C:\Users\84759\AppData\Local\Temp\cc1QWPm5.s 			page 126


  61:Core/Src/lcd.c **** 	
 4573              		.loc 1 61 50 view .LVU1573
 4574              	.LBE908:
 4575              	.LBE907:
1174:Core/Src/lcd.c **** 
1175:Core/Src/lcd.c **** 	//°´×Ö˝Ú¶ÁČˇ×ÖÄŁĘýľÝ
1176:Core/Src/lcd.c **** 	//ÓÉÓÚÇ°ĂćÖ±˝ÓÉčÖĂÁËĎÔĘľ´°żÚŁ¬ĎÔĘľĘýľÝ»á×Ô¶Ż»»ĐĐ
1177:Core/Src/lcd.c **** 	for ( byteCount = 0; byteCount < fontLength; byteCount++ )
 4576              		.loc 1 1177 2 is_stmt 1 view .LVU1574
 4577              		.loc 1 1177 18 is_stmt 0 view .LVU1575
 4578 002e 0020     		movs	r0, #0
 4579              		.loc 1 1177 2 view .LVU1576
 4580 0030 18E0     		b	.L118
 4581              	.LVL369:
 4582              	.L125:
1164:Core/Src/lcd.c **** 		
 4583              		.loc 1 1164 65 view .LVU1577
 4584 0032 0736     		adds	r6, r6, #7
 4585 0034 F0E7     		b	.L117
 4586              	.LVL370:
 4587              	.L119:
1178:Core/Src/lcd.c **** 	{
1179:Core/Src/lcd.c **** 			//Ň»Î»Ň»Î»´¦ŔíŇŞĎÔĘľµÄŃŐÉ«
1180:Core/Src/lcd.c **** 			for ( bitCount = 0; bitCount < 8; bitCount++ )
1181:Core/Src/lcd.c **** 			{
1182:Core/Src/lcd.c **** 					if ( Pfont[byteCount] & (0x80>>bitCount) )
1183:Core/Src/lcd.c **** 						ILI9341_Write_Data ( CurrentTextColor );			
1184:Core/Src/lcd.c **** 					else
1185:Core/Src/lcd.c **** 						ILI9341_Write_Data ( CurrentBackColor );
 4588              		.loc 1 1185 7 is_stmt 1 view .LVU1578
 4589 0036 0F4A     		ldr	r2, .L128+4
 4590 0038 1188     		ldrh	r1, [r2]
 4591              	.LVL371:
 4592              	.LBB909:
 4593              	.LBI909:
  71:Core/Src/lcd.c **** {
 4594              		.loc 1 71 7 view .LVU1579
 4595              	.LBB910:
  73:Core/Src/lcd.c **** 	
 4596              		.loc 1 73 2 view .LVU1580
  73:Core/Src/lcd.c **** 	
 4597              		.loc 1 73 51 is_stmt 0 view .LVU1581
 4598 003a 4FF0DA42 		mov	r2, #1828716544
 4599 003e 1180     		strh	r1, [r2]	@ movhi
 4600              	.LVL372:
 4601              	.L120:
  73:Core/Src/lcd.c **** 	
 4602              		.loc 1 73 51 view .LVU1582
 4603              	.LBE910:
 4604              	.LBE909:
1180:Core/Src/lcd.c **** 			{
 4605              		.loc 1 1180 38 is_stmt 1 discriminator 2 view .LVU1583
1180:Core/Src/lcd.c **** 			{
 4606              		.loc 1 1180 46 is_stmt 0 discriminator 2 view .LVU1584
 4607 0040 0133     		adds	r3, r3, #1
 4608              	.LVL373:
1180:Core/Src/lcd.c **** 			{
ARM GAS  C:\Users\84759\AppData\Local\Temp\cc1QWPm5.s 			page 127


 4609              		.loc 1 1180 46 discriminator 2 view .LVU1585
 4610 0042 DBB2     		uxtb	r3, r3
 4611              	.LVL374:
 4612              	.L122:
1180:Core/Src/lcd.c **** 			{
 4613              		.loc 1 1180 24 is_stmt 1 discriminator 1 view .LVU1586
1180:Core/Src/lcd.c **** 			{
 4614              		.loc 1 1180 4 is_stmt 0 discriminator 1 view .LVU1587
 4615 0044 072B     		cmp	r3, #7
 4616 0046 0BD8     		bhi	.L126
1182:Core/Src/lcd.c **** 						ILI9341_Write_Data ( CurrentTextColor );			
 4617              		.loc 1 1182 6 is_stmt 1 view .LVU1588
1182:Core/Src/lcd.c **** 						ILI9341_Write_Data ( CurrentTextColor );			
 4618              		.loc 1 1182 16 is_stmt 0 view .LVU1589
 4619 0048 2A19     		adds	r2, r5, r4
 4620 004a 115C     		ldrb	r1, [r2, r0]	@ zero_extendqisi2
1182:Core/Src/lcd.c **** 						ILI9341_Write_Data ( CurrentTextColor );			
 4621              		.loc 1 1182 35 view .LVU1590
 4622 004c 8022     		movs	r2, #128
 4623 004e 1A41     		asrs	r2, r2, r3
1182:Core/Src/lcd.c **** 						ILI9341_Write_Data ( CurrentTextColor );			
 4624              		.loc 1 1182 9 view .LVU1591
 4625 0050 1142     		tst	r1, r2
 4626 0052 F0D0     		beq	.L119
1183:Core/Src/lcd.c **** 					else
 4627              		.loc 1 1183 7 is_stmt 1 view .LVU1592
 4628 0054 084A     		ldr	r2, .L128+8
 4629 0056 1188     		ldrh	r1, [r2]
 4630              	.LVL375:
 4631              	.LBB911:
 4632              	.LBI911:
  71:Core/Src/lcd.c **** {
 4633              		.loc 1 71 7 view .LVU1593
 4634              	.LBB912:
  73:Core/Src/lcd.c **** 	
 4635              		.loc 1 73 2 view .LVU1594
  73:Core/Src/lcd.c **** 	
 4636              		.loc 1 73 51 is_stmt 0 view .LVU1595
 4637 0058 4FF0DA42 		mov	r2, #1828716544
 4638 005c 1180     		strh	r1, [r2]	@ movhi
  75:Core/Src/lcd.c **** 
 4639              		.loc 1 75 1 view .LVU1596
 4640 005e EFE7     		b	.L120
 4641              	.LVL376:
 4642              	.L126:
  75:Core/Src/lcd.c **** 
 4643              		.loc 1 75 1 view .LVU1597
 4644              	.LBE912:
 4645              	.LBE911:
1177:Core/Src/lcd.c **** 	{
 4646              		.loc 1 1177 47 is_stmt 1 discriminator 2 view .LVU1598
1177:Core/Src/lcd.c **** 	{
 4647              		.loc 1 1177 56 is_stmt 0 discriminator 2 view .LVU1599
 4648 0060 0130     		adds	r0, r0, #1
 4649              	.LVL377:
1177:Core/Src/lcd.c **** 	{
 4650              		.loc 1 1177 56 discriminator 2 view .LVU1600
ARM GAS  C:\Users\84759\AppData\Local\Temp\cc1QWPm5.s 			page 128


 4651 0062 C0B2     		uxtb	r0, r0
 4652              	.LVL378:
 4653              	.L118:
1177:Core/Src/lcd.c **** 	{
 4654              		.loc 1 1177 23 is_stmt 1 discriminator 1 view .LVU1601
1177:Core/Src/lcd.c **** 	{
 4655              		.loc 1 1177 2 is_stmt 0 discriminator 1 view .LVU1602
 4656 0064 B042     		cmp	r0, r6
 4657 0066 01D2     		bcs	.L127
1180:Core/Src/lcd.c **** 			{
 4658              		.loc 1 1180 19 view .LVU1603
 4659 0068 0023     		movs	r3, #0
 4660 006a EBE7     		b	.L122
 4661              	.L127:
1186:Core/Src/lcd.c **** 			}	
1187:Core/Src/lcd.c **** 	}	
1188:Core/Src/lcd.c **** }
 4662              		.loc 1 1188 1 view .LVU1604
 4663 006c 70BD     		pop	{r4, r5, r6, pc}
 4664              	.LVL379:
 4665              	.L129:
 4666              		.loc 1 1188 1 view .LVU1605
 4667 006e 00BF     		.align	2
 4668              	.L128:
 4669 0070 00000000 		.word	.LANCHOR8
 4670 0074 00000000 		.word	.LANCHOR6
 4671 0078 00000000 		.word	.LANCHOR7
 4672              		.cfi_endproc
 4673              	.LFE87:
 4675              		.section	.text.ILI9341_DispStringLine_EN,"ax",%progbits
 4676              		.align	1
 4677              		.global	ILI9341_DispStringLine_EN
 4678              		.syntax unified
 4679              		.thumb
 4680              		.thumb_func
 4682              	ILI9341_DispStringLine_EN:
 4683              	.LVL380:
 4684              	.LFB88:
1189:Core/Src/lcd.c **** 
1190:Core/Src/lcd.c **** 
1191:Core/Src/lcd.c **** /**
1192:Core/Src/lcd.c ****  * @brief  ÔÚ ILI9341 ĎÔĘľĆ÷ÉĎĎÔĘľÓ˘ÎÄ×Ö·ű´®
1193:Core/Src/lcd.c ****  * @param  line ŁşÔÚĚŘ¶¨É¨Ăč·˝ĎňĎÂ×Ö·ű´®µÄĆđĘĽY×ř±ę
1194:Core/Src/lcd.c ****   *   ±ľ˛ÎĘýżÉĘąÓĂşęLINE(0)ˇ˘LINE(1)µČ·˝Ę˝Ö¸¶¨ÎÄ×Ö×ř±ęŁ¬
1195:Core/Src/lcd.c ****   *   şęLINE(x)»á¸ůľÝµ±Ç°ŃˇÔńµÄ×ÖĚĺŔ´ĽĆËăY×ř±ęÖµˇŁ
1196:Core/Src/lcd.c **** 	*		ĎÔĘľÖĐÎÄÇŇĘąÓĂLINEşęĘ±Ł¬ĐčŇŞ°ŃÓ˘ÎÄ×ÖĚĺÉčÖĂłÉFont8x16
1197:Core/Src/lcd.c ****  * @param  pStr ŁşŇŞĎÔĘľµÄÓ˘ÎÄ×Ö·ű´®µÄĘ×µŘÖ·
1198:Core/Src/lcd.c ****  * @note żÉĘąÓĂLCD_SetBackColorˇ˘LCD_SetTextColorˇ˘LCD_SetColorsşŻĘýÉčÖĂŃŐÉ«
1199:Core/Src/lcd.c ****  * @retval ÎŢ
1200:Core/Src/lcd.c ****  */
1201:Core/Src/lcd.c **** void ILI9341_DispStringLine_EN (  uint16_t line,  char * pStr )
1202:Core/Src/lcd.c **** {
 4685              		.loc 1 1202 1 is_stmt 1 view -0
 4686              		.cfi_startproc
 4687              		@ args = 0, pretend = 0, frame = 0
 4688              		@ frame_needed = 0, uses_anonymous_args = 0
 4689              		.loc 1 1202 1 is_stmt 0 view .LVU1607
ARM GAS  C:\Users\84759\AppData\Local\Temp\cc1QWPm5.s 			page 129


 4690 0000 70B5     		push	{r4, r5, r6, lr}
 4691              	.LCFI26:
 4692              		.cfi_def_cfa_offset 16
 4693              		.cfi_offset 4, -16
 4694              		.cfi_offset 5, -12
 4695              		.cfi_offset 6, -8
 4696              		.cfi_offset 14, -4
 4697 0002 0546     		mov	r5, r0
 4698 0004 0E46     		mov	r6, r1
1203:Core/Src/lcd.c **** 	uint16_t usX = 0;
 4699              		.loc 1 1203 2 is_stmt 1 view .LVU1608
 4700              	.LVL381:
1204:Core/Src/lcd.c **** 	
1205:Core/Src/lcd.c **** 	while ( * pStr != '\0' )
 4701              		.loc 1 1205 2 view .LVU1609
1203:Core/Src/lcd.c **** 	uint16_t usX = 0;
 4702              		.loc 1 1203 11 is_stmt 0 view .LVU1610
 4703 0006 0024     		movs	r4, #0
 4704              		.loc 1 1205 8 view .LVU1611
 4705 0008 11E0     		b	.L131
 4706              	.LVL382:
 4707              	.L132:
1206:Core/Src/lcd.c **** 	{
1207:Core/Src/lcd.c **** 		if ( ( usX - ILI9341_DispWindow_X_Star + LCD_Currentfonts->Width ) > LCD_X_LENGTH )
1208:Core/Src/lcd.c **** 		{
1209:Core/Src/lcd.c **** 			usX = ILI9341_DispWindow_X_Star;
1210:Core/Src/lcd.c **** 			line += LCD_Currentfonts->Height;
1211:Core/Src/lcd.c **** 		}
1212:Core/Src/lcd.c **** 		
1213:Core/Src/lcd.c **** 		if ( ( line - ILI9341_DispWindow_Y_Star + LCD_Currentfonts->Height ) > LCD_Y_LENGTH )
 4708              		.loc 1 1213 3 is_stmt 1 view .LVU1612
 4709              		.loc 1 1213 61 is_stmt 0 view .LVU1613
 4710 000a CB88     		ldrh	r3, [r1, #6]
 4711              		.loc 1 1213 43 view .LVU1614
 4712 000c 2B44     		add	r3, r3, r5
 4713              		.loc 1 1213 72 view .LVU1615
 4714 000e 1049     		ldr	r1, .L138
 4715 0010 0988     		ldrh	r1, [r1]
 4716              		.loc 1 1213 6 view .LVU1616
 4717 0012 8B42     		cmp	r3, r1
 4718 0014 01DD     		ble	.L133
1214:Core/Src/lcd.c **** 		{
1215:Core/Src/lcd.c **** 			usX = ILI9341_DispWindow_X_Star;
 4719              		.loc 1 1215 8 view .LVU1617
 4720 0016 0024     		movs	r4, #0
 4721              	.LVL383:
1216:Core/Src/lcd.c **** 			line = ILI9341_DispWindow_Y_Star;
 4722              		.loc 1 1216 9 view .LVU1618
 4723 0018 2546     		mov	r5, r4
 4724              	.LVL384:
 4725              	.L133:
1217:Core/Src/lcd.c **** 		}
1218:Core/Src/lcd.c **** 		
1219:Core/Src/lcd.c **** 		ILI9341_DispChar_EN ( usX, line, * pStr);
 4726              		.loc 1 1219 3 is_stmt 1 view .LVU1619
 4727 001a 2946     		mov	r1, r5
 4728 001c 2046     		mov	r0, r4
ARM GAS  C:\Users\84759\AppData\Local\Temp\cc1QWPm5.s 			page 130


 4729 001e FFF7FEFF 		bl	ILI9341_DispChar_EN
 4730              	.LVL385:
1220:Core/Src/lcd.c **** 		
1221:Core/Src/lcd.c **** 		pStr ++;
 4731              		.loc 1 1221 3 view .LVU1620
 4732              		.loc 1 1221 8 is_stmt 0 view .LVU1621
 4733 0022 0136     		adds	r6, r6, #1
 4734              	.LVL386:
1222:Core/Src/lcd.c **** 		
1223:Core/Src/lcd.c **** 		usX += LCD_Currentfonts->Width;
 4735              		.loc 1 1223 3 is_stmt 1 view .LVU1622
 4736              		.loc 1 1223 26 is_stmt 0 view .LVU1623
 4737 0024 0B4B     		ldr	r3, .L138+4
 4738 0026 1B68     		ldr	r3, [r3]
 4739 0028 9B88     		ldrh	r3, [r3, #4]
 4740              		.loc 1 1223 7 view .LVU1624
 4741 002a 1C44     		add	r4, r4, r3
 4742              	.LVL387:
 4743              		.loc 1 1223 7 view .LVU1625
 4744 002c A4B2     		uxth	r4, r4
 4745              	.LVL388:
 4746              	.L131:
1205:Core/Src/lcd.c **** 	{
 4747              		.loc 1 1205 8 is_stmt 1 view .LVU1626
1205:Core/Src/lcd.c **** 	{
 4748              		.loc 1 1205 10 is_stmt 0 view .LVU1627
 4749 002e 3278     		ldrb	r2, [r6]	@ zero_extendqisi2
1205:Core/Src/lcd.c **** 	{
 4750              		.loc 1 1205 8 view .LVU1628
 4751 0030 62B1     		cbz	r2, .L137
1207:Core/Src/lcd.c **** 		{
 4752              		.loc 1 1207 3 is_stmt 1 view .LVU1629
1207:Core/Src/lcd.c **** 		{
 4753              		.loc 1 1207 60 is_stmt 0 view .LVU1630
 4754 0032 084B     		ldr	r3, .L138+4
 4755 0034 1968     		ldr	r1, [r3]
 4756 0036 8B88     		ldrh	r3, [r1, #4]
1207:Core/Src/lcd.c **** 		{
 4757              		.loc 1 1207 42 view .LVU1631
 4758 0038 2344     		add	r3, r3, r4
1207:Core/Src/lcd.c **** 		{
 4759              		.loc 1 1207 70 view .LVU1632
 4760 003a 0748     		ldr	r0, .L138+8
 4761 003c 0088     		ldrh	r0, [r0]
1207:Core/Src/lcd.c **** 		{
 4762              		.loc 1 1207 6 view .LVU1633
 4763 003e 8342     		cmp	r3, r0
 4764 0040 E3DD     		ble	.L132
1209:Core/Src/lcd.c **** 			line += LCD_Currentfonts->Height;
 4765              		.loc 1 1209 4 is_stmt 1 view .LVU1634
 4766              	.LVL389:
1210:Core/Src/lcd.c **** 		}
 4767              		.loc 1 1210 4 view .LVU1635
1210:Core/Src/lcd.c **** 		}
 4768              		.loc 1 1210 28 is_stmt 0 view .LVU1636
 4769 0042 C888     		ldrh	r0, [r1, #6]
1210:Core/Src/lcd.c **** 		}
ARM GAS  C:\Users\84759\AppData\Local\Temp\cc1QWPm5.s 			page 131


 4770              		.loc 1 1210 9 view .LVU1637
 4771 0044 0544     		add	r5, r5, r0
 4772              	.LVL390:
1210:Core/Src/lcd.c **** 		}
 4773              		.loc 1 1210 9 view .LVU1638
 4774 0046 ADB2     		uxth	r5, r5
 4775              	.LVL391:
1209:Core/Src/lcd.c **** 			line += LCD_Currentfonts->Height;
 4776              		.loc 1 1209 8 view .LVU1639
 4777 0048 0024     		movs	r4, #0
 4778 004a DEE7     		b	.L132
 4779              	.LVL392:
 4780              	.L137:
1224:Core/Src/lcd.c **** 		
1225:Core/Src/lcd.c **** 	}
1226:Core/Src/lcd.c **** 	
1227:Core/Src/lcd.c **** }
 4781              		.loc 1 1227 1 view .LVU1640
 4782 004c 70BD     		pop	{r4, r5, r6, pc}
 4783              	.LVL393:
 4784              	.L139:
 4785              		.loc 1 1227 1 view .LVU1641
 4786 004e 00BF     		.align	2
 4787              	.L138:
 4788 0050 00000000 		.word	.LANCHOR5
 4789 0054 00000000 		.word	.LANCHOR8
 4790 0058 00000000 		.word	.LANCHOR4
 4791              		.cfi_endproc
 4792              	.LFE88:
 4794              		.section	.text.ILI9341_DispString_EN,"ax",%progbits
 4795              		.align	1
 4796              		.global	ILI9341_DispString_EN
 4797              		.syntax unified
 4798              		.thumb
 4799              		.thumb_func
 4801              	ILI9341_DispString_EN:
 4802              	.LVL394:
 4803              	.LFB89:
1228:Core/Src/lcd.c **** 
1229:Core/Src/lcd.c **** 
1230:Core/Src/lcd.c **** /**
1231:Core/Src/lcd.c ****  * @brief  ÔÚ ILI9341 ĎÔĘľĆ÷ÉĎĎÔĘľÓ˘ÎÄ×Ö·ű´®
1232:Core/Src/lcd.c ****  * @param  usX ŁşÔÚĚŘ¶¨É¨Ăč·˝ĎňĎÂ×Ö·űµÄĆđĘĽX×ř±ę
1233:Core/Src/lcd.c ****  * @param  usY ŁşÔÚĚŘ¶¨É¨Ăč·˝ĎňĎÂ×Ö·űµÄĆđĘĽY×ř±ę
1234:Core/Src/lcd.c ****  * @param  pStr ŁşŇŞĎÔĘľµÄÓ˘ÎÄ×Ö·ű´®µÄĘ×µŘÖ·
1235:Core/Src/lcd.c ****  * @note żÉĘąÓĂLCD_SetBackColorˇ˘LCD_SetTextColorˇ˘LCD_SetColorsşŻĘýÉčÖĂŃŐÉ«
1236:Core/Src/lcd.c ****  * @retval ÎŢ
1237:Core/Src/lcd.c ****  */
1238:Core/Src/lcd.c **** void ILI9341_DispString_EN ( 	uint16_t usX ,uint16_t usY,  char * pStr )
1239:Core/Src/lcd.c **** {
 4804              		.loc 1 1239 1 is_stmt 1 view -0
 4805              		.cfi_startproc
 4806              		@ args = 0, pretend = 0, frame = 0
 4807              		@ frame_needed = 0, uses_anonymous_args = 0
 4808              		.loc 1 1239 1 is_stmt 0 view .LVU1643
 4809 0000 70B5     		push	{r4, r5, r6, lr}
 4810              	.LCFI27:
ARM GAS  C:\Users\84759\AppData\Local\Temp\cc1QWPm5.s 			page 132


 4811              		.cfi_def_cfa_offset 16
 4812              		.cfi_offset 4, -16
 4813              		.cfi_offset 5, -12
 4814              		.cfi_offset 6, -8
 4815              		.cfi_offset 14, -4
 4816 0002 0446     		mov	r4, r0
 4817 0004 0D46     		mov	r5, r1
 4818 0006 1646     		mov	r6, r2
1240:Core/Src/lcd.c **** 	while ( * pStr != '\0' )
 4819              		.loc 1 1240 2 is_stmt 1 view .LVU1644
 4820              		.loc 1 1240 8 is_stmt 0 view .LVU1645
 4821 0008 11E0     		b	.L141
 4822              	.LVL395:
 4823              	.L142:
1241:Core/Src/lcd.c **** 	{
1242:Core/Src/lcd.c **** 		if ( ( usX - ILI9341_DispWindow_X_Star + LCD_Currentfonts->Width ) > LCD_X_LENGTH )
1243:Core/Src/lcd.c **** 		{
1244:Core/Src/lcd.c **** 			usX = ILI9341_DispWindow_X_Star;
1245:Core/Src/lcd.c **** 			usY += LCD_Currentfonts->Height;
1246:Core/Src/lcd.c **** 		}
1247:Core/Src/lcd.c **** 		
1248:Core/Src/lcd.c **** 		if ( ( usY - ILI9341_DispWindow_Y_Star + LCD_Currentfonts->Height ) > LCD_Y_LENGTH )
 4824              		.loc 1 1248 3 is_stmt 1 view .LVU1646
 4825              		.loc 1 1248 60 is_stmt 0 view .LVU1647
 4826 000a C388     		ldrh	r3, [r0, #6]
 4827              		.loc 1 1248 42 view .LVU1648
 4828 000c 2B44     		add	r3, r3, r5
 4829              		.loc 1 1248 71 view .LVU1649
 4830 000e 1049     		ldr	r1, .L148
 4831 0010 0988     		ldrh	r1, [r1]
 4832              		.loc 1 1248 6 view .LVU1650
 4833 0012 8B42     		cmp	r3, r1
 4834 0014 01DD     		ble	.L143
1249:Core/Src/lcd.c **** 		{
1250:Core/Src/lcd.c **** 			usX = ILI9341_DispWindow_X_Star;
1251:Core/Src/lcd.c **** 			usY = ILI9341_DispWindow_Y_Star;
 4835              		.loc 1 1251 8 view .LVU1651
 4836 0016 0025     		movs	r5, #0
 4837              	.LVL396:
1250:Core/Src/lcd.c **** 			usY = ILI9341_DispWindow_Y_Star;
 4838              		.loc 1 1250 8 view .LVU1652
 4839 0018 2C46     		mov	r4, r5
 4840              	.LVL397:
 4841              	.L143:
1252:Core/Src/lcd.c **** 		}
1253:Core/Src/lcd.c **** 		
1254:Core/Src/lcd.c **** 		ILI9341_DispChar_EN ( usX, usY, * pStr);
 4842              		.loc 1 1254 3 is_stmt 1 view .LVU1653
 4843 001a 2946     		mov	r1, r5
 4844 001c 2046     		mov	r0, r4
 4845 001e FFF7FEFF 		bl	ILI9341_DispChar_EN
 4846              	.LVL398:
1255:Core/Src/lcd.c **** 		
1256:Core/Src/lcd.c **** 		pStr ++;
 4847              		.loc 1 1256 3 view .LVU1654
 4848              		.loc 1 1256 8 is_stmt 0 view .LVU1655
 4849 0022 0136     		adds	r6, r6, #1
ARM GAS  C:\Users\84759\AppData\Local\Temp\cc1QWPm5.s 			page 133


 4850              	.LVL399:
1257:Core/Src/lcd.c **** 		
1258:Core/Src/lcd.c **** 		usX += LCD_Currentfonts->Width;
 4851              		.loc 1 1258 3 is_stmt 1 view .LVU1656
 4852              		.loc 1 1258 26 is_stmt 0 view .LVU1657
 4853 0024 0B4B     		ldr	r3, .L148+4
 4854 0026 1B68     		ldr	r3, [r3]
 4855 0028 9888     		ldrh	r0, [r3, #4]
 4856              		.loc 1 1258 7 view .LVU1658
 4857 002a 0444     		add	r4, r4, r0
 4858              	.LVL400:
 4859              		.loc 1 1258 7 view .LVU1659
 4860 002c A4B2     		uxth	r4, r4
 4861              	.LVL401:
 4862              	.L141:
1240:Core/Src/lcd.c **** 	{
 4863              		.loc 1 1240 8 is_stmt 1 view .LVU1660
1240:Core/Src/lcd.c **** 	{
 4864              		.loc 1 1240 10 is_stmt 0 view .LVU1661
 4865 002e 3278     		ldrb	r2, [r6]	@ zero_extendqisi2
1240:Core/Src/lcd.c **** 	{
 4866              		.loc 1 1240 8 view .LVU1662
 4867 0030 62B1     		cbz	r2, .L147
1242:Core/Src/lcd.c **** 		{
 4868              		.loc 1 1242 3 is_stmt 1 view .LVU1663
1242:Core/Src/lcd.c **** 		{
 4869              		.loc 1 1242 60 is_stmt 0 view .LVU1664
 4870 0032 084B     		ldr	r3, .L148+4
 4871 0034 1868     		ldr	r0, [r3]
 4872 0036 8388     		ldrh	r3, [r0, #4]
1242:Core/Src/lcd.c **** 		{
 4873              		.loc 1 1242 42 view .LVU1665
 4874 0038 2344     		add	r3, r3, r4
1242:Core/Src/lcd.c **** 		{
 4875              		.loc 1 1242 70 view .LVU1666
 4876 003a 0749     		ldr	r1, .L148+8
 4877 003c 0988     		ldrh	r1, [r1]
1242:Core/Src/lcd.c **** 		{
 4878              		.loc 1 1242 6 view .LVU1667
 4879 003e 8B42     		cmp	r3, r1
 4880 0040 E3DD     		ble	.L142
1244:Core/Src/lcd.c **** 			usY += LCD_Currentfonts->Height;
 4881              		.loc 1 1244 4 is_stmt 1 view .LVU1668
 4882              	.LVL402:
1245:Core/Src/lcd.c **** 		}
 4883              		.loc 1 1245 4 view .LVU1669
1245:Core/Src/lcd.c **** 		}
 4884              		.loc 1 1245 27 is_stmt 0 view .LVU1670
 4885 0042 C188     		ldrh	r1, [r0, #6]
1245:Core/Src/lcd.c **** 		}
 4886              		.loc 1 1245 8 view .LVU1671
 4887 0044 0D44     		add	r5, r5, r1
 4888              	.LVL403:
1245:Core/Src/lcd.c **** 		}
 4889              		.loc 1 1245 8 view .LVU1672
 4890 0046 ADB2     		uxth	r5, r5
 4891              	.LVL404:
ARM GAS  C:\Users\84759\AppData\Local\Temp\cc1QWPm5.s 			page 134


1244:Core/Src/lcd.c **** 			usY += LCD_Currentfonts->Height;
 4892              		.loc 1 1244 8 view .LVU1673
 4893 0048 0024     		movs	r4, #0
 4894 004a DEE7     		b	.L142
 4895              	.LVL405:
 4896              	.L147:
1259:Core/Src/lcd.c **** 		
1260:Core/Src/lcd.c **** 	}
1261:Core/Src/lcd.c **** 	
1262:Core/Src/lcd.c **** }
 4897              		.loc 1 1262 1 view .LVU1674
 4898 004c 70BD     		pop	{r4, r5, r6, pc}
 4899              	.LVL406:
 4900              	.L149:
 4901              		.loc 1 1262 1 view .LVU1675
 4902 004e 00BF     		.align	2
 4903              	.L148:
 4904 0050 00000000 		.word	.LANCHOR5
 4905 0054 00000000 		.word	.LANCHOR8
 4906 0058 00000000 		.word	.LANCHOR4
 4907              		.cfi_endproc
 4908              	.LFE89:
 4910              		.section	.text.ILI9341_DispString_EN_YDir,"ax",%progbits
 4911              		.align	1
 4912              		.global	ILI9341_DispString_EN_YDir
 4913              		.syntax unified
 4914              		.thumb
 4915              		.thumb_func
 4917              	ILI9341_DispString_EN_YDir:
 4918              	.LVL407:
 4919              	.LFB90:
1263:Core/Src/lcd.c **** 
1264:Core/Src/lcd.c **** 
1265:Core/Src/lcd.c **** /**
1266:Core/Src/lcd.c ****  * @brief  ÔÚ ILI9341 ĎÔĘľĆ÷ÉĎĎÔĘľÓ˘ÎÄ×Ö·ű´®(ŃŘYÖá·˝Ďň)
1267:Core/Src/lcd.c ****  * @param  usX ŁşÔÚĚŘ¶¨É¨Ăč·˝ĎňĎÂ×Ö·űµÄĆđĘĽX×ř±ę
1268:Core/Src/lcd.c ****  * @param  usY ŁşÔÚĚŘ¶¨É¨Ăč·˝ĎňĎÂ×Ö·űµÄĆđĘĽY×ř±ę
1269:Core/Src/lcd.c ****  * @param  pStr ŁşŇŞĎÔĘľµÄÓ˘ÎÄ×Ö·ű´®µÄĘ×µŘÖ·
1270:Core/Src/lcd.c ****  * @note żÉĘąÓĂLCD_SetBackColorˇ˘LCD_SetTextColorˇ˘LCD_SetColorsşŻĘýÉčÖĂŃŐÉ«
1271:Core/Src/lcd.c ****  * @retval ÎŢ
1272:Core/Src/lcd.c ****  */
1273:Core/Src/lcd.c **** void ILI9341_DispString_EN_YDir (	 uint16_t usX,uint16_t usY ,  char * pStr )
1274:Core/Src/lcd.c **** {	
 4920              		.loc 1 1274 1 is_stmt 1 view -0
 4921              		.cfi_startproc
 4922              		@ args = 0, pretend = 0, frame = 0
 4923              		@ frame_needed = 0, uses_anonymous_args = 0
 4924              		.loc 1 1274 1 is_stmt 0 view .LVU1677
 4925 0000 70B5     		push	{r4, r5, r6, lr}
 4926              	.LCFI28:
 4927              		.cfi_def_cfa_offset 16
 4928              		.cfi_offset 4, -16
 4929              		.cfi_offset 5, -12
 4930              		.cfi_offset 6, -8
 4931              		.cfi_offset 14, -4
 4932 0002 0546     		mov	r5, r0
 4933 0004 0C46     		mov	r4, r1
ARM GAS  C:\Users\84759\AppData\Local\Temp\cc1QWPm5.s 			page 135


 4934 0006 1646     		mov	r6, r2
1275:Core/Src/lcd.c **** 	while ( * pStr != '\0' )
 4935              		.loc 1 1275 2 is_stmt 1 view .LVU1678
 4936              		.loc 1 1275 8 is_stmt 0 view .LVU1679
 4937 0008 11E0     		b	.L151
 4938              	.LVL408:
 4939              	.L152:
1276:Core/Src/lcd.c **** 	{
1277:Core/Src/lcd.c **** 		if ( ( usY - ILI9341_DispWindow_Y_Star + LCD_Currentfonts->Height ) >LCD_Y_LENGTH  )
1278:Core/Src/lcd.c **** 		{
1279:Core/Src/lcd.c **** 			usY = ILI9341_DispWindow_Y_Star;
1280:Core/Src/lcd.c **** 			usX += LCD_Currentfonts->Width;
1281:Core/Src/lcd.c **** 		}
1282:Core/Src/lcd.c **** 		
1283:Core/Src/lcd.c **** 		if ( ( usX - ILI9341_DispWindow_X_Star + LCD_Currentfonts->Width ) >  LCD_X_LENGTH)
 4940              		.loc 1 1283 3 is_stmt 1 view .LVU1680
 4941              		.loc 1 1283 60 is_stmt 0 view .LVU1681
 4942 000a 8B88     		ldrh	r3, [r1, #4]
 4943              		.loc 1 1283 42 view .LVU1682
 4944 000c 2B44     		add	r3, r3, r5
 4945              		.loc 1 1283 70 view .LVU1683
 4946 000e 1049     		ldr	r1, .L158
 4947 0010 0988     		ldrh	r1, [r1]
 4948              		.loc 1 1283 6 view .LVU1684
 4949 0012 8B42     		cmp	r3, r1
 4950 0014 01DD     		ble	.L153
1284:Core/Src/lcd.c **** 		{
1285:Core/Src/lcd.c **** 			usX = ILI9341_DispWindow_X_Star;
1286:Core/Src/lcd.c **** 			usY = ILI9341_DispWindow_Y_Star;
 4951              		.loc 1 1286 8 view .LVU1685
 4952 0016 0024     		movs	r4, #0
 4953              	.LVL409:
1285:Core/Src/lcd.c **** 			usY = ILI9341_DispWindow_Y_Star;
 4954              		.loc 1 1285 8 view .LVU1686
 4955 0018 2546     		mov	r5, r4
 4956              	.LVL410:
 4957              	.L153:
1287:Core/Src/lcd.c **** 		}
1288:Core/Src/lcd.c **** 		
1289:Core/Src/lcd.c **** 		ILI9341_DispChar_EN ( usX, usY, * pStr);
 4958              		.loc 1 1289 3 is_stmt 1 view .LVU1687
 4959 001a 2146     		mov	r1, r4
 4960 001c 2846     		mov	r0, r5
 4961 001e FFF7FEFF 		bl	ILI9341_DispChar_EN
 4962              	.LVL411:
1290:Core/Src/lcd.c **** 		
1291:Core/Src/lcd.c **** 		pStr ++;
 4963              		.loc 1 1291 3 view .LVU1688
 4964              		.loc 1 1291 8 is_stmt 0 view .LVU1689
 4965 0022 0136     		adds	r6, r6, #1
 4966              	.LVL412:
1292:Core/Src/lcd.c **** 		
1293:Core/Src/lcd.c **** 		usY += LCD_Currentfonts->Height;		
 4967              		.loc 1 1293 3 is_stmt 1 view .LVU1690
 4968              		.loc 1 1293 26 is_stmt 0 view .LVU1691
 4969 0024 0B4B     		ldr	r3, .L158+4
 4970 0026 1B68     		ldr	r3, [r3]
ARM GAS  C:\Users\84759\AppData\Local\Temp\cc1QWPm5.s 			page 136


 4971 0028 D988     		ldrh	r1, [r3, #6]
 4972              		.loc 1 1293 7 view .LVU1692
 4973 002a 0C44     		add	r4, r4, r1
 4974              	.LVL413:
 4975              		.loc 1 1293 7 view .LVU1693
 4976 002c A4B2     		uxth	r4, r4
 4977              	.LVL414:
 4978              	.L151:
1275:Core/Src/lcd.c **** 	{
 4979              		.loc 1 1275 8 is_stmt 1 view .LVU1694
1275:Core/Src/lcd.c **** 	{
 4980              		.loc 1 1275 10 is_stmt 0 view .LVU1695
 4981 002e 3278     		ldrb	r2, [r6]	@ zero_extendqisi2
1275:Core/Src/lcd.c **** 	{
 4982              		.loc 1 1275 8 view .LVU1696
 4983 0030 62B1     		cbz	r2, .L157
1277:Core/Src/lcd.c **** 		{
 4984              		.loc 1 1277 3 is_stmt 1 view .LVU1697
1277:Core/Src/lcd.c **** 		{
 4985              		.loc 1 1277 60 is_stmt 0 view .LVU1698
 4986 0032 084B     		ldr	r3, .L158+4
 4987 0034 1968     		ldr	r1, [r3]
 4988 0036 CB88     		ldrh	r3, [r1, #6]
1277:Core/Src/lcd.c **** 		{
 4989              		.loc 1 1277 42 view .LVU1699
 4990 0038 2344     		add	r3, r3, r4
1277:Core/Src/lcd.c **** 		{
 4991              		.loc 1 1277 71 view .LVU1700
 4992 003a 0748     		ldr	r0, .L158+8
 4993 003c 0088     		ldrh	r0, [r0]
1277:Core/Src/lcd.c **** 		{
 4994              		.loc 1 1277 6 view .LVU1701
 4995 003e 8342     		cmp	r3, r0
 4996 0040 E3DD     		ble	.L152
1279:Core/Src/lcd.c **** 			usX += LCD_Currentfonts->Width;
 4997              		.loc 1 1279 4 is_stmt 1 view .LVU1702
 4998              	.LVL415:
1280:Core/Src/lcd.c **** 		}
 4999              		.loc 1 1280 4 view .LVU1703
1280:Core/Src/lcd.c **** 		}
 5000              		.loc 1 1280 27 is_stmt 0 view .LVU1704
 5001 0042 8888     		ldrh	r0, [r1, #4]
1280:Core/Src/lcd.c **** 		}
 5002              		.loc 1 1280 8 view .LVU1705
 5003 0044 0544     		add	r5, r5, r0
 5004              	.LVL416:
1280:Core/Src/lcd.c **** 		}
 5005              		.loc 1 1280 8 view .LVU1706
 5006 0046 ADB2     		uxth	r5, r5
 5007              	.LVL417:
1279:Core/Src/lcd.c **** 			usX += LCD_Currentfonts->Width;
 5008              		.loc 1 1279 8 view .LVU1707
 5009 0048 0024     		movs	r4, #0
 5010 004a DEE7     		b	.L152
 5011              	.LVL418:
 5012              	.L157:
1294:Core/Src/lcd.c **** 	}	
ARM GAS  C:\Users\84759\AppData\Local\Temp\cc1QWPm5.s 			page 137


1295:Core/Src/lcd.c **** }
 5013              		.loc 1 1295 1 view .LVU1708
 5014 004c 70BD     		pop	{r4, r5, r6, pc}
 5015              	.LVL419:
 5016              	.L159:
 5017              		.loc 1 1295 1 view .LVU1709
 5018 004e 00BF     		.align	2
 5019              	.L158:
 5020 0050 00000000 		.word	.LANCHOR4
 5021 0054 00000000 		.word	.LANCHOR8
 5022 0058 00000000 		.word	.LANCHOR5
 5023              		.cfi_endproc
 5024              	.LFE90:
 5026              		.section	.text.ILI9341_DispChar_CH,"ax",%progbits
 5027              		.align	1
 5028              		.global	ILI9341_DispChar_CH
 5029              		.syntax unified
 5030              		.thumb
 5031              		.thumb_func
 5033              	ILI9341_DispChar_CH:
 5034              	.LVL420:
 5035              	.LFB91:
1296:Core/Src/lcd.c **** 
1297:Core/Src/lcd.c **** /**
1298:Core/Src/lcd.c ****  * @brief  ÔÚ ILI9341 ĎÔĘľĆ÷ÉĎĎÔĘľŇ»¸öÖĐÎÄ×Ö·ű
1299:Core/Src/lcd.c ****  * @param  usX ŁşÔÚĚŘ¶¨É¨Ăč·˝ĎňĎÂ×Ö·űµÄĆđĘĽX×ř±ę
1300:Core/Src/lcd.c ****  * @param  usY ŁşÔÚĚŘ¶¨É¨Ăč·˝ĎňĎÂ×Ö·űµÄĆđĘĽY×ř±ę
1301:Core/Src/lcd.c ****  * @param  usChar ŁşŇŞĎÔĘľµÄÖĐÎÄ×Ö·űŁ¨ąú±ęÂëŁ©
1302:Core/Src/lcd.c ****  * @note żÉĘąÓĂLCD_SetBackColorˇ˘LCD_SetTextColorˇ˘LCD_SetColorsşŻĘýÉčÖĂŃŐÉ«
1303:Core/Src/lcd.c ****  * @retval ÎŢ
1304:Core/Src/lcd.c ****  */ 
1305:Core/Src/lcd.c **** void ILI9341_DispChar_CH ( uint16_t usX, uint16_t usY, uint16_t usChar )
1306:Core/Src/lcd.c **** {
 5036              		.loc 1 1306 1 is_stmt 1 view -0
 5037              		.cfi_startproc
 5038              		@ args = 0, pretend = 0, frame = 32
 5039              		@ frame_needed = 0, uses_anonymous_args = 0
 5040              		.loc 1 1306 1 is_stmt 0 view .LVU1711
 5041 0000 10B5     		push	{r4, lr}
 5042              	.LCFI29:
 5043              		.cfi_def_cfa_offset 8
 5044              		.cfi_offset 4, -8
 5045              		.cfi_offset 14, -4
 5046 0002 88B0     		sub	sp, sp, #32
 5047              	.LCFI30:
 5048              		.cfi_def_cfa_offset 40
 5049 0004 1446     		mov	r4, r2
1307:Core/Src/lcd.c **** 	uint8_t rowCount, bitCount;
 5050              		.loc 1 1307 2 is_stmt 1 view .LVU1712
1308:Core/Src/lcd.c **** 	uint8_t ucBuffer [ WIDTH_CH_CHAR*HEIGHT_CH_CHAR/8 ];	
 5051              		.loc 1 1308 2 view .LVU1713
1309:Core/Src/lcd.c ****   uint16_t usTemp; 	
 5052              		.loc 1 1309 3 view .LVU1714
1310:Core/Src/lcd.c **** 
1311:Core/Src/lcd.c **** 	//ÉčÖĂĎÔĘľ´°żÚ
1312:Core/Src/lcd.c **** 	ILI9341_OpenWindow ( usX, usY, WIDTH_CH_CHAR, HEIGHT_CH_CHAR );
 5053              		.loc 1 1312 2 view .LVU1715
ARM GAS  C:\Users\84759\AppData\Local\Temp\cc1QWPm5.s 			page 138


 5054 0006 1023     		movs	r3, #16
 5055 0008 1A46     		mov	r2, r3
 5056              	.LVL421:
 5057              		.loc 1 1312 2 is_stmt 0 view .LVU1716
 5058 000a FFF7FEFF 		bl	ILI9341_OpenWindow
 5059              	.LVL422:
1313:Core/Src/lcd.c **** 	
1314:Core/Src/lcd.c **** 	ILI9341_Write_Cmd ( CMD_SetPixel );
 5060              		.loc 1 1314 2 is_stmt 1 view .LVU1717
 5061              	.LBB913:
 5062              	.LBI913:
  59:Core/Src/lcd.c **** {
 5063              		.loc 1 59 7 view .LVU1718
 5064              	.LBB914:
  61:Core/Src/lcd.c **** 	
 5065              		.loc 1 61 2 view .LVU1719
  61:Core/Src/lcd.c **** 	
 5066              		.loc 1 61 50 is_stmt 0 view .LVU1720
 5067 000e 4FF0D843 		mov	r3, #1811939328
 5068 0012 2C22     		movs	r2, #44
 5069 0014 1A80     		strh	r2, [r3]	@ movhi
 5070              	.LVL423:
  61:Core/Src/lcd.c **** 	
 5071              		.loc 1 61 50 view .LVU1721
 5072              	.LBE914:
 5073              	.LBE913:
1315:Core/Src/lcd.c **** 	
1316:Core/Src/lcd.c **** 	//Čˇ×ÖÄŁĘýľÝ  
1317:Core/Src/lcd.c ****   GetGBKCode ( ucBuffer, usChar );	
 5074              		.loc 1 1317 3 is_stmt 1 view .LVU1722
 5075 0016 2146     		mov	r1, r4
 5076 0018 6846     		mov	r0, sp
 5077 001a FFF7FEFF 		bl	GetGBKCode_from_EXFlash
 5078              	.LVL424:
1318:Core/Src/lcd.c **** 	
1319:Core/Src/lcd.c **** 	for ( rowCount = 0; rowCount < HEIGHT_CH_CHAR; rowCount++ )
 5079              		.loc 1 1319 2 view .LVU1723
 5080              		.loc 1 1319 17 is_stmt 0 view .LVU1724
 5081 001e 4FF0000C 		mov	ip, #0
 5082              		.loc 1 1319 2 view .LVU1725
 5083 0022 17E0     		b	.L161
 5084              	.LVL425:
 5085              	.L163:
1320:Core/Src/lcd.c **** 	{
1321:Core/Src/lcd.c ****     /* ČˇłöÁ˝¸ö×Ö˝ÚµÄĘýľÝŁ¬ÔÚlcdÉĎĽ´ĘÇŇ»¸öşş×ÖµÄŇ»ĐĐ */
1322:Core/Src/lcd.c **** 		usTemp = ucBuffer [ rowCount * 2 ];
1323:Core/Src/lcd.c **** 		usTemp = ( usTemp << 8 );
1324:Core/Src/lcd.c **** 		usTemp |= ucBuffer [ rowCount * 2 + 1 ];
1325:Core/Src/lcd.c **** 		
1326:Core/Src/lcd.c **** 		for ( bitCount = 0; bitCount < WIDTH_CH_CHAR; bitCount ++ )
1327:Core/Src/lcd.c **** 		{			
1328:Core/Src/lcd.c **** 			if ( usTemp & ( 0x8000 >> bitCount ) )  //¸ßÎ»ÔÚÇ° 
1329:Core/Src/lcd.c **** 			  ILI9341_Write_Data ( CurrentTextColor );				
1330:Core/Src/lcd.c **** 			else
1331:Core/Src/lcd.c **** 				ILI9341_Write_Data ( CurrentBackColor );			
 5086              		.loc 1 1331 5 is_stmt 1 view .LVU1726
 5087 0024 154A     		ldr	r2, .L170
ARM GAS  C:\Users\84759\AppData\Local\Temp\cc1QWPm5.s 			page 139


 5088 0026 1088     		ldrh	r0, [r2]
 5089              	.LVL426:
 5090              	.LBB915:
 5091              	.LBI915:
  71:Core/Src/lcd.c **** {
 5092              		.loc 1 71 7 view .LVU1727
 5093              	.LBB916:
  73:Core/Src/lcd.c **** 	
 5094              		.loc 1 73 2 view .LVU1728
  73:Core/Src/lcd.c **** 	
 5095              		.loc 1 73 51 is_stmt 0 view .LVU1729
 5096 0028 4FF0DA42 		mov	r2, #1828716544
 5097 002c 1080     		strh	r0, [r2]	@ movhi
 5098              	.LVL427:
 5099              	.L164:
  73:Core/Src/lcd.c **** 	
 5100              		.loc 1 73 51 view .LVU1730
 5101              	.LBE916:
 5102              	.LBE915:
1326:Core/Src/lcd.c **** 		{			
 5103              		.loc 1 1326 49 is_stmt 1 discriminator 2 view .LVU1731
1326:Core/Src/lcd.c **** 		{			
 5104              		.loc 1 1326 58 is_stmt 0 discriminator 2 view .LVU1732
 5105 002e 0133     		adds	r3, r3, #1
 5106              	.LVL428:
1326:Core/Src/lcd.c **** 		{			
 5107              		.loc 1 1326 58 discriminator 2 view .LVU1733
 5108 0030 DBB2     		uxtb	r3, r3
 5109              	.LVL429:
 5110              	.L162:
1326:Core/Src/lcd.c **** 		{			
 5111              		.loc 1 1326 23 is_stmt 1 discriminator 1 view .LVU1734
1326:Core/Src/lcd.c **** 		{			
 5112              		.loc 1 1326 3 is_stmt 0 discriminator 1 view .LVU1735
 5113 0032 0F2B     		cmp	r3, #15
 5114 0034 0AD8     		bhi	.L168
1328:Core/Src/lcd.c **** 			  ILI9341_Write_Data ( CurrentTextColor );				
 5115              		.loc 1 1328 4 is_stmt 1 view .LVU1736
1328:Core/Src/lcd.c **** 			  ILI9341_Write_Data ( CurrentTextColor );				
 5116              		.loc 1 1328 27 is_stmt 0 view .LVU1737
 5117 0036 4FF40042 		mov	r2, #32768
 5118 003a 1A41     		asrs	r2, r2, r3
1328:Core/Src/lcd.c **** 			  ILI9341_Write_Data ( CurrentTextColor );				
 5119              		.loc 1 1328 7 view .LVU1738
 5120 003c 1142     		tst	r1, r2
 5121 003e F1D0     		beq	.L163
1329:Core/Src/lcd.c **** 			else
 5122              		.loc 1 1329 6 is_stmt 1 view .LVU1739
 5123 0040 0F4A     		ldr	r2, .L170+4
 5124 0042 1088     		ldrh	r0, [r2]
 5125              	.LVL430:
 5126              	.LBB917:
 5127              	.LBI917:
  71:Core/Src/lcd.c **** {
 5128              		.loc 1 71 7 view .LVU1740
 5129              	.LBB918:
  73:Core/Src/lcd.c **** 	
ARM GAS  C:\Users\84759\AppData\Local\Temp\cc1QWPm5.s 			page 140


 5130              		.loc 1 73 2 view .LVU1741
  73:Core/Src/lcd.c **** 	
 5131              		.loc 1 73 51 is_stmt 0 view .LVU1742
 5132 0044 4FF0DA42 		mov	r2, #1828716544
 5133 0048 1080     		strh	r0, [r2]	@ movhi
  75:Core/Src/lcd.c **** 
 5134              		.loc 1 75 1 view .LVU1743
 5135 004a F0E7     		b	.L164
 5136              	.LVL431:
 5137              	.L168:
  75:Core/Src/lcd.c **** 
 5138              		.loc 1 75 1 view .LVU1744
 5139              	.LBE918:
 5140              	.LBE917:
1319:Core/Src/lcd.c **** 	{
 5141              		.loc 1 1319 49 is_stmt 1 discriminator 2 view .LVU1745
1319:Core/Src/lcd.c **** 	{
 5142              		.loc 1 1319 57 is_stmt 0 discriminator 2 view .LVU1746
 5143 004c 0CF1010C 		add	ip, ip, #1
 5144              	.LVL432:
1319:Core/Src/lcd.c **** 	{
 5145              		.loc 1 1319 57 discriminator 2 view .LVU1747
 5146 0050 5FFA8CFC 		uxtb	ip, ip
 5147              	.LVL433:
 5148              	.L161:
1319:Core/Src/lcd.c **** 	{
 5149              		.loc 1 1319 22 is_stmt 1 discriminator 1 view .LVU1748
1319:Core/Src/lcd.c **** 	{
 5150              		.loc 1 1319 2 is_stmt 0 discriminator 1 view .LVU1749
 5151 0054 BCF10F0F 		cmp	ip, #15
 5152 0058 0ED8     		bhi	.L169
1322:Core/Src/lcd.c **** 		usTemp = ( usTemp << 8 );
 5153              		.loc 1 1322 3 is_stmt 1 view .LVU1750
1322:Core/Src/lcd.c **** 		usTemp = ( usTemp << 8 );
 5154              		.loc 1 1322 32 is_stmt 0 view .LVU1751
 5155 005a 4FEA4C03 		lsl	r3, ip, #1
1322:Core/Src/lcd.c **** 		usTemp = ( usTemp << 8 );
 5156              		.loc 1 1322 21 view .LVU1752
 5157 005e 08AA     		add	r2, sp, #32
 5158 0060 02EB4C02 		add	r2, r2, ip, lsl #1
1322:Core/Src/lcd.c **** 		usTemp = ( usTemp << 8 );
 5159              		.loc 1 1322 10 view .LVU1753
 5160 0064 12F8202C 		ldrb	r2, [r2, #-32]	@ zero_extendqisi2
 5161              	.LVL434:
1323:Core/Src/lcd.c **** 		usTemp |= ucBuffer [ rowCount * 2 + 1 ];
 5162              		.loc 1 1323 3 is_stmt 1 view .LVU1754
1324:Core/Src/lcd.c **** 		
 5163              		.loc 1 1324 3 view .LVU1755
1324:Core/Src/lcd.c **** 		
 5164              		.loc 1 1324 22 is_stmt 0 view .LVU1756
 5165 0068 2133     		adds	r3, r3, #33
 5166 006a 6B44     		add	r3, sp, r3
 5167 006c 13F8201C 		ldrb	r1, [r3, #-32]	@ zero_extendqisi2
1324:Core/Src/lcd.c **** 		
 5168              		.loc 1 1324 10 view .LVU1757
 5169 0070 41EA0221 		orr	r1, r1, r2, lsl #8
 5170              	.LVL435:
ARM GAS  C:\Users\84759\AppData\Local\Temp\cc1QWPm5.s 			page 141


1326:Core/Src/lcd.c **** 		{			
 5171              		.loc 1 1326 3 is_stmt 1 view .LVU1758
1326:Core/Src/lcd.c **** 		{			
 5172              		.loc 1 1326 18 is_stmt 0 view .LVU1759
 5173 0074 0023     		movs	r3, #0
1326:Core/Src/lcd.c **** 		{			
 5174              		.loc 1 1326 3 view .LVU1760
 5175 0076 DCE7     		b	.L162
 5176              	.LVL436:
 5177              	.L169:
1332:Core/Src/lcd.c **** 		}		
1333:Core/Src/lcd.c **** 	}
1334:Core/Src/lcd.c **** 	
1335:Core/Src/lcd.c **** }
 5178              		.loc 1 1335 1 view .LVU1761
 5179 0078 08B0     		add	sp, sp, #32
 5180              	.LCFI31:
 5181              		.cfi_def_cfa_offset 8
 5182              		@ sp needed
 5183 007a 10BD     		pop	{r4, pc}
 5184              	.L171:
 5185              		.align	2
 5186              	.L170:
 5187 007c 00000000 		.word	.LANCHOR6
 5188 0080 00000000 		.word	.LANCHOR7
 5189              		.cfi_endproc
 5190              	.LFE91:
 5192              		.section	.text.ILI9341_DispString_CH,"ax",%progbits
 5193              		.align	1
 5194              		.global	ILI9341_DispString_CH
 5195              		.syntax unified
 5196              		.thumb
 5197              		.thumb_func
 5199              	ILI9341_DispString_CH:
 5200              	.LVL437:
 5201              	.LFB92:
1336:Core/Src/lcd.c **** 
1337:Core/Src/lcd.c **** 
1338:Core/Src/lcd.c **** /**
1339:Core/Src/lcd.c ****  * @brief  ÔÚ ILI9341 ĎÔĘľĆ÷ÉĎĎÔĘľÖĐÎÄ×Ö·ű´®
1340:Core/Src/lcd.c ****  * @param  line ŁşÔÚĚŘ¶¨É¨Ăč·˝ĎňĎÂ×Ö·ű´®µÄĆđĘĽY×ř±ę
1341:Core/Src/lcd.c ****   *   ±ľ˛ÎĘýżÉĘąÓĂşęLINE(0)ˇ˘LINE(1)µČ·˝Ę˝Ö¸¶¨ÎÄ×Ö×ř±ęŁ¬
1342:Core/Src/lcd.c ****   *   şęLINE(x)»á¸ůľÝµ±Ç°ŃˇÔńµÄ×ÖĚĺŔ´ĽĆËăY×ř±ęÖµˇŁ
1343:Core/Src/lcd.c **** 	*		ĎÔĘľÖĐÎÄÇŇĘąÓĂLINEşęĘ±Ł¬ĐčŇŞ°ŃÓ˘ÎÄ×ÖĚĺÉčÖĂłÉFont8x16
1344:Core/Src/lcd.c ****  * @param  pStr ŁşŇŞĎÔĘľµÄÓ˘ÎÄ×Ö·ű´®µÄĘ×µŘÖ·
1345:Core/Src/lcd.c ****  * @note żÉĘąÓĂLCD_SetBackColorˇ˘LCD_SetTextColorˇ˘LCD_SetColorsşŻĘýÉčÖĂŃŐÉ«
1346:Core/Src/lcd.c ****  * @retval ÎŢ
1347:Core/Src/lcd.c ****  */
1348:Core/Src/lcd.c **** void ILI9341_DispString_CH ( 	uint16_t usX , uint16_t usY, char * pStr )
1349:Core/Src/lcd.c **** {	
 5202              		.loc 1 1349 1 is_stmt 1 view -0
 5203              		.cfi_startproc
 5204              		@ args = 0, pretend = 0, frame = 0
 5205              		@ frame_needed = 0, uses_anonymous_args = 0
 5206              		.loc 1 1349 1 is_stmt 0 view .LVU1763
 5207 0000 70B5     		push	{r4, r5, r6, lr}
 5208              	.LCFI32:
ARM GAS  C:\Users\84759\AppData\Local\Temp\cc1QWPm5.s 			page 142


 5209              		.cfi_def_cfa_offset 16
 5210              		.cfi_offset 4, -16
 5211              		.cfi_offset 5, -12
 5212              		.cfi_offset 6, -8
 5213              		.cfi_offset 14, -4
 5214 0002 0446     		mov	r4, r0
 5215 0004 0D46     		mov	r5, r1
 5216 0006 1646     		mov	r6, r2
1350:Core/Src/lcd.c **** 	uint16_t usCh;
 5217              		.loc 1 1350 2 is_stmt 1 view .LVU1764
1351:Core/Src/lcd.c **** 
1352:Core/Src/lcd.c **** 	
1353:Core/Src/lcd.c **** 	while( * pStr != '\0' )
 5218              		.loc 1 1353 2 view .LVU1765
 5219              		.loc 1 1353 7 is_stmt 0 view .LVU1766
 5220 0008 11E0     		b	.L173
 5221              	.LVL438:
 5222              	.L174:
1354:Core/Src/lcd.c **** 	{		
1355:Core/Src/lcd.c **** 		if ( ( usX - ILI9341_DispWindow_X_Star + WIDTH_CH_CHAR ) > LCD_X_LENGTH )
1356:Core/Src/lcd.c **** 		{
1357:Core/Src/lcd.c **** 			usX = ILI9341_DispWindow_X_Star;
1358:Core/Src/lcd.c **** 			usY += HEIGHT_CH_CHAR;
1359:Core/Src/lcd.c **** 		}
1360:Core/Src/lcd.c **** 		
1361:Core/Src/lcd.c **** 		if ( ( usY - ILI9341_DispWindow_Y_Star + HEIGHT_CH_CHAR ) > LCD_Y_LENGTH )
 5223              		.loc 1 1361 3 is_stmt 1 view .LVU1767
 5224              		.loc 1 1361 61 is_stmt 0 view .LVU1768
 5225 000a 05F10F03 		add	r3, r5, #15
 5226 000e 0E4A     		ldr	r2, .L180
 5227 0010 1288     		ldrh	r2, [r2]
 5228              		.loc 1 1361 6 view .LVU1769
 5229 0012 9342     		cmp	r3, r2
 5230 0014 01DB     		blt	.L175
1362:Core/Src/lcd.c **** 		{
1363:Core/Src/lcd.c **** 			usX = ILI9341_DispWindow_X_Star;
1364:Core/Src/lcd.c **** 			usY = ILI9341_DispWindow_Y_Star;
 5231              		.loc 1 1364 8 view .LVU1770
 5232 0016 0025     		movs	r5, #0
 5233              	.LVL439:
1363:Core/Src/lcd.c **** 			usY = ILI9341_DispWindow_Y_Star;
 5234              		.loc 1 1363 8 view .LVU1771
 5235 0018 2C46     		mov	r4, r5
 5236              	.LVL440:
 5237              	.L175:
1365:Core/Src/lcd.c **** 		}	
1366:Core/Src/lcd.c **** 		
1367:Core/Src/lcd.c **** 		usCh = * ( uint16_t * ) pStr;	
 5238              		.loc 1 1367 3 is_stmt 1 view .LVU1772
 5239              		.loc 1 1367 8 is_stmt 0 view .LVU1773
 5240 001a 36F8022B 		ldrh	r2, [r6], #2
 5241              	.LVL441:
1368:Core/Src/lcd.c **** 	  usCh = ( usCh << 8 ) + ( usCh >> 8 );
 5242              		.loc 1 1368 4 is_stmt 1 view .LVU1774
 5243              		.loc 1 1368 9 is_stmt 0 view .LVU1775
 5244 001e 52BA     		rev16	r2, r2
 5245              	.LVL442:
ARM GAS  C:\Users\84759\AppData\Local\Temp\cc1QWPm5.s 			page 143


1369:Core/Src/lcd.c **** 
1370:Core/Src/lcd.c **** 		ILI9341_DispChar_CH ( usX, usY, usCh );
 5246              		.loc 1 1370 3 is_stmt 1 view .LVU1776
 5247 0020 92B2     		uxth	r2, r2
 5248              		.loc 1 1370 3 is_stmt 0 view .LVU1777
 5249 0022 2946     		mov	r1, r5
 5250 0024 2046     		mov	r0, r4
 5251 0026 FFF7FEFF 		bl	ILI9341_DispChar_CH
 5252              	.LVL443:
1371:Core/Src/lcd.c **** 		
1372:Core/Src/lcd.c **** 		usX += WIDTH_CH_CHAR;
 5253              		.loc 1 1372 3 is_stmt 1 view .LVU1778
 5254              		.loc 1 1372 7 is_stmt 0 view .LVU1779
 5255 002a 1034     		adds	r4, r4, #16
 5256              	.LVL444:
 5257              		.loc 1 1372 7 view .LVU1780
 5258 002c A4B2     		uxth	r4, r4
 5259              	.LVL445:
1373:Core/Src/lcd.c **** 		
1374:Core/Src/lcd.c **** 		pStr += 2;           //Ň»¸öşş×ÖÁ˝¸ö×Ö˝Ú 
 5260              		.loc 1 1374 3 is_stmt 1 view .LVU1781
 5261              	.L173:
1353:Core/Src/lcd.c **** 	{		
 5262              		.loc 1 1353 7 view .LVU1782
1353:Core/Src/lcd.c **** 	{		
 5263              		.loc 1 1353 9 is_stmt 0 view .LVU1783
 5264 002e 3378     		ldrb	r3, [r6]	@ zero_extendqisi2
1353:Core/Src/lcd.c **** 	{		
 5265              		.loc 1 1353 7 view .LVU1784
 5266 0030 4BB1     		cbz	r3, .L179
1355:Core/Src/lcd.c **** 		{
 5267              		.loc 1 1355 3 is_stmt 1 view .LVU1785
1355:Core/Src/lcd.c **** 		{
 5268              		.loc 1 1355 60 is_stmt 0 view .LVU1786
 5269 0032 04F10F03 		add	r3, r4, #15
 5270 0036 054A     		ldr	r2, .L180+4
 5271 0038 1288     		ldrh	r2, [r2]
1355:Core/Src/lcd.c **** 		{
 5272              		.loc 1 1355 6 view .LVU1787
 5273 003a 9342     		cmp	r3, r2
 5274 003c E5DB     		blt	.L174
1357:Core/Src/lcd.c **** 			usY += HEIGHT_CH_CHAR;
 5275              		.loc 1 1357 4 is_stmt 1 view .LVU1788
 5276              	.LVL446:
1358:Core/Src/lcd.c **** 		}
 5277              		.loc 1 1358 4 view .LVU1789
1358:Core/Src/lcd.c **** 		}
 5278              		.loc 1 1358 8 is_stmt 0 view .LVU1790
 5279 003e 1035     		adds	r5, r5, #16
 5280              	.LVL447:
1358:Core/Src/lcd.c **** 		}
 5281              		.loc 1 1358 8 view .LVU1791
 5282 0040 ADB2     		uxth	r5, r5
 5283              	.LVL448:
1357:Core/Src/lcd.c **** 			usY += HEIGHT_CH_CHAR;
 5284              		.loc 1 1357 8 view .LVU1792
 5285 0042 0024     		movs	r4, #0
ARM GAS  C:\Users\84759\AppData\Local\Temp\cc1QWPm5.s 			page 144


 5286 0044 E1E7     		b	.L174
 5287              	.LVL449:
 5288              	.L179:
1375:Core/Src/lcd.c **** 
1376:Core/Src/lcd.c **** 	}	   
1377:Core/Src/lcd.c **** 	
1378:Core/Src/lcd.c **** }
 5289              		.loc 1 1378 1 view .LVU1793
 5290 0046 70BD     		pop	{r4, r5, r6, pc}
 5291              	.LVL450:
 5292              	.L181:
 5293              		.loc 1 1378 1 view .LVU1794
 5294              		.align	2
 5295              	.L180:
 5296 0048 00000000 		.word	.LANCHOR5
 5297 004c 00000000 		.word	.LANCHOR4
 5298              		.cfi_endproc
 5299              	.LFE92:
 5301              		.section	.text.ILI9341_DispStringLine_EN_CH,"ax",%progbits
 5302              		.align	1
 5303              		.global	ILI9341_DispStringLine_EN_CH
 5304              		.syntax unified
 5305              		.thumb
 5306              		.thumb_func
 5308              	ILI9341_DispStringLine_EN_CH:
 5309              	.LVL451:
 5310              	.LFB93:
1379:Core/Src/lcd.c **** 
1380:Core/Src/lcd.c **** 
1381:Core/Src/lcd.c **** /**
1382:Core/Src/lcd.c ****  * @brief  ÔÚ ILI9341 ĎÔĘľĆ÷ÉĎĎÔĘľÖĐÓ˘ÎÄ×Ö·ű´®
1383:Core/Src/lcd.c ****  * @param  line ŁşÔÚĚŘ¶¨É¨Ăč·˝ĎňĎÂ×Ö·ű´®µÄĆđĘĽY×ř±ę
1384:Core/Src/lcd.c ****   *   ±ľ˛ÎĘýżÉĘąÓĂşęLINE(0)ˇ˘LINE(1)µČ·˝Ę˝Ö¸¶¨ÎÄ×Ö×ř±ęŁ¬
1385:Core/Src/lcd.c ****   *   şęLINE(x)»á¸ůľÝµ±Ç°ŃˇÔńµÄ×ÖĚĺŔ´ĽĆËăY×ř±ęÖµˇŁ
1386:Core/Src/lcd.c **** 	*		ĎÔĘľÖĐÎÄÇŇĘąÓĂLINEşęĘ±Ł¬ĐčŇŞ°ŃÓ˘ÎÄ×ÖĚĺÉčÖĂłÉFont8x16
1387:Core/Src/lcd.c ****  * @param  pStr ŁşŇŞĎÔĘľµÄ×Ö·ű´®µÄĘ×µŘÖ·
1388:Core/Src/lcd.c ****  * @note żÉĘąÓĂLCD_SetBackColorˇ˘LCD_SetTextColorˇ˘LCD_SetColorsşŻĘýÉčÖĂŃŐÉ«
1389:Core/Src/lcd.c ****  * @retval ÎŢ
1390:Core/Src/lcd.c ****  */
1391:Core/Src/lcd.c **** void ILI9341_DispStringLine_EN_CH (  uint16_t line, char * pStr )
1392:Core/Src/lcd.c **** {
 5311              		.loc 1 1392 1 is_stmt 1 view -0
 5312              		.cfi_startproc
 5313              		@ args = 0, pretend = 0, frame = 0
 5314              		@ frame_needed = 0, uses_anonymous_args = 0
 5315              		.loc 1 1392 1 is_stmt 0 view .LVU1796
 5316 0000 70B5     		push	{r4, r5, r6, lr}
 5317              	.LCFI33:
 5318              		.cfi_def_cfa_offset 16
 5319              		.cfi_offset 4, -16
 5320              		.cfi_offset 5, -12
 5321              		.cfi_offset 6, -8
 5322              		.cfi_offset 14, -4
 5323 0002 0546     		mov	r5, r0
 5324 0004 0E46     		mov	r6, r1
1393:Core/Src/lcd.c **** 	uint16_t usCh;
 5325              		.loc 1 1393 2 is_stmt 1 view .LVU1797
ARM GAS  C:\Users\84759\AppData\Local\Temp\cc1QWPm5.s 			page 145


1394:Core/Src/lcd.c **** 	uint16_t usX = 0;
 5326              		.loc 1 1394 2 view .LVU1798
 5327              	.LVL452:
1395:Core/Src/lcd.c **** 	
1396:Core/Src/lcd.c **** 	while( * pStr != '\0' )
 5328              		.loc 1 1396 2 view .LVU1799
1394:Core/Src/lcd.c **** 	uint16_t usX = 0;
 5329              		.loc 1 1394 11 is_stmt 0 view .LVU1800
 5330 0006 0024     		movs	r4, #0
 5331              		.loc 1 1396 7 view .LVU1801
 5332 0008 09E0     		b	.L183
 5333              	.LVL453:
 5334              	.L186:
1397:Core/Src/lcd.c **** 	{
1398:Core/Src/lcd.c **** 		if ( * pStr <= 126 )	           	//Ó˘ÎÄ×Ö·ű
1399:Core/Src/lcd.c **** 		{
1400:Core/Src/lcd.c **** 			if ( ( usX - ILI9341_DispWindow_X_Star + LCD_Currentfonts->Width ) > LCD_X_LENGTH )
1401:Core/Src/lcd.c **** 			{
1402:Core/Src/lcd.c **** 				usX = ILI9341_DispWindow_X_Star;
1403:Core/Src/lcd.c **** 				line += LCD_Currentfonts->Height;
1404:Core/Src/lcd.c **** 			}
1405:Core/Src/lcd.c **** 			
1406:Core/Src/lcd.c **** 			if ( ( line - ILI9341_DispWindow_Y_Star + LCD_Currentfonts->Height ) > LCD_Y_LENGTH )
1407:Core/Src/lcd.c **** 			{
1408:Core/Src/lcd.c **** 				usX = ILI9341_DispWindow_X_Star;
1409:Core/Src/lcd.c **** 				line = ILI9341_DispWindow_Y_Star;
1410:Core/Src/lcd.c **** 			}			
1411:Core/Src/lcd.c **** 		
1412:Core/Src/lcd.c **** 		  ILI9341_DispChar_EN ( usX, line, * pStr );
 5335              		.loc 1 1412 5 is_stmt 1 view .LVU1802
 5336 000a 2946     		mov	r1, r5
 5337 000c 2046     		mov	r0, r4
 5338 000e FFF7FEFF 		bl	ILI9341_DispChar_EN
 5339              	.LVL454:
1413:Core/Src/lcd.c **** 			
1414:Core/Src/lcd.c **** 			usX +=  LCD_Currentfonts->Width;
 5340              		.loc 1 1414 4 view .LVU1803
 5341              		.loc 1 1414 28 is_stmt 0 view .LVU1804
 5342 0012 1E4B     		ldr	r3, .L195
 5343 0014 1B68     		ldr	r3, [r3]
 5344 0016 9B88     		ldrh	r3, [r3, #4]
 5345              		.loc 1 1414 8 view .LVU1805
 5346 0018 1C44     		add	r4, r4, r3
 5347              	.LVL455:
 5348              		.loc 1 1414 8 view .LVU1806
 5349 001a A4B2     		uxth	r4, r4
 5350              	.LVL456:
1415:Core/Src/lcd.c **** 		
1416:Core/Src/lcd.c **** 		  pStr ++;
 5351              		.loc 1 1416 5 is_stmt 1 view .LVU1807
 5352              		.loc 1 1416 10 is_stmt 0 view .LVU1808
 5353 001c 0136     		adds	r6, r6, #1
 5354              	.LVL457:
 5355              	.L183:
1396:Core/Src/lcd.c **** 	{
 5356              		.loc 1 1396 7 is_stmt 1 view .LVU1809
1396:Core/Src/lcd.c **** 	{
ARM GAS  C:\Users\84759\AppData\Local\Temp\cc1QWPm5.s 			page 146


 5357              		.loc 1 1396 9 is_stmt 0 view .LVU1810
 5358 001e 3278     		ldrb	r2, [r6]	@ zero_extendqisi2
1396:Core/Src/lcd.c **** 	{
 5359              		.loc 1 1396 7 view .LVU1811
 5360 0020 002A     		cmp	r2, #0
 5361 0022 32D0     		beq	.L194
1398:Core/Src/lcd.c **** 		{
 5362              		.loc 1 1398 3 is_stmt 1 view .LVU1812
1398:Core/Src/lcd.c **** 		{
 5363              		.loc 1 1398 6 is_stmt 0 view .LVU1813
 5364 0024 7E2A     		cmp	r2, #126
 5365 0026 14D8     		bhi	.L184
1400:Core/Src/lcd.c **** 			{
 5366              		.loc 1 1400 4 is_stmt 1 view .LVU1814
1400:Core/Src/lcd.c **** 			{
 5367              		.loc 1 1400 61 is_stmt 0 view .LVU1815
 5368 0028 184B     		ldr	r3, .L195
 5369 002a 1968     		ldr	r1, [r3]
 5370 002c 8B88     		ldrh	r3, [r1, #4]
1400:Core/Src/lcd.c **** 			{
 5371              		.loc 1 1400 43 view .LVU1816
 5372 002e 2344     		add	r3, r3, r4
1400:Core/Src/lcd.c **** 			{
 5373              		.loc 1 1400 71 view .LVU1817
 5374 0030 1748     		ldr	r0, .L195+4
 5375 0032 0088     		ldrh	r0, [r0]
1400:Core/Src/lcd.c **** 			{
 5376              		.loc 1 1400 7 view .LVU1818
 5377 0034 8342     		cmp	r3, r0
 5378 0036 03DD     		ble	.L185
1402:Core/Src/lcd.c **** 				line += LCD_Currentfonts->Height;
 5379              		.loc 1 1402 5 is_stmt 1 view .LVU1819
 5380              	.LVL458:
1403:Core/Src/lcd.c **** 			}
 5381              		.loc 1 1403 5 view .LVU1820
1403:Core/Src/lcd.c **** 			}
 5382              		.loc 1 1403 29 is_stmt 0 view .LVU1821
 5383 0038 C888     		ldrh	r0, [r1, #6]
1403:Core/Src/lcd.c **** 			}
 5384              		.loc 1 1403 10 view .LVU1822
 5385 003a 0544     		add	r5, r5, r0
 5386              	.LVL459:
1403:Core/Src/lcd.c **** 			}
 5387              		.loc 1 1403 10 view .LVU1823
 5388 003c ADB2     		uxth	r5, r5
 5389              	.LVL460:
1402:Core/Src/lcd.c **** 				line += LCD_Currentfonts->Height;
 5390              		.loc 1 1402 9 view .LVU1824
 5391 003e 0024     		movs	r4, #0
 5392              	.LVL461:
 5393              	.L185:
1406:Core/Src/lcd.c **** 			{
 5394              		.loc 1 1406 4 is_stmt 1 view .LVU1825
1406:Core/Src/lcd.c **** 			{
 5395              		.loc 1 1406 62 is_stmt 0 view .LVU1826
 5396 0040 CB88     		ldrh	r3, [r1, #6]
1406:Core/Src/lcd.c **** 			{
ARM GAS  C:\Users\84759\AppData\Local\Temp\cc1QWPm5.s 			page 147


 5397              		.loc 1 1406 44 view .LVU1827
 5398 0042 2B44     		add	r3, r3, r5
1406:Core/Src/lcd.c **** 			{
 5399              		.loc 1 1406 73 view .LVU1828
 5400 0044 1349     		ldr	r1, .L195+8
 5401 0046 0988     		ldrh	r1, [r1]
1406:Core/Src/lcd.c **** 			{
 5402              		.loc 1 1406 7 view .LVU1829
 5403 0048 8B42     		cmp	r3, r1
 5404 004a DEDD     		ble	.L186
1408:Core/Src/lcd.c **** 				line = ILI9341_DispWindow_Y_Star;
 5405              		.loc 1 1408 9 view .LVU1830
 5406 004c 0024     		movs	r4, #0
 5407              	.LVL462:
1409:Core/Src/lcd.c **** 			}			
 5408              		.loc 1 1409 10 view .LVU1831
 5409 004e 2546     		mov	r5, r4
 5410              	.LVL463:
1409:Core/Src/lcd.c **** 			}			
 5411              		.loc 1 1409 10 view .LVU1832
 5412 0050 DBE7     		b	.L186
 5413              	.LVL464:
 5414              	.L184:
1417:Core/Src/lcd.c **** 
1418:Core/Src/lcd.c **** 		}
1419:Core/Src/lcd.c **** 		
1420:Core/Src/lcd.c **** 		else	                            //şş×Ö×Ö·ű
1421:Core/Src/lcd.c **** 		{
1422:Core/Src/lcd.c **** 			if ( ( usX - ILI9341_DispWindow_X_Star + WIDTH_CH_CHAR ) > LCD_X_LENGTH )
 5415              		.loc 1 1422 4 is_stmt 1 view .LVU1833
 5416              		.loc 1 1422 61 is_stmt 0 view .LVU1834
 5417 0052 04F10F03 		add	r3, r4, #15
 5418 0056 0E4A     		ldr	r2, .L195+4
 5419 0058 1288     		ldrh	r2, [r2]
 5420              		.loc 1 1422 7 view .LVU1835
 5421 005a 9342     		cmp	r3, r2
 5422 005c 02DB     		blt	.L188
1423:Core/Src/lcd.c **** 			{
1424:Core/Src/lcd.c **** 				usX = ILI9341_DispWindow_X_Star;
 5423              		.loc 1 1424 5 is_stmt 1 view .LVU1836
 5424              	.LVL465:
1425:Core/Src/lcd.c **** 				line += HEIGHT_CH_CHAR;
 5425              		.loc 1 1425 5 view .LVU1837
 5426              		.loc 1 1425 10 is_stmt 0 view .LVU1838
 5427 005e 1035     		adds	r5, r5, #16
 5428              	.LVL466:
 5429              		.loc 1 1425 10 view .LVU1839
 5430 0060 ADB2     		uxth	r5, r5
 5431              	.LVL467:
1424:Core/Src/lcd.c **** 				line += HEIGHT_CH_CHAR;
 5432              		.loc 1 1424 9 view .LVU1840
 5433 0062 0024     		movs	r4, #0
 5434              	.LVL468:
 5435              	.L188:
1426:Core/Src/lcd.c **** 			}
1427:Core/Src/lcd.c **** 			
1428:Core/Src/lcd.c **** 			if ( ( line - ILI9341_DispWindow_Y_Star + HEIGHT_CH_CHAR ) > LCD_Y_LENGTH )
ARM GAS  C:\Users\84759\AppData\Local\Temp\cc1QWPm5.s 			page 148


 5436              		.loc 1 1428 4 is_stmt 1 view .LVU1841
 5437              		.loc 1 1428 63 is_stmt 0 view .LVU1842
 5438 0064 05F10F03 		add	r3, r5, #15
 5439 0068 0A4A     		ldr	r2, .L195+8
 5440 006a 1288     		ldrh	r2, [r2]
 5441              		.loc 1 1428 7 view .LVU1843
 5442 006c 9342     		cmp	r3, r2
 5443 006e 01DB     		blt	.L189
1429:Core/Src/lcd.c **** 			{
1430:Core/Src/lcd.c **** 				usX = ILI9341_DispWindow_X_Star;
 5444              		.loc 1 1430 9 view .LVU1844
 5445 0070 0024     		movs	r4, #0
 5446              	.LVL469:
1431:Core/Src/lcd.c **** 				line = ILI9341_DispWindow_Y_Star;
 5447              		.loc 1 1431 10 view .LVU1845
 5448 0072 2546     		mov	r5, r4
 5449              	.LVL470:
 5450              	.L189:
1432:Core/Src/lcd.c **** 			}	
1433:Core/Src/lcd.c **** 			
1434:Core/Src/lcd.c **** 			usCh = * ( uint16_t * ) pStr;	
 5451              		.loc 1 1434 4 is_stmt 1 view .LVU1846
 5452              		.loc 1 1434 9 is_stmt 0 view .LVU1847
 5453 0074 36F8022B 		ldrh	r2, [r6], #2
 5454              	.LVL471:
1435:Core/Src/lcd.c **** 			
1436:Core/Src/lcd.c **** 			usCh = ( usCh << 8 ) + ( usCh >> 8 );		
 5455              		.loc 1 1436 4 is_stmt 1 view .LVU1848
 5456              		.loc 1 1436 9 is_stmt 0 view .LVU1849
 5457 0078 52BA     		rev16	r2, r2
 5458              	.LVL472:
1437:Core/Src/lcd.c **** 
1438:Core/Src/lcd.c **** 			ILI9341_DispChar_CH ( usX, line, usCh );
 5459              		.loc 1 1438 4 is_stmt 1 view .LVU1850
 5460 007a 92B2     		uxth	r2, r2
 5461              		.loc 1 1438 4 is_stmt 0 view .LVU1851
 5462 007c 2946     		mov	r1, r5
 5463 007e 2046     		mov	r0, r4
 5464 0080 FFF7FEFF 		bl	ILI9341_DispChar_CH
 5465              	.LVL473:
1439:Core/Src/lcd.c **** 			
1440:Core/Src/lcd.c **** 			usX += WIDTH_CH_CHAR;
 5466              		.loc 1 1440 4 is_stmt 1 view .LVU1852
 5467              		.loc 1 1440 8 is_stmt 0 view .LVU1853
 5468 0084 1034     		adds	r4, r4, #16
 5469              	.LVL474:
 5470              		.loc 1 1440 8 view .LVU1854
 5471 0086 A4B2     		uxth	r4, r4
 5472              	.LVL475:
1441:Core/Src/lcd.c **** 			
1442:Core/Src/lcd.c **** 			pStr += 2;           //Ň»¸öşş×ÖÁ˝¸ö×Ö˝Ú 
 5473              		.loc 1 1442 4 is_stmt 1 view .LVU1855
 5474              		.loc 1 1442 4 is_stmt 0 view .LVU1856
 5475 0088 C9E7     		b	.L183
 5476              	.L194:
1443:Core/Src/lcd.c **** 		
1444:Core/Src/lcd.c ****     }
ARM GAS  C:\Users\84759\AppData\Local\Temp\cc1QWPm5.s 			page 149


1445:Core/Src/lcd.c **** 		
1446:Core/Src/lcd.c ****   }	
1447:Core/Src/lcd.c **** } 
 5477              		.loc 1 1447 1 view .LVU1857
 5478 008a 70BD     		pop	{r4, r5, r6, pc}
 5479              	.LVL476:
 5480              	.L196:
 5481              		.loc 1 1447 1 view .LVU1858
 5482              		.align	2
 5483              	.L195:
 5484 008c 00000000 		.word	.LANCHOR8
 5485 0090 00000000 		.word	.LANCHOR4
 5486 0094 00000000 		.word	.LANCHOR5
 5487              		.cfi_endproc
 5488              	.LFE93:
 5490              		.section	.text.ILI9341_DispString_EN_CH,"ax",%progbits
 5491              		.align	1
 5492              		.global	ILI9341_DispString_EN_CH
 5493              		.syntax unified
 5494              		.thumb
 5495              		.thumb_func
 5497              	ILI9341_DispString_EN_CH:
 5498              	.LVL477:
 5499              	.LFB94:
1448:Core/Src/lcd.c **** 
1449:Core/Src/lcd.c **** /**
1450:Core/Src/lcd.c ****  * @brief  ÔÚ ILI9341 ĎÔĘľĆ÷ÉĎĎÔĘľÖĐÓ˘ÎÄ×Ö·ű´®
1451:Core/Src/lcd.c ****  * @param  usX ŁşÔÚĚŘ¶¨É¨Ăč·˝ĎňĎÂ×Ö·űµÄĆđĘĽX×ř±ę
1452:Core/Src/lcd.c ****  * @param  usY ŁşÔÚĚŘ¶¨É¨Ăč·˝ĎňĎÂ×Ö·űµÄĆđĘĽY×ř±ę
1453:Core/Src/lcd.c ****  * @param  pStr ŁşŇŞĎÔĘľµÄ×Ö·ű´®µÄĘ×µŘÖ·
1454:Core/Src/lcd.c ****  * @note żÉĘąÓĂLCD_SetBackColorˇ˘LCD_SetTextColorˇ˘LCD_SetColorsşŻĘýÉčÖĂŃŐÉ«
1455:Core/Src/lcd.c ****  * @retval ÎŢ
1456:Core/Src/lcd.c ****  */
1457:Core/Src/lcd.c **** void ILI9341_DispString_EN_CH ( 	uint16_t usX , uint16_t usY, char * pStr )
1458:Core/Src/lcd.c **** {
 5500              		.loc 1 1458 1 is_stmt 1 view -0
 5501              		.cfi_startproc
 5502              		@ args = 0, pretend = 0, frame = 0
 5503              		@ frame_needed = 0, uses_anonymous_args = 0
 5504              		.loc 1 1458 1 is_stmt 0 view .LVU1860
 5505 0000 70B5     		push	{r4, r5, r6, lr}
 5506              	.LCFI34:
 5507              		.cfi_def_cfa_offset 16
 5508              		.cfi_offset 4, -16
 5509              		.cfi_offset 5, -12
 5510              		.cfi_offset 6, -8
 5511              		.cfi_offset 14, -4
 5512 0002 0446     		mov	r4, r0
 5513 0004 0D46     		mov	r5, r1
 5514 0006 1646     		mov	r6, r2
1459:Core/Src/lcd.c **** 	uint16_t usCh;
 5515              		.loc 1 1459 2 is_stmt 1 view .LVU1861
1460:Core/Src/lcd.c **** 	
1461:Core/Src/lcd.c **** 	while( * pStr != '\0' )
 5516              		.loc 1 1461 2 view .LVU1862
 5517              		.loc 1 1461 7 is_stmt 0 view .LVU1863
 5518 0008 09E0     		b	.L198
ARM GAS  C:\Users\84759\AppData\Local\Temp\cc1QWPm5.s 			page 150


 5519              	.LVL478:
 5520              	.L201:
1462:Core/Src/lcd.c **** 	{
1463:Core/Src/lcd.c **** 		if ( * pStr <= 126 )	           	//Ó˘ÎÄ×Ö·ű
1464:Core/Src/lcd.c **** 		{
1465:Core/Src/lcd.c **** 			if ( ( usX - ILI9341_DispWindow_X_Star + LCD_Currentfonts->Width ) > LCD_X_LENGTH )
1466:Core/Src/lcd.c **** 			{
1467:Core/Src/lcd.c **** 				usX = ILI9341_DispWindow_X_Star;
1468:Core/Src/lcd.c **** 				usY += LCD_Currentfonts->Height;
1469:Core/Src/lcd.c **** 			}
1470:Core/Src/lcd.c **** 			
1471:Core/Src/lcd.c **** 			if ( ( usY - ILI9341_DispWindow_Y_Star + LCD_Currentfonts->Height ) > LCD_Y_LENGTH )
1472:Core/Src/lcd.c **** 			{
1473:Core/Src/lcd.c **** 				usX = ILI9341_DispWindow_X_Star;
1474:Core/Src/lcd.c **** 				usY = ILI9341_DispWindow_Y_Star;
1475:Core/Src/lcd.c **** 			}			
1476:Core/Src/lcd.c **** 		
1477:Core/Src/lcd.c **** 		  ILI9341_DispChar_EN ( usX, usY, * pStr );
 5521              		.loc 1 1477 5 is_stmt 1 view .LVU1864
 5522 000a 2946     		mov	r1, r5
 5523 000c 2046     		mov	r0, r4
 5524 000e FFF7FEFF 		bl	ILI9341_DispChar_EN
 5525              	.LVL479:
1478:Core/Src/lcd.c **** 			
1479:Core/Src/lcd.c **** 			usX +=  LCD_Currentfonts->Width;
 5526              		.loc 1 1479 4 view .LVU1865
 5527              		.loc 1 1479 28 is_stmt 0 view .LVU1866
 5528 0012 1E4B     		ldr	r3, .L210
 5529 0014 1B68     		ldr	r3, [r3]
 5530 0016 9888     		ldrh	r0, [r3, #4]
 5531              		.loc 1 1479 8 view .LVU1867
 5532 0018 0444     		add	r4, r4, r0
 5533              	.LVL480:
 5534              		.loc 1 1479 8 view .LVU1868
 5535 001a A4B2     		uxth	r4, r4
 5536              	.LVL481:
1480:Core/Src/lcd.c **** 		
1481:Core/Src/lcd.c **** 		  pStr ++;
 5537              		.loc 1 1481 5 is_stmt 1 view .LVU1869
 5538              		.loc 1 1481 10 is_stmt 0 view .LVU1870
 5539 001c 0136     		adds	r6, r6, #1
 5540              	.LVL482:
 5541              	.L198:
1461:Core/Src/lcd.c **** 	{
 5542              		.loc 1 1461 7 is_stmt 1 view .LVU1871
1461:Core/Src/lcd.c **** 	{
 5543              		.loc 1 1461 9 is_stmt 0 view .LVU1872
 5544 001e 3278     		ldrb	r2, [r6]	@ zero_extendqisi2
1461:Core/Src/lcd.c **** 	{
 5545              		.loc 1 1461 7 view .LVU1873
 5546 0020 002A     		cmp	r2, #0
 5547 0022 32D0     		beq	.L209
1463:Core/Src/lcd.c **** 		{
 5548              		.loc 1 1463 3 is_stmt 1 view .LVU1874
1463:Core/Src/lcd.c **** 		{
 5549              		.loc 1 1463 6 is_stmt 0 view .LVU1875
 5550 0024 7E2A     		cmp	r2, #126
ARM GAS  C:\Users\84759\AppData\Local\Temp\cc1QWPm5.s 			page 151


 5551 0026 14D8     		bhi	.L199
1465:Core/Src/lcd.c **** 			{
 5552              		.loc 1 1465 4 is_stmt 1 view .LVU1876
1465:Core/Src/lcd.c **** 			{
 5553              		.loc 1 1465 61 is_stmt 0 view .LVU1877
 5554 0028 184B     		ldr	r3, .L210
 5555 002a 1868     		ldr	r0, [r3]
 5556 002c 8388     		ldrh	r3, [r0, #4]
1465:Core/Src/lcd.c **** 			{
 5557              		.loc 1 1465 43 view .LVU1878
 5558 002e 2344     		add	r3, r3, r4
1465:Core/Src/lcd.c **** 			{
 5559              		.loc 1 1465 71 view .LVU1879
 5560 0030 1749     		ldr	r1, .L210+4
 5561 0032 0988     		ldrh	r1, [r1]
1465:Core/Src/lcd.c **** 			{
 5562              		.loc 1 1465 7 view .LVU1880
 5563 0034 8B42     		cmp	r3, r1
 5564 0036 03DD     		ble	.L200
1467:Core/Src/lcd.c **** 				usY += LCD_Currentfonts->Height;
 5565              		.loc 1 1467 5 is_stmt 1 view .LVU1881
 5566              	.LVL483:
1468:Core/Src/lcd.c **** 			}
 5567              		.loc 1 1468 5 view .LVU1882
1468:Core/Src/lcd.c **** 			}
 5568              		.loc 1 1468 28 is_stmt 0 view .LVU1883
 5569 0038 C188     		ldrh	r1, [r0, #6]
1468:Core/Src/lcd.c **** 			}
 5570              		.loc 1 1468 9 view .LVU1884
 5571 003a 0D44     		add	r5, r5, r1
 5572              	.LVL484:
1468:Core/Src/lcd.c **** 			}
 5573              		.loc 1 1468 9 view .LVU1885
 5574 003c ADB2     		uxth	r5, r5
 5575              	.LVL485:
1467:Core/Src/lcd.c **** 				usY += LCD_Currentfonts->Height;
 5576              		.loc 1 1467 9 view .LVU1886
 5577 003e 0024     		movs	r4, #0
 5578              	.LVL486:
 5579              	.L200:
1471:Core/Src/lcd.c **** 			{
 5580              		.loc 1 1471 4 is_stmt 1 view .LVU1887
1471:Core/Src/lcd.c **** 			{
 5581              		.loc 1 1471 61 is_stmt 0 view .LVU1888
 5582 0040 C388     		ldrh	r3, [r0, #6]
1471:Core/Src/lcd.c **** 			{
 5583              		.loc 1 1471 43 view .LVU1889
 5584 0042 2B44     		add	r3, r3, r5
1471:Core/Src/lcd.c **** 			{
 5585              		.loc 1 1471 72 view .LVU1890
 5586 0044 1349     		ldr	r1, .L210+8
 5587 0046 0988     		ldrh	r1, [r1]
1471:Core/Src/lcd.c **** 			{
 5588              		.loc 1 1471 7 view .LVU1891
 5589 0048 8B42     		cmp	r3, r1
 5590 004a DEDD     		ble	.L201
1474:Core/Src/lcd.c **** 			}			
ARM GAS  C:\Users\84759\AppData\Local\Temp\cc1QWPm5.s 			page 152


 5591              		.loc 1 1474 9 view .LVU1892
 5592 004c 0025     		movs	r5, #0
 5593              	.LVL487:
1473:Core/Src/lcd.c **** 				usY = ILI9341_DispWindow_Y_Star;
 5594              		.loc 1 1473 9 view .LVU1893
 5595 004e 2C46     		mov	r4, r5
 5596              	.LVL488:
1473:Core/Src/lcd.c **** 				usY = ILI9341_DispWindow_Y_Star;
 5597              		.loc 1 1473 9 view .LVU1894
 5598 0050 DBE7     		b	.L201
 5599              	.LVL489:
 5600              	.L199:
1482:Core/Src/lcd.c **** 
1483:Core/Src/lcd.c **** 		}
1484:Core/Src/lcd.c **** 		
1485:Core/Src/lcd.c **** 		else	                            //şş×Ö×Ö·ű
1486:Core/Src/lcd.c **** 		{
1487:Core/Src/lcd.c **** 			if ( ( usX - ILI9341_DispWindow_X_Star + WIDTH_CH_CHAR ) > LCD_X_LENGTH )
 5601              		.loc 1 1487 4 is_stmt 1 view .LVU1895
 5602              		.loc 1 1487 61 is_stmt 0 view .LVU1896
 5603 0052 04F10F03 		add	r3, r4, #15
 5604 0056 0E4A     		ldr	r2, .L210+4
 5605 0058 1288     		ldrh	r2, [r2]
 5606              		.loc 1 1487 7 view .LVU1897
 5607 005a 9342     		cmp	r3, r2
 5608 005c 02DB     		blt	.L203
1488:Core/Src/lcd.c **** 			{
1489:Core/Src/lcd.c **** 				usX = ILI9341_DispWindow_X_Star;
 5609              		.loc 1 1489 5 is_stmt 1 view .LVU1898
 5610              	.LVL490:
1490:Core/Src/lcd.c **** 				usY += HEIGHT_CH_CHAR;
 5611              		.loc 1 1490 5 view .LVU1899
 5612              		.loc 1 1490 9 is_stmt 0 view .LVU1900
 5613 005e 1035     		adds	r5, r5, #16
 5614              	.LVL491:
 5615              		.loc 1 1490 9 view .LVU1901
 5616 0060 ADB2     		uxth	r5, r5
 5617              	.LVL492:
1489:Core/Src/lcd.c **** 				usY += HEIGHT_CH_CHAR;
 5618              		.loc 1 1489 9 view .LVU1902
 5619 0062 0024     		movs	r4, #0
 5620              	.LVL493:
 5621              	.L203:
1491:Core/Src/lcd.c **** 			}
1492:Core/Src/lcd.c **** 			
1493:Core/Src/lcd.c **** 			if ( ( usY - ILI9341_DispWindow_Y_Star + HEIGHT_CH_CHAR ) > LCD_Y_LENGTH )
 5622              		.loc 1 1493 4 is_stmt 1 view .LVU1903
 5623              		.loc 1 1493 62 is_stmt 0 view .LVU1904
 5624 0064 05F10F03 		add	r3, r5, #15
 5625 0068 0A4A     		ldr	r2, .L210+8
 5626 006a 1288     		ldrh	r2, [r2]
 5627              		.loc 1 1493 7 view .LVU1905
 5628 006c 9342     		cmp	r3, r2
 5629 006e 01DB     		blt	.L204
1494:Core/Src/lcd.c **** 			{
1495:Core/Src/lcd.c **** 				usX = ILI9341_DispWindow_X_Star;
1496:Core/Src/lcd.c **** 				usY = ILI9341_DispWindow_Y_Star;
ARM GAS  C:\Users\84759\AppData\Local\Temp\cc1QWPm5.s 			page 153


 5630              		.loc 1 1496 9 view .LVU1906
 5631 0070 0025     		movs	r5, #0
 5632              	.LVL494:
1495:Core/Src/lcd.c **** 				usY = ILI9341_DispWindow_Y_Star;
 5633              		.loc 1 1495 9 view .LVU1907
 5634 0072 2C46     		mov	r4, r5
 5635              	.LVL495:
 5636              	.L204:
1497:Core/Src/lcd.c **** 			}	
1498:Core/Src/lcd.c **** 			
1499:Core/Src/lcd.c **** 			usCh = * ( uint16_t * ) pStr;	
 5637              		.loc 1 1499 4 is_stmt 1 view .LVU1908
 5638              		.loc 1 1499 9 is_stmt 0 view .LVU1909
 5639 0074 36F8022B 		ldrh	r2, [r6], #2
 5640              	.LVL496:
1500:Core/Src/lcd.c **** 			
1501:Core/Src/lcd.c **** 			usCh = ( usCh << 8 ) + ( usCh >> 8 );		
 5641              		.loc 1 1501 4 is_stmt 1 view .LVU1910
 5642              		.loc 1 1501 9 is_stmt 0 view .LVU1911
 5643 0078 52BA     		rev16	r2, r2
 5644              	.LVL497:
1502:Core/Src/lcd.c **** 
1503:Core/Src/lcd.c **** 			ILI9341_DispChar_CH ( usX, usY, usCh );
 5645              		.loc 1 1503 4 is_stmt 1 view .LVU1912
 5646 007a 92B2     		uxth	r2, r2
 5647              		.loc 1 1503 4 is_stmt 0 view .LVU1913
 5648 007c 2946     		mov	r1, r5
 5649 007e 2046     		mov	r0, r4
 5650 0080 FFF7FEFF 		bl	ILI9341_DispChar_CH
 5651              	.LVL498:
1504:Core/Src/lcd.c **** 			
1505:Core/Src/lcd.c **** 			usX += WIDTH_CH_CHAR;
 5652              		.loc 1 1505 4 is_stmt 1 view .LVU1914
 5653              		.loc 1 1505 8 is_stmt 0 view .LVU1915
 5654 0084 1034     		adds	r4, r4, #16
 5655              	.LVL499:
 5656              		.loc 1 1505 8 view .LVU1916
 5657 0086 A4B2     		uxth	r4, r4
 5658              	.LVL500:
1506:Core/Src/lcd.c **** 			
1507:Core/Src/lcd.c **** 			pStr += 2;           //Ň»¸öşş×ÖÁ˝¸ö×Ö˝Ú 
 5659              		.loc 1 1507 4 is_stmt 1 view .LVU1917
 5660              		.loc 1 1507 4 is_stmt 0 view .LVU1918
 5661 0088 C9E7     		b	.L198
 5662              	.L209:
1508:Core/Src/lcd.c **** 		
1509:Core/Src/lcd.c ****     }
1510:Core/Src/lcd.c **** 		
1511:Core/Src/lcd.c ****   }	
1512:Core/Src/lcd.c **** } 
 5663              		.loc 1 1512 1 view .LVU1919
 5664 008a 70BD     		pop	{r4, r5, r6, pc}
 5665              	.LVL501:
 5666              	.L211:
 5667              		.loc 1 1512 1 view .LVU1920
 5668              		.align	2
 5669              	.L210:
ARM GAS  C:\Users\84759\AppData\Local\Temp\cc1QWPm5.s 			page 154


 5670 008c 00000000 		.word	.LANCHOR8
 5671 0090 00000000 		.word	.LANCHOR4
 5672 0094 00000000 		.word	.LANCHOR5
 5673              		.cfi_endproc
 5674              	.LFE94:
 5676              		.section	.text.ILI9341_DispString_EN_CH_YDir,"ax",%progbits
 5677              		.align	1
 5678              		.global	ILI9341_DispString_EN_CH_YDir
 5679              		.syntax unified
 5680              		.thumb
 5681              		.thumb_func
 5683              	ILI9341_DispString_EN_CH_YDir:
 5684              	.LVL502:
 5685              	.LFB95:
1513:Core/Src/lcd.c **** 
1514:Core/Src/lcd.c **** /**
1515:Core/Src/lcd.c ****  * @brief  ÔÚ ILI9341 ĎÔĘľĆ÷ÉĎĎÔĘľÖĐÓ˘ÎÄ×Ö·ű´®(ŃŘYÖá·˝Ďň)
1516:Core/Src/lcd.c ****  * @param  usX ŁşÔÚĚŘ¶¨É¨Ăč·˝ĎňĎÂ×Ö·űµÄĆđĘĽX×ř±ę
1517:Core/Src/lcd.c ****  * @param  usY ŁşÔÚĚŘ¶¨É¨Ăč·˝ĎňĎÂ×Ö·űµÄĆđĘĽY×ř±ę
1518:Core/Src/lcd.c ****  * @param  pStr ŁşŇŞĎÔĘľµÄÖĐÓ˘ÎÄ×Ö·ű´®µÄĘ×µŘÖ·
1519:Core/Src/lcd.c ****  * @note żÉĘąÓĂLCD_SetBackColorˇ˘LCD_SetTextColorˇ˘LCD_SetColorsşŻĘýÉčÖĂŃŐÉ«
1520:Core/Src/lcd.c ****  * @retval ÎŢ
1521:Core/Src/lcd.c ****  */
1522:Core/Src/lcd.c **** void ILI9341_DispString_EN_CH_YDir (  uint16_t usX,uint16_t usY , char * pStr )
1523:Core/Src/lcd.c **** {
 5686              		.loc 1 1523 1 is_stmt 1 view -0
 5687              		.cfi_startproc
 5688              		@ args = 0, pretend = 0, frame = 0
 5689              		@ frame_needed = 0, uses_anonymous_args = 0
 5690              		.loc 1 1523 1 is_stmt 0 view .LVU1922
 5691 0000 70B5     		push	{r4, r5, r6, lr}
 5692              	.LCFI35:
 5693              		.cfi_def_cfa_offset 16
 5694              		.cfi_offset 4, -16
 5695              		.cfi_offset 5, -12
 5696              		.cfi_offset 6, -8
 5697              		.cfi_offset 14, -4
 5698 0002 0546     		mov	r5, r0
 5699 0004 0C46     		mov	r4, r1
 5700 0006 1646     		mov	r6, r2
1524:Core/Src/lcd.c **** 	uint16_t usCh;
 5701              		.loc 1 1524 2 is_stmt 1 view .LVU1923
1525:Core/Src/lcd.c **** 	
1526:Core/Src/lcd.c **** 	while( * pStr != '\0' )
 5702              		.loc 1 1526 2 view .LVU1924
 5703              		.loc 1 1526 7 is_stmt 0 view .LVU1925
 5704 0008 09E0     		b	.L213
 5705              	.LVL503:
 5706              	.L216:
1527:Core/Src/lcd.c **** 	{			
1528:Core/Src/lcd.c **** 			//ÍłŇ»ĘąÓĂşş×ÖµÄżí¸ßŔ´ĽĆËă»»ĐĐ
1529:Core/Src/lcd.c **** 			if ( ( usY - ILI9341_DispWindow_Y_Star + HEIGHT_CH_CHAR ) >LCD_Y_LENGTH  )
1530:Core/Src/lcd.c **** 			{
1531:Core/Src/lcd.c **** 				usY = ILI9341_DispWindow_Y_Star;
1532:Core/Src/lcd.c **** 				usX += WIDTH_CH_CHAR;
1533:Core/Src/lcd.c **** 			}			
1534:Core/Src/lcd.c **** 			if ( ( usX - ILI9341_DispWindow_X_Star + WIDTH_CH_CHAR ) >  LCD_X_LENGTH)
ARM GAS  C:\Users\84759\AppData\Local\Temp\cc1QWPm5.s 			page 155


1535:Core/Src/lcd.c **** 			{
1536:Core/Src/lcd.c **** 				usX = ILI9341_DispWindow_X_Star;
1537:Core/Src/lcd.c **** 				usY = ILI9341_DispWindow_Y_Star;
1538:Core/Src/lcd.c **** 			}
1539:Core/Src/lcd.c **** 			
1540:Core/Src/lcd.c **** 		//ĎÔĘľ	
1541:Core/Src/lcd.c **** 		if ( * pStr <= 126 )	           	//Ó˘ÎÄ×Ö·ű
1542:Core/Src/lcd.c **** 		{			
1543:Core/Src/lcd.c **** 			ILI9341_DispChar_EN ( usX, usY, * pStr);
1544:Core/Src/lcd.c **** 			
1545:Core/Src/lcd.c **** 			pStr ++;
1546:Core/Src/lcd.c **** 			
1547:Core/Src/lcd.c **** 			usY += HEIGHT_CH_CHAR;		
1548:Core/Src/lcd.c **** 		}
1549:Core/Src/lcd.c **** 		else	                            //şş×Ö×Ö·ű
1550:Core/Src/lcd.c **** 		{			
1551:Core/Src/lcd.c **** 			usCh = * ( uint16_t * ) pStr;	
 5707              		.loc 1 1551 4 is_stmt 1 view .LVU1926
 5708              		.loc 1 1551 9 is_stmt 0 view .LVU1927
 5709 000a 36F8022B 		ldrh	r2, [r6], #2
 5710              	.LVL504:
1552:Core/Src/lcd.c **** 			
1553:Core/Src/lcd.c **** 			usCh = ( usCh << 8 ) + ( usCh >> 8 );		
 5711              		.loc 1 1553 4 is_stmt 1 view .LVU1928
 5712              		.loc 1 1553 9 is_stmt 0 view .LVU1929
 5713 000e 52BA     		rev16	r2, r2
 5714              	.LVL505:
1554:Core/Src/lcd.c **** 
1555:Core/Src/lcd.c **** 			ILI9341_DispChar_CH ( usX,usY , usCh );
 5715              		.loc 1 1555 4 is_stmt 1 view .LVU1930
 5716 0010 92B2     		uxth	r2, r2
 5717              		.loc 1 1555 4 is_stmt 0 view .LVU1931
 5718 0012 2146     		mov	r1, r4
 5719 0014 2846     		mov	r0, r5
 5720 0016 FFF7FEFF 		bl	ILI9341_DispChar_CH
 5721              	.LVL506:
1556:Core/Src/lcd.c **** 			
1557:Core/Src/lcd.c **** 			usY += HEIGHT_CH_CHAR;
 5722              		.loc 1 1557 4 is_stmt 1 view .LVU1932
 5723              		.loc 1 1557 8 is_stmt 0 view .LVU1933
 5724 001a 1034     		adds	r4, r4, #16
 5725              	.LVL507:
 5726              		.loc 1 1557 8 view .LVU1934
 5727 001c A4B2     		uxth	r4, r4
 5728              	.LVL508:
1558:Core/Src/lcd.c **** 			
1559:Core/Src/lcd.c **** 			pStr += 2;           //Ň»¸öşş×ÖÁ˝¸ö×Ö˝Ú 
 5729              		.loc 1 1559 4 is_stmt 1 view .LVU1935
 5730              	.L213:
1526:Core/Src/lcd.c **** 	{			
 5731              		.loc 1 1526 7 view .LVU1936
1526:Core/Src/lcd.c **** 	{			
 5732              		.loc 1 1526 9 is_stmt 0 view .LVU1937
 5733 001e 3278     		ldrb	r2, [r6]	@ zero_extendqisi2
1526:Core/Src/lcd.c **** 	{			
 5734              		.loc 1 1526 7 view .LVU1938
 5735 0020 D2B1     		cbz	r2, .L221
ARM GAS  C:\Users\84759\AppData\Local\Temp\cc1QWPm5.s 			page 156


1529:Core/Src/lcd.c **** 			{
 5736              		.loc 1 1529 4 is_stmt 1 view .LVU1939
1529:Core/Src/lcd.c **** 			{
 5737              		.loc 1 1529 62 is_stmt 0 view .LVU1940
 5738 0022 04F10F03 		add	r3, r4, #15
 5739 0026 0D49     		ldr	r1, .L222
 5740 0028 0988     		ldrh	r1, [r1]
1529:Core/Src/lcd.c **** 			{
 5741              		.loc 1 1529 7 view .LVU1941
 5742 002a 8B42     		cmp	r3, r1
 5743 002c 02DB     		blt	.L214
1531:Core/Src/lcd.c **** 				usX += WIDTH_CH_CHAR;
 5744              		.loc 1 1531 5 is_stmt 1 view .LVU1942
 5745              	.LVL509:
1532:Core/Src/lcd.c **** 			}			
 5746              		.loc 1 1532 5 view .LVU1943
1532:Core/Src/lcd.c **** 			}			
 5747              		.loc 1 1532 9 is_stmt 0 view .LVU1944
 5748 002e 1035     		adds	r5, r5, #16
 5749              	.LVL510:
1532:Core/Src/lcd.c **** 			}			
 5750              		.loc 1 1532 9 view .LVU1945
 5751 0030 ADB2     		uxth	r5, r5
 5752              	.LVL511:
1531:Core/Src/lcd.c **** 				usX += WIDTH_CH_CHAR;
 5753              		.loc 1 1531 9 view .LVU1946
 5754 0032 0024     		movs	r4, #0
 5755              	.LVL512:
 5756              	.L214:
1534:Core/Src/lcd.c **** 			{
 5757              		.loc 1 1534 4 is_stmt 1 view .LVU1947
1534:Core/Src/lcd.c **** 			{
 5758              		.loc 1 1534 61 is_stmt 0 view .LVU1948
 5759 0034 05F10F03 		add	r3, r5, #15
 5760 0038 0949     		ldr	r1, .L222+4
 5761 003a 0988     		ldrh	r1, [r1]
1534:Core/Src/lcd.c **** 			{
 5762              		.loc 1 1534 7 view .LVU1949
 5763 003c 8B42     		cmp	r3, r1
 5764 003e 01DB     		blt	.L215
1537:Core/Src/lcd.c **** 			}
 5765              		.loc 1 1537 9 view .LVU1950
 5766 0040 0024     		movs	r4, #0
 5767              	.LVL513:
1536:Core/Src/lcd.c **** 				usY = ILI9341_DispWindow_Y_Star;
 5768              		.loc 1 1536 9 view .LVU1951
 5769 0042 2546     		mov	r5, r4
 5770              	.LVL514:
 5771              	.L215:
1541:Core/Src/lcd.c **** 		{			
 5772              		.loc 1 1541 3 is_stmt 1 view .LVU1952
1541:Core/Src/lcd.c **** 		{			
 5773              		.loc 1 1541 6 is_stmt 0 view .LVU1953
 5774 0044 7E2A     		cmp	r2, #126
 5775 0046 E0D8     		bhi	.L216
1543:Core/Src/lcd.c **** 			
 5776              		.loc 1 1543 4 is_stmt 1 view .LVU1954
ARM GAS  C:\Users\84759\AppData\Local\Temp\cc1QWPm5.s 			page 157


 5777 0048 2146     		mov	r1, r4
 5778 004a 2846     		mov	r0, r5
 5779 004c FFF7FEFF 		bl	ILI9341_DispChar_EN
 5780              	.LVL515:
1545:Core/Src/lcd.c **** 			
 5781              		.loc 1 1545 4 view .LVU1955
1545:Core/Src/lcd.c **** 			
 5782              		.loc 1 1545 9 is_stmt 0 view .LVU1956
 5783 0050 0136     		adds	r6, r6, #1
 5784              	.LVL516:
1547:Core/Src/lcd.c **** 		}
 5785              		.loc 1 1547 4 is_stmt 1 view .LVU1957
1547:Core/Src/lcd.c **** 		}
 5786              		.loc 1 1547 8 is_stmt 0 view .LVU1958
 5787 0052 1034     		adds	r4, r4, #16
 5788              	.LVL517:
1547:Core/Src/lcd.c **** 		}
 5789              		.loc 1 1547 8 view .LVU1959
 5790 0054 A4B2     		uxth	r4, r4
 5791              	.LVL518:
1547:Core/Src/lcd.c **** 		}
 5792              		.loc 1 1547 8 view .LVU1960
 5793 0056 E2E7     		b	.L213
 5794              	.L221:
1560:Core/Src/lcd.c **** 		
1561:Core/Src/lcd.c ****     }
1562:Core/Src/lcd.c **** 		
1563:Core/Src/lcd.c ****   }	
1564:Core/Src/lcd.c **** } 
 5795              		.loc 1 1564 1 view .LVU1961
 5796 0058 70BD     		pop	{r4, r5, r6, pc}
 5797              	.LVL519:
 5798              	.L223:
 5799              		.loc 1 1564 1 view .LVU1962
 5800 005a 00BF     		.align	2
 5801              	.L222:
 5802 005c 00000000 		.word	.LANCHOR5
 5803 0060 00000000 		.word	.LANCHOR4
 5804              		.cfi_endproc
 5805              	.LFE95:
 5807              		.section	.text.ILI9341_zoomChar,"ax",%progbits
 5808              		.align	1
 5809              		.global	ILI9341_zoomChar
 5810              		.syntax unified
 5811              		.thumb
 5812              		.thumb_func
 5814              	ILI9341_zoomChar:
 5815              	.LVL520:
 5816              	.LFB96:
1565:Core/Src/lcd.c **** 
1566:Core/Src/lcd.c **** /***********************Ëő·Ĺ×ÖĚĺ****************************/
1567:Core/Src/lcd.c **** #define ZOOMMAXBUFF 16384
1568:Core/Src/lcd.c **** uint8_t zoomBuff[ZOOMMAXBUFF] = {0};	//ÓĂÓÚËő·ĹµÄ»ş´ćŁ¬×î´óÖ§łÖµ˝128*128
1569:Core/Src/lcd.c **** uint8_t zoomTempBuff[1024] = {0};
1570:Core/Src/lcd.c **** 
1571:Core/Src/lcd.c **** /**
1572:Core/Src/lcd.c ****  * @brief  Ëő·Ĺ×ÖÄŁŁ¬Ëő·ĹşóµÄ×ÖÄŁÓÉ1¸öĎńËŘµăÓÉ8¸öĘýľÝÎ»Ŕ´±íĘľ
ARM GAS  C:\Users\84759\AppData\Local\Temp\cc1QWPm5.s 			page 158


1573:Core/Src/lcd.c **** 										0x01±íĘľ±ĘĽŁŁ¬0x00±íĘľżŐ°×Çř
1574:Core/Src/lcd.c ****  * @param  in_width ŁşÔ­ĘĽ×Ö·űżí¶Č
1575:Core/Src/lcd.c ****  * @param  in_heig ŁşÔ­ĘĽ×Ö·ű¸ß¶Č
1576:Core/Src/lcd.c ****  * @param  out_width ŁşËő·ĹşóµÄ×Ö·űżí¶Č
1577:Core/Src/lcd.c ****  * @param  out_heigŁşËő·ĹşóµÄ×Ö·ű¸ß¶Č
1578:Core/Src/lcd.c ****  * @param  in_ptr Łş×ÖżâĘäČëÖ¸Őë	×˘ŇâŁş1pixel 1bit
1579:Core/Src/lcd.c ****  * @param  out_ptr ŁşËő·ĹşóµÄ×Ö·űĘäłöÖ¸Őë ×˘Ňâ: 1pixel 8bit
1580:Core/Src/lcd.c ****  *		out_ptrĘµĽĘÉĎĂ»ÓĐŐýłŁĘäłöŁ¬¸ÄłÉÁËÖ±˝ÓĘäłöµ˝Č«ľÖÖ¸ŐëzoomBuffÖĐ
1581:Core/Src/lcd.c ****  * @param  en_cn Łş0ÎŞÓ˘ÎÄŁ¬1ÎŞÖĐÎÄ
1582:Core/Src/lcd.c ****  * @retval ÎŢ
1583:Core/Src/lcd.c ****  */
1584:Core/Src/lcd.c **** void ILI9341_zoomChar(uint16_t in_width,	//Ô­ĘĽ×Ö·űżí¶Č
1585:Core/Src/lcd.c **** 									uint16_t in_heig,		//Ô­ĘĽ×Ö·ű¸ß¶Č
1586:Core/Src/lcd.c **** 									uint16_t out_width,	//Ëő·ĹşóµÄ×Ö·űżí¶Č
1587:Core/Src/lcd.c **** 									uint16_t out_heig,	//Ëő·ĹşóµÄ×Ö·ű¸ß¶Č
1588:Core/Src/lcd.c **** 									uint8_t *in_ptr,	//×ÖżâĘäČëÖ¸Őë	×˘ŇâŁş1pixel 1bit
1589:Core/Src/lcd.c **** 									uint8_t *out_ptr, //Ëő·ĹşóµÄ×Ö·űĘäłöÖ¸Őë ×˘Ňâ: 1pixel 8bit
1590:Core/Src/lcd.c **** 									uint8_t en_cn)		//0ÎŞÓ˘ÎÄŁ¬1ÎŞÖĐÎÄ	
1591:Core/Src/lcd.c **** {
 5817              		.loc 1 1591 1 is_stmt 1 view -0
 5818              		.cfi_startproc
 5819              		@ args = 12, pretend = 0, frame = 0
 5820              		@ frame_needed = 0, uses_anonymous_args = 0
 5821              		.loc 1 1591 1 is_stmt 0 view .LVU1964
 5822 0000 2DE9F04F 		push	{r4, r5, r6, r7, r8, r9, r10, fp, lr}
 5823              	.LCFI36:
 5824              		.cfi_def_cfa_offset 36
 5825              		.cfi_offset 4, -36
 5826              		.cfi_offset 5, -32
 5827              		.cfi_offset 6, -28
 5828              		.cfi_offset 7, -24
 5829              		.cfi_offset 8, -20
 5830              		.cfi_offset 9, -16
 5831              		.cfi_offset 10, -12
 5832              		.cfi_offset 11, -8
 5833              		.cfi_offset 14, -4
 5834 0004 099F     		ldr	r7, [sp, #36]
 5835 0006 9DF82C40 		ldrb	r4, [sp, #44]	@ zero_extendqisi2
1592:Core/Src/lcd.c **** 	uint8_t *pts,*ots;
 5836              		.loc 1 1592 2 is_stmt 1 view .LVU1965
1593:Core/Src/lcd.c **** 	//¸ůľÝÔ´×ÖÄŁĽ°Äż±ę×ÖÄŁ´óĐˇŁ¬Éč¶¨ÔËËă±ČŔýŇň×ÓŁ¬×óŇĆ16ĘÇÎŞÁË°Ń¸ˇµăÔËËă×ŞłÉ¶¨µăÔËËă
1594:Core/Src/lcd.c **** 	unsigned int xrIntFloat_16=(in_width<<16)/out_width+1; 
 5837              		.loc 1 1594 2 view .LVU1966
 5838              		.loc 1 1594 38 is_stmt 0 view .LVU1967
 5839 000a 0504     		lsls	r5, r0, #16
 5840              		.loc 1 1594 43 view .LVU1968
 5841 000c 95FBF2F5 		sdiv	r5, r5, r2
 5842              	.LVL521:
1595:Core/Src/lcd.c ****   unsigned int yrIntFloat_16=(in_heig<<16)/out_heig+1;
 5843              		.loc 1 1595 3 is_stmt 1 view .LVU1969
 5844              		.loc 1 1595 38 is_stmt 0 view .LVU1970
 5845 0010 4FEA0148 		lsl	r8, r1, #16
 5846              		.loc 1 1595 43 view .LVU1971
 5847 0014 98FBF3F8 		sdiv	r8, r8, r3
 5848              	.LVL522:
1596:Core/Src/lcd.c **** 	
1597:Core/Src/lcd.c **** 	unsigned int srcy_16=0;
ARM GAS  C:\Users\84759\AppData\Local\Temp\cc1QWPm5.s 			page 159


 5849              		.loc 1 1597 2 is_stmt 1 view .LVU1972
1598:Core/Src/lcd.c **** 	unsigned int y,x;
 5850              		.loc 1 1598 2 view .LVU1973
1599:Core/Src/lcd.c **** 	uint8_t *pSrcLine;
 5851              		.loc 1 1599 2 view .LVU1974
1600:Core/Src/lcd.c **** 	
1601:Core/Src/lcd.c **** 	uint16_t byteCount,bitCount;
 5852              		.loc 1 1601 2 view .LVU1975
1602:Core/Src/lcd.c **** 	
1603:Core/Src/lcd.c **** 	//Ľě˛é˛ÎĘýĘÇ·ńşĎ·¨
1604:Core/Src/lcd.c **** 	if(in_width >= 32) return;												//×Öżâ˛»ÔĘĐíł¬ąý32ĎńËŘ
 5853              		.loc 1 1604 2 view .LVU1976
 5854              		.loc 1 1604 4 is_stmt 0 view .LVU1977
 5855 0018 1F28     		cmp	r0, #31
 5856 001a 79D8     		bhi	.L224
 5857 001c 0135     		adds	r5, r5, #1
 5858              	.LVL523:
 5859              		.loc 1 1604 4 view .LVU1978
 5860 001e 08F10108 		add	r8, r8, #1
 5861              	.LVL524:
1605:Core/Src/lcd.c **** 	if(in_width * in_heig == 0) return;	
 5862              		.loc 1 1605 2 is_stmt 1 view .LVU1979
 5863              		.loc 1 1605 14 is_stmt 0 view .LVU1980
 5864 0022 01FB00FC 		mul	ip, r1, r0
 5865              		.loc 1 1605 4 view .LVU1981
 5866 0026 BCF1000F 		cmp	ip, #0
 5867 002a 71D0     		beq	.L224
1606:Core/Src/lcd.c **** 	if(in_width * in_heig >= 1024 ) return; 					//ĎŢÖĆĘäČë×î´ó 32*32
 5868              		.loc 1 1606 2 is_stmt 1 view .LVU1982
 5869              		.loc 1 1606 4 is_stmt 0 view .LVU1983
 5870 002c BCF5806F 		cmp	ip, #1024
 5871 0030 6EDA     		bge	.L224
1607:Core/Src/lcd.c **** 	
1608:Core/Src/lcd.c **** 	if(out_width * out_heig == 0) return;	
 5872              		.loc 1 1608 2 is_stmt 1 view .LVU1984
 5873              		.loc 1 1608 15 is_stmt 0 view .LVU1985
 5874 0032 03FB02F1 		mul	r1, r3, r2
 5875              	.LVL525:
 5876              		.loc 1 1608 4 view .LVU1986
 5877 0036 0029     		cmp	r1, #0
 5878 0038 6AD0     		beq	.L224
1609:Core/Src/lcd.c **** 	if(out_width * out_heig >= ZOOMMAXBUFF ) return; //ĎŢÖĆ×î´óËő·Ĺ 128*128
 5879              		.loc 1 1609 2 is_stmt 1 view .LVU1987
 5880              		.loc 1 1609 4 is_stmt 0 view .LVU1988
 5881 003a B1F5804F 		cmp	r1, #16384
 5882 003e 67DA     		bge	.L224
1610:Core/Src/lcd.c **** 	pts = (uint8_t*)&zoomTempBuff;
 5883              		.loc 1 1610 2 is_stmt 1 view .LVU1989
 5884              	.LVL526:
1611:Core/Src/lcd.c **** 	
1612:Core/Src/lcd.c **** 	//ÎŞ·˝±ăÔËËăŁ¬×ÖżâµÄĘýľÝÓÉ1 pixel/1bit ÓłÉäµ˝1pixel/8bit
1613:Core/Src/lcd.c **** 	//0x01±íĘľ±ĘĽŁŁ¬0x00±íĘľżŐ°×Çř
1614:Core/Src/lcd.c **** 	if(en_cn == 0x00)//Ó˘ÎÄ
 5885              		.loc 1 1614 2 view .LVU1990
 5886              		.loc 1 1614 4 is_stmt 0 view .LVU1991
 5887 0040 04B3     		cbz	r4, .L239
1615:Core/Src/lcd.c **** 	{
ARM GAS  C:\Users\84759\AppData\Local\Temp\cc1QWPm5.s 			page 160


1616:Core/Src/lcd.c **** 		//Ó˘ÎÄşÍÖĐÎÄ×ÖżâÉĎĎÂ±ß˝ç˛»¶ÔŁ¬żÉÔÚ´Ë´¦µ÷ŐűˇŁĐčŇŞ×˘ŇâtempBuff·ŔÖąŇçłö
1617:Core/Src/lcd.c **** 			for(byteCount=0;byteCount<in_heig*in_width/8;byteCount++)	
1618:Core/Src/lcd.c **** 			{
1619:Core/Src/lcd.c **** 				for(bitCount=0;bitCount<8;bitCount++)
1620:Core/Src/lcd.c **** 					{						
1621:Core/Src/lcd.c **** 						//°ŃÔ´×ÖÄŁĘýľÝÓÉÎ»ÓłÉäµ˝×Ö˝Ú
1622:Core/Src/lcd.c **** 						//in_ptrŔďbitXÎŞ1Ł¬ÔňptsŔďŐű¸ö×Ö˝ÚÖµÎŞ1
1623:Core/Src/lcd.c **** 						//in_ptrŔďbitXÎŞ0Ł¬ÔňptsŔďŐű¸ö×Ö˝ÚÖµÎŞ0
1624:Core/Src/lcd.c **** 						*pts++ = (in_ptr[byteCount] & (0x80>>bitCount))?1:0; 
1625:Core/Src/lcd.c **** 					}
1626:Core/Src/lcd.c **** 			}				
1627:Core/Src/lcd.c **** 	}
1628:Core/Src/lcd.c **** 	else //ÖĐÎÄ
1629:Core/Src/lcd.c **** 	{			
1630:Core/Src/lcd.c **** 			for(byteCount=0;byteCount<in_heig*in_width/8;byteCount++)	
 5888              		.loc 1 1630 17 view .LVU1992
 5889 0042 4FF0000E 		mov	lr, #0
1610:Core/Src/lcd.c **** 	
 5890              		.loc 1 1610 6 view .LVU1993
 5891 0046 334C     		ldr	r4, .L247
 5892 0048 27E0     		b	.L227
 5893              	.LVL527:
 5894              	.L244:
1617:Core/Src/lcd.c **** 			{
 5895              		.loc 1 1617 49 is_stmt 1 discriminator 2 view .LVU1994
1617:Core/Src/lcd.c **** 			{
 5896              		.loc 1 1617 58 is_stmt 0 discriminator 2 view .LVU1995
 5897 004a 0EF1010E 		add	lr, lr, #1
 5898              	.LVL528:
1617:Core/Src/lcd.c **** 			{
 5899              		.loc 1 1617 58 discriminator 2 view .LVU1996
 5900 004e 1FFA8EFE 		uxth	lr, lr
 5901              	.LVL529:
 5902              	.L226:
1617:Core/Src/lcd.c **** 			{
 5903              		.loc 1 1617 20 is_stmt 1 discriminator 1 view .LVU1997
1617:Core/Src/lcd.c **** 			{
 5904              		.loc 1 1617 29 is_stmt 0 discriminator 1 view .LVU1998
 5905 0052 7646     		mov	r6, lr
1617:Core/Src/lcd.c **** 			{
 5906              		.loc 1 1617 46 discriminator 1 view .LVU1999
 5907 0054 6146     		mov	r1, ip
 5908 0056 BCF1000F 		cmp	ip, #0
 5909 005a 17DB     		blt	.L243
 5910              	.L229:
1617:Core/Src/lcd.c **** 			{
 5911              		.loc 1 1617 4 discriminator 1 view .LVU2000
 5912 005c B6EBE10F 		cmp	r6, r1, asr #3
 5913 0060 51DA     		bge	.L231
1619:Core/Src/lcd.c **** 					{						
 5914              		.loc 1 1619 17 view .LVU2001
 5915 0062 0021     		movs	r1, #0
 5916              	.L230:
 5917              	.LVL530:
1619:Core/Src/lcd.c **** 					{						
 5918              		.loc 1 1619 20 is_stmt 1 discriminator 1 view .LVU2002
1619:Core/Src/lcd.c **** 					{						
ARM GAS  C:\Users\84759\AppData\Local\Temp\cc1QWPm5.s 			page 161


 5919              		.loc 1 1619 5 is_stmt 0 discriminator 1 view .LVU2003
 5920 0064 0729     		cmp	r1, #7
 5921 0066 F0D8     		bhi	.L244
1624:Core/Src/lcd.c **** 					}
 5922              		.loc 1 1624 7 is_stmt 1 discriminator 3 view .LVU2004
1624:Core/Src/lcd.c **** 					}
 5923              		.loc 1 1624 23 is_stmt 0 discriminator 3 view .LVU2005
 5924 0068 17F80E90 		ldrb	r9, [r7, lr]	@ zero_extendqisi2
1624:Core/Src/lcd.c **** 					}
 5925              		.loc 1 1624 42 discriminator 3 view .LVU2006
 5926 006c 8026     		movs	r6, #128
 5927 006e 0E41     		asrs	r6, r6, r1
 5928              	.LVL531:
1624:Core/Src/lcd.c **** 					}
 5929              		.loc 1 1624 56 discriminator 3 view .LVU2007
 5930 0070 19EA060F 		tst	r9, r6
 5931 0074 14BF     		ite	ne
 5932 0076 0126     		movne	r6, #1
 5933 0078 0026     		moveq	r6, #0
1624:Core/Src/lcd.c **** 					}
 5934              		.loc 1 1624 14 discriminator 3 view .LVU2008
 5935 007a 04F8016B 		strb	r6, [r4], #1
 5936              	.LVL532:
1619:Core/Src/lcd.c **** 					{						
 5937              		.loc 1 1619 31 is_stmt 1 discriminator 3 view .LVU2009
1619:Core/Src/lcd.c **** 					{						
 5938              		.loc 1 1619 39 is_stmt 0 discriminator 3 view .LVU2010
 5939 007e 0131     		adds	r1, r1, #1
 5940              	.LVL533:
1619:Core/Src/lcd.c **** 					{						
 5941              		.loc 1 1619 39 discriminator 3 view .LVU2011
 5942 0080 89B2     		uxth	r1, r1
 5943              	.LVL534:
1619:Core/Src/lcd.c **** 					{						
 5944              		.loc 1 1619 39 discriminator 3 view .LVU2012
 5945 0082 EFE7     		b	.L230
 5946              	.LVL535:
 5947              	.L239:
1617:Core/Src/lcd.c **** 			{
 5948              		.loc 1 1617 17 view .LVU2013
 5949 0084 4FF0000E 		mov	lr, #0
1610:Core/Src/lcd.c **** 	
 5950              		.loc 1 1610 6 view .LVU2014
 5951 0088 224C     		ldr	r4, .L247
 5952 008a E2E7     		b	.L226
 5953              	.LVL536:
 5954              	.L243:
1617:Core/Src/lcd.c **** 			{
 5955              		.loc 1 1617 46 discriminator 1 view .LVU2015
 5956 008c 0CF10701 		add	r1, ip, #7
 5957 0090 E4E7     		b	.L229
 5958              	.LVL537:
 5959              	.L246:
 5960              		.loc 1 1630 49 is_stmt 1 discriminator 2 view .LVU2016
 5961              		.loc 1 1630 58 is_stmt 0 discriminator 2 view .LVU2017
 5962 0092 0EF1010E 		add	lr, lr, #1
 5963              	.LVL538:
ARM GAS  C:\Users\84759\AppData\Local\Temp\cc1QWPm5.s 			page 162


 5964              		.loc 1 1630 58 discriminator 2 view .LVU2018
 5965 0096 1FFA8EFE 		uxth	lr, lr
 5966              	.LVL539:
 5967              	.L227:
 5968              		.loc 1 1630 20 is_stmt 1 discriminator 1 view .LVU2019
 5969              		.loc 1 1630 29 is_stmt 0 discriminator 1 view .LVU2020
 5970 009a 7646     		mov	r6, lr
 5971              		.loc 1 1630 46 discriminator 1 view .LVU2021
 5972 009c 6146     		mov	r1, ip
 5973 009e BCF1000F 		cmp	ip, #0
 5974 00a2 13DB     		blt	.L245
 5975              	.L233:
 5976              		.loc 1 1630 4 discriminator 1 view .LVU2022
 5977 00a4 B6EBE10F 		cmp	r6, r1, asr #3
 5978 00a8 2DDA     		bge	.L231
1631:Core/Src/lcd.c **** 			{
1632:Core/Src/lcd.c **** 				for(bitCount=0;bitCount<8;bitCount++)
 5979              		.loc 1 1632 17 view .LVU2023
 5980 00aa 0021     		movs	r1, #0
 5981              	.L234:
 5982              	.LVL540:
 5983              		.loc 1 1632 20 is_stmt 1 discriminator 1 view .LVU2024
 5984              		.loc 1 1632 5 is_stmt 0 discriminator 1 view .LVU2025
 5985 00ac 0729     		cmp	r1, #7
 5986 00ae F0D8     		bhi	.L246
1633:Core/Src/lcd.c **** 					{						
1634:Core/Src/lcd.c **** 						//°ŃÔ´×ÖÄŁĘýľÝÓÉÎ»ÓłÉäµ˝×Ö˝Ú
1635:Core/Src/lcd.c **** 						//in_ptrŔďbitXÎŞ1Ł¬ÔňptsŔďŐű¸ö×Ö˝ÚÖµÎŞ1
1636:Core/Src/lcd.c **** 						//in_ptrŔďbitXÎŞ0Ł¬ÔňptsŔďŐű¸ö×Ö˝ÚÖµÎŞ0
1637:Core/Src/lcd.c **** 						*pts++ = (in_ptr[byteCount] & (0x80>>bitCount))?1:0; 
 5987              		.loc 1 1637 7 is_stmt 1 discriminator 3 view .LVU2026
 5988              		.loc 1 1637 23 is_stmt 0 discriminator 3 view .LVU2027
 5989 00b0 17F80E90 		ldrb	r9, [r7, lr]	@ zero_extendqisi2
 5990              		.loc 1 1637 42 discriminator 3 view .LVU2028
 5991 00b4 8026     		movs	r6, #128
 5992 00b6 0E41     		asrs	r6, r6, r1
 5993              	.LVL541:
 5994              		.loc 1 1637 56 discriminator 3 view .LVU2029
 5995 00b8 19EA060F 		tst	r9, r6
 5996 00bc 14BF     		ite	ne
 5997 00be 0126     		movne	r6, #1
 5998 00c0 0026     		moveq	r6, #0
 5999              		.loc 1 1637 14 discriminator 3 view .LVU2030
 6000 00c2 04F8016B 		strb	r6, [r4], #1
 6001              	.LVL542:
1632:Core/Src/lcd.c **** 					{						
 6002              		.loc 1 1632 31 is_stmt 1 discriminator 3 view .LVU2031
1632:Core/Src/lcd.c **** 					{						
 6003              		.loc 1 1632 39 is_stmt 0 discriminator 3 view .LVU2032
 6004 00c6 0131     		adds	r1, r1, #1
 6005              	.LVL543:
1632:Core/Src/lcd.c **** 					{						
 6006              		.loc 1 1632 39 discriminator 3 view .LVU2033
 6007 00c8 89B2     		uxth	r1, r1
 6008              	.LVL544:
1632:Core/Src/lcd.c **** 					{						
 6009              		.loc 1 1632 39 discriminator 3 view .LVU2034
ARM GAS  C:\Users\84759\AppData\Local\Temp\cc1QWPm5.s 			page 163


 6010 00ca EFE7     		b	.L234
 6011              	.LVL545:
 6012              	.L245:
1630:Core/Src/lcd.c **** 			{
 6013              		.loc 1 1630 46 discriminator 1 view .LVU2035
 6014 00cc 0CF10701 		add	r1, ip, #7
 6015 00d0 E8E7     		b	.L233
 6016              	.LVL546:
 6017              	.L236:
 6018              	.LBB919:
1638:Core/Src/lcd.c **** 					}
1639:Core/Src/lcd.c **** 			}		
1640:Core/Src/lcd.c **** 	}
1641:Core/Src/lcd.c **** 
1642:Core/Src/lcd.c **** 	//zoomąýłĚ
1643:Core/Src/lcd.c **** 	pts = (uint8_t*)&zoomTempBuff;	//ÓłÉäşóµÄÔ´ĘýľÝÖ¸Őë
1644:Core/Src/lcd.c **** 	ots = (uint8_t*)&zoomBuff;	//ĘäłöĘýľÝµÄÖ¸Őë
1645:Core/Src/lcd.c **** 	for (y=0;y<out_heig;y++)	/*ĐĐ±éŔú*/
1646:Core/Src/lcd.c ****     {
1647:Core/Src/lcd.c **** 				unsigned int srcx_16=0;
1648:Core/Src/lcd.c ****         pSrcLine=pts+in_width*(srcy_16>>16);				
1649:Core/Src/lcd.c ****         for (x=0;x<out_width;x++) /*ĐĐÄÚĎńËŘ±éŔú*/
1650:Core/Src/lcd.c ****         {
1651:Core/Src/lcd.c ****             ots[x]=pSrcLine[srcx_16>>16]; //°ŃÔ´×ÖÄŁĘýľÝ¸´ÖĆµ˝Äż±ęÖ¸ŐëÖĐ
 6019              		.loc 1 1651 13 is_stmt 1 discriminator 3 view .LVU2036
 6020              		.loc 1 1651 36 is_stmt 0 discriminator 3 view .LVU2037
 6021 00d2 4FEA1E4B 		lsr	fp, lr, #16
 6022              		.loc 1 1651 28 discriminator 3 view .LVU2038
 6023 00d6 0F4C     		ldr	r4, .L247
 6024 00d8 04EB060C 		add	ip, r4, r6
 6025 00dc 1CF80B40 		ldrb	r4, [ip, fp]	@ zero_extendqisi2
 6026              		.loc 1 1651 19 discriminator 3 view .LVU2039
 6027 00e0 7C54     		strb	r4, [r7, r1]
1652:Core/Src/lcd.c ****             srcx_16+=xrIntFloat_16;			//°´±ČŔýĆ«ŇĆÔ´ĎńËŘµă
 6028              		.loc 1 1652 13 is_stmt 1 discriminator 3 view .LVU2040
 6029              		.loc 1 1652 20 is_stmt 0 discriminator 3 view .LVU2041
 6030 00e2 AE44     		add	lr, lr, r5
 6031              	.LVL547:
1649:Core/Src/lcd.c ****         {
 6032              		.loc 1 1649 30 is_stmt 1 discriminator 3 view .LVU2042
1649:Core/Src/lcd.c ****         {
 6033              		.loc 1 1649 31 is_stmt 0 discriminator 3 view .LVU2043
 6034 00e4 0131     		adds	r1, r1, #1
 6035              	.LVL548:
 6036              	.L235:
1649:Core/Src/lcd.c ****         {
 6037              		.loc 1 1649 18 is_stmt 1 discriminator 1 view .LVU2044
1649:Core/Src/lcd.c ****         {
 6038              		.loc 1 1649 9 is_stmt 0 discriminator 1 view .LVU2045
 6039 00e6 8A42     		cmp	r2, r1
 6040 00e8 F3D8     		bhi	.L236
1653:Core/Src/lcd.c ****         }
1654:Core/Src/lcd.c ****         srcy_16+=yrIntFloat_16;				  //°´±ČŔýĆ«ŇĆÔ´ĎńËŘµă
 6041              		.loc 1 1654 9 is_stmt 1 discriminator 2 view .LVU2046
 6042              		.loc 1 1654 16 is_stmt 0 discriminator 2 view .LVU2047
 6043 00ea C244     		add	r10, r10, r8
 6044              	.LVL549:
ARM GAS  C:\Users\84759\AppData\Local\Temp\cc1QWPm5.s 			page 164


1655:Core/Src/lcd.c ****         ots+=out_width;						
 6045              		.loc 1 1655 9 is_stmt 1 discriminator 2 view .LVU2048
 6046              		.loc 1 1655 12 is_stmt 0 discriminator 2 view .LVU2049
 6047 00ec 1744     		add	r7, r7, r2
 6048              	.LVL550:
 6049              		.loc 1 1655 12 discriminator 2 view .LVU2050
 6050              	.LBE919:
1645:Core/Src/lcd.c ****     {
 6051              		.loc 1 1645 22 is_stmt 1 discriminator 2 view .LVU2051
1645:Core/Src/lcd.c ****     {
 6052              		.loc 1 1645 23 is_stmt 0 discriminator 2 view .LVU2052
 6053 00ee 09F10109 		add	r9, r9, #1
 6054              	.LVL551:
 6055              	.L237:
1645:Core/Src/lcd.c ****     {
 6056              		.loc 1 1645 11 is_stmt 1 discriminator 1 view .LVU2053
1645:Core/Src/lcd.c ****     {
 6057              		.loc 1 1645 2 is_stmt 0 discriminator 1 view .LVU2054
 6058 00f2 4B45     		cmp	r3, r9
 6059 00f4 0CD9     		bls	.L224
 6060              	.LBB920:
1647:Core/Src/lcd.c ****         pSrcLine=pts+in_width*(srcy_16>>16);				
 6061              		.loc 1 1647 5 is_stmt 1 view .LVU2055
 6062              	.LVL552:
1648:Core/Src/lcd.c ****         for (x=0;x<out_width;x++) /*ĐĐÄÚĎńËŘ±éŔú*/
 6063              		.loc 1 1648 9 view .LVU2056
1648:Core/Src/lcd.c ****         for (x=0;x<out_width;x++) /*ĐĐÄÚĎńËŘ±éŔú*/
 6064              		.loc 1 1648 39 is_stmt 0 view .LVU2057
 6065 00f6 4FEA1A46 		lsr	r6, r10, #16
1648:Core/Src/lcd.c ****         for (x=0;x<out_width;x++) /*ĐĐÄÚĎńËŘ±éŔú*/
 6066              		.loc 1 1648 30 view .LVU2058
 6067 00fa 00FB06F6 		mul	r6, r0, r6
 6068              	.LVL553:
1649:Core/Src/lcd.c ****         {
 6069              		.loc 1 1649 9 is_stmt 1 view .LVU2059
1647:Core/Src/lcd.c ****         pSrcLine=pts+in_width*(srcy_16>>16);				
 6070              		.loc 1 1647 18 is_stmt 0 view .LVU2060
 6071 00fe 4FF0000E 		mov	lr, #0
1649:Core/Src/lcd.c ****         {
 6072              		.loc 1 1649 15 view .LVU2061
 6073 0102 7146     		mov	r1, lr
1649:Core/Src/lcd.c ****         {
 6074              		.loc 1 1649 9 view .LVU2062
 6075 0104 EFE7     		b	.L235
 6076              	.LVL554:
 6077              	.L231:
1649:Core/Src/lcd.c ****         {
 6078              		.loc 1 1649 15 discriminator 1 view .LVU2063
 6079 0106 4FF00009 		mov	r9, #0
 6080 010a CA46     		mov	r10, r9
 6081 010c 024F     		ldr	r7, .L247+4
 6082 010e F0E7     		b	.L237
 6083              	.LVL555:
 6084              	.L224:
1649:Core/Src/lcd.c ****         {
 6085              		.loc 1 1649 15 discriminator 1 view .LVU2064
 6086              	.LBE920:
ARM GAS  C:\Users\84759\AppData\Local\Temp\cc1QWPm5.s 			page 165


1656:Core/Src/lcd.c ****     }
1657:Core/Src/lcd.c **** 	/*ŁˇŁˇŁˇËő·ĹşóµÄ×ÖÄŁĘýľÝÖ±˝Ó´ć´˘µ˝Č«ľÖÖ¸ŐëzoomBuffŔďÁË*/
1658:Core/Src/lcd.c **** 	out_ptr = (uint8_t*)&zoomBuff;	//out_ptrĂ»ÓĐŐýČ·´«łöŁ¬şóĂćµ÷ÓĂÖ±˝Ó¸ÄłÉÁËČ«ľÖ±äÁżÖ¸ŐëŁˇ
1659:Core/Src/lcd.c **** 	
1660:Core/Src/lcd.c **** 	/*ĘµĽĘÖĐČçąűĘąÓĂout_ptr˛»ĐčŇŞĎÂĂćŐâŇ»ľäŁˇŁˇŁˇ
1661:Core/Src/lcd.c **** 		Ö»ĘÇŇňÎŞout_ptrĂ»ÓĐĘąÓĂŁ¬»áµĽÖÂwarningˇŁÇżĆČÖ˘*/
1662:Core/Src/lcd.c **** 	out_ptr++; 
1663:Core/Src/lcd.c **** }			
 6087              		.loc 1 1663 1 view .LVU2065
 6088 0110 BDE8F08F 		pop	{r4, r5, r6, r7, r8, r9, r10, fp, pc}
 6089              	.LVL556:
 6090              	.L248:
 6091              		.loc 1 1663 1 view .LVU2066
 6092              		.align	2
 6093              	.L247:
 6094 0114 00000000 		.word	.LANCHOR9
 6095 0118 00000000 		.word	zoomBuff
 6096              		.cfi_endproc
 6097              	.LFE96:
 6099              		.section	.text.ILI9341_DrawChar_Ex,"ax",%progbits
 6100              		.align	1
 6101              		.global	ILI9341_DrawChar_Ex
 6102              		.syntax unified
 6103              		.thumb
 6104              		.thumb_func
 6106              	ILI9341_DrawChar_Ex:
 6107              	.LVL557:
 6108              	.LFB97:
1664:Core/Src/lcd.c **** 
1665:Core/Src/lcd.c **** 
1666:Core/Src/lcd.c **** /**
1667:Core/Src/lcd.c ****  * @brief  ŔűÓĂËő·ĹşóµÄ×ÖÄŁĎÔĘľ×Ö·ű
1668:Core/Src/lcd.c ****  * @param  Xpos Łş×Ö·űĎÔĘľÎ»ÖĂx
1669:Core/Src/lcd.c ****  * @param  Ypos Łş×Ö·űĎÔĘľÎ»ÖĂy
1670:Core/Src/lcd.c ****  * @param  Font_width Łş×Ö·űżí¶Č
1671:Core/Src/lcd.c ****  * @param  Font_HeigŁş×Ö·ű¸ß¶Č
1672:Core/Src/lcd.c ****  * @param  c ŁşŇŞĎÔĘľµÄ×ÖÄŁĘýľÝ
1673:Core/Src/lcd.c ****  * @param  DrawModel ŁşĘÇ·ń·´É«ĎÔĘľ 
1674:Core/Src/lcd.c ****  * @retval ÎŢ
1675:Core/Src/lcd.c ****  */
1676:Core/Src/lcd.c **** void ILI9341_DrawChar_Ex(uint16_t usX, //×Ö·űĎÔĘľÎ»ÖĂx
1677:Core/Src/lcd.c **** 												uint16_t usY, //×Ö·űĎÔĘľÎ»ÖĂy
1678:Core/Src/lcd.c **** 												uint16_t Font_width, //×Ö·űżí¶Č
1679:Core/Src/lcd.c **** 												uint16_t Font_Height,  //×Ö·ű¸ß¶Č 
1680:Core/Src/lcd.c **** 												uint8_t *c,						//×ÖÄŁĘýľÝ
1681:Core/Src/lcd.c **** 												uint16_t DrawModel)		//ĘÇ·ń·´É«ĎÔĘľ
1682:Core/Src/lcd.c **** {
 6109              		.loc 1 1682 1 is_stmt 1 view -0
 6110              		.cfi_startproc
 6111              		@ args = 8, pretend = 0, frame = 0
 6112              		@ frame_needed = 0, uses_anonymous_args = 0
 6113              		.loc 1 1682 1 is_stmt 0 view .LVU2068
 6114 0000 F8B5     		push	{r3, r4, r5, r6, r7, lr}
 6115              	.LCFI37:
 6116              		.cfi_def_cfa_offset 24
 6117              		.cfi_offset 3, -24
 6118              		.cfi_offset 4, -20
ARM GAS  C:\Users\84759\AppData\Local\Temp\cc1QWPm5.s 			page 166


 6119              		.cfi_offset 5, -16
 6120              		.cfi_offset 6, -12
 6121              		.cfi_offset 7, -8
 6122              		.cfi_offset 14, -4
 6123 0002 1546     		mov	r5, r2
 6124 0004 1F46     		mov	r7, r3
 6125 0006 069C     		ldr	r4, [sp, #24]
 6126 0008 BDF81C60 		ldrh	r6, [sp, #28]
1683:Core/Src/lcd.c ****   uint32_t index = 0, counter = 0;
 6127              		.loc 1 1683 3 is_stmt 1 view .LVU2069
 6128              	.LVL558:
1684:Core/Src/lcd.c **** 
1685:Core/Src/lcd.c **** 	//ÉčÖĂĎÔĘľ´°żÚ
1686:Core/Src/lcd.c **** 	ILI9341_OpenWindow ( usX, usY, Font_width, Font_Height);
 6129              		.loc 1 1686 2 view .LVU2070
 6130 000c FFF7FEFF 		bl	ILI9341_OpenWindow
 6131              	.LVL559:
1687:Core/Src/lcd.c **** 	
1688:Core/Src/lcd.c **** 	ILI9341_Write_Cmd ( CMD_SetPixel );		
 6132              		.loc 1 1688 2 view .LVU2071
 6133              	.LBB921:
 6134              	.LBI921:
  59:Core/Src/lcd.c **** {
 6135              		.loc 1 59 7 view .LVU2072
 6136              	.LBB922:
  61:Core/Src/lcd.c **** 	
 6137              		.loc 1 61 2 view .LVU2073
  61:Core/Src/lcd.c **** 	
 6138              		.loc 1 61 50 is_stmt 0 view .LVU2074
 6139 0010 4FF0D843 		mov	r3, #1811939328
 6140 0014 2C22     		movs	r2, #44
 6141 0016 1A80     		strh	r2, [r3]	@ movhi
 6142              	.LVL560:
  61:Core/Src/lcd.c **** 	
 6143              		.loc 1 61 50 view .LVU2075
 6144              	.LBE922:
 6145              	.LBE921:
1689:Core/Src/lcd.c **** 	
1690:Core/Src/lcd.c **** 	//°´×Ö˝Ú¶ÁČˇ×ÖÄŁĘýľÝ
1691:Core/Src/lcd.c **** 	//ÓÉÓÚÇ°ĂćÖ±˝ÓÉčÖĂÁËĎÔĘľ´°żÚŁ¬ĎÔĘľĘýľÝ»á×Ô¶Ż»»ĐĐ
1692:Core/Src/lcd.c **** 	for ( index = 0; index < Font_Height; index++ )
 6146              		.loc 1 1692 2 is_stmt 1 view .LVU2076
 6147              		.loc 1 1692 14 is_stmt 0 view .LVU2077
 6148 0018 4FF0000C 		mov	ip, #0
 6149              		.loc 1 1692 2 view .LVU2078
 6150 001c 15E0     		b	.L250
 6151              	.LVL561:
 6152              	.L251:
1693:Core/Src/lcd.c **** 	{
1694:Core/Src/lcd.c **** 			//Ň»Î»Ň»Î»´¦ŔíŇŞĎÔĘľµÄŃŐÉ«
1695:Core/Src/lcd.c **** 			for ( counter = 0; counter < Font_width; counter++ )
1696:Core/Src/lcd.c **** 			{
1697:Core/Src/lcd.c **** 					//Ëő·ĹşóµÄ×ÖÄŁĘýľÝŁ¬ŇÔŇ»¸ö×Ö˝Ú±íĘľŇ»¸öĎńËŘÎ»
1698:Core/Src/lcd.c **** 					//Őű¸ö×Ö˝ÚÖµÎŞ1±íĘľ¸ĂĎńËŘÎŞ±ĘĽŁ
1699:Core/Src/lcd.c **** 					//Őű¸ö×Ö˝ÚÖµÎŞ0±íĘľ¸ĂĎńËŘÎŞ±łľ°
1700:Core/Src/lcd.c **** 					if ( *c++ == DrawModel )
1701:Core/Src/lcd.c **** 						ILI9341_Write_Data ( CurrentBackColor );			
ARM GAS  C:\Users\84759\AppData\Local\Temp\cc1QWPm5.s 			page 167


1702:Core/Src/lcd.c **** 					else
1703:Core/Src/lcd.c **** 						ILI9341_Write_Data ( CurrentTextColor );
 6153              		.loc 1 1703 7 is_stmt 1 view .LVU2079
 6154 001e 0D4B     		ldr	r3, .L259
 6155 0020 1B88     		ldrh	r3, [r3]
 6156              	.LVL562:
 6157              	.LBB923:
 6158              	.LBI923:
  71:Core/Src/lcd.c **** {
 6159              		.loc 1 71 7 view .LVU2080
 6160              	.LBB924:
  73:Core/Src/lcd.c **** 	
 6161              		.loc 1 73 2 view .LVU2081
  73:Core/Src/lcd.c **** 	
 6162              		.loc 1 73 51 is_stmt 0 view .LVU2082
 6163 0022 4FF0DA44 		mov	r4, #1828716544
 6164 0026 2380     		strh	r3, [r4]	@ movhi
 6165              	.LVL563:
 6166              	.L252:
  73:Core/Src/lcd.c **** 	
 6167              		.loc 1 73 51 view .LVU2083
 6168              	.LBE924:
 6169              	.LBE923:
1695:Core/Src/lcd.c **** 			{
 6170              		.loc 1 1695 45 is_stmt 1 discriminator 2 view .LVU2084
1695:Core/Src/lcd.c **** 			{
 6171              		.loc 1 1695 52 is_stmt 0 discriminator 2 view .LVU2085
 6172 0028 0130     		adds	r0, r0, #1
 6173              	.LVL564:
1700:Core/Src/lcd.c **** 						ILI9341_Write_Data ( CurrentBackColor );			
 6174              		.loc 1 1700 13 discriminator 2 view .LVU2086
 6175 002a 0C46     		mov	r4, r1
 6176              	.LVL565:
 6177              	.L254:
1695:Core/Src/lcd.c **** 			{
 6178              		.loc 1 1695 23 is_stmt 1 discriminator 1 view .LVU2087
1695:Core/Src/lcd.c **** 			{
 6179              		.loc 1 1695 4 is_stmt 0 discriminator 1 view .LVU2088
 6180 002c 8542     		cmp	r5, r0
 6181 002e 0AD9     		bls	.L257
1700:Core/Src/lcd.c **** 						ILI9341_Write_Data ( CurrentBackColor );			
 6182              		.loc 1 1700 6 is_stmt 1 view .LVU2089
1700:Core/Src/lcd.c **** 						ILI9341_Write_Data ( CurrentBackColor );			
 6183              		.loc 1 1700 13 is_stmt 0 view .LVU2090
 6184 0030 2146     		mov	r1, r4
 6185              	.LVL566:
1700:Core/Src/lcd.c **** 						ILI9341_Write_Data ( CurrentBackColor );			
 6186              		.loc 1 1700 11 view .LVU2091
 6187 0032 11F8014B 		ldrb	r4, [r1], #1	@ zero_extendqisi2
 6188              	.LVL567:
1700:Core/Src/lcd.c **** 						ILI9341_Write_Data ( CurrentBackColor );			
 6189              		.loc 1 1700 9 view .LVU2092
 6190 0036 B442     		cmp	r4, r6
 6191 0038 F1D1     		bne	.L251
1701:Core/Src/lcd.c **** 					else
 6192              		.loc 1 1701 7 is_stmt 1 view .LVU2093
 6193 003a 074B     		ldr	r3, .L259+4
ARM GAS  C:\Users\84759\AppData\Local\Temp\cc1QWPm5.s 			page 168


 6194 003c 1A88     		ldrh	r2, [r3]
 6195              	.LVL568:
 6196              	.LBB925:
 6197              	.LBI925:
  71:Core/Src/lcd.c **** {
 6198              		.loc 1 71 7 view .LVU2094
 6199              	.LBB926:
  73:Core/Src/lcd.c **** 	
 6200              		.loc 1 73 2 view .LVU2095
  73:Core/Src/lcd.c **** 	
 6201              		.loc 1 73 51 is_stmt 0 view .LVU2096
 6202 003e 4FF0DA43 		mov	r3, #1828716544
 6203 0042 1A80     		strh	r2, [r3]	@ movhi
  75:Core/Src/lcd.c **** 
 6204              		.loc 1 75 1 view .LVU2097
 6205 0044 F0E7     		b	.L252
 6206              	.LVL569:
 6207              	.L257:
  75:Core/Src/lcd.c **** 
 6208              		.loc 1 75 1 view .LVU2098
 6209              	.LBE926:
 6210              	.LBE925:
1692:Core/Src/lcd.c **** 	{
 6211              		.loc 1 1692 40 is_stmt 1 discriminator 2 view .LVU2099
1692:Core/Src/lcd.c **** 	{
 6212              		.loc 1 1692 45 is_stmt 0 discriminator 2 view .LVU2100
 6213 0046 0CF1010C 		add	ip, ip, #1
 6214              	.LVL570:
 6215              	.L250:
1692:Core/Src/lcd.c **** 	{
 6216              		.loc 1 1692 19 is_stmt 1 discriminator 1 view .LVU2101
1692:Core/Src/lcd.c **** 	{
 6217              		.loc 1 1692 2 is_stmt 0 discriminator 1 view .LVU2102
 6218 004a 6745     		cmp	r7, ip
 6219 004c 01D9     		bls	.L258
1695:Core/Src/lcd.c **** 			{
 6220              		.loc 1 1695 18 view .LVU2103
 6221 004e 0020     		movs	r0, #0
 6222 0050 ECE7     		b	.L254
 6223              	.L258:
1704:Core/Src/lcd.c **** 			}	
1705:Core/Src/lcd.c **** 	}	
1706:Core/Src/lcd.c **** }
 6224              		.loc 1 1706 1 view .LVU2104
 6225 0052 F8BD     		pop	{r3, r4, r5, r6, r7, pc}
 6226              	.LVL571:
 6227              	.L260:
 6228              		.loc 1 1706 1 view .LVU2105
 6229              		.align	2
 6230              	.L259:
 6231 0054 00000000 		.word	.LANCHOR7
 6232 0058 00000000 		.word	.LANCHOR6
 6233              		.cfi_endproc
 6234              	.LFE97:
 6236              		.section	.text.ILI9341_DisplayStringEx,"ax",%progbits
 6237              		.align	1
 6238              		.global	ILI9341_DisplayStringEx
ARM GAS  C:\Users\84759\AppData\Local\Temp\cc1QWPm5.s 			page 169


 6239              		.syntax unified
 6240              		.thumb
 6241              		.thumb_func
 6243              	ILI9341_DisplayStringEx:
 6244              	.LVL572:
 6245              	.LFB98:
1707:Core/Src/lcd.c **** 
1708:Core/Src/lcd.c **** 
1709:Core/Src/lcd.c **** /**
1710:Core/Src/lcd.c ****  * @brief  ŔűÓĂËő·ĹşóµÄ×ÖÄŁĎÔĘľ×Ö·ű´®
1711:Core/Src/lcd.c ****  * @param  Xpos Łş×Ö·űĎÔĘľÎ»ÖĂx
1712:Core/Src/lcd.c ****  * @param  Ypos Łş×Ö·űĎÔĘľÎ»ÖĂy
1713:Core/Src/lcd.c ****  * @param  Font_width Łş×Ö·űżí¶ČŁ¬Ó˘ÎÄ×Ö·űÔÚ´Ë»ů´ˇÉĎ/2ˇŁ×˘ŇâÎŞĹĽĘý
1714:Core/Src/lcd.c ****  * @param  Font_HeigŁş×Ö·ű¸ß¶ČŁ¬×˘ŇâÎŞĹĽĘý
1715:Core/Src/lcd.c ****  * @param  c ŁşŇŞĎÔĘľµÄ×Ö·ű´®
1716:Core/Src/lcd.c ****  * @param  DrawModel ŁşĘÇ·ń·´É«ĎÔĘľ 
1717:Core/Src/lcd.c ****  * @retval ÎŢ
1718:Core/Src/lcd.c ****  */
1719:Core/Src/lcd.c **** void ILI9341_DisplayStringEx(uint16_t x, 		//×Ö·űĎÔĘľÎ»ÖĂx
1720:Core/Src/lcd.c **** 														 uint16_t y, 				//×Ö·űĎÔĘľÎ»ÖĂy
1721:Core/Src/lcd.c **** 														 uint16_t Font_width,	//ŇŞĎÔĘľµÄ×ÖĚĺżí¶ČŁ¬Ó˘ÎÄ×Ö·űÔÚ´Ë»ů´ˇÉĎ/2ˇŁ×˘ŇâÎŞĹĽĘý
1722:Core/Src/lcd.c **** 														 uint16_t Font_Height,	//ŇŞĎÔĘľµÄ×ÖĚĺ¸ß¶ČŁ¬×˘ŇâÎŞĹĽĘý
1723:Core/Src/lcd.c **** 														 uint8_t *ptr,					//ĎÔĘľµÄ×Ö·űÄÚČÝ
1724:Core/Src/lcd.c **** 														 uint16_t DrawModel)  //ĘÇ·ń·´É«ĎÔĘľ
1725:Core/Src/lcd.c **** 
1726:Core/Src/lcd.c **** 
1727:Core/Src/lcd.c **** 
1728:Core/Src/lcd.c **** {
 6246              		.loc 1 1728 1 is_stmt 1 view -0
 6247              		.cfi_startproc
 6248              		@ args = 8, pretend = 0, frame = 32
 6249              		@ frame_needed = 0, uses_anonymous_args = 0
 6250              		.loc 1 1728 1 is_stmt 0 view .LVU2107
 6251 0000 2DE9F04F 		push	{r4, r5, r6, r7, r8, r9, r10, fp, lr}
 6252              	.LCFI38:
 6253              		.cfi_def_cfa_offset 36
 6254              		.cfi_offset 4, -36
 6255              		.cfi_offset 5, -32
 6256              		.cfi_offset 6, -28
 6257              		.cfi_offset 7, -24
 6258              		.cfi_offset 8, -20
 6259              		.cfi_offset 9, -16
 6260              		.cfi_offset 10, -12
 6261              		.cfi_offset 11, -8
 6262              		.cfi_offset 14, -4
 6263 0004 8DB0     		sub	sp, sp, #52
 6264              	.LCFI39:
 6265              		.cfi_def_cfa_offset 88
 6266 0006 0546     		mov	r5, r0
 6267 0008 0F46     		mov	r7, r1
 6268 000a 9246     		mov	r10, r2
 6269 000c 9846     		mov	r8, r3
 6270 000e DDF85890 		ldr	r9, [sp, #88]
 6271 0012 BDF85CB0 		ldrh	fp, [sp, #92]
1729:Core/Src/lcd.c **** 	uint16_t Charwidth = Font_width; //Ä¬ČĎÎŞFont_widthŁ¬Ó˘ÎÄżí¶ČÎŞÖĐÎÄżí¶ČµÄŇ»°ë
 6272              		.loc 1 1729 2 is_stmt 1 view .LVU2108
 6273              	.LVL573:
ARM GAS  C:\Users\84759\AppData\Local\Temp\cc1QWPm5.s 			page 170


1730:Core/Src/lcd.c **** 	uint8_t *psr=NULL;
 6274              		.loc 1 1730 2 view .LVU2109
1731:Core/Src/lcd.c **** 	uint8_t Ascii;	//Ó˘ÎÄ
 6275              		.loc 1 1731 2 view .LVU2110
1732:Core/Src/lcd.c **** 	uint16_t usCh;  //ÖĐÎÄ
 6276              		.loc 1 1732 2 view .LVU2111
1733:Core/Src/lcd.c **** 	uint8_t ucBuffer [ WIDTH_CH_CHAR*HEIGHT_CH_CHAR/8 ];	
 6277              		.loc 1 1733 2 view .LVU2112
1734:Core/Src/lcd.c **** 	
1735:Core/Src/lcd.c **** 	while ( *ptr != '\0')
 6278              		.loc 1 1735 2 view .LVU2113
1729:Core/Src/lcd.c **** 	uint8_t *psr=NULL;
 6279              		.loc 1 1729 11 is_stmt 0 view .LVU2114
 6280 0016 1646     		mov	r6, r2
 6281              		.loc 1 1735 8 view .LVU2115
 6282 0018 27E0     		b	.L262
 6283              	.LVL574:
 6284              	.L265:
1736:Core/Src/lcd.c **** 	{
1737:Core/Src/lcd.c **** 			/****´¦Ŕí»»ĐĐ*****/
1738:Core/Src/lcd.c **** 			if ( ( x - ILI9341_DispWindow_X_Star + Charwidth ) > LCD_X_LENGTH )
1739:Core/Src/lcd.c **** 			{
1740:Core/Src/lcd.c **** 				x = ILI9341_DispWindow_X_Star;
1741:Core/Src/lcd.c **** 				y += Font_Height;
1742:Core/Src/lcd.c **** 			}
1743:Core/Src/lcd.c **** 			
1744:Core/Src/lcd.c **** 			if ( ( y - ILI9341_DispWindow_Y_Star + Font_Height ) > LCD_Y_LENGTH )
1745:Core/Src/lcd.c **** 			{
1746:Core/Src/lcd.c **** 				x = ILI9341_DispWindow_X_Star;
1747:Core/Src/lcd.c **** 				y = ILI9341_DispWindow_Y_Star;
1748:Core/Src/lcd.c **** 			}	
1749:Core/Src/lcd.c **** 			
1750:Core/Src/lcd.c **** 		if(*ptr > 0x80) //ČçąűĘÇÖĐÎÄ
1751:Core/Src/lcd.c **** 		{			
1752:Core/Src/lcd.c **** 			Charwidth = Font_width;
1753:Core/Src/lcd.c **** 			usCh = * ( uint16_t * ) ptr;				
1754:Core/Src/lcd.c **** 			usCh = ( usCh << 8 ) + ( usCh >> 8 );
1755:Core/Src/lcd.c **** 			GetGBKCode ( ucBuffer, usCh );	//Čˇ×ÖÄŁĘýľÝ
1756:Core/Src/lcd.c **** 			//Ëő·Ĺ×ÖÄŁĘýľÝŁ¬Ô´×ÖÄŁÎŞ16*16
1757:Core/Src/lcd.c **** 			ILI9341_zoomChar(WIDTH_CH_CHAR,HEIGHT_CH_CHAR,Charwidth,Font_Height,(uint8_t *)&ucBuffer,psr,1);
1758:Core/Src/lcd.c **** 			//ĎÔĘľµĄ¸ö×Ö·ű
1759:Core/Src/lcd.c **** 			ILI9341_DrawChar_Ex(x,y,Charwidth,Font_Height,(uint8_t*)&zoomBuff,DrawModel);
1760:Core/Src/lcd.c **** 			x+=Charwidth;
1761:Core/Src/lcd.c **** 			ptr+=2;
1762:Core/Src/lcd.c **** 		}
1763:Core/Src/lcd.c **** 		else
1764:Core/Src/lcd.c **** 		{
1765:Core/Src/lcd.c **** 				Charwidth = Font_width / 2;
 6285              		.loc 1 1765 5 is_stmt 1 view .LVU2116
 6286              		.loc 1 1765 15 is_stmt 0 view .LVU2117
 6287 001a 4FEA5A06 		lsr	r6, r10, #1
 6288              	.LVL575:
1766:Core/Src/lcd.c **** 				Ascii = *ptr - 32;
 6289              		.loc 1 1766 5 is_stmt 1 view .LVU2118
 6290              		.loc 1 1766 11 is_stmt 0 view .LVU2119
 6291 001e 203C     		subs	r4, r4, #32
 6292 0020 E4B2     		uxtb	r4, r4
ARM GAS  C:\Users\84759\AppData\Local\Temp\cc1QWPm5.s 			page 171


 6293              	.LVL576:
1767:Core/Src/lcd.c **** 				//ĘąÓĂ16*24×ÖĚĺËő·Ĺ×ÖÄŁĘýľÝ
1768:Core/Src/lcd.c **** 				ILI9341_zoomChar(16,24,Charwidth,Font_Height,(uint8_t *)&Font16x24.table[Ascii * Font16x24.Heig
 6294              		.loc 1 1768 5 is_stmt 1 view .LVU2120
 6295              		.loc 1 1768 71 is_stmt 0 view .LVU2121
 6296 0022 304A     		ldr	r2, .L273
 6297 0024 1368     		ldr	r3, [r2]
 6298              		.loc 1 1768 95 view .LVU2122
 6299 0026 D188     		ldrh	r1, [r2, #6]
 6300              		.loc 1 1768 84 view .LVU2123
 6301 0028 01FB04F4 		mul	r4, r1, r4
 6302              	.LVL577:
 6303              		.loc 1 1768 112 view .LVU2124
 6304 002c 9288     		ldrh	r2, [r2, #4]
 6305              		.loc 1 1768 102 view .LVU2125
 6306 002e 02FB04F4 		mul	r4, r2, r4
 6307              		.loc 1 1768 118 view .LVU2126
 6308 0032 002C     		cmp	r4, #0
 6309 0034 50DB     		blt	.L271
 6310              	.L267:
 6311              		.loc 1 1768 61 view .LVU2127
 6312 0036 03EBE404 		add	r4, r3, r4, asr #3
 6313              		.loc 1 1768 5 view .LVU2128
 6314 003a 0023     		movs	r3, #0
 6315 003c 0293     		str	r3, [sp, #8]
 6316              	.LVL578:
 6317              		.loc 1 1768 5 view .LVU2129
 6318 003e 0193     		str	r3, [sp, #4]
 6319 0040 0094     		str	r4, [sp]
 6320 0042 4346     		mov	r3, r8
 6321 0044 3246     		mov	r2, r6
 6322 0046 1821     		movs	r1, #24
 6323 0048 1020     		movs	r0, #16
 6324 004a FFF7FEFF 		bl	ILI9341_zoomChar
 6325              	.LVL579:
1769:Core/Src/lcd.c **** 			  //ĎÔĘľµĄ¸ö×Ö·ű
1770:Core/Src/lcd.c **** 				ILI9341_DrawChar_Ex(x,y,Charwidth,Font_Height,(uint8_t*)&zoomBuff,DrawModel);
 6326              		.loc 1 1770 5 is_stmt 1 view .LVU2130
 6327 004e CDF804B0 		str	fp, [sp, #4]
 6328 0052 254B     		ldr	r3, .L273+4
 6329 0054 0093     		str	r3, [sp]
 6330 0056 4346     		mov	r3, r8
 6331 0058 3246     		mov	r2, r6
 6332 005a 3946     		mov	r1, r7
 6333 005c 2846     		mov	r0, r5
 6334 005e FFF7FEFF 		bl	ILI9341_DrawChar_Ex
 6335              	.LVL580:
1771:Core/Src/lcd.c **** 				x+=Charwidth;
 6336              		.loc 1 1771 5 view .LVU2131
 6337              		.loc 1 1771 6 is_stmt 0 view .LVU2132
 6338 0062 3544     		add	r5, r5, r6
 6339              	.LVL581:
 6340              		.loc 1 1771 6 view .LVU2133
 6341 0064 ADB2     		uxth	r5, r5
 6342              	.LVL582:
1772:Core/Src/lcd.c **** 				ptr++;
 6343              		.loc 1 1772 5 is_stmt 1 view .LVU2134
ARM GAS  C:\Users\84759\AppData\Local\Temp\cc1QWPm5.s 			page 172


 6344              		.loc 1 1772 8 is_stmt 0 view .LVU2135
 6345 0066 09F10109 		add	r9, r9, #1
 6346              	.LVL583:
 6347              	.L262:
1735:Core/Src/lcd.c **** 	{
 6348              		.loc 1 1735 8 is_stmt 1 view .LVU2136
1735:Core/Src/lcd.c **** 	{
 6349              		.loc 1 1735 10 is_stmt 0 view .LVU2137
 6350 006a 99F80040 		ldrb	r4, [r9]	@ zero_extendqisi2
1735:Core/Src/lcd.c **** 	{
 6351              		.loc 1 1735 8 view .LVU2138
 6352 006e 002C     		cmp	r4, #0
 6353 0070 34D0     		beq	.L272
1738:Core/Src/lcd.c **** 			{
 6354              		.loc 1 1738 4 is_stmt 1 view .LVU2139
1738:Core/Src/lcd.c **** 			{
 6355              		.loc 1 1738 41 is_stmt 0 view .LVU2140
 6356 0072 2E44     		add	r6, r6, r5
 6357              	.LVL584:
1738:Core/Src/lcd.c **** 			{
 6358              		.loc 1 1738 55 view .LVU2141
 6359 0074 1D4B     		ldr	r3, .L273+8
 6360 0076 1B88     		ldrh	r3, [r3]
1738:Core/Src/lcd.c **** 			{
 6361              		.loc 1 1738 7 view .LVU2142
 6362 0078 9E42     		cmp	r6, r3
 6363 007a 02DD     		ble	.L263
1740:Core/Src/lcd.c **** 				y += Font_Height;
 6364              		.loc 1 1740 5 is_stmt 1 view .LVU2143
 6365              	.LVL585:
1741:Core/Src/lcd.c **** 			}
 6366              		.loc 1 1741 5 view .LVU2144
1741:Core/Src/lcd.c **** 			}
 6367              		.loc 1 1741 7 is_stmt 0 view .LVU2145
 6368 007c 4744     		add	r7, r7, r8
 6369              	.LVL586:
1741:Core/Src/lcd.c **** 			}
 6370              		.loc 1 1741 7 view .LVU2146
 6371 007e BFB2     		uxth	r7, r7
 6372              	.LVL587:
1740:Core/Src/lcd.c **** 				y += Font_Height;
 6373              		.loc 1 1740 7 view .LVU2147
 6374 0080 0025     		movs	r5, #0
 6375              	.LVL588:
 6376              	.L263:
1744:Core/Src/lcd.c **** 			{
 6377              		.loc 1 1744 4 is_stmt 1 view .LVU2148
1744:Core/Src/lcd.c **** 			{
 6378              		.loc 1 1744 41 is_stmt 0 view .LVU2149
 6379 0082 08EB0703 		add	r3, r8, r7
1744:Core/Src/lcd.c **** 			{
 6380              		.loc 1 1744 57 view .LVU2150
 6381 0086 1A4A     		ldr	r2, .L273+12
 6382 0088 1288     		ldrh	r2, [r2]
1744:Core/Src/lcd.c **** 			{
 6383              		.loc 1 1744 7 view .LVU2151
 6384 008a 9342     		cmp	r3, r2
ARM GAS  C:\Users\84759\AppData\Local\Temp\cc1QWPm5.s 			page 173


 6385 008c 01DD     		ble	.L264
1747:Core/Src/lcd.c **** 			}	
 6386              		.loc 1 1747 7 view .LVU2152
 6387 008e 0027     		movs	r7, #0
 6388              	.LVL589:
1746:Core/Src/lcd.c **** 				y = ILI9341_DispWindow_Y_Star;
 6389              		.loc 1 1746 7 view .LVU2153
 6390 0090 3D46     		mov	r5, r7
 6391              	.LVL590:
 6392              	.L264:
1750:Core/Src/lcd.c **** 		{			
 6393              		.loc 1 1750 3 is_stmt 1 view .LVU2154
1750:Core/Src/lcd.c **** 		{			
 6394              		.loc 1 1750 5 is_stmt 0 view .LVU2155
 6395 0092 802C     		cmp	r4, #128
 6396 0094 C1D9     		bls	.L265
1752:Core/Src/lcd.c **** 			usCh = * ( uint16_t * ) ptr;				
 6397              		.loc 1 1752 4 is_stmt 1 view .LVU2156
 6398              	.LVL591:
1753:Core/Src/lcd.c **** 			usCh = ( usCh << 8 ) + ( usCh >> 8 );
 6399              		.loc 1 1753 4 view .LVU2157
1753:Core/Src/lcd.c **** 			usCh = ( usCh << 8 ) + ( usCh >> 8 );
 6400              		.loc 1 1753 9 is_stmt 0 view .LVU2158
 6401 0096 39F8021B 		ldrh	r1, [r9], #2
 6402              	.LVL592:
1754:Core/Src/lcd.c **** 			GetGBKCode ( ucBuffer, usCh );	//Čˇ×ÖÄŁĘýľÝ
 6403              		.loc 1 1754 4 is_stmt 1 view .LVU2159
1754:Core/Src/lcd.c **** 			GetGBKCode ( ucBuffer, usCh );	//Čˇ×ÖÄŁĘýľÝ
 6404              		.loc 1 1754 9 is_stmt 0 view .LVU2160
 6405 009a 49BA     		rev16	r1, r1
 6406              	.LVL593:
1755:Core/Src/lcd.c **** 			//Ëő·Ĺ×ÖÄŁĘýľÝŁ¬Ô´×ÖÄŁÎŞ16*16
 6407              		.loc 1 1755 4 is_stmt 1 view .LVU2161
 6408 009c 04AC     		add	r4, sp, #16
 6409 009e 89B2     		uxth	r1, r1
1755:Core/Src/lcd.c **** 			//Ëő·Ĺ×ÖÄŁĘýľÝŁ¬Ô´×ÖÄŁÎŞ16*16
 6410              		.loc 1 1755 4 is_stmt 0 view .LVU2162
 6411 00a0 2046     		mov	r0, r4
 6412 00a2 FFF7FEFF 		bl	GetGBKCode_from_EXFlash
 6413              	.LVL594:
1757:Core/Src/lcd.c **** 			//ĎÔĘľµĄ¸ö×Ö·ű
 6414              		.loc 1 1757 4 is_stmt 1 view .LVU2163
 6415 00a6 0123     		movs	r3, #1
 6416 00a8 0293     		str	r3, [sp, #8]
 6417 00aa 0023     		movs	r3, #0
 6418 00ac 0193     		str	r3, [sp, #4]
 6419 00ae 0094     		str	r4, [sp]
 6420 00b0 4346     		mov	r3, r8
 6421 00b2 5246     		mov	r2, r10
 6422 00b4 1021     		movs	r1, #16
 6423 00b6 0846     		mov	r0, r1
 6424 00b8 FFF7FEFF 		bl	ILI9341_zoomChar
 6425              	.LVL595:
1759:Core/Src/lcd.c **** 			x+=Charwidth;
 6426              		.loc 1 1759 4 view .LVU2164
 6427 00bc CDF804B0 		str	fp, [sp, #4]
 6428 00c0 094B     		ldr	r3, .L273+4
ARM GAS  C:\Users\84759\AppData\Local\Temp\cc1QWPm5.s 			page 174


 6429 00c2 0093     		str	r3, [sp]
 6430 00c4 4346     		mov	r3, r8
 6431 00c6 5246     		mov	r2, r10
 6432 00c8 3946     		mov	r1, r7
 6433 00ca 2846     		mov	r0, r5
 6434 00cc FFF7FEFF 		bl	ILI9341_DrawChar_Ex
 6435              	.LVL596:
1760:Core/Src/lcd.c **** 			ptr+=2;
 6436              		.loc 1 1760 4 view .LVU2165
1760:Core/Src/lcd.c **** 			ptr+=2;
 6437              		.loc 1 1760 5 is_stmt 0 view .LVU2166
 6438 00d0 5544     		add	r5, r5, r10
 6439              	.LVL597:
1760:Core/Src/lcd.c **** 			ptr+=2;
 6440              		.loc 1 1760 5 view .LVU2167
 6441 00d2 ADB2     		uxth	r5, r5
 6442              	.LVL598:
1761:Core/Src/lcd.c **** 		}
 6443              		.loc 1 1761 4 is_stmt 1 view .LVU2168
1752:Core/Src/lcd.c **** 			usCh = * ( uint16_t * ) ptr;				
 6444              		.loc 1 1752 14 is_stmt 0 view .LVU2169
 6445 00d4 5646     		mov	r6, r10
 6446 00d6 C8E7     		b	.L262
 6447              	.LVL599:
 6448              	.L271:
1768:Core/Src/lcd.c **** 			  //ĎÔĘľµĄ¸ö×Ö·ű
 6449              		.loc 1 1768 118 view .LVU2170
 6450 00d8 0734     		adds	r4, r4, #7
 6451 00da ACE7     		b	.L267
 6452              	.LVL600:
 6453              	.L272:
1773:Core/Src/lcd.c **** 		}
1774:Core/Src/lcd.c **** 	}
1775:Core/Src/lcd.c **** }
 6454              		.loc 1 1775 1 view .LVU2171
 6455 00dc 0DB0     		add	sp, sp, #52
 6456              	.LCFI40:
 6457              		.cfi_def_cfa_offset 36
 6458              		@ sp needed
 6459 00de BDE8F08F 		pop	{r4, r5, r6, r7, r8, r9, r10, fp, pc}
 6460              	.LVL601:
 6461              	.L274:
 6462              		.loc 1 1775 1 view .LVU2172
 6463 00e2 00BF     		.align	2
 6464              	.L273:
 6465 00e4 00000000 		.word	Font16x24
 6466 00e8 00000000 		.word	zoomBuff
 6467 00ec 00000000 		.word	.LANCHOR4
 6468 00f0 00000000 		.word	.LANCHOR5
 6469              		.cfi_endproc
 6470              	.LFE98:
 6472              		.section	.text.ILI9341_DisplayStringEx_YDir,"ax",%progbits
 6473              		.align	1
 6474              		.global	ILI9341_DisplayStringEx_YDir
 6475              		.syntax unified
 6476              		.thumb
 6477              		.thumb_func
ARM GAS  C:\Users\84759\AppData\Local\Temp\cc1QWPm5.s 			page 175


 6479              	ILI9341_DisplayStringEx_YDir:
 6480              	.LVL602:
 6481              	.LFB99:
1776:Core/Src/lcd.c **** 
1777:Core/Src/lcd.c **** 
1778:Core/Src/lcd.c **** /**
1779:Core/Src/lcd.c ****  * @brief  ŔűÓĂËő·ĹşóµÄ×ÖÄŁĎÔĘľ×Ö·ű´®(ŃŘYÖá·˝Ďň)
1780:Core/Src/lcd.c ****  * @param  Xpos Łş×Ö·űĎÔĘľÎ»ÖĂx
1781:Core/Src/lcd.c ****  * @param  Ypos Łş×Ö·űĎÔĘľÎ»ÖĂy
1782:Core/Src/lcd.c ****  * @param  Font_width Łş×Ö·űżí¶ČŁ¬Ó˘ÎÄ×Ö·űÔÚ´Ë»ů´ˇÉĎ/2ˇŁ×˘ŇâÎŞĹĽĘý
1783:Core/Src/lcd.c ****  * @param  Font_HeigŁş×Ö·ű¸ß¶ČŁ¬×˘ŇâÎŞĹĽĘý
1784:Core/Src/lcd.c ****  * @param  c ŁşŇŞĎÔĘľµÄ×Ö·ű´®
1785:Core/Src/lcd.c ****  * @param  DrawModel ŁşĘÇ·ń·´É«ĎÔĘľ 
1786:Core/Src/lcd.c ****  * @retval ÎŢ
1787:Core/Src/lcd.c ****  */
1788:Core/Src/lcd.c **** void ILI9341_DisplayStringEx_YDir(uint16_t x, 		//×Ö·űĎÔĘľÎ»ÖĂx
1789:Core/Src/lcd.c **** 																		 uint16_t y, 				//×Ö·űĎÔĘľÎ»ÖĂy
1790:Core/Src/lcd.c **** 																		 uint16_t Font_width,	//ŇŞĎÔĘľµÄ×ÖĚĺżí¶ČŁ¬Ó˘ÎÄ×Ö·űÔÚ´Ë»ů´ˇÉĎ/2ˇŁ×˘ŇâÎŞĹĽĘý
1791:Core/Src/lcd.c **** 																		 uint16_t Font_Height,	//ŇŞĎÔĘľµÄ×ÖĚĺ¸ß¶ČŁ¬×˘ŇâÎŞĹĽĘý
1792:Core/Src/lcd.c **** 																		 uint8_t *ptr,					//ĎÔĘľµÄ×Ö·űÄÚČÝ
1793:Core/Src/lcd.c **** 																		 uint16_t DrawModel)  //ĘÇ·ń·´É«ĎÔĘľ
1794:Core/Src/lcd.c **** {
 6482              		.loc 1 1794 1 is_stmt 1 view -0
 6483              		.cfi_startproc
 6484              		@ args = 8, pretend = 0, frame = 32
 6485              		@ frame_needed = 0, uses_anonymous_args = 0
 6486              		.loc 1 1794 1 is_stmt 0 view .LVU2174
 6487 0000 2DE9F04F 		push	{r4, r5, r6, r7, r8, r9, r10, fp, lr}
 6488              	.LCFI41:
 6489              		.cfi_def_cfa_offset 36
 6490              		.cfi_offset 4, -36
 6491              		.cfi_offset 5, -32
 6492              		.cfi_offset 6, -28
 6493              		.cfi_offset 7, -24
 6494              		.cfi_offset 8, -20
 6495              		.cfi_offset 9, -16
 6496              		.cfi_offset 10, -12
 6497              		.cfi_offset 11, -8
 6498              		.cfi_offset 14, -4
 6499 0004 8DB0     		sub	sp, sp, #52
 6500              	.LCFI42:
 6501              		.cfi_def_cfa_offset 88
 6502 0006 0646     		mov	r6, r0
 6503 0008 0D46     		mov	r5, r1
 6504 000a 9046     		mov	r8, r2
 6505 000c 1F46     		mov	r7, r3
 6506 000e DDF85890 		ldr	r9, [sp, #88]
 6507 0012 BDF85CB0 		ldrh	fp, [sp, #92]
1795:Core/Src/lcd.c **** 	uint16_t Charwidth = Font_width; //Ä¬ČĎÎŞFont_widthŁ¬Ó˘ÎÄżí¶ČÎŞÖĐÎÄżí¶ČµÄŇ»°ë
 6508              		.loc 1 1795 2 is_stmt 1 view .LVU2175
 6509              	.LVL603:
1796:Core/Src/lcd.c **** 	uint8_t *psr;
 6510              		.loc 1 1796 2 view .LVU2176
1797:Core/Src/lcd.c **** 	uint8_t Ascii;	//Ó˘ÎÄ
 6511              		.loc 1 1797 2 view .LVU2177
1798:Core/Src/lcd.c **** 	uint16_t usCh;  //ÖĐÎÄ
 6512              		.loc 1 1798 2 view .LVU2178
ARM GAS  C:\Users\84759\AppData\Local\Temp\cc1QWPm5.s 			page 176


1799:Core/Src/lcd.c **** 	uint8_t ucBuffer [ WIDTH_CH_CHAR*HEIGHT_CH_CHAR/8 ];	
 6513              		.loc 1 1799 2 view .LVU2179
1800:Core/Src/lcd.c **** 	
1801:Core/Src/lcd.c **** 	while ( *ptr != '\0')
 6514              		.loc 1 1801 2 view .LVU2180
 6515              		.loc 1 1801 8 is_stmt 0 view .LVU2181
 6516 0016 27E0     		b	.L276
 6517              	.LVL604:
 6518              	.L279:
1802:Core/Src/lcd.c **** 	{			
1803:Core/Src/lcd.c **** 			//ÍłŇ»ĘąÓĂşş×ÖµÄżí¸ßŔ´ĽĆËă»»ĐĐ
1804:Core/Src/lcd.c **** 			if ( ( y - ILI9341_DispWindow_X_Star + Font_width ) > LCD_X_LENGTH )
1805:Core/Src/lcd.c **** 			{
1806:Core/Src/lcd.c **** 				y = ILI9341_DispWindow_X_Star;
1807:Core/Src/lcd.c **** 				x += Font_width;
1808:Core/Src/lcd.c **** 			}
1809:Core/Src/lcd.c **** 			
1810:Core/Src/lcd.c **** 			if ( ( x - ILI9341_DispWindow_Y_Star + Font_Height ) > LCD_Y_LENGTH )
1811:Core/Src/lcd.c **** 			{
1812:Core/Src/lcd.c **** 				y = ILI9341_DispWindow_X_Star;
1813:Core/Src/lcd.c **** 				x = ILI9341_DispWindow_Y_Star;
1814:Core/Src/lcd.c **** 			}	
1815:Core/Src/lcd.c **** 			
1816:Core/Src/lcd.c **** 		if(*ptr > 0x80) //ČçąűĘÇÖĐÎÄ
1817:Core/Src/lcd.c **** 		{			
1818:Core/Src/lcd.c **** 			Charwidth = Font_width;
1819:Core/Src/lcd.c **** 			usCh = * ( uint16_t * ) ptr;				
1820:Core/Src/lcd.c **** 			usCh = ( usCh << 8 ) + ( usCh >> 8 );
1821:Core/Src/lcd.c **** 			GetGBKCode ( ucBuffer, usCh );	//Čˇ×ÖÄŁĘýľÝ
1822:Core/Src/lcd.c **** 			//Ëő·Ĺ×ÖÄŁĘýľÝŁ¬Ô´×ÖÄŁÎŞ16*16
1823:Core/Src/lcd.c **** 			ILI9341_zoomChar(WIDTH_CH_CHAR,HEIGHT_CH_CHAR,Charwidth,Font_Height,(uint8_t *)&ucBuffer,psr,1);
1824:Core/Src/lcd.c **** 			//ĎÔĘľµĄ¸ö×Ö·ű
1825:Core/Src/lcd.c **** 			ILI9341_DrawChar_Ex(x,y,Charwidth,Font_Height,(uint8_t*)&zoomBuff,DrawModel);
1826:Core/Src/lcd.c **** 			y+=Font_Height;
1827:Core/Src/lcd.c **** 			ptr+=2;
1828:Core/Src/lcd.c **** 		}
1829:Core/Src/lcd.c **** 		else
1830:Core/Src/lcd.c **** 		{
1831:Core/Src/lcd.c **** 				Charwidth = Font_width / 2;
 6519              		.loc 1 1831 5 is_stmt 1 view .LVU2182
 6520              		.loc 1 1831 15 is_stmt 0 view .LVU2183
 6521 0018 4FEA580A 		lsr	r10, r8, #1
 6522              	.LVL605:
1832:Core/Src/lcd.c **** 				Ascii = *ptr - 32;
 6523              		.loc 1 1832 5 is_stmt 1 view .LVU2184
 6524              		.loc 1 1832 11 is_stmt 0 view .LVU2185
 6525 001c 203C     		subs	r4, r4, #32
 6526 001e E4B2     		uxtb	r4, r4
 6527              	.LVL606:
1833:Core/Src/lcd.c **** 				//ĘąÓĂ16*24×ÖĚĺËő·Ĺ×ÖÄŁĘýľÝ
1834:Core/Src/lcd.c **** 				ILI9341_zoomChar(16,24,Charwidth,Font_Height,(uint8_t *)&Font16x24.table[Ascii * Font16x24.Heig
 6528              		.loc 1 1834 5 is_stmt 1 view .LVU2186
 6529              		.loc 1 1834 71 is_stmt 0 view .LVU2187
 6530 0020 2F4A     		ldr	r2, .L287
 6531 0022 1368     		ldr	r3, [r2]
 6532              		.loc 1 1834 95 view .LVU2188
 6533 0024 D188     		ldrh	r1, [r2, #6]
ARM GAS  C:\Users\84759\AppData\Local\Temp\cc1QWPm5.s 			page 177


 6534              		.loc 1 1834 84 view .LVU2189
 6535 0026 01FB04F4 		mul	r4, r1, r4
 6536              	.LVL607:
 6537              		.loc 1 1834 112 view .LVU2190
 6538 002a 9288     		ldrh	r2, [r2, #4]
 6539              		.loc 1 1834 102 view .LVU2191
 6540 002c 02FB04F4 		mul	r4, r2, r4
 6541              		.loc 1 1834 118 view .LVU2192
 6542 0030 002C     		cmp	r4, #0
 6543 0032 4FDB     		blt	.L285
 6544              	.L281:
 6545              		.loc 1 1834 61 view .LVU2193
 6546 0034 03EBE404 		add	r4, r3, r4, asr #3
 6547              		.loc 1 1834 5 view .LVU2194
 6548 0038 0023     		movs	r3, #0
 6549 003a 0293     		str	r3, [sp, #8]
 6550              	.LVL608:
 6551              		.loc 1 1834 5 view .LVU2195
 6552 003c 0193     		str	r3, [sp, #4]
 6553 003e 0094     		str	r4, [sp]
 6554 0040 3B46     		mov	r3, r7
 6555 0042 5246     		mov	r2, r10
 6556 0044 1821     		movs	r1, #24
 6557 0046 1020     		movs	r0, #16
 6558 0048 FFF7FEFF 		bl	ILI9341_zoomChar
 6559              	.LVL609:
1835:Core/Src/lcd.c **** 			  //ĎÔĘľµĄ¸ö×Ö·ű
1836:Core/Src/lcd.c **** 				ILI9341_DrawChar_Ex(x,y,Charwidth,Font_Height,(uint8_t*)&zoomBuff,DrawModel);
 6560              		.loc 1 1836 5 is_stmt 1 view .LVU2196
 6561 004c CDF804B0 		str	fp, [sp, #4]
 6562 0050 244B     		ldr	r3, .L287+4
 6563 0052 0093     		str	r3, [sp]
 6564 0054 3B46     		mov	r3, r7
 6565 0056 5246     		mov	r2, r10
 6566 0058 2946     		mov	r1, r5
 6567 005a 3046     		mov	r0, r6
 6568 005c FFF7FEFF 		bl	ILI9341_DrawChar_Ex
 6569              	.LVL610:
1837:Core/Src/lcd.c **** 				y+=Font_Height;
 6570              		.loc 1 1837 5 view .LVU2197
 6571              		.loc 1 1837 6 is_stmt 0 view .LVU2198
 6572 0060 3D44     		add	r5, r5, r7
 6573              	.LVL611:
 6574              		.loc 1 1837 6 view .LVU2199
 6575 0062 ADB2     		uxth	r5, r5
 6576              	.LVL612:
1838:Core/Src/lcd.c **** 				ptr++;
 6577              		.loc 1 1838 5 is_stmt 1 view .LVU2200
 6578              		.loc 1 1838 8 is_stmt 0 view .LVU2201
 6579 0064 09F10109 		add	r9, r9, #1
 6580              	.LVL613:
 6581              	.L276:
1801:Core/Src/lcd.c **** 	{			
 6582              		.loc 1 1801 8 is_stmt 1 view .LVU2202
1801:Core/Src/lcd.c **** 	{			
 6583              		.loc 1 1801 10 is_stmt 0 view .LVU2203
 6584 0068 99F80040 		ldrb	r4, [r9]	@ zero_extendqisi2
ARM GAS  C:\Users\84759\AppData\Local\Temp\cc1QWPm5.s 			page 178


1801:Core/Src/lcd.c **** 	{			
 6585              		.loc 1 1801 8 view .LVU2204
 6586 006c 002C     		cmp	r4, #0
 6587 006e 33D0     		beq	.L286
1804:Core/Src/lcd.c **** 			{
 6588              		.loc 1 1804 4 is_stmt 1 view .LVU2205
1804:Core/Src/lcd.c **** 			{
 6589              		.loc 1 1804 41 is_stmt 0 view .LVU2206
 6590 0070 08EB0503 		add	r3, r8, r5
1804:Core/Src/lcd.c **** 			{
 6591              		.loc 1 1804 56 view .LVU2207
 6592 0074 1C4A     		ldr	r2, .L287+8
 6593 0076 1288     		ldrh	r2, [r2]
1804:Core/Src/lcd.c **** 			{
 6594              		.loc 1 1804 7 view .LVU2208
 6595 0078 9342     		cmp	r3, r2
 6596 007a 02DD     		ble	.L277
1806:Core/Src/lcd.c **** 				x += Font_width;
 6597              		.loc 1 1806 5 is_stmt 1 view .LVU2209
 6598              	.LVL614:
1807:Core/Src/lcd.c **** 			}
 6599              		.loc 1 1807 5 view .LVU2210
1807:Core/Src/lcd.c **** 			}
 6600              		.loc 1 1807 7 is_stmt 0 view .LVU2211
 6601 007c 4644     		add	r6, r6, r8
 6602              	.LVL615:
1807:Core/Src/lcd.c **** 			}
 6603              		.loc 1 1807 7 view .LVU2212
 6604 007e B6B2     		uxth	r6, r6
 6605              	.LVL616:
1806:Core/Src/lcd.c **** 				x += Font_width;
 6606              		.loc 1 1806 7 view .LVU2213
 6607 0080 0025     		movs	r5, #0
 6608              	.LVL617:
 6609              	.L277:
1810:Core/Src/lcd.c **** 			{
 6610              		.loc 1 1810 4 is_stmt 1 view .LVU2214
1810:Core/Src/lcd.c **** 			{
 6611              		.loc 1 1810 41 is_stmt 0 view .LVU2215
 6612 0082 BB19     		adds	r3, r7, r6
1810:Core/Src/lcd.c **** 			{
 6613              		.loc 1 1810 57 view .LVU2216
 6614 0084 194A     		ldr	r2, .L287+12
 6615 0086 1288     		ldrh	r2, [r2]
1810:Core/Src/lcd.c **** 			{
 6616              		.loc 1 1810 7 view .LVU2217
 6617 0088 9342     		cmp	r3, r2
 6618 008a 01DD     		ble	.L278
1812:Core/Src/lcd.c **** 				x = ILI9341_DispWindow_Y_Star;
 6619              		.loc 1 1812 7 view .LVU2218
 6620 008c 0025     		movs	r5, #0
 6621              	.LVL618:
1813:Core/Src/lcd.c **** 			}	
 6622              		.loc 1 1813 7 view .LVU2219
 6623 008e 2E46     		mov	r6, r5
 6624              	.LVL619:
 6625              	.L278:
ARM GAS  C:\Users\84759\AppData\Local\Temp\cc1QWPm5.s 			page 179


1816:Core/Src/lcd.c **** 		{			
 6626              		.loc 1 1816 3 is_stmt 1 view .LVU2220
1816:Core/Src/lcd.c **** 		{			
 6627              		.loc 1 1816 5 is_stmt 0 view .LVU2221
 6628 0090 802C     		cmp	r4, #128
 6629 0092 C1D9     		bls	.L279
1818:Core/Src/lcd.c **** 			usCh = * ( uint16_t * ) ptr;				
 6630              		.loc 1 1818 4 is_stmt 1 view .LVU2222
 6631              	.LVL620:
1819:Core/Src/lcd.c **** 			usCh = ( usCh << 8 ) + ( usCh >> 8 );
 6632              		.loc 1 1819 4 view .LVU2223
1819:Core/Src/lcd.c **** 			usCh = ( usCh << 8 ) + ( usCh >> 8 );
 6633              		.loc 1 1819 9 is_stmt 0 view .LVU2224
 6634 0094 39F8021B 		ldrh	r1, [r9], #2
 6635              	.LVL621:
1820:Core/Src/lcd.c **** 			GetGBKCode ( ucBuffer, usCh );	//Čˇ×ÖÄŁĘýľÝ
 6636              		.loc 1 1820 4 is_stmt 1 view .LVU2225
1820:Core/Src/lcd.c **** 			GetGBKCode ( ucBuffer, usCh );	//Čˇ×ÖÄŁĘýľÝ
 6637              		.loc 1 1820 9 is_stmt 0 view .LVU2226
 6638 0098 49BA     		rev16	r1, r1
 6639              	.LVL622:
1821:Core/Src/lcd.c **** 			//Ëő·Ĺ×ÖÄŁĘýľÝŁ¬Ô´×ÖÄŁÎŞ16*16
 6640              		.loc 1 1821 4 is_stmt 1 view .LVU2227
 6641 009a 04AC     		add	r4, sp, #16
 6642 009c 89B2     		uxth	r1, r1
1821:Core/Src/lcd.c **** 			//Ëő·Ĺ×ÖÄŁĘýľÝŁ¬Ô´×ÖÄŁÎŞ16*16
 6643              		.loc 1 1821 4 is_stmt 0 view .LVU2228
 6644 009e 2046     		mov	r0, r4
 6645 00a0 FFF7FEFF 		bl	GetGBKCode_from_EXFlash
 6646              	.LVL623:
1823:Core/Src/lcd.c **** 			//ĎÔĘľµĄ¸ö×Ö·ű
 6647              		.loc 1 1823 4 is_stmt 1 view .LVU2229
 6648 00a4 0123     		movs	r3, #1
 6649 00a6 0293     		str	r3, [sp, #8]
 6650 00a8 0023     		movs	r3, #0
 6651 00aa 0193     		str	r3, [sp, #4]
 6652 00ac 0094     		str	r4, [sp]
 6653 00ae 3B46     		mov	r3, r7
 6654 00b0 4246     		mov	r2, r8
 6655 00b2 1021     		movs	r1, #16
 6656 00b4 0846     		mov	r0, r1
 6657 00b6 FFF7FEFF 		bl	ILI9341_zoomChar
 6658              	.LVL624:
1825:Core/Src/lcd.c **** 			y+=Font_Height;
 6659              		.loc 1 1825 4 view .LVU2230
 6660 00ba CDF804B0 		str	fp, [sp, #4]
 6661 00be 094B     		ldr	r3, .L287+4
 6662 00c0 0093     		str	r3, [sp]
 6663 00c2 3B46     		mov	r3, r7
 6664 00c4 4246     		mov	r2, r8
 6665 00c6 2946     		mov	r1, r5
 6666 00c8 3046     		mov	r0, r6
 6667 00ca FFF7FEFF 		bl	ILI9341_DrawChar_Ex
 6668              	.LVL625:
1826:Core/Src/lcd.c **** 			ptr+=2;
 6669              		.loc 1 1826 4 view .LVU2231
1826:Core/Src/lcd.c **** 			ptr+=2;
ARM GAS  C:\Users\84759\AppData\Local\Temp\cc1QWPm5.s 			page 180


 6670              		.loc 1 1826 5 is_stmt 0 view .LVU2232
 6671 00ce 3D44     		add	r5, r5, r7
 6672              	.LVL626:
1826:Core/Src/lcd.c **** 			ptr+=2;
 6673              		.loc 1 1826 5 view .LVU2233
 6674 00d0 ADB2     		uxth	r5, r5
 6675              	.LVL627:
1827:Core/Src/lcd.c **** 		}
 6676              		.loc 1 1827 4 is_stmt 1 view .LVU2234
1827:Core/Src/lcd.c **** 		}
 6677              		.loc 1 1827 4 is_stmt 0 view .LVU2235
 6678 00d2 C9E7     		b	.L276
 6679              	.LVL628:
 6680              	.L285:
1834:Core/Src/lcd.c **** 			  //ĎÔĘľµĄ¸ö×Ö·ű
 6681              		.loc 1 1834 118 view .LVU2236
 6682 00d4 0734     		adds	r4, r4, #7
 6683 00d6 ADE7     		b	.L281
 6684              	.LVL629:
 6685              	.L286:
1839:Core/Src/lcd.c **** 		}
1840:Core/Src/lcd.c **** 	}
1841:Core/Src/lcd.c **** }
 6686              		.loc 1 1841 1 view .LVU2237
 6687 00d8 0DB0     		add	sp, sp, #52
 6688              	.LCFI43:
 6689              		.cfi_def_cfa_offset 36
 6690              		@ sp needed
 6691 00da BDE8F08F 		pop	{r4, r5, r6, r7, r8, r9, r10, fp, pc}
 6692              	.LVL630:
 6693              	.L288:
 6694              		.loc 1 1841 1 view .LVU2238
 6695 00de 00BF     		.align	2
 6696              	.L287:
 6697 00e0 00000000 		.word	Font16x24
 6698 00e4 00000000 		.word	zoomBuff
 6699 00e8 00000000 		.word	.LANCHOR4
 6700 00ec 00000000 		.word	.LANCHOR5
 6701              		.cfi_endproc
 6702              	.LFE99:
 6704              		.section	.text.LCD_SetFont,"ax",%progbits
 6705              		.align	1
 6706              		.global	LCD_SetFont
 6707              		.syntax unified
 6708              		.thumb
 6709              		.thumb_func
 6711              	LCD_SetFont:
 6712              	.LVL631:
 6713              	.LFB100:
1842:Core/Src/lcd.c **** 
1843:Core/Src/lcd.c **** 
1844:Core/Src/lcd.c **** /**
1845:Core/Src/lcd.c ****   * @brief  ÉčÖĂÓ˘ÎÄ×ÖĚĺŔŕĐÍ
1846:Core/Src/lcd.c ****   * @param  fonts: Ö¸¶¨ŇŞŃˇÔńµÄ×ÖĚĺ
1847:Core/Src/lcd.c **** 	*		˛ÎĘýÎŞŇÔĎÂÖµÖ®Ň»
1848:Core/Src/lcd.c ****   * 	@argŁşFont24x32;
1849:Core/Src/lcd.c ****   * 	@argŁşFont16x24;
ARM GAS  C:\Users\84759\AppData\Local\Temp\cc1QWPm5.s 			page 181


1850:Core/Src/lcd.c ****   * 	@argŁşFont8x16;
1851:Core/Src/lcd.c ****   * @retval None
1852:Core/Src/lcd.c ****   */
1853:Core/Src/lcd.c **** void LCD_SetFont(sFONT *fonts)
1854:Core/Src/lcd.c **** {
 6714              		.loc 1 1854 1 is_stmt 1 view -0
 6715              		.cfi_startproc
 6716              		@ args = 0, pretend = 0, frame = 0
 6717              		@ frame_needed = 0, uses_anonymous_args = 0
 6718              		@ link register save eliminated.
1855:Core/Src/lcd.c ****   LCD_Currentfonts = fonts;
 6719              		.loc 1 1855 3 view .LVU2240
 6720              		.loc 1 1855 20 is_stmt 0 view .LVU2241
 6721 0000 014B     		ldr	r3, .L290
 6722 0002 1860     		str	r0, [r3]
1856:Core/Src/lcd.c **** }
 6723              		.loc 1 1856 1 view .LVU2242
 6724 0004 7047     		bx	lr
 6725              	.L291:
 6726 0006 00BF     		.align	2
 6727              	.L290:
 6728 0008 00000000 		.word	.LANCHOR8
 6729              		.cfi_endproc
 6730              	.LFE100:
 6732              		.section	.text.LCD_GetFont,"ax",%progbits
 6733              		.align	1
 6734              		.global	LCD_GetFont
 6735              		.syntax unified
 6736              		.thumb
 6737              		.thumb_func
 6739              	LCD_GetFont:
 6740              	.LFB101:
1857:Core/Src/lcd.c **** 
1858:Core/Src/lcd.c **** /**
1859:Core/Src/lcd.c ****   * @brief  »ńČˇµ±Ç°×ÖĚĺŔŕĐÍ
1860:Core/Src/lcd.c ****   * @param  None.
1861:Core/Src/lcd.c ****   * @retval ·µ»Řµ±Ç°×ÖĚĺŔŕĐÍ
1862:Core/Src/lcd.c ****   */
1863:Core/Src/lcd.c **** sFONT *LCD_GetFont(void)
1864:Core/Src/lcd.c **** {
 6741              		.loc 1 1864 1 is_stmt 1 view -0
 6742              		.cfi_startproc
 6743              		@ args = 0, pretend = 0, frame = 0
 6744              		@ frame_needed = 0, uses_anonymous_args = 0
 6745              		@ link register save eliminated.
1865:Core/Src/lcd.c ****   return LCD_Currentfonts;
 6746              		.loc 1 1865 3 view .LVU2244
1866:Core/Src/lcd.c **** }
 6747              		.loc 1 1866 1 is_stmt 0 view .LVU2245
 6748 0000 014B     		ldr	r3, .L293
 6749 0002 1868     		ldr	r0, [r3]
 6750 0004 7047     		bx	lr
 6751              	.L294:
 6752 0006 00BF     		.align	2
 6753              	.L293:
 6754 0008 00000000 		.word	.LANCHOR8
 6755              		.cfi_endproc
ARM GAS  C:\Users\84759\AppData\Local\Temp\cc1QWPm5.s 			page 182


 6756              	.LFE101:
 6758              		.section	.text.LCD_SetColors,"ax",%progbits
 6759              		.align	1
 6760              		.global	LCD_SetColors
 6761              		.syntax unified
 6762              		.thumb
 6763              		.thumb_func
 6765              	LCD_SetColors:
 6766              	.LVL632:
 6767              	.LFB102:
1867:Core/Src/lcd.c **** 
1868:Core/Src/lcd.c **** 
1869:Core/Src/lcd.c **** /**
1870:Core/Src/lcd.c ****   * @brief  ÉčÖĂLCDµÄÇ°ľ°(×ÖĚĺ)Ľ°±łľ°ŃŐÉ«,RGB565
1871:Core/Src/lcd.c ****   * @param  TextColor: Ö¸¶¨Ç°ľ°(×ÖĚĺ)ŃŐÉ«
1872:Core/Src/lcd.c ****   * @param  BackColor: Ö¸¶¨±łľ°ŃŐÉ«
1873:Core/Src/lcd.c ****   * @retval None
1874:Core/Src/lcd.c ****   */
1875:Core/Src/lcd.c **** void LCD_SetColors(uint16_t TextColor, uint16_t BackColor) 
1876:Core/Src/lcd.c **** {
 6768              		.loc 1 1876 1 is_stmt 1 view -0
 6769              		.cfi_startproc
 6770              		@ args = 0, pretend = 0, frame = 0
 6771              		@ frame_needed = 0, uses_anonymous_args = 0
 6772              		@ link register save eliminated.
1877:Core/Src/lcd.c ****   CurrentTextColor = TextColor; 
 6773              		.loc 1 1877 3 view .LVU2247
 6774              		.loc 1 1877 20 is_stmt 0 view .LVU2248
 6775 0000 024B     		ldr	r3, .L296
 6776 0002 1880     		strh	r0, [r3]	@ movhi
1878:Core/Src/lcd.c ****   CurrentBackColor = BackColor;
 6777              		.loc 1 1878 3 is_stmt 1 view .LVU2249
 6778              		.loc 1 1878 20 is_stmt 0 view .LVU2250
 6779 0004 024B     		ldr	r3, .L296+4
 6780 0006 1980     		strh	r1, [r3]	@ movhi
1879:Core/Src/lcd.c **** }
 6781              		.loc 1 1879 1 view .LVU2251
 6782 0008 7047     		bx	lr
 6783              	.L297:
 6784 000a 00BF     		.align	2
 6785              	.L296:
 6786 000c 00000000 		.word	.LANCHOR7
 6787 0010 00000000 		.word	.LANCHOR6
 6788              		.cfi_endproc
 6789              	.LFE102:
 6791              		.section	.text.LCD_GetColors,"ax",%progbits
 6792              		.align	1
 6793              		.global	LCD_GetColors
 6794              		.syntax unified
 6795              		.thumb
 6796              		.thumb_func
 6798              	LCD_GetColors:
 6799              	.LVL633:
 6800              	.LFB103:
1880:Core/Src/lcd.c **** 
1881:Core/Src/lcd.c **** /**
1882:Core/Src/lcd.c ****   * @brief  »ńČˇLCDµÄÇ°ľ°(×ÖĚĺ)Ľ°±łľ°ŃŐÉ«,RGB565
ARM GAS  C:\Users\84759\AppData\Local\Temp\cc1QWPm5.s 			page 183


1883:Core/Src/lcd.c ****   * @param  TextColor: ÓĂŔ´´ć´˘Ç°ľ°(×ÖĚĺ)ŃŐÉ«µÄÖ¸Őë±äÁż
1884:Core/Src/lcd.c ****   * @param  BackColor: ÓĂŔ´´ć´˘±łľ°ŃŐÉ«µÄÖ¸Őë±äÁż
1885:Core/Src/lcd.c ****   * @retval None
1886:Core/Src/lcd.c ****   */
1887:Core/Src/lcd.c **** void LCD_GetColors(uint16_t *TextColor, uint16_t *BackColor)
1888:Core/Src/lcd.c **** {
 6801              		.loc 1 1888 1 is_stmt 1 view -0
 6802              		.cfi_startproc
 6803              		@ args = 0, pretend = 0, frame = 0
 6804              		@ frame_needed = 0, uses_anonymous_args = 0
 6805              		@ link register save eliminated.
1889:Core/Src/lcd.c ****   *TextColor = CurrentTextColor;
 6806              		.loc 1 1889 3 view .LVU2253
 6807              		.loc 1 1889 14 is_stmt 0 view .LVU2254
 6808 0000 034B     		ldr	r3, .L299
 6809 0002 1B88     		ldrh	r3, [r3]
 6810 0004 0380     		strh	r3, [r0]	@ movhi
1890:Core/Src/lcd.c ****   *BackColor = CurrentBackColor;
 6811              		.loc 1 1890 3 is_stmt 1 view .LVU2255
 6812              		.loc 1 1890 14 is_stmt 0 view .LVU2256
 6813 0006 034B     		ldr	r3, .L299+4
 6814 0008 1B88     		ldrh	r3, [r3]
 6815 000a 0B80     		strh	r3, [r1]	@ movhi
1891:Core/Src/lcd.c **** }
 6816              		.loc 1 1891 1 view .LVU2257
 6817 000c 7047     		bx	lr
 6818              	.L300:
 6819 000e 00BF     		.align	2
 6820              	.L299:
 6821 0010 00000000 		.word	.LANCHOR7
 6822 0014 00000000 		.word	.LANCHOR6
 6823              		.cfi_endproc
 6824              	.LFE103:
 6826              		.section	.text.LCD_SetTextColor,"ax",%progbits
 6827              		.align	1
 6828              		.global	LCD_SetTextColor
 6829              		.syntax unified
 6830              		.thumb
 6831              		.thumb_func
 6833              	LCD_SetTextColor:
 6834              	.LVL634:
 6835              	.LFB104:
1892:Core/Src/lcd.c **** 
1893:Core/Src/lcd.c **** /**
1894:Core/Src/lcd.c ****   * @brief  ÉčÖĂLCDµÄÇ°ľ°(×ÖĚĺ)ŃŐÉ«,RGB565
1895:Core/Src/lcd.c ****   * @param  Color: Ö¸¶¨Ç°ľ°(×ÖĚĺ)ŃŐÉ« 
1896:Core/Src/lcd.c ****   * @retval None
1897:Core/Src/lcd.c ****   */
1898:Core/Src/lcd.c **** void LCD_SetTextColor(uint16_t Color)
1899:Core/Src/lcd.c **** {
 6836              		.loc 1 1899 1 is_stmt 1 view -0
 6837              		.cfi_startproc
 6838              		@ args = 0, pretend = 0, frame = 0
 6839              		@ frame_needed = 0, uses_anonymous_args = 0
 6840              		@ link register save eliminated.
1900:Core/Src/lcd.c ****   CurrentTextColor = Color;
 6841              		.loc 1 1900 3 view .LVU2259
ARM GAS  C:\Users\84759\AppData\Local\Temp\cc1QWPm5.s 			page 184


 6842              		.loc 1 1900 20 is_stmt 0 view .LVU2260
 6843 0000 014B     		ldr	r3, .L302
 6844 0002 1880     		strh	r0, [r3]	@ movhi
1901:Core/Src/lcd.c **** }
 6845              		.loc 1 1901 1 view .LVU2261
 6846 0004 7047     		bx	lr
 6847              	.L303:
 6848 0006 00BF     		.align	2
 6849              	.L302:
 6850 0008 00000000 		.word	.LANCHOR7
 6851              		.cfi_endproc
 6852              	.LFE104:
 6854              		.section	.text.LCD_SetBackColor,"ax",%progbits
 6855              		.align	1
 6856              		.global	LCD_SetBackColor
 6857              		.syntax unified
 6858              		.thumb
 6859              		.thumb_func
 6861              	LCD_SetBackColor:
 6862              	.LVL635:
 6863              	.LFB105:
1902:Core/Src/lcd.c **** 
1903:Core/Src/lcd.c **** /**
1904:Core/Src/lcd.c ****   * @brief  ÉčÖĂLCDµÄ±łľ°ŃŐÉ«,RGB565
1905:Core/Src/lcd.c ****   * @param  Color: Ö¸¶¨±łľ°ŃŐÉ« 
1906:Core/Src/lcd.c ****   * @retval None
1907:Core/Src/lcd.c ****   */
1908:Core/Src/lcd.c **** void LCD_SetBackColor(uint16_t Color)
1909:Core/Src/lcd.c **** {
 6864              		.loc 1 1909 1 is_stmt 1 view -0
 6865              		.cfi_startproc
 6866              		@ args = 0, pretend = 0, frame = 0
 6867              		@ frame_needed = 0, uses_anonymous_args = 0
 6868              		@ link register save eliminated.
1910:Core/Src/lcd.c ****   CurrentBackColor = Color;
 6869              		.loc 1 1910 3 view .LVU2263
 6870              		.loc 1 1910 20 is_stmt 0 view .LVU2264
 6871 0000 014B     		ldr	r3, .L305
 6872 0002 1880     		strh	r0, [r3]	@ movhi
1911:Core/Src/lcd.c **** }
 6873              		.loc 1 1911 1 view .LVU2265
 6874 0004 7047     		bx	lr
 6875              	.L306:
 6876 0006 00BF     		.align	2
 6877              	.L305:
 6878 0008 00000000 		.word	.LANCHOR6
 6879              		.cfi_endproc
 6880              	.LFE105:
 6882              		.section	.text.LCD_ClearLine,"ax",%progbits
 6883              		.align	1
 6884              		.global	LCD_ClearLine
 6885              		.syntax unified
 6886              		.thumb
 6887              		.thumb_func
 6889              	LCD_ClearLine:
 6890              	.LVL636:
 6891              	.LFB106:
ARM GAS  C:\Users\84759\AppData\Local\Temp\cc1QWPm5.s 			page 185


1912:Core/Src/lcd.c **** 
1913:Core/Src/lcd.c **** /**
1914:Core/Src/lcd.c ****   * @brief  ÇĺłýÄłĐĐÎÄ×Ö
1915:Core/Src/lcd.c ****   * @param  Line: Ö¸¶¨ŇŞÉľłýµÄĐĐ
1916:Core/Src/lcd.c ****   *   ±ľ˛ÎĘýżÉĘąÓĂşęLINE(0)ˇ˘LINE(1)µČ·˝Ę˝Ö¸¶¨ŇŞÉľłýµÄĐĐŁ¬
1917:Core/Src/lcd.c ****   *   şęLINE(x)»á¸ůľÝµ±Ç°ŃˇÔńµÄ×ÖĚĺŔ´ĽĆËăY×ř±ęÖµŁ¬˛˘Éľłýµ±Ç°×ÖĚĺ¸ß¶ČµÄµÚxĐĐˇŁ
1918:Core/Src/lcd.c ****   * @retval None
1919:Core/Src/lcd.c ****   */
1920:Core/Src/lcd.c **** void LCD_ClearLine(uint16_t Line)
1921:Core/Src/lcd.c **** {
 6892              		.loc 1 1921 1 is_stmt 1 view -0
 6893              		.cfi_startproc
 6894              		@ args = 0, pretend = 0, frame = 0
 6895              		@ frame_needed = 0, uses_anonymous_args = 0
 6896              		.loc 1 1921 1 is_stmt 0 view .LVU2267
 6897 0000 38B5     		push	{r3, r4, r5, lr}
 6898              	.LCFI44:
 6899              		.cfi_def_cfa_offset 16
 6900              		.cfi_offset 3, -16
 6901              		.cfi_offset 4, -12
 6902              		.cfi_offset 5, -8
 6903              		.cfi_offset 14, -4
 6904 0002 0446     		mov	r4, r0
1922:Core/Src/lcd.c ****   ILI9341_Clear(0,Line,LCD_X_LENGTH,((sFONT *)LCD_GetFont())->Height);	/* ÇĺĆÁŁ¬ĎÔĘľČ«şÚ */
 6905              		.loc 1 1922 3 is_stmt 1 view .LVU2268
 6906 0004 054B     		ldr	r3, .L309
 6907 0006 1D88     		ldrh	r5, [r3]
 6908              		.loc 1 1922 38 is_stmt 0 view .LVU2269
 6909 0008 FFF7FEFF 		bl	LCD_GetFont
 6910              	.LVL637:
 6911              		.loc 1 1922 3 view .LVU2270
 6912 000c C388     		ldrh	r3, [r0, #6]
 6913 000e 2A46     		mov	r2, r5
 6914 0010 2146     		mov	r1, r4
 6915 0012 0020     		movs	r0, #0
 6916 0014 FFF7FEFF 		bl	ILI9341_Clear
 6917              	.LVL638:
1923:Core/Src/lcd.c **** 
1924:Core/Src/lcd.c **** }
 6918              		.loc 1 1924 1 view .LVU2271
 6919 0018 38BD     		pop	{r3, r4, r5, pc}
 6920              	.L310:
 6921 001a 00BF     		.align	2
 6922              	.L309:
 6923 001c 00000000 		.word	.LANCHOR4
 6924              		.cfi_endproc
 6925              	.LFE106:
 6927              		.global	zoomTempBuff
 6928              		.global	zoomBuff
 6929              		.global	lcdid
 6930              		.global	LCD_SCAN_MODE
 6931              		.global	LCD_Y_LENGTH
 6932              		.global	LCD_X_LENGTH
 6933              		.section	.bss.CurrentTextColor,"aw",%nobits
 6934              		.align	1
 6935              		.set	.LANCHOR7,. + 0
 6938              	CurrentTextColor:
ARM GAS  C:\Users\84759\AppData\Local\Temp\cc1QWPm5.s 			page 186


 6939 0000 0000     		.space	2
 6940              		.section	.bss.SRAM_Handler,"aw",%nobits
 6941              		.align	2
 6942              		.set	.LANCHOR0,. + 0
 6945              	SRAM_Handler:
 6946 0000 00000000 		.space	72
 6946      00000000 
 6946      00000000 
 6946      00000000 
 6946      00000000 
 6947              		.section	.bss.Timing,"aw",%nobits
 6948              		.align	2
 6949              		.set	.LANCHOR1,. + 0
 6952              	Timing:
 6953 0000 00000000 		.space	28
 6953      00000000 
 6953      00000000 
 6953      00000000 
 6953      00000000 
 6954              		.section	.bss.lcdid,"aw",%nobits
 6955              		.align	1
 6956              		.set	.LANCHOR2,. + 0
 6959              	lcdid:
 6960 0000 0000     		.space	2
 6961              		.section	.bss.zoomBuff,"aw",%nobits
 6962              		.align	2
 6965              	zoomBuff:
 6966 0000 00000000 		.space	16384
 6966      00000000 
 6966      00000000 
 6966      00000000 
 6966      00000000 
 6967              		.section	.bss.zoomTempBuff,"aw",%nobits
 6968              		.align	2
 6969              		.set	.LANCHOR9,. + 0
 6972              	zoomTempBuff:
 6973 0000 00000000 		.space	1024
 6973      00000000 
 6973      00000000 
 6973      00000000 
 6973      00000000 
 6974              		.section	.data.CurrentBackColor,"aw"
 6975              		.align	1
 6976              		.set	.LANCHOR6,. + 0
 6979              	CurrentBackColor:
 6980 0000 FFFF     		.short	-1
 6981              		.section	.data.LCD_Currentfonts,"aw"
 6982              		.align	2
 6983              		.set	.LANCHOR8,. + 0
 6986              	LCD_Currentfonts:
 6987 0000 00000000 		.word	Font8x16
 6988              		.section	.data.LCD_SCAN_MODE,"aw"
 6989              		.set	.LANCHOR3,. + 0
 6992              	LCD_SCAN_MODE:
 6993 0000 06       		.byte	6
 6994              		.section	.data.LCD_X_LENGTH,"aw"
 6995              		.align	1
ARM GAS  C:\Users\84759\AppData\Local\Temp\cc1QWPm5.s 			page 187


 6996              		.set	.LANCHOR4,. + 0
 6999              	LCD_X_LENGTH:
 7000 0000 F000     		.short	240
 7001              		.section	.data.LCD_Y_LENGTH,"aw"
 7002              		.align	1
 7003              		.set	.LANCHOR5,. + 0
 7006              	LCD_Y_LENGTH:
 7007 0000 4001     		.short	320
 7008              		.text
 7009              	.Letext0:
 7010              		.file 2 "d:\\mingw\\gcc-arm-none-eabi-10.3-2021.10-win32\\gcc-arm-none-eabi-10.3-2021.10\\arm-none
 7011              		.file 3 "d:\\mingw\\gcc-arm-none-eabi-10.3-2021.10-win32\\gcc-arm-none-eabi-10.3-2021.10\\arm-none
 7012              		.file 4 "Drivers/CMSIS/Device/ST/STM32F1xx/Include/stm32f103xe.h"
 7013              		.file 5 "Drivers/CMSIS/Device/ST/STM32F1xx/Include/stm32f1xx.h"
 7014              		.file 6 "Drivers/STM32F1xx_HAL_Driver/Inc/stm32f1xx_hal_def.h"
 7015              		.file 7 "Drivers/STM32F1xx_HAL_Driver/Inc/stm32f1xx_hal_gpio.h"
 7016              		.file 8 "Drivers/STM32F1xx_HAL_Driver/Inc/stm32f1xx_hal_dma.h"
 7017              		.file 9 "Drivers/STM32F1xx_HAL_Driver/Inc/stm32f1xx_ll_fsmc.h"
 7018              		.file 10 "Drivers/STM32F1xx_HAL_Driver/Inc/stm32f1xx_hal_sram.h"
 7019              		.file 11 "Core/Inc/fonts.h"
 7020              		.file 12 "Core/Inc/lcd.h"
ARM GAS  C:\Users\84759\AppData\Local\Temp\cc1QWPm5.s 			page 188


DEFINED SYMBOLS
                            *ABS*:00000000 lcd.c
C:\Users\84759\AppData\Local\Temp\cc1QWPm5.s:18     .text.ILI9341_Delay:00000000 $t
C:\Users\84759\AppData\Local\Temp\cc1QWPm5.s:23     .text.ILI9341_Delay:00000000 ILI9341_Delay
C:\Users\84759\AppData\Local\Temp\cc1QWPm5.s:63     .text.ILI9341_Read_PixelData:00000000 $t
C:\Users\84759\AppData\Local\Temp\cc1QWPm5.s:68     .text.ILI9341_Read_PixelData:00000000 ILI9341_Read_PixelData
C:\Users\84759\AppData\Local\Temp\cc1QWPm5.s:147    .text.ILI9341_GPIO_Config:00000000 $t
C:\Users\84759\AppData\Local\Temp\cc1QWPm5.s:152    .text.ILI9341_GPIO_Config:00000000 ILI9341_GPIO_Config
C:\Users\84759\AppData\Local\Temp\cc1QWPm5.s:313    .text.ILI9341_GPIO_Config:000000b8 $d
C:\Users\84759\AppData\Local\Temp\cc1QWPm5.s:321    .text.ILI9341_FSMC_Config:00000000 $t
C:\Users\84759\AppData\Local\Temp\cc1QWPm5.s:326    .text.ILI9341_FSMC_Config:00000000 ILI9341_FSMC_Config
C:\Users\84759\AppData\Local\Temp\cc1QWPm5.s:426    .text.ILI9341_FSMC_Config:00000058 $d
C:\Users\84759\AppData\Local\Temp\cc1QWPm5.s:432    .text.ILI9341_Write_Cmd:00000000 $t
C:\Users\84759\AppData\Local\Temp\cc1QWPm5.s:438    .text.ILI9341_Write_Cmd:00000000 ILI9341_Write_Cmd
C:\Users\84759\AppData\Local\Temp\cc1QWPm5.s:456    .text.ILI9341_Write_Data:00000000 $t
C:\Users\84759\AppData\Local\Temp\cc1QWPm5.s:462    .text.ILI9341_Write_Data:00000000 ILI9341_Write_Data
C:\Users\84759\AppData\Local\Temp\cc1QWPm5.s:480    .text.ILI9341_Read_Data:00000000 $t
C:\Users\84759\AppData\Local\Temp\cc1QWPm5.s:486    .text.ILI9341_Read_Data:00000000 ILI9341_Read_Data
C:\Users\84759\AppData\Local\Temp\cc1QWPm5.s:504    .text.ILI9341_BackLed_Control:00000000 $t
C:\Users\84759\AppData\Local\Temp\cc1QWPm5.s:510    .text.ILI9341_BackLed_Control:00000000 ILI9341_BackLed_Control
C:\Users\84759\AppData\Local\Temp\cc1QWPm5.s:538    .text.ILI9341_BackLed_Control:00000014 $d
C:\Users\84759\AppData\Local\Temp\cc1QWPm5.s:543    .text.ILI9341_ReadID:00000000 $t
C:\Users\84759\AppData\Local\Temp\cc1QWPm5.s:549    .text.ILI9341_ReadID:00000000 ILI9341_ReadID
C:\Users\84759\AppData\Local\Temp\cc1QWPm5.s:719    .text.ILI9341_REG_Config:00000000 $t
C:\Users\84759\AppData\Local\Temp\cc1QWPm5.s:724    .text.ILI9341_REG_Config:00000000 ILI9341_REG_Config
C:\Users\84759\AppData\Local\Temp\cc1QWPm5.s:1941   .text.ILI9341_REG_Config:000001a4 $d
C:\Users\84759\AppData\Local\Temp\cc1QWPm5.s:1956   .text.ILI9341_REG_Config:000001ac $t
C:\Users\84759\AppData\Local\Temp\cc1QWPm5.s:3002   .text.ILI9341_REG_Config:000002f8 $d
C:\Users\84759\AppData\Local\Temp\cc1QWPm5.s:3007   .text.ILI9341_Rst:00000000 $t
C:\Users\84759\AppData\Local\Temp\cc1QWPm5.s:3013   .text.ILI9341_Rst:00000000 ILI9341_Rst
C:\Users\84759\AppData\Local\Temp\cc1QWPm5.s:3046   .text.ILI9341_Rst:00000024 $d
C:\Users\84759\AppData\Local\Temp\cc1QWPm5.s:3051   .text.ILI9341_GramScan:00000000 $t
C:\Users\84759\AppData\Local\Temp\cc1QWPm5.s:3057   .text.ILI9341_GramScan:00000000 ILI9341_GramScan
C:\Users\84759\AppData\Local\Temp\cc1QWPm5.s:3357   .text.ILI9341_GramScan:000000b0 $d
C:\Users\84759\AppData\Local\Temp\cc1QWPm5.s:3367   .text.ILI9341_Init:00000000 $t
C:\Users\84759\AppData\Local\Temp\cc1QWPm5.s:3373   .text.ILI9341_Init:00000000 ILI9341_Init
C:\Users\84759\AppData\Local\Temp\cc1QWPm5.s:3410   .text.ILI9341_Init:00000024 $d
C:\Users\84759\AppData\Local\Temp\cc1QWPm5.s:3415   .text.ILI9341_OpenWindow:00000000 $t
C:\Users\84759\AppData\Local\Temp\cc1QWPm5.s:3421   .text.ILI9341_OpenWindow:00000000 ILI9341_OpenWindow
C:\Users\84759\AppData\Local\Temp\cc1QWPm5.s:3605   .text.ILI9341_SetCursor:00000000 $t
C:\Users\84759\AppData\Local\Temp\cc1QWPm5.s:3610   .text.ILI9341_SetCursor:00000000 ILI9341_SetCursor
C:\Users\84759\AppData\Local\Temp\cc1QWPm5.s:3634   .text.ILI9341_Clear:00000000 $t
C:\Users\84759\AppData\Local\Temp\cc1QWPm5.s:3640   .text.ILI9341_Clear:00000000 ILI9341_Clear
C:\Users\84759\AppData\Local\Temp\cc1QWPm5.s:3724   .text.ILI9341_Clear:0000002c $d
C:\Users\84759\AppData\Local\Temp\cc1QWPm5.s:3729   .text.ILI9341_SetPointPixel:00000000 $t
C:\Users\84759\AppData\Local\Temp\cc1QWPm5.s:3735   .text.ILI9341_SetPointPixel:00000000 ILI9341_SetPointPixel
C:\Users\84759\AppData\Local\Temp\cc1QWPm5.s:3826   .text.ILI9341_SetPointPixel:00000038 $d
C:\Users\84759\AppData\Local\Temp\cc1QWPm5.s:3835   .text.ILI9341_GetPointPixel:00000000 $t
C:\Users\84759\AppData\Local\Temp\cc1QWPm5.s:3841   .text.ILI9341_GetPointPixel:00000000 ILI9341_GetPointPixel
C:\Users\84759\AppData\Local\Temp\cc1QWPm5.s:3869   .text.ILI9341_DrawLine:00000000 $t
C:\Users\84759\AppData\Local\Temp\cc1QWPm5.s:3875   .text.ILI9341_DrawLine:00000000 ILI9341_DrawLine
C:\Users\84759\AppData\Local\Temp\cc1QWPm5.s:4083   .text.ILI9341_DrawRectangle:00000000 $t
C:\Users\84759\AppData\Local\Temp\cc1QWPm5.s:4089   .text.ILI9341_DrawRectangle:00000000 ILI9341_DrawRectangle
C:\Users\84759\AppData\Local\Temp\cc1QWPm5.s:4228   .text.ILI9341_DrawRectangle:00000078 $d
C:\Users\84759\AppData\Local\Temp\cc1QWPm5.s:4233   .text.ILI9341_DrawCircle:00000000 $t
C:\Users\84759\AppData\Local\Temp\cc1QWPm5.s:4239   .text.ILI9341_DrawCircle:00000000 ILI9341_DrawCircle
C:\Users\84759\AppData\Local\Temp\cc1QWPm5.s:4507   .text.ILI9341_DispChar_EN:00000000 $t
ARM GAS  C:\Users\84759\AppData\Local\Temp\cc1QWPm5.s 			page 189


C:\Users\84759\AppData\Local\Temp\cc1QWPm5.s:4513   .text.ILI9341_DispChar_EN:00000000 ILI9341_DispChar_EN
C:\Users\84759\AppData\Local\Temp\cc1QWPm5.s:4669   .text.ILI9341_DispChar_EN:00000070 $d
C:\Users\84759\AppData\Local\Temp\cc1QWPm5.s:4676   .text.ILI9341_DispStringLine_EN:00000000 $t
C:\Users\84759\AppData\Local\Temp\cc1QWPm5.s:4682   .text.ILI9341_DispStringLine_EN:00000000 ILI9341_DispStringLine_EN
C:\Users\84759\AppData\Local\Temp\cc1QWPm5.s:4788   .text.ILI9341_DispStringLine_EN:00000050 $d
C:\Users\84759\AppData\Local\Temp\cc1QWPm5.s:4795   .text.ILI9341_DispString_EN:00000000 $t
C:\Users\84759\AppData\Local\Temp\cc1QWPm5.s:4801   .text.ILI9341_DispString_EN:00000000 ILI9341_DispString_EN
C:\Users\84759\AppData\Local\Temp\cc1QWPm5.s:4904   .text.ILI9341_DispString_EN:00000050 $d
C:\Users\84759\AppData\Local\Temp\cc1QWPm5.s:4911   .text.ILI9341_DispString_EN_YDir:00000000 $t
C:\Users\84759\AppData\Local\Temp\cc1QWPm5.s:4917   .text.ILI9341_DispString_EN_YDir:00000000 ILI9341_DispString_EN_YDir
C:\Users\84759\AppData\Local\Temp\cc1QWPm5.s:5020   .text.ILI9341_DispString_EN_YDir:00000050 $d
C:\Users\84759\AppData\Local\Temp\cc1QWPm5.s:5027   .text.ILI9341_DispChar_CH:00000000 $t
C:\Users\84759\AppData\Local\Temp\cc1QWPm5.s:5033   .text.ILI9341_DispChar_CH:00000000 ILI9341_DispChar_CH
C:\Users\84759\AppData\Local\Temp\cc1QWPm5.s:5187   .text.ILI9341_DispChar_CH:0000007c $d
C:\Users\84759\AppData\Local\Temp\cc1QWPm5.s:5193   .text.ILI9341_DispString_CH:00000000 $t
C:\Users\84759\AppData\Local\Temp\cc1QWPm5.s:5199   .text.ILI9341_DispString_CH:00000000 ILI9341_DispString_CH
C:\Users\84759\AppData\Local\Temp\cc1QWPm5.s:5296   .text.ILI9341_DispString_CH:00000048 $d
C:\Users\84759\AppData\Local\Temp\cc1QWPm5.s:5302   .text.ILI9341_DispStringLine_EN_CH:00000000 $t
C:\Users\84759\AppData\Local\Temp\cc1QWPm5.s:5308   .text.ILI9341_DispStringLine_EN_CH:00000000 ILI9341_DispStringLine_EN_CH
C:\Users\84759\AppData\Local\Temp\cc1QWPm5.s:5484   .text.ILI9341_DispStringLine_EN_CH:0000008c $d
C:\Users\84759\AppData\Local\Temp\cc1QWPm5.s:5491   .text.ILI9341_DispString_EN_CH:00000000 $t
C:\Users\84759\AppData\Local\Temp\cc1QWPm5.s:5497   .text.ILI9341_DispString_EN_CH:00000000 ILI9341_DispString_EN_CH
C:\Users\84759\AppData\Local\Temp\cc1QWPm5.s:5670   .text.ILI9341_DispString_EN_CH:0000008c $d
C:\Users\84759\AppData\Local\Temp\cc1QWPm5.s:5677   .text.ILI9341_DispString_EN_CH_YDir:00000000 $t
C:\Users\84759\AppData\Local\Temp\cc1QWPm5.s:5683   .text.ILI9341_DispString_EN_CH_YDir:00000000 ILI9341_DispString_EN_CH_YDir
C:\Users\84759\AppData\Local\Temp\cc1QWPm5.s:5802   .text.ILI9341_DispString_EN_CH_YDir:0000005c $d
C:\Users\84759\AppData\Local\Temp\cc1QWPm5.s:5808   .text.ILI9341_zoomChar:00000000 $t
C:\Users\84759\AppData\Local\Temp\cc1QWPm5.s:5814   .text.ILI9341_zoomChar:00000000 ILI9341_zoomChar
C:\Users\84759\AppData\Local\Temp\cc1QWPm5.s:6094   .text.ILI9341_zoomChar:00000114 $d
C:\Users\84759\AppData\Local\Temp\cc1QWPm5.s:6965   .bss.zoomBuff:00000000 zoomBuff
C:\Users\84759\AppData\Local\Temp\cc1QWPm5.s:6100   .text.ILI9341_DrawChar_Ex:00000000 $t
C:\Users\84759\AppData\Local\Temp\cc1QWPm5.s:6106   .text.ILI9341_DrawChar_Ex:00000000 ILI9341_DrawChar_Ex
C:\Users\84759\AppData\Local\Temp\cc1QWPm5.s:6231   .text.ILI9341_DrawChar_Ex:00000054 $d
C:\Users\84759\AppData\Local\Temp\cc1QWPm5.s:6237   .text.ILI9341_DisplayStringEx:00000000 $t
C:\Users\84759\AppData\Local\Temp\cc1QWPm5.s:6243   .text.ILI9341_DisplayStringEx:00000000 ILI9341_DisplayStringEx
C:\Users\84759\AppData\Local\Temp\cc1QWPm5.s:6465   .text.ILI9341_DisplayStringEx:000000e4 $d
C:\Users\84759\AppData\Local\Temp\cc1QWPm5.s:6473   .text.ILI9341_DisplayStringEx_YDir:00000000 $t
C:\Users\84759\AppData\Local\Temp\cc1QWPm5.s:6479   .text.ILI9341_DisplayStringEx_YDir:00000000 ILI9341_DisplayStringEx_YDir
C:\Users\84759\AppData\Local\Temp\cc1QWPm5.s:6697   .text.ILI9341_DisplayStringEx_YDir:000000e0 $d
C:\Users\84759\AppData\Local\Temp\cc1QWPm5.s:6705   .text.LCD_SetFont:00000000 $t
C:\Users\84759\AppData\Local\Temp\cc1QWPm5.s:6711   .text.LCD_SetFont:00000000 LCD_SetFont
C:\Users\84759\AppData\Local\Temp\cc1QWPm5.s:6728   .text.LCD_SetFont:00000008 $d
C:\Users\84759\AppData\Local\Temp\cc1QWPm5.s:6733   .text.LCD_GetFont:00000000 $t
C:\Users\84759\AppData\Local\Temp\cc1QWPm5.s:6739   .text.LCD_GetFont:00000000 LCD_GetFont
C:\Users\84759\AppData\Local\Temp\cc1QWPm5.s:6754   .text.LCD_GetFont:00000008 $d
C:\Users\84759\AppData\Local\Temp\cc1QWPm5.s:6759   .text.LCD_SetColors:00000000 $t
C:\Users\84759\AppData\Local\Temp\cc1QWPm5.s:6765   .text.LCD_SetColors:00000000 LCD_SetColors
C:\Users\84759\AppData\Local\Temp\cc1QWPm5.s:6786   .text.LCD_SetColors:0000000c $d
C:\Users\84759\AppData\Local\Temp\cc1QWPm5.s:6792   .text.LCD_GetColors:00000000 $t
C:\Users\84759\AppData\Local\Temp\cc1QWPm5.s:6798   .text.LCD_GetColors:00000000 LCD_GetColors
C:\Users\84759\AppData\Local\Temp\cc1QWPm5.s:6821   .text.LCD_GetColors:00000010 $d
C:\Users\84759\AppData\Local\Temp\cc1QWPm5.s:6827   .text.LCD_SetTextColor:00000000 $t
C:\Users\84759\AppData\Local\Temp\cc1QWPm5.s:6833   .text.LCD_SetTextColor:00000000 LCD_SetTextColor
C:\Users\84759\AppData\Local\Temp\cc1QWPm5.s:6850   .text.LCD_SetTextColor:00000008 $d
C:\Users\84759\AppData\Local\Temp\cc1QWPm5.s:6855   .text.LCD_SetBackColor:00000000 $t
C:\Users\84759\AppData\Local\Temp\cc1QWPm5.s:6861   .text.LCD_SetBackColor:00000000 LCD_SetBackColor
C:\Users\84759\AppData\Local\Temp\cc1QWPm5.s:6878   .text.LCD_SetBackColor:00000008 $d
ARM GAS  C:\Users\84759\AppData\Local\Temp\cc1QWPm5.s 			page 190


C:\Users\84759\AppData\Local\Temp\cc1QWPm5.s:6883   .text.LCD_ClearLine:00000000 $t
C:\Users\84759\AppData\Local\Temp\cc1QWPm5.s:6889   .text.LCD_ClearLine:00000000 LCD_ClearLine
C:\Users\84759\AppData\Local\Temp\cc1QWPm5.s:6923   .text.LCD_ClearLine:0000001c $d
C:\Users\84759\AppData\Local\Temp\cc1QWPm5.s:6972   .bss.zoomTempBuff:00000000 zoomTempBuff
C:\Users\84759\AppData\Local\Temp\cc1QWPm5.s:6959   .bss.lcdid:00000000 lcdid
C:\Users\84759\AppData\Local\Temp\cc1QWPm5.s:6992   .data.LCD_SCAN_MODE:00000000 LCD_SCAN_MODE
C:\Users\84759\AppData\Local\Temp\cc1QWPm5.s:7006   .data.LCD_Y_LENGTH:00000000 LCD_Y_LENGTH
C:\Users\84759\AppData\Local\Temp\cc1QWPm5.s:6999   .data.LCD_X_LENGTH:00000000 LCD_X_LENGTH
C:\Users\84759\AppData\Local\Temp\cc1QWPm5.s:6934   .bss.CurrentTextColor:00000000 $d
C:\Users\84759\AppData\Local\Temp\cc1QWPm5.s:6938   .bss.CurrentTextColor:00000000 CurrentTextColor
C:\Users\84759\AppData\Local\Temp\cc1QWPm5.s:6941   .bss.SRAM_Handler:00000000 $d
C:\Users\84759\AppData\Local\Temp\cc1QWPm5.s:6945   .bss.SRAM_Handler:00000000 SRAM_Handler
C:\Users\84759\AppData\Local\Temp\cc1QWPm5.s:6948   .bss.Timing:00000000 $d
C:\Users\84759\AppData\Local\Temp\cc1QWPm5.s:6952   .bss.Timing:00000000 Timing
C:\Users\84759\AppData\Local\Temp\cc1QWPm5.s:6955   .bss.lcdid:00000000 $d
C:\Users\84759\AppData\Local\Temp\cc1QWPm5.s:6962   .bss.zoomBuff:00000000 $d
C:\Users\84759\AppData\Local\Temp\cc1QWPm5.s:6968   .bss.zoomTempBuff:00000000 $d
C:\Users\84759\AppData\Local\Temp\cc1QWPm5.s:6975   .data.CurrentBackColor:00000000 $d
C:\Users\84759\AppData\Local\Temp\cc1QWPm5.s:6979   .data.CurrentBackColor:00000000 CurrentBackColor
C:\Users\84759\AppData\Local\Temp\cc1QWPm5.s:6982   .data.LCD_Currentfonts:00000000 $d
C:\Users\84759\AppData\Local\Temp\cc1QWPm5.s:6986   .data.LCD_Currentfonts:00000000 LCD_Currentfonts
C:\Users\84759\AppData\Local\Temp\cc1QWPm5.s:6995   .data.LCD_X_LENGTH:00000000 $d
C:\Users\84759\AppData\Local\Temp\cc1QWPm5.s:7002   .data.LCD_Y_LENGTH:00000000 $d

UNDEFINED SYMBOLS
HAL_GPIO_Init
HAL_SRAM_Init
GetGBKCode_from_EXFlash
Font16x24
Font8x16
