ARM GAS  C:\Users\84759\AppData\Local\Temp\ccrnlk53.s 			page 1


   1              		.cpu cortex-m3
   2              		.arch armv7-m
   3              		.fpu softvfp
   4              		.eabi_attribute 20, 1
   5              		.eabi_attribute 21, 1
   6              		.eabi_attribute 23, 3
   7              		.eabi_attribute 24, 1
   8              		.eabi_attribute 25, 1
   9              		.eabi_attribute 26, 1
  10              		.eabi_attribute 30, 1
  11              		.eabi_attribute 34, 1
  12              		.eabi_attribute 18, 4
  13              		.file	"led.c"
  14              		.text
  15              	.Ltext0:
  16              		.cfi_sections	.debug_frame
  17              		.section	.text.LED_GPIO_Config,"ax",%progbits
  18              		.align	1
  19              		.global	LED_GPIO_Config
  20              		.syntax unified
  21              		.thumb
  22              		.thumb_func
  24              	LED_GPIO_Config:
  25              	.LFB65:
  26              		.file 1 "Core/Src/led.c"
   1:Core/Src/led.c **** /**
   2:Core/Src/led.c ****   ******************************************************************************
   3:Core/Src/led.c ****   * @file    bsp_led.c
   4:Core/Src/led.c ****   * @author  fire
   5:Core/Src/led.c ****   * @version V1.0
   6:Core/Src/led.c ****   * @date    2017-xx-xx
   7:Core/Src/led.c ****   * @brief   led应用函数接口
   8:Core/Src/led.c ****   ******************************************************************************
   9:Core/Src/led.c ****   * @attention
  10:Core/Src/led.c ****   *
  11:Core/Src/led.c ****   * 实验平台:野火 STM32 F103 开发板  
  12:Core/Src/led.c ****   * 论坛    :http://www.firebbs.cn
  13:Core/Src/led.c ****   * 淘宝    :http://firestm32.taobao.com
  14:Core/Src/led.c ****   *
  15:Core/Src/led.c ****   ******************************************************************************
  16:Core/Src/led.c ****   */
  17:Core/Src/led.c ****   
  18:Core/Src/led.c **** #include "led.h"   
  19:Core/Src/led.c **** 
  20:Core/Src/led.c ****  /**
  21:Core/Src/led.c ****   * @brief  初始化控制LED的IO
  22:Core/Src/led.c ****   * @param  无
  23:Core/Src/led.c ****   * @retval 无
  24:Core/Src/led.c ****   */
  25:Core/Src/led.c **** void LED_GPIO_Config(void)
  26:Core/Src/led.c **** {				
  27              		.loc 1 26 1 view -0
  28              		.cfi_startproc
  29              		@ args = 0, pretend = 0, frame = 32
  30              		@ frame_needed = 0, uses_anonymous_args = 0
  31 0000 F0B5     		push	{r4, r5, r6, r7, lr}
  32              	.LCFI0:
ARM GAS  C:\Users\84759\AppData\Local\Temp\ccrnlk53.s 			page 2


  33              		.cfi_def_cfa_offset 20
  34              		.cfi_offset 4, -20
  35              		.cfi_offset 5, -16
  36              		.cfi_offset 6, -12
  37              		.cfi_offset 7, -8
  38              		.cfi_offset 14, -4
  39 0002 89B0     		sub	sp, sp, #36
  40              	.LCFI1:
  41              		.cfi_def_cfa_offset 56
  27:Core/Src/led.c ****     /*定义一个GPIO_InitTypeDef类型的结构体*/
  28:Core/Src/led.c ****     GPIO_InitTypeDef  GPIO_InitStruct;
  42              		.loc 1 28 5 view .LVU1
  29:Core/Src/led.c **** 
  30:Core/Src/led.c ****     /*开启LED相关的GPIO外设时钟*/
  31:Core/Src/led.c ****     LED1_GPIO_CLK_ENABLE();
  43              		.loc 1 31 5 view .LVU2
  44              	.LBB2:
  45              		.loc 1 31 5 view .LVU3
  46              		.loc 1 31 5 view .LVU4
  47 0004 1B4B     		ldr	r3, .L3
  48 0006 9A69     		ldr	r2, [r3, #24]
  49 0008 42F00802 		orr	r2, r2, #8
  50 000c 9A61     		str	r2, [r3, #24]
  51              		.loc 1 31 5 view .LVU5
  52 000e 9A69     		ldr	r2, [r3, #24]
  53 0010 02F00802 		and	r2, r2, #8
  54 0014 0192     		str	r2, [sp, #4]
  55              		.loc 1 31 5 view .LVU6
  56 0016 019A     		ldr	r2, [sp, #4]
  57              	.LBE2:
  58              		.loc 1 31 5 view .LVU7
  32:Core/Src/led.c ****     LED2_GPIO_CLK_ENABLE();
  59              		.loc 1 32 5 view .LVU8
  60              	.LBB3:
  61              		.loc 1 32 5 view .LVU9
  62              		.loc 1 32 5 view .LVU10
  63 0018 9A69     		ldr	r2, [r3, #24]
  64 001a 42F00802 		orr	r2, r2, #8
  65 001e 9A61     		str	r2, [r3, #24]
  66              		.loc 1 32 5 view .LVU11
  67 0020 9A69     		ldr	r2, [r3, #24]
  68 0022 02F00802 		and	r2, r2, #8
  69 0026 0292     		str	r2, [sp, #8]
  70              		.loc 1 32 5 view .LVU12
  71 0028 029A     		ldr	r2, [sp, #8]
  72              	.LBE3:
  73              		.loc 1 32 5 view .LVU13
  33:Core/Src/led.c ****     LED3_GPIO_CLK_ENABLE();
  74              		.loc 1 33 5 view .LVU14
  75              	.LBB4:
  76              		.loc 1 33 5 view .LVU15
  77              		.loc 1 33 5 view .LVU16
  78 002a 9A69     		ldr	r2, [r3, #24]
  79 002c 42F00802 		orr	r2, r2, #8
  80 0030 9A61     		str	r2, [r3, #24]
  81              		.loc 1 33 5 view .LVU17
  82 0032 9B69     		ldr	r3, [r3, #24]
ARM GAS  C:\Users\84759\AppData\Local\Temp\ccrnlk53.s 			page 3


  83 0034 03F00803 		and	r3, r3, #8
  84 0038 0393     		str	r3, [sp, #12]
  85              		.loc 1 33 5 view .LVU18
  86 003a 039B     		ldr	r3, [sp, #12]
  87              	.LBE4:
  88              		.loc 1 33 5 view .LVU19
  34:Core/Src/led.c ****   
  35:Core/Src/led.c ****     /*选择要控制的GPIO引脚*/															   
  36:Core/Src/led.c ****     GPIO_InitStruct.Pin = LED1_PIN;	
  89              		.loc 1 36 5 view .LVU20
  90              		.loc 1 36 25 is_stmt 0 view .LVU21
  91 003c 2027     		movs	r7, #32
  92 003e 0497     		str	r7, [sp, #16]
  37:Core/Src/led.c **** 
  38:Core/Src/led.c ****     /*设置引脚的输出类型为推挽输出*/
  39:Core/Src/led.c ****     GPIO_InitStruct.Mode  = GPIO_MODE_OUTPUT_PP;  
  93              		.loc 1 39 5 is_stmt 1 view .LVU22
  94              		.loc 1 39 27 is_stmt 0 view .LVU23
  95 0040 0125     		movs	r5, #1
  96 0042 0595     		str	r5, [sp, #20]
  40:Core/Src/led.c **** 
  41:Core/Src/led.c ****     /*设置引脚为上拉模式*/
  42:Core/Src/led.c ****     GPIO_InitStruct.Pull  = GPIO_PULLUP;
  97              		.loc 1 42 5 is_stmt 1 view .LVU24
  98              		.loc 1 42 27 is_stmt 0 view .LVU25
  99 0044 0695     		str	r5, [sp, #24]
  43:Core/Src/led.c **** 
  44:Core/Src/led.c ****     /*设置引脚速率为高速 */   
  45:Core/Src/led.c ****     GPIO_InitStruct.Speed = GPIO_SPEED_FREQ_HIGH;
 100              		.loc 1 45 5 is_stmt 1 view .LVU26
 101              		.loc 1 45 27 is_stmt 0 view .LVU27
 102 0046 0323     		movs	r3, #3
 103 0048 0793     		str	r3, [sp, #28]
  46:Core/Src/led.c **** 
  47:Core/Src/led.c ****     /*调用库函数，使用上面配置的GPIO_InitStructure初始化GPIO*/
  48:Core/Src/led.c ****     HAL_GPIO_Init(LED1_GPIO_PORT, &GPIO_InitStruct);	
 104              		.loc 1 48 5 is_stmt 1 view .LVU28
 105 004a 0B4C     		ldr	r4, .L3+4
 106 004c 04A9     		add	r1, sp, #16
 107 004e 2046     		mov	r0, r4
 108 0050 FFF7FEFF 		bl	HAL_GPIO_Init
 109              	.LVL0:
  49:Core/Src/led.c **** 
  50:Core/Src/led.c ****     /*选择要控制的GPIO引脚*/															   
  51:Core/Src/led.c ****     GPIO_InitStruct.Pin = LED2_PIN;	
 110              		.loc 1 51 5 view .LVU29
 111              		.loc 1 51 25 is_stmt 0 view .LVU30
 112 0054 0495     		str	r5, [sp, #16]
  52:Core/Src/led.c ****     HAL_GPIO_Init(LED2_GPIO_PORT, &GPIO_InitStruct);	
 113              		.loc 1 52 5 is_stmt 1 view .LVU31
 114 0056 04A9     		add	r1, sp, #16
 115 0058 2046     		mov	r0, r4
 116 005a FFF7FEFF 		bl	HAL_GPIO_Init
 117              	.LVL1:
  53:Core/Src/led.c **** 
  54:Core/Src/led.c ****     /*选择要控制的GPIO引脚*/															   
  55:Core/Src/led.c ****     GPIO_InitStruct.Pin = LED3_PIN;	
ARM GAS  C:\Users\84759\AppData\Local\Temp\ccrnlk53.s 			page 4


 118              		.loc 1 55 5 view .LVU32
 119              		.loc 1 55 25 is_stmt 0 view .LVU33
 120 005e 0226     		movs	r6, #2
 121 0060 0496     		str	r6, [sp, #16]
  56:Core/Src/led.c ****     HAL_GPIO_Init(LED3_GPIO_PORT, &GPIO_InitStruct);	
 122              		.loc 1 56 5 is_stmt 1 view .LVU34
 123 0062 04A9     		add	r1, sp, #16
 124 0064 2046     		mov	r0, r4
 125 0066 FFF7FEFF 		bl	HAL_GPIO_Init
 126              	.LVL2:
  57:Core/Src/led.c **** 
  58:Core/Src/led.c ****     /*关闭RGB灯*/
  59:Core/Src/led.c ****     LED_RGBOFF;
 127              		.loc 1 59 5 view .LVU35
 128 006a 2761     		str	r7, [r4, #16]
 129              		.loc 1 59 5 view .LVU36
 130              		.loc 1 59 5 view .LVU37
 131 006c 2561     		str	r5, [r4, #16]
 132              		.loc 1 59 5 view .LVU38
 133 006e 2661     		str	r6, [r4, #16]
 134              		.loc 1 59 15 view .LVU39
  60:Core/Src/led.c **** }
 135              		.loc 1 60 1 is_stmt 0 view .LVU40
 136 0070 09B0     		add	sp, sp, #36
 137              	.LCFI2:
 138              		.cfi_def_cfa_offset 20
 139              		@ sp needed
 140 0072 F0BD     		pop	{r4, r5, r6, r7, pc}
 141              	.L4:
 142              		.align	2
 143              	.L3:
 144 0074 00100240 		.word	1073876992
 145 0078 000C0140 		.word	1073810432
 146              		.cfi_endproc
 147              	.LFE65:
 149              		.text
 150              	.Letext0:
 151              		.file 2 "d:\\mingw\\gcc-arm-none-eabi-10.3-2021.10-win32\\gcc-arm-none-eabi-10.3-2021.10\\arm-none
 152              		.file 3 "d:\\mingw\\gcc-arm-none-eabi-10.3-2021.10-win32\\gcc-arm-none-eabi-10.3-2021.10\\arm-none
 153              		.file 4 "Drivers/CMSIS/Device/ST/STM32F1xx/Include/stm32f103xe.h"
 154              		.file 5 "Drivers/STM32F1xx_HAL_Driver/Inc/stm32f1xx_hal_gpio.h"
ARM GAS  C:\Users\84759\AppData\Local\Temp\ccrnlk53.s 			page 5

