ARM GAS  C:\Users\84759\AppData\Local\Temp\ccPncmRd.s 			page 1


   1              		.cpu cortex-m3
   2              		.arch armv7-m
   3              		.fpu softvfp
   4              		.eabi_attribute 20, 1
   5              		.eabi_attribute 21, 1
   6              		.eabi_attribute 23, 3
   7              		.eabi_attribute 24, 1
   8              		.eabi_attribute 25, 1
   9              		.eabi_attribute 26, 1
  10              		.eabi_attribute 30, 1
  11              		.eabi_attribute 34, 1
  12              		.eabi_attribute 18, 4
  13              		.file	"palette.c"
  14              		.text
  15              	.Ltext0:
  16              		.cfi_sections	.debug_frame
  17              		.section	.text.Command_Select_Brush,"ax",%progbits
  18              		.align	1
  19              		.syntax unified
  20              		.thumb
  21              		.thumb_func
  23              	Command_Select_Brush:
  24              	.LVL0:
  25              	.LFB74:
  26              		.file 1 "Core/Src/palette.c"
   1:Core/Src/palette.c **** /**
   2:Core/Src/palette.c ****   ******************************************************************************
   3:Core/Src/palette.c ****   * @file    palette.c
   4:Core/Src/palette.c ****   * @author  fire
   5:Core/Src/palette.c ****   * @version V1.0
   6:Core/Src/palette.c ****   * @date    2015-xx-xx
   7:Core/Src/palette.c ****   * @brief   触摸画板应用函数
   8:Core/Src/palette.c ****   ******************************************************************************
   9:Core/Src/palette.c ****   * @attention
  10:Core/Src/palette.c ****   *
  11:Core/Src/palette.c ****   * 实验平台:野火  STM32  F103 开发板
  12:Core/Src/palette.c ****   * 论坛    :http://www.firebbs.cn
  13:Core/Src/palette.c ****   * 淘宝    :https://fire-stm32.taobao.com
  14:Core/Src/palette.c ****   *
  15:Core/Src/palette.c ****   ******************************************************************************
  16:Core/Src/palette.c ****   */
  17:Core/Src/palette.c **** 
  18:Core/Src/palette.c **** #include "palette.h"
  19:Core/Src/palette.c **** #include "stdint.h"
  20:Core/Src/palette.c **** #include "lcd.h"
  21:Core/Src/palette.c ****  
  22:Core/Src/palette.c **** /*按钮结构体数组*/
  23:Core/Src/palette.c **** Touch_Button button[BUTTON_NUM];
  24:Core/Src/palette.c **** 
  25:Core/Src/palette.c **** /*画笔参数*/
  26:Core/Src/palette.c **** Brush_Style brush;
  27:Core/Src/palette.c **** 
  28:Core/Src/palette.c **** static void Draw_Color_Button(void *btn);
  29:Core/Src/palette.c **** static void Draw_Clear_Button(void *btn);
  30:Core/Src/palette.c **** static void Draw_Shape_Button(void *btn);
  31:Core/Src/palette.c **** 
  32:Core/Src/palette.c **** static void Command_Select_Color(void *btn);
ARM GAS  C:\Users\84759\AppData\Local\Temp\ccPncmRd.s 			page 2


  33:Core/Src/palette.c **** static void Command_Select_Brush(void *btn);
  34:Core/Src/palette.c **** static void Command_Clear_Palette(void *btn);
  35:Core/Src/palette.c **** 
  36:Core/Src/palette.c **** static void LCD_DrawUniLineCircle(uint16_t x1, uint16_t y1, uint16_t x2, uint16_t y2,uint8_t thick 
  37:Core/Src/palette.c **** 
  38:Core/Src/palette.c **** 
  39:Core/Src/palette.c **** 
  40:Core/Src/palette.c **** /**
  41:Core/Src/palette.c **** * @brief  Palette_Init 画板初始化
  42:Core/Src/palette.c **** * @param  无
  43:Core/Src/palette.c **** * @retval 无
  44:Core/Src/palette.c **** */
  45:Core/Src/palette.c **** void Palette_Init(uint8_t LCD_Mode)
  46:Core/Src/palette.c **** {
  47:Core/Src/palette.c ****   
  48:Core/Src/palette.c ****   uint8_t i;
  49:Core/Src/palette.c **** 
  50:Core/Src/palette.c **** 	ILI9341_GramScan ( LCD_Mode );
  51:Core/Src/palette.c **** 	
  52:Core/Src/palette.c ****   /* 整屏清为白色 */
  53:Core/Src/palette.c **** 	LCD_SetBackColor(CL_WHITE);
  54:Core/Src/palette.c ****   ILI9341_Clear(0,0,LCD_X_LENGTH,LCD_Y_LENGTH);	
  55:Core/Src/palette.c **** 
  56:Core/Src/palette.c ****   
  57:Core/Src/palette.c ****   /* 初始化按钮 */
  58:Core/Src/palette.c ****   Touch_Button_Init();
  59:Core/Src/palette.c ****   
  60:Core/Src/palette.c ****   /* 描绘按钮 */
  61:Core/Src/palette.c ****   for(i=0;i<BUTTON_NUM;i++)
  62:Core/Src/palette.c ****   {
  63:Core/Src/palette.c ****     button[i].draw_btn(&button[i]);
  64:Core/Src/palette.c ****   }
  65:Core/Src/palette.c ****   
  66:Core/Src/palette.c **** 	
  67:Core/Src/palette.c ****   /* 初始化画笔 */
  68:Core/Src/palette.c ****   brush.color = CL_BLACK;
  69:Core/Src/palette.c ****   brush.shape = LINE_SINGLE_PIXCEL;
  70:Core/Src/palette.c **** 	
  71:Core/Src/palette.c **** 	LCD_SetTextColor(brush.color);
  72:Core/Src/palette.c **** 
  73:Core/Src/palette.c **** 
  74:Core/Src/palette.c **** }
  75:Core/Src/palette.c **** 
  76:Core/Src/palette.c **** 
  77:Core/Src/palette.c **** 
  78:Core/Src/palette.c **** 
  79:Core/Src/palette.c **** /**
  80:Core/Src/palette.c **** * @brief  Touch_Button_Init 初始化按钮参数
  81:Core/Src/palette.c **** * @param  无
  82:Core/Src/palette.c **** * @retval 无
  83:Core/Src/palette.c **** */
  84:Core/Src/palette.c **** void Touch_Button_Init(void)
  85:Core/Src/palette.c **** {
  86:Core/Src/palette.c ****   /*第一列，主要为颜色按钮*/
  87:Core/Src/palette.c ****   button[0].start_x = BUTTON_START_X;
  88:Core/Src/palette.c ****   button[0].start_y = 0;
  89:Core/Src/palette.c ****   button[0].end_x = BUTTON_START_X+COLOR_BLOCK_WIDTH ;
ARM GAS  C:\Users\84759\AppData\Local\Temp\ccPncmRd.s 			page 3


  90:Core/Src/palette.c ****   button[0].end_y = COLOR_BLOCK_HEIGHT;
  91:Core/Src/palette.c ****   button[0].para = CL_BLACK;
  92:Core/Src/palette.c ****   button[0].touch_flag = 0;  
  93:Core/Src/palette.c ****   button[0].draw_btn = Draw_Color_Button ;
  94:Core/Src/palette.c ****   button[0].btn_command = Command_Select_Color ;
  95:Core/Src/palette.c ****   
  96:Core/Src/palette.c ****   button[1].start_x = BUTTON_START_X;
  97:Core/Src/palette.c ****   button[1].start_y = COLOR_BLOCK_HEIGHT;
  98:Core/Src/palette.c ****   button[1].end_x = BUTTON_START_X+COLOR_BLOCK_WIDTH ;
  99:Core/Src/palette.c ****   button[1].end_y = COLOR_BLOCK_HEIGHT*2;
 100:Core/Src/palette.c ****   button[1].para = CL_GREY;
 101:Core/Src/palette.c ****   button[1].touch_flag = 0;  
 102:Core/Src/palette.c ****   button[1].draw_btn = Draw_Color_Button ;
 103:Core/Src/palette.c ****   button[1].btn_command = Command_Select_Color ;
 104:Core/Src/palette.c ****   
 105:Core/Src/palette.c ****   button[2].start_x = BUTTON_START_X;
 106:Core/Src/palette.c ****   button[2].start_y = COLOR_BLOCK_HEIGHT*2;
 107:Core/Src/palette.c ****   button[2].end_x = BUTTON_START_X+COLOR_BLOCK_WIDTH ;
 108:Core/Src/palette.c ****   button[2].end_y = COLOR_BLOCK_HEIGHT*3;
 109:Core/Src/palette.c ****   button[2].para = CL_BLUE;
 110:Core/Src/palette.c ****   button[2].touch_flag = 0;  
 111:Core/Src/palette.c ****   button[2].draw_btn = Draw_Color_Button ;
 112:Core/Src/palette.c ****   button[2].btn_command = Command_Select_Color ;
 113:Core/Src/palette.c ****   
 114:Core/Src/palette.c ****   button[3].start_x = BUTTON_START_X;
 115:Core/Src/palette.c ****   button[3].start_y = COLOR_BLOCK_HEIGHT*3;
 116:Core/Src/palette.c ****   button[3].end_x = BUTTON_START_X+COLOR_BLOCK_WIDTH ;
 117:Core/Src/palette.c ****   button[3].end_y = COLOR_BLOCK_HEIGHT*4;
 118:Core/Src/palette.c ****   button[3].para = CL_CYAN;
 119:Core/Src/palette.c ****   button[3].touch_flag = 0;  
 120:Core/Src/palette.c ****   button[3].draw_btn = Draw_Color_Button ;
 121:Core/Src/palette.c ****   button[3].btn_command = Command_Select_Color ;
 122:Core/Src/palette.c ****   
 123:Core/Src/palette.c ****   button[4].start_x = BUTTON_START_X;
 124:Core/Src/palette.c ****   button[4].start_y = COLOR_BLOCK_HEIGHT*4;
 125:Core/Src/palette.c ****   button[4].end_x = BUTTON_START_X+COLOR_BLOCK_WIDTH ;
 126:Core/Src/palette.c ****   button[4].end_y = COLOR_BLOCK_HEIGHT*5;
 127:Core/Src/palette.c ****   button[4].para = CL_RED;
 128:Core/Src/palette.c ****   button[4].touch_flag = 0;  
 129:Core/Src/palette.c ****   button[4].draw_btn = Draw_Color_Button ;
 130:Core/Src/palette.c ****   button[4].btn_command = Command_Select_Color ;
 131:Core/Src/palette.c ****   
 132:Core/Src/palette.c ****   button[5].start_x = BUTTON_START_X;
 133:Core/Src/palette.c ****   button[5].start_y = COLOR_BLOCK_HEIGHT*5;
 134:Core/Src/palette.c ****   button[5].end_x = BUTTON_START_X+COLOR_BLOCK_WIDTH ;
 135:Core/Src/palette.c ****   button[5].end_y = COLOR_BLOCK_HEIGHT*6;
 136:Core/Src/palette.c ****   button[5].para = CL_MAGENTA;
 137:Core/Src/palette.c ****   button[5].touch_flag = 0;  
 138:Core/Src/palette.c ****   button[5].draw_btn = Draw_Color_Button ;
 139:Core/Src/palette.c ****   button[5].btn_command = Command_Select_Color ;
 140:Core/Src/palette.c ****   
 141:Core/Src/palette.c ****   button[6].start_x = BUTTON_START_X;
 142:Core/Src/palette.c ****   button[6].start_y = COLOR_BLOCK_HEIGHT*6;
 143:Core/Src/palette.c ****   button[6].end_x = BUTTON_START_X+COLOR_BLOCK_WIDTH ;
 144:Core/Src/palette.c ****   button[6].end_y = COLOR_BLOCK_HEIGHT*7;
 145:Core/Src/palette.c ****   button[6].para = CL_GREEN;
 146:Core/Src/palette.c ****   button[6].touch_flag = 0;  
ARM GAS  C:\Users\84759\AppData\Local\Temp\ccPncmRd.s 			page 4


 147:Core/Src/palette.c ****   button[6].draw_btn = Draw_Color_Button ;
 148:Core/Src/palette.c ****   button[6].btn_command = Command_Select_Color ;  
 149:Core/Src/palette.c ****   
 150:Core/Src/palette.c ****   button[7].start_x = BUTTON_START_X;
 151:Core/Src/palette.c ****   button[7].start_y = COLOR_BLOCK_HEIGHT*7;
 152:Core/Src/palette.c ****   button[7].end_x = BUTTON_START_X+COLOR_BLOCK_WIDTH ;
 153:Core/Src/palette.c ****   button[7].end_y = LCD_Y_LENGTH;
 154:Core/Src/palette.c ****   button[7].para = CL_BUTTON_GREY;
 155:Core/Src/palette.c ****   button[7].touch_flag = 0;  
 156:Core/Src/palette.c ****   button[7].draw_btn = Draw_Clear_Button ;
 157:Core/Src/palette.c ****   button[7].btn_command = Command_Clear_Palette ;
 158:Core/Src/palette.c ****   
 159:Core/Src/palette.c ****   
 160:Core/Src/palette.c ****   /*第二列，主要为画刷按钮*/
 161:Core/Src/palette.c ****   button[8].start_x = BUTTON_START_X + COLOR_BLOCK_WIDTH;
 162:Core/Src/palette.c ****   button[8].start_y = 0;
 163:Core/Src/palette.c ****   button[8].end_x = BUTTON_START_X + COLOR_BLOCK_WIDTH*2 ;
 164:Core/Src/palette.c ****   button[8].end_y = COLOR_BLOCK_HEIGHT;
 165:Core/Src/palette.c ****   button[8].para = LINE_SINGLE_PIXCEL;
 166:Core/Src/palette.c ****   button[8].touch_flag = 0;  
 167:Core/Src/palette.c ****   button[8].draw_btn = Draw_Shape_Button ;
 168:Core/Src/palette.c ****   button[8].btn_command = Command_Select_Brush ;
 169:Core/Src/palette.c ****   
 170:Core/Src/palette.c ****   button[9].start_x = BUTTON_START_X + COLOR_BLOCK_WIDTH;
 171:Core/Src/palette.c ****   button[9].start_y = COLOR_BLOCK_HEIGHT;
 172:Core/Src/palette.c ****   button[9].end_x = BUTTON_START_X + COLOR_BLOCK_WIDTH*2 ;
 173:Core/Src/palette.c ****   button[9].end_y = COLOR_BLOCK_HEIGHT*2;
 174:Core/Src/palette.c ****   button[9].para = LINE_2_PIXCEL;
 175:Core/Src/palette.c ****   button[9].touch_flag = 0;  
 176:Core/Src/palette.c ****   button[9].draw_btn = Draw_Shape_Button ;
 177:Core/Src/palette.c ****   button[9].btn_command = Command_Select_Brush ;
 178:Core/Src/palette.c ****   
 179:Core/Src/palette.c ****   button[10].start_x =BUTTON_START_X +  COLOR_BLOCK_WIDTH;
 180:Core/Src/palette.c ****   button[10].start_y = COLOR_BLOCK_HEIGHT*2;
 181:Core/Src/palette.c ****   button[10].end_x = BUTTON_START_X + COLOR_BLOCK_WIDTH*2 ;
 182:Core/Src/palette.c ****   button[10].end_y = COLOR_BLOCK_HEIGHT*3;
 183:Core/Src/palette.c ****   button[10].para = LINE_4_PIXCEL;
 184:Core/Src/palette.c ****   button[10].touch_flag = 0;  
 185:Core/Src/palette.c ****   button[10].draw_btn = Draw_Shape_Button ;
 186:Core/Src/palette.c ****   button[10].btn_command = Command_Select_Brush ;
 187:Core/Src/palette.c ****   
 188:Core/Src/palette.c ****   button[11].start_x = BUTTON_START_X + COLOR_BLOCK_WIDTH;
 189:Core/Src/palette.c ****   button[11].start_y = COLOR_BLOCK_HEIGHT*3;
 190:Core/Src/palette.c ****   button[11].end_x = BUTTON_START_X + COLOR_BLOCK_WIDTH*2 ;
 191:Core/Src/palette.c ****   button[11].end_y = COLOR_BLOCK_HEIGHT*4;
 192:Core/Src/palette.c ****   button[11].para = LINE_6_PIXCEL;
 193:Core/Src/palette.c ****   button[11].touch_flag = 0;  
 194:Core/Src/palette.c ****   button[11].draw_btn = Draw_Shape_Button ;
 195:Core/Src/palette.c ****   button[11].btn_command = Command_Select_Brush ;
 196:Core/Src/palette.c ****   
 197:Core/Src/palette.c ****   button[12].start_x = BUTTON_START_X + COLOR_BLOCK_WIDTH;
 198:Core/Src/palette.c ****   button[12].start_y = COLOR_BLOCK_HEIGHT*4;
 199:Core/Src/palette.c ****   button[12].end_x = BUTTON_START_X + COLOR_BLOCK_WIDTH*2 ;
 200:Core/Src/palette.c ****   button[12].end_y = COLOR_BLOCK_HEIGHT*5;
 201:Core/Src/palette.c ****   button[12].para = LINE_8_PIXCEL;
 202:Core/Src/palette.c ****   button[12].touch_flag = 0;  
 203:Core/Src/palette.c ****   button[12].draw_btn = Draw_Shape_Button ;
ARM GAS  C:\Users\84759\AppData\Local\Temp\ccPncmRd.s 			page 5


 204:Core/Src/palette.c ****   button[12].btn_command = Command_Select_Brush ;
 205:Core/Src/palette.c ****   
 206:Core/Src/palette.c ****   button[13].start_x = BUTTON_START_X + COLOR_BLOCK_WIDTH;
 207:Core/Src/palette.c ****   button[13].start_y = COLOR_BLOCK_HEIGHT*5;
 208:Core/Src/palette.c ****   button[13].end_x = BUTTON_START_X + COLOR_BLOCK_WIDTH*2 ;
 209:Core/Src/palette.c ****   button[13].end_y = COLOR_BLOCK_HEIGHT*6;
 210:Core/Src/palette.c ****   button[13].para = LINE_16_PIXCEL;
 211:Core/Src/palette.c ****   button[13].touch_flag = 0;  
 212:Core/Src/palette.c ****   button[13].draw_btn = Draw_Shape_Button ;
 213:Core/Src/palette.c ****   button[13].btn_command = Command_Select_Brush ;
 214:Core/Src/palette.c ****   
 215:Core/Src/palette.c ****   button[14].start_x = BUTTON_START_X + COLOR_BLOCK_WIDTH;
 216:Core/Src/palette.c ****   button[14].start_y = COLOR_BLOCK_HEIGHT*6;
 217:Core/Src/palette.c ****   button[14].end_x = BUTTON_START_X + COLOR_BLOCK_WIDTH*2 ;
 218:Core/Src/palette.c ****   button[14].end_y = COLOR_BLOCK_HEIGHT*7;
 219:Core/Src/palette.c ****   button[14].para = LINE_20_PIXCEL;
 220:Core/Src/palette.c ****   button[14].touch_flag = 0;  
 221:Core/Src/palette.c ****   button[14].draw_btn = Draw_Shape_Button ;
 222:Core/Src/palette.c ****   button[14].btn_command = Command_Select_Brush ;    
 223:Core/Src/palette.c ****   
 224:Core/Src/palette.c ****   button[15].start_x = BUTTON_START_X + COLOR_BLOCK_WIDTH;
 225:Core/Src/palette.c ****   button[15].start_y = COLOR_BLOCK_HEIGHT*7;
 226:Core/Src/palette.c ****   button[15].end_x = BUTTON_START_X + COLOR_BLOCK_WIDTH*2 ;
 227:Core/Src/palette.c ****   button[15].end_y = LCD_Y_LENGTH;
 228:Core/Src/palette.c ****   button[15].para = RUBBER;
 229:Core/Src/palette.c ****   button[15].touch_flag = 0;  
 230:Core/Src/palette.c ****   button[15].draw_btn = Draw_Shape_Button ;
 231:Core/Src/palette.c ****   button[15].btn_command = Command_Select_Brush ;
 232:Core/Src/palette.c **** }
 233:Core/Src/palette.c **** 
 234:Core/Src/palette.c **** /**
 235:Core/Src/palette.c **** * @brief  Touch_Button_Down 按键被按下时调用的函数，由触摸屏调用
 236:Core/Src/palette.c **** * @param  x 触摸位置的x坐标
 237:Core/Src/palette.c **** * @param  y 触摸位置的y坐标
 238:Core/Src/palette.c **** * @retval 无
 239:Core/Src/palette.c **** */
 240:Core/Src/palette.c **** void Touch_Button_Down(uint16_t x,uint16_t y)
 241:Core/Src/palette.c **** {
 242:Core/Src/palette.c ****   uint8_t i;
 243:Core/Src/palette.c ****   for(i=0;i<BUTTON_NUM;i++)
 244:Core/Src/palette.c ****   {
 245:Core/Src/palette.c ****     /* 触摸到了按钮 */
 246:Core/Src/palette.c ****     if(x<=button[i].end_x && y<=button[i].end_y && y>=button[i].start_y && x>=button[i].start_x )
 247:Core/Src/palette.c ****     {
 248:Core/Src/palette.c ****       if(button[i].touch_flag == 0)     /*原本的状态为没有按下，则更新状态*/
 249:Core/Src/palette.c ****       {
 250:Core/Src/palette.c ****       button[i].touch_flag = 1;         /* 记录按下标志 */
 251:Core/Src/palette.c ****       
 252:Core/Src/palette.c ****       button[i].draw_btn(&button[i]);  /*重绘按钮*/
 253:Core/Src/palette.c ****       }        
 254:Core/Src/palette.c ****       
 255:Core/Src/palette.c ****     }
 256:Core/Src/palette.c ****     else if(button[i].touch_flag == 1) /* 触摸移出了按键的范围且之前有按下按钮 */
 257:Core/Src/palette.c ****     {
 258:Core/Src/palette.c ****       button[i].touch_flag = 0;         /* 清除按下标志，判断为误操作*/
 259:Core/Src/palette.c ****       
 260:Core/Src/palette.c ****       button[i].draw_btn(&button[i]);   /*重绘按钮*/
ARM GAS  C:\Users\84759\AppData\Local\Temp\ccPncmRd.s 			page 6


 261:Core/Src/palette.c ****     }
 262:Core/Src/palette.c **** 
 263:Core/Src/palette.c ****   }
 264:Core/Src/palette.c **** 
 265:Core/Src/palette.c **** }
 266:Core/Src/palette.c **** 
 267:Core/Src/palette.c **** /**
 268:Core/Src/palette.c **** * @brief  Touch_Button_Up 按键被释放时调用的函数，由触摸屏调用
 269:Core/Src/palette.c **** * @param  x 触摸最后释放时的x坐标
 270:Core/Src/palette.c **** * @param  y 触摸最后释放时的y坐标
 271:Core/Src/palette.c **** * @retval 无
 272:Core/Src/palette.c **** */
 273:Core/Src/palette.c **** void Touch_Button_Up(uint16_t x,uint16_t y)
 274:Core/Src/palette.c **** {
 275:Core/Src/palette.c ****    uint8_t i; 
 276:Core/Src/palette.c ****    for(i=0;i<BUTTON_NUM;i++)
 277:Core/Src/palette.c ****    {
 278:Core/Src/palette.c ****      /* 触笔在按钮区域释放 */
 279:Core/Src/palette.c ****       if((x<button[i].end_x && x>button[i].start_x && y<button[i].end_y && y>button[i].start_y))
 280:Core/Src/palette.c ****       {        
 281:Core/Src/palette.c ****         button[i].touch_flag = 0;       /*释放触摸标志*/
 282:Core/Src/palette.c ****         
 283:Core/Src/palette.c ****         button[i].draw_btn(&button[i]); /*重绘按钮*/        
 284:Core/Src/palette.c ****       
 285:Core/Src/palette.c ****         button[i].btn_command(&button[i]);  /*执行按键的功能命令*/
 286:Core/Src/palette.c ****         
 287:Core/Src/palette.c ****         break;
 288:Core/Src/palette.c ****       }
 289:Core/Src/palette.c ****     }  
 290:Core/Src/palette.c **** 
 291:Core/Src/palette.c **** }
 292:Core/Src/palette.c **** 
 293:Core/Src/palette.c **** /**
 294:Core/Src/palette.c **** * @brief  Draw_Trail 在画板区域描绘触摸轨迹
 295:Core/Src/palette.c **** * @param  pre_x 上一点的x坐标
 296:Core/Src/palette.c **** * @param  pre_y 上一点的y坐标
 297:Core/Src/palette.c **** * @param  x     最新一点的x坐标
 298:Core/Src/palette.c **** * @param  y     最新一点的y坐标
 299:Core/Src/palette.c **** * @param  brush 画刷参数
 300:Core/Src/palette.c **** * @retval 无
 301:Core/Src/palette.c **** */
 302:Core/Src/palette.c **** void Draw_Trail(int16_t pre_x,int16_t pre_y,int16_t x,int16_t y,Brush_Style* brush)
 303:Core/Src/palette.c **** {
 304:Core/Src/palette.c ****   /*设置画板区域为活动窗口,bsp_lcd.c驱动还没有这样的函数，用于限制绘画窗口*/
 305:Core/Src/palette.c **** //  RA8875_SetActiveWindow(PALETTE_START_X,PALETTE_START_Y,PALETTE_END_X,PALETTE_END_Y);
 306:Core/Src/palette.c ****   
 307:Core/Src/palette.c **** 	
 308:Core/Src/palette.c ****   /*触摸位置在画板区域*/
 309:Core/Src/palette.c ****   if(x>PALETTE_START_X && pre_x>PALETTE_START_X )
 310:Core/Src/palette.c ****   {
 311:Core/Src/palette.c ****     switch(brush->shape)  /*根据画刷参数描绘不同的轨迹*/
 312:Core/Src/palette.c ****     {
 313:Core/Src/palette.c ****       /* 描绘1像素宽度的轨迹线 */
 314:Core/Src/palette.c ****       case LINE_SINGLE_PIXCEL:                 
 315:Core/Src/palette.c ****             if(pre_x< 0 || pre_y < 0) //新的笔迹
 316:Core/Src/palette.c ****             {      
 317:Core/Src/palette.c ****               ILI9341_SetPointPixel(x,y);              
ARM GAS  C:\Users\84759\AppData\Local\Temp\ccPncmRd.s 			page 7


 318:Core/Src/palette.c ****             }
 319:Core/Src/palette.c ****             else //继续上一次的笔迹
 320:Core/Src/palette.c ****             {      
 321:Core/Src/palette.c ****               ILI9341_DrawLine(pre_x,pre_y,x,y);
 322:Core/Src/palette.c ****             } 
 323:Core/Src/palette.c ****         
 324:Core/Src/palette.c ****         break;
 325:Core/Src/palette.c ****             
 326:Core/Src/palette.c ****       case LINE_2_PIXCEL:
 327:Core/Src/palette.c ****         
 328:Core/Src/palette.c **** 				if(x-1<PALETTE_START_X||pre_x-1<PALETTE_START_X)	//画板左边界
 329:Core/Src/palette.c **** 					break;
 330:Core/Src/palette.c **** 
 331:Core/Src/palette.c ****         /* 描绘2像素宽度的轨迹线 */
 332:Core/Src/palette.c ****         LCD_DrawUniLineCircle(pre_x,pre_y,x,y,1);
 333:Core/Src/palette.c ****         
 334:Core/Src/palette.c ****         break;
 335:Core/Src/palette.c ****       
 336:Core/Src/palette.c ****       case LINE_4_PIXCEL:
 337:Core/Src/palette.c **** 				
 338:Core/Src/palette.c **** 				if(x-2<PALETTE_START_X||pre_x-2<PALETTE_START_X)	//画板左边界
 339:Core/Src/palette.c **** 					break;
 340:Core/Src/palette.c ****         
 341:Core/Src/palette.c ****             LCD_DrawUniLineCircle(pre_x,pre_y,x,y,2);
 342:Core/Src/palette.c **** 
 343:Core/Src/palette.c ****         break;
 344:Core/Src/palette.c ****       
 345:Core/Src/palette.c ****       case LINE_6_PIXCEL:
 346:Core/Src/palette.c ****         
 347:Core/Src/palette.c **** 				if(x-3<PALETTE_START_X||pre_x-3<PALETTE_START_X)	//画板左边界
 348:Core/Src/palette.c **** 					break;
 349:Core/Src/palette.c ****       
 350:Core/Src/palette.c ****         LCD_DrawUniLineCircle(pre_x,pre_y,x,y,3);
 351:Core/Src/palette.c ****         
 352:Core/Src/palette.c ****         break;
 353:Core/Src/palette.c ****       
 354:Core/Src/palette.c ****       case LINE_8_PIXCEL:
 355:Core/Src/palette.c **** 				
 356:Core/Src/palette.c **** 				if(x-4<PALETTE_START_X||pre_x-4<PALETTE_START_X)	//画板左边界
 357:Core/Src/palette.c **** 					break;
 358:Core/Src/palette.c ****         
 359:Core/Src/palette.c ****             LCD_DrawUniLineCircle(pre_x,pre_y,x,y,4);
 360:Core/Src/palette.c **** 
 361:Core/Src/palette.c ****         break;
 362:Core/Src/palette.c ****       
 363:Core/Src/palette.c ****      case LINE_16_PIXCEL:
 364:Core/Src/palette.c **** 			 
 365:Core/Src/palette.c **** 		 		if(x-8<PALETTE_START_X||pre_x-8<PALETTE_START_X)	//画板左边界
 366:Core/Src/palette.c **** 					break;
 367:Core/Src/palette.c ****         
 368:Core/Src/palette.c ****             LCD_DrawUniLineCircle(pre_x,pre_y,x,y,8);
 369:Core/Src/palette.c **** 
 370:Core/Src/palette.c ****         break;
 371:Core/Src/palette.c ****             
 372:Core/Src/palette.c ****       case LINE_20_PIXCEL:
 373:Core/Src/palette.c **** 				
 374:Core/Src/palette.c **** 				if(x-10<PALETTE_START_X ||pre_x-10<PALETTE_START_X)	//画板左边界
ARM GAS  C:\Users\84759\AppData\Local\Temp\ccPncmRd.s 			page 8


 375:Core/Src/palette.c **** 					break;
 376:Core/Src/palette.c ****         
 377:Core/Src/palette.c ****             LCD_DrawUniLineCircle(pre_x,pre_y,x,y,10);
 378:Core/Src/palette.c **** 
 379:Core/Src/palette.c ****         break;
 380:Core/Src/palette.c ****       
 381:Core/Src/palette.c ****       /*描绘带珠子的单像素线*/
 382:Core/Src/palette.c ****       case LINE_WITH_CIRCLE:  
 383:Core/Src/palette.c **** 
 384:Core/Src/palette.c **** 		 		if(x-3<PALETTE_START_X||pre_x-3<PALETTE_START_X)	//画板左边界
 385:Core/Src/palette.c **** 					break;			
 386:Core/Src/palette.c ****            
 387:Core/Src/palette.c ****             if(pre_x< 0 || pre_y< 0)//新的笔迹
 388:Core/Src/palette.c ****             {      
 389:Core/Src/palette.c ****               ILI9341_SetPointPixel(x,y); 
 390:Core/Src/palette.c ****             }
 391:Core/Src/palette.c ****             else //继续上一次的笔迹
 392:Core/Src/palette.c ****             {      
 393:Core/Src/palette.c ****               ILI9341_DrawLine(pre_x,pre_y,x,y);
 394:Core/Src/palette.c ****               ILI9341_DrawCircle(x,y,3,1);
 395:Core/Src/palette.c ****             } 
 396:Core/Src/palette.c ****         
 397:Core/Src/palette.c ****         break;
 398:Core/Src/palette.c ****            
 399:Core/Src/palette.c ****       /*橡皮功能*/            
 400:Core/Src/palette.c ****       case RUBBER:
 401:Core/Src/palette.c **** 				
 402:Core/Src/palette.c **** 				if(x-20<PALETTE_START_X ||						//画板左边界
 403:Core/Src/palette.c **** 					  x+20>LCD_X_LENGTH || x-20<0 || //液晶左右边界
 404:Core/Src/palette.c **** 						y+20>LCD_Y_LENGTH || y-20<0)	 //液晶上下边界				
 405:Core/Src/palette.c **** 					break;	
 406:Core/Src/palette.c **** 			
 407:Core/Src/palette.c **** //        if(x>PALETTE_START_X+20)
 408:Core/Src/palette.c ****         {
 409:Core/Src/palette.c **** 						LCD_SetColors(CL_WHITE,CL_WHITE);
 410:Core/Src/palette.c ****             
 411:Core/Src/palette.c **** 						ILI9341_DrawRectangle( x-40/2,y-40/2,40,40,1);   
 412:Core/Src/palette.c ****       
 413:Core/Src/palette.c ****         }
 414:Core/Src/palette.c ****       break;
 415:Core/Src/palette.c **** 
 416:Core/Src/palette.c ****     }
 417:Core/Src/palette.c ****   }
 418:Core/Src/palette.c ****   
 419:Core/Src/palette.c ****   /*退出局限画板的绘图窗口，bsp_lcd.c驱动还没有这样的函数，用于限制绘画窗口*/
 420:Core/Src/palette.c **** //  RA8875_SetActiveWindow(0,0,LCD_X_LENGTH,LCD_Y_LENGTH);
 421:Core/Src/palette.c **** 
 422:Core/Src/palette.c **** 
 423:Core/Src/palette.c **** }
 424:Core/Src/palette.c **** 
 425:Core/Src/palette.c **** 
 426:Core/Src/palette.c **** /**
 427:Core/Src/palette.c **** * @brief  Draw_Color_Button 颜色按钮的描绘函数
 428:Core/Src/palette.c **** * @param  btn Touch_Button 类型的按键参数
 429:Core/Src/palette.c **** * @retval 无
 430:Core/Src/palette.c **** */
 431:Core/Src/palette.c **** static void Draw_Color_Button(void *btn)
ARM GAS  C:\Users\84759\AppData\Local\Temp\ccPncmRd.s 			page 9


 432:Core/Src/palette.c **** {
 433:Core/Src/palette.c ****   Touch_Button *ptr = (Touch_Button *)btn;
 434:Core/Src/palette.c ****   
 435:Core/Src/palette.c ****   /*释放按键*/
 436:Core/Src/palette.c ****   if(ptr->touch_flag == 0)
 437:Core/Src/palette.c ****   {
 438:Core/Src/palette.c **** 		/*背景为功能键相应的颜色*/
 439:Core/Src/palette.c **** 		LCD_SetColors(ptr->para,CL_WHITE);
 440:Core/Src/palette.c ****     ILI9341_DrawRectangle(	ptr->start_x,
 441:Core/Src/palette.c **** 															ptr->start_y,
 442:Core/Src/palette.c **** 															ptr->end_x - ptr->start_x,
 443:Core/Src/palette.c **** 															ptr->end_y - ptr->start_y,1);
 444:Core/Src/palette.c ****   }
 445:Core/Src/palette.c ****   else  /*按键按下*/
 446:Core/Src/palette.c ****   {
 447:Core/Src/palette.c ****     /*白色背景*/
 448:Core/Src/palette.c **** 		LCD_SetColors(CL_WHITE,CL_WHITE);
 449:Core/Src/palette.c ****     ILI9341_DrawRectangle(	ptr->start_x,
 450:Core/Src/palette.c **** 															ptr->start_y,
 451:Core/Src/palette.c **** 															ptr->end_x - ptr->start_x,
 452:Core/Src/palette.c **** 															ptr->end_y - ptr->start_y,1);
 453:Core/Src/palette.c ****   } 
 454:Core/Src/palette.c ****     /*按钮边框*/
 455:Core/Src/palette.c **** 		LCD_SetColors(CL_BLUE4,CL_WHITE);
 456:Core/Src/palette.c ****     ILI9341_DrawRectangle(	ptr->start_x,
 457:Core/Src/palette.c **** 															ptr->start_y,
 458:Core/Src/palette.c **** 															ptr->end_x - ptr->start_x,
 459:Core/Src/palette.c **** 															ptr->end_y - ptr->start_y,0);
 460:Core/Src/palette.c ****   
 461:Core/Src/palette.c **** }
 462:Core/Src/palette.c **** 
 463:Core/Src/palette.c **** 
 464:Core/Src/palette.c **** /**
 465:Core/Src/palette.c **** * @brief  Draw_Clear_Button 清屏按钮的描绘函数
 466:Core/Src/palette.c **** * @param  btn Touch_Button 类型的按键参数
 467:Core/Src/palette.c **** * @retval 无
 468:Core/Src/palette.c **** */
 469:Core/Src/palette.c **** static void Draw_Clear_Button(void *btn)
 470:Core/Src/palette.c **** {
 471:Core/Src/palette.c ****   Touch_Button *ptr = (Touch_Button *)btn;
 472:Core/Src/palette.c ****     
 473:Core/Src/palette.c ****   /*释放按键*/
 474:Core/Src/palette.c ****   if(ptr->touch_flag == 0)
 475:Core/Src/palette.c ****   {
 476:Core/Src/palette.c **** 	
 477:Core/Src/palette.c **** 		LCD_SetColors(CL_BUTTON_GREY,CL_WHITE);
 478:Core/Src/palette.c ****     ILI9341_DrawRectangle(	ptr->start_x,
 479:Core/Src/palette.c **** 															ptr->start_y,
 480:Core/Src/palette.c **** 															ptr->end_x - ptr->start_x,
 481:Core/Src/palette.c **** 															ptr->end_y - ptr->start_y,1);
 482:Core/Src/palette.c ****     
 483:Core/Src/palette.c **** 
 484:Core/Src/palette.c **** 		
 485:Core/Src/palette.c **** 		LCD_SetColors(CL_RED,CL_BUTTON_GREY);
 486:Core/Src/palette.c **** 		/*选择字体，使用中英文显示时，尽量把英文选择成8*16的字体，
 487:Core/Src/palette.c **** 		*中文字体大小是16*16的，需要其它字体请自行制作字模*/
 488:Core/Src/palette.c **** 		/*这个函数只对英文字体起作用*/
ARM GAS  C:\Users\84759\AppData\Local\Temp\ccPncmRd.s 			page 10


 489:Core/Src/palette.c **** 		LCD_SetFont(&Font8x16);
 490:Core/Src/palette.c ****     ILI9341_DispString_EN_CH( ptr->start_x + (ptr->end_x - ptr->start_x - 16*2 )/2,
 491:Core/Src/palette.c **** //																ptr->start_y+15,
 492:Core/Src/palette.c **** 																ptr->start_y+ ((ptr->end_y - ptr->start_y-16)/2),	
 493:Core/Src/palette.c **** 																"清屏");
 494:Core/Src/palette.c ****   }
 495:Core/Src/palette.c ****   else  /*按键按下*/
 496:Core/Src/palette.c ****   {
 497:Core/Src/palette.c **** 		
 498:Core/Src/palette.c **** 		LCD_SetColors(CL_WHITE,CL_WHITE);
 499:Core/Src/palette.c ****     ILI9341_DrawRectangle(ptr->start_x,
 500:Core/Src/palette.c **** 														ptr->start_y,
 501:Core/Src/palette.c **** 														ptr->end_x - ptr->start_x,
 502:Core/Src/palette.c **** 														ptr->end_y - ptr->start_y,1);
 503:Core/Src/palette.c ****     
 504:Core/Src/palette.c **** 		
 505:Core/Src/palette.c **** 		LCD_SetColors(CL_RED,CL_WHITE);
 506:Core/Src/palette.c **** 		/*选择字体，使用中英文显示时，尽量把英文选择成8*16的字体，
 507:Core/Src/palette.c **** 		*中文字体大小是16*16的，需要其它字体请自行制作字模*/
 508:Core/Src/palette.c **** 		/*这个函数只对英文字体起作用*/
 509:Core/Src/palette.c **** 		LCD_SetFont(&Font8x16);
 510:Core/Src/palette.c ****     ILI9341_DispString_EN_CH( ptr->start_x + (ptr->end_x - ptr->start_x - 16*2 )/2,          
 511:Core/Src/palette.c **** //																ptr->start_y+15,	           
 512:Core/Src/palette.c **** 																ptr->start_y+ ((ptr->end_y - ptr->start_y-16)/2),	
 513:Core/Src/palette.c **** 																"清屏");
 514:Core/Src/palette.c ****   } 
 515:Core/Src/palette.c ****   
 516:Core/Src/palette.c ****      /*按钮边框*/
 517:Core/Src/palette.c **** 		LCD_SetColors(CL_BLUE4,CL_WHITE);
 518:Core/Src/palette.c ****     ILI9341_DrawRectangle(ptr->start_x,
 519:Core/Src/palette.c **** 														ptr->start_y,
 520:Core/Src/palette.c **** 														ptr->end_x - ptr->start_x,
 521:Core/Src/palette.c **** 														ptr->end_y - ptr->start_y,0);
 522:Core/Src/palette.c ****   
 523:Core/Src/palette.c **** }
 524:Core/Src/palette.c **** 
 525:Core/Src/palette.c **** /**
 526:Core/Src/palette.c **** * @brief  Draw_Shape_Button 笔刷按钮的描绘函数
 527:Core/Src/palette.c **** * @param  btn Touch_Button 类型的按键参数
 528:Core/Src/palette.c **** * @retval 无
 529:Core/Src/palette.c **** */
 530:Core/Src/palette.c **** static void Draw_Shape_Button(void *btn)
 531:Core/Src/palette.c **** {
 532:Core/Src/palette.c ****   Touch_Button *ptr = (Touch_Button *)btn;
 533:Core/Src/palette.c ****   
 534:Core/Src/palette.c ****    uint16_t i;
 535:Core/Src/palette.c ****   
 536:Core/Src/palette.c ****     /* 背景颜色 没按下时为灰色，按下时为白色*/                  
 537:Core/Src/palette.c ****     if(ptr->touch_flag ==0 )
 538:Core/Src/palette.c ****     {
 539:Core/Src/palette.c **** 			
 540:Core/Src/palette.c **** 			LCD_SetColors(CL_BUTTON_GREY,CL_WHITE);
 541:Core/Src/palette.c **** 			ILI9341_DrawRectangle(	ptr->start_x,
 542:Core/Src/palette.c **** 																ptr->start_y,
 543:Core/Src/palette.c **** 																ptr->end_x - ptr->start_x,
 544:Core/Src/palette.c **** 																ptr->end_y - ptr->start_y,1);
 545:Core/Src/palette.c ****       
ARM GAS  C:\Users\84759\AppData\Local\Temp\ccPncmRd.s 			page 11


 546:Core/Src/palette.c **** 
 547:Core/Src/palette.c **** 			 /*显示文字时的背景颜色*/     
 548:Core/Src/palette.c **** 			LCD_SetColors(CL_BLUE4,CL_BUTTON_GREY);
 549:Core/Src/palette.c **** 			ILI9341_DrawRectangle(	ptr->start_x,
 550:Core/Src/palette.c **** 																ptr->start_y,
 551:Core/Src/palette.c **** 																ptr->end_x - ptr->start_x,
 552:Core/Src/palette.c **** 																ptr->end_y - ptr->start_y,0);
 553:Core/Src/palette.c **** 
 554:Core/Src/palette.c ****     }
 555:Core/Src/palette.c ****     else
 556:Core/Src/palette.c ****     {
 557:Core/Src/palette.c **** 
 558:Core/Src/palette.c **** 			LCD_SetColors(CL_WHITE,CL_WHITE);
 559:Core/Src/palette.c **** 			ILI9341_DrawRectangle(	ptr->start_x,
 560:Core/Src/palette.c **** 																ptr->start_y,
 561:Core/Src/palette.c **** 																ptr->end_x - ptr->start_x,
 562:Core/Src/palette.c **** 																ptr->end_y - ptr->start_y,1);
 563:Core/Src/palette.c ****       
 564:Core/Src/palette.c **** 
 565:Core/Src/palette.c **** 			 /*显示文字时的背景颜色*/     
 566:Core/Src/palette.c **** 			LCD_SetColors(CL_BLUE4,CL_WHITE);
 567:Core/Src/palette.c **** 			ILI9341_DrawRectangle(	ptr->start_x,
 568:Core/Src/palette.c **** 																ptr->start_y,
 569:Core/Src/palette.c **** 																ptr->end_x - ptr->start_x,
 570:Core/Src/palette.c **** 																ptr->end_y - ptr->start_y,0);
 571:Core/Src/palette.c ****     }
 572:Core/Src/palette.c ****   
 573:Core/Src/palette.c **** 	LCD_SetColors(CL_BLACK,CL_WHITE);	
 574:Core/Src/palette.c ****   /*根据画刷形状描绘按钮图案*/
 575:Core/Src/palette.c ****  switch(ptr->para)
 576:Core/Src/palette.c ****   {
 577:Core/Src/palette.c ****     		
 578:Core/Src/palette.c ****     case LINE_SINGLE_PIXCEL:      
 579:Core/Src/palette.c ****      		
 580:Core/Src/palette.c **** 				LCD_SetColors(CL_BLACK,CL_WHITE);
 581:Core/Src/palette.c ****         ILI9341_DrawLine(ptr->start_x+20,
 582:Core/Src/palette.c ****                           ptr->start_y+(ptr->end_y-ptr->start_y)/2,
 583:Core/Src/palette.c ****                           ptr->end_x-20,
 584:Core/Src/palette.c ****                           ptr->start_y+(ptr->end_y-ptr->start_y)/2);
 585:Core/Src/palette.c ****       
 586:Core/Src/palette.c ****       break;   
 587:Core/Src/palette.c **** 
 588:Core/Src/palette.c ****       
 589:Core/Src/palette.c ****     case LINE_2_PIXCEL:
 590:Core/Src/palette.c ****         
 591:Core/Src/palette.c ****         LCD_DrawUniLineCircle(ptr->start_x+20,
 592:Core/Src/palette.c ****                           ptr->start_y+(ptr->end_y-ptr->start_y)/2,ptr->end_x-20,
 593:Core/Src/palette.c ****                           ptr->start_y+(ptr->end_y-ptr->start_y)/2,
 594:Core/Src/palette.c ****                           1);
 595:Core/Src/palette.c ****  
 596:Core/Src/palette.c ****     
 597:Core/Src/palette.c ****       break;
 598:Core/Src/palette.c ****         
 599:Core/Src/palette.c ****     case LINE_4_PIXCEL:
 600:Core/Src/palette.c ****    
 601:Core/Src/palette.c ****             LCD_DrawUniLineCircle(ptr->start_x+20,
 602:Core/Src/palette.c ****                           ptr->start_y+(ptr->end_y-ptr->start_y)/2,ptr->end_x-20,
ARM GAS  C:\Users\84759\AppData\Local\Temp\ccPncmRd.s 			page 12


 603:Core/Src/palette.c ****                           ptr->start_y+(ptr->end_y-ptr->start_y)/2,
 604:Core/Src/palette.c ****                           2);
 605:Core/Src/palette.c ****  
 606:Core/Src/palette.c ****     
 607:Core/Src/palette.c ****       break;
 608:Core/Src/palette.c ****     
 609:Core/Src/palette.c ****         case LINE_6_PIXCEL:
 610:Core/Src/palette.c ****         
 611:Core/Src/palette.c ****         LCD_DrawUniLineCircle(ptr->start_x+20,
 612:Core/Src/palette.c ****                           ptr->start_y+(ptr->end_y-ptr->start_y)/2,ptr->end_x-20,
 613:Core/Src/palette.c ****                           ptr->start_y+(ptr->end_y-ptr->start_y)/2,
 614:Core/Src/palette.c ****                           3);
 615:Core/Src/palette.c ****  
 616:Core/Src/palette.c ****     
 617:Core/Src/palette.c ****       break;
 618:Core/Src/palette.c ****         
 619:Core/Src/palette.c ****      case LINE_8_PIXCEL:
 620:Core/Src/palette.c ****    
 621:Core/Src/palette.c ****             LCD_DrawUniLineCircle(ptr->start_x+20,
 622:Core/Src/palette.c ****                           ptr->start_y+(ptr->end_y-ptr->start_y)/2,ptr->end_x-20,
 623:Core/Src/palette.c ****                           ptr->start_y+(ptr->end_y-ptr->start_y)/2,
 624:Core/Src/palette.c ****                           4);
 625:Core/Src/palette.c ****  
 626:Core/Src/palette.c ****     
 627:Core/Src/palette.c ****       break;
 628:Core/Src/palette.c ****     
 629:Core/Src/palette.c ****        case LINE_16_PIXCEL:
 630:Core/Src/palette.c ****    
 631:Core/Src/palette.c ****             LCD_DrawUniLineCircle(ptr->start_x+20,
 632:Core/Src/palette.c ****                           ptr->start_y+(ptr->end_y-ptr->start_y)/2,ptr->end_x-20,
 633:Core/Src/palette.c ****                           ptr->start_y+(ptr->end_y-ptr->start_y)/2,
 634:Core/Src/palette.c ****                           8 );
 635:Core/Src/palette.c ****  
 636:Core/Src/palette.c ****     
 637:Core/Src/palette.c ****       break;
 638:Core/Src/palette.c ****         
 639:Core/Src/palette.c ****        case LINE_20_PIXCEL:
 640:Core/Src/palette.c ****    
 641:Core/Src/palette.c ****             LCD_DrawUniLineCircle(ptr->start_x+20,
 642:Core/Src/palette.c ****                           ptr->start_y+(ptr->end_y-ptr->start_y)/2,ptr->end_x-20,
 643:Core/Src/palette.c ****                           ptr->start_y+(ptr->end_y-ptr->start_y)/2,
 644:Core/Src/palette.c ****                           10);
 645:Core/Src/palette.c ****  
 646:Core/Src/palette.c ****     
 647:Core/Src/palette.c ****       break;
 648:Core/Src/palette.c ****             
 649:Core/Src/palette.c ****             
 650:Core/Src/palette.c ****     
 651:Core/Src/palette.c ****      case LINE_WITH_CIRCLE: 
 652:Core/Src/palette.c ****         LCD_SetColors(CL_BLACK,CL_WHITE);      
 653:Core/Src/palette.c ****         ILI9341_DrawLine(ptr->start_x+5,
 654:Core/Src/palette.c ****                           ptr->start_y+(ptr->end_y-ptr->start_y)/2,
 655:Core/Src/palette.c ****                           ptr->end_x-5,
 656:Core/Src/palette.c ****                           ptr->start_y+(ptr->end_y-ptr->start_y)/2);
 657:Core/Src/palette.c **** 		 
 658:Core/Src/palette.c ****         
 659:Core/Src/palette.c ****         for(i=0;i<((ptr->end_x - ptr->start_x-10)/10);i++)
ARM GAS  C:\Users\84759\AppData\Local\Temp\ccPncmRd.s 			page 13


 660:Core/Src/palette.c ****         {
 661:Core/Src/palette.c ****         
 662:Core/Src/palette.c ****         ILI9341_DrawCircle(	ptr->start_x+5+i*10,
 663:Core/Src/palette.c **** 															ptr->start_y+(ptr->end_y-ptr->start_y)/2,
 664:Core/Src/palette.c **** 															3,1);
 665:Core/Src/palette.c ****         
 666:Core/Src/palette.c **** 
 667:Core/Src/palette.c ****         }
 668:Core/Src/palette.c **** 
 669:Core/Src/palette.c ****       
 670:Core/Src/palette.c ****     break;
 671:Core/Src/palette.c ****       
 672:Core/Src/palette.c ****       
 673:Core/Src/palette.c ****     case RUBBER:
 674:Core/Src/palette.c **** 			LCD_SetColors(CL_WHITE,CL_BLACK);
 675:Core/Src/palette.c ****        ILI9341_DrawRectangle( 	ptr->start_x+((ptr->end_x - ptr->start_x -24)/2),
 676:Core/Src/palette.c **** 																	ptr->start_y+ ((ptr->end_y - ptr->start_y-24 -16)/2),
 677:Core/Src/palette.c **** 																	24,
 678:Core/Src/palette.c **** 																	24,1 );   
 679:Core/Src/palette.c ****       
 680:Core/Src/palette.c ****   
 681:Core/Src/palette.c **** 			LCD_SetColors(CL_RED,CL_BUTTON_GREY);    
 682:Core/Src/palette.c **** 
 683:Core/Src/palette.c **** 		/*选择字体，使用中英文显示时，尽量把英文选择成8*16的字体，
 684:Core/Src/palette.c **** 		*中文字体大小是24*24的，需要其它字体请自行制作字模*/
 685:Core/Src/palette.c **** 		/*这个函数只对英文字体起作用*/
 686:Core/Src/palette.c **** 		LCD_SetFont(&Font8x16);
 687:Core/Src/palette.c ****     ILI9341_DispString_EN_CH( ptr->start_x+(ptr->end_x - ptr->start_x -16*2)/2,
 688:Core/Src/palette.c **** 																ptr->start_y+ ((ptr->end_y - ptr->start_y-24 -16)/2)+24,		
 689:Core/Src/palette.c **** 																"橡皮");
 690:Core/Src/palette.c **** 		
 691:Core/Src/palette.c **** 
 692:Core/Src/palette.c ****     break;
 693:Core/Src/palette.c **** 
 694:Core/Src/palette.c ****   }
 695:Core/Src/palette.c ****   
 696:Core/Src/palette.c **** }
 697:Core/Src/palette.c **** 
 698:Core/Src/palette.c **** /**
 699:Core/Src/palette.c **** * @brief  Command_Select_Color 切换画刷颜色，颜色按键的功能执行函数
 700:Core/Src/palette.c **** * @param  btn Touch_Button 类型的按键参数
 701:Core/Src/palette.c **** * @retval 无
 702:Core/Src/palette.c **** */
 703:Core/Src/palette.c **** static void Command_Select_Color(void *btn)
 704:Core/Src/palette.c **** {
 705:Core/Src/palette.c ****   Touch_Button *ptr = (Touch_Button *)btn;
 706:Core/Src/palette.c ****   
 707:Core/Src/palette.c ****   brush.color = ptr->para;	
 708:Core/Src/palette.c **** 	LCD_SetColors(brush.color,CL_WHITE);
 709:Core/Src/palette.c ****   
 710:Core/Src/palette.c ****   if(brush.shape == RUBBER)
 711:Core/Src/palette.c ****   {
 712:Core/Src/palette.c ****     brush.shape = LINE_SINGLE_PIXCEL;
 713:Core/Src/palette.c ****   }
 714:Core/Src/palette.c **** 
 715:Core/Src/palette.c **** }
 716:Core/Src/palette.c **** 
ARM GAS  C:\Users\84759\AppData\Local\Temp\ccPncmRd.s 			page 14


 717:Core/Src/palette.c **** /**
 718:Core/Src/palette.c **** * @brief  Command_Select_Brush 切换画刷颜色，画刷按键的功能执行函数
 719:Core/Src/palette.c **** * @param  btn Touch_Button 类型的按键参数
 720:Core/Src/palette.c **** * @retval 无
 721:Core/Src/palette.c **** */
 722:Core/Src/palette.c **** static void Command_Select_Brush(void *btn)
 723:Core/Src/palette.c **** {
  27              		.loc 1 723 1 view -0
  28              		.cfi_startproc
  29              		@ args = 0, pretend = 0, frame = 0
  30              		@ frame_needed = 0, uses_anonymous_args = 0
  31              		.loc 1 723 1 is_stmt 0 view .LVU1
  32 0000 08B5     		push	{r3, lr}
  33              	.LCFI0:
  34              		.cfi_def_cfa_offset 8
  35              		.cfi_offset 3, -8
  36              		.cfi_offset 14, -4
 724:Core/Src/palette.c ****   Touch_Button *ptr = (Touch_Button *)btn;
  37              		.loc 1 724 3 is_stmt 1 view .LVU2
  38              	.LVL1:
 725:Core/Src/palette.c ****   brush.shape =(SHAPE) ptr->para;
  39              		.loc 1 725 3 view .LVU3
  40              		.loc 1 725 16 is_stmt 0 view .LVU4
  41 0002 027A     		ldrb	r2, [r0, #8]	@ zero_extendqisi2
  42              		.loc 1 725 15 view .LVU5
  43 0004 034B     		ldr	r3, .L3
  44 0006 1A71     		strb	r2, [r3, #4]
 726:Core/Src/palette.c **** 	LCD_SetColors(brush.color,CL_WHITE);
  45              		.loc 1 726 2 is_stmt 1 view .LVU6
  46 0008 4FF6FF71 		movw	r1, #65535
  47 000c 1888     		ldrh	r0, [r3]
  48              	.LVL2:
  49              		.loc 1 726 2 is_stmt 0 view .LVU7
  50 000e FFF7FEFF 		bl	LCD_SetColors
  51              	.LVL3:
 727:Core/Src/palette.c **** }
  52              		.loc 1 727 1 view .LVU8
  53 0012 08BD     		pop	{r3, pc}
  54              	.L4:
  55              		.align	2
  56              	.L3:
  57 0014 00000000 		.word	.LANCHOR0
  58              		.cfi_endproc
  59              	.LFE74:
  61              		.section	.text.Command_Select_Color,"ax",%progbits
  62              		.align	1
  63              		.syntax unified
  64              		.thumb
  65              		.thumb_func
  67              	Command_Select_Color:
  68              	.LVL4:
  69              	.LFB73:
 704:Core/Src/palette.c ****   Touch_Button *ptr = (Touch_Button *)btn;
  70              		.loc 1 704 1 is_stmt 1 view -0
  71              		.cfi_startproc
  72              		@ args = 0, pretend = 0, frame = 0
  73              		@ frame_needed = 0, uses_anonymous_args = 0
ARM GAS  C:\Users\84759\AppData\Local\Temp\ccPncmRd.s 			page 15


 704:Core/Src/palette.c ****   Touch_Button *ptr = (Touch_Button *)btn;
  74              		.loc 1 704 1 is_stmt 0 view .LVU10
  75 0000 10B5     		push	{r4, lr}
  76              	.LCFI1:
  77              		.cfi_def_cfa_offset 8
  78              		.cfi_offset 4, -8
  79              		.cfi_offset 14, -4
 705:Core/Src/palette.c ****   
  80              		.loc 1 705 3 is_stmt 1 view .LVU11
  81              	.LVL5:
 707:Core/Src/palette.c **** 	LCD_SetColors(brush.color,CL_WHITE);
  82              		.loc 1 707 3 view .LVU12
 707:Core/Src/palette.c **** 	LCD_SetColors(brush.color,CL_WHITE);
  83              		.loc 1 707 20 is_stmt 0 view .LVU13
  84 0002 8068     		ldr	r0, [r0, #8]
  85              	.LVL6:
 707:Core/Src/palette.c **** 	LCD_SetColors(brush.color,CL_WHITE);
  86              		.loc 1 707 15 view .LVU14
  87 0004 064C     		ldr	r4, .L9
  88 0006 2060     		str	r0, [r4]
 708:Core/Src/palette.c ****   
  89              		.loc 1 708 2 is_stmt 1 view .LVU15
  90 0008 4FF6FF71 		movw	r1, #65535
  91 000c 80B2     		uxth	r0, r0
  92 000e FFF7FEFF 		bl	LCD_SetColors
  93              	.LVL7:
 710:Core/Src/palette.c ****   {
  94              		.loc 1 710 3 view .LVU16
 710:Core/Src/palette.c ****   {
  95              		.loc 1 710 11 is_stmt 0 view .LVU17
  96 0012 2379     		ldrb	r3, [r4, #4]	@ zero_extendqisi2
 710:Core/Src/palette.c ****   {
  97              		.loc 1 710 5 view .LVU18
  98 0014 082B     		cmp	r3, #8
  99 0016 00D0     		beq	.L8
 100              	.L5:
 715:Core/Src/palette.c **** 
 101              		.loc 1 715 1 view .LVU19
 102 0018 10BD     		pop	{r4, pc}
 103              	.L8:
 712:Core/Src/palette.c ****   }
 104              		.loc 1 712 5 is_stmt 1 view .LVU20
 712:Core/Src/palette.c ****   }
 105              		.loc 1 712 17 is_stmt 0 view .LVU21
 106 001a 0022     		movs	r2, #0
 107 001c 2271     		strb	r2, [r4, #4]
 715:Core/Src/palette.c **** 
 108              		.loc 1 715 1 view .LVU22
 109 001e FBE7     		b	.L5
 110              	.L10:
 111              		.align	2
 112              	.L9:
 113 0020 00000000 		.word	.LANCHOR0
 114              		.cfi_endproc
 115              	.LFE73:
 117              		.section	.text.Command_Clear_Palette,"ax",%progbits
 118              		.align	1
ARM GAS  C:\Users\84759\AppData\Local\Temp\ccPncmRd.s 			page 16


 119              		.syntax unified
 120              		.thumb
 121              		.thumb_func
 123              	Command_Clear_Palette:
 124              	.LVL8:
 125              	.LFB75:
 728:Core/Src/palette.c **** 
 729:Core/Src/palette.c **** /**
 730:Core/Src/palette.c **** * @brief  Command_Select_Brush 切换画刷颜色，清屏按键的功能执行函数
 731:Core/Src/palette.c **** * @param  btn Touch_Button 类型的按键参数
 732:Core/Src/palette.c **** * @retval 无
 733:Core/Src/palette.c **** */
 734:Core/Src/palette.c **** static void Command_Clear_Palette(void *btn)
 735:Core/Src/palette.c **** {
 126              		.loc 1 735 1 is_stmt 1 view -0
 127              		.cfi_startproc
 128              		@ args = 0, pretend = 0, frame = 0
 129              		@ frame_needed = 0, uses_anonymous_args = 0
 130              		.loc 1 735 1 is_stmt 0 view .LVU24
 131 0000 00B5     		push	{lr}
 132              	.LCFI2:
 133              		.cfi_def_cfa_offset 4
 134              		.cfi_offset 14, -4
 135 0002 83B0     		sub	sp, sp, #12
 136              	.LCFI3:
 137              		.cfi_def_cfa_offset 16
 736:Core/Src/palette.c **** 		LCD_SetColors(CL_WHITE,CL_WHITE);
 138              		.loc 1 736 3 is_stmt 1 view .LVU25
 139 0004 4FF6FF71 		movw	r1, #65535
 140 0008 0846     		mov	r0, r1
 141              	.LVL9:
 142              		.loc 1 736 3 is_stmt 0 view .LVU26
 143 000a FFF7FEFF 		bl	LCD_SetColors
 144              	.LVL10:
 737:Core/Src/palette.c ****     ILI9341_DrawRectangle(	PALETTE_START_X,
 145              		.loc 1 737 5 is_stmt 1 view .LVU27
 146 000e 074B     		ldr	r3, .L13
 147 0010 1A88     		ldrh	r2, [r3]
 148 0012 523A     		subs	r2, r2, #82
 149 0014 0123     		movs	r3, #1
 150 0016 0093     		str	r3, [sp]
 151 0018 054B     		ldr	r3, .L13+4
 152 001a 1B88     		ldrh	r3, [r3]
 153 001c 92B2     		uxth	r2, r2
 154 001e 0021     		movs	r1, #0
 155 0020 5120     		movs	r0, #81
 156 0022 FFF7FEFF 		bl	ILI9341_DrawRectangle
 157              	.LVL11:
 738:Core/Src/palette.c **** 															PALETTE_START_Y,                    
 739:Core/Src/palette.c **** 															PALETTE_END_X-(PALETTE_START_X+1), 
 740:Core/Src/palette.c **** 															PALETTE_END_Y-PALETTE_START_Y ,1);
 741:Core/Src/palette.c **** 
 742:Core/Src/palette.c **** }
 158              		.loc 1 742 1 is_stmt 0 view .LVU28
 159 0026 03B0     		add	sp, sp, #12
 160              	.LCFI4:
 161              		.cfi_def_cfa_offset 4
ARM GAS  C:\Users\84759\AppData\Local\Temp\ccPncmRd.s 			page 17


 162              		@ sp needed
 163 0028 5DF804FB 		ldr	pc, [sp], #4
 164              	.L14:
 165              		.align	2
 166              	.L13:
 167 002c 00000000 		.word	LCD_X_LENGTH
 168 0030 00000000 		.word	LCD_Y_LENGTH
 169              		.cfi_endproc
 170              	.LFE75:
 172              		.section	.text.Draw_Color_Button,"ax",%progbits
 173              		.align	1
 174              		.syntax unified
 175              		.thumb
 176              		.thumb_func
 178              	Draw_Color_Button:
 179              	.LVL12:
 180              	.LFB70:
 432:Core/Src/palette.c ****   Touch_Button *ptr = (Touch_Button *)btn;
 181              		.loc 1 432 1 is_stmt 1 view -0
 182              		.cfi_startproc
 183              		@ args = 0, pretend = 0, frame = 0
 184              		@ frame_needed = 0, uses_anonymous_args = 0
 432:Core/Src/palette.c ****   Touch_Button *ptr = (Touch_Button *)btn;
 185              		.loc 1 432 1 is_stmt 0 view .LVU30
 186 0000 30B5     		push	{r4, r5, lr}
 187              	.LCFI5:
 188              		.cfi_def_cfa_offset 12
 189              		.cfi_offset 4, -12
 190              		.cfi_offset 5, -8
 191              		.cfi_offset 14, -4
 192 0002 83B0     		sub	sp, sp, #12
 193              	.LCFI6:
 194              		.cfi_def_cfa_offset 24
 195 0004 0446     		mov	r4, r0
 433:Core/Src/palette.c ****   
 196              		.loc 1 433 3 is_stmt 1 view .LVU31
 197              	.LVL13:
 436:Core/Src/palette.c ****   {
 198              		.loc 1 436 3 view .LVU32
 436:Core/Src/palette.c ****   {
 199              		.loc 1 436 9 is_stmt 0 view .LVU33
 200 0006 037B     		ldrb	r3, [r0, #12]	@ zero_extendqisi2
 436:Core/Src/palette.c ****   {
 201              		.loc 1 436 5 view .LVU34
 202 0008 23BB     		cbnz	r3, .L16
 439:Core/Src/palette.c ****     ILI9341_DrawRectangle(	ptr->start_x,
 203              		.loc 1 439 3 is_stmt 1 view .LVU35
 204 000a 4FF6FF71 		movw	r1, #65535
 205 000e 0089     		ldrh	r0, [r0, #8]
 206              	.LVL14:
 439:Core/Src/palette.c ****     ILI9341_DrawRectangle(	ptr->start_x,
 207              		.loc 1 439 3 is_stmt 0 view .LVU36
 208 0010 FFF7FEFF 		bl	LCD_SetColors
 209              	.LVL15:
 440:Core/Src/palette.c **** 															ptr->start_y,
 210              		.loc 1 440 5 is_stmt 1 view .LVU37
 211 0014 2088     		ldrh	r0, [r4]
ARM GAS  C:\Users\84759\AppData\Local\Temp\ccPncmRd.s 			page 18


 212 0016 6188     		ldrh	r1, [r4, #2]
 442:Core/Src/palette.c **** 															ptr->end_y - ptr->start_y,1);
 213              		.loc 1 442 19 is_stmt 0 view .LVU38
 214 0018 A288     		ldrh	r2, [r4, #4]
 443:Core/Src/palette.c ****   }
 215              		.loc 1 443 19 view .LVU39
 216 001a E388     		ldrh	r3, [r4, #6]
 440:Core/Src/palette.c **** 															ptr->start_y,
 217              		.loc 1 440 5 view .LVU40
 218 001c 5B1A     		subs	r3, r3, r1
 219 001e 121A     		subs	r2, r2, r0
 220 0020 0125     		movs	r5, #1
 221 0022 0095     		str	r5, [sp]
 222 0024 9BB2     		uxth	r3, r3
 223 0026 92B2     		uxth	r2, r2
 224 0028 FFF7FEFF 		bl	ILI9341_DrawRectangle
 225              	.LVL16:
 226              	.L17:
 455:Core/Src/palette.c ****     ILI9341_DrawRectangle(	ptr->start_x,
 227              		.loc 1 455 3 is_stmt 1 view .LVU41
 228 002c 4FF6FF71 		movw	r1, #65535
 229 0030 4FF40470 		mov	r0, #528
 230 0034 FFF7FEFF 		bl	LCD_SetColors
 231              	.LVL17:
 456:Core/Src/palette.c **** 															ptr->start_y,
 232              		.loc 1 456 5 view .LVU42
 233 0038 2088     		ldrh	r0, [r4]
 234 003a 6188     		ldrh	r1, [r4, #2]
 458:Core/Src/palette.c **** 															ptr->end_y - ptr->start_y,0);
 235              		.loc 1 458 19 is_stmt 0 view .LVU43
 236 003c A288     		ldrh	r2, [r4, #4]
 459:Core/Src/palette.c ****   
 237              		.loc 1 459 19 view .LVU44
 238 003e E388     		ldrh	r3, [r4, #6]
 456:Core/Src/palette.c **** 															ptr->start_y,
 239              		.loc 1 456 5 view .LVU45
 240 0040 5B1A     		subs	r3, r3, r1
 241 0042 121A     		subs	r2, r2, r0
 242 0044 0024     		movs	r4, #0
 243              	.LVL18:
 456:Core/Src/palette.c **** 															ptr->start_y,
 244              		.loc 1 456 5 view .LVU46
 245 0046 0094     		str	r4, [sp]
 246 0048 9BB2     		uxth	r3, r3
 247 004a 92B2     		uxth	r2, r2
 248 004c FFF7FEFF 		bl	ILI9341_DrawRectangle
 249              	.LVL19:
 461:Core/Src/palette.c **** 
 250              		.loc 1 461 1 view .LVU47
 251 0050 03B0     		add	sp, sp, #12
 252              	.LCFI7:
 253              		.cfi_remember_state
 254              		.cfi_def_cfa_offset 12
 255              		@ sp needed
 256 0052 30BD     		pop	{r4, r5, pc}
 257              	.LVL20:
 258              	.L16:
ARM GAS  C:\Users\84759\AppData\Local\Temp\ccPncmRd.s 			page 19


 259              	.LCFI8:
 260              		.cfi_restore_state
 448:Core/Src/palette.c ****     ILI9341_DrawRectangle(	ptr->start_x,
 261              		.loc 1 448 3 is_stmt 1 view .LVU48
 262 0054 4FF6FF71 		movw	r1, #65535
 263 0058 0846     		mov	r0, r1
 264              	.LVL21:
 448:Core/Src/palette.c ****     ILI9341_DrawRectangle(	ptr->start_x,
 265              		.loc 1 448 3 is_stmt 0 view .LVU49
 266 005a FFF7FEFF 		bl	LCD_SetColors
 267              	.LVL22:
 449:Core/Src/palette.c **** 															ptr->start_y,
 268              		.loc 1 449 5 is_stmt 1 view .LVU50
 269 005e 2088     		ldrh	r0, [r4]
 270 0060 6188     		ldrh	r1, [r4, #2]
 451:Core/Src/palette.c **** 															ptr->end_y - ptr->start_y,1);
 271              		.loc 1 451 19 is_stmt 0 view .LVU51
 272 0062 A288     		ldrh	r2, [r4, #4]
 452:Core/Src/palette.c ****   } 
 273              		.loc 1 452 19 view .LVU52
 274 0064 E388     		ldrh	r3, [r4, #6]
 449:Core/Src/palette.c **** 															ptr->start_y,
 275              		.loc 1 449 5 view .LVU53
 276 0066 5B1A     		subs	r3, r3, r1
 277 0068 121A     		subs	r2, r2, r0
 278 006a 0125     		movs	r5, #1
 279 006c 0095     		str	r5, [sp]
 280 006e 9BB2     		uxth	r3, r3
 281 0070 92B2     		uxth	r2, r2
 282 0072 FFF7FEFF 		bl	ILI9341_DrawRectangle
 283              	.LVL23:
 284 0076 D9E7     		b	.L17
 285              		.cfi_endproc
 286              	.LFE70:
 288              		.section	.text.LCD_DrawUniLineCircle,"ax",%progbits
 289              		.align	1
 290              		.syntax unified
 291              		.thumb
 292              		.thumb_func
 294              	LCD_DrawUniLineCircle:
 295              	.LVL24:
 296              	.LFB76:
 743:Core/Src/palette.c **** 
 744:Core/Src/palette.c **** 
 745:Core/Src/palette.c **** 
 746:Core/Src/palette.c **** #define ABS(X)  ((X) > 0 ? (X) : -(X))
 747:Core/Src/palette.c **** 
 748:Core/Src/palette.c **** /**
 749:Core/Src/palette.c ****   * @brief  在两点之间描绘轨迹
 750:Core/Src/palette.c ****   * @param  x1: specifies the point 1 x position.
 751:Core/Src/palette.c ****   * @param  y1: specifies the point 1 y position.
 752:Core/Src/palette.c ****   * @param  x2: specifies the point 2 x position.
 753:Core/Src/palette.c ****   * @param  y2: specifies the point 2 y position.
 754:Core/Src/palette.c ****   * @retval None
 755:Core/Src/palette.c ****   */
 756:Core/Src/palette.c **** static void LCD_DrawUniLineCircle(uint16_t x1, uint16_t y1, uint16_t x2, uint16_t y2,uint8_t thick 
 757:Core/Src/palette.c **** {
ARM GAS  C:\Users\84759\AppData\Local\Temp\ccPncmRd.s 			page 20


 297              		.loc 1 757 1 is_stmt 1 view -0
 298              		.cfi_startproc
 299              		@ args = 4, pretend = 0, frame = 24
 300              		@ frame_needed = 0, uses_anonymous_args = 0
 301              		.loc 1 757 1 is_stmt 0 view .LVU55
 302 0000 2DE9F04F 		push	{r4, r5, r6, r7, r8, r9, r10, fp, lr}
 303              	.LCFI9:
 304              		.cfi_def_cfa_offset 36
 305              		.cfi_offset 4, -36
 306              		.cfi_offset 5, -32
 307              		.cfi_offset 6, -28
 308              		.cfi_offset 7, -24
 309              		.cfi_offset 8, -20
 310              		.cfi_offset 9, -16
 311              		.cfi_offset 10, -12
 312              		.cfi_offset 11, -8
 313              		.cfi_offset 14, -4
 314 0004 87B0     		sub	sp, sp, #28
 315              	.LCFI10:
 316              		.cfi_def_cfa_offset 64
 317 0006 9DF84070 		ldrb	r7, [sp, #64]	@ zero_extendqisi2
 758:Core/Src/palette.c ****   int16_t deltax = 0, deltay = 0, x = 0, y = 0, xinc1 = 0, xinc2 = 0, 
 318              		.loc 1 758 3 is_stmt 1 view .LVU56
 319              	.LVL25:
 759:Core/Src/palette.c ****   yinc1 = 0, yinc2 = 0, den = 0, num = 0, numadd = 0, numpixels = 0, 
 760:Core/Src/palette.c ****   curpixel = 0;
 761:Core/Src/palette.c ****   
 762:Core/Src/palette.c ****   deltax = ABS(x2 - x1);        /* The difference between the x's */
 320              		.loc 1 762 3 view .LVU57
 321              		.loc 1 762 12 is_stmt 0 view .LVU58
 322 000a A2EB000A 		sub	r10, r2, r0
 323 000e BAF1000F 		cmp	r10, #0
 324 0012 B8BF     		it	lt
 325 0014 CAF1000A 		rsblt	r10, r10, #0
 326              		.loc 1 762 10 view .LVU59
 327 0018 0FFA8AFA 		sxth	r10, r10
 328              	.LVL26:
 763:Core/Src/palette.c ****   deltay = ABS(y2 - y1);        /* The difference between the y's */
 329              		.loc 1 763 3 is_stmt 1 view .LVU60
 330              		.loc 1 763 12 is_stmt 0 view .LVU61
 331 001c 5C1A     		subs	r4, r3, r1
 332 001e 002C     		cmp	r4, #0
 333 0020 B8BF     		it	lt
 334 0022 6442     		rsblt	r4, r4, #0
 335              		.loc 1 763 10 view .LVU62
 336 0024 26B2     		sxth	r6, r4
 337              	.LVL27:
 764:Core/Src/palette.c ****   x = x1;                       /* Start x off at the first pixel */
 338              		.loc 1 764 3 is_stmt 1 view .LVU63
 339              		.loc 1 764 5 is_stmt 0 view .LVU64
 340 0026 05B2     		sxth	r5, r0
 341              	.LVL28:
 765:Core/Src/palette.c ****   y = y1;                       /* Start y off at the first pixel */
 342              		.loc 1 765 3 is_stmt 1 view .LVU65
 343              		.loc 1 765 5 is_stmt 0 view .LVU66
 344 0028 0FFA81F8 		sxth	r8, r1
 345              	.LVL29:
ARM GAS  C:\Users\84759\AppData\Local\Temp\ccPncmRd.s 			page 21


 766:Core/Src/palette.c ****   
 767:Core/Src/palette.c **** 	
 768:Core/Src/palette.c ****   if (x2 >= x1)                 /* The x-values are increasing */
 346              		.loc 1 768 3 is_stmt 1 view .LVU67
 347              		.loc 1 768 6 is_stmt 0 view .LVU68
 348 002c 8242     		cmp	r2, r0
 349 002e 13D3     		bcc	.L28
 769:Core/Src/palette.c ****   {
 770:Core/Src/palette.c ****     xinc1 = 1;
 350              		.loc 1 770 11 view .LVU69
 351 0030 0122     		movs	r2, #1
 352              	.LVL30:
 353              		.loc 1 770 11 view .LVU70
 354 0032 0192     		str	r2, [sp, #4]
 355              	.L20:
 356              	.LVL31:
 771:Core/Src/palette.c ****     xinc2 = 1;
 772:Core/Src/palette.c ****   }
 773:Core/Src/palette.c ****   else                          /* The x-values are decreasing */
 774:Core/Src/palette.c ****   {
 775:Core/Src/palette.c ****     xinc1 = -1;
 776:Core/Src/palette.c ****     xinc2 = -1;
 777:Core/Src/palette.c ****   }
 778:Core/Src/palette.c ****   
 779:Core/Src/palette.c ****   if (y2 >= y1)                 /* The y-values are increasing */
 357              		.loc 1 779 3 is_stmt 1 view .LVU71
 358              		.loc 1 779 6 is_stmt 0 view .LVU72
 359 0034 8B42     		cmp	r3, r1
 360 0036 13D3     		bcc	.L29
 780:Core/Src/palette.c ****   {
 781:Core/Src/palette.c ****     yinc1 = 1;
 361              		.loc 1 781 11 view .LVU73
 362 0038 0123     		movs	r3, #1
 363              	.LVL32:
 364              		.loc 1 781 11 view .LVU74
 365 003a 0293     		str	r3, [sp, #8]
 366              	.L21:
 367              	.LVL33:
 782:Core/Src/palette.c ****     yinc2 = 1;
 783:Core/Src/palette.c ****   }
 784:Core/Src/palette.c ****   else                          /* The y-values are decreasing */
 785:Core/Src/palette.c ****   {
 786:Core/Src/palette.c ****     yinc1 = -1;
 787:Core/Src/palette.c ****     yinc2 = -1;
 788:Core/Src/palette.c ****   }
 789:Core/Src/palette.c ****   
 790:Core/Src/palette.c ****   if (deltax >= deltay)         /* There is at least one x-value for every y-value */
 368              		.loc 1 790 3 is_stmt 1 view .LVU75
 369              		.loc 1 790 6 is_stmt 0 view .LVU76
 370 003c B245     		cmp	r10, r6
 371 003e 13DB     		blt	.L22
 791:Core/Src/palette.c ****   {
 792:Core/Src/palette.c ****     xinc1 = 0;                  /* Don't change the x when numerator >= denominator */
 372              		.loc 1 792 5 is_stmt 1 view .LVU77
 373              	.LVL34:
 793:Core/Src/palette.c ****     yinc2 = 0;                  /* Don't change the y for every iteration */
 374              		.loc 1 793 5 view .LVU78
ARM GAS  C:\Users\84759\AppData\Local\Temp\ccPncmRd.s 			page 22


 794:Core/Src/palette.c ****     den = deltax;
 375              		.loc 1 794 5 view .LVU79
 795:Core/Src/palette.c ****     num = deltax / 2;
 376              		.loc 1 795 5 view .LVU80
 377              		.loc 1 795 9 is_stmt 0 view .LVU81
 378 0040 0AEBDA7B 		add	fp, r10, r10, lsr #31
 379 0044 4BF34F0B 		sbfx	fp, fp, #1, #16
 380              	.LVL35:
 796:Core/Src/palette.c ****     numadd = deltay;
 381              		.loc 1 796 5 is_stmt 1 view .LVU82
 797:Core/Src/palette.c ****     numpixels = deltax;         /* There are more x-values than y-values */
 382              		.loc 1 797 5 view .LVU83
 383              		.loc 1 797 5 is_stmt 0 view .LVU84
 384 0048 019B     		ldr	r3, [sp, #4]
 385 004a 0393     		str	r3, [sp, #12]
 793:Core/Src/palette.c ****     den = deltax;
 386              		.loc 1 793 11 view .LVU85
 387 004c 0023     		movs	r3, #0
 388 004e 0193     		str	r3, [sp, #4]
 389              	.LVL36:
 792:Core/Src/palette.c ****     yinc2 = 0;                  /* Don't change the y for every iteration */
 390              		.loc 1 792 11 view .LVU86
 391 0050 0493     		str	r3, [sp, #16]
 392              	.LVL37:
 393              	.L23:
 798:Core/Src/palette.c ****   }
 799:Core/Src/palette.c ****   else                          /* There is at least one y-value for every x-value */
 800:Core/Src/palette.c ****   {
 801:Core/Src/palette.c ****     xinc2 = 0;                  /* Don't change the x for every iteration */
 802:Core/Src/palette.c ****     yinc1 = 0;                  /* Don't change the y when numerator >= denominator */
 803:Core/Src/palette.c ****     den = deltay;
 804:Core/Src/palette.c ****     num = deltay / 2;
 805:Core/Src/palette.c ****     numadd = deltax;
 806:Core/Src/palette.c ****     numpixels = deltay;         /* There are more y-values than x-values */
 807:Core/Src/palette.c ****   }
 808:Core/Src/palette.c ****   
 809:Core/Src/palette.c ****   for (curpixel = 0; curpixel <= numpixels; curpixel++)
 394              		.loc 1 809 3 is_stmt 1 view .LVU87
 395              		.loc 1 809 17 is_stmt 0 view .LVU88
 396 0052 0024     		movs	r4, #0
 397              	.LVL38:
 398              		.loc 1 809 17 view .LVU89
 399 0054 0596     		str	r6, [sp, #20]
 400              		.loc 1 809 3 view .LVU90
 401 0056 1DE0     		b	.L24
 402              	.LVL39:
 403              	.L28:
 775:Core/Src/palette.c ****     xinc2 = -1;
 404              		.loc 1 775 11 view .LVU91
 405 0058 4FF0FF32 		mov	r2, #-1
 406              	.LVL40:
 775:Core/Src/palette.c ****     xinc2 = -1;
 407              		.loc 1 775 11 view .LVU92
 408 005c 0192     		str	r2, [sp, #4]
 409 005e E9E7     		b	.L20
 410              	.LVL41:
 411              	.L29:
ARM GAS  C:\Users\84759\AppData\Local\Temp\ccPncmRd.s 			page 23


 786:Core/Src/palette.c ****     yinc2 = -1;
 412              		.loc 1 786 11 view .LVU93
 413 0060 4FF0FF33 		mov	r3, #-1
 414              	.LVL42:
 786:Core/Src/palette.c ****     yinc2 = -1;
 415              		.loc 1 786 11 view .LVU94
 416 0064 0293     		str	r3, [sp, #8]
 417 0066 E9E7     		b	.L21
 418              	.LVL43:
 419              	.L22:
 801:Core/Src/palette.c ****     yinc1 = 0;                  /* Don't change the y when numerator >= denominator */
 420              		.loc 1 801 5 is_stmt 1 view .LVU95
 802:Core/Src/palette.c ****     den = deltay;
 421              		.loc 1 802 5 view .LVU96
 803:Core/Src/palette.c ****     num = deltay / 2;
 422              		.loc 1 803 5 view .LVU97
 804:Core/Src/palette.c ****     numadd = deltax;
 423              		.loc 1 804 5 view .LVU98
 804:Core/Src/palette.c ****     numadd = deltax;
 424              		.loc 1 804 9 is_stmt 0 view .LVU99
 425 0068 06EBD67B 		add	fp, r6, r6, lsr #31
 426 006c 4BF34F0B 		sbfx	fp, fp, #1, #16
 427              	.LVL44:
 805:Core/Src/palette.c ****     numpixels = deltay;         /* There are more y-values than x-values */
 428              		.loc 1 805 5 is_stmt 1 view .LVU100
 806:Core/Src/palette.c ****   }
 429              		.loc 1 806 5 view .LVU101
 804:Core/Src/palette.c ****     numadd = deltax;
 430              		.loc 1 804 9 is_stmt 0 view .LVU102
 431 0070 5346     		mov	r3, r10
 803:Core/Src/palette.c ****     num = deltay / 2;
 432              		.loc 1 803 9 view .LVU103
 433 0072 B246     		mov	r10, r6
 434              	.LVL45:
 805:Core/Src/palette.c ****     numpixels = deltay;         /* There are more y-values than x-values */
 435              		.loc 1 805 12 view .LVU104
 436 0074 1E46     		mov	r6, r3
 437              	.LVL46:
 804:Core/Src/palette.c ****     numadd = deltax;
 438              		.loc 1 804 9 view .LVU105
 439 0076 029B     		ldr	r3, [sp, #8]
 440              	.LVL47:
 804:Core/Src/palette.c ****     numadd = deltax;
 441              		.loc 1 804 9 view .LVU106
 442 0078 0493     		str	r3, [sp, #16]
 802:Core/Src/palette.c ****     den = deltay;
 443              		.loc 1 802 11 view .LVU107
 444 007a 0023     		movs	r3, #0
 445 007c 0293     		str	r3, [sp, #8]
 446              	.LVL48:
 801:Core/Src/palette.c ****     yinc1 = 0;                  /* Don't change the y when numerator >= denominator */
 447              		.loc 1 801 11 view .LVU108
 448 007e 0393     		str	r3, [sp, #12]
 449 0080 E7E7     		b	.L23
 450              	.LVL49:
 451              	.L26:
 810:Core/Src/palette.c ****   {
ARM GAS  C:\Users\84759\AppData\Local\Temp\ccPncmRd.s 			page 24


 811:Core/Src/palette.c **** 		
 812:Core/Src/palette.c **** 		//判断边界
 813:Core/Src/palette.c **** 		if(x+thick>LCD_X_LENGTH || x-thick<0 || //液晶左右边界
 814:Core/Src/palette.c **** 			y+thick>LCD_Y_LENGTH || y-thick<0  ) //液晶上下边界
 815:Core/Src/palette.c **** 			continue;
 816:Core/Src/palette.c **** 
 817:Core/Src/palette.c ****     ILI9341_DrawCircle(x,y,thick,1);             /* Draw the current pixel */
 818:Core/Src/palette.c ****     num += numadd;              /* Increase the numerator by the top of the fraction */
 819:Core/Src/palette.c ****     if (num >= den)             /* Check if numerator >= denominator */
 820:Core/Src/palette.c ****     {
 821:Core/Src/palette.c ****       num -= den;               /* Calculate the new numerator value */
 822:Core/Src/palette.c ****       x += xinc1;               /* Change the x as appropriate */
 823:Core/Src/palette.c ****       y += yinc1;               /* Change the y as appropriate */
 824:Core/Src/palette.c ****     }
 825:Core/Src/palette.c ****     x += xinc2;                 /* Change the x as appropriate */
 452              		.loc 1 825 5 is_stmt 1 view .LVU109
 453              		.loc 1 825 7 is_stmt 0 view .LVU110
 454 0082 039B     		ldr	r3, [sp, #12]
 455 0084 1D44     		add	r5, r5, r3
 456              	.LVL50:
 457              		.loc 1 825 7 view .LVU111
 458 0086 2DB2     		sxth	r5, r5
 459              	.LVL51:
 826:Core/Src/palette.c ****     y += yinc2;                 /* Change the y as appropriate */
 460              		.loc 1 826 5 is_stmt 1 view .LVU112
 461              		.loc 1 826 7 is_stmt 0 view .LVU113
 462 0088 049B     		ldr	r3, [sp, #16]
 463 008a 9844     		add	r8, r8, r3
 464              	.LVL52:
 465              		.loc 1 826 7 view .LVU114
 466 008c 0FFA88F8 		sxth	r8, r8
 467              	.LVL53:
 468              	.L25:
 809:Core/Src/palette.c ****   {
 469              		.loc 1 809 45 is_stmt 1 discriminator 2 view .LVU115
 809:Core/Src/palette.c ****   {
 470              		.loc 1 809 53 is_stmt 0 discriminator 2 view .LVU116
 471 0090 0134     		adds	r4, r4, #1
 472              	.LVL54:
 809:Core/Src/palette.c ****   {
 473              		.loc 1 809 53 discriminator 2 view .LVU117
 474 0092 24B2     		sxth	r4, r4
 475              	.LVL55:
 476              	.L24:
 809:Core/Src/palette.c ****   {
 477              		.loc 1 809 22 is_stmt 1 discriminator 1 view .LVU118
 809:Core/Src/palette.c ****   {
 478              		.loc 1 809 3 is_stmt 0 discriminator 1 view .LVU119
 479 0094 A245     		cmp	r10, r4
 480 0096 30DB     		blt	.L31
 813:Core/Src/palette.c **** 			y+thick>LCD_Y_LENGTH || y-thick<0  ) //液晶上下边界
 481              		.loc 1 813 3 is_stmt 1 view .LVU120
 813:Core/Src/palette.c **** 			y+thick>LCD_Y_LENGTH || y-thick<0  ) //液晶上下边界
 482              		.loc 1 813 7 is_stmt 0 view .LVU121
 483 0098 EB19     		adds	r3, r5, r7
 813:Core/Src/palette.c **** 			y+thick>LCD_Y_LENGTH || y-thick<0  ) //液晶上下边界
 484              		.loc 1 813 13 view .LVU122
ARM GAS  C:\Users\84759\AppData\Local\Temp\ccPncmRd.s 			page 25


 485 009a 194A     		ldr	r2, .L32
 486 009c 1288     		ldrh	r2, [r2]
 813:Core/Src/palette.c **** 			y+thick>LCD_Y_LENGTH || y-thick<0  ) //液晶上下边界
 487              		.loc 1 813 5 view .LVU123
 488 009e 9342     		cmp	r3, r2
 489 00a0 F6DC     		bgt	.L25
 813:Core/Src/palette.c **** 			y+thick>LCD_Y_LENGTH || y-thick<0  ) //液晶上下边界
 490              		.loc 1 813 31 discriminator 1 view .LVU124
 491 00a2 EB1B     		subs	r3, r5, r7
 813:Core/Src/palette.c **** 			y+thick>LCD_Y_LENGTH || y-thick<0  ) //液晶上下边界
 492              		.loc 1 813 27 discriminator 1 view .LVU125
 493 00a4 002B     		cmp	r3, #0
 494 00a6 F3DB     		blt	.L25
 814:Core/Src/palette.c **** 			continue;
 495              		.loc 1 814 5 discriminator 2 view .LVU126
 496 00a8 07EB0803 		add	r3, r7, r8
 814:Core/Src/palette.c **** 			continue;
 497              		.loc 1 814 11 discriminator 2 view .LVU127
 498 00ac 154A     		ldr	r2, .L32+4
 499 00ae 1288     		ldrh	r2, [r2]
 813:Core/Src/palette.c **** 			y+thick>LCD_Y_LENGTH || y-thick<0  ) //液晶上下边界
 500              		.loc 1 813 40 discriminator 2 view .LVU128
 501 00b0 9342     		cmp	r3, r2
 502 00b2 EDDC     		bgt	.L25
 814:Core/Src/palette.c **** 			continue;
 503              		.loc 1 814 29 view .LVU129
 504 00b4 A8EB0703 		sub	r3, r8, r7
 814:Core/Src/palette.c **** 			continue;
 505              		.loc 1 814 25 view .LVU130
 506 00b8 002B     		cmp	r3, #0
 507 00ba E9DB     		blt	.L25
 817:Core/Src/palette.c ****     num += numadd;              /* Increase the numerator by the top of the fraction */
 508              		.loc 1 817 5 is_stmt 1 view .LVU131
 509 00bc 1FFA85F9 		uxth	r9, r5
 510 00c0 1FFA88F6 		uxth	r6, r8
 511 00c4 0123     		movs	r3, #1
 512 00c6 3A46     		mov	r2, r7
 513 00c8 3146     		mov	r1, r6
 514 00ca 4846     		mov	r0, r9
 515 00cc FFF7FEFF 		bl	ILI9341_DrawCircle
 516              	.LVL56:
 818:Core/Src/palette.c ****     if (num >= den)             /* Check if numerator >= denominator */
 517              		.loc 1 818 5 view .LVU132
 818:Core/Src/palette.c ****     if (num >= den)             /* Check if numerator >= denominator */
 518              		.loc 1 818 9 is_stmt 0 view .LVU133
 519 00d0 059B     		ldr	r3, [sp, #20]
 520 00d2 9B44     		add	fp, fp, r3
 521              	.LVL57:
 818:Core/Src/palette.c ****     if (num >= den)             /* Check if numerator >= denominator */
 522              		.loc 1 818 9 view .LVU134
 523 00d4 1FFA8BF3 		uxth	r3, fp
 524 00d8 0FFA8BFB 		sxth	fp, fp
 525              	.LVL58:
 819:Core/Src/palette.c ****     {
 526              		.loc 1 819 5 is_stmt 1 view .LVU135
 819:Core/Src/palette.c ****     {
 527              		.loc 1 819 8 is_stmt 0 view .LVU136
ARM GAS  C:\Users\84759\AppData\Local\Temp\ccPncmRd.s 			page 26


 528 00dc DA45     		cmp	r10, fp
 529 00de D0DC     		bgt	.L26
 821:Core/Src/palette.c ****       x += xinc1;               /* Change the x as appropriate */
 530              		.loc 1 821 7 is_stmt 1 view .LVU137
 821:Core/Src/palette.c ****       x += xinc1;               /* Change the x as appropriate */
 531              		.loc 1 821 11 is_stmt 0 view .LVU138
 532 00e0 A3EB0A03 		sub	r3, r3, r10
 533 00e4 0FFA83FB 		sxth	fp, r3
 534              	.LVL59:
 822:Core/Src/palette.c ****       y += yinc1;               /* Change the y as appropriate */
 535              		.loc 1 822 7 is_stmt 1 view .LVU139
 822:Core/Src/palette.c ****       y += yinc1;               /* Change the y as appropriate */
 536              		.loc 1 822 9 is_stmt 0 view .LVU140
 537 00e8 019B     		ldr	r3, [sp, #4]
 538 00ea 09EB0305 		add	r5, r9, r3
 539              	.LVL60:
 822:Core/Src/palette.c ****       y += yinc1;               /* Change the y as appropriate */
 540              		.loc 1 822 9 view .LVU141
 541 00ee 2DB2     		sxth	r5, r5
 542              	.LVL61:
 823:Core/Src/palette.c ****     }
 543              		.loc 1 823 7 is_stmt 1 view .LVU142
 823:Core/Src/palette.c ****     }
 544              		.loc 1 823 9 is_stmt 0 view .LVU143
 545 00f0 029B     		ldr	r3, [sp, #8]
 546 00f2 1E44     		add	r6, r6, r3
 547 00f4 0FFA86F8 		sxth	r8, r6
 548              	.LVL62:
 823:Core/Src/palette.c ****     }
 549              		.loc 1 823 9 view .LVU144
 550 00f8 C3E7     		b	.L26
 551              	.L31:
 827:Core/Src/palette.c ****   }
 828:Core/Src/palette.c **** }
 552              		.loc 1 828 1 view .LVU145
 553 00fa 07B0     		add	sp, sp, #28
 554              	.LCFI11:
 555              		.cfi_def_cfa_offset 36
 556              		@ sp needed
 557 00fc BDE8F08F 		pop	{r4, r5, r6, r7, r8, r9, r10, fp, pc}
 558              	.LVL63:
 559              	.L33:
 560              		.loc 1 828 1 view .LVU146
 561              		.align	2
 562              	.L32:
 563 0100 00000000 		.word	LCD_X_LENGTH
 564 0104 00000000 		.word	LCD_Y_LENGTH
 565              		.cfi_endproc
 566              	.LFE76:
 568              		.section	.rodata.Draw_Shape_Button.str1.4,"aMS",%progbits,1
 569              		.align	2
 570              	.LC0:
 571 0000 CFF0C6A4 		.ascii	"\317\360\306\244\000"
 571      00
 572              		.section	.text.Draw_Shape_Button,"ax",%progbits
 573              		.align	1
 574              		.syntax unified
ARM GAS  C:\Users\84759\AppData\Local\Temp\ccPncmRd.s 			page 27


 575              		.thumb
 576              		.thumb_func
 578              	Draw_Shape_Button:
 579              	.LVL64:
 580              	.LFB72:
 531:Core/Src/palette.c ****   Touch_Button *ptr = (Touch_Button *)btn;
 581              		.loc 1 531 1 is_stmt 1 view -0
 582              		.cfi_startproc
 583              		@ args = 0, pretend = 0, frame = 0
 584              		@ frame_needed = 0, uses_anonymous_args = 0
 531:Core/Src/palette.c ****   Touch_Button *ptr = (Touch_Button *)btn;
 585              		.loc 1 531 1 is_stmt 0 view .LVU148
 586 0000 30B5     		push	{r4, r5, lr}
 587              	.LCFI12:
 588              		.cfi_def_cfa_offset 12
 589              		.cfi_offset 4, -12
 590              		.cfi_offset 5, -8
 591              		.cfi_offset 14, -4
 592 0002 83B0     		sub	sp, sp, #12
 593              	.LCFI13:
 594              		.cfi_def_cfa_offset 24
 595 0004 0446     		mov	r4, r0
 532:Core/Src/palette.c ****   
 596              		.loc 1 532 3 is_stmt 1 view .LVU149
 597              	.LVL65:
 534:Core/Src/palette.c ****   
 598              		.loc 1 534 4 view .LVU150
 537:Core/Src/palette.c ****     {
 599              		.loc 1 537 5 view .LVU151
 537:Core/Src/palette.c ****     {
 600              		.loc 1 537 11 is_stmt 0 view .LVU152
 601 0006 037B     		ldrb	r3, [r0, #12]	@ zero_extendqisi2
 537:Core/Src/palette.c ****     {
 602              		.loc 1 537 7 view .LVU153
 603 0008 002B     		cmp	r3, #0
 604 000a 36D1     		bne	.L35
 540:Core/Src/palette.c **** 			ILI9341_DrawRectangle(	ptr->start_x,
 605              		.loc 1 540 4 is_stmt 1 view .LVU154
 606 000c 4FF6FF71 		movw	r1, #65535
 607 0010 4CF21860 		movw	r0, #50712
 608              	.LVL66:
 540:Core/Src/palette.c **** 			ILI9341_DrawRectangle(	ptr->start_x,
 609              		.loc 1 540 4 is_stmt 0 view .LVU155
 610 0014 FFF7FEFF 		bl	LCD_SetColors
 611              	.LVL67:
 541:Core/Src/palette.c **** 																ptr->start_y,
 612              		.loc 1 541 4 is_stmt 1 view .LVU156
 613 0018 2088     		ldrh	r0, [r4]
 614 001a 6188     		ldrh	r1, [r4, #2]
 543:Core/Src/palette.c **** 																ptr->end_y - ptr->start_y,1);
 615              		.loc 1 543 20 is_stmt 0 view .LVU157
 616 001c A288     		ldrh	r2, [r4, #4]
 544:Core/Src/palette.c ****       
 617              		.loc 1 544 20 view .LVU158
 618 001e E388     		ldrh	r3, [r4, #6]
 541:Core/Src/palette.c **** 																ptr->start_y,
 619              		.loc 1 541 4 view .LVU159
ARM GAS  C:\Users\84759\AppData\Local\Temp\ccPncmRd.s 			page 28


 620 0020 5B1A     		subs	r3, r3, r1
 621 0022 121A     		subs	r2, r2, r0
 622 0024 0125     		movs	r5, #1
 623 0026 0095     		str	r5, [sp]
 624 0028 9BB2     		uxth	r3, r3
 625 002a 92B2     		uxth	r2, r2
 626 002c FFF7FEFF 		bl	ILI9341_DrawRectangle
 627              	.LVL68:
 548:Core/Src/palette.c **** 			ILI9341_DrawRectangle(	ptr->start_x,
 628              		.loc 1 548 4 is_stmt 1 view .LVU160
 629 0030 4CF21861 		movw	r1, #50712
 630 0034 4FF40470 		mov	r0, #528
 631 0038 FFF7FEFF 		bl	LCD_SetColors
 632              	.LVL69:
 549:Core/Src/palette.c **** 																ptr->start_y,
 633              		.loc 1 549 4 view .LVU161
 634 003c 2088     		ldrh	r0, [r4]
 635 003e 6188     		ldrh	r1, [r4, #2]
 551:Core/Src/palette.c **** 																ptr->end_y - ptr->start_y,0);
 636              		.loc 1 551 20 is_stmt 0 view .LVU162
 637 0040 A288     		ldrh	r2, [r4, #4]
 552:Core/Src/palette.c **** 
 638              		.loc 1 552 20 view .LVU163
 639 0042 E388     		ldrh	r3, [r4, #6]
 549:Core/Src/palette.c **** 																ptr->start_y,
 640              		.loc 1 549 4 view .LVU164
 641 0044 5B1A     		subs	r3, r3, r1
 642 0046 121A     		subs	r2, r2, r0
 643 0048 0025     		movs	r5, #0
 644 004a 0095     		str	r5, [sp]
 645 004c 9BB2     		uxth	r3, r3
 646 004e 92B2     		uxth	r2, r2
 647 0050 FFF7FEFF 		bl	ILI9341_DrawRectangle
 648              	.LVL70:
 649              	.L36:
 573:Core/Src/palette.c ****   /*根据画刷形状描绘按钮图案*/
 650              		.loc 1 573 2 is_stmt 1 view .LVU165
 651 0054 4FF6FF71 		movw	r1, #65535
 652 0058 0020     		movs	r0, #0
 653 005a FFF7FEFF 		bl	LCD_SetColors
 654              	.LVL71:
 575:Core/Src/palette.c ****   {
 655              		.loc 1 575 2 view .LVU166
 575:Core/Src/palette.c ****   {
 656              		.loc 1 575 12 is_stmt 0 view .LVU167
 657 005e A368     		ldr	r3, [r4, #8]
 575:Core/Src/palette.c ****   {
 658              		.loc 1 575 2 view .LVU168
 659 0060 082B     		cmp	r3, #8
 660 0062 44D8     		bhi	.L34
 661 0064 DFE813F0 		tbh	[pc, r3, lsl #1]
 662              	.L39:
 663 0068 2D00     		.2byte	(.L47-.L39)/2
 664 006a 4500     		.2byte	(.L46-.L39)/2
 665 006c 5900     		.2byte	(.L45-.L39)/2
 666 006e 6D00     		.2byte	(.L44-.L39)/2
 667 0070 8100     		.2byte	(.L43-.L39)/2
ARM GAS  C:\Users\84759\AppData\Local\Temp\ccPncmRd.s 			page 29


 668 0072 9500     		.2byte	(.L42-.L39)/2
 669 0074 A900     		.2byte	(.L41-.L39)/2
 670 0076 BD00     		.2byte	(.L40-.L39)/2
 671 0078 F700     		.2byte	(.L38-.L39)/2
 672              	.LVL72:
 673              		.p2align 1
 674              	.L35:
 558:Core/Src/palette.c **** 			ILI9341_DrawRectangle(	ptr->start_x,
 675              		.loc 1 558 4 is_stmt 1 view .LVU169
 676 007a 4FF6FF71 		movw	r1, #65535
 677 007e 0846     		mov	r0, r1
 678              	.LVL73:
 558:Core/Src/palette.c **** 			ILI9341_DrawRectangle(	ptr->start_x,
 679              		.loc 1 558 4 is_stmt 0 view .LVU170
 680 0080 FFF7FEFF 		bl	LCD_SetColors
 681              	.LVL74:
 559:Core/Src/palette.c **** 																ptr->start_y,
 682              		.loc 1 559 4 is_stmt 1 view .LVU171
 683 0084 2088     		ldrh	r0, [r4]
 684 0086 6188     		ldrh	r1, [r4, #2]
 561:Core/Src/palette.c **** 																ptr->end_y - ptr->start_y,1);
 685              		.loc 1 561 20 is_stmt 0 view .LVU172
 686 0088 A288     		ldrh	r2, [r4, #4]
 562:Core/Src/palette.c ****       
 687              		.loc 1 562 20 view .LVU173
 688 008a E388     		ldrh	r3, [r4, #6]
 559:Core/Src/palette.c **** 																ptr->start_y,
 689              		.loc 1 559 4 view .LVU174
 690 008c 5B1A     		subs	r3, r3, r1
 691 008e 121A     		subs	r2, r2, r0
 692 0090 0125     		movs	r5, #1
 693 0092 0095     		str	r5, [sp]
 694 0094 9BB2     		uxth	r3, r3
 695 0096 92B2     		uxth	r2, r2
 696 0098 FFF7FEFF 		bl	ILI9341_DrawRectangle
 697              	.LVL75:
 566:Core/Src/palette.c **** 			ILI9341_DrawRectangle(	ptr->start_x,
 698              		.loc 1 566 4 is_stmt 1 view .LVU175
 699 009c 4FF6FF71 		movw	r1, #65535
 700 00a0 4FF40470 		mov	r0, #528
 701 00a4 FFF7FEFF 		bl	LCD_SetColors
 702              	.LVL76:
 567:Core/Src/palette.c **** 																ptr->start_y,
 703              		.loc 1 567 4 view .LVU176
 704 00a8 2088     		ldrh	r0, [r4]
 705 00aa 6188     		ldrh	r1, [r4, #2]
 569:Core/Src/palette.c **** 																ptr->end_y - ptr->start_y,0);
 706              		.loc 1 569 20 is_stmt 0 view .LVU177
 707 00ac A288     		ldrh	r2, [r4, #4]
 570:Core/Src/palette.c ****     }
 708              		.loc 1 570 20 view .LVU178
 709 00ae E388     		ldrh	r3, [r4, #6]
 567:Core/Src/palette.c **** 																ptr->start_y,
 710              		.loc 1 567 4 view .LVU179
 711 00b0 5B1A     		subs	r3, r3, r1
 712 00b2 121A     		subs	r2, r2, r0
 713 00b4 0025     		movs	r5, #0
ARM GAS  C:\Users\84759\AppData\Local\Temp\ccPncmRd.s 			page 30


 714 00b6 0095     		str	r5, [sp]
 715 00b8 9BB2     		uxth	r3, r3
 716 00ba 92B2     		uxth	r2, r2
 717 00bc FFF7FEFF 		bl	ILI9341_DrawRectangle
 718              	.LVL77:
 719 00c0 C8E7     		b	.L36
 720              	.L47:
 580:Core/Src/palette.c ****         ILI9341_DrawLine(ptr->start_x+20,
 721              		.loc 1 580 5 is_stmt 1 view .LVU180
 722 00c2 4FF6FF71 		movw	r1, #65535
 723 00c6 0020     		movs	r0, #0
 724 00c8 FFF7FEFF 		bl	LCD_SetColors
 725              	.LVL78:
 581:Core/Src/palette.c ****                           ptr->start_y+(ptr->end_y-ptr->start_y)/2,
 726              		.loc 1 581 9 view .LVU181
 581:Core/Src/palette.c ****                           ptr->start_y+(ptr->end_y-ptr->start_y)/2,
 727              		.loc 1 581 29 is_stmt 0 view .LVU182
 728 00cc 2088     		ldrh	r0, [r4]
 582:Core/Src/palette.c ****                           ptr->end_x-20,
 729              		.loc 1 582 30 view .LVU183
 730 00ce 6188     		ldrh	r1, [r4, #2]
 582:Core/Src/palette.c ****                           ptr->end_x-20,
 731              		.loc 1 582 44 view .LVU184
 732 00d0 E388     		ldrh	r3, [r4, #6]
 582:Core/Src/palette.c ****                           ptr->end_x-20,
 733              		.loc 1 582 51 view .LVU185
 734 00d2 5B1A     		subs	r3, r3, r1
 582:Core/Src/palette.c ****                           ptr->end_x-20,
 735              		.loc 1 582 65 view .LVU186
 736 00d4 03EBD373 		add	r3, r3, r3, lsr #31
 581:Core/Src/palette.c ****                           ptr->start_y+(ptr->end_y-ptr->start_y)/2,
 737              		.loc 1 581 9 view .LVU187
 738 00d8 01EB6301 		add	r1, r1, r3, asr #1
 739 00dc 89B2     		uxth	r1, r1
 583:Core/Src/palette.c ****                           ptr->start_y+(ptr->end_y-ptr->start_y)/2);
 740              		.loc 1 583 30 view .LVU188
 741 00de A288     		ldrh	r2, [r4, #4]
 581:Core/Src/palette.c ****                           ptr->start_y+(ptr->end_y-ptr->start_y)/2,
 742              		.loc 1 581 9 view .LVU189
 743 00e0 143A     		subs	r2, r2, #20
 744 00e2 1430     		adds	r0, r0, #20
 745 00e4 0B46     		mov	r3, r1
 746 00e6 92B2     		uxth	r2, r2
 747 00e8 80B2     		uxth	r0, r0
 748 00ea FFF7FEFF 		bl	ILI9341_DrawLine
 749              	.LVL79:
 586:Core/Src/palette.c **** 
 750              		.loc 1 586 7 is_stmt 1 view .LVU190
 751              	.L34:
 696:Core/Src/palette.c **** 
 752              		.loc 1 696 1 is_stmt 0 view .LVU191
 753 00ee 03B0     		add	sp, sp, #12
 754              	.LCFI14:
 755              		.cfi_remember_state
 756              		.cfi_def_cfa_offset 12
 757              		@ sp needed
 758 00f0 30BD     		pop	{r4, r5, pc}
ARM GAS  C:\Users\84759\AppData\Local\Temp\ccPncmRd.s 			page 31


 759              	.LVL80:
 760              	.L46:
 761              	.LCFI15:
 762              		.cfi_restore_state
 591:Core/Src/palette.c ****                           ptr->start_y+(ptr->end_y-ptr->start_y)/2,ptr->end_x-20,
 763              		.loc 1 591 9 is_stmt 1 view .LVU192
 591:Core/Src/palette.c ****                           ptr->start_y+(ptr->end_y-ptr->start_y)/2,ptr->end_x-20,
 764              		.loc 1 591 34 is_stmt 0 view .LVU193
 765 00f2 2088     		ldrh	r0, [r4]
 592:Core/Src/palette.c ****                           ptr->start_y+(ptr->end_y-ptr->start_y)/2,
 766              		.loc 1 592 30 view .LVU194
 767 00f4 6188     		ldrh	r1, [r4, #2]
 592:Core/Src/palette.c ****                           ptr->start_y+(ptr->end_y-ptr->start_y)/2,
 768              		.loc 1 592 44 view .LVU195
 769 00f6 E388     		ldrh	r3, [r4, #6]
 592:Core/Src/palette.c ****                           ptr->start_y+(ptr->end_y-ptr->start_y)/2,
 770              		.loc 1 592 51 view .LVU196
 771 00f8 5B1A     		subs	r3, r3, r1
 592:Core/Src/palette.c ****                           ptr->start_y+(ptr->end_y-ptr->start_y)/2,
 772              		.loc 1 592 65 view .LVU197
 773 00fa 03EBD373 		add	r3, r3, r3, lsr #31
 591:Core/Src/palette.c ****                           ptr->start_y+(ptr->end_y-ptr->start_y)/2,ptr->end_x-20,
 774              		.loc 1 591 9 view .LVU198
 775 00fe 01EB6301 		add	r1, r1, r3, asr #1
 776 0102 89B2     		uxth	r1, r1
 592:Core/Src/palette.c ****                           ptr->start_y+(ptr->end_y-ptr->start_y)/2,
 777              		.loc 1 592 71 view .LVU199
 778 0104 A288     		ldrh	r2, [r4, #4]
 591:Core/Src/palette.c ****                           ptr->start_y+(ptr->end_y-ptr->start_y)/2,ptr->end_x-20,
 779              		.loc 1 591 9 view .LVU200
 780 0106 143A     		subs	r2, r2, #20
 781 0108 1430     		adds	r0, r0, #20
 782 010a 0123     		movs	r3, #1
 783 010c 0093     		str	r3, [sp]
 784 010e 0B46     		mov	r3, r1
 785 0110 92B2     		uxth	r2, r2
 786 0112 80B2     		uxth	r0, r0
 787 0114 FFF7FEFF 		bl	LCD_DrawUniLineCircle
 788              	.LVL81:
 597:Core/Src/palette.c ****         
 789              		.loc 1 597 7 is_stmt 1 view .LVU201
 790 0118 E9E7     		b	.L34
 791              	.L45:
 601:Core/Src/palette.c ****                           ptr->start_y+(ptr->end_y-ptr->start_y)/2,ptr->end_x-20,
 792              		.loc 1 601 13 view .LVU202
 601:Core/Src/palette.c ****                           ptr->start_y+(ptr->end_y-ptr->start_y)/2,ptr->end_x-20,
 793              		.loc 1 601 38 is_stmt 0 view .LVU203
 794 011a 2088     		ldrh	r0, [r4]
 602:Core/Src/palette.c ****                           ptr->start_y+(ptr->end_y-ptr->start_y)/2,
 795              		.loc 1 602 30 view .LVU204
 796 011c 6188     		ldrh	r1, [r4, #2]
 602:Core/Src/palette.c ****                           ptr->start_y+(ptr->end_y-ptr->start_y)/2,
 797              		.loc 1 602 44 view .LVU205
 798 011e E388     		ldrh	r3, [r4, #6]
 602:Core/Src/palette.c ****                           ptr->start_y+(ptr->end_y-ptr->start_y)/2,
 799              		.loc 1 602 51 view .LVU206
 800 0120 5B1A     		subs	r3, r3, r1
ARM GAS  C:\Users\84759\AppData\Local\Temp\ccPncmRd.s 			page 32


 602:Core/Src/palette.c ****                           ptr->start_y+(ptr->end_y-ptr->start_y)/2,
 801              		.loc 1 602 65 view .LVU207
 802 0122 03EBD373 		add	r3, r3, r3, lsr #31
 601:Core/Src/palette.c ****                           ptr->start_y+(ptr->end_y-ptr->start_y)/2,ptr->end_x-20,
 803              		.loc 1 601 13 view .LVU208
 804 0126 01EB6301 		add	r1, r1, r3, asr #1
 805 012a 89B2     		uxth	r1, r1
 602:Core/Src/palette.c ****                           ptr->start_y+(ptr->end_y-ptr->start_y)/2,
 806              		.loc 1 602 71 view .LVU209
 807 012c A288     		ldrh	r2, [r4, #4]
 601:Core/Src/palette.c ****                           ptr->start_y+(ptr->end_y-ptr->start_y)/2,ptr->end_x-20,
 808              		.loc 1 601 13 view .LVU210
 809 012e 143A     		subs	r2, r2, #20
 810 0130 1430     		adds	r0, r0, #20
 811 0132 0223     		movs	r3, #2
 812 0134 0093     		str	r3, [sp]
 813 0136 0B46     		mov	r3, r1
 814 0138 92B2     		uxth	r2, r2
 815 013a 80B2     		uxth	r0, r0
 816 013c FFF7FEFF 		bl	LCD_DrawUniLineCircle
 817              	.LVL82:
 607:Core/Src/palette.c ****     
 818              		.loc 1 607 7 is_stmt 1 view .LVU211
 819 0140 D5E7     		b	.L34
 820              	.L44:
 611:Core/Src/palette.c ****                           ptr->start_y+(ptr->end_y-ptr->start_y)/2,ptr->end_x-20,
 821              		.loc 1 611 9 view .LVU212
 611:Core/Src/palette.c ****                           ptr->start_y+(ptr->end_y-ptr->start_y)/2,ptr->end_x-20,
 822              		.loc 1 611 34 is_stmt 0 view .LVU213
 823 0142 2088     		ldrh	r0, [r4]
 612:Core/Src/palette.c ****                           ptr->start_y+(ptr->end_y-ptr->start_y)/2,
 824              		.loc 1 612 30 view .LVU214
 825 0144 6188     		ldrh	r1, [r4, #2]
 612:Core/Src/palette.c ****                           ptr->start_y+(ptr->end_y-ptr->start_y)/2,
 826              		.loc 1 612 44 view .LVU215
 827 0146 E388     		ldrh	r3, [r4, #6]
 612:Core/Src/palette.c ****                           ptr->start_y+(ptr->end_y-ptr->start_y)/2,
 828              		.loc 1 612 51 view .LVU216
 829 0148 5B1A     		subs	r3, r3, r1
 612:Core/Src/palette.c ****                           ptr->start_y+(ptr->end_y-ptr->start_y)/2,
 830              		.loc 1 612 65 view .LVU217
 831 014a 03EBD373 		add	r3, r3, r3, lsr #31
 611:Core/Src/palette.c ****                           ptr->start_y+(ptr->end_y-ptr->start_y)/2,ptr->end_x-20,
 832              		.loc 1 611 9 view .LVU218
 833 014e 01EB6301 		add	r1, r1, r3, asr #1
 834 0152 89B2     		uxth	r1, r1
 612:Core/Src/palette.c ****                           ptr->start_y+(ptr->end_y-ptr->start_y)/2,
 835              		.loc 1 612 71 view .LVU219
 836 0154 A288     		ldrh	r2, [r4, #4]
 611:Core/Src/palette.c ****                           ptr->start_y+(ptr->end_y-ptr->start_y)/2,ptr->end_x-20,
 837              		.loc 1 611 9 view .LVU220
 838 0156 143A     		subs	r2, r2, #20
 839 0158 1430     		adds	r0, r0, #20
 840 015a 0323     		movs	r3, #3
 841 015c 0093     		str	r3, [sp]
 842 015e 0B46     		mov	r3, r1
 843 0160 92B2     		uxth	r2, r2
ARM GAS  C:\Users\84759\AppData\Local\Temp\ccPncmRd.s 			page 33


 844 0162 80B2     		uxth	r0, r0
 845 0164 FFF7FEFF 		bl	LCD_DrawUniLineCircle
 846              	.LVL83:
 617:Core/Src/palette.c ****         
 847              		.loc 1 617 7 is_stmt 1 view .LVU221
 848 0168 C1E7     		b	.L34
 849              	.L43:
 621:Core/Src/palette.c ****                           ptr->start_y+(ptr->end_y-ptr->start_y)/2,ptr->end_x-20,
 850              		.loc 1 621 13 view .LVU222
 621:Core/Src/palette.c ****                           ptr->start_y+(ptr->end_y-ptr->start_y)/2,ptr->end_x-20,
 851              		.loc 1 621 38 is_stmt 0 view .LVU223
 852 016a 2088     		ldrh	r0, [r4]
 622:Core/Src/palette.c ****                           ptr->start_y+(ptr->end_y-ptr->start_y)/2,
 853              		.loc 1 622 30 view .LVU224
 854 016c 6188     		ldrh	r1, [r4, #2]
 622:Core/Src/palette.c ****                           ptr->start_y+(ptr->end_y-ptr->start_y)/2,
 855              		.loc 1 622 44 view .LVU225
 856 016e E388     		ldrh	r3, [r4, #6]
 622:Core/Src/palette.c ****                           ptr->start_y+(ptr->end_y-ptr->start_y)/2,
 857              		.loc 1 622 51 view .LVU226
 858 0170 5B1A     		subs	r3, r3, r1
 622:Core/Src/palette.c ****                           ptr->start_y+(ptr->end_y-ptr->start_y)/2,
 859              		.loc 1 622 65 view .LVU227
 860 0172 03EBD373 		add	r3, r3, r3, lsr #31
 621:Core/Src/palette.c ****                           ptr->start_y+(ptr->end_y-ptr->start_y)/2,ptr->end_x-20,
 861              		.loc 1 621 13 view .LVU228
 862 0176 01EB6301 		add	r1, r1, r3, asr #1
 863 017a 89B2     		uxth	r1, r1
 622:Core/Src/palette.c ****                           ptr->start_y+(ptr->end_y-ptr->start_y)/2,
 864              		.loc 1 622 71 view .LVU229
 865 017c A288     		ldrh	r2, [r4, #4]
 621:Core/Src/palette.c ****                           ptr->start_y+(ptr->end_y-ptr->start_y)/2,ptr->end_x-20,
 866              		.loc 1 621 13 view .LVU230
 867 017e 143A     		subs	r2, r2, #20
 868 0180 1430     		adds	r0, r0, #20
 869 0182 0423     		movs	r3, #4
 870 0184 0093     		str	r3, [sp]
 871 0186 0B46     		mov	r3, r1
 872 0188 92B2     		uxth	r2, r2
 873 018a 80B2     		uxth	r0, r0
 874 018c FFF7FEFF 		bl	LCD_DrawUniLineCircle
 875              	.LVL84:
 627:Core/Src/palette.c ****     
 876              		.loc 1 627 7 is_stmt 1 view .LVU231
 877 0190 ADE7     		b	.L34
 878              	.L42:
 631:Core/Src/palette.c ****                           ptr->start_y+(ptr->end_y-ptr->start_y)/2,ptr->end_x-20,
 879              		.loc 1 631 13 view .LVU232
 631:Core/Src/palette.c ****                           ptr->start_y+(ptr->end_y-ptr->start_y)/2,ptr->end_x-20,
 880              		.loc 1 631 38 is_stmt 0 view .LVU233
 881 0192 2088     		ldrh	r0, [r4]
 632:Core/Src/palette.c ****                           ptr->start_y+(ptr->end_y-ptr->start_y)/2,
 882              		.loc 1 632 30 view .LVU234
 883 0194 6188     		ldrh	r1, [r4, #2]
 632:Core/Src/palette.c ****                           ptr->start_y+(ptr->end_y-ptr->start_y)/2,
 884              		.loc 1 632 44 view .LVU235
 885 0196 E388     		ldrh	r3, [r4, #6]
ARM GAS  C:\Users\84759\AppData\Local\Temp\ccPncmRd.s 			page 34


 632:Core/Src/palette.c ****                           ptr->start_y+(ptr->end_y-ptr->start_y)/2,
 886              		.loc 1 632 51 view .LVU236
 887 0198 5B1A     		subs	r3, r3, r1
 632:Core/Src/palette.c ****                           ptr->start_y+(ptr->end_y-ptr->start_y)/2,
 888              		.loc 1 632 65 view .LVU237
 889 019a 03EBD373 		add	r3, r3, r3, lsr #31
 631:Core/Src/palette.c ****                           ptr->start_y+(ptr->end_y-ptr->start_y)/2,ptr->end_x-20,
 890              		.loc 1 631 13 view .LVU238
 891 019e 01EB6301 		add	r1, r1, r3, asr #1
 892 01a2 89B2     		uxth	r1, r1
 632:Core/Src/palette.c ****                           ptr->start_y+(ptr->end_y-ptr->start_y)/2,
 893              		.loc 1 632 71 view .LVU239
 894 01a4 A288     		ldrh	r2, [r4, #4]
 631:Core/Src/palette.c ****                           ptr->start_y+(ptr->end_y-ptr->start_y)/2,ptr->end_x-20,
 895              		.loc 1 631 13 view .LVU240
 896 01a6 143A     		subs	r2, r2, #20
 897 01a8 1430     		adds	r0, r0, #20
 898 01aa 0823     		movs	r3, #8
 899 01ac 0093     		str	r3, [sp]
 900 01ae 0B46     		mov	r3, r1
 901 01b0 92B2     		uxth	r2, r2
 902 01b2 80B2     		uxth	r0, r0
 903 01b4 FFF7FEFF 		bl	LCD_DrawUniLineCircle
 904              	.LVL85:
 637:Core/Src/palette.c ****         
 905              		.loc 1 637 7 is_stmt 1 view .LVU241
 906 01b8 99E7     		b	.L34
 907              	.L41:
 641:Core/Src/palette.c ****                           ptr->start_y+(ptr->end_y-ptr->start_y)/2,ptr->end_x-20,
 908              		.loc 1 641 13 view .LVU242
 641:Core/Src/palette.c ****                           ptr->start_y+(ptr->end_y-ptr->start_y)/2,ptr->end_x-20,
 909              		.loc 1 641 38 is_stmt 0 view .LVU243
 910 01ba 2088     		ldrh	r0, [r4]
 642:Core/Src/palette.c ****                           ptr->start_y+(ptr->end_y-ptr->start_y)/2,
 911              		.loc 1 642 30 view .LVU244
 912 01bc 6188     		ldrh	r1, [r4, #2]
 642:Core/Src/palette.c ****                           ptr->start_y+(ptr->end_y-ptr->start_y)/2,
 913              		.loc 1 642 44 view .LVU245
 914 01be E388     		ldrh	r3, [r4, #6]
 642:Core/Src/palette.c ****                           ptr->start_y+(ptr->end_y-ptr->start_y)/2,
 915              		.loc 1 642 51 view .LVU246
 916 01c0 5B1A     		subs	r3, r3, r1
 642:Core/Src/palette.c ****                           ptr->start_y+(ptr->end_y-ptr->start_y)/2,
 917              		.loc 1 642 65 view .LVU247
 918 01c2 03EBD373 		add	r3, r3, r3, lsr #31
 641:Core/Src/palette.c ****                           ptr->start_y+(ptr->end_y-ptr->start_y)/2,ptr->end_x-20,
 919              		.loc 1 641 13 view .LVU248
 920 01c6 01EB6301 		add	r1, r1, r3, asr #1
 921 01ca 89B2     		uxth	r1, r1
 642:Core/Src/palette.c ****                           ptr->start_y+(ptr->end_y-ptr->start_y)/2,
 922              		.loc 1 642 71 view .LVU249
 923 01cc A288     		ldrh	r2, [r4, #4]
 641:Core/Src/palette.c ****                           ptr->start_y+(ptr->end_y-ptr->start_y)/2,ptr->end_x-20,
 924              		.loc 1 641 13 view .LVU250
 925 01ce 143A     		subs	r2, r2, #20
 926 01d0 1430     		adds	r0, r0, #20
 927 01d2 0A23     		movs	r3, #10
ARM GAS  C:\Users\84759\AppData\Local\Temp\ccPncmRd.s 			page 35


 928 01d4 0093     		str	r3, [sp]
 929 01d6 0B46     		mov	r3, r1
 930 01d8 92B2     		uxth	r2, r2
 931 01da 80B2     		uxth	r0, r0
 932 01dc FFF7FEFF 		bl	LCD_DrawUniLineCircle
 933              	.LVL86:
 647:Core/Src/palette.c ****             
 934              		.loc 1 647 7 is_stmt 1 view .LVU251
 935 01e0 85E7     		b	.L34
 936              	.L40:
 652:Core/Src/palette.c ****         ILI9341_DrawLine(ptr->start_x+5,
 937              		.loc 1 652 9 view .LVU252
 938 01e2 4FF6FF71 		movw	r1, #65535
 939 01e6 0020     		movs	r0, #0
 940 01e8 FFF7FEFF 		bl	LCD_SetColors
 941              	.LVL87:
 653:Core/Src/palette.c ****                           ptr->start_y+(ptr->end_y-ptr->start_y)/2,
 942              		.loc 1 653 9 view .LVU253
 653:Core/Src/palette.c ****                           ptr->start_y+(ptr->end_y-ptr->start_y)/2,
 943              		.loc 1 653 29 is_stmt 0 view .LVU254
 944 01ec 2088     		ldrh	r0, [r4]
 654:Core/Src/palette.c ****                           ptr->end_x-5,
 945              		.loc 1 654 30 view .LVU255
 946 01ee 6188     		ldrh	r1, [r4, #2]
 654:Core/Src/palette.c ****                           ptr->end_x-5,
 947              		.loc 1 654 44 view .LVU256
 948 01f0 E388     		ldrh	r3, [r4, #6]
 654:Core/Src/palette.c ****                           ptr->end_x-5,
 949              		.loc 1 654 51 view .LVU257
 950 01f2 5B1A     		subs	r3, r3, r1
 654:Core/Src/palette.c ****                           ptr->end_x-5,
 951              		.loc 1 654 65 view .LVU258
 952 01f4 03EBD373 		add	r3, r3, r3, lsr #31
 653:Core/Src/palette.c ****                           ptr->start_y+(ptr->end_y-ptr->start_y)/2,
 953              		.loc 1 653 9 view .LVU259
 954 01f8 01EB6301 		add	r1, r1, r3, asr #1
 955 01fc 89B2     		uxth	r1, r1
 655:Core/Src/palette.c ****                           ptr->start_y+(ptr->end_y-ptr->start_y)/2);
 956              		.loc 1 655 30 view .LVU260
 957 01fe A288     		ldrh	r2, [r4, #4]
 653:Core/Src/palette.c ****                           ptr->start_y+(ptr->end_y-ptr->start_y)/2,
 958              		.loc 1 653 9 view .LVU261
 959 0200 053A     		subs	r2, r2, #5
 960 0202 0530     		adds	r0, r0, #5
 961 0204 0B46     		mov	r3, r1
 962 0206 92B2     		uxth	r2, r2
 963 0208 80B2     		uxth	r0, r0
 964 020a FFF7FEFF 		bl	ILI9341_DrawLine
 965              	.LVL88:
 659:Core/Src/palette.c ****         {
 966              		.loc 1 659 9 is_stmt 1 view .LVU262
 659:Core/Src/palette.c ****         {
 967              		.loc 1 659 14 is_stmt 0 view .LVU263
 968 020e 0025     		movs	r5, #0
 659:Core/Src/palette.c ****         {
 969              		.loc 1 659 9 view .LVU264
 970 0210 14E0     		b	.L48
ARM GAS  C:\Users\84759\AppData\Local\Temp\ccPncmRd.s 			page 36


 971              	.LVL89:
 972              	.L49:
 662:Core/Src/palette.c **** 															ptr->start_y+(ptr->end_y-ptr->start_y)/2,
 973              		.loc 1 662 9 is_stmt 1 discriminator 3 view .LVU265
 662:Core/Src/palette.c **** 															ptr->start_y+(ptr->end_y-ptr->start_y)/2,
 974              		.loc 1 662 43 is_stmt 0 discriminator 3 view .LVU266
 975 0212 05EB8503 		add	r3, r5, r5, lsl #2
 976 0216 00EB4300 		add	r0, r0, r3, lsl #1
 977 021a 80B2     		uxth	r0, r0
 663:Core/Src/palette.c **** 															3,1);
 978              		.loc 1 663 19 discriminator 3 view .LVU267
 979 021c 6388     		ldrh	r3, [r4, #2]
 663:Core/Src/palette.c **** 															3,1);
 980              		.loc 1 663 33 discriminator 3 view .LVU268
 981 021e E188     		ldrh	r1, [r4, #6]
 663:Core/Src/palette.c **** 															3,1);
 982              		.loc 1 663 40 discriminator 3 view .LVU269
 983 0220 C91A     		subs	r1, r1, r3
 663:Core/Src/palette.c **** 															3,1);
 984              		.loc 1 663 54 discriminator 3 view .LVU270
 985 0222 01EBD171 		add	r1, r1, r1, lsr #31
 662:Core/Src/palette.c **** 															ptr->start_y+(ptr->end_y-ptr->start_y)/2,
 986              		.loc 1 662 9 discriminator 3 view .LVU271
 987 0226 03EB6101 		add	r1, r3, r1, asr #1
 988 022a 0530     		adds	r0, r0, #5
 989 022c 0123     		movs	r3, #1
 990 022e 0322     		movs	r2, #3
 991 0230 89B2     		uxth	r1, r1
 992 0232 80B2     		uxth	r0, r0
 993 0234 FFF7FEFF 		bl	ILI9341_DrawCircle
 994              	.LVL90:
 659:Core/Src/palette.c ****         {
 995              		.loc 1 659 55 is_stmt 1 discriminator 3 view .LVU272
 659:Core/Src/palette.c ****         {
 996              		.loc 1 659 56 is_stmt 0 discriminator 3 view .LVU273
 997 0238 0135     		adds	r5, r5, #1
 998              	.LVL91:
 659:Core/Src/palette.c ****         {
 999              		.loc 1 659 56 discriminator 3 view .LVU274
 1000 023a ADB2     		uxth	r5, r5
 1001              	.LVL92:
 1002              	.L48:
 659:Core/Src/palette.c ****         {
 1003              		.loc 1 659 17 is_stmt 1 discriminator 1 view .LVU275
 659:Core/Src/palette.c ****         {
 1004              		.loc 1 659 24 is_stmt 0 discriminator 1 view .LVU276
 1005 023c A388     		ldrh	r3, [r4, #4]
 659:Core/Src/palette.c ****         {
 1006              		.loc 1 659 37 discriminator 1 view .LVU277
 1007 023e 2088     		ldrh	r0, [r4]
 659:Core/Src/palette.c ****         {
 1008              		.loc 1 659 32 discriminator 1 view .LVU278
 1009 0240 1B1A     		subs	r3, r3, r0
 659:Core/Src/palette.c ****         {
 1010              		.loc 1 659 46 discriminator 1 view .LVU279
 1011 0242 0A3B     		subs	r3, r3, #10
 659:Core/Src/palette.c ****         {
ARM GAS  C:\Users\84759\AppData\Local\Temp\ccPncmRd.s 			page 37


 1012              		.loc 1 659 50 discriminator 1 view .LVU280
 1013 0244 234A     		ldr	r2, .L51
 1014 0246 82FB0312 		smull	r1, r2, r2, r3
 1015 024a DB17     		asrs	r3, r3, #31
 1016 024c C3EBA203 		rsb	r3, r3, r2, asr #2
 659:Core/Src/palette.c ****         {
 1017              		.loc 1 659 9 discriminator 1 view .LVU281
 1018 0250 9D42     		cmp	r5, r3
 1019 0252 DEDB     		blt	.L49
 1020 0254 4BE7     		b	.L34
 1021              	.LVL93:
 1022              	.L38:
 674:Core/Src/palette.c ****        ILI9341_DrawRectangle( 	ptr->start_x+((ptr->end_x - ptr->start_x -24)/2),
 1023              		.loc 1 674 4 is_stmt 1 view .LVU282
 1024 0256 0021     		movs	r1, #0
 1025 0258 4FF6FF70 		movw	r0, #65535
 1026 025c FFF7FEFF 		bl	LCD_SetColors
 1027              	.LVL94:
 675:Core/Src/palette.c **** 																	ptr->start_y+ ((ptr->end_y - ptr->start_y-24 -16)/2),
 1028              		.loc 1 675 8 view .LVU283
 675:Core/Src/palette.c **** 																	ptr->start_y+ ((ptr->end_y - ptr->start_y-24 -16)/2),
 1029              		.loc 1 675 35 is_stmt 0 view .LVU284
 1030 0260 2388     		ldrh	r3, [r4]
 675:Core/Src/palette.c **** 																	ptr->start_y+ ((ptr->end_y - ptr->start_y-24 -16)/2),
 1031              		.loc 1 675 50 view .LVU285
 1032 0262 A088     		ldrh	r0, [r4, #4]
 675:Core/Src/palette.c **** 																	ptr->start_y+ ((ptr->end_y - ptr->start_y-24 -16)/2),
 1033              		.loc 1 675 58 view .LVU286
 1034 0264 C01A     		subs	r0, r0, r3
 675:Core/Src/palette.c **** 																	ptr->start_y+ ((ptr->end_y - ptr->start_y-24 -16)/2),
 1035              		.loc 1 675 73 view .LVU287
 1036 0266 1838     		subs	r0, r0, #24
 675:Core/Src/palette.c **** 																	ptr->start_y+ ((ptr->end_y - ptr->start_y-24 -16)/2),
 1037              		.loc 1 675 77 view .LVU288
 1038 0268 00EBD070 		add	r0, r0, r0, lsr #31
 676:Core/Src/palette.c **** 																	24,
 1039              		.loc 1 676 21 view .LVU289
 1040 026c 6288     		ldrh	r2, [r4, #2]
 676:Core/Src/palette.c **** 																	24,
 1041              		.loc 1 676 37 view .LVU290
 1042 026e E188     		ldrh	r1, [r4, #6]
 676:Core/Src/palette.c **** 																	24,
 1043              		.loc 1 676 45 view .LVU291
 1044 0270 891A     		subs	r1, r1, r2
 676:Core/Src/palette.c **** 																	24,
 1045              		.loc 1 676 63 view .LVU292
 1046 0272 2839     		subs	r1, r1, #40
 676:Core/Src/palette.c **** 																	24,
 1047              		.loc 1 676 67 view .LVU293
 1048 0274 01EBD171 		add	r1, r1, r1, lsr #31
 675:Core/Src/palette.c **** 																	ptr->start_y+ ((ptr->end_y - ptr->start_y-24 -16)/2),
 1049              		.loc 1 675 8 view .LVU294
 1050 0278 02EB6101 		add	r1, r2, r1, asr #1
 1051 027c 03EB6000 		add	r0, r3, r0, asr #1
 1052 0280 0123     		movs	r3, #1
 1053 0282 0093     		str	r3, [sp]
 1054 0284 1823     		movs	r3, #24
ARM GAS  C:\Users\84759\AppData\Local\Temp\ccPncmRd.s 			page 38


 1055 0286 1A46     		mov	r2, r3
 1056 0288 89B2     		uxth	r1, r1
 1057 028a 80B2     		uxth	r0, r0
 1058 028c FFF7FEFF 		bl	ILI9341_DrawRectangle
 1059              	.LVL95:
 681:Core/Src/palette.c **** 
 1060              		.loc 1 681 4 is_stmt 1 view .LVU295
 1061 0290 4CF21861 		movw	r1, #50712
 1062 0294 4FF47840 		mov	r0, #63488
 1063 0298 FFF7FEFF 		bl	LCD_SetColors
 1064              	.LVL96:
 686:Core/Src/palette.c ****     ILI9341_DispString_EN_CH( ptr->start_x+(ptr->end_x - ptr->start_x -16*2)/2,
 1065              		.loc 1 686 3 view .LVU296
 1066 029c 0E48     		ldr	r0, .L51+4
 1067 029e FFF7FEFF 		bl	LCD_SetFont
 1068              	.LVL97:
 687:Core/Src/palette.c **** 																ptr->start_y+ ((ptr->end_y - ptr->start_y-24 -16)/2)+24,		
 1069              		.loc 1 687 5 view .LVU297
 687:Core/Src/palette.c **** 																ptr->start_y+ ((ptr->end_y - ptr->start_y-24 -16)/2)+24,		
 1070              		.loc 1 687 34 is_stmt 0 view .LVU298
 1071 02a2 2288     		ldrh	r2, [r4]
 687:Core/Src/palette.c **** 																ptr->start_y+ ((ptr->end_y - ptr->start_y-24 -16)/2)+24,		
 1072              		.loc 1 687 48 view .LVU299
 1073 02a4 A088     		ldrh	r0, [r4, #4]
 687:Core/Src/palette.c **** 																ptr->start_y+ ((ptr->end_y - ptr->start_y-24 -16)/2)+24,		
 1074              		.loc 1 687 56 view .LVU300
 1075 02a6 801A     		subs	r0, r0, r2
 687:Core/Src/palette.c **** 																ptr->start_y+ ((ptr->end_y - ptr->start_y-24 -16)/2)+24,		
 1076              		.loc 1 687 71 view .LVU301
 1077 02a8 2038     		subs	r0, r0, #32
 687:Core/Src/palette.c **** 																ptr->start_y+ ((ptr->end_y - ptr->start_y-24 -16)/2)+24,		
 1078              		.loc 1 687 77 view .LVU302
 1079 02aa 00EBD070 		add	r0, r0, r0, lsr #31
 688:Core/Src/palette.c **** 																"橡皮");
 1080              		.loc 1 688 20 view .LVU303
 1081 02ae 6388     		ldrh	r3, [r4, #2]
 688:Core/Src/palette.c **** 																"橡皮");
 1082              		.loc 1 688 36 view .LVU304
 1083 02b0 E188     		ldrh	r1, [r4, #6]
 688:Core/Src/palette.c **** 																"橡皮");
 1084              		.loc 1 688 44 view .LVU305
 1085 02b2 C91A     		subs	r1, r1, r3
 688:Core/Src/palette.c **** 																"橡皮");
 1086              		.loc 1 688 62 view .LVU306
 1087 02b4 2839     		subs	r1, r1, #40
 688:Core/Src/palette.c **** 																"橡皮");
 1088              		.loc 1 688 66 view .LVU307
 1089 02b6 01EBD171 		add	r1, r1, r1, lsr #31
 688:Core/Src/palette.c **** 																"橡皮");
 1090              		.loc 1 688 29 view .LVU308
 1091 02ba 03EB6101 		add	r1, r3, r1, asr #1
 1092 02be 89B2     		uxth	r1, r1
 687:Core/Src/palette.c **** 																ptr->start_y+ ((ptr->end_y - ptr->start_y-24 -16)/2)+24,		
 1093              		.loc 1 687 5 view .LVU309
 1094 02c0 1831     		adds	r1, r1, #24
 1095 02c2 02EB6000 		add	r0, r2, r0, asr #1
 1096 02c6 054A     		ldr	r2, .L51+8
ARM GAS  C:\Users\84759\AppData\Local\Temp\ccPncmRd.s 			page 39


 1097 02c8 89B2     		uxth	r1, r1
 1098 02ca 80B2     		uxth	r0, r0
 1099 02cc FFF7FEFF 		bl	ILI9341_DispString_EN_CH
 1100              	.LVL98:
 692:Core/Src/palette.c **** 
 1101              		.loc 1 692 5 is_stmt 1 view .LVU310
 696:Core/Src/palette.c **** 
 1102              		.loc 1 696 1 is_stmt 0 view .LVU311
 1103 02d0 0DE7     		b	.L34
 1104              	.L52:
 1105 02d2 00BF     		.align	2
 1106              	.L51:
 1107 02d4 67666666 		.word	1717986919
 1108 02d8 00000000 		.word	Font8x16
 1109 02dc 00000000 		.word	.LC0
 1110              		.cfi_endproc
 1111              	.LFE72:
 1113              		.section	.rodata.Draw_Clear_Button.str1.4,"aMS",%progbits,1
 1114              		.align	2
 1115              	.LC1:
 1116 0000 C7E5C6C1 		.ascii	"\307\345\306\301\000"
 1116      00
 1117              		.section	.text.Draw_Clear_Button,"ax",%progbits
 1118              		.align	1
 1119              		.syntax unified
 1120              		.thumb
 1121              		.thumb_func
 1123              	Draw_Clear_Button:
 1124              	.LVL99:
 1125              	.LFB71:
 470:Core/Src/palette.c ****   Touch_Button *ptr = (Touch_Button *)btn;
 1126              		.loc 1 470 1 is_stmt 1 view -0
 1127              		.cfi_startproc
 1128              		@ args = 0, pretend = 0, frame = 0
 1129              		@ frame_needed = 0, uses_anonymous_args = 0
 470:Core/Src/palette.c ****   Touch_Button *ptr = (Touch_Button *)btn;
 1130              		.loc 1 470 1 is_stmt 0 view .LVU313
 1131 0000 30B5     		push	{r4, r5, lr}
 1132              	.LCFI16:
 1133              		.cfi_def_cfa_offset 12
 1134              		.cfi_offset 4, -12
 1135              		.cfi_offset 5, -8
 1136              		.cfi_offset 14, -4
 1137 0002 83B0     		sub	sp, sp, #12
 1138              	.LCFI17:
 1139              		.cfi_def_cfa_offset 24
 1140 0004 0446     		mov	r4, r0
 471:Core/Src/palette.c ****     
 1141              		.loc 1 471 3 is_stmt 1 view .LVU314
 1142              	.LVL100:
 474:Core/Src/palette.c ****   {
 1143              		.loc 1 474 3 view .LVU315
 474:Core/Src/palette.c ****   {
 1144              		.loc 1 474 9 is_stmt 0 view .LVU316
 1145 0006 037B     		ldrb	r3, [r0, #12]	@ zero_extendqisi2
 474:Core/Src/palette.c ****   {
 1146              		.loc 1 474 5 view .LVU317
ARM GAS  C:\Users\84759\AppData\Local\Temp\ccPncmRd.s 			page 40


 1147 0008 002B     		cmp	r3, #0
 1148 000a 43D1     		bne	.L54
 477:Core/Src/palette.c ****     ILI9341_DrawRectangle(	ptr->start_x,
 1149              		.loc 1 477 3 is_stmt 1 view .LVU318
 1150 000c 4FF6FF71 		movw	r1, #65535
 1151 0010 4CF21860 		movw	r0, #50712
 1152              	.LVL101:
 477:Core/Src/palette.c ****     ILI9341_DrawRectangle(	ptr->start_x,
 1153              		.loc 1 477 3 is_stmt 0 view .LVU319
 1154 0014 FFF7FEFF 		bl	LCD_SetColors
 1155              	.LVL102:
 478:Core/Src/palette.c **** 															ptr->start_y,
 1156              		.loc 1 478 5 is_stmt 1 view .LVU320
 1157 0018 2088     		ldrh	r0, [r4]
 1158 001a 6188     		ldrh	r1, [r4, #2]
 480:Core/Src/palette.c **** 															ptr->end_y - ptr->start_y,1);
 1159              		.loc 1 480 19 is_stmt 0 view .LVU321
 1160 001c A288     		ldrh	r2, [r4, #4]
 481:Core/Src/palette.c ****     
 1161              		.loc 1 481 19 view .LVU322
 1162 001e E388     		ldrh	r3, [r4, #6]
 478:Core/Src/palette.c **** 															ptr->start_y,
 1163              		.loc 1 478 5 view .LVU323
 1164 0020 5B1A     		subs	r3, r3, r1
 1165 0022 121A     		subs	r2, r2, r0
 1166 0024 0125     		movs	r5, #1
 1167 0026 0095     		str	r5, [sp]
 1168 0028 9BB2     		uxth	r3, r3
 1169 002a 92B2     		uxth	r2, r2
 1170 002c FFF7FEFF 		bl	ILI9341_DrawRectangle
 1171              	.LVL103:
 485:Core/Src/palette.c **** 		/*选择字体，使用中英文显示时，尽量把英文选择成8*16的字体，
 1172              		.loc 1 485 3 is_stmt 1 view .LVU324
 1173 0030 4CF21861 		movw	r1, #50712
 1174 0034 4FF47840 		mov	r0, #63488
 1175 0038 FFF7FEFF 		bl	LCD_SetColors
 1176              	.LVL104:
 489:Core/Src/palette.c ****     ILI9341_DispString_EN_CH( ptr->start_x + (ptr->end_x - ptr->start_x - 16*2 )/2,
 1177              		.loc 1 489 3 view .LVU325
 1178 003c 2D48     		ldr	r0, .L57
 1179 003e FFF7FEFF 		bl	LCD_SetFont
 1180              	.LVL105:
 490:Core/Src/palette.c **** //																ptr->start_y+15,
 1181              		.loc 1 490 5 view .LVU326
 490:Core/Src/palette.c **** //																ptr->start_y+15,
 1182              		.loc 1 490 34 is_stmt 0 view .LVU327
 1183 0042 2388     		ldrh	r3, [r4]
 490:Core/Src/palette.c **** //																ptr->start_y+15,
 1184              		.loc 1 490 50 view .LVU328
 1185 0044 A088     		ldrh	r0, [r4, #4]
 490:Core/Src/palette.c **** //																ptr->start_y+15,
 1186              		.loc 1 490 58 view .LVU329
 1187 0046 C01A     		subs	r0, r0, r3
 490:Core/Src/palette.c **** //																ptr->start_y+15,
 1188              		.loc 1 490 73 view .LVU330
 1189 0048 2038     		subs	r0, r0, #32
 490:Core/Src/palette.c **** //																ptr->start_y+15,
ARM GAS  C:\Users\84759\AppData\Local\Temp\ccPncmRd.s 			page 41


 1190              		.loc 1 490 81 view .LVU331
 1191 004a 00EBD070 		add	r0, r0, r0, lsr #31
 492:Core/Src/palette.c **** 																"清屏");
 1192              		.loc 1 492 20 view .LVU332
 1193 004e 6288     		ldrh	r2, [r4, #2]
 492:Core/Src/palette.c **** 																"清屏");
 1194              		.loc 1 492 36 view .LVU333
 1195 0050 E188     		ldrh	r1, [r4, #6]
 492:Core/Src/palette.c **** 																"清屏");
 1196              		.loc 1 492 44 view .LVU334
 1197 0052 891A     		subs	r1, r1, r2
 492:Core/Src/palette.c **** 																"清屏");
 1198              		.loc 1 492 58 view .LVU335
 1199 0054 1039     		subs	r1, r1, #16
 492:Core/Src/palette.c **** 																"清屏");
 1200              		.loc 1 492 62 view .LVU336
 1201 0056 01EBD171 		add	r1, r1, r1, lsr #31
 490:Core/Src/palette.c **** //																ptr->start_y+15,
 1202              		.loc 1 490 5 view .LVU337
 1203 005a 02EB6101 		add	r1, r2, r1, asr #1
 1204 005e 03EB6000 		add	r0, r3, r0, asr #1
 1205 0062 254A     		ldr	r2, .L57+4
 1206 0064 89B2     		uxth	r1, r1
 1207 0066 80B2     		uxth	r0, r0
 1208 0068 FFF7FEFF 		bl	ILI9341_DispString_EN_CH
 1209              	.LVL106:
 1210              	.L55:
 517:Core/Src/palette.c ****     ILI9341_DrawRectangle(ptr->start_x,
 1211              		.loc 1 517 3 is_stmt 1 view .LVU338
 1212 006c 4FF6FF71 		movw	r1, #65535
 1213 0070 4FF40470 		mov	r0, #528
 1214 0074 FFF7FEFF 		bl	LCD_SetColors
 1215              	.LVL107:
 518:Core/Src/palette.c **** 														ptr->start_y,
 1216              		.loc 1 518 5 view .LVU339
 1217 0078 2088     		ldrh	r0, [r4]
 1218 007a 6188     		ldrh	r1, [r4, #2]
 520:Core/Src/palette.c **** 														ptr->end_y - ptr->start_y,0);
 1219              		.loc 1 520 18 is_stmt 0 view .LVU340
 1220 007c A288     		ldrh	r2, [r4, #4]
 521:Core/Src/palette.c ****   
 1221              		.loc 1 521 18 view .LVU341
 1222 007e E388     		ldrh	r3, [r4, #6]
 518:Core/Src/palette.c **** 														ptr->start_y,
 1223              		.loc 1 518 5 view .LVU342
 1224 0080 5B1A     		subs	r3, r3, r1
 1225 0082 121A     		subs	r2, r2, r0
 1226 0084 0024     		movs	r4, #0
 1227              	.LVL108:
 518:Core/Src/palette.c **** 														ptr->start_y,
 1228              		.loc 1 518 5 view .LVU343
 1229 0086 0094     		str	r4, [sp]
 1230 0088 9BB2     		uxth	r3, r3
 1231 008a 92B2     		uxth	r2, r2
 1232 008c FFF7FEFF 		bl	ILI9341_DrawRectangle
 1233              	.LVL109:
 523:Core/Src/palette.c **** 
ARM GAS  C:\Users\84759\AppData\Local\Temp\ccPncmRd.s 			page 42


 1234              		.loc 1 523 1 view .LVU344
 1235 0090 03B0     		add	sp, sp, #12
 1236              	.LCFI18:
 1237              		.cfi_remember_state
 1238              		.cfi_def_cfa_offset 12
 1239              		@ sp needed
 1240 0092 30BD     		pop	{r4, r5, pc}
 1241              	.LVL110:
 1242              	.L54:
 1243              	.LCFI19:
 1244              		.cfi_restore_state
 498:Core/Src/palette.c ****     ILI9341_DrawRectangle(ptr->start_x,
 1245              		.loc 1 498 3 is_stmt 1 view .LVU345
 1246 0094 4FF6FF71 		movw	r1, #65535
 1247 0098 0846     		mov	r0, r1
 1248              	.LVL111:
 498:Core/Src/palette.c ****     ILI9341_DrawRectangle(ptr->start_x,
 1249              		.loc 1 498 3 is_stmt 0 view .LVU346
 1250 009a FFF7FEFF 		bl	LCD_SetColors
 1251              	.LVL112:
 499:Core/Src/palette.c **** 														ptr->start_y,
 1252              		.loc 1 499 5 is_stmt 1 view .LVU347
 1253 009e 2088     		ldrh	r0, [r4]
 1254 00a0 6188     		ldrh	r1, [r4, #2]
 501:Core/Src/palette.c **** 														ptr->end_y - ptr->start_y,1);
 1255              		.loc 1 501 18 is_stmt 0 view .LVU348
 1256 00a2 A288     		ldrh	r2, [r4, #4]
 502:Core/Src/palette.c ****     
 1257              		.loc 1 502 18 view .LVU349
 1258 00a4 E388     		ldrh	r3, [r4, #6]
 499:Core/Src/palette.c **** 														ptr->start_y,
 1259              		.loc 1 499 5 view .LVU350
 1260 00a6 5B1A     		subs	r3, r3, r1
 1261 00a8 121A     		subs	r2, r2, r0
 1262 00aa 0125     		movs	r5, #1
 1263 00ac 0095     		str	r5, [sp]
 1264 00ae 9BB2     		uxth	r3, r3
 1265 00b0 92B2     		uxth	r2, r2
 1266 00b2 FFF7FEFF 		bl	ILI9341_DrawRectangle
 1267              	.LVL113:
 505:Core/Src/palette.c **** 		/*选择字体，使用中英文显示时，尽量把英文选择成8*16的字体，
 1268              		.loc 1 505 3 is_stmt 1 view .LVU351
 1269 00b6 4FF6FF71 		movw	r1, #65535
 1270 00ba 4FF47840 		mov	r0, #63488
 1271 00be FFF7FEFF 		bl	LCD_SetColors
 1272              	.LVL114:
 509:Core/Src/palette.c ****     ILI9341_DispString_EN_CH( ptr->start_x + (ptr->end_x - ptr->start_x - 16*2 )/2,          
 1273              		.loc 1 509 3 view .LVU352
 1274 00c2 0C48     		ldr	r0, .L57
 1275 00c4 FFF7FEFF 		bl	LCD_SetFont
 1276              	.LVL115:
 510:Core/Src/palette.c **** //																ptr->start_y+15,	           
 1277              		.loc 1 510 5 view .LVU353
 510:Core/Src/palette.c **** //																ptr->start_y+15,	           
 1278              		.loc 1 510 34 is_stmt 0 view .LVU354
 1279 00c8 2388     		ldrh	r3, [r4]
 510:Core/Src/palette.c **** //																ptr->start_y+15,	           
ARM GAS  C:\Users\84759\AppData\Local\Temp\ccPncmRd.s 			page 43


 1280              		.loc 1 510 50 view .LVU355
 1281 00ca A088     		ldrh	r0, [r4, #4]
 510:Core/Src/palette.c **** //																ptr->start_y+15,	           
 1282              		.loc 1 510 58 view .LVU356
 1283 00cc C01A     		subs	r0, r0, r3
 510:Core/Src/palette.c **** //																ptr->start_y+15,	           
 1284              		.loc 1 510 73 view .LVU357
 1285 00ce 2038     		subs	r0, r0, #32
 510:Core/Src/palette.c **** //																ptr->start_y+15,	           
 1286              		.loc 1 510 81 view .LVU358
 1287 00d0 00EBD070 		add	r0, r0, r0, lsr #31
 512:Core/Src/palette.c **** 																"清屏");
 1288              		.loc 1 512 20 view .LVU359
 1289 00d4 6288     		ldrh	r2, [r4, #2]
 512:Core/Src/palette.c **** 																"清屏");
 1290              		.loc 1 512 36 view .LVU360
 1291 00d6 E188     		ldrh	r1, [r4, #6]
 512:Core/Src/palette.c **** 																"清屏");
 1292              		.loc 1 512 44 view .LVU361
 1293 00d8 891A     		subs	r1, r1, r2
 512:Core/Src/palette.c **** 																"清屏");
 1294              		.loc 1 512 58 view .LVU362
 1295 00da 1039     		subs	r1, r1, #16
 512:Core/Src/palette.c **** 																"清屏");
 1296              		.loc 1 512 62 view .LVU363
 1297 00dc 01EBD171 		add	r1, r1, r1, lsr #31
 510:Core/Src/palette.c **** //																ptr->start_y+15,	           
 1298              		.loc 1 510 5 view .LVU364
 1299 00e0 02EB6101 		add	r1, r2, r1, asr #1
 1300 00e4 03EB6000 		add	r0, r3, r0, asr #1
 1301 00e8 034A     		ldr	r2, .L57+4
 1302 00ea 89B2     		uxth	r1, r1
 1303 00ec 80B2     		uxth	r0, r0
 1304 00ee FFF7FEFF 		bl	ILI9341_DispString_EN_CH
 1305              	.LVL116:
 1306 00f2 BBE7     		b	.L55
 1307              	.L58:
 1308              		.align	2
 1309              	.L57:
 1310 00f4 00000000 		.word	Font8x16
 1311 00f8 00000000 		.word	.LC1
 1312              		.cfi_endproc
 1313              	.LFE71:
 1315              		.section	.text.Touch_Button_Init,"ax",%progbits
 1316              		.align	1
 1317              		.global	Touch_Button_Init
 1318              		.syntax unified
 1319              		.thumb
 1320              		.thumb_func
 1322              	Touch_Button_Init:
 1323              	.LFB66:
  85:Core/Src/palette.c ****   /*第一列，主要为颜色按钮*/
 1324              		.loc 1 85 1 is_stmt 1 view -0
 1325              		.cfi_startproc
 1326              		@ args = 0, pretend = 0, frame = 0
 1327              		@ frame_needed = 0, uses_anonymous_args = 0
 1328 0000 2DE9F04F 		push	{r4, r5, r6, r7, r8, r9, r10, fp, lr}
ARM GAS  C:\Users\84759\AppData\Local\Temp\ccPncmRd.s 			page 44


 1329              	.LCFI20:
 1330              		.cfi_def_cfa_offset 36
 1331              		.cfi_offset 4, -36
 1332              		.cfi_offset 5, -32
 1333              		.cfi_offset 6, -28
 1334              		.cfi_offset 7, -24
 1335              		.cfi_offset 8, -20
 1336              		.cfi_offset 9, -16
 1337              		.cfi_offset 10, -12
 1338              		.cfi_offset 11, -8
 1339              		.cfi_offset 14, -4
  87:Core/Src/palette.c ****   button[0].start_y = 0;
 1340              		.loc 1 87 3 view .LVU366
  87:Core/Src/palette.c ****   button[0].start_y = 0;
 1341              		.loc 1 87 21 is_stmt 0 view .LVU367
 1342 0004 8D4B     		ldr	r3, .L61
 1343 0006 0022     		movs	r2, #0
 1344 0008 1A80     		strh	r2, [r3]	@ movhi
  88:Core/Src/palette.c ****   button[0].end_x = BUTTON_START_X+COLOR_BLOCK_WIDTH ;
 1345              		.loc 1 88 3 is_stmt 1 view .LVU368
  88:Core/Src/palette.c ****   button[0].end_x = BUTTON_START_X+COLOR_BLOCK_WIDTH ;
 1346              		.loc 1 88 21 is_stmt 0 view .LVU369
 1347 000a 5A80     		strh	r2, [r3, #2]	@ movhi
  89:Core/Src/palette.c ****   button[0].end_y = COLOR_BLOCK_HEIGHT;
 1348              		.loc 1 89 3 is_stmt 1 view .LVU370
  89:Core/Src/palette.c ****   button[0].end_y = COLOR_BLOCK_HEIGHT;
 1349              		.loc 1 89 19 is_stmt 0 view .LVU371
 1350 000c 2821     		movs	r1, #40
 1351 000e 9980     		strh	r1, [r3, #4]	@ movhi
  90:Core/Src/palette.c ****   button[0].para = CL_BLACK;
 1352              		.loc 1 90 3 is_stmt 1 view .LVU372
  90:Core/Src/palette.c ****   button[0].para = CL_BLACK;
 1353              		.loc 1 90 19 is_stmt 0 view .LVU373
 1354 0010 4FF01C0A 		mov	r10, #28
 1355 0014 A3F806A0 		strh	r10, [r3, #6]	@ movhi
  91:Core/Src/palette.c ****   button[0].touch_flag = 0;  
 1356              		.loc 1 91 3 is_stmt 1 view .LVU374
  91:Core/Src/palette.c ****   button[0].touch_flag = 0;  
 1357              		.loc 1 91 18 is_stmt 0 view .LVU375
 1358 0018 9A60     		str	r2, [r3, #8]
  92:Core/Src/palette.c ****   button[0].draw_btn = Draw_Color_Button ;
 1359              		.loc 1 92 3 is_stmt 1 view .LVU376
  92:Core/Src/palette.c ****   button[0].draw_btn = Draw_Color_Button ;
 1360              		.loc 1 92 24 is_stmt 0 view .LVU377
 1361 001a 1A73     		strb	r2, [r3, #12]
  93:Core/Src/palette.c ****   button[0].btn_command = Command_Select_Color ;
 1362              		.loc 1 93 3 is_stmt 1 view .LVU378
  93:Core/Src/palette.c ****   button[0].btn_command = Command_Select_Color ;
 1363              		.loc 1 93 22 is_stmt 0 view .LVU379
 1364 001c 884C     		ldr	r4, .L61+4
 1365 001e 1C61     		str	r4, [r3, #16]
  94:Core/Src/palette.c ****   
 1366              		.loc 1 94 3 is_stmt 1 view .LVU380
  94:Core/Src/palette.c ****   
 1367              		.loc 1 94 25 is_stmt 0 view .LVU381
 1368 0020 8848     		ldr	r0, .L61+8
 1369 0022 5861     		str	r0, [r3, #20]
ARM GAS  C:\Users\84759\AppData\Local\Temp\ccPncmRd.s 			page 45


  96:Core/Src/palette.c ****   button[1].start_y = COLOR_BLOCK_HEIGHT;
 1370              		.loc 1 96 3 is_stmt 1 view .LVU382
  96:Core/Src/palette.c ****   button[1].start_y = COLOR_BLOCK_HEIGHT;
 1371              		.loc 1 96 21 is_stmt 0 view .LVU383
 1372 0024 1A83     		strh	r2, [r3, #24]	@ movhi
  97:Core/Src/palette.c ****   button[1].end_x = BUTTON_START_X+COLOR_BLOCK_WIDTH ;
 1373              		.loc 1 97 3 is_stmt 1 view .LVU384
  97:Core/Src/palette.c ****   button[1].end_x = BUTTON_START_X+COLOR_BLOCK_WIDTH ;
 1374              		.loc 1 97 21 is_stmt 0 view .LVU385
 1375 0026 A3F81AA0 		strh	r10, [r3, #26]	@ movhi
  98:Core/Src/palette.c ****   button[1].end_y = COLOR_BLOCK_HEIGHT*2;
 1376              		.loc 1 98 3 is_stmt 1 view .LVU386
  98:Core/Src/palette.c ****   button[1].end_y = COLOR_BLOCK_HEIGHT*2;
 1377              		.loc 1 98 19 is_stmt 0 view .LVU387
 1378 002a 9983     		strh	r1, [r3, #28]	@ movhi
  99:Core/Src/palette.c ****   button[1].para = CL_GREY;
 1379              		.loc 1 99 3 is_stmt 1 view .LVU388
  99:Core/Src/palette.c ****   button[1].para = CL_GREY;
 1380              		.loc 1 99 19 is_stmt 0 view .LVU389
 1381 002c 4FF03809 		mov	r9, #56
 1382 0030 A3F81E90 		strh	r9, [r3, #30]	@ movhi
 100:Core/Src/palette.c ****   button[1].touch_flag = 0;  
 1383              		.loc 1 100 3 is_stmt 1 view .LVU390
 100:Core/Src/palette.c ****   button[1].touch_flag = 0;  
 1384              		.loc 1 100 18 is_stmt 0 view .LVU391
 1385 0034 46F20C35 		movw	r5, #25356
 1386 0038 1D62     		str	r5, [r3, #32]
 101:Core/Src/palette.c ****   button[1].draw_btn = Draw_Color_Button ;
 1387              		.loc 1 101 3 is_stmt 1 view .LVU392
 101:Core/Src/palette.c ****   button[1].draw_btn = Draw_Color_Button ;
 1388              		.loc 1 101 24 is_stmt 0 view .LVU393
 1389 003a 83F82420 		strb	r2, [r3, #36]
 102:Core/Src/palette.c ****   button[1].btn_command = Command_Select_Color ;
 1390              		.loc 1 102 3 is_stmt 1 view .LVU394
 102:Core/Src/palette.c ****   button[1].btn_command = Command_Select_Color ;
 1391              		.loc 1 102 22 is_stmt 0 view .LVU395
 1392 003e 9C62     		str	r4, [r3, #40]
 103:Core/Src/palette.c ****   
 1393              		.loc 1 103 3 is_stmt 1 view .LVU396
 103:Core/Src/palette.c ****   
 1394              		.loc 1 103 25 is_stmt 0 view .LVU397
 1395 0040 D862     		str	r0, [r3, #44]
 105:Core/Src/palette.c ****   button[2].start_y = COLOR_BLOCK_HEIGHT*2;
 1396              		.loc 1 105 3 is_stmt 1 view .LVU398
 105:Core/Src/palette.c ****   button[2].start_y = COLOR_BLOCK_HEIGHT*2;
 1397              		.loc 1 105 21 is_stmt 0 view .LVU399
 1398 0042 1A86     		strh	r2, [r3, #48]	@ movhi
 106:Core/Src/palette.c ****   button[2].end_x = BUTTON_START_X+COLOR_BLOCK_WIDTH ;
 1399              		.loc 1 106 3 is_stmt 1 view .LVU400
 106:Core/Src/palette.c ****   button[2].end_x = BUTTON_START_X+COLOR_BLOCK_WIDTH ;
 1400              		.loc 1 106 21 is_stmt 0 view .LVU401
 1401 0044 A3F83290 		strh	r9, [r3, #50]	@ movhi
 107:Core/Src/palette.c ****   button[2].end_y = COLOR_BLOCK_HEIGHT*3;
 1402              		.loc 1 107 3 is_stmt 1 view .LVU402
 107:Core/Src/palette.c ****   button[2].end_y = COLOR_BLOCK_HEIGHT*3;
 1403              		.loc 1 107 19 is_stmt 0 view .LVU403
 1404 0048 9986     		strh	r1, [r3, #52]	@ movhi
ARM GAS  C:\Users\84759\AppData\Local\Temp\ccPncmRd.s 			page 46


 108:Core/Src/palette.c ****   button[2].para = CL_BLUE;
 1405              		.loc 1 108 3 is_stmt 1 view .LVU404
 108:Core/Src/palette.c ****   button[2].para = CL_BLUE;
 1406              		.loc 1 108 19 is_stmt 0 view .LVU405
 1407 004a 4FF05408 		mov	r8, #84
 1408 004e A3F83680 		strh	r8, [r3, #54]	@ movhi
 109:Core/Src/palette.c ****   button[2].touch_flag = 0;  
 1409              		.loc 1 109 3 is_stmt 1 view .LVU406
 109:Core/Src/palette.c ****   button[2].touch_flag = 0;  
 1410              		.loc 1 109 18 is_stmt 0 view .LVU407
 1411 0052 1F25     		movs	r5, #31
 1412 0054 9D63     		str	r5, [r3, #56]
 110:Core/Src/palette.c ****   button[2].draw_btn = Draw_Color_Button ;
 1413              		.loc 1 110 3 is_stmt 1 view .LVU408
 110:Core/Src/palette.c ****   button[2].draw_btn = Draw_Color_Button ;
 1414              		.loc 1 110 24 is_stmt 0 view .LVU409
 1415 0056 83F83C20 		strb	r2, [r3, #60]
 111:Core/Src/palette.c ****   button[2].btn_command = Command_Select_Color ;
 1416              		.loc 1 111 3 is_stmt 1 view .LVU410
 111:Core/Src/palette.c ****   button[2].btn_command = Command_Select_Color ;
 1417              		.loc 1 111 22 is_stmt 0 view .LVU411
 1418 005a 1C64     		str	r4, [r3, #64]
 112:Core/Src/palette.c ****   
 1419              		.loc 1 112 3 is_stmt 1 view .LVU412
 112:Core/Src/palette.c ****   
 1420              		.loc 1 112 25 is_stmt 0 view .LVU413
 1421 005c 5864     		str	r0, [r3, #68]
 114:Core/Src/palette.c ****   button[3].start_y = COLOR_BLOCK_HEIGHT*3;
 1422              		.loc 1 114 3 is_stmt 1 view .LVU414
 114:Core/Src/palette.c ****   button[3].start_y = COLOR_BLOCK_HEIGHT*3;
 1423              		.loc 1 114 21 is_stmt 0 view .LVU415
 1424 005e A3F84820 		strh	r2, [r3, #72]	@ movhi
 115:Core/Src/palette.c ****   button[3].end_x = BUTTON_START_X+COLOR_BLOCK_WIDTH ;
 1425              		.loc 1 115 3 is_stmt 1 view .LVU416
 115:Core/Src/palette.c ****   button[3].end_x = BUTTON_START_X+COLOR_BLOCK_WIDTH ;
 1426              		.loc 1 115 21 is_stmt 0 view .LVU417
 1427 0062 A3F84A80 		strh	r8, [r3, #74]	@ movhi
 116:Core/Src/palette.c ****   button[3].end_y = COLOR_BLOCK_HEIGHT*4;
 1428              		.loc 1 116 3 is_stmt 1 view .LVU418
 116:Core/Src/palette.c ****   button[3].end_y = COLOR_BLOCK_HEIGHT*4;
 1429              		.loc 1 116 19 is_stmt 0 view .LVU419
 1430 0066 A3F84C10 		strh	r1, [r3, #76]	@ movhi
 117:Core/Src/palette.c ****   button[3].para = CL_CYAN;
 1431              		.loc 1 117 3 is_stmt 1 view .LVU420
 117:Core/Src/palette.c ****   button[3].para = CL_CYAN;
 1432              		.loc 1 117 19 is_stmt 0 view .LVU421
 1433 006a 7027     		movs	r7, #112
 1434 006c A3F84E70 		strh	r7, [r3, #78]	@ movhi
 118:Core/Src/palette.c ****   button[3].touch_flag = 0;  
 1435              		.loc 1 118 3 is_stmt 1 view .LVU422
 118:Core/Src/palette.c ****   button[3].touch_flag = 0;  
 1436              		.loc 1 118 18 is_stmt 0 view .LVU423
 1437 0070 40F2FF75 		movw	r5, #2047
 1438 0074 1D65     		str	r5, [r3, #80]
 119:Core/Src/palette.c ****   button[3].draw_btn = Draw_Color_Button ;
 1439              		.loc 1 119 3 is_stmt 1 view .LVU424
 119:Core/Src/palette.c ****   button[3].draw_btn = Draw_Color_Button ;
ARM GAS  C:\Users\84759\AppData\Local\Temp\ccPncmRd.s 			page 47


 1440              		.loc 1 119 24 is_stmt 0 view .LVU425
 1441 0076 83F85420 		strb	r2, [r3, #84]
 120:Core/Src/palette.c ****   button[3].btn_command = Command_Select_Color ;
 1442              		.loc 1 120 3 is_stmt 1 view .LVU426
 120:Core/Src/palette.c ****   button[3].btn_command = Command_Select_Color ;
 1443              		.loc 1 120 22 is_stmt 0 view .LVU427
 1444 007a 9C65     		str	r4, [r3, #88]
 121:Core/Src/palette.c ****   
 1445              		.loc 1 121 3 is_stmt 1 view .LVU428
 121:Core/Src/palette.c ****   
 1446              		.loc 1 121 25 is_stmt 0 view .LVU429
 1447 007c D865     		str	r0, [r3, #92]
 123:Core/Src/palette.c ****   button[4].start_y = COLOR_BLOCK_HEIGHT*4;
 1448              		.loc 1 123 3 is_stmt 1 view .LVU430
 123:Core/Src/palette.c ****   button[4].start_y = COLOR_BLOCK_HEIGHT*4;
 1449              		.loc 1 123 21 is_stmt 0 view .LVU431
 1450 007e A3F86020 		strh	r2, [r3, #96]	@ movhi
 124:Core/Src/palette.c ****   button[4].end_x = BUTTON_START_X+COLOR_BLOCK_WIDTH ;
 1451              		.loc 1 124 3 is_stmt 1 view .LVU432
 124:Core/Src/palette.c ****   button[4].end_x = BUTTON_START_X+COLOR_BLOCK_WIDTH ;
 1452              		.loc 1 124 21 is_stmt 0 view .LVU433
 1453 0082 A3F86270 		strh	r7, [r3, #98]	@ movhi
 125:Core/Src/palette.c ****   button[4].end_y = COLOR_BLOCK_HEIGHT*5;
 1454              		.loc 1 125 3 is_stmt 1 view .LVU434
 125:Core/Src/palette.c ****   button[4].end_y = COLOR_BLOCK_HEIGHT*5;
 1455              		.loc 1 125 19 is_stmt 0 view .LVU435
 1456 0086 A3F86410 		strh	r1, [r3, #100]	@ movhi
 126:Core/Src/palette.c ****   button[4].para = CL_RED;
 1457              		.loc 1 126 3 is_stmt 1 view .LVU436
 126:Core/Src/palette.c ****   button[4].para = CL_RED;
 1458              		.loc 1 126 19 is_stmt 0 view .LVU437
 1459 008a 8C26     		movs	r6, #140
 1460 008c A3F86660 		strh	r6, [r3, #102]	@ movhi
 127:Core/Src/palette.c ****   button[4].touch_flag = 0;  
 1461              		.loc 1 127 3 is_stmt 1 view .LVU438
 127:Core/Src/palette.c ****   button[4].touch_flag = 0;  
 1462              		.loc 1 127 18 is_stmt 0 view .LVU439
 1463 0090 4FF47845 		mov	r5, #63488
 1464 0094 9D66     		str	r5, [r3, #104]
 128:Core/Src/palette.c ****   button[4].draw_btn = Draw_Color_Button ;
 1465              		.loc 1 128 3 is_stmt 1 view .LVU440
 128:Core/Src/palette.c ****   button[4].draw_btn = Draw_Color_Button ;
 1466              		.loc 1 128 24 is_stmt 0 view .LVU441
 1467 0096 83F86C20 		strb	r2, [r3, #108]
 129:Core/Src/palette.c ****   button[4].btn_command = Command_Select_Color ;
 1468              		.loc 1 129 3 is_stmt 1 view .LVU442
 129:Core/Src/palette.c ****   button[4].btn_command = Command_Select_Color ;
 1469              		.loc 1 129 22 is_stmt 0 view .LVU443
 1470 009a 1C67     		str	r4, [r3, #112]
 130:Core/Src/palette.c ****   
 1471              		.loc 1 130 3 is_stmt 1 view .LVU444
 130:Core/Src/palette.c ****   
 1472              		.loc 1 130 25 is_stmt 0 view .LVU445
 1473 009c 5867     		str	r0, [r3, #116]
 132:Core/Src/palette.c ****   button[5].start_y = COLOR_BLOCK_HEIGHT*5;
 1474              		.loc 1 132 3 is_stmt 1 view .LVU446
 132:Core/Src/palette.c ****   button[5].start_y = COLOR_BLOCK_HEIGHT*5;
ARM GAS  C:\Users\84759\AppData\Local\Temp\ccPncmRd.s 			page 48


 1475              		.loc 1 132 21 is_stmt 0 view .LVU447
 1476 009e A3F87820 		strh	r2, [r3, #120]	@ movhi
 133:Core/Src/palette.c ****   button[5].end_x = BUTTON_START_X+COLOR_BLOCK_WIDTH ;
 1477              		.loc 1 133 3 is_stmt 1 view .LVU448
 133:Core/Src/palette.c ****   button[5].end_x = BUTTON_START_X+COLOR_BLOCK_WIDTH ;
 1478              		.loc 1 133 21 is_stmt 0 view .LVU449
 1479 00a2 A3F87A60 		strh	r6, [r3, #122]	@ movhi
 134:Core/Src/palette.c ****   button[5].end_y = COLOR_BLOCK_HEIGHT*6;
 1480              		.loc 1 134 3 is_stmt 1 view .LVU450
 134:Core/Src/palette.c ****   button[5].end_y = COLOR_BLOCK_HEIGHT*6;
 1481              		.loc 1 134 19 is_stmt 0 view .LVU451
 1482 00a6 A3F87C10 		strh	r1, [r3, #124]	@ movhi
 135:Core/Src/palette.c ****   button[5].para = CL_MAGENTA;
 1483              		.loc 1 135 3 is_stmt 1 view .LVU452
 135:Core/Src/palette.c ****   button[5].para = CL_MAGENTA;
 1484              		.loc 1 135 19 is_stmt 0 view .LVU453
 1485 00aa A825     		movs	r5, #168
 1486 00ac A3F87E50 		strh	r5, [r3, #126]	@ movhi
 136:Core/Src/palette.c ****   button[5].touch_flag = 0;  
 1487              		.loc 1 136 3 is_stmt 1 view .LVU454
 136:Core/Src/palette.c ****   button[5].touch_flag = 0;  
 1488              		.loc 1 136 18 is_stmt 0 view .LVU455
 1489 00b0 4FF61F0C 		movw	ip, #63519
 1490 00b4 C3F880C0 		str	ip, [r3, #128]
 137:Core/Src/palette.c ****   button[5].draw_btn = Draw_Color_Button ;
 1491              		.loc 1 137 3 is_stmt 1 view .LVU456
 137:Core/Src/palette.c ****   button[5].draw_btn = Draw_Color_Button ;
 1492              		.loc 1 137 24 is_stmt 0 view .LVU457
 1493 00b8 83F88420 		strb	r2, [r3, #132]
 138:Core/Src/palette.c ****   button[5].btn_command = Command_Select_Color ;
 1494              		.loc 1 138 3 is_stmt 1 view .LVU458
 138:Core/Src/palette.c ****   button[5].btn_command = Command_Select_Color ;
 1495              		.loc 1 138 22 is_stmt 0 view .LVU459
 1496 00bc C3F88840 		str	r4, [r3, #136]
 139:Core/Src/palette.c ****   
 1497              		.loc 1 139 3 is_stmt 1 view .LVU460
 139:Core/Src/palette.c ****   
 1498              		.loc 1 139 25 is_stmt 0 view .LVU461
 1499 00c0 C3F88C00 		str	r0, [r3, #140]
 141:Core/Src/palette.c ****   button[6].start_y = COLOR_BLOCK_HEIGHT*6;
 1500              		.loc 1 141 3 is_stmt 1 view .LVU462
 141:Core/Src/palette.c ****   button[6].start_y = COLOR_BLOCK_HEIGHT*6;
 1501              		.loc 1 141 21 is_stmt 0 view .LVU463
 1502 00c4 A3F89020 		strh	r2, [r3, #144]	@ movhi
 142:Core/Src/palette.c ****   button[6].end_x = BUTTON_START_X+COLOR_BLOCK_WIDTH ;
 1503              		.loc 1 142 3 is_stmt 1 view .LVU464
 142:Core/Src/palette.c ****   button[6].end_x = BUTTON_START_X+COLOR_BLOCK_WIDTH ;
 1504              		.loc 1 142 21 is_stmt 0 view .LVU465
 1505 00c8 A3F89250 		strh	r5, [r3, #146]	@ movhi
 143:Core/Src/palette.c ****   button[6].end_y = COLOR_BLOCK_HEIGHT*7;
 1506              		.loc 1 143 3 is_stmt 1 view .LVU466
 143:Core/Src/palette.c ****   button[6].end_y = COLOR_BLOCK_HEIGHT*7;
 1507              		.loc 1 143 19 is_stmt 0 view .LVU467
 1508 00cc A3F89410 		strh	r1, [r3, #148]	@ movhi
 144:Core/Src/palette.c ****   button[6].para = CL_GREEN;
 1509              		.loc 1 144 3 is_stmt 1 view .LVU468
 144:Core/Src/palette.c ****   button[6].para = CL_GREEN;
ARM GAS  C:\Users\84759\AppData\Local\Temp\ccPncmRd.s 			page 49


 1510              		.loc 1 144 19 is_stmt 0 view .LVU469
 1511 00d0 4FF0C40E 		mov	lr, #196
 1512 00d4 A3F896E0 		strh	lr, [r3, #150]	@ movhi
 145:Core/Src/palette.c ****   button[6].touch_flag = 0;  
 1513              		.loc 1 145 3 is_stmt 1 view .LVU470
 145:Core/Src/palette.c ****   button[6].touch_flag = 0;  
 1514              		.loc 1 145 18 is_stmt 0 view .LVU471
 1515 00d8 4FF4FC6C 		mov	ip, #2016
 1516 00dc C3F898C0 		str	ip, [r3, #152]
 146:Core/Src/palette.c ****   button[6].draw_btn = Draw_Color_Button ;
 1517              		.loc 1 146 3 is_stmt 1 view .LVU472
 146:Core/Src/palette.c ****   button[6].draw_btn = Draw_Color_Button ;
 1518              		.loc 1 146 24 is_stmt 0 view .LVU473
 1519 00e0 83F89C20 		strb	r2, [r3, #156]
 147:Core/Src/palette.c ****   button[6].btn_command = Command_Select_Color ;  
 1520              		.loc 1 147 3 is_stmt 1 view .LVU474
 147:Core/Src/palette.c ****   button[6].btn_command = Command_Select_Color ;  
 1521              		.loc 1 147 22 is_stmt 0 view .LVU475
 1522 00e4 C3F8A040 		str	r4, [r3, #160]
 148:Core/Src/palette.c ****   
 1523              		.loc 1 148 3 is_stmt 1 view .LVU476
 148:Core/Src/palette.c ****   
 1524              		.loc 1 148 25 is_stmt 0 view .LVU477
 1525 00e8 C3F8A400 		str	r0, [r3, #164]
 150:Core/Src/palette.c ****   button[7].start_y = COLOR_BLOCK_HEIGHT*7;
 1526              		.loc 1 150 3 is_stmt 1 view .LVU478
 150:Core/Src/palette.c ****   button[7].start_y = COLOR_BLOCK_HEIGHT*7;
 1527              		.loc 1 150 21 is_stmt 0 view .LVU479
 1528 00ec A3F8A820 		strh	r2, [r3, #168]	@ movhi
 151:Core/Src/palette.c ****   button[7].end_x = BUTTON_START_X+COLOR_BLOCK_WIDTH ;
 1529              		.loc 1 151 3 is_stmt 1 view .LVU480
 151:Core/Src/palette.c ****   button[7].end_x = BUTTON_START_X+COLOR_BLOCK_WIDTH ;
 1530              		.loc 1 151 21 is_stmt 0 view .LVU481
 1531 00f0 A3F8AAE0 		strh	lr, [r3, #170]	@ movhi
 152:Core/Src/palette.c ****   button[7].end_y = LCD_Y_LENGTH;
 1532              		.loc 1 152 3 is_stmt 1 view .LVU482
 152:Core/Src/palette.c ****   button[7].end_y = LCD_Y_LENGTH;
 1533              		.loc 1 152 19 is_stmt 0 view .LVU483
 1534 00f4 A3F8AC10 		strh	r1, [r3, #172]	@ movhi
 153:Core/Src/palette.c ****   button[7].para = CL_BUTTON_GREY;
 1535              		.loc 1 153 3 is_stmt 1 view .LVU484
 153:Core/Src/palette.c ****   button[7].para = CL_BUTTON_GREY;
 1536              		.loc 1 153 19 is_stmt 0 view .LVU485
 1537 00f8 5348     		ldr	r0, .L61+12
 1538 00fa B0F800B0 		ldrh	fp, [r0]
 1539 00fe A3F8AEB0 		strh	fp, [r3, #174]	@ movhi
 154:Core/Src/palette.c ****   button[7].touch_flag = 0;  
 1540              		.loc 1 154 3 is_stmt 1 view .LVU486
 154:Core/Src/palette.c ****   button[7].touch_flag = 0;  
 1541              		.loc 1 154 18 is_stmt 0 view .LVU487
 1542 0102 4CF21860 		movw	r0, #50712
 1543 0106 C3F8B000 		str	r0, [r3, #176]
 155:Core/Src/palette.c ****   button[7].draw_btn = Draw_Clear_Button ;
 1544              		.loc 1 155 3 is_stmt 1 view .LVU488
 155:Core/Src/palette.c ****   button[7].draw_btn = Draw_Clear_Button ;
 1545              		.loc 1 155 24 is_stmt 0 view .LVU489
 1546 010a 83F8B420 		strb	r2, [r3, #180]
ARM GAS  C:\Users\84759\AppData\Local\Temp\ccPncmRd.s 			page 50


 156:Core/Src/palette.c ****   button[7].btn_command = Command_Clear_Palette ;
 1547              		.loc 1 156 3 is_stmt 1 view .LVU490
 156:Core/Src/palette.c ****   button[7].btn_command = Command_Clear_Palette ;
 1548              		.loc 1 156 22 is_stmt 0 view .LVU491
 1549 010e 4F48     		ldr	r0, .L61+16
 1550 0110 C3F8B800 		str	r0, [r3, #184]
 157:Core/Src/palette.c ****   
 1551              		.loc 1 157 3 is_stmt 1 view .LVU492
 157:Core/Src/palette.c ****   
 1552              		.loc 1 157 25 is_stmt 0 view .LVU493
 1553 0114 4E48     		ldr	r0, .L61+20
 1554 0116 C3F8BC00 		str	r0, [r3, #188]
 161:Core/Src/palette.c ****   button[8].start_y = 0;
 1555              		.loc 1 161 3 is_stmt 1 view .LVU494
 161:Core/Src/palette.c ****   button[8].start_y = 0;
 1556              		.loc 1 161 21 is_stmt 0 view .LVU495
 1557 011a A3F8C010 		strh	r1, [r3, #192]	@ movhi
 162:Core/Src/palette.c ****   button[8].end_x = BUTTON_START_X + COLOR_BLOCK_WIDTH*2 ;
 1558              		.loc 1 162 3 is_stmt 1 view .LVU496
 162:Core/Src/palette.c ****   button[8].end_x = BUTTON_START_X + COLOR_BLOCK_WIDTH*2 ;
 1559              		.loc 1 162 21 is_stmt 0 view .LVU497
 1560 011e A3F8C220 		strh	r2, [r3, #194]	@ movhi
 163:Core/Src/palette.c ****   button[8].end_y = COLOR_BLOCK_HEIGHT;
 1561              		.loc 1 163 3 is_stmt 1 view .LVU498
 163:Core/Src/palette.c ****   button[8].end_y = COLOR_BLOCK_HEIGHT;
 1562              		.loc 1 163 19 is_stmt 0 view .LVU499
 1563 0122 4FF0500C 		mov	ip, #80
 1564 0126 A3F8C4C0 		strh	ip, [r3, #196]	@ movhi
 164:Core/Src/palette.c ****   button[8].para = LINE_SINGLE_PIXCEL;
 1565              		.loc 1 164 3 is_stmt 1 view .LVU500
 164:Core/Src/palette.c ****   button[8].para = LINE_SINGLE_PIXCEL;
 1566              		.loc 1 164 19 is_stmt 0 view .LVU501
 1567 012a A3F8C6A0 		strh	r10, [r3, #198]	@ movhi
 165:Core/Src/palette.c ****   button[8].touch_flag = 0;  
 1568              		.loc 1 165 3 is_stmt 1 view .LVU502
 165:Core/Src/palette.c ****   button[8].touch_flag = 0;  
 1569              		.loc 1 165 18 is_stmt 0 view .LVU503
 1570 012e C3F8C820 		str	r2, [r3, #200]
 166:Core/Src/palette.c ****   button[8].draw_btn = Draw_Shape_Button ;
 1571              		.loc 1 166 3 is_stmt 1 view .LVU504
 166:Core/Src/palette.c ****   button[8].draw_btn = Draw_Shape_Button ;
 1572              		.loc 1 166 24 is_stmt 0 view .LVU505
 1573 0132 83F8CC20 		strb	r2, [r3, #204]
 167:Core/Src/palette.c ****   button[8].btn_command = Command_Select_Brush ;
 1574              		.loc 1 167 3 is_stmt 1 view .LVU506
 167:Core/Src/palette.c ****   button[8].btn_command = Command_Select_Brush ;
 1575              		.loc 1 167 22 is_stmt 0 view .LVU507
 1576 0136 474C     		ldr	r4, .L61+24
 1577 0138 C3F8D040 		str	r4, [r3, #208]
 168:Core/Src/palette.c ****   
 1578              		.loc 1 168 3 is_stmt 1 view .LVU508
 168:Core/Src/palette.c ****   
 1579              		.loc 1 168 25 is_stmt 0 view .LVU509
 1580 013c 4648     		ldr	r0, .L61+28
 1581 013e C3F8D400 		str	r0, [r3, #212]
 170:Core/Src/palette.c ****   button[9].start_y = COLOR_BLOCK_HEIGHT;
 1582              		.loc 1 170 3 is_stmt 1 view .LVU510
ARM GAS  C:\Users\84759\AppData\Local\Temp\ccPncmRd.s 			page 51


 170:Core/Src/palette.c ****   button[9].start_y = COLOR_BLOCK_HEIGHT;
 1583              		.loc 1 170 21 is_stmt 0 view .LVU511
 1584 0142 A3F8D810 		strh	r1, [r3, #216]	@ movhi
 171:Core/Src/palette.c ****   button[9].end_x = BUTTON_START_X + COLOR_BLOCK_WIDTH*2 ;
 1585              		.loc 1 171 3 is_stmt 1 view .LVU512
 171:Core/Src/palette.c ****   button[9].end_x = BUTTON_START_X + COLOR_BLOCK_WIDTH*2 ;
 1586              		.loc 1 171 21 is_stmt 0 view .LVU513
 1587 0146 A3F8DAA0 		strh	r10, [r3, #218]	@ movhi
 172:Core/Src/palette.c ****   button[9].end_y = COLOR_BLOCK_HEIGHT*2;
 1588              		.loc 1 172 3 is_stmt 1 view .LVU514
 172:Core/Src/palette.c ****   button[9].end_y = COLOR_BLOCK_HEIGHT*2;
 1589              		.loc 1 172 19 is_stmt 0 view .LVU515
 1590 014a A3F8DCC0 		strh	ip, [r3, #220]	@ movhi
 173:Core/Src/palette.c ****   button[9].para = LINE_2_PIXCEL;
 1591              		.loc 1 173 3 is_stmt 1 view .LVU516
 173:Core/Src/palette.c ****   button[9].para = LINE_2_PIXCEL;
 1592              		.loc 1 173 19 is_stmt 0 view .LVU517
 1593 014e A3F8DE90 		strh	r9, [r3, #222]	@ movhi
 174:Core/Src/palette.c ****   button[9].touch_flag = 0;  
 1594              		.loc 1 174 3 is_stmt 1 view .LVU518
 174:Core/Src/palette.c ****   button[9].touch_flag = 0;  
 1595              		.loc 1 174 18 is_stmt 0 view .LVU519
 1596 0152 4FF0010A 		mov	r10, #1
 1597 0156 C3F8E0A0 		str	r10, [r3, #224]
 175:Core/Src/palette.c ****   button[9].draw_btn = Draw_Shape_Button ;
 1598              		.loc 1 175 3 is_stmt 1 view .LVU520
 175:Core/Src/palette.c ****   button[9].draw_btn = Draw_Shape_Button ;
 1599              		.loc 1 175 24 is_stmt 0 view .LVU521
 1600 015a 83F8E420 		strb	r2, [r3, #228]
 176:Core/Src/palette.c ****   button[9].btn_command = Command_Select_Brush ;
 1601              		.loc 1 176 3 is_stmt 1 view .LVU522
 176:Core/Src/palette.c ****   button[9].btn_command = Command_Select_Brush ;
 1602              		.loc 1 176 22 is_stmt 0 view .LVU523
 1603 015e C3F8E840 		str	r4, [r3, #232]
 177:Core/Src/palette.c ****   
 1604              		.loc 1 177 3 is_stmt 1 view .LVU524
 177:Core/Src/palette.c ****   
 1605              		.loc 1 177 25 is_stmt 0 view .LVU525
 1606 0162 C3F8EC00 		str	r0, [r3, #236]
 179:Core/Src/palette.c ****   button[10].start_y = COLOR_BLOCK_HEIGHT*2;
 1607              		.loc 1 179 3 is_stmt 1 view .LVU526
 179:Core/Src/palette.c ****   button[10].start_y = COLOR_BLOCK_HEIGHT*2;
 1608              		.loc 1 179 22 is_stmt 0 view .LVU527
 1609 0166 A3F8F010 		strh	r1, [r3, #240]	@ movhi
 180:Core/Src/palette.c ****   button[10].end_x = BUTTON_START_X + COLOR_BLOCK_WIDTH*2 ;
 1610              		.loc 1 180 3 is_stmt 1 view .LVU528
 180:Core/Src/palette.c ****   button[10].end_x = BUTTON_START_X + COLOR_BLOCK_WIDTH*2 ;
 1611              		.loc 1 180 22 is_stmt 0 view .LVU529
 1612 016a A3F8F290 		strh	r9, [r3, #242]	@ movhi
 181:Core/Src/palette.c ****   button[10].end_y = COLOR_BLOCK_HEIGHT*3;
 1613              		.loc 1 181 3 is_stmt 1 view .LVU530
 181:Core/Src/palette.c ****   button[10].end_y = COLOR_BLOCK_HEIGHT*3;
 1614              		.loc 1 181 20 is_stmt 0 view .LVU531
 1615 016e A3F8F4C0 		strh	ip, [r3, #244]	@ movhi
 182:Core/Src/palette.c ****   button[10].para = LINE_4_PIXCEL;
 1616              		.loc 1 182 3 is_stmt 1 view .LVU532
 182:Core/Src/palette.c ****   button[10].para = LINE_4_PIXCEL;
ARM GAS  C:\Users\84759\AppData\Local\Temp\ccPncmRd.s 			page 52


 1617              		.loc 1 182 20 is_stmt 0 view .LVU533
 1618 0172 A3F8F680 		strh	r8, [r3, #246]	@ movhi
 183:Core/Src/palette.c ****   button[10].touch_flag = 0;  
 1619              		.loc 1 183 3 is_stmt 1 view .LVU534
 183:Core/Src/palette.c ****   button[10].touch_flag = 0;  
 1620              		.loc 1 183 19 is_stmt 0 view .LVU535
 1621 0176 4FF00209 		mov	r9, #2
 1622 017a C3F8F890 		str	r9, [r3, #248]
 184:Core/Src/palette.c ****   button[10].draw_btn = Draw_Shape_Button ;
 1623              		.loc 1 184 3 is_stmt 1 view .LVU536
 184:Core/Src/palette.c ****   button[10].draw_btn = Draw_Shape_Button ;
 1624              		.loc 1 184 25 is_stmt 0 view .LVU537
 1625 017e 83F8FC20 		strb	r2, [r3, #252]
 185:Core/Src/palette.c ****   button[10].btn_command = Command_Select_Brush ;
 1626              		.loc 1 185 3 is_stmt 1 view .LVU538
 185:Core/Src/palette.c ****   button[10].btn_command = Command_Select_Brush ;
 1627              		.loc 1 185 23 is_stmt 0 view .LVU539
 1628 0182 C3F80041 		str	r4, [r3, #256]
 186:Core/Src/palette.c ****   
 1629              		.loc 1 186 3 is_stmt 1 view .LVU540
 186:Core/Src/palette.c ****   
 1630              		.loc 1 186 26 is_stmt 0 view .LVU541
 1631 0186 C3F80401 		str	r0, [r3, #260]
 188:Core/Src/palette.c ****   button[11].start_y = COLOR_BLOCK_HEIGHT*3;
 1632              		.loc 1 188 3 is_stmt 1 view .LVU542
 188:Core/Src/palette.c ****   button[11].start_y = COLOR_BLOCK_HEIGHT*3;
 1633              		.loc 1 188 22 is_stmt 0 view .LVU543
 1634 018a A3F80811 		strh	r1, [r3, #264]	@ movhi
 189:Core/Src/palette.c ****   button[11].end_x = BUTTON_START_X + COLOR_BLOCK_WIDTH*2 ;
 1635              		.loc 1 189 3 is_stmt 1 view .LVU544
 189:Core/Src/palette.c ****   button[11].end_x = BUTTON_START_X + COLOR_BLOCK_WIDTH*2 ;
 1636              		.loc 1 189 22 is_stmt 0 view .LVU545
 1637 018e A3F80A81 		strh	r8, [r3, #266]	@ movhi
 190:Core/Src/palette.c ****   button[11].end_y = COLOR_BLOCK_HEIGHT*4;
 1638              		.loc 1 190 3 is_stmt 1 view .LVU546
 190:Core/Src/palette.c ****   button[11].end_y = COLOR_BLOCK_HEIGHT*4;
 1639              		.loc 1 190 20 is_stmt 0 view .LVU547
 1640 0192 A3F80CC1 		strh	ip, [r3, #268]	@ movhi
 191:Core/Src/palette.c ****   button[11].para = LINE_6_PIXCEL;
 1641              		.loc 1 191 3 is_stmt 1 view .LVU548
 191:Core/Src/palette.c ****   button[11].para = LINE_6_PIXCEL;
 1642              		.loc 1 191 20 is_stmt 0 view .LVU549
 1643 0196 A3F80E71 		strh	r7, [r3, #270]	@ movhi
 192:Core/Src/palette.c ****   button[11].touch_flag = 0;  
 1644              		.loc 1 192 3 is_stmt 1 view .LVU550
 192:Core/Src/palette.c ****   button[11].touch_flag = 0;  
 1645              		.loc 1 192 19 is_stmt 0 view .LVU551
 1646 019a 4FF00308 		mov	r8, #3
 1647 019e C3F81081 		str	r8, [r3, #272]
 193:Core/Src/palette.c ****   button[11].draw_btn = Draw_Shape_Button ;
 1648              		.loc 1 193 3 is_stmt 1 view .LVU552
 193:Core/Src/palette.c ****   button[11].draw_btn = Draw_Shape_Button ;
 1649              		.loc 1 193 25 is_stmt 0 view .LVU553
 1650 01a2 83F81421 		strb	r2, [r3, #276]
 194:Core/Src/palette.c ****   button[11].btn_command = Command_Select_Brush ;
 1651              		.loc 1 194 3 is_stmt 1 view .LVU554
 194:Core/Src/palette.c ****   button[11].btn_command = Command_Select_Brush ;
ARM GAS  C:\Users\84759\AppData\Local\Temp\ccPncmRd.s 			page 53


 1652              		.loc 1 194 23 is_stmt 0 view .LVU555
 1653 01a6 C3F81841 		str	r4, [r3, #280]
 195:Core/Src/palette.c ****   
 1654              		.loc 1 195 3 is_stmt 1 view .LVU556
 195:Core/Src/palette.c ****   
 1655              		.loc 1 195 26 is_stmt 0 view .LVU557
 1656 01aa C3F81C01 		str	r0, [r3, #284]
 197:Core/Src/palette.c ****   button[12].start_y = COLOR_BLOCK_HEIGHT*4;
 1657              		.loc 1 197 3 is_stmt 1 view .LVU558
 197:Core/Src/palette.c ****   button[12].start_y = COLOR_BLOCK_HEIGHT*4;
 1658              		.loc 1 197 22 is_stmt 0 view .LVU559
 1659 01ae A3F82011 		strh	r1, [r3, #288]	@ movhi
 198:Core/Src/palette.c ****   button[12].end_x = BUTTON_START_X + COLOR_BLOCK_WIDTH*2 ;
 1660              		.loc 1 198 3 is_stmt 1 view .LVU560
 198:Core/Src/palette.c ****   button[12].end_x = BUTTON_START_X + COLOR_BLOCK_WIDTH*2 ;
 1661              		.loc 1 198 22 is_stmt 0 view .LVU561
 1662 01b2 A3F82271 		strh	r7, [r3, #290]	@ movhi
 199:Core/Src/palette.c ****   button[12].end_y = COLOR_BLOCK_HEIGHT*5;
 1663              		.loc 1 199 3 is_stmt 1 view .LVU562
 199:Core/Src/palette.c ****   button[12].end_y = COLOR_BLOCK_HEIGHT*5;
 1664              		.loc 1 199 20 is_stmt 0 view .LVU563
 1665 01b6 A3F824C1 		strh	ip, [r3, #292]	@ movhi
 200:Core/Src/palette.c ****   button[12].para = LINE_8_PIXCEL;
 1666              		.loc 1 200 3 is_stmt 1 view .LVU564
 200:Core/Src/palette.c ****   button[12].para = LINE_8_PIXCEL;
 1667              		.loc 1 200 20 is_stmt 0 view .LVU565
 1668 01ba A3F82661 		strh	r6, [r3, #294]	@ movhi
 201:Core/Src/palette.c ****   button[12].touch_flag = 0;  
 1669              		.loc 1 201 3 is_stmt 1 view .LVU566
 201:Core/Src/palette.c ****   button[12].touch_flag = 0;  
 1670              		.loc 1 201 19 is_stmt 0 view .LVU567
 1671 01be 0427     		movs	r7, #4
 1672 01c0 C3F82871 		str	r7, [r3, #296]
 202:Core/Src/palette.c ****   button[12].draw_btn = Draw_Shape_Button ;
 1673              		.loc 1 202 3 is_stmt 1 view .LVU568
 202:Core/Src/palette.c ****   button[12].draw_btn = Draw_Shape_Button ;
 1674              		.loc 1 202 25 is_stmt 0 view .LVU569
 1675 01c4 83F82C21 		strb	r2, [r3, #300]
 203:Core/Src/palette.c ****   button[12].btn_command = Command_Select_Brush ;
 1676              		.loc 1 203 3 is_stmt 1 view .LVU570
 203:Core/Src/palette.c ****   button[12].btn_command = Command_Select_Brush ;
 1677              		.loc 1 203 23 is_stmt 0 view .LVU571
 1678 01c8 C3F83041 		str	r4, [r3, #304]
 204:Core/Src/palette.c ****   
 1679              		.loc 1 204 3 is_stmt 1 view .LVU572
 204:Core/Src/palette.c ****   
 1680              		.loc 1 204 26 is_stmt 0 view .LVU573
 1681 01cc C3F83401 		str	r0, [r3, #308]
 206:Core/Src/palette.c ****   button[13].start_y = COLOR_BLOCK_HEIGHT*5;
 1682              		.loc 1 206 3 is_stmt 1 view .LVU574
 206:Core/Src/palette.c ****   button[13].start_y = COLOR_BLOCK_HEIGHT*5;
 1683              		.loc 1 206 22 is_stmt 0 view .LVU575
 1684 01d0 A3F83811 		strh	r1, [r3, #312]	@ movhi
 207:Core/Src/palette.c ****   button[13].end_x = BUTTON_START_X + COLOR_BLOCK_WIDTH*2 ;
 1685              		.loc 1 207 3 is_stmt 1 view .LVU576
 207:Core/Src/palette.c ****   button[13].end_x = BUTTON_START_X + COLOR_BLOCK_WIDTH*2 ;
 1686              		.loc 1 207 22 is_stmt 0 view .LVU577
ARM GAS  C:\Users\84759\AppData\Local\Temp\ccPncmRd.s 			page 54


 1687 01d4 A3F83A61 		strh	r6, [r3, #314]	@ movhi
 208:Core/Src/palette.c ****   button[13].end_y = COLOR_BLOCK_HEIGHT*6;
 1688              		.loc 1 208 3 is_stmt 1 view .LVU578
 208:Core/Src/palette.c ****   button[13].end_y = COLOR_BLOCK_HEIGHT*6;
 1689              		.loc 1 208 20 is_stmt 0 view .LVU579
 1690 01d8 A3F83CC1 		strh	ip, [r3, #316]	@ movhi
 209:Core/Src/palette.c ****   button[13].para = LINE_16_PIXCEL;
 1691              		.loc 1 209 3 is_stmt 1 view .LVU580
 209:Core/Src/palette.c ****   button[13].para = LINE_16_PIXCEL;
 1692              		.loc 1 209 20 is_stmt 0 view .LVU581
 1693 01dc A3F83E51 		strh	r5, [r3, #318]	@ movhi
 210:Core/Src/palette.c ****   button[13].touch_flag = 0;  
 1694              		.loc 1 210 3 is_stmt 1 view .LVU582
 210:Core/Src/palette.c ****   button[13].touch_flag = 0;  
 1695              		.loc 1 210 19 is_stmt 0 view .LVU583
 1696 01e0 0526     		movs	r6, #5
 1697 01e2 C3F84061 		str	r6, [r3, #320]
 211:Core/Src/palette.c ****   button[13].draw_btn = Draw_Shape_Button ;
 1698              		.loc 1 211 3 is_stmt 1 view .LVU584
 211:Core/Src/palette.c ****   button[13].draw_btn = Draw_Shape_Button ;
 1699              		.loc 1 211 25 is_stmt 0 view .LVU585
 1700 01e6 83F84421 		strb	r2, [r3, #324]
 212:Core/Src/palette.c ****   button[13].btn_command = Command_Select_Brush ;
 1701              		.loc 1 212 3 is_stmt 1 view .LVU586
 212:Core/Src/palette.c ****   button[13].btn_command = Command_Select_Brush ;
 1702              		.loc 1 212 23 is_stmt 0 view .LVU587
 1703 01ea C3F84841 		str	r4, [r3, #328]
 213:Core/Src/palette.c ****   
 1704              		.loc 1 213 3 is_stmt 1 view .LVU588
 213:Core/Src/palette.c ****   
 1705              		.loc 1 213 26 is_stmt 0 view .LVU589
 1706 01ee C3F84C01 		str	r0, [r3, #332]
 215:Core/Src/palette.c ****   button[14].start_y = COLOR_BLOCK_HEIGHT*6;
 1707              		.loc 1 215 3 is_stmt 1 view .LVU590
 215:Core/Src/palette.c ****   button[14].start_y = COLOR_BLOCK_HEIGHT*6;
 1708              		.loc 1 215 22 is_stmt 0 view .LVU591
 1709 01f2 A3F85011 		strh	r1, [r3, #336]	@ movhi
 216:Core/Src/palette.c ****   button[14].end_x = BUTTON_START_X + COLOR_BLOCK_WIDTH*2 ;
 1710              		.loc 1 216 3 is_stmt 1 view .LVU592
 216:Core/Src/palette.c ****   button[14].end_x = BUTTON_START_X + COLOR_BLOCK_WIDTH*2 ;
 1711              		.loc 1 216 22 is_stmt 0 view .LVU593
 1712 01f6 A3F85251 		strh	r5, [r3, #338]	@ movhi
 217:Core/Src/palette.c ****   button[14].end_y = COLOR_BLOCK_HEIGHT*7;
 1713              		.loc 1 217 3 is_stmt 1 view .LVU594
 217:Core/Src/palette.c ****   button[14].end_y = COLOR_BLOCK_HEIGHT*7;
 1714              		.loc 1 217 20 is_stmt 0 view .LVU595
 1715 01fa A3F854C1 		strh	ip, [r3, #340]	@ movhi
 218:Core/Src/palette.c ****   button[14].para = LINE_20_PIXCEL;
 1716              		.loc 1 218 3 is_stmt 1 view .LVU596
 218:Core/Src/palette.c ****   button[14].para = LINE_20_PIXCEL;
 1717              		.loc 1 218 20 is_stmt 0 view .LVU597
 1718 01fe A3F856E1 		strh	lr, [r3, #342]	@ movhi
 219:Core/Src/palette.c ****   button[14].touch_flag = 0;  
 1719              		.loc 1 219 3 is_stmt 1 view .LVU598
 219:Core/Src/palette.c ****   button[14].touch_flag = 0;  
 1720              		.loc 1 219 19 is_stmt 0 view .LVU599
 1721 0202 0625     		movs	r5, #6
ARM GAS  C:\Users\84759\AppData\Local\Temp\ccPncmRd.s 			page 55


 1722 0204 C3F85851 		str	r5, [r3, #344]
 220:Core/Src/palette.c ****   button[14].draw_btn = Draw_Shape_Button ;
 1723              		.loc 1 220 3 is_stmt 1 view .LVU600
 220:Core/Src/palette.c ****   button[14].draw_btn = Draw_Shape_Button ;
 1724              		.loc 1 220 25 is_stmt 0 view .LVU601
 1725 0208 83F85C21 		strb	r2, [r3, #348]
 221:Core/Src/palette.c ****   button[14].btn_command = Command_Select_Brush ;    
 1726              		.loc 1 221 3 is_stmt 1 view .LVU602
 221:Core/Src/palette.c ****   button[14].btn_command = Command_Select_Brush ;    
 1727              		.loc 1 221 23 is_stmt 0 view .LVU603
 1728 020c C3F86041 		str	r4, [r3, #352]
 222:Core/Src/palette.c ****   
 1729              		.loc 1 222 3 is_stmt 1 view .LVU604
 222:Core/Src/palette.c ****   
 1730              		.loc 1 222 26 is_stmt 0 view .LVU605
 1731 0210 C3F86401 		str	r0, [r3, #356]
 224:Core/Src/palette.c ****   button[15].start_y = COLOR_BLOCK_HEIGHT*7;
 1732              		.loc 1 224 3 is_stmt 1 view .LVU606
 224:Core/Src/palette.c ****   button[15].start_y = COLOR_BLOCK_HEIGHT*7;
 1733              		.loc 1 224 22 is_stmt 0 view .LVU607
 1734 0214 A3F86811 		strh	r1, [r3, #360]	@ movhi
 225:Core/Src/palette.c ****   button[15].end_x = BUTTON_START_X + COLOR_BLOCK_WIDTH*2 ;
 1735              		.loc 1 225 3 is_stmt 1 view .LVU608
 225:Core/Src/palette.c ****   button[15].end_x = BUTTON_START_X + COLOR_BLOCK_WIDTH*2 ;
 1736              		.loc 1 225 22 is_stmt 0 view .LVU609
 1737 0218 A3F86AE1 		strh	lr, [r3, #362]	@ movhi
 226:Core/Src/palette.c ****   button[15].end_y = LCD_Y_LENGTH;
 1738              		.loc 1 226 3 is_stmt 1 view .LVU610
 226:Core/Src/palette.c ****   button[15].end_y = LCD_Y_LENGTH;
 1739              		.loc 1 226 20 is_stmt 0 view .LVU611
 1740 021c A3F86CC1 		strh	ip, [r3, #364]	@ movhi
 227:Core/Src/palette.c ****   button[15].para = RUBBER;
 1741              		.loc 1 227 3 is_stmt 1 view .LVU612
 227:Core/Src/palette.c ****   button[15].para = RUBBER;
 1742              		.loc 1 227 20 is_stmt 0 view .LVU613
 1743 0220 A3F86EB1 		strh	fp, [r3, #366]	@ movhi
 228:Core/Src/palette.c ****   button[15].touch_flag = 0;  
 1744              		.loc 1 228 3 is_stmt 1 view .LVU614
 228:Core/Src/palette.c ****   button[15].touch_flag = 0;  
 1745              		.loc 1 228 19 is_stmt 0 view .LVU615
 1746 0224 0821     		movs	r1, #8
 1747 0226 C3F87011 		str	r1, [r3, #368]
 229:Core/Src/palette.c ****   button[15].draw_btn = Draw_Shape_Button ;
 1748              		.loc 1 229 3 is_stmt 1 view .LVU616
 229:Core/Src/palette.c ****   button[15].draw_btn = Draw_Shape_Button ;
 1749              		.loc 1 229 25 is_stmt 0 view .LVU617
 1750 022a 83F87421 		strb	r2, [r3, #372]
 230:Core/Src/palette.c ****   button[15].btn_command = Command_Select_Brush ;
 1751              		.loc 1 230 3 is_stmt 1 view .LVU618
 230:Core/Src/palette.c ****   button[15].btn_command = Command_Select_Brush ;
 1752              		.loc 1 230 23 is_stmt 0 view .LVU619
 1753 022e C3F87841 		str	r4, [r3, #376]
 231:Core/Src/palette.c **** }
 1754              		.loc 1 231 3 is_stmt 1 view .LVU620
 231:Core/Src/palette.c **** }
 1755              		.loc 1 231 26 is_stmt 0 view .LVU621
 1756 0232 C3F87C01 		str	r0, [r3, #380]
ARM GAS  C:\Users\84759\AppData\Local\Temp\ccPncmRd.s 			page 56


 232:Core/Src/palette.c **** 
 1757              		.loc 1 232 1 view .LVU622
 1758 0236 BDE8F08F 		pop	{r4, r5, r6, r7, r8, r9, r10, fp, pc}
 1759              	.L62:
 1760 023a 00BF     		.align	2
 1761              	.L61:
 1762 023c 00000000 		.word	.LANCHOR1
 1763 0240 00000000 		.word	Draw_Color_Button
 1764 0244 00000000 		.word	Command_Select_Color
 1765 0248 00000000 		.word	LCD_Y_LENGTH
 1766 024c 00000000 		.word	Draw_Clear_Button
 1767 0250 00000000 		.word	Command_Clear_Palette
 1768 0254 00000000 		.word	Draw_Shape_Button
 1769 0258 00000000 		.word	Command_Select_Brush
 1770              		.cfi_endproc
 1771              	.LFE66:
 1773              		.section	.text.Palette_Init,"ax",%progbits
 1774              		.align	1
 1775              		.global	Palette_Init
 1776              		.syntax unified
 1777              		.thumb
 1778              		.thumb_func
 1780              	Palette_Init:
 1781              	.LVL117:
 1782              	.LFB65:
  46:Core/Src/palette.c ****   
 1783              		.loc 1 46 1 is_stmt 1 view -0
 1784              		.cfi_startproc
 1785              		@ args = 0, pretend = 0, frame = 0
 1786              		@ frame_needed = 0, uses_anonymous_args = 0
  46:Core/Src/palette.c ****   
 1787              		.loc 1 46 1 is_stmt 0 view .LVU624
 1788 0000 10B5     		push	{r4, lr}
 1789              	.LCFI21:
 1790              		.cfi_def_cfa_offset 8
 1791              		.cfi_offset 4, -8
 1792              		.cfi_offset 14, -4
  48:Core/Src/palette.c **** 
 1793              		.loc 1 48 3 is_stmt 1 view .LVU625
  50:Core/Src/palette.c **** 	
 1794              		.loc 1 50 2 view .LVU626
 1795 0002 FFF7FEFF 		bl	ILI9341_GramScan
 1796              	.LVL118:
  53:Core/Src/palette.c ****   ILI9341_Clear(0,0,LCD_X_LENGTH,LCD_Y_LENGTH);	
 1797              		.loc 1 53 2 view .LVU627
 1798 0006 4FF6FF70 		movw	r0, #65535
 1799 000a FFF7FEFF 		bl	LCD_SetBackColor
 1800              	.LVL119:
  54:Core/Src/palette.c **** 
 1801              		.loc 1 54 3 view .LVU628
 1802 000e 104B     		ldr	r3, .L67
 1803 0010 1B88     		ldrh	r3, [r3]
 1804 0012 104A     		ldr	r2, .L67+4
 1805 0014 1288     		ldrh	r2, [r2]
 1806 0016 0021     		movs	r1, #0
 1807 0018 0846     		mov	r0, r1
 1808 001a FFF7FEFF 		bl	ILI9341_Clear
ARM GAS  C:\Users\84759\AppData\Local\Temp\ccPncmRd.s 			page 57


 1809              	.LVL120:
  58:Core/Src/palette.c ****   
 1810              		.loc 1 58 3 view .LVU629
 1811 001e FFF7FEFF 		bl	Touch_Button_Init
 1812              	.LVL121:
  61:Core/Src/palette.c ****   {
 1813              		.loc 1 61 3 view .LVU630
  61:Core/Src/palette.c ****   {
 1814              		.loc 1 61 8 is_stmt 0 view .LVU631
 1815 0022 0024     		movs	r4, #0
  61:Core/Src/palette.c ****   {
 1816              		.loc 1 61 3 view .LVU632
 1817 0024 0AE0     		b	.L64
 1818              	.LVL122:
 1819              	.L65:
  63:Core/Src/palette.c ****   }
 1820              		.loc 1 63 5 is_stmt 1 discriminator 3 view .LVU633
  63:Core/Src/palette.c ****   }
 1821              		.loc 1 63 14 is_stmt 0 discriminator 3 view .LVU634
 1822 0026 0C48     		ldr	r0, .L67+8
 1823 0028 04EB4402 		add	r2, r4, r4, lsl #1
 1824 002c D300     		lsls	r3, r2, #3
 1825 002e 0344     		add	r3, r3, r0
 1826 0030 1969     		ldr	r1, [r3, #16]
  63:Core/Src/palette.c ****   }
 1827              		.loc 1 63 24 discriminator 3 view .LVU635
 1828 0032 D300     		lsls	r3, r2, #3
  63:Core/Src/palette.c ****   }
 1829              		.loc 1 63 5 discriminator 3 view .LVU636
 1830 0034 1844     		add	r0, r0, r3
 1831 0036 8847     		blx	r1
 1832              	.LVL123:
  61:Core/Src/palette.c ****   {
 1833              		.loc 1 61 24 is_stmt 1 discriminator 3 view .LVU637
  61:Core/Src/palette.c ****   {
 1834              		.loc 1 61 25 is_stmt 0 discriminator 3 view .LVU638
 1835 0038 0134     		adds	r4, r4, #1
 1836              	.LVL124:
  61:Core/Src/palette.c ****   {
 1837              		.loc 1 61 25 discriminator 3 view .LVU639
 1838 003a E4B2     		uxtb	r4, r4
 1839              	.LVL125:
 1840              	.L64:
  61:Core/Src/palette.c ****   {
 1841              		.loc 1 61 11 is_stmt 1 discriminator 1 view .LVU640
  61:Core/Src/palette.c ****   {
 1842              		.loc 1 61 3 is_stmt 0 discriminator 1 view .LVU641
 1843 003c 0F2C     		cmp	r4, #15
 1844 003e F2D9     		bls	.L65
  68:Core/Src/palette.c ****   brush.shape = LINE_SINGLE_PIXCEL;
 1845              		.loc 1 68 3 is_stmt 1 view .LVU642
  68:Core/Src/palette.c ****   brush.shape = LINE_SINGLE_PIXCEL;
 1846              		.loc 1 68 15 is_stmt 0 view .LVU643
 1847 0040 064B     		ldr	r3, .L67+12
 1848 0042 0020     		movs	r0, #0
 1849 0044 1860     		str	r0, [r3]
  69:Core/Src/palette.c **** 	
ARM GAS  C:\Users\84759\AppData\Local\Temp\ccPncmRd.s 			page 58


 1850              		.loc 1 69 3 is_stmt 1 view .LVU644
  69:Core/Src/palette.c **** 	
 1851              		.loc 1 69 15 is_stmt 0 view .LVU645
 1852 0046 1871     		strb	r0, [r3, #4]
  71:Core/Src/palette.c **** 
 1853              		.loc 1 71 2 is_stmt 1 view .LVU646
 1854 0048 FFF7FEFF 		bl	LCD_SetTextColor
 1855              	.LVL126:
  74:Core/Src/palette.c **** 
 1856              		.loc 1 74 1 is_stmt 0 view .LVU647
 1857 004c 10BD     		pop	{r4, pc}
 1858              	.LVL127:
 1859              	.L68:
  74:Core/Src/palette.c **** 
 1860              		.loc 1 74 1 view .LVU648
 1861 004e 00BF     		.align	2
 1862              	.L67:
 1863 0050 00000000 		.word	LCD_Y_LENGTH
 1864 0054 00000000 		.word	LCD_X_LENGTH
 1865 0058 00000000 		.word	.LANCHOR1
 1866 005c 00000000 		.word	.LANCHOR0
 1867              		.cfi_endproc
 1868              	.LFE65:
 1870              		.section	.text.Touch_Button_Down,"ax",%progbits
 1871              		.align	1
 1872              		.global	Touch_Button_Down
 1873              		.syntax unified
 1874              		.thumb
 1875              		.thumb_func
 1877              	Touch_Button_Down:
 1878              	.LVL128:
 1879              	.LFB67:
 241:Core/Src/palette.c ****   uint8_t i;
 1880              		.loc 1 241 1 is_stmt 1 view -0
 1881              		.cfi_startproc
 1882              		@ args = 0, pretend = 0, frame = 0
 1883              		@ frame_needed = 0, uses_anonymous_args = 0
 241:Core/Src/palette.c ****   uint8_t i;
 1884              		.loc 1 241 1 is_stmt 0 view .LVU650
 1885 0000 F8B5     		push	{r3, r4, r5, r6, r7, lr}
 1886              	.LCFI22:
 1887              		.cfi_def_cfa_offset 24
 1888              		.cfi_offset 3, -24
 1889              		.cfi_offset 4, -20
 1890              		.cfi_offset 5, -16
 1891              		.cfi_offset 6, -12
 1892              		.cfi_offset 7, -8
 1893              		.cfi_offset 14, -4
 1894 0002 0646     		mov	r6, r0
 1895 0004 0F46     		mov	r7, r1
 242:Core/Src/palette.c ****   for(i=0;i<BUTTON_NUM;i++)
 1896              		.loc 1 242 3 is_stmt 1 view .LVU651
 243:Core/Src/palette.c ****   {
 1897              		.loc 1 243 3 view .LVU652
 1898              	.LVL129:
 243:Core/Src/palette.c ****   {
 1899              		.loc 1 243 8 is_stmt 0 view .LVU653
ARM GAS  C:\Users\84759\AppData\Local\Temp\ccPncmRd.s 			page 59


 1900 0006 0024     		movs	r4, #0
 243:Core/Src/palette.c ****   {
 1901              		.loc 1 243 3 view .LVU654
 1902 0008 09E0     		b	.L70
 1903              	.LVL130:
 1904              	.L71:
 256:Core/Src/palette.c ****     {
 1905              		.loc 1 256 10 is_stmt 1 view .LVU655
 256:Core/Src/palette.c ****     {
 1906              		.loc 1 256 22 is_stmt 0 view .LVU656
 1907 000a 03EB4302 		add	r2, r3, r3, lsl #1
 1908 000e 2549     		ldr	r1, .L77
 1909 0010 01EBC202 		add	r2, r1, r2, lsl #3
 1910 0014 127B     		ldrb	r2, [r2, #12]	@ zero_extendqisi2
 256:Core/Src/palette.c ****     {
 1911              		.loc 1 256 12 view .LVU657
 1912 0016 012A     		cmp	r2, #1
 1913 0018 34D0     		beq	.L75
 1914              	.L72:
 243:Core/Src/palette.c ****   {
 1915              		.loc 1 243 24 is_stmt 1 discriminator 2 view .LVU658
 243:Core/Src/palette.c ****   {
 1916              		.loc 1 243 25 is_stmt 0 discriminator 2 view .LVU659
 1917 001a 0134     		adds	r4, r4, #1
 1918              	.LVL131:
 243:Core/Src/palette.c ****   {
 1919              		.loc 1 243 25 discriminator 2 view .LVU660
 1920 001c E4B2     		uxtb	r4, r4
 1921              	.LVL132:
 1922              	.L70:
 243:Core/Src/palette.c ****   {
 1923              		.loc 1 243 11 is_stmt 1 discriminator 1 view .LVU661
 243:Core/Src/palette.c ****   {
 1924              		.loc 1 243 3 is_stmt 0 discriminator 1 view .LVU662
 1925 001e 0F2C     		cmp	r4, #15
 1926 0020 3ED8     		bhi	.L76
 246:Core/Src/palette.c ****     {
 1927              		.loc 1 246 5 is_stmt 1 view .LVU663
 246:Core/Src/palette.c ****     {
 1928              		.loc 1 246 20 is_stmt 0 view .LVU664
 1929 0022 2346     		mov	r3, r4
 1930 0024 04EB4402 		add	r2, r4, r4, lsl #1
 1931 0028 1E4D     		ldr	r5, .L77
 1932 002a 05EBC202 		add	r2, r5, r2, lsl #3
 1933 002e 9288     		ldrh	r2, [r2, #4]
 246:Core/Src/palette.c ****     {
 1934              		.loc 1 246 7 view .LVU665
 1935 0030 B242     		cmp	r2, r6
 1936 0032 EAD3     		bcc	.L71
 246:Core/Src/palette.c ****     {
 1937              		.loc 1 246 42 discriminator 1 view .LVU666
 1938 0034 04EB4402 		add	r2, r4, r4, lsl #1
 1939 0038 05EBC202 		add	r2, r5, r2, lsl #3
 1940 003c D288     		ldrh	r2, [r2, #6]
 246:Core/Src/palette.c ****     {
 1941              		.loc 1 246 27 discriminator 1 view .LVU667
 1942 003e BA42     		cmp	r2, r7
ARM GAS  C:\Users\84759\AppData\Local\Temp\ccPncmRd.s 			page 60


 1943 0040 E3D3     		bcc	.L71
 246:Core/Src/palette.c ****     {
 1944              		.loc 1 246 64 discriminator 2 view .LVU668
 1945 0042 04EB4402 		add	r2, r4, r4, lsl #1
 1946 0046 05EBC202 		add	r2, r5, r2, lsl #3
 1947 004a 5288     		ldrh	r2, [r2, #2]
 246:Core/Src/palette.c ****     {
 1948              		.loc 1 246 49 discriminator 2 view .LVU669
 1949 004c BA42     		cmp	r2, r7
 1950 004e DCD8     		bhi	.L71
 246:Core/Src/palette.c ****     {
 1951              		.loc 1 246 88 discriminator 3 view .LVU670
 1952 0050 04EB4402 		add	r2, r4, r4, lsl #1
 1953 0054 35F83220 		ldrh	r2, [r5, r2, lsl #3]
 246:Core/Src/palette.c ****     {
 1954              		.loc 1 246 73 discriminator 3 view .LVU671
 1955 0058 B242     		cmp	r2, r6
 1956 005a D6D8     		bhi	.L71
 248:Core/Src/palette.c ****       {
 1957              		.loc 1 248 7 is_stmt 1 view .LVU672
 248:Core/Src/palette.c ****       {
 1958              		.loc 1 248 19 is_stmt 0 view .LVU673
 1959 005c 04EB4402 		add	r2, r4, r4, lsl #1
 1960 0060 05EBC202 		add	r2, r5, r2, lsl #3
 1961 0064 127B     		ldrb	r2, [r2, #12]	@ zero_extendqisi2
 248:Core/Src/palette.c ****       {
 1962              		.loc 1 248 9 view .LVU674
 1963 0066 002A     		cmp	r2, #0
 1964 0068 D7D1     		bne	.L72
 250:Core/Src/palette.c ****       
 1965              		.loc 1 250 7 is_stmt 1 view .LVU675
 250:Core/Src/palette.c ****       
 1966              		.loc 1 250 28 is_stmt 0 view .LVU676
 1967 006a 04EB4402 		add	r2, r4, r4, lsl #1
 1968 006e 05EBC202 		add	r2, r5, r2, lsl #3
 1969 0072 0120     		movs	r0, #1
 1970 0074 1073     		strb	r0, [r2, #12]
 252:Core/Src/palette.c ****       }        
 1971              		.loc 1 252 7 is_stmt 1 view .LVU677
 252:Core/Src/palette.c ****       }        
 1972              		.loc 1 252 16 is_stmt 0 view .LVU678
 1973 0076 1269     		ldr	r2, [r2, #16]
 252:Core/Src/palette.c ****       }        
 1974              		.loc 1 252 26 view .LVU679
 1975 0078 04EB4403 		add	r3, r4, r4, lsl #1
 252:Core/Src/palette.c ****       }        
 1976              		.loc 1 252 7 view .LVU680
 1977 007c 05EBC300 		add	r0, r5, r3, lsl #3
 1978 0080 9047     		blx	r2
 1979              	.LVL133:
 1980 0082 CAE7     		b	.L72
 1981              	.L75:
 258:Core/Src/palette.c ****       
 1982              		.loc 1 258 7 is_stmt 1 view .LVU681
 258:Core/Src/palette.c ****       
 1983              		.loc 1 258 28 is_stmt 0 view .LVU682
 1984 0084 0846     		mov	r0, r1
ARM GAS  C:\Users\84759\AppData\Local\Temp\ccPncmRd.s 			page 61


 1985 0086 03EB4302 		add	r2, r3, r3, lsl #1
 1986 008a 01EBC202 		add	r2, r1, r2, lsl #3
 1987 008e 0021     		movs	r1, #0
 1988 0090 1173     		strb	r1, [r2, #12]
 260:Core/Src/palette.c ****     }
 1989              		.loc 1 260 7 is_stmt 1 view .LVU683
 260:Core/Src/palette.c ****     }
 1990              		.loc 1 260 16 is_stmt 0 view .LVU684
 1991 0092 1269     		ldr	r2, [r2, #16]
 260:Core/Src/palette.c ****     }
 1992              		.loc 1 260 26 view .LVU685
 1993 0094 03EB4303 		add	r3, r3, r3, lsl #1
 260:Core/Src/palette.c ****     }
 1994              		.loc 1 260 7 view .LVU686
 1995 0098 00EBC300 		add	r0, r0, r3, lsl #3
 1996 009c 9047     		blx	r2
 1997              	.LVL134:
 1998 009e BCE7     		b	.L72
 1999              	.L76:
 265:Core/Src/palette.c **** 
 2000              		.loc 1 265 1 view .LVU687
 2001 00a0 F8BD     		pop	{r3, r4, r5, r6, r7, pc}
 2002              	.LVL135:
 2003              	.L78:
 265:Core/Src/palette.c **** 
 2004              		.loc 1 265 1 view .LVU688
 2005 00a2 00BF     		.align	2
 2006              	.L77:
 2007 00a4 00000000 		.word	.LANCHOR1
 2008              		.cfi_endproc
 2009              	.LFE67:
 2011              		.section	.text.Touch_Button_Up,"ax",%progbits
 2012              		.align	1
 2013              		.global	Touch_Button_Up
 2014              		.syntax unified
 2015              		.thumb
 2016              		.thumb_func
 2018              	Touch_Button_Up:
 2019              	.LVL136:
 2020              	.LFB68:
 274:Core/Src/palette.c ****    uint8_t i; 
 2021              		.loc 1 274 1 is_stmt 1 view -0
 2022              		.cfi_startproc
 2023              		@ args = 0, pretend = 0, frame = 0
 2024              		@ frame_needed = 0, uses_anonymous_args = 0
 274:Core/Src/palette.c ****    uint8_t i; 
 2025              		.loc 1 274 1 is_stmt 0 view .LVU690
 2026 0000 F8B5     		push	{r3, r4, r5, r6, r7, lr}
 2027              	.LCFI23:
 2028              		.cfi_def_cfa_offset 24
 2029              		.cfi_offset 3, -24
 2030              		.cfi_offset 4, -20
 2031              		.cfi_offset 5, -16
 2032              		.cfi_offset 6, -12
 2033              		.cfi_offset 7, -8
 2034              		.cfi_offset 14, -4
 275:Core/Src/palette.c ****    for(i=0;i<BUTTON_NUM;i++)
ARM GAS  C:\Users\84759\AppData\Local\Temp\ccPncmRd.s 			page 62


 2035              		.loc 1 275 4 is_stmt 1 view .LVU691
 276:Core/Src/palette.c ****    {
 2036              		.loc 1 276 4 view .LVU692
 2037              	.LVL137:
 276:Core/Src/palette.c ****    {
 2038              		.loc 1 276 9 is_stmt 0 view .LVU693
 2039 0002 0023     		movs	r3, #0
 276:Core/Src/palette.c ****    {
 2040              		.loc 1 276 4 view .LVU694
 2041 0004 01E0     		b	.L80
 2042              	.LVL138:
 2043              	.L81:
 276:Core/Src/palette.c ****    {
 2044              		.loc 1 276 25 is_stmt 1 discriminator 2 view .LVU695
 276:Core/Src/palette.c ****    {
 2045              		.loc 1 276 26 is_stmt 0 discriminator 2 view .LVU696
 2046 0006 0133     		adds	r3, r3, #1
 2047              	.LVL139:
 276:Core/Src/palette.c ****    {
 2048              		.loc 1 276 26 discriminator 2 view .LVU697
 2049 0008 DBB2     		uxtb	r3, r3
 2050              	.LVL140:
 2051              	.L80:
 276:Core/Src/palette.c ****    {
 2052              		.loc 1 276 12 is_stmt 1 discriminator 1 view .LVU698
 276:Core/Src/palette.c ****    {
 2053              		.loc 1 276 4 is_stmt 0 discriminator 1 view .LVU699
 2054 000a 0F2B     		cmp	r3, #15
 2055 000c 28D8     		bhi	.L79
 279:Core/Src/palette.c ****       {        
 2056              		.loc 1 279 7 is_stmt 1 view .LVU700
 279:Core/Src/palette.c ****       {        
 2057              		.loc 1 279 22 is_stmt 0 view .LVU701
 2058 000e 03EB4302 		add	r2, r3, r3, lsl #1
 2059 0012 144C     		ldr	r4, .L85
 2060 0014 04EBC202 		add	r2, r4, r2, lsl #3
 2061 0018 9288     		ldrh	r2, [r2, #4]
 279:Core/Src/palette.c ****       {        
 2062              		.loc 1 279 9 view .LVU702
 2063 001a 8242     		cmp	r2, r0
 2064 001c F3D9     		bls	.L81
 279:Core/Src/palette.c ****       {        
 2065              		.loc 1 279 43 discriminator 1 view .LVU703
 2066 001e 03EB4302 		add	r2, r3, r3, lsl #1
 2067 0022 34F83220 		ldrh	r2, [r4, r2, lsl #3]
 279:Core/Src/palette.c ****       {        
 2068              		.loc 1 279 29 discriminator 1 view .LVU704
 2069 0026 8242     		cmp	r2, r0
 2070 0028 EDD2     		bcs	.L81
 279:Core/Src/palette.c ****       {        
 2071              		.loc 1 279 66 discriminator 2 view .LVU705
 2072 002a 03EB4302 		add	r2, r3, r3, lsl #1
 2073 002e 04EBC202 		add	r2, r4, r2, lsl #3
 2074 0032 D288     		ldrh	r2, [r2, #6]
 279:Core/Src/palette.c ****       {        
 2075              		.loc 1 279 52 discriminator 2 view .LVU706
 2076 0034 8A42     		cmp	r2, r1
ARM GAS  C:\Users\84759\AppData\Local\Temp\ccPncmRd.s 			page 63


 2077 0036 E6D9     		bls	.L81
 279:Core/Src/palette.c ****       {        
 2078              		.loc 1 279 87 discriminator 3 view .LVU707
 2079 0038 03EB4302 		add	r2, r3, r3, lsl #1
 2080 003c 04EBC202 		add	r2, r4, r2, lsl #3
 2081 0040 5288     		ldrh	r2, [r2, #2]
 279:Core/Src/palette.c ****       {        
 2082              		.loc 1 279 73 discriminator 3 view .LVU708
 2083 0042 8A42     		cmp	r2, r1
 2084 0044 DFD2     		bcs	.L81
 281:Core/Src/palette.c ****         
 2085              		.loc 1 281 9 is_stmt 1 view .LVU709
 281:Core/Src/palette.c ****         
 2086              		.loc 1 281 30 is_stmt 0 view .LVU710
 2087 0046 2646     		mov	r6, r4
 2088 0048 03EB4304 		add	r4, r3, r3, lsl #1
 2089 004c 06EBC404 		add	r4, r6, r4, lsl #3
 2090 0050 0023     		movs	r3, #0
 2091              	.LVL141:
 281:Core/Src/palette.c ****         
 2092              		.loc 1 281 30 view .LVU711
 2093 0052 2373     		strb	r3, [r4, #12]
 283:Core/Src/palette.c ****       
 2094              		.loc 1 283 9 is_stmt 1 view .LVU712
 283:Core/Src/palette.c ****       
 2095              		.loc 1 283 18 is_stmt 0 view .LVU713
 2096 0054 2369     		ldr	r3, [r4, #16]
 283:Core/Src/palette.c ****       
 2097              		.loc 1 283 9 view .LVU714
 2098 0056 2046     		mov	r0, r4
 2099              	.LVL142:
 283:Core/Src/palette.c ****       
 2100              		.loc 1 283 9 view .LVU715
 2101 0058 9847     		blx	r3
 2102              	.LVL143:
 285:Core/Src/palette.c ****         
 2103              		.loc 1 285 9 is_stmt 1 view .LVU716
 285:Core/Src/palette.c ****         
 2104              		.loc 1 285 18 is_stmt 0 view .LVU717
 2105 005a 6369     		ldr	r3, [r4, #20]
 285:Core/Src/palette.c ****         
 2106              		.loc 1 285 9 view .LVU718
 2107 005c 2046     		mov	r0, r4
 2108 005e 9847     		blx	r3
 2109              	.LVL144:
 287:Core/Src/palette.c ****       }
 2110              		.loc 1 287 9 is_stmt 1 view .LVU719
 2111              	.L79:
 291:Core/Src/palette.c **** 
 2112              		.loc 1 291 1 is_stmt 0 view .LVU720
 2113 0060 F8BD     		pop	{r3, r4, r5, r6, r7, pc}
 2114              	.L86:
 2115 0062 00BF     		.align	2
 2116              	.L85:
 2117 0064 00000000 		.word	.LANCHOR1
 2118              		.cfi_endproc
 2119              	.LFE68:
ARM GAS  C:\Users\84759\AppData\Local\Temp\ccPncmRd.s 			page 64


 2121              		.section	.text.Draw_Trail,"ax",%progbits
 2122              		.align	1
 2123              		.global	Draw_Trail
 2124              		.syntax unified
 2125              		.thumb
 2126              		.thumb_func
 2128              	Draw_Trail:
 2129              	.LVL145:
 2130              	.LFB69:
 303:Core/Src/palette.c ****   /*设置画板区域为活动窗口,bsp_lcd.c驱动还没有这样的函数，用于限制绘画窗口*/
 2131              		.loc 1 303 1 is_stmt 1 view -0
 2132              		.cfi_startproc
 2133              		@ args = 4, pretend = 0, frame = 0
 2134              		@ frame_needed = 0, uses_anonymous_args = 0
 309:Core/Src/palette.c ****   {
 2135              		.loc 1 309 3 view .LVU722
 309:Core/Src/palette.c ****   {
 2136              		.loc 1 309 5 is_stmt 0 view .LVU723
 2137 0000 512A     		cmp	r2, #81
 2138 0002 40F3AC80 		ble	.L104
 303:Core/Src/palette.c ****   /*设置画板区域为活动窗口,bsp_lcd.c驱动还没有这样的函数，用于限制绘画窗口*/
 2139              		.loc 1 303 1 discriminator 1 view .LVU724
 2140 0006 30B5     		push	{r4, r5, lr}
 2141              	.LCFI24:
 2142              		.cfi_def_cfa_offset 12
 2143              		.cfi_offset 4, -12
 2144              		.cfi_offset 5, -8
 2145              		.cfi_offset 14, -4
 2146 0008 83B0     		sub	sp, sp, #12
 2147              	.LCFI25:
 2148              		.cfi_def_cfa_offset 24
 2149 000a 1446     		mov	r4, r2
 2150 000c 1D46     		mov	r5, r3
 309:Core/Src/palette.c ****   {
 2151              		.loc 1 309 24 discriminator 1 view .LVU725
 2152 000e 5128     		cmp	r0, #81
 2153 0010 22DD     		ble	.L87
 311:Core/Src/palette.c ****     {
 2154              		.loc 1 311 5 is_stmt 1 view .LVU726
 311:Core/Src/palette.c ****     {
 2155              		.loc 1 311 17 is_stmt 0 view .LVU727
 2156 0012 069B     		ldr	r3, [sp, #24]
 2157              	.LVL146:
 311:Core/Src/palette.c ****     {
 2158              		.loc 1 311 17 view .LVU728
 2159 0014 1B79     		ldrb	r3, [r3, #4]	@ zero_extendqisi2
 311:Core/Src/palette.c ****     {
 2160              		.loc 1 311 5 view .LVU729
 2161 0016 082B     		cmp	r3, #8
 2162 0018 1ED8     		bhi	.L87
 2163 001a DFE803F0 		tbb	[pc, r3]
 2164              	.LVL147:
 2165              	.L90:
 2166 001e 05       		.byte	(.L98-.L90)/2
 2167 001f 15       		.byte	(.L97-.L90)/2
 2168 0020 1F       		.byte	(.L96-.L90)/2
 2169 0021 2C       		.byte	(.L95-.L90)/2
ARM GAS  C:\Users\84759\AppData\Local\Temp\ccPncmRd.s 			page 65


 2170 0022 39       		.byte	(.L94-.L90)/2
 2171 0023 46       		.byte	(.L93-.L90)/2
 2172 0024 53       		.byte	(.L92-.L90)/2
 2173 0025 60       		.byte	(.L91-.L90)/2
 2174 0026 7C       		.byte	(.L89-.L90)/2
 2175 0027 00       		.p2align 1
 2176              	.L98:
 315:Core/Src/palette.c ****             {      
 2177              		.loc 1 315 13 is_stmt 1 view .LVU730
 315:Core/Src/palette.c ****             {      
 2178              		.loc 1 315 15 is_stmt 0 view .LVU731
 2179 0028 0028     		cmp	r0, #0
 2180 002a 01DB     		blt	.L99
 315:Core/Src/palette.c ****             {      
 2181              		.loc 1 315 25 discriminator 1 view .LVU732
 2182 002c 0029     		cmp	r1, #0
 2183 002e 04DA     		bge	.L100
 2184              	.L99:
 317:Core/Src/palette.c ****             }
 2185              		.loc 1 317 15 is_stmt 1 view .LVU733
 2186 0030 A9B2     		uxth	r1, r5
 2187              	.LVL148:
 317:Core/Src/palette.c ****             }
 2188              		.loc 1 317 15 is_stmt 0 view .LVU734
 2189 0032 A0B2     		uxth	r0, r4
 2190              	.LVL149:
 317:Core/Src/palette.c ****             }
 2191              		.loc 1 317 15 view .LVU735
 2192 0034 FFF7FEFF 		bl	ILI9341_SetPointPixel
 2193              	.LVL150:
 2194 0038 0EE0     		b	.L87
 2195              	.LVL151:
 2196              	.L100:
 321:Core/Src/palette.c ****             } 
 2197              		.loc 1 321 15 is_stmt 1 view .LVU736
 2198 003a ABB2     		uxth	r3, r5
 2199 003c A2B2     		uxth	r2, r4
 2200 003e 89B2     		uxth	r1, r1
 321:Core/Src/palette.c ****             } 
 2201              		.loc 1 321 15 is_stmt 0 view .LVU737
 2202 0040 80B2     		uxth	r0, r0
 321:Core/Src/palette.c ****             } 
 2203              		.loc 1 321 15 view .LVU738
 2204 0042 FFF7FEFF 		bl	ILI9341_DrawLine
 2205              	.LVL152:
 321:Core/Src/palette.c ****             } 
 2206              		.loc 1 321 15 view .LVU739
 2207 0046 07E0     		b	.L87
 2208              	.LVL153:
 2209              	.L97:
 328:Core/Src/palette.c **** 					break;
 2210              		.loc 1 328 5 is_stmt 1 view .LVU740
 332:Core/Src/palette.c ****         
 2211              		.loc 1 332 9 view .LVU741
 2212 0048 0123     		movs	r3, #1
 2213 004a 0093     		str	r3, [sp]
 2214 004c ABB2     		uxth	r3, r5
ARM GAS  C:\Users\84759\AppData\Local\Temp\ccPncmRd.s 			page 66


 2215 004e A2B2     		uxth	r2, r4
 2216 0050 89B2     		uxth	r1, r1
 332:Core/Src/palette.c ****         
 2217              		.loc 1 332 9 is_stmt 0 view .LVU742
 2218 0052 80B2     		uxth	r0, r0
 332:Core/Src/palette.c ****         
 2219              		.loc 1 332 9 view .LVU743
 2220 0054 FFF7FEFF 		bl	LCD_DrawUniLineCircle
 2221              	.LVL154:
 334:Core/Src/palette.c ****       
 2222              		.loc 1 334 9 is_stmt 1 view .LVU744
 2223              	.L87:
 423:Core/Src/palette.c **** 
 2224              		.loc 1 423 1 is_stmt 0 view .LVU745
 2225 0058 03B0     		add	sp, sp, #12
 2226              	.LCFI26:
 2227              		.cfi_remember_state
 2228              		.cfi_def_cfa_offset 12
 2229              		@ sp needed
 2230 005a 30BD     		pop	{r4, r5, pc}
 2231              	.LVL155:
 2232              	.L96:
 2233              	.LCFI27:
 2234              		.cfi_restore_state
 338:Core/Src/palette.c **** 					break;
 2235              		.loc 1 338 5 is_stmt 1 view .LVU746
 338:Core/Src/palette.c **** 					break;
 2236              		.loc 1 338 7 is_stmt 0 view .LVU747
 2237 005c 522C     		cmp	r4, #82
 2238 005e FBDD     		ble	.L87
 338:Core/Src/palette.c **** 					break;
 2239              		.loc 1 338 27 discriminator 1 view .LVU748
 2240 0060 5228     		cmp	r0, #82
 2241 0062 F9DD     		ble	.L87
 341:Core/Src/palette.c **** 
 2242              		.loc 1 341 13 is_stmt 1 view .LVU749
 2243 0064 0223     		movs	r3, #2
 2244 0066 0093     		str	r3, [sp]
 2245 0068 ABB2     		uxth	r3, r5
 2246 006a A2B2     		uxth	r2, r4
 2247 006c 89B2     		uxth	r1, r1
 341:Core/Src/palette.c **** 
 2248              		.loc 1 341 13 is_stmt 0 view .LVU750
 2249 006e 80B2     		uxth	r0, r0
 341:Core/Src/palette.c **** 
 2250              		.loc 1 341 13 view .LVU751
 2251 0070 FFF7FEFF 		bl	LCD_DrawUniLineCircle
 2252              	.LVL156:
 343:Core/Src/palette.c ****       
 2253              		.loc 1 343 9 is_stmt 1 view .LVU752
 2254 0074 F0E7     		b	.L87
 2255              	.LVL157:
 2256              	.L95:
 347:Core/Src/palette.c **** 					break;
 2257              		.loc 1 347 5 view .LVU753
 347:Core/Src/palette.c **** 					break;
 2258              		.loc 1 347 7 is_stmt 0 view .LVU754
ARM GAS  C:\Users\84759\AppData\Local\Temp\ccPncmRd.s 			page 67


 2259 0076 532C     		cmp	r4, #83
 2260 0078 EEDD     		ble	.L87
 347:Core/Src/palette.c **** 					break;
 2261              		.loc 1 347 27 discriminator 1 view .LVU755
 2262 007a 5328     		cmp	r0, #83
 2263 007c ECDD     		ble	.L87
 350:Core/Src/palette.c ****         
 2264              		.loc 1 350 9 is_stmt 1 view .LVU756
 2265 007e 0323     		movs	r3, #3
 2266 0080 0093     		str	r3, [sp]
 2267 0082 ABB2     		uxth	r3, r5
 2268 0084 A2B2     		uxth	r2, r4
 2269 0086 89B2     		uxth	r1, r1
 350:Core/Src/palette.c ****         
 2270              		.loc 1 350 9 is_stmt 0 view .LVU757
 2271 0088 80B2     		uxth	r0, r0
 350:Core/Src/palette.c ****         
 2272              		.loc 1 350 9 view .LVU758
 2273 008a FFF7FEFF 		bl	LCD_DrawUniLineCircle
 2274              	.LVL158:
 352:Core/Src/palette.c ****       
 2275              		.loc 1 352 9 is_stmt 1 view .LVU759
 2276 008e E3E7     		b	.L87
 2277              	.LVL159:
 2278              	.L94:
 356:Core/Src/palette.c **** 					break;
 2279              		.loc 1 356 5 view .LVU760
 356:Core/Src/palette.c **** 					break;
 2280              		.loc 1 356 7 is_stmt 0 view .LVU761
 2281 0090 542C     		cmp	r4, #84
 2282 0092 E1DD     		ble	.L87
 356:Core/Src/palette.c **** 					break;
 2283              		.loc 1 356 27 discriminator 1 view .LVU762
 2284 0094 5428     		cmp	r0, #84
 2285 0096 DFDD     		ble	.L87
 359:Core/Src/palette.c **** 
 2286              		.loc 1 359 13 is_stmt 1 view .LVU763
 2287 0098 0423     		movs	r3, #4
 2288 009a 0093     		str	r3, [sp]
 2289 009c ABB2     		uxth	r3, r5
 2290 009e A2B2     		uxth	r2, r4
 2291 00a0 89B2     		uxth	r1, r1
 359:Core/Src/palette.c **** 
 2292              		.loc 1 359 13 is_stmt 0 view .LVU764
 2293 00a2 80B2     		uxth	r0, r0
 359:Core/Src/palette.c **** 
 2294              		.loc 1 359 13 view .LVU765
 2295 00a4 FFF7FEFF 		bl	LCD_DrawUniLineCircle
 2296              	.LVL160:
 361:Core/Src/palette.c ****       
 2297              		.loc 1 361 9 is_stmt 1 view .LVU766
 2298 00a8 D6E7     		b	.L87
 2299              	.LVL161:
 2300              	.L93:
 365:Core/Src/palette.c **** 					break;
 2301              		.loc 1 365 6 view .LVU767
 365:Core/Src/palette.c **** 					break;
ARM GAS  C:\Users\84759\AppData\Local\Temp\ccPncmRd.s 			page 68


 2302              		.loc 1 365 8 is_stmt 0 view .LVU768
 2303 00aa 582C     		cmp	r4, #88
 2304 00ac D4DD     		ble	.L87
 365:Core/Src/palette.c **** 					break;
 2305              		.loc 1 365 28 discriminator 1 view .LVU769
 2306 00ae 5828     		cmp	r0, #88
 2307 00b0 D2DD     		ble	.L87
 368:Core/Src/palette.c **** 
 2308              		.loc 1 368 13 is_stmt 1 view .LVU770
 2309 00b2 0823     		movs	r3, #8
 2310 00b4 0093     		str	r3, [sp]
 2311 00b6 ABB2     		uxth	r3, r5
 2312 00b8 A2B2     		uxth	r2, r4
 2313 00ba 89B2     		uxth	r1, r1
 368:Core/Src/palette.c **** 
 2314              		.loc 1 368 13 is_stmt 0 view .LVU771
 2315 00bc 80B2     		uxth	r0, r0
 368:Core/Src/palette.c **** 
 2316              		.loc 1 368 13 view .LVU772
 2317 00be FFF7FEFF 		bl	LCD_DrawUniLineCircle
 2318              	.LVL162:
 370:Core/Src/palette.c ****             
 2319              		.loc 1 370 9 is_stmt 1 view .LVU773
 2320 00c2 C9E7     		b	.L87
 2321              	.LVL163:
 2322              	.L92:
 374:Core/Src/palette.c **** 					break;
 2323              		.loc 1 374 5 view .LVU774
 374:Core/Src/palette.c **** 					break;
 2324              		.loc 1 374 7 is_stmt 0 view .LVU775
 2325 00c4 5A2C     		cmp	r4, #90
 2326 00c6 C7DD     		ble	.L87
 374:Core/Src/palette.c **** 					break;
 2327              		.loc 1 374 29 discriminator 1 view .LVU776
 2328 00c8 5A28     		cmp	r0, #90
 2329 00ca C5DD     		ble	.L87
 377:Core/Src/palette.c **** 
 2330              		.loc 1 377 13 is_stmt 1 view .LVU777
 2331 00cc 0A23     		movs	r3, #10
 2332 00ce 0093     		str	r3, [sp]
 2333 00d0 ABB2     		uxth	r3, r5
 2334 00d2 A2B2     		uxth	r2, r4
 2335 00d4 89B2     		uxth	r1, r1
 377:Core/Src/palette.c **** 
 2336              		.loc 1 377 13 is_stmt 0 view .LVU778
 2337 00d6 80B2     		uxth	r0, r0
 377:Core/Src/palette.c **** 
 2338              		.loc 1 377 13 view .LVU779
 2339 00d8 FFF7FEFF 		bl	LCD_DrawUniLineCircle
 2340              	.LVL164:
 379:Core/Src/palette.c ****       
 2341              		.loc 1 379 9 is_stmt 1 view .LVU780
 2342 00dc BCE7     		b	.L87
 2343              	.LVL165:
 2344              	.L91:
 384:Core/Src/palette.c **** 					break;			
 2345              		.loc 1 384 6 view .LVU781
ARM GAS  C:\Users\84759\AppData\Local\Temp\ccPncmRd.s 			page 69


 384:Core/Src/palette.c **** 					break;			
 2346              		.loc 1 384 8 is_stmt 0 view .LVU782
 2347 00de 532C     		cmp	r4, #83
 2348 00e0 BADD     		ble	.L87
 384:Core/Src/palette.c **** 					break;			
 2349              		.loc 1 384 28 discriminator 1 view .LVU783
 2350 00e2 5328     		cmp	r0, #83
 2351 00e4 B8DD     		ble	.L87
 387:Core/Src/palette.c ****             {      
 2352              		.loc 1 387 13 is_stmt 1 view .LVU784
 387:Core/Src/palette.c ****             {      
 2353              		.loc 1 387 15 is_stmt 0 view .LVU785
 2354 00e6 0028     		cmp	r0, #0
 2355 00e8 01DB     		blt	.L101
 387:Core/Src/palette.c ****             {      
 2356              		.loc 1 387 25 discriminator 1 view .LVU786
 2357 00ea 0029     		cmp	r1, #0
 2358 00ec 04DA     		bge	.L102
 2359              	.L101:
 389:Core/Src/palette.c ****             }
 2360              		.loc 1 389 15 is_stmt 1 view .LVU787
 2361 00ee A9B2     		uxth	r1, r5
 2362              	.LVL166:
 389:Core/Src/palette.c ****             }
 2363              		.loc 1 389 15 is_stmt 0 view .LVU788
 2364 00f0 A0B2     		uxth	r0, r4
 2365              	.LVL167:
 389:Core/Src/palette.c ****             }
 2366              		.loc 1 389 15 view .LVU789
 2367 00f2 FFF7FEFF 		bl	ILI9341_SetPointPixel
 2368              	.LVL168:
 2369 00f6 AFE7     		b	.L87
 2370              	.LVL169:
 2371              	.L102:
 393:Core/Src/palette.c ****               ILI9341_DrawCircle(x,y,3,1);
 2372              		.loc 1 393 15 is_stmt 1 view .LVU790
 2373 00f8 A4B2     		uxth	r4, r4
 2374 00fa ADB2     		uxth	r5, r5
 2375 00fc 2B46     		mov	r3, r5
 2376 00fe 2246     		mov	r2, r4
 2377 0100 89B2     		uxth	r1, r1
 393:Core/Src/palette.c ****               ILI9341_DrawCircle(x,y,3,1);
 2378              		.loc 1 393 15 is_stmt 0 view .LVU791
 2379 0102 80B2     		uxth	r0, r0
 393:Core/Src/palette.c ****               ILI9341_DrawCircle(x,y,3,1);
 2380              		.loc 1 393 15 view .LVU792
 2381 0104 FFF7FEFF 		bl	ILI9341_DrawLine
 2382              	.LVL170:
 394:Core/Src/palette.c ****             } 
 2383              		.loc 1 394 15 is_stmt 1 view .LVU793
 2384 0108 0123     		movs	r3, #1
 2385 010a 0322     		movs	r2, #3
 2386 010c 2946     		mov	r1, r5
 2387 010e 2046     		mov	r0, r4
 2388 0110 FFF7FEFF 		bl	ILI9341_DrawCircle
 2389              	.LVL171:
 2390 0114 A0E7     		b	.L87
ARM GAS  C:\Users\84759\AppData\Local\Temp\ccPncmRd.s 			page 70


 2391              	.LVL172:
 2392              	.L89:
 402:Core/Src/palette.c **** 					  x+20>LCD_X_LENGTH || x-20<0 || //液晶左右边界
 2393              		.loc 1 402 5 view .LVU794
 402:Core/Src/palette.c **** 					  x+20>LCD_X_LENGTH || x-20<0 || //液晶左右边界
 2394              		.loc 1 402 7 is_stmt 0 view .LVU795
 2395 0116 642C     		cmp	r4, #100
 2396 0118 9EDD     		ble	.L87
 403:Core/Src/palette.c **** 						y+20>LCD_Y_LENGTH || y-20<0)	 //液晶上下边界				
 2397              		.loc 1 403 12 discriminator 1 view .LVU796
 2398 011a 04F11303 		add	r3, r4, #19
 2399 011e 104A     		ldr	r2, .L107
 2400 0120 1288     		ldrh	r2, [r2]
 402:Core/Src/palette.c **** 					  x+20>LCD_X_LENGTH || x-20<0 || //液晶左右边界
 2401              		.loc 1 402 29 discriminator 1 view .LVU797
 2402 0122 9342     		cmp	r3, r2
 2403 0124 98DA     		bge	.L87
 403:Core/Src/palette.c **** 						y+20>LCD_Y_LENGTH || y-20<0)	 //液晶上下边界				
 2404              		.loc 1 403 26 view .LVU798
 2405 0126 132C     		cmp	r4, #19
 2406 0128 96DD     		ble	.L87
 404:Core/Src/palette.c **** 					break;	
 2407              		.loc 1 404 11 discriminator 1 view .LVU799
 2408 012a 05F11303 		add	r3, r5, #19
 2409 012e 0D4A     		ldr	r2, .L107+4
 2410 0130 1288     		ldrh	r2, [r2]
 403:Core/Src/palette.c **** 						y+20>LCD_Y_LENGTH || y-20<0)	 //液晶上下边界				
 2411              		.loc 1 403 36 discriminator 1 view .LVU800
 2412 0132 9342     		cmp	r3, r2
 2413 0134 90DA     		bge	.L87
 404:Core/Src/palette.c **** 					break;	
 2414              		.loc 1 404 25 view .LVU801
 2415 0136 132D     		cmp	r5, #19
 2416 0138 8EDD     		ble	.L87
 409:Core/Src/palette.c ****             
 2417              		.loc 1 409 7 is_stmt 1 view .LVU802
 2418 013a 4FF6FF71 		movw	r1, #65535
 2419              	.LVL173:
 409:Core/Src/palette.c ****             
 2420              		.loc 1 409 7 is_stmt 0 view .LVU803
 2421 013e 0846     		mov	r0, r1
 2422              	.LVL174:
 409:Core/Src/palette.c ****             
 2423              		.loc 1 409 7 view .LVU804
 2424 0140 FFF7FEFF 		bl	LCD_SetColors
 2425              	.LVL175:
 411:Core/Src/palette.c ****       
 2426              		.loc 1 411 7 is_stmt 1 view .LVU805
 2427 0144 A5F11401 		sub	r1, r5, #20
 2428 0148 A4F11400 		sub	r0, r4, #20
 2429 014c 0123     		movs	r3, #1
 2430 014e 0093     		str	r3, [sp]
 2431 0150 2823     		movs	r3, #40
 2432 0152 1A46     		mov	r2, r3
 2433 0154 89B2     		uxth	r1, r1
 2434 0156 80B2     		uxth	r0, r0
 2435 0158 FFF7FEFF 		bl	ILI9341_DrawRectangle
ARM GAS  C:\Users\84759\AppData\Local\Temp\ccPncmRd.s 			page 71


 2436              	.LVL176:
 414:Core/Src/palette.c **** 
 2437              		.loc 1 414 7 view .LVU806
 423:Core/Src/palette.c **** 
 2438              		.loc 1 423 1 is_stmt 0 view .LVU807
 2439 015c 7CE7     		b	.L87
 2440              	.LVL177:
 2441              	.L104:
 2442              	.LCFI28:
 2443              		.cfi_def_cfa_offset 0
 2444              		.cfi_restore 4
 2445              		.cfi_restore 5
 2446              		.cfi_restore 14
 423:Core/Src/palette.c **** 
 2447              		.loc 1 423 1 view .LVU808
 2448 015e 7047     		bx	lr
 2449              	.L108:
 2450              		.align	2
 2451              	.L107:
 2452 0160 00000000 		.word	LCD_X_LENGTH
 2453 0164 00000000 		.word	LCD_Y_LENGTH
 2454              		.cfi_endproc
 2455              	.LFE69:
 2457              		.global	brush
 2458              		.global	button
 2459              		.section	.bss.brush,"aw",%nobits
 2460              		.align	2
 2461              		.set	.LANCHOR0,. + 0
 2464              	brush:
 2465 0000 00000000 		.space	8
 2465      00000000 
 2466              		.section	.bss.button,"aw",%nobits
 2467              		.align	2
 2468              		.set	.LANCHOR1,. + 0
 2471              	button:
 2472 0000 00000000 		.space	384
 2472      00000000 
 2472      00000000 
 2472      00000000 
 2472      00000000 
 2473              		.text
 2474              	.Letext0:
 2475              		.file 2 "d:\\mingw\\gcc-arm-none-eabi-10.3-2021.10-win32\\gcc-arm-none-eabi-10.3-2021.10\\arm-none
 2476              		.file 3 "d:\\mingw\\gcc-arm-none-eabi-10.3-2021.10-win32\\gcc-arm-none-eabi-10.3-2021.10\\arm-none
 2477              		.file 4 "Core/Inc/palette.h"
 2478              		.file 5 "Core/Inc/fonts.h"
 2479              		.file 6 "Core/Inc/lcd.h"
ARM GAS  C:\Users\84759\AppData\Local\Temp\ccPncmRd.s 			page 72

