ARM GAS  C:\Users\84759\AppData\Local\Temp\ccrYoL7n.s 			page 1


   1              		.cpu cortex-m3
   2              		.arch armv7-m
   3              		.fpu softvfp
   4              		.eabi_attribute 20, 1
   5              		.eabi_attribute 21, 1
   6              		.eabi_attribute 23, 3
   7              		.eabi_attribute 24, 1
   8              		.eabi_attribute 25, 1
   9              		.eabi_attribute 26, 1
  10              		.eabi_attribute 30, 1
  11              		.eabi_attribute 34, 1
  12              		.eabi_attribute 18, 4
  13              		.file	"usart.c"
  14              		.text
  15              	.Ltext0:
  16              		.cfi_sections	.debug_frame
  17              		.section	.text.MX_USART1_UART_Init,"ax",%progbits
  18              		.align	1
  19              		.global	MX_USART1_UART_Init
  20              		.syntax unified
  21              		.thumb
  22              		.thumb_func
  24              	MX_USART1_UART_Init:
  25              	.LFB68:
  26              		.file 1 "Core/Src/usart.c"
   1:Core/Src/usart.c **** /* USER CODE BEGIN Header */
   2:Core/Src/usart.c **** /**
   3:Core/Src/usart.c ****   ******************************************************************************
   4:Core/Src/usart.c ****   * @file    usart.c
   5:Core/Src/usart.c ****   * @brief   This file provides code for the configuration
   6:Core/Src/usart.c ****   *          of the USART instances.
   7:Core/Src/usart.c ****   ******************************************************************************
   8:Core/Src/usart.c ****   * @attention
   9:Core/Src/usart.c ****   *
  10:Core/Src/usart.c ****   * Copyright (c) 2026 STMicroelectronics.
  11:Core/Src/usart.c ****   * All rights reserved.
  12:Core/Src/usart.c ****   *
  13:Core/Src/usart.c ****   * This software is licensed under terms that can be found in the LICENSE file
  14:Core/Src/usart.c ****   * in the root directory of this software component.
  15:Core/Src/usart.c ****   * If no LICENSE file comes with this software, it is provided AS-IS.
  16:Core/Src/usart.c ****   *
  17:Core/Src/usart.c ****   ******************************************************************************
  18:Core/Src/usart.c ****   */
  19:Core/Src/usart.c **** /* USER CODE END Header */
  20:Core/Src/usart.c **** /* Includes ------------------------------------------------------------------*/
  21:Core/Src/usart.c **** #include "usart.h"
  22:Core/Src/usart.c **** 
  23:Core/Src/usart.c **** /* USER CODE BEGIN 0 */
  24:Core/Src/usart.c **** #include "stdio.h"
  25:Core/Src/usart.c **** /* USER CODE END 0 */
  26:Core/Src/usart.c **** 
  27:Core/Src/usart.c **** UART_HandleTypeDef huart1;
  28:Core/Src/usart.c **** 
  29:Core/Src/usart.c **** /* USART1 init function */
  30:Core/Src/usart.c **** 
  31:Core/Src/usart.c **** void MX_USART1_UART_Init(void)
  32:Core/Src/usart.c **** {
ARM GAS  C:\Users\84759\AppData\Local\Temp\ccrYoL7n.s 			page 2


  27              		.loc 1 32 1 view -0
  28              		.cfi_startproc
  29              		@ args = 0, pretend = 0, frame = 0
  30              		@ frame_needed = 0, uses_anonymous_args = 0
  31 0000 08B5     		push	{r3, lr}
  32              	.LCFI0:
  33              		.cfi_def_cfa_offset 8
  34              		.cfi_offset 3, -8
  35              		.cfi_offset 14, -4
  33:Core/Src/usart.c **** 
  34:Core/Src/usart.c ****   /* USER CODE BEGIN USART1_Init 0 */
  35:Core/Src/usart.c **** 
  36:Core/Src/usart.c ****   /* USER CODE END USART1_Init 0 */
  37:Core/Src/usart.c **** 
  38:Core/Src/usart.c ****   /* USER CODE BEGIN USART1_Init 1 */
  39:Core/Src/usart.c **** 
  40:Core/Src/usart.c ****   /* USER CODE END USART1_Init 1 */
  41:Core/Src/usart.c ****   huart1.Instance = USART1;
  36              		.loc 1 41 3 view .LVU1
  37              		.loc 1 41 19 is_stmt 0 view .LVU2
  38 0002 0D48     		ldr	r0, .L5
  39 0004 0D4B     		ldr	r3, .L5+4
  40 0006 0360     		str	r3, [r0]
  42:Core/Src/usart.c ****   huart1.Init.BaudRate = 115200;
  41              		.loc 1 42 3 is_stmt 1 view .LVU3
  42              		.loc 1 42 24 is_stmt 0 view .LVU4
  43 0008 4FF4E133 		mov	r3, #115200
  44 000c 4360     		str	r3, [r0, #4]
  43:Core/Src/usart.c ****   huart1.Init.WordLength = UART_WORDLENGTH_8B;
  45              		.loc 1 43 3 is_stmt 1 view .LVU5
  46              		.loc 1 43 26 is_stmt 0 view .LVU6
  47 000e 0023     		movs	r3, #0
  48 0010 8360     		str	r3, [r0, #8]
  44:Core/Src/usart.c ****   huart1.Init.StopBits = UART_STOPBITS_1;
  49              		.loc 1 44 3 is_stmt 1 view .LVU7
  50              		.loc 1 44 24 is_stmt 0 view .LVU8
  51 0012 C360     		str	r3, [r0, #12]
  45:Core/Src/usart.c ****   huart1.Init.Parity = UART_PARITY_NONE;
  52              		.loc 1 45 3 is_stmt 1 view .LVU9
  53              		.loc 1 45 22 is_stmt 0 view .LVU10
  54 0014 0361     		str	r3, [r0, #16]
  46:Core/Src/usart.c ****   huart1.Init.Mode = UART_MODE_TX_RX;
  55              		.loc 1 46 3 is_stmt 1 view .LVU11
  56              		.loc 1 46 20 is_stmt 0 view .LVU12
  57 0016 0C22     		movs	r2, #12
  58 0018 4261     		str	r2, [r0, #20]
  47:Core/Src/usart.c ****   huart1.Init.HwFlowCtl = UART_HWCONTROL_NONE;
  59              		.loc 1 47 3 is_stmt 1 view .LVU13
  60              		.loc 1 47 25 is_stmt 0 view .LVU14
  61 001a 8361     		str	r3, [r0, #24]
  48:Core/Src/usart.c ****   huart1.Init.OverSampling = UART_OVERSAMPLING_16;
  62              		.loc 1 48 3 is_stmt 1 view .LVU15
  63              		.loc 1 48 28 is_stmt 0 view .LVU16
  64 001c C361     		str	r3, [r0, #28]
  49:Core/Src/usart.c ****   if (HAL_UART_Init(&huart1) != HAL_OK)
  65              		.loc 1 49 3 is_stmt 1 view .LVU17
  66              		.loc 1 49 7 is_stmt 0 view .LVU18
ARM GAS  C:\Users\84759\AppData\Local\Temp\ccrYoL7n.s 			page 3


  67 001e FFF7FEFF 		bl	HAL_UART_Init
  68              	.LVL0:
  69              		.loc 1 49 6 view .LVU19
  70 0022 30B9     		cbnz	r0, .L4
  71              	.L2:
  50:Core/Src/usart.c ****   {
  51:Core/Src/usart.c ****     Error_Handler();
  52:Core/Src/usart.c ****   }
  53:Core/Src/usart.c ****   /* USER CODE BEGIN USART1_Init 2 */
  54:Core/Src/usart.c ****   __HAL_UART_ENABLE_IT(&huart1, UART_IT_RXNE);  
  72              		.loc 1 54 3 is_stmt 1 view .LVU20
  73 0024 044B     		ldr	r3, .L5
  74 0026 1A68     		ldr	r2, [r3]
  75 0028 D368     		ldr	r3, [r2, #12]
  76 002a 43F02003 		orr	r3, r3, #32
  77 002e D360     		str	r3, [r2, #12]
  55:Core/Src/usart.c ****   /* USER CODE END USART1_Init 2 */
  56:Core/Src/usart.c **** 
  57:Core/Src/usart.c **** }
  78              		.loc 1 57 1 is_stmt 0 view .LVU21
  79 0030 08BD     		pop	{r3, pc}
  80              	.L4:
  51:Core/Src/usart.c ****   }
  81              		.loc 1 51 5 is_stmt 1 view .LVU22
  82 0032 FFF7FEFF 		bl	Error_Handler
  83              	.LVL1:
  84 0036 F5E7     		b	.L2
  85              	.L6:
  86              		.align	2
  87              	.L5:
  88 0038 00000000 		.word	.LANCHOR0
  89 003c 00380140 		.word	1073821696
  90              		.cfi_endproc
  91              	.LFE68:
  93              		.section	.text.HAL_UART_MspInit,"ax",%progbits
  94              		.align	1
  95              		.global	HAL_UART_MspInit
  96              		.syntax unified
  97              		.thumb
  98              		.thumb_func
 100              	HAL_UART_MspInit:
 101              	.LVL2:
 102              	.LFB69:
  58:Core/Src/usart.c **** 
  59:Core/Src/usart.c **** void HAL_UART_MspInit(UART_HandleTypeDef* uartHandle)
  60:Core/Src/usart.c **** {
 103              		.loc 1 60 1 view -0
 104              		.cfi_startproc
 105              		@ args = 0, pretend = 0, frame = 24
 106              		@ frame_needed = 0, uses_anonymous_args = 0
 107              		.loc 1 60 1 is_stmt 0 view .LVU24
 108 0000 30B5     		push	{r4, r5, lr}
 109              	.LCFI1:
 110              		.cfi_def_cfa_offset 12
 111              		.cfi_offset 4, -12
 112              		.cfi_offset 5, -8
 113              		.cfi_offset 14, -4
ARM GAS  C:\Users\84759\AppData\Local\Temp\ccrYoL7n.s 			page 4


 114 0002 87B0     		sub	sp, sp, #28
 115              	.LCFI2:
 116              		.cfi_def_cfa_offset 40
  61:Core/Src/usart.c **** 
  62:Core/Src/usart.c ****   GPIO_InitTypeDef GPIO_InitStruct = {0};
 117              		.loc 1 62 3 is_stmt 1 view .LVU25
 118              		.loc 1 62 20 is_stmt 0 view .LVU26
 119 0004 0023     		movs	r3, #0
 120 0006 0293     		str	r3, [sp, #8]
 121 0008 0393     		str	r3, [sp, #12]
 122 000a 0493     		str	r3, [sp, #16]
 123 000c 0593     		str	r3, [sp, #20]
  63:Core/Src/usart.c ****   if(uartHandle->Instance==USART1)
 124              		.loc 1 63 3 is_stmt 1 view .LVU27
 125              		.loc 1 63 16 is_stmt 0 view .LVU28
 126 000e 0268     		ldr	r2, [r0]
 127              		.loc 1 63 5 view .LVU29
 128 0010 1B4B     		ldr	r3, .L11
 129 0012 9A42     		cmp	r2, r3
 130 0014 01D0     		beq	.L10
 131              	.LVL3:
 132              	.L7:
  64:Core/Src/usart.c ****   {
  65:Core/Src/usart.c ****   /* USER CODE BEGIN USART1_MspInit 0 */
  66:Core/Src/usart.c **** 
  67:Core/Src/usart.c ****   /* USER CODE END USART1_MspInit 0 */
  68:Core/Src/usart.c ****     /* USART1 clock enable */
  69:Core/Src/usart.c ****     __HAL_RCC_USART1_CLK_ENABLE();
  70:Core/Src/usart.c **** 
  71:Core/Src/usart.c ****     __HAL_RCC_GPIOA_CLK_ENABLE();
  72:Core/Src/usart.c ****     /**USART1 GPIO Configuration
  73:Core/Src/usart.c ****     PA9     ------> USART1_TX
  74:Core/Src/usart.c ****     PA10     ------> USART1_RX
  75:Core/Src/usart.c ****     */
  76:Core/Src/usart.c ****     GPIO_InitStruct.Pin = GPIO_PIN_9;
  77:Core/Src/usart.c ****     GPIO_InitStruct.Mode = GPIO_MODE_AF_PP;
  78:Core/Src/usart.c ****     GPIO_InitStruct.Speed = GPIO_SPEED_FREQ_HIGH;
  79:Core/Src/usart.c ****     HAL_GPIO_Init(GPIOA, &GPIO_InitStruct);
  80:Core/Src/usart.c **** 
  81:Core/Src/usart.c ****     GPIO_InitStruct.Pin = GPIO_PIN_10;
  82:Core/Src/usart.c ****     GPIO_InitStruct.Mode = GPIO_MODE_INPUT;
  83:Core/Src/usart.c ****     GPIO_InitStruct.Pull = GPIO_NOPULL;
  84:Core/Src/usart.c ****     HAL_GPIO_Init(GPIOA, &GPIO_InitStruct);
  85:Core/Src/usart.c **** 
  86:Core/Src/usart.c ****     /* USART1 interrupt Init */
  87:Core/Src/usart.c ****     HAL_NVIC_SetPriority(USART1_IRQn, 0, 0);
  88:Core/Src/usart.c ****     HAL_NVIC_EnableIRQ(USART1_IRQn);
  89:Core/Src/usart.c ****   /* USER CODE BEGIN USART1_MspInit 1 */
  90:Core/Src/usart.c **** 
  91:Core/Src/usart.c ****   /* USER CODE END USART1_MspInit 1 */
  92:Core/Src/usart.c ****   }
  93:Core/Src/usart.c **** }
 133              		.loc 1 93 1 view .LVU30
 134 0016 07B0     		add	sp, sp, #28
 135              	.LCFI3:
 136              		.cfi_remember_state
 137              		.cfi_def_cfa_offset 12
ARM GAS  C:\Users\84759\AppData\Local\Temp\ccrYoL7n.s 			page 5


 138              		@ sp needed
 139 0018 30BD     		pop	{r4, r5, pc}
 140              	.LVL4:
 141              	.L10:
 142              	.LCFI4:
 143              		.cfi_restore_state
  69:Core/Src/usart.c **** 
 144              		.loc 1 69 5 is_stmt 1 view .LVU31
 145              	.LBB2:
  69:Core/Src/usart.c **** 
 146              		.loc 1 69 5 view .LVU32
  69:Core/Src/usart.c **** 
 147              		.loc 1 69 5 view .LVU33
 148 001a 03F55843 		add	r3, r3, #55296
 149 001e 9A69     		ldr	r2, [r3, #24]
 150 0020 42F48042 		orr	r2, r2, #16384
 151 0024 9A61     		str	r2, [r3, #24]
  69:Core/Src/usart.c **** 
 152              		.loc 1 69 5 view .LVU34
 153 0026 9A69     		ldr	r2, [r3, #24]
 154 0028 02F48042 		and	r2, r2, #16384
 155 002c 0092     		str	r2, [sp]
  69:Core/Src/usart.c **** 
 156              		.loc 1 69 5 view .LVU35
 157 002e 009A     		ldr	r2, [sp]
 158              	.LBE2:
  69:Core/Src/usart.c **** 
 159              		.loc 1 69 5 view .LVU36
  71:Core/Src/usart.c ****     /**USART1 GPIO Configuration
 160              		.loc 1 71 5 view .LVU37
 161              	.LBB3:
  71:Core/Src/usart.c ****     /**USART1 GPIO Configuration
 162              		.loc 1 71 5 view .LVU38
  71:Core/Src/usart.c ****     /**USART1 GPIO Configuration
 163              		.loc 1 71 5 view .LVU39
 164 0030 9A69     		ldr	r2, [r3, #24]
 165 0032 42F00402 		orr	r2, r2, #4
 166 0036 9A61     		str	r2, [r3, #24]
  71:Core/Src/usart.c ****     /**USART1 GPIO Configuration
 167              		.loc 1 71 5 view .LVU40
 168 0038 9B69     		ldr	r3, [r3, #24]
 169 003a 03F00403 		and	r3, r3, #4
 170 003e 0193     		str	r3, [sp, #4]
  71:Core/Src/usart.c ****     /**USART1 GPIO Configuration
 171              		.loc 1 71 5 view .LVU41
 172 0040 019B     		ldr	r3, [sp, #4]
 173              	.LBE3:
  71:Core/Src/usart.c ****     /**USART1 GPIO Configuration
 174              		.loc 1 71 5 view .LVU42
  76:Core/Src/usart.c ****     GPIO_InitStruct.Mode = GPIO_MODE_AF_PP;
 175              		.loc 1 76 5 view .LVU43
  76:Core/Src/usart.c ****     GPIO_InitStruct.Mode = GPIO_MODE_AF_PP;
 176              		.loc 1 76 25 is_stmt 0 view .LVU44
 177 0042 4FF40073 		mov	r3, #512
 178 0046 0293     		str	r3, [sp, #8]
  77:Core/Src/usart.c ****     GPIO_InitStruct.Speed = GPIO_SPEED_FREQ_HIGH;
 179              		.loc 1 77 5 is_stmt 1 view .LVU45
ARM GAS  C:\Users\84759\AppData\Local\Temp\ccrYoL7n.s 			page 6


  77:Core/Src/usart.c ****     GPIO_InitStruct.Speed = GPIO_SPEED_FREQ_HIGH;
 180              		.loc 1 77 26 is_stmt 0 view .LVU46
 181 0048 0223     		movs	r3, #2
 182 004a 0393     		str	r3, [sp, #12]
  78:Core/Src/usart.c ****     HAL_GPIO_Init(GPIOA, &GPIO_InitStruct);
 183              		.loc 1 78 5 is_stmt 1 view .LVU47
  78:Core/Src/usart.c ****     HAL_GPIO_Init(GPIOA, &GPIO_InitStruct);
 184              		.loc 1 78 27 is_stmt 0 view .LVU48
 185 004c 0323     		movs	r3, #3
 186 004e 0593     		str	r3, [sp, #20]
  79:Core/Src/usart.c **** 
 187              		.loc 1 79 5 is_stmt 1 view .LVU49
 188 0050 0C4D     		ldr	r5, .L11+4
 189 0052 02A9     		add	r1, sp, #8
 190 0054 2846     		mov	r0, r5
 191              	.LVL5:
  79:Core/Src/usart.c **** 
 192              		.loc 1 79 5 is_stmt 0 view .LVU50
 193 0056 FFF7FEFF 		bl	HAL_GPIO_Init
 194              	.LVL6:
  81:Core/Src/usart.c ****     GPIO_InitStruct.Mode = GPIO_MODE_INPUT;
 195              		.loc 1 81 5 is_stmt 1 view .LVU51
  81:Core/Src/usart.c ****     GPIO_InitStruct.Mode = GPIO_MODE_INPUT;
 196              		.loc 1 81 25 is_stmt 0 view .LVU52
 197 005a 4FF48063 		mov	r3, #1024
 198 005e 0293     		str	r3, [sp, #8]
  82:Core/Src/usart.c ****     GPIO_InitStruct.Pull = GPIO_NOPULL;
 199              		.loc 1 82 5 is_stmt 1 view .LVU53
  82:Core/Src/usart.c ****     GPIO_InitStruct.Pull = GPIO_NOPULL;
 200              		.loc 1 82 26 is_stmt 0 view .LVU54
 201 0060 0024     		movs	r4, #0
 202 0062 0394     		str	r4, [sp, #12]
  83:Core/Src/usart.c ****     HAL_GPIO_Init(GPIOA, &GPIO_InitStruct);
 203              		.loc 1 83 5 is_stmt 1 view .LVU55
  83:Core/Src/usart.c ****     HAL_GPIO_Init(GPIOA, &GPIO_InitStruct);
 204              		.loc 1 83 26 is_stmt 0 view .LVU56
 205 0064 0494     		str	r4, [sp, #16]
  84:Core/Src/usart.c **** 
 206              		.loc 1 84 5 is_stmt 1 view .LVU57
 207 0066 02A9     		add	r1, sp, #8
 208 0068 2846     		mov	r0, r5
 209 006a FFF7FEFF 		bl	HAL_GPIO_Init
 210              	.LVL7:
  87:Core/Src/usart.c ****     HAL_NVIC_EnableIRQ(USART1_IRQn);
 211              		.loc 1 87 5 view .LVU58
 212 006e 2246     		mov	r2, r4
 213 0070 2146     		mov	r1, r4
 214 0072 2520     		movs	r0, #37
 215 0074 FFF7FEFF 		bl	HAL_NVIC_SetPriority
 216              	.LVL8:
  88:Core/Src/usart.c ****   /* USER CODE BEGIN USART1_MspInit 1 */
 217              		.loc 1 88 5 view .LVU59
 218 0078 2520     		movs	r0, #37
 219 007a FFF7FEFF 		bl	HAL_NVIC_EnableIRQ
 220              	.LVL9:
 221              		.loc 1 93 1 is_stmt 0 view .LVU60
 222 007e CAE7     		b	.L7
ARM GAS  C:\Users\84759\AppData\Local\Temp\ccrYoL7n.s 			page 7


 223              	.L12:
 224              		.align	2
 225              	.L11:
 226 0080 00380140 		.word	1073821696
 227 0084 00080140 		.word	1073809408
 228              		.cfi_endproc
 229              	.LFE69:
 231              		.section	.text.HAL_UART_MspDeInit,"ax",%progbits
 232              		.align	1
 233              		.global	HAL_UART_MspDeInit
 234              		.syntax unified
 235              		.thumb
 236              		.thumb_func
 238              	HAL_UART_MspDeInit:
 239              	.LVL10:
 240              	.LFB70:
  94:Core/Src/usart.c **** 
  95:Core/Src/usart.c **** void HAL_UART_MspDeInit(UART_HandleTypeDef* uartHandle)
  96:Core/Src/usart.c **** {
 241              		.loc 1 96 1 is_stmt 1 view -0
 242              		.cfi_startproc
 243              		@ args = 0, pretend = 0, frame = 0
 244              		@ frame_needed = 0, uses_anonymous_args = 0
 245              		.loc 1 96 1 is_stmt 0 view .LVU62
 246 0000 08B5     		push	{r3, lr}
 247              	.LCFI5:
 248              		.cfi_def_cfa_offset 8
 249              		.cfi_offset 3, -8
 250              		.cfi_offset 14, -4
  97:Core/Src/usart.c **** 
  98:Core/Src/usart.c ****   if(uartHandle->Instance==USART1)
 251              		.loc 1 98 3 is_stmt 1 view .LVU63
 252              		.loc 1 98 16 is_stmt 0 view .LVU64
 253 0002 0268     		ldr	r2, [r0]
 254              		.loc 1 98 5 view .LVU65
 255 0004 084B     		ldr	r3, .L17
 256 0006 9A42     		cmp	r2, r3
 257 0008 00D0     		beq	.L16
 258              	.LVL11:
 259              	.L13:
  99:Core/Src/usart.c ****   {
 100:Core/Src/usart.c ****   /* USER CODE BEGIN USART1_MspDeInit 0 */
 101:Core/Src/usart.c **** 
 102:Core/Src/usart.c ****   /* USER CODE END USART1_MspDeInit 0 */
 103:Core/Src/usart.c ****     /* Peripheral clock disable */
 104:Core/Src/usart.c ****     __HAL_RCC_USART1_CLK_DISABLE();
 105:Core/Src/usart.c **** 
 106:Core/Src/usart.c ****     /**USART1 GPIO Configuration
 107:Core/Src/usart.c ****     PA9     ------> USART1_TX
 108:Core/Src/usart.c ****     PA10     ------> USART1_RX
 109:Core/Src/usart.c ****     */
 110:Core/Src/usart.c ****     HAL_GPIO_DeInit(GPIOA, GPIO_PIN_9|GPIO_PIN_10);
 111:Core/Src/usart.c **** 
 112:Core/Src/usart.c ****     /* USART1 interrupt Deinit */
 113:Core/Src/usart.c ****     HAL_NVIC_DisableIRQ(USART1_IRQn);
 114:Core/Src/usart.c ****   /* USER CODE BEGIN USART1_MspDeInit 1 */
 115:Core/Src/usart.c **** 
ARM GAS  C:\Users\84759\AppData\Local\Temp\ccrYoL7n.s 			page 8


 116:Core/Src/usart.c ****   /* USER CODE END USART1_MspDeInit 1 */
 117:Core/Src/usart.c ****   }
 118:Core/Src/usart.c **** }
 260              		.loc 1 118 1 view .LVU66
 261 000a 08BD     		pop	{r3, pc}
 262              	.LVL12:
 263              	.L16:
 104:Core/Src/usart.c **** 
 264              		.loc 1 104 5 is_stmt 1 view .LVU67
 265 000c 074A     		ldr	r2, .L17+4
 266 000e 9369     		ldr	r3, [r2, #24]
 267 0010 23F48043 		bic	r3, r3, #16384
 268 0014 9361     		str	r3, [r2, #24]
 110:Core/Src/usart.c **** 
 269              		.loc 1 110 5 view .LVU68
 270 0016 4FF4C061 		mov	r1, #1536
 271 001a 0548     		ldr	r0, .L17+8
 272              	.LVL13:
 110:Core/Src/usart.c **** 
 273              		.loc 1 110 5 is_stmt 0 view .LVU69
 274 001c FFF7FEFF 		bl	HAL_GPIO_DeInit
 275              	.LVL14:
 113:Core/Src/usart.c ****   /* USER CODE BEGIN USART1_MspDeInit 1 */
 276              		.loc 1 113 5 is_stmt 1 view .LVU70
 277 0020 2520     		movs	r0, #37
 278 0022 FFF7FEFF 		bl	HAL_NVIC_DisableIRQ
 279              	.LVL15:
 280              		.loc 1 118 1 is_stmt 0 view .LVU71
 281 0026 F0E7     		b	.L13
 282              	.L18:
 283              		.align	2
 284              	.L17:
 285 0028 00380140 		.word	1073821696
 286 002c 00100240 		.word	1073876992
 287 0030 00080140 		.word	1073809408
 288              		.cfi_endproc
 289              	.LFE70:
 291              		.section	.text.Usart_SendString,"ax",%progbits
 292              		.align	1
 293              		.global	Usart_SendString
 294              		.syntax unified
 295              		.thumb
 296              		.thumb_func
 298              	Usart_SendString:
 299              	.LVL16:
 300              	.LFB71:
 119:Core/Src/usart.c **** 
 120:Core/Src/usart.c **** /* USER CODE BEGIN 1 */
 121:Core/Src/usart.c **** void Usart_SendString(uint8_t *str)
 122:Core/Src/usart.c **** {
 301              		.loc 1 122 1 is_stmt 1 view -0
 302              		.cfi_startproc
 303              		@ args = 0, pretend = 0, frame = 0
 304              		@ frame_needed = 0, uses_anonymous_args = 0
 305              		.loc 1 122 1 is_stmt 0 view .LVU73
 306 0000 38B5     		push	{r3, r4, r5, lr}
 307              	.LCFI6:
ARM GAS  C:\Users\84759\AppData\Local\Temp\ccrYoL7n.s 			page 9


 308              		.cfi_def_cfa_offset 16
 309              		.cfi_offset 3, -16
 310              		.cfi_offset 4, -12
 311              		.cfi_offset 5, -8
 312              		.cfi_offset 14, -4
 313 0002 0546     		mov	r5, r0
 123:Core/Src/usart.c **** 	unsigned int k=0;
 314              		.loc 1 123 2 is_stmt 1 view .LVU74
 315              	.LVL17:
 316              		.loc 1 123 15 is_stmt 0 view .LVU75
 317 0004 0024     		movs	r4, #0
 318              	.LVL18:
 319              	.L20:
 124:Core/Src/usart.c ****   do 
 320              		.loc 1 124 3 is_stmt 1 discriminator 1 view .LVU76
 125:Core/Src/usart.c ****   {
 126:Core/Src/usart.c ****       HAL_UART_Transmit(&huart1,(uint8_t *)(str + k) ,1,1000);
 321              		.loc 1 126 7 discriminator 1 view .LVU77
 322 0006 4FF47A73 		mov	r3, #1000
 323 000a 0122     		movs	r2, #1
 324 000c 2919     		adds	r1, r5, r4
 325 000e 0448     		ldr	r0, .L22
 326 0010 FFF7FEFF 		bl	HAL_UART_Transmit
 327              	.LVL19:
 127:Core/Src/usart.c ****       k++;
 328              		.loc 1 127 7 discriminator 1 view .LVU78
 329              		.loc 1 127 8 is_stmt 0 discriminator 1 view .LVU79
 330 0014 0134     		adds	r4, r4, #1
 331              	.LVL20:
 128:Core/Src/usart.c ****   } while(*(str + k)!='\0');
 332              		.loc 1 128 10 is_stmt 1 discriminator 1 view .LVU80
 333              		.loc 1 128 11 is_stmt 0 discriminator 1 view .LVU81
 334 0016 2B5D     		ldrb	r3, [r5, r4]	@ zero_extendqisi2
 335              		.loc 1 128 3 discriminator 1 view .LVU82
 336 0018 002B     		cmp	r3, #0
 337 001a F4D1     		bne	.L20
 129:Core/Src/usart.c ****   
 130:Core/Src/usart.c **** }
 338              		.loc 1 130 1 view .LVU83
 339 001c 38BD     		pop	{r3, r4, r5, pc}
 340              	.LVL21:
 341              	.L23:
 342              		.loc 1 130 1 view .LVU84
 343 001e 00BF     		.align	2
 344              	.L22:
 345 0020 00000000 		.word	.LANCHOR0
 346              		.cfi_endproc
 347              	.LFE71:
 349              		.section	.text.fputc,"ax",%progbits
 350              		.align	1
 351              		.global	fputc
 352              		.syntax unified
 353              		.thumb
 354              		.thumb_func
 356              	fputc:
 357              	.LVL22:
 358              	.LFB72:
ARM GAS  C:\Users\84759\AppData\Local\Temp\ccrYoL7n.s 			page 10


 131:Core/Src/usart.c **** //ÖŰ¶šÏòcżâșŻÊęprintf”œŽźżÚDEBUG_USARTŁŹÖŰ¶šÏòșóżÉÊčÓĂprintfșŻÊę
 132:Core/Src/usart.c **** int fputc(int ch , FILE *f)
 133:Core/Src/usart.c **** {
 359              		.loc 1 133 1 is_stmt 1 view -0
 360              		.cfi_startproc
 361              		@ args = 0, pretend = 0, frame = 8
 362              		@ frame_needed = 0, uses_anonymous_args = 0
 363              		.loc 1 133 1 is_stmt 0 view .LVU86
 364 0000 00B5     		push	{lr}
 365              	.LCFI7:
 366              		.cfi_def_cfa_offset 4
 367              		.cfi_offset 14, -4
 368 0002 83B0     		sub	sp, sp, #12
 369              	.LCFI8:
 370              		.cfi_def_cfa_offset 16
 371 0004 0190     		str	r0, [sp, #4]
 134:Core/Src/usart.c **** 	/* ·ąËÍÒ»žöŚÖœÚÊęŸĘ”œŽźżÚDEBUG_USART */
 135:Core/Src/usart.c **** 	HAL_UART_Transmit(&huart1, (uint8_t *)&ch, 1, 1000);	
 372              		.loc 1 135 2 is_stmt 1 view .LVU87
 373 0006 4FF47A73 		mov	r3, #1000
 374 000a 0122     		movs	r2, #1
 375 000c 01A9     		add	r1, sp, #4
 376              	.LVL23:
 377              		.loc 1 135 2 is_stmt 0 view .LVU88
 378 000e 0348     		ldr	r0, .L26
 379              	.LVL24:
 380              		.loc 1 135 2 view .LVU89
 381 0010 FFF7FEFF 		bl	HAL_UART_Transmit
 382              	.LVL25:
 136:Core/Src/usart.c **** 	
 137:Core/Src/usart.c **** 	return (ch);
 383              		.loc 1 137 2 is_stmt 1 view .LVU90
 138:Core/Src/usart.c **** }
 384              		.loc 1 138 1 is_stmt 0 view .LVU91
 385 0014 0198     		ldr	r0, [sp, #4]
 386 0016 03B0     		add	sp, sp, #12
 387              	.LCFI9:
 388              		.cfi_def_cfa_offset 4
 389              		@ sp needed
 390 0018 5DF804FB 		ldr	pc, [sp], #4
 391              	.L27:
 392              		.align	2
 393              	.L26:
 394 001c 00000000 		.word	.LANCHOR0
 395              		.cfi_endproc
 396              	.LFE72:
 398              		.global	huart1
 399              		.section	.bss.huart1,"aw",%nobits
 400              		.align	2
 401              		.set	.LANCHOR0,. + 0
 404              	huart1:
 405 0000 00000000 		.space	72
 405      00000000 
 405      00000000 
 405      00000000 
 405      00000000 
 406              		.text
ARM GAS  C:\Users\84759\AppData\Local\Temp\ccrYoL7n.s 			page 11


 407              	.Letext0:
 408              		.file 2 "d:\\mingw\\gcc-arm-none-eabi-10.3-2021.10-win32\\gcc-arm-none-eabi-10.3-2021.10\\arm-none
 409              		.file 3 "d:\\mingw\\gcc-arm-none-eabi-10.3-2021.10-win32\\gcc-arm-none-eabi-10.3-2021.10\\arm-none
 410              		.file 4 "Drivers/CMSIS/Device/ST/STM32F1xx/Include/stm32f103xe.h"
 411              		.file 5 "Drivers/STM32F1xx_HAL_Driver/Inc/stm32f1xx_hal_def.h"
 412              		.file 6 "Drivers/STM32F1xx_HAL_Driver/Inc/stm32f1xx_hal_gpio.h"
 413              		.file 7 "Drivers/STM32F1xx_HAL_Driver/Inc/stm32f1xx_hal_dma.h"
 414              		.file 8 "Drivers/STM32F1xx_HAL_Driver/Inc/stm32f1xx_hal_uart.h"
 415              		.file 9 "d:\\mingw\\gcc-arm-none-eabi-10.3-2021.10-win32\\gcc-arm-none-eabi-10.3-2021.10\\lib\\gcc
 416              		.file 10 "d:\\mingw\\gcc-arm-none-eabi-10.3-2021.10-win32\\gcc-arm-none-eabi-10.3-2021.10\\arm-non
 417              		.file 11 "d:\\mingw\\gcc-arm-none-eabi-10.3-2021.10-win32\\gcc-arm-none-eabi-10.3-2021.10\\arm-non
 418              		.file 12 "d:\\mingw\\gcc-arm-none-eabi-10.3-2021.10-win32\\gcc-arm-none-eabi-10.3-2021.10\\arm-non
 419              		.file 13 "d:\\mingw\\gcc-arm-none-eabi-10.3-2021.10-win32\\gcc-arm-none-eabi-10.3-2021.10\\arm-non
 420              		.file 14 "Drivers/STM32F1xx_HAL_Driver/Inc/stm32f1xx_hal_cortex.h"
 421              		.file 15 "Core/Inc/main.h"
 422              		.file 16 "Core/Inc/usart.h"
ARM GAS  C:\Users\84759\AppData\Local\Temp\ccrYoL7n.s 			page 12

