ARM GAS  C:\Users\86158\AppData\Local\Temp\cckMY1rk.s 			page 1


   1              		.cpu cortex-m4
   2              		.arch armv7e-m
   3              		.fpu fpv4-sp-d16
   4              		.eabi_attribute 27, 1
   5              		.eabi_attribute 28, 1
   6              		.eabi_attribute 20, 1
   7              		.eabi_attribute 21, 1
   8              		.eabi_attribute 23, 3
   9              		.eabi_attribute 24, 1
  10              		.eabi_attribute 25, 1
  11              		.eabi_attribute 26, 1
  12              		.eabi_attribute 30, 1
  13              		.eabi_attribute 34, 1
  14              		.eabi_attribute 18, 4
  15              		.file	"calculate.c"
  16              		.text
  17              	.Ltext0:
  18              		.cfi_sections	.debug_frame
  19              		.global	__aeabi_f2d
  20              		.section	.rodata.calcul_read_data.str1.4,"aMS",%progbits,1
  21              		.align	2
  22              	.LC0:
  23 0000 74656D70 		.ascii	"temp:%.1f cap:%.2f\012\000"
  23      3A252E31 
  23      66206361 
  23      703A252E 
  23      32660A00 
  24              		.align	2
  25              	.LC1:
  26 0014 63686563 		.ascii	"check rtc 29\241\346 ADC %.1f error!\012\000"
  26      6B207274 
  26      63203239 
  26      A1E62041 
  26      44432025 
  27              		.align	2
  28              	.LC2:
  29 0034 63686563 		.ascii	"check rtc -40\241\346 ADC %.1f error!\012\000"
  29      6B207274 
  29      63202D34 
  29      30A1E620 
  29      41444320 
  30 0055 000000   		.align	2
  31              	.LC3:
  32 0058 63686563 		.ascii	"check rtc 85\241\346 ADC %.1f error!\012\000"
  32      6B207274 
  32      63203835 
  32      A1E62041 
  32      44432025 
  33              		.align	2
  34              	.LC4:
  35 0078 63686563 		.ascii	"check record cap error!\012\000"
  35      6B207265 
  35      636F7264 
  35      20636170 
  35      20657272 
  36              		.section	.text.calcul_read_data,"ax",%progbits
  37              		.align	1
ARM GAS  C:\Users\86158\AppData\Local\Temp\cckMY1rk.s 			page 2


  38              		.global	calcul_read_data
  39              		.syntax unified
  40              		.thumb
  41              		.thumb_func
  43              	calcul_read_data:
  44              	.LVL0:
  45              	.LFB235:
  46              		.file 1 "App/Src/calculate.c"
   1:App/Src/calculate.c **** #include "main.h"
   2:App/Src/calculate.c **** #include <math.h>
   3:App/Src/calculate.c **** #include "calculate.h"
   4:App/Src/calculate.c **** #include "flash.h"
   5:App/Src/calculate.c **** #include "rtc.h"
   6:App/Src/calculate.c **** #include <string.h>
   7:App/Src/calculate.c **** 
   8:App/Src/calculate.c **** #define TEST_NUMBER   5
   9:App/Src/calculate.c **** #define FIND_CENTER_TEMP_ERROR			30
  10:App/Src/calculate.c **** // #define OFFSET_NO_ROAST	-10
  11:App/Src/calculate.c **** typedef struct {
  12:App/Src/calculate.c **** 	float A;
  13:App/Src/calculate.c **** 	float B;
  14:App/Src/calculate.c **** 	float X0;
  15:App/Src/calculate.c **** 	float C;
  16:App/Src/calculate.c **** 	uint8_t mode;
  17:App/Src/calculate.c **** } Parameter;
  18:App/Src/calculate.c **** static float g_result[TEST_NUMBER] = {0};
  19:App/Src/calculate.c **** static float g_input[TEST_NUMBER] = {0};
  20:App/Src/calculate.c **** static Parameter g_left = {0}, g_right = {0};
  21:App/Src/calculate.c **** 	
  22:App/Src/calculate.c **** static TestResult g_testData = {0};
  23:App/Src/calculate.c **** float initTempExample[TEST_NUMBER] = {118.4, 178.4, 240.4, 310.8, 359.4};
  24:App/Src/calculate.c **** float initCapExample[TEST_NUMBER] = {457.15, 669.64, 753.63, 647.52, 432.57};
  25:App/Src/calculate.c **** uint8_t calcul_read_data(uint8_t rtcNum)
  26:App/Src/calculate.c **** {
  47              		.loc 1 26 1 view -0
  48              		.cfi_startproc
  49              		@ args = 0, pretend = 0, frame = 0
  50              		@ frame_needed = 0, uses_anonymous_args = 0
  27:App/Src/calculate.c **** 	uint8_t i;
  51              		.loc 1 27 2 view .LVU1
  28:App/Src/calculate.c **** 	if (rtcNum == 0 || rtcNum > MAX_CHIP_NUMBER) { return 0; }
  52              		.loc 1 28 2 view .LVU2
  53              		.loc 1 28 18 is_stmt 0 view .LVU3
  54 0000 431E     		subs	r3, r0, #1
  55 0002 DBB2     		uxtb	r3, r3
  56              		.loc 1 28 5 view .LVU4
  57 0004 632B     		cmp	r3, #99
  58 0006 01D9     		bls	.L27
  59              		.loc 1 28 56 view .LVU5
  60 0008 0020     		movs	r0, #0
  61              	.LVL1:
  29:App/Src/calculate.c **** 	flash_test_data_read(&g_testData, rtcNum, TEST_DOT_TEMP);
  30:App/Src/calculate.c **** 	flash_test_data_read(&g_testData, rtcNum, TEST_DOT_CAP);
  31:App/Src/calculate.c **** 	for (i = 0; i < TEST_NUMBER; i++) {
  32:App/Src/calculate.c **** 		g_input[i] = g_testData.testDotTemp[i];
  33:App/Src/calculate.c **** #ifdef OFFSET_NO_ROAST
  34:App/Src/calculate.c **** 		g_result[i] = g_testData.testDotCap[i] + OFFSET_NO_ROAST;
ARM GAS  C:\Users\86158\AppData\Local\Temp\cckMY1rk.s 			page 3


  35:App/Src/calculate.c **** #else
  36:App/Src/calculate.c **** 		g_result[i] = g_testData.testDotCap[i];
  37:App/Src/calculate.c **** #endif
  38:App/Src/calculate.c **** 		// g_input[i] = initTempExample[i];//便于测试板件烧写功能
  39:App/Src/calculate.c **** 		// g_result[i] = initCapExample[i];
  40:App/Src/calculate.c **** 		UsbPrintf("temp:%.1f cap:%.2f\n", g_input[i], g_result[i]);
  41:App/Src/calculate.c **** 	}
  42:App/Src/calculate.c **** #ifdef OFFSET_NO_ROAST
  43:App/Src/calculate.c **** 		UsbPrintf("not roast, offset is %.1fppm\n", OFFSET_NO_ROAST * (-0.4));
  44:App/Src/calculate.c **** #endif
  45:App/Src/calculate.c **** 	if (g_input[TEST_RTC_TEMP_Z29] < 200 || g_input[TEST_RTC_TEMP_Z29] > 270) {
  46:App/Src/calculate.c **** 		UsbPrintf("check rtc 29℃ ADC %.1f error!\n", g_input[TEST_RTC_TEMP_Z29]);
  47:App/Src/calculate.c **** 		log_printf("check rtc 29℃ ADC %.1f error!\n", g_input[TEST_RTC_TEMP_Z29]);
  48:App/Src/calculate.c **** 		return 0;
  49:App/Src/calculate.c **** 	}
  50:App/Src/calculate.c **** 	if ((g_input[TEST_RTC_TEMP_Z29] > g_input[TEST_RTC_TEMP_F40] + 146) || (g_input[TEST_RTC_TEMP_Z29]
  51:App/Src/calculate.c **** 		UsbPrintf("check rtc -40℃ ADC %.1f error!\n", g_input[TEST_RTC_TEMP_F40]);
  52:App/Src/calculate.c **** 		log_printf("check rtc -40℃ ADC %.1f error!\n", g_input[TEST_RTC_TEMP_F40]);
  53:App/Src/calculate.c **** 		return 0;
  54:App/Src/calculate.c **** 	}
  55:App/Src/calculate.c **** 	// if ((g_input[TEST_RTC_TEMP_Z29] > g_input[TEST_RTC_TEMP_F10] + 86) || (g_input[TEST_RTC_TEMP_Z2
  56:App/Src/calculate.c **** 	// 	UsbPrintf("check rtc -10℃ ADC %.1f error!\n", g_input[TEST_RTC_TEMP_F10]);
  57:App/Src/calculate.c **** 	// 	log_printf("check rtc -10℃ ADC %.1f error!\n", g_input[TEST_RTC_TEMP_F10]);
  58:App/Src/calculate.c **** 	// 	return 0;
  59:App/Src/calculate.c **** 	// }
  60:App/Src/calculate.c **** 	// if ((g_input[TEST_RTC_TEMP_Z60] > g_input[TEST_RTC_TEMP_Z29] + 86) || (g_input[TEST_RTC_TEMP_Z6
  61:App/Src/calculate.c **** 	// 	UsbPrintf("check rtc 60℃ ADC %.1f error!\n", g_input[TEST_RTC_TEMP_Z60]);
  62:App/Src/calculate.c **** 	// 	log_printf("check rtc 60℃ ADC %.1f error!\n", g_input[TEST_RTC_TEMP_Z60]);
  63:App/Src/calculate.c **** 	// 	return 0;
  64:App/Src/calculate.c **** 	// }
  65:App/Src/calculate.c **** 	if ((g_input[TEST_RTC_TEMP_Z85] > g_input[TEST_RTC_TEMP_Z29] + 136) || (g_input[TEST_RTC_TEMP_Z85]
  66:App/Src/calculate.c **** 		UsbPrintf("check rtc 85℃ ADC %.1f error!\n", g_input[TEST_RTC_TEMP_Z85]);
  67:App/Src/calculate.c **** 		log_printf("check rtc 85℃ ADC %.1f error!\n", g_input[TEST_RTC_TEMP_Z85]);
  68:App/Src/calculate.c **** 		return 0;
  69:App/Src/calculate.c **** 	}
  70:App/Src/calculate.c **** 
  71:App/Src/calculate.c **** 	for (i = 0; i < TEST_NUMBER; i++) {
  72:App/Src/calculate.c **** 		if (i == TEST_RTC_TEMP_F10 || i == TEST_RTC_TEMP_Z60) { continue; }
  73:App/Src/calculate.c **** 		if (g_result[i] >= SD8800_CAP_LIST_MAX || g_result[i] <= 170) {
  74:App/Src/calculate.c **** 		// if (g_result[i] >= SD8800_CAP_LIST_MAX || g_result[i] <= 180) {
  75:App/Src/calculate.c **** 			UsbPrintf("check record cap error!\n");
  76:App/Src/calculate.c **** 			log_printf("check record cap error!\n");
  77:App/Src/calculate.c **** 			return 0;
  78:App/Src/calculate.c **** 		}
  79:App/Src/calculate.c **** 	}
  80:App/Src/calculate.c **** 	return 1;
  81:App/Src/calculate.c **** }
  62              		.loc 1 81 1 view .LVU6
  63 000a 7047     		bx	lr
  64              	.LVL2:
  65              	.L27:
  26:App/Src/calculate.c **** 	uint8_t i;
  66              		.loc 1 26 1 view .LVU7
  67 000c F0B5     		push	{r4, r5, r6, r7, lr}
  68              	.LCFI0:
  69              		.cfi_def_cfa_offset 20
  70              		.cfi_offset 4, -20
ARM GAS  C:\Users\86158\AppData\Local\Temp\cckMY1rk.s 			page 4


  71              		.cfi_offset 5, -16
  72              		.cfi_offset 6, -12
  73              		.cfi_offset 7, -8
  74              		.cfi_offset 14, -4
  75 000e 83B0     		sub	sp, sp, #12
  76              	.LCFI1:
  77              		.cfi_def_cfa_offset 32
  78 0010 0446     		mov	r4, r0
  29:App/Src/calculate.c **** 	flash_test_data_read(&g_testData, rtcNum, TEST_DOT_TEMP);
  79              		.loc 1 29 2 is_stmt 1 view .LVU8
  80 0012 694D     		ldr	r5, .L29
  81 0014 0822     		movs	r2, #8
  82 0016 0146     		mov	r1, r0
  83 0018 2846     		mov	r0, r5
  84              	.LVL3:
  29:App/Src/calculate.c **** 	flash_test_data_read(&g_testData, rtcNum, TEST_DOT_TEMP);
  85              		.loc 1 29 2 is_stmt 0 view .LVU9
  86 001a FFF7FEFF 		bl	flash_test_data_read
  87              	.LVL4:
  30:App/Src/calculate.c **** 	for (i = 0; i < TEST_NUMBER; i++) {
  88              		.loc 1 30 2 is_stmt 1 view .LVU10
  89 001e 1C22     		movs	r2, #28
  90 0020 2146     		mov	r1, r4
  91 0022 2846     		mov	r0, r5
  92 0024 FFF7FEFF 		bl	flash_test_data_read
  93              	.LVL5:
  31:App/Src/calculate.c **** 		g_input[i] = g_testData.testDotTemp[i];
  94              		.loc 1 31 2 view .LVU11
  31:App/Src/calculate.c **** 		g_input[i] = g_testData.testDotTemp[i];
  95              		.loc 1 31 9 is_stmt 0 view .LVU12
  96 0028 0024     		movs	r4, #0
  31:App/Src/calculate.c **** 		g_input[i] = g_testData.testDotTemp[i];
  97              		.loc 1 31 2 view .LVU13
  98 002a 20E0     		b	.L3
  99              	.LVL6:
 100              	.L4:
  32:App/Src/calculate.c **** #ifdef OFFSET_NO_ROAST
 101              		.loc 1 32 3 is_stmt 1 discriminator 3 view .LVU14
  32:App/Src/calculate.c **** #ifdef OFFSET_NO_ROAST
 102              		.loc 1 32 38 is_stmt 0 discriminator 3 view .LVU15
 103 002c 624B     		ldr	r3, .L29
 104 002e A21C     		adds	r2, r4, #2
 105 0030 03EB8202 		add	r2, r3, r2, lsl #2
 106 0034 1068     		ldr	r0, [r2]	@ float
  32:App/Src/calculate.c **** #ifdef OFFSET_NO_ROAST
 107              		.loc 1 32 14 discriminator 3 view .LVU16
 108 0036 614A     		ldr	r2, .L29+4
 109 0038 02EB8402 		add	r2, r2, r4, lsl #2
 110 003c 1060     		str	r0, [r2]	@ float
  36:App/Src/calculate.c **** #endif
 111              		.loc 1 36 3 is_stmt 1 discriminator 3 view .LVU17
  36:App/Src/calculate.c **** #endif
 112              		.loc 1 36 38 is_stmt 0 discriminator 3 view .LVU18
 113 003e A21D     		adds	r2, r4, #6
 114 0040 03EB8203 		add	r3, r3, r2, lsl #2
 115 0044 5D68     		ldr	r5, [r3, #4]	@ float
  36:App/Src/calculate.c **** #endif
ARM GAS  C:\Users\86158\AppData\Local\Temp\cckMY1rk.s 			page 5


 116              		.loc 1 36 15 discriminator 3 view .LVU19
 117 0046 5E4B     		ldr	r3, .L29+8
 118 0048 03EB8403 		add	r3, r3, r4, lsl #2
 119 004c 1D60     		str	r5, [r3]	@ float
  40:App/Src/calculate.c **** 	}
 120              		.loc 1 40 3 is_stmt 1 discriminator 3 view .LVU20
 121 004e FFF7FEFF 		bl	__aeabi_f2d
 122              	.LVL7:
 123 0052 0646     		mov	r6, r0
 124 0054 0F46     		mov	r7, r1
 125 0056 2846     		mov	r0, r5	@ float
 126 0058 FFF7FEFF 		bl	__aeabi_f2d
 127              	.LVL8:
 128 005c CDE90001 		strd	r0, [sp]
 129 0060 3246     		mov	r2, r6
 130 0062 3B46     		mov	r3, r7
 131 0064 5748     		ldr	r0, .L29+12
 132 0066 FFF7FEFF 		bl	UsbPrintf
 133              	.LVL9:
  31:App/Src/calculate.c **** 		g_input[i] = g_testData.testDotTemp[i];
 134              		.loc 1 31 31 discriminator 3 view .LVU21
  31:App/Src/calculate.c **** 		g_input[i] = g_testData.testDotTemp[i];
 135              		.loc 1 31 32 is_stmt 0 discriminator 3 view .LVU22
 136 006a 0134     		adds	r4, r4, #1
 137              	.LVL10:
  31:App/Src/calculate.c **** 		g_input[i] = g_testData.testDotTemp[i];
 138              		.loc 1 31 32 discriminator 3 view .LVU23
 139 006c E4B2     		uxtb	r4, r4
 140              	.LVL11:
 141              	.L3:
  31:App/Src/calculate.c **** 		g_input[i] = g_testData.testDotTemp[i];
 142              		.loc 1 31 14 is_stmt 1 discriminator 1 view .LVU24
  31:App/Src/calculate.c **** 		g_input[i] = g_testData.testDotTemp[i];
 143              		.loc 1 31 2 is_stmt 0 discriminator 1 view .LVU25
 144 006e 042C     		cmp	r4, #4
 145 0070 DCD9     		bls	.L4
  45:App/Src/calculate.c **** 		UsbPrintf("check rtc 29℃ ADC %.1f error!\n", g_input[TEST_RTC_TEMP_Z29]);
 146              		.loc 1 45 2 is_stmt 1 view .LVU26
  45:App/Src/calculate.c **** 		UsbPrintf("check rtc 29℃ ADC %.1f error!\n", g_input[TEST_RTC_TEMP_Z29]);
 147              		.loc 1 45 13 is_stmt 0 view .LVU27
 148 0072 524B     		ldr	r3, .L29+4
 149 0074 D3ED027A 		vldr.32	s15, [r3, #8]
  45:App/Src/calculate.c **** 		UsbPrintf("check rtc 29℃ ADC %.1f error!\n", g_input[TEST_RTC_TEMP_Z29]);
 150              		.loc 1 45 5 view .LVU28
 151 0078 9FED537A 		vldr.32	s14, .L29+16
 152 007c F4EEC77A 		vcmpe.f32	s15, s14
 153 0080 F1EE10FA 		vmrs	APSR_nzcv, FPSCR
 154 0084 32D4     		bmi	.L5
  45:App/Src/calculate.c **** 		UsbPrintf("check rtc 29℃ ADC %.1f error!\n", g_input[TEST_RTC_TEMP_Z29]);
 155              		.loc 1 45 39 discriminator 1 view .LVU29
 156 0086 9FED517A 		vldr.32	s14, .L29+20
 157 008a F4EEC77A 		vcmpe.f32	s15, s14
 158 008e F1EE10FA 		vmrs	APSR_nzcv, FPSCR
 159 0092 2BDC     		bgt	.L5
  50:App/Src/calculate.c **** 		UsbPrintf("check rtc -40℃ ADC %.1f error!\n", g_input[TEST_RTC_TEMP_F40]);
 160              		.loc 1 50 2 is_stmt 1 view .LVU30
  50:App/Src/calculate.c **** 		UsbPrintf("check rtc -40℃ ADC %.1f error!\n", g_input[TEST_RTC_TEMP_F40]);
ARM GAS  C:\Users\86158\AppData\Local\Temp\cckMY1rk.s 			page 6


 161              		.loc 1 50 43 is_stmt 0 view .LVU31
 162 0094 494B     		ldr	r3, .L29+4
 163 0096 D3ED006A 		vldr.32	s13, [r3]
  50:App/Src/calculate.c **** 		UsbPrintf("check rtc -40℃ ADC %.1f error!\n", g_input[TEST_RTC_TEMP_F40]);
 164              		.loc 1 50 63 view .LVU32
 165 009a 9FED4D7A 		vldr.32	s14, .L29+24
 166 009e 36EE877A 		vadd.f32	s14, s13, s14
  50:App/Src/calculate.c **** 		UsbPrintf("check rtc -40℃ ADC %.1f error!\n", g_input[TEST_RTC_TEMP_F40]);
 167              		.loc 1 50 5 view .LVU33
 168 00a2 F4EEC77A 		vcmpe.f32	s15, s14
 169 00a6 F1EE10FA 		vmrs	APSR_nzcv, FPSCR
 170 00aa 35DC     		bgt	.L8
  50:App/Src/calculate.c **** 		UsbPrintf("check rtc -40℃ ADC %.1f error!\n", g_input[TEST_RTC_TEMP_F40]);
 171              		.loc 1 50 130 discriminator 1 view .LVU34
 172 00ac 9FED497A 		vldr.32	s14, .L29+28
 173 00b0 36EE877A 		vadd.f32	s14, s13, s14
  50:App/Src/calculate.c **** 		UsbPrintf("check rtc -40℃ ADC %.1f error!\n", g_input[TEST_RTC_TEMP_F40]);
 174              		.loc 1 50 70 discriminator 1 view .LVU35
 175 00b4 F4EEC77A 		vcmpe.f32	s15, s14
 176 00b8 F1EE10FA 		vmrs	APSR_nzcv, FPSCR
 177 00bc 2CD4     		bmi	.L8
  65:App/Src/calculate.c **** 		UsbPrintf("check rtc 85℃ ADC %.1f error!\n", g_input[TEST_RTC_TEMP_Z85]);
 178              		.loc 1 65 2 is_stmt 1 view .LVU36
  65:App/Src/calculate.c **** 		UsbPrintf("check rtc 85℃ ADC %.1f error!\n", g_input[TEST_RTC_TEMP_Z85]);
 179              		.loc 1 65 14 is_stmt 0 view .LVU37
 180 00be 3F4B     		ldr	r3, .L29+4
 181 00c0 D3ED046A 		vldr.32	s13, [r3, #16]
  65:App/Src/calculate.c **** 		UsbPrintf("check rtc 85℃ ADC %.1f error!\n", g_input[TEST_RTC_TEMP_Z85]);
 182              		.loc 1 65 63 view .LVU38
 183 00c4 9FED447A 		vldr.32	s14, .L29+32
 184 00c8 37EE877A 		vadd.f32	s14, s15, s14
  65:App/Src/calculate.c **** 		UsbPrintf("check rtc 85℃ ADC %.1f error!\n", g_input[TEST_RTC_TEMP_Z85]);
 185              		.loc 1 65 5 view .LVU39
 186 00cc F4EEC76A 		vcmpe.f32	s13, s14
 187 00d0 F1EE10FA 		vmrs	APSR_nzcv, FPSCR
 188 00d4 35DC     		bgt	.L11
  65:App/Src/calculate.c **** 		UsbPrintf("check rtc 85℃ ADC %.1f error!\n", g_input[TEST_RTC_TEMP_Z85]);
 189              		.loc 1 65 130 discriminator 1 view .LVU40
 190 00d6 9FED417A 		vldr.32	s14, .L29+36
 191 00da 77EE877A 		vadd.f32	s15, s15, s14
  65:App/Src/calculate.c **** 		UsbPrintf("check rtc 85℃ ADC %.1f error!\n", g_input[TEST_RTC_TEMP_Z85]);
 192              		.loc 1 65 70 discriminator 1 view .LVU41
 193 00de F4EEE76A 		vcmpe.f32	s13, s15
 194 00e2 F1EE10FA 		vmrs	APSR_nzcv, FPSCR
 195 00e6 2CD4     		bmi	.L11
  71:App/Src/calculate.c **** 		if (i == TEST_RTC_TEMP_F10 || i == TEST_RTC_TEMP_Z60) { continue; }
 196              		.loc 1 71 9 view .LVU42
 197 00e8 0023     		movs	r3, #0
 198 00ea 41E0     		b	.L12
 199              	.L5:
  46:App/Src/calculate.c **** 		log_printf("check rtc 29℃ ADC %.1f error!\n", g_input[TEST_RTC_TEMP_Z29]);
 200              		.loc 1 46 3 is_stmt 1 view .LVU43
 201 00ec 17EE900A 		vmov	r0, s15
 202 00f0 FFF7FEFF 		bl	__aeabi_f2d
 203              	.LVL12:
 204 00f4 0246     		mov	r2, r0
 205 00f6 0B46     		mov	r3, r1
ARM GAS  C:\Users\86158\AppData\Local\Temp\cckMY1rk.s 			page 7


 206 00f8 394C     		ldr	r4, .L29+40
 207              	.LVL13:
  46:App/Src/calculate.c **** 		log_printf("check rtc 29℃ ADC %.1f error!\n", g_input[TEST_RTC_TEMP_Z29]);
 208              		.loc 1 46 3 is_stmt 0 view .LVU44
 209 00fa 2046     		mov	r0, r4
 210 00fc FFF7FEFF 		bl	UsbPrintf
 211              	.LVL14:
  47:App/Src/calculate.c **** 		return 0;
 212              		.loc 1 47 3 is_stmt 1 view .LVU45
 213 0100 2E4B     		ldr	r3, .L29+4
 214 0102 9868     		ldr	r0, [r3, #8]	@ float
 215 0104 FFF7FEFF 		bl	__aeabi_f2d
 216              	.LVL15:
 217 0108 0246     		mov	r2, r0
 218 010a 0B46     		mov	r3, r1
 219 010c 2046     		mov	r0, r4
 220 010e FFF7FEFF 		bl	log_printf
 221              	.LVL16:
  48:App/Src/calculate.c **** 	}
 222              		.loc 1 48 3 view .LVU46
  48:App/Src/calculate.c **** 	}
 223              		.loc 1 48 10 is_stmt 0 view .LVU47
 224 0112 0020     		movs	r0, #0
 225              	.L2:
 226              		.loc 1 81 1 view .LVU48
 227 0114 03B0     		add	sp, sp, #12
 228              	.LCFI2:
 229              		.cfi_remember_state
 230              		.cfi_def_cfa_offset 20
 231              		@ sp needed
 232 0116 F0BD     		pop	{r4, r5, r6, r7, pc}
 233              	.LVL17:
 234              	.L8:
 235              	.LCFI3:
 236              		.cfi_restore_state
  51:App/Src/calculate.c **** 		log_printf("check rtc -40℃ ADC %.1f error!\n", g_input[TEST_RTC_TEMP_F40]);
 237              		.loc 1 51 3 is_stmt 1 view .LVU49
 238 0118 16EE900A 		vmov	r0, s13
 239 011c FFF7FEFF 		bl	__aeabi_f2d
 240              	.LVL18:
 241 0120 0246     		mov	r2, r0
 242 0122 0B46     		mov	r3, r1
 243 0124 2F4C     		ldr	r4, .L29+44
 244              	.LVL19:
  51:App/Src/calculate.c **** 		log_printf("check rtc -40℃ ADC %.1f error!\n", g_input[TEST_RTC_TEMP_F40]);
 245              		.loc 1 51 3 is_stmt 0 view .LVU50
 246 0126 2046     		mov	r0, r4
 247 0128 FFF7FEFF 		bl	UsbPrintf
 248              	.LVL20:
  52:App/Src/calculate.c **** 		return 0;
 249              		.loc 1 52 3 is_stmt 1 view .LVU51
 250 012c 234B     		ldr	r3, .L29+4
 251 012e 1868     		ldr	r0, [r3]	@ float
 252 0130 FFF7FEFF 		bl	__aeabi_f2d
 253              	.LVL21:
 254 0134 0246     		mov	r2, r0
 255 0136 0B46     		mov	r3, r1
ARM GAS  C:\Users\86158\AppData\Local\Temp\cckMY1rk.s 			page 8


 256 0138 2046     		mov	r0, r4
 257 013a FFF7FEFF 		bl	log_printf
 258              	.LVL22:
  53:App/Src/calculate.c **** 	}
 259              		.loc 1 53 3 view .LVU52
  53:App/Src/calculate.c **** 	}
 260              		.loc 1 53 10 is_stmt 0 view .LVU53
 261 013e 0020     		movs	r0, #0
 262 0140 E8E7     		b	.L2
 263              	.LVL23:
 264              	.L11:
  66:App/Src/calculate.c **** 		log_printf("check rtc 85℃ ADC %.1f error!\n", g_input[TEST_RTC_TEMP_Z85]);
 265              		.loc 1 66 3 is_stmt 1 view .LVU54
 266 0142 16EE900A 		vmov	r0, s13
 267 0146 FFF7FEFF 		bl	__aeabi_f2d
 268              	.LVL24:
 269 014a 0246     		mov	r2, r0
 270 014c 0B46     		mov	r3, r1
 271 014e 264C     		ldr	r4, .L29+48
 272              	.LVL25:
  66:App/Src/calculate.c **** 		log_printf("check rtc 85℃ ADC %.1f error!\n", g_input[TEST_RTC_TEMP_Z85]);
 273              		.loc 1 66 3 is_stmt 0 view .LVU55
 274 0150 2046     		mov	r0, r4
 275 0152 FFF7FEFF 		bl	UsbPrintf
 276              	.LVL26:
  67:App/Src/calculate.c **** 		return 0;
 277              		.loc 1 67 3 is_stmt 1 view .LVU56
 278 0156 194B     		ldr	r3, .L29+4
 279 0158 1869     		ldr	r0, [r3, #16]	@ float
 280 015a FFF7FEFF 		bl	__aeabi_f2d
 281              	.LVL27:
 282 015e 0246     		mov	r2, r0
 283 0160 0B46     		mov	r3, r1
 284 0162 2046     		mov	r0, r4
 285 0164 FFF7FEFF 		bl	log_printf
 286              	.LVL28:
  68:App/Src/calculate.c **** 	}
 287              		.loc 1 68 3 view .LVU57
  68:App/Src/calculate.c **** 	}
 288              		.loc 1 68 10 is_stmt 0 view .LVU58
 289 0168 0020     		movs	r0, #0
 290 016a D3E7     		b	.L2
 291              	.LVL29:
 292              	.L14:
  71:App/Src/calculate.c **** 		if (i == TEST_RTC_TEMP_F10 || i == TEST_RTC_TEMP_Z60) { continue; }
 293              		.loc 1 71 31 is_stmt 1 discriminator 2 view .LVU59
  71:App/Src/calculate.c **** 		if (i == TEST_RTC_TEMP_F10 || i == TEST_RTC_TEMP_Z60) { continue; }
 294              		.loc 1 71 32 is_stmt 0 discriminator 2 view .LVU60
 295 016c 0133     		adds	r3, r3, #1
 296              	.LVL30:
  71:App/Src/calculate.c **** 		if (i == TEST_RTC_TEMP_F10 || i == TEST_RTC_TEMP_Z60) { continue; }
 297              		.loc 1 71 32 discriminator 2 view .LVU61
 298 016e DBB2     		uxtb	r3, r3
 299              	.LVL31:
 300              	.L12:
  71:App/Src/calculate.c **** 		if (i == TEST_RTC_TEMP_F10 || i == TEST_RTC_TEMP_Z60) { continue; }
 301              		.loc 1 71 14 is_stmt 1 discriminator 1 view .LVU62
ARM GAS  C:\Users\86158\AppData\Local\Temp\cckMY1rk.s 			page 9


  71:App/Src/calculate.c **** 		if (i == TEST_RTC_TEMP_F10 || i == TEST_RTC_TEMP_Z60) { continue; }
 302              		.loc 1 71 2 is_stmt 0 discriminator 1 view .LVU63
 303 0170 042B     		cmp	r3, #4
 304 0172 1FD8     		bhi	.L28
  72:App/Src/calculate.c **** 		if (g_result[i] >= SD8800_CAP_LIST_MAX || g_result[i] <= 170) {
 305              		.loc 1 72 3 is_stmt 1 view .LVU64
  72:App/Src/calculate.c **** 		if (g_result[i] >= SD8800_CAP_LIST_MAX || g_result[i] <= 170) {
 306              		.loc 1 72 6 is_stmt 0 view .LVU65
 307 0174 012B     		cmp	r3, #1
 308 0176 F9D0     		beq	.L14
  72:App/Src/calculate.c **** 		if (g_result[i] >= SD8800_CAP_LIST_MAX || g_result[i] <= 170) {
 309              		.loc 1 72 30 discriminator 2 view .LVU66
 310 0178 032B     		cmp	r3, #3
 311 017a F7D0     		beq	.L14
  73:App/Src/calculate.c **** 		// if (g_result[i] >= SD8800_CAP_LIST_MAX || g_result[i] <= 180) {
 312              		.loc 1 73 3 is_stmt 1 view .LVU67
  73:App/Src/calculate.c **** 		// if (g_result[i] >= SD8800_CAP_LIST_MAX || g_result[i] <= 180) {
 313              		.loc 1 73 15 is_stmt 0 view .LVU68
 314 017c 104A     		ldr	r2, .L29+8
 315 017e 02EB8302 		add	r2, r2, r3, lsl #2
 316 0182 D2ED007A 		vldr.32	s15, [r2]
  73:App/Src/calculate.c **** 		// if (g_result[i] >= SD8800_CAP_LIST_MAX || g_result[i] <= 180) {
 317              		.loc 1 73 6 view .LVU69
 318 0186 9FED197A 		vldr.32	s14, .L29+52
 319 018a F4EEC77A 		vcmpe.f32	s15, s14
 320 018e F1EE10FA 		vmrs	APSR_nzcv, FPSCR
 321 0192 06DA     		bge	.L15
  73:App/Src/calculate.c **** 		// if (g_result[i] >= SD8800_CAP_LIST_MAX || g_result[i] <= 180) {
 322              		.loc 1 73 42 discriminator 1 view .LVU70
 323 0194 9FED167A 		vldr.32	s14, .L29+56
 324 0198 F4EEC77A 		vcmpe.f32	s15, s14
 325 019c F1EE10FA 		vmrs	APSR_nzcv, FPSCR
 326 01a0 E4D8     		bhi	.L14
 327              	.L15:
  75:App/Src/calculate.c **** 			log_printf("check record cap error!\n");
 328              		.loc 1 75 4 is_stmt 1 view .LVU71
 329 01a2 144C     		ldr	r4, .L29+60
 330 01a4 2046     		mov	r0, r4
 331 01a6 FFF7FEFF 		bl	UsbPrintf
 332              	.LVL32:
  76:App/Src/calculate.c **** 			return 0;
 333              		.loc 1 76 4 view .LVU72
 334 01aa 2046     		mov	r0, r4
 335 01ac FFF7FEFF 		bl	log_printf
 336              	.LVL33:
  77:App/Src/calculate.c **** 		}
 337              		.loc 1 77 4 view .LVU73
  77:App/Src/calculate.c **** 		}
 338              		.loc 1 77 11 is_stmt 0 view .LVU74
 339 01b0 0020     		movs	r0, #0
 340 01b2 AFE7     		b	.L2
 341              	.LVL34:
 342              	.L28:
  80:App/Src/calculate.c **** }
 343              		.loc 1 80 9 view .LVU75
 344 01b4 0120     		movs	r0, #1
 345 01b6 ADE7     		b	.L2
ARM GAS  C:\Users\86158\AppData\Local\Temp\cckMY1rk.s 			page 10


 346              	.L30:
 347              		.align	2
 348              	.L29:
 349 01b8 00000000 		.word	.LANCHOR0
 350 01bc 00000000 		.word	.LANCHOR1
 351 01c0 00000000 		.word	.LANCHOR2
 352 01c4 00000000 		.word	.LC0
 353 01c8 00004843 		.word	1128792064
 354 01cc 00008743 		.word	1132920832
 355 01d0 00001243 		.word	1125253120
 356 01d4 0000E442 		.word	1122238464
 357 01d8 00000843 		.word	1124597760
 358 01dc 0000D042 		.word	1120927744
 359 01e0 14000000 		.word	.LC1
 360 01e4 34000000 		.word	.LC2
 361 01e8 58000000 		.word	.LC3
 362 01ec 00004B44 		.word	1145765888
 363 01f0 00002A43 		.word	1126825984
 364 01f4 78000000 		.word	.LC4
 365              		.cfi_endproc
 366              	.LFE235:
 368              		.section	.rodata.find_crystal_center.str1.4,"aMS",%progbits,1
 369              		.align	2
 370              	.LC5:
 371 0000 74656D70 		.ascii	"temp:%.1f, ppm:%.1f\012\000"
 371      3A252E31 
 371      662C2070 
 371      706D3A25 
 371      2E31660A 
 372 0015 000000   		.align	2
 373              	.LC6:
 374 0018 63686563 		.ascii	"check find center ppm error\012\000"
 374      6B206669 
 374      6E642063 
 374      656E7465 
 374      72207070 
 375              		.global	__aeabi_d2f
 376 0035 000000   		.align	2
 377              	.LC7:
 378 0038 63686563 		.ascii	"check find center[%.1f] ppm error\012\000"
 378      6B206669 
 378      6E642063 
 378      656E7465 
 378      725B252E 
 379              		.global	__aeabi_dmul
 380              		.global	__aeabi_dadd
 381 005b 00       		.align	2
 382              	.LC8:
 383 005c 63656E74 		.ascii	"center:%.2f\012\000"
 383      65723A25 
 383      2E32660A 
 383      00
 384              		.section	.text.find_crystal_center,"ax",%progbits
 385              		.align	1
 386              		.global	find_crystal_center
 387              		.syntax unified
 388              		.thumb
ARM GAS  C:\Users\86158\AppData\Local\Temp\cckMY1rk.s 			page 11


 389              		.thumb_func
 391              	find_crystal_center:
 392              	.LVL35:
 393              	.LFB236:
  82:App/Src/calculate.c **** 
  83:App/Src/calculate.c **** uint8_t find_crystal_center(uint8_t rtcNum)
  84:App/Src/calculate.c **** {
 394              		.loc 1 84 1 is_stmt 1 view -0
 395              		.cfi_startproc
 396              		@ args = 0, pretend = 0, frame = 8
 397              		@ frame_needed = 0, uses_anonymous_args = 0
 398              		.loc 1 84 1 is_stmt 0 view .LVU77
 399 0000 F0B5     		push	{r4, r5, r6, r7, lr}
 400              	.LCFI4:
 401              		.cfi_def_cfa_offset 20
 402              		.cfi_offset 4, -20
 403              		.cfi_offset 5, -16
 404              		.cfi_offset 6, -12
 405              		.cfi_offset 7, -8
 406              		.cfi_offset 14, -4
 407 0002 2DED028B 		vpush.64	{d8}
 408              	.LCFI5:
 409              		.cfi_def_cfa_offset 28
 410              		.cfi_offset 80, -28
 411              		.cfi_offset 81, -24
 412 0006 85B0     		sub	sp, sp, #20
 413              	.LCFI6:
 414              		.cfi_def_cfa_offset 48
 415 0008 0146     		mov	r1, r0
  85:App/Src/calculate.c **** 	float ppm[2] = {0};
 416              		.loc 1 85 2 is_stmt 1 view .LVU78
 417              		.loc 1 85 8 is_stmt 0 view .LVU79
 418 000a 0023     		movs	r3, #0
 419 000c 0293     		str	r3, [sp, #8]
 420 000e 0393     		str	r3, [sp, #12]
  86:App/Src/calculate.c **** 	float center = 0;
 421              		.loc 1 86 2 is_stmt 1 view .LVU80
 422              	.LVL36:
  87:App/Src/calculate.c **** 	float quick;
 423              		.loc 1 87 2 view .LVU81
  88:App/Src/calculate.c **** 	flash_test_data_read(&g_testData, rtcNum, TEST_CENTER);
 424              		.loc 1 88 2 view .LVU82
 425 0010 534C     		ldr	r4, .L43+8
 426 0012 3A22     		movs	r2, #58
 427 0014 2046     		mov	r0, r4
 428              	.LVL37:
 429              		.loc 1 88 2 is_stmt 0 view .LVU83
 430 0016 FFF7FEFF 		bl	flash_test_data_read
 431              	.LVL38:
  89:App/Src/calculate.c **** 	ppm[0] = g_testData.testCenter[0];
 432              		.loc 1 89 2 is_stmt 1 view .LVU84
 433              		.loc 1 89 32 is_stmt 0 view .LVU85
 434 001a D4ED0F8A 		vldr.32	s17, [r4, #60]
 435              		.loc 1 89 9 view .LVU86
 436 001e CDED028A 		vstr.32	s17, [sp, #8]
  90:App/Src/calculate.c **** 	ppm[1] = g_testData.testCenter[1];
 437              		.loc 1 90 2 is_stmt 1 view .LVU87
ARM GAS  C:\Users\86158\AppData\Local\Temp\cckMY1rk.s 			page 12


 438              		.loc 1 90 32 is_stmt 0 view .LVU88
 439 0022 94ED108A 		vldr.32	s16, [r4, #64]
 440              		.loc 1 90 9 view .LVU89
 441 0026 8DED038A 		vstr.32	s16, [sp, #12]
  91:App/Src/calculate.c **** 	UsbPrintf("temp:%.1f, ppm:%.1f\n", g_input[TEST_RTC_TEMP_F10], ppm[0]);
 442              		.loc 1 91 2 is_stmt 1 view .LVU90
 443              		.loc 1 91 44 is_stmt 0 view .LVU91
 444 002a 4E4F     		ldr	r7, .L43+12
 445              		.loc 1 91 2 view .LVU92
 446 002c 7868     		ldr	r0, [r7, #4]	@ float
 447 002e FFF7FEFF 		bl	__aeabi_f2d
 448              	.LVL39:
 449 0032 0446     		mov	r4, r0
 450 0034 0D46     		mov	r5, r1
 451 0036 4C4E     		ldr	r6, .L43+16
 452 0038 18EE900A 		vmov	r0, s17
 453 003c FFF7FEFF 		bl	__aeabi_f2d
 454              	.LVL40:
 455 0040 CDE90001 		strd	r0, [sp]
 456 0044 2246     		mov	r2, r4
 457 0046 2B46     		mov	r3, r5
 458 0048 3046     		mov	r0, r6
 459 004a FFF7FEFF 		bl	UsbPrintf
 460              	.LVL41:
  92:App/Src/calculate.c **** 	UsbPrintf("temp:%.1f, ppm:%.1f\n", g_input[TEST_RTC_TEMP_Z60], ppm[1]);
 461              		.loc 1 92 2 is_stmt 1 view .LVU93
 462 004e F868     		ldr	r0, [r7, #12]	@ float
 463 0050 FFF7FEFF 		bl	__aeabi_f2d
 464              	.LVL42:
 465 0054 0446     		mov	r4, r0
 466 0056 0D46     		mov	r5, r1
 467 0058 18EE100A 		vmov	r0, s16
 468 005c FFF7FEFF 		bl	__aeabi_f2d
 469              	.LVL43:
 470 0060 CDE90001 		strd	r0, [sp]
 471 0064 2246     		mov	r2, r4
 472 0066 2B46     		mov	r3, r5
 473 0068 3046     		mov	r0, r6
 474 006a FFF7FEFF 		bl	UsbPrintf
 475              	.LVL44:
  93:App/Src/calculate.c **** 	quick = ppm[0] / ppm[1];
 476              		.loc 1 93 2 view .LVU94
 477              		.loc 1 93 8 is_stmt 0 view .LVU95
 478 006e C8EE887A 		vdiv.f32	s15, s17, s16
 479              	.LVL45:
  94:App/Src/calculate.c **** 	if (quick <= 0 ) {
 480              		.loc 1 94 2 is_stmt 1 view .LVU96
 481              		.loc 1 94 5 is_stmt 0 view .LVU97
 482 0072 F5EEC07A 		vcmpe.f32	s15, #0
 483 0076 F1EE10FA 		vmrs	APSR_nzcv, FPSCR
 484 007a 3ED9     		bls	.L42
  95:App/Src/calculate.c **** 		UsbPrintf("check find center ppm error\n");
  96:App/Src/calculate.c **** 		return 0;
  97:App/Src/calculate.c **** 	}
  98:App/Src/calculate.c **** 	quick = sqrt(quick);
 485              		.loc 1 98 2 is_stmt 1 view .LVU98
 486              		.loc 1 98 10 is_stmt 0 view .LVU99
ARM GAS  C:\Users\86158\AppData\Local\Temp\cckMY1rk.s 			page 13


 487 007c 17EE900A 		vmov	r0, s15
 488 0080 FFF7FEFF 		bl	__aeabi_f2d
 489              	.LVL46:
 490              		.loc 1 98 10 view .LVU100
 491 0084 41EC100B 		vmov	d0, r0, r1
 492 0088 FFF7FEFF 		bl	sqrt
 493              	.LVL47:
 494 008c 51EC100B 		vmov	r0, r1, d0
 495              		.loc 1 98 8 view .LVU101
 496 0090 FFF7FEFF 		bl	__aeabi_d2f
 497              	.LVL48:
 498 0094 07EE900A 		vmov	s15, r0
 499              	.LVL49:
  99:App/Src/calculate.c **** 	center = (g_input[TEST_RTC_TEMP_F10] + quick * g_input[TEST_RTC_TEMP_Z60]) / (1 + quick);
 500              		.loc 1 99 2 is_stmt 1 view .LVU102
 501              		.loc 1 99 19 is_stmt 0 view .LVU103
 502 0098 324B     		ldr	r3, .L43+12
 503 009a 93ED017A 		vldr.32	s14, [r3, #4]
 504              		.loc 1 99 56 view .LVU104
 505 009e D3ED036A 		vldr.32	s13, [r3, #12]
 506              		.loc 1 99 47 view .LVU105
 507 00a2 66EEA76A 		vmul.f32	s13, s13, s15
 508              		.loc 1 99 39 view .LVU106
 509 00a6 37EE267A 		vadd.f32	s14, s14, s13
 510              		.loc 1 99 82 view .LVU107
 511 00aa F7EE006A 		vmov.f32	s13, #1.0e+0
 512 00ae 77EEA67A 		vadd.f32	s15, s15, s13
 513              		.loc 1 99 9 view .LVU108
 514 00b2 87EE278A 		vdiv.f32	s16, s14, s15
 515              	.LVL50:
 100:App/Src/calculate.c **** 	if ((center < g_input[TEST_RTC_TEMP_Z29] - FIND_CENTER_TEMP_ERROR) || (center > g_input[TEST_RTC_T
 516              		.loc 1 100 2 is_stmt 1 view .LVU109
 517              		.loc 1 100 23 is_stmt 0 view .LVU110
 518 00b6 D3ED028A 		vldr.32	s17, [r3, #8]
 519              		.loc 1 100 43 view .LVU111
 520 00ba F3EE0E7A 		vmov.f32	s15, #3.0e+1
 521 00be 78EEE77A 		vsub.f32	s15, s17, s15
 522              		.loc 1 100 5 view .LVU112
 523 00c2 F4EEC87A 		vcmpe.f32	s15, s16
 524 00c6 F1EE10FA 		vmrs	APSR_nzcv, FPSCR
 525 00ca 08DC     		bgt	.L35
 526              		.loc 1 100 109 discriminator 1 view .LVU113
 527 00cc F3EE0E7A 		vmov.f32	s15, #3.0e+1
 528 00d0 78EEA77A 		vadd.f32	s15, s17, s15
 529              		.loc 1 100 69 discriminator 1 view .LVU114
 530 00d4 F4EEC87A 		vcmpe.f32	s15, s16
 531 00d8 F1EE10FA 		vmrs	APSR_nzcv, FPSCR
 532 00dc 12D5     		bpl	.L40
 533              	.L35:
 101:App/Src/calculate.c **** 		UsbPrintf("check find center[%.1f] ppm error\n", center);
 534              		.loc 1 101 3 is_stmt 1 view .LVU115
 535 00de 18EE100A 		vmov	r0, s16
 536              	.LVL51:
 537              		.loc 1 101 3 is_stmt 0 view .LVU116
 538 00e2 FFF7FEFF 		bl	__aeabi_f2d
 539              	.LVL52:
 540 00e6 0246     		mov	r2, r0
ARM GAS  C:\Users\86158\AppData\Local\Temp\cckMY1rk.s 			page 14


 541 00e8 0B46     		mov	r3, r1
 542 00ea 2048     		ldr	r0, .L43+20
 543 00ec FFF7FEFF 		bl	UsbPrintf
 544              	.LVL53:
 102:App/Src/calculate.c **** 		return 0;
 545              		.loc 1 102 3 is_stmt 1 view .LVU117
 546              		.loc 1 102 10 is_stmt 0 view .LVU118
 547 00f0 0020     		movs	r0, #0
 548              	.LVL54:
 549              	.L34:
 103:App/Src/calculate.c **** 	}
 104:App/Src/calculate.c **** 	g_result[TEST_RTC_TEMP_Z29] = g_result[TEST_RTC_TEMP_Z29] + (center - g_input[TEST_RTC_TEMP_Z29]) 
 105:App/Src/calculate.c **** 	UsbPrintf("center:%.2f\n", center);
 106:App/Src/calculate.c **** 	g_input[TEST_RTC_TEMP_Z29] = center;
 107:App/Src/calculate.c **** 	return 1;
 108:App/Src/calculate.c **** }
 550              		.loc 1 108 1 view .LVU119
 551 00f2 05B0     		add	sp, sp, #20
 552              	.LCFI7:
 553              		.cfi_remember_state
 554              		.cfi_def_cfa_offset 28
 555              		@ sp needed
 556 00f4 BDEC028B 		vldm	sp!, {d8}
 557              	.LCFI8:
 558              		.cfi_restore 80
 559              		.cfi_restore 81
 560              		.cfi_def_cfa_offset 20
 561 00f8 F0BD     		pop	{r4, r5, r6, r7, pc}
 562              	.LVL55:
 563              	.L42:
 564              	.LCFI9:
 565              		.cfi_restore_state
  95:App/Src/calculate.c **** 		return 0;
 566              		.loc 1 95 3 is_stmt 1 view .LVU120
 567 00fa 1D48     		ldr	r0, .L43+24
 568 00fc FFF7FEFF 		bl	UsbPrintf
 569              	.LVL56:
  96:App/Src/calculate.c **** 	}
 570              		.loc 1 96 3 view .LVU121
  96:App/Src/calculate.c **** 	}
 571              		.loc 1 96 10 is_stmt 0 view .LVU122
 572 0100 0020     		movs	r0, #0
 573 0102 F6E7     		b	.L34
 574              	.LVL57:
 575              	.L40:
 104:App/Src/calculate.c **** 	UsbPrintf("center:%.2f\n", center);
 576              		.loc 1 104 2 is_stmt 1 view .LVU123
 104:App/Src/calculate.c **** 	UsbPrintf("center:%.2f\n", center);
 577              		.loc 1 104 40 is_stmt 0 view .LVU124
 578 0104 1B4E     		ldr	r6, .L43+28
 579 0106 B068     		ldr	r0, [r6, #8]	@ float
 580              	.LVL58:
 104:App/Src/calculate.c **** 	UsbPrintf("center:%.2f\n", center);
 581              		.loc 1 104 40 view .LVU125
 582 0108 FFF7FEFF 		bl	__aeabi_f2d
 583              	.LVL59:
 584 010c 0446     		mov	r4, r0
ARM GAS  C:\Users\86158\AppData\Local\Temp\cckMY1rk.s 			page 15


 585 010e 0D46     		mov	r5, r1
 104:App/Src/calculate.c **** 	UsbPrintf("center:%.2f\n", center);
 586              		.loc 1 104 70 view .LVU126
 587 0110 78EE688A 		vsub.f32	s17, s16, s17
 104:App/Src/calculate.c **** 	UsbPrintf("center:%.2f\n", center);
 588              		.loc 1 104 100 view .LVU127
 589 0114 68EEA87A 		vmul.f32	s15, s17, s17
 590 0118 17EE900A 		vmov	r0, s15
 591 011c FFF7FEFF 		bl	__aeabi_f2d
 592              	.LVL60:
 104:App/Src/calculate.c **** 	UsbPrintf("center:%.2f\n", center);
 593              		.loc 1 104 140 view .LVU128
 594 0120 0DA3     		adr	r3, .L43
 595 0122 D3E90023 		ldrd	r2, [r3]
 596 0126 FFF7FEFF 		bl	__aeabi_dmul
 597              	.LVL61:
 598 012a 0246     		mov	r2, r0
 599 012c 0B46     		mov	r3, r1
 104:App/Src/calculate.c **** 	UsbPrintf("center:%.2f\n", center);
 600              		.loc 1 104 60 view .LVU129
 601 012e 2046     		mov	r0, r4
 602 0130 2946     		mov	r1, r5
 603 0132 FFF7FEFF 		bl	__aeabi_dadd
 604              	.LVL62:
 605 0136 FFF7FEFF 		bl	__aeabi_d2f
 606              	.LVL63:
 104:App/Src/calculate.c **** 	UsbPrintf("center:%.2f\n", center);
 607              		.loc 1 104 30 view .LVU130
 608 013a B060     		str	r0, [r6, #8]	@ float
 105:App/Src/calculate.c **** 	g_input[TEST_RTC_TEMP_Z29] = center;
 609              		.loc 1 105 2 is_stmt 1 view .LVU131
 610 013c 18EE100A 		vmov	r0, s16
 611 0140 FFF7FEFF 		bl	__aeabi_f2d
 612              	.LVL64:
 613 0144 0246     		mov	r2, r0
 614 0146 0B46     		mov	r3, r1
 615 0148 0B48     		ldr	r0, .L43+32
 616 014a FFF7FEFF 		bl	UsbPrintf
 617              	.LVL65:
 106:App/Src/calculate.c **** 	return 1;
 618              		.loc 1 106 2 view .LVU132
 106:App/Src/calculate.c **** 	return 1;
 619              		.loc 1 106 29 is_stmt 0 view .LVU133
 620 014e 054B     		ldr	r3, .L43+12
 621 0150 83ED028A 		vstr.32	s16, [r3, #8]
 107:App/Src/calculate.c **** }
 622              		.loc 1 107 2 is_stmt 1 view .LVU134
 107:App/Src/calculate.c **** }
 623              		.loc 1 107 9 is_stmt 0 view .LVU135
 624 0154 0120     		movs	r0, #1
 625 0156 CCE7     		b	.L34
 626              	.L44:
 627              		.align	3
 628              	.L43:
 629 0158 BA490C02 		.word	34359738
 630 015c 2B87963F 		.word	1066829611
 631 0160 00000000 		.word	.LANCHOR0
ARM GAS  C:\Users\86158\AppData\Local\Temp\cckMY1rk.s 			page 16


 632 0164 00000000 		.word	.LANCHOR1
 633 0168 00000000 		.word	.LC5
 634 016c 38000000 		.word	.LC7
 635 0170 18000000 		.word	.LC6
 636 0174 00000000 		.word	.LANCHOR2
 637 0178 5C000000 		.word	.LC8
 638              		.cfi_endproc
 639              	.LFE236:
 641              		.section	.text.find_crystal_center_bad,"ax",%progbits
 642              		.align	1
 643              		.global	find_crystal_center_bad
 644              		.syntax unified
 645              		.thumb
 646              		.thumb_func
 648              	find_crystal_center_bad:
 649              	.LVL66:
 650              	.LFB237:
 109:App/Src/calculate.c **** 
 110:App/Src/calculate.c **** uint8_t find_crystal_center_bad(uint8_t rtcNum)
 111:App/Src/calculate.c **** {
 651              		.loc 1 111 1 is_stmt 1 view -0
 652              		.cfi_startproc
 653              		@ args = 0, pretend = 0, frame = 8
 654              		@ frame_needed = 0, uses_anonymous_args = 0
 655              		.loc 1 111 1 is_stmt 0 view .LVU137
 656 0000 F0B5     		push	{r4, r5, r6, r7, lr}
 657              	.LCFI10:
 658              		.cfi_def_cfa_offset 20
 659              		.cfi_offset 4, -20
 660              		.cfi_offset 5, -16
 661              		.cfi_offset 6, -12
 662              		.cfi_offset 7, -8
 663              		.cfi_offset 14, -4
 664 0002 2DED028B 		vpush.64	{d8}
 665              	.LCFI11:
 666              		.cfi_def_cfa_offset 28
 667              		.cfi_offset 80, -28
 668              		.cfi_offset 81, -24
 669 0006 85B0     		sub	sp, sp, #20
 670              	.LCFI12:
 671              		.cfi_def_cfa_offset 48
 672 0008 0146     		mov	r1, r0
 112:App/Src/calculate.c **** 	float ppm[2] = {0};
 673              		.loc 1 112 2 is_stmt 1 view .LVU138
 674              		.loc 1 112 8 is_stmt 0 view .LVU139
 675 000a 0023     		movs	r3, #0
 676 000c 0293     		str	r3, [sp, #8]
 677 000e 0393     		str	r3, [sp, #12]
 113:App/Src/calculate.c **** 	float center = 0;
 678              		.loc 1 113 2 is_stmt 1 view .LVU140
 679              	.LVL67:
 114:App/Src/calculate.c **** 	float quick;
 680              		.loc 1 114 2 view .LVU141
 115:App/Src/calculate.c **** 	flash_test_data_read(&g_testData, rtcNum, TEST_CENTER);
 681              		.loc 1 115 2 view .LVU142
 682 0010 574C     		ldr	r4, .L57+8
 683 0012 3A22     		movs	r2, #58
ARM GAS  C:\Users\86158\AppData\Local\Temp\cckMY1rk.s 			page 17


 684 0014 2046     		mov	r0, r4
 685              	.LVL68:
 686              		.loc 1 115 2 is_stmt 0 view .LVU143
 687 0016 FFF7FEFF 		bl	flash_test_data_read
 688              	.LVL69:
 116:App/Src/calculate.c **** 	ppm[0] = g_testData.testCenter[0];
 689              		.loc 1 116 2 is_stmt 1 view .LVU144
 690              		.loc 1 116 32 is_stmt 0 view .LVU145
 691 001a D4ED0F8A 		vldr.32	s17, [r4, #60]
 692              		.loc 1 116 9 view .LVU146
 693 001e CDED028A 		vstr.32	s17, [sp, #8]
 117:App/Src/calculate.c **** 	ppm[1] = g_testData.testCenter[1];
 694              		.loc 1 117 2 is_stmt 1 view .LVU147
 695              		.loc 1 117 32 is_stmt 0 view .LVU148
 696 0022 94ED108A 		vldr.32	s16, [r4, #64]
 697              		.loc 1 117 9 view .LVU149
 698 0026 8DED038A 		vstr.32	s16, [sp, #12]
 118:App/Src/calculate.c **** 	UsbPrintf("temp:%.1f, ppm:%.1f\n", g_input[TEST_RTC_TEMP_F40], ppm[0]);
 699              		.loc 1 118 2 is_stmt 1 view .LVU150
 700              		.loc 1 118 44 is_stmt 0 view .LVU151
 701 002a 524F     		ldr	r7, .L57+12
 702              		.loc 1 118 2 view .LVU152
 703 002c 3868     		ldr	r0, [r7]	@ float
 704 002e FFF7FEFF 		bl	__aeabi_f2d
 705              	.LVL70:
 706 0032 0446     		mov	r4, r0
 707 0034 0D46     		mov	r5, r1
 708 0036 504E     		ldr	r6, .L57+16
 709 0038 18EE900A 		vmov	r0, s17
 710 003c FFF7FEFF 		bl	__aeabi_f2d
 711              	.LVL71:
 712 0040 CDE90001 		strd	r0, [sp]
 713 0044 2246     		mov	r2, r4
 714 0046 2B46     		mov	r3, r5
 715 0048 3046     		mov	r0, r6
 716 004a FFF7FEFF 		bl	UsbPrintf
 717              	.LVL72:
 119:App/Src/calculate.c **** 	UsbPrintf("temp:%.1f, ppm:%.1f\n", g_input[TEST_RTC_TEMP_Z85], ppm[1]);
 718              		.loc 1 119 2 is_stmt 1 view .LVU153
 719 004e 3869     		ldr	r0, [r7, #16]	@ float
 720 0050 FFF7FEFF 		bl	__aeabi_f2d
 721              	.LVL73:
 722 0054 0446     		mov	r4, r0
 723 0056 0D46     		mov	r5, r1
 724 0058 18EE100A 		vmov	r0, s16
 725 005c FFF7FEFF 		bl	__aeabi_f2d
 726              	.LVL74:
 727 0060 CDE90001 		strd	r0, [sp]
 728 0064 2246     		mov	r2, r4
 729 0066 2B46     		mov	r3, r5
 730 0068 3046     		mov	r0, r6
 731 006a FFF7FEFF 		bl	UsbPrintf
 732              	.LVL75:
 120:App/Src/calculate.c **** 	quick = ppm[0] / ppm[1];
 733              		.loc 1 120 2 view .LVU154
 734              		.loc 1 120 8 is_stmt 0 view .LVU155
 735 006e C8EE887A 		vdiv.f32	s15, s17, s16
ARM GAS  C:\Users\86158\AppData\Local\Temp\cckMY1rk.s 			page 18


 736              	.LVL76:
 121:App/Src/calculate.c **** 	if (quick <= 0 ) {
 737              		.loc 1 121 2 is_stmt 1 view .LVU156
 738              		.loc 1 121 5 is_stmt 0 view .LVU157
 739 0072 F5EEC07A 		vcmpe.f32	s15, #0
 740 0076 F1EE10FA 		vmrs	APSR_nzcv, FPSCR
 741 007a 65D9     		bls	.L56
 122:App/Src/calculate.c **** 		UsbPrintf("check find center ppm error\n");
 123:App/Src/calculate.c **** 		return 0;
 124:App/Src/calculate.c **** 	}
 125:App/Src/calculate.c **** 	quick = sqrt(quick);
 742              		.loc 1 125 2 is_stmt 1 view .LVU158
 743              		.loc 1 125 10 is_stmt 0 view .LVU159
 744 007c 17EE900A 		vmov	r0, s15
 745 0080 FFF7FEFF 		bl	__aeabi_f2d
 746              	.LVL77:
 747              		.loc 1 125 10 view .LVU160
 748 0084 41EC100B 		vmov	d0, r0, r1
 749 0088 FFF7FEFF 		bl	sqrt
 750              	.LVL78:
 751 008c 51EC100B 		vmov	r0, r1, d0
 752              		.loc 1 125 8 view .LVU161
 753 0090 FFF7FEFF 		bl	__aeabi_d2f
 754              	.LVL79:
 755 0094 07EE900A 		vmov	s15, r0
 756              	.LVL80:
 126:App/Src/calculate.c **** 	center = (g_input[TEST_RTC_TEMP_F40] + quick * g_input[TEST_RTC_TEMP_Z85]) / (1 + quick);
 757              		.loc 1 126 2 is_stmt 1 view .LVU162
 758              		.loc 1 126 19 is_stmt 0 view .LVU163
 759 0098 364E     		ldr	r6, .L57+12
 760 009a 96ED007A 		vldr.32	s14, [r6]
 761              		.loc 1 126 56 view .LVU164
 762 009e D6ED046A 		vldr.32	s13, [r6, #16]
 763              		.loc 1 126 47 view .LVU165
 764 00a2 66EEA76A 		vmul.f32	s13, s13, s15
 765              		.loc 1 126 39 view .LVU166
 766 00a6 37EE267A 		vadd.f32	s14, s14, s13
 767              		.loc 1 126 82 view .LVU167
 768 00aa F7EE006A 		vmov.f32	s13, #1.0e+0
 769 00ae 77EEA67A 		vadd.f32	s15, s15, s13
 770              		.loc 1 126 9 view .LVU168
 771 00b2 C7EE278A 		vdiv.f32	s17, s14, s15
 772              	.LVL81:
 127:App/Src/calculate.c **** 	UsbPrintf("center:%.2f\n", center);	
 773              		.loc 1 127 2 is_stmt 1 view .LVU169
 774 00b6 18EE900A 		vmov	r0, s17
 775              	.LVL82:
 776              		.loc 1 127 2 is_stmt 0 view .LVU170
 777 00ba FFF7FEFF 		bl	__aeabi_f2d
 778              	.LVL83:
 779 00be 0446     		mov	r4, r0
 780 00c0 0D46     		mov	r5, r1
 781 00c2 2E4F     		ldr	r7, .L57+20
 782 00c4 0246     		mov	r2, r0
 783 00c6 0B46     		mov	r3, r1
 784 00c8 3846     		mov	r0, r7
 785 00ca FFF7FEFF 		bl	UsbPrintf
ARM GAS  C:\Users\86158\AppData\Local\Temp\cckMY1rk.s 			page 19


 786              	.LVL84:
 128:App/Src/calculate.c **** 	log_printf("center:%.2f\n", center);
 787              		.loc 1 128 2 is_stmt 1 view .LVU171
 788 00ce 2246     		mov	r2, r4
 789 00d0 2B46     		mov	r3, r5
 790 00d2 3846     		mov	r0, r7
 791 00d4 FFF7FEFF 		bl	log_printf
 792              	.LVL85:
 129:App/Src/calculate.c **** 	if ((center < g_input[TEST_RTC_TEMP_Z29] - FIND_CENTER_TEMP_ERROR) || (center > g_input[TEST_RTC_T
 793              		.loc 1 129 2 view .LVU172
 794              		.loc 1 129 23 is_stmt 0 view .LVU173
 795 00d8 96ED028A 		vldr.32	s16, [r6, #8]
 796              		.loc 1 129 43 view .LVU174
 797 00dc F3EE0E7A 		vmov.f32	s15, #3.0e+1
 798 00e0 78EE677A 		vsub.f32	s15, s16, s15
 799              		.loc 1 129 5 view .LVU175
 800 00e4 F4EEE87A 		vcmpe.f32	s15, s17
 801 00e8 F1EE10FA 		vmrs	APSR_nzcv, FPSCR
 802 00ec 31DC     		bgt	.L49
 803              		.loc 1 129 109 discriminator 1 view .LVU176
 804 00ee F3EE0E7A 		vmov.f32	s15, #3.0e+1
 805 00f2 78EE277A 		vadd.f32	s15, s16, s15
 806              		.loc 1 129 69 discriminator 1 view .LVU177
 807 00f6 F4EEE87A 		vcmpe.f32	s15, s17
 808 00fa F1EE10FA 		vmrs	APSR_nzcv, FPSCR
 809 00fe 28D4     		bmi	.L49
 130:App/Src/calculate.c **** 		UsbPrintf("check find center ppm error\n");
 131:App/Src/calculate.c **** 		log_printf("check find center ppm error\n");
 132:App/Src/calculate.c **** 		return 0;
 133:App/Src/calculate.c **** 	}
 134:App/Src/calculate.c **** 	g_result[TEST_RTC_TEMP_Z29] = g_result[TEST_RTC_TEMP_Z29] + (center - g_input[TEST_RTC_TEMP_Z29]) 
 810              		.loc 1 134 2 is_stmt 1 view .LVU178
 811              		.loc 1 134 40 is_stmt 0 view .LVU179
 812 0100 1F4E     		ldr	r6, .L57+24
 813 0102 B068     		ldr	r0, [r6, #8]	@ float
 814 0104 FFF7FEFF 		bl	__aeabi_f2d
 815              	.LVL86:
 816 0108 0446     		mov	r4, r0
 817 010a 0D46     		mov	r5, r1
 818              		.loc 1 134 70 view .LVU180
 819 010c 38EEC88A 		vsub.f32	s16, s17, s16
 820              		.loc 1 134 100 view .LVU181
 821 0110 68EE087A 		vmul.f32	s15, s16, s16
 822 0114 17EE900A 		vmov	r0, s15
 823 0118 FFF7FEFF 		bl	__aeabi_f2d
 824              	.LVL87:
 825              		.loc 1 134 140 view .LVU182
 826 011c 12A3     		adr	r3, .L57
 827 011e D3E90023 		ldrd	r2, [r3]
 828 0122 FFF7FEFF 		bl	__aeabi_dmul
 829              	.LVL88:
 830 0126 0246     		mov	r2, r0
 831 0128 0B46     		mov	r3, r1
 832              		.loc 1 134 60 view .LVU183
 833 012a 2046     		mov	r0, r4
 834 012c 2946     		mov	r1, r5
 835 012e FFF7FEFF 		bl	__aeabi_dadd
ARM GAS  C:\Users\86158\AppData\Local\Temp\cckMY1rk.s 			page 20


 836              	.LVL89:
 837 0132 FFF7FEFF 		bl	__aeabi_d2f
 838              	.LVL90:
 839              		.loc 1 134 30 view .LVU184
 840 0136 B060     		str	r0, [r6, #8]	@ float
 135:App/Src/calculate.c **** 	g_input[TEST_RTC_TEMP_Z29] = center;
 841              		.loc 1 135 2 is_stmt 1 view .LVU185
 842              		.loc 1 135 29 is_stmt 0 view .LVU186
 843 0138 0E4B     		ldr	r3, .L57+12
 844 013a C3ED028A 		vstr.32	s17, [r3, #8]
 136:App/Src/calculate.c **** 	return 1;
 845              		.loc 1 136 2 is_stmt 1 view .LVU187
 846              		.loc 1 136 9 is_stmt 0 view .LVU188
 847 013e 0120     		movs	r0, #1
 848              	.LVL91:
 849              	.L48:
 137:App/Src/calculate.c **** }
 850              		.loc 1 137 1 view .LVU189
 851 0140 05B0     		add	sp, sp, #20
 852              	.LCFI13:
 853              		.cfi_remember_state
 854              		.cfi_def_cfa_offset 28
 855              		@ sp needed
 856 0142 BDEC028B 		vldm	sp!, {d8}
 857              	.LCFI14:
 858              		.cfi_restore 80
 859              		.cfi_restore 81
 860              		.cfi_def_cfa_offset 20
 861 0146 F0BD     		pop	{r4, r5, r6, r7, pc}
 862              	.LVL92:
 863              	.L56:
 864              	.LCFI15:
 865              		.cfi_restore_state
 122:App/Src/calculate.c **** 		return 0;
 866              		.loc 1 122 3 is_stmt 1 view .LVU190
 867 0148 0E48     		ldr	r0, .L57+28
 868 014a FFF7FEFF 		bl	UsbPrintf
 869              	.LVL93:
 123:App/Src/calculate.c **** 	}
 870              		.loc 1 123 3 view .LVU191
 123:App/Src/calculate.c **** 	}
 871              		.loc 1 123 10 is_stmt 0 view .LVU192
 872 014e 0020     		movs	r0, #0
 873 0150 F6E7     		b	.L48
 874              	.LVL94:
 875              	.L49:
 130:App/Src/calculate.c **** 		log_printf("check find center ppm error\n");
 876              		.loc 1 130 3 is_stmt 1 view .LVU193
 877 0152 0C4C     		ldr	r4, .L57+28
 878 0154 2046     		mov	r0, r4
 879 0156 FFF7FEFF 		bl	UsbPrintf
 880              	.LVL95:
 131:App/Src/calculate.c **** 		return 0;
 881              		.loc 1 131 3 view .LVU194
 882 015a 2046     		mov	r0, r4
 883 015c FFF7FEFF 		bl	log_printf
 884              	.LVL96:
ARM GAS  C:\Users\86158\AppData\Local\Temp\cckMY1rk.s 			page 21


 132:App/Src/calculate.c **** 	}
 885              		.loc 1 132 3 view .LVU195
 132:App/Src/calculate.c **** 	}
 886              		.loc 1 132 10 is_stmt 0 view .LVU196
 887 0160 0020     		movs	r0, #0
 888 0162 EDE7     		b	.L48
 889              	.L58:
 890 0164 AFF30080 		.align	3
 891              	.L57:
 892 0168 BA490C02 		.word	34359738
 893 016c 2B87963F 		.word	1066829611
 894 0170 00000000 		.word	.LANCHOR0
 895 0174 00000000 		.word	.LANCHOR1
 896 0178 00000000 		.word	.LC5
 897 017c 5C000000 		.word	.LC8
 898 0180 00000000 		.word	.LANCHOR2
 899 0184 18000000 		.word	.LC6
 900              		.cfi_endproc
 901              	.LFE237:
 903              		.section	.text.copy_parameter,"ax",%progbits
 904              		.align	1
 905              		.global	copy_parameter
 906              		.syntax unified
 907              		.thumb
 908              		.thumb_func
 910              	copy_parameter:
 911              	.LVL97:
 912              	.LFB238:
 138:App/Src/calculate.c **** 
 139:App/Src/calculate.c **** void copy_parameter(Parameter* target, Parameter* source)
 140:App/Src/calculate.c **** {
 913              		.loc 1 140 1 is_stmt 1 view -0
 914              		.cfi_startproc
 915              		@ args = 0, pretend = 0, frame = 0
 916              		@ frame_needed = 0, uses_anonymous_args = 0
 917              		@ link register save eliminated.
 141:App/Src/calculate.c **** 		target->A = source->A;
 918              		.loc 1 141 3 view .LVU198
 919              		.loc 1 141 21 is_stmt 0 view .LVU199
 920 0000 0B68     		ldr	r3, [r1]	@ float
 921              		.loc 1 141 13 view .LVU200
 922 0002 0360     		str	r3, [r0]	@ float
 142:App/Src/calculate.c **** 		target->B = source->B;
 923              		.loc 1 142 3 is_stmt 1 view .LVU201
 924              		.loc 1 142 21 is_stmt 0 view .LVU202
 925 0004 4B68     		ldr	r3, [r1, #4]	@ float
 926              		.loc 1 142 13 view .LVU203
 927 0006 4360     		str	r3, [r0, #4]	@ float
 143:App/Src/calculate.c **** 		target->C = source->C;
 928              		.loc 1 143 3 is_stmt 1 view .LVU204
 929              		.loc 1 143 21 is_stmt 0 view .LVU205
 930 0008 CB68     		ldr	r3, [r1, #12]	@ float
 931              		.loc 1 143 13 view .LVU206
 932 000a C360     		str	r3, [r0, #12]	@ float
 144:App/Src/calculate.c **** 		target->X0 = source->X0;
 933              		.loc 1 144 3 is_stmt 1 view .LVU207
 934              		.loc 1 144 22 is_stmt 0 view .LVU208
ARM GAS  C:\Users\86158\AppData\Local\Temp\cckMY1rk.s 			page 22


 935 000c 8B68     		ldr	r3, [r1, #8]	@ float
 936              		.loc 1 144 14 view .LVU209
 937 000e 8360     		str	r3, [r0, #8]	@ float
 145:App/Src/calculate.c **** 		target->mode = source->mode;
 938              		.loc 1 145 3 is_stmt 1 view .LVU210
 939              		.loc 1 145 24 is_stmt 0 view .LVU211
 940 0010 0B7C     		ldrb	r3, [r1, #16]	@ zero_extendqisi2
 941              		.loc 1 145 16 view .LVU212
 942 0012 0374     		strb	r3, [r0, #16]
 146:App/Src/calculate.c **** }
 943              		.loc 1 146 1 view .LVU213
 944 0014 7047     		bx	lr
 945              		.cfi_endproc
 946              	.LFE238:
 948              		.section	.text.chip_temp_function,"ax",%progbits
 949              		.align	1
 950              		.global	chip_temp_function
 951              		.syntax unified
 952              		.thumb
 953              		.thumb_func
 955              	chip_temp_function:
 956              	.LVL98:
 957              	.LFB239:
 147:App/Src/calculate.c **** 
 148:App/Src/calculate.c **** float chip_temp_function(float tem, Parameter cac)
 149:App/Src/calculate.c **** {
 958              		.loc 1 149 1 is_stmt 1 view -0
 959              		.cfi_startproc
 960              		@ args = 20, pretend = 16, frame = 0
 961              		@ frame_needed = 0, uses_anonymous_args = 0
 962              		.loc 1 149 1 is_stmt 0 view .LVU215
 963 0000 84B0     		sub	sp, sp, #16
 964              	.LCFI16:
 965              		.cfi_def_cfa_offset 16
 966 0002 70B5     		push	{r4, r5, r6, lr}
 967              	.LCFI17:
 968              		.cfi_def_cfa_offset 32
 969              		.cfi_offset 4, -32
 970              		.cfi_offset 5, -28
 971              		.cfi_offset 6, -24
 972              		.cfi_offset 14, -20
 973 0004 04AC     		add	r4, sp, #16
 974 0006 84E80F00 		stm	r4, {r0, r1, r2, r3}
 150:App/Src/calculate.c **** 		float target, quick;
 975              		.loc 1 150 3 is_stmt 1 view .LVU216
 151:App/Src/calculate.c **** 		if (cac.B != 0)	{
 976              		.loc 1 151 3 view .LVU217
 977              		.loc 1 151 10 is_stmt 0 view .LVU218
 978 000a DDED057A 		vldr.32	s15, [sp, #20]
 979              		.loc 1 151 6 view .LVU219
 980 000e F5EE407A 		vcmp.f32	s15, #0
 981 0012 F1EE10FA 		vmrs	APSR_nzcv, FPSCR
 982 0016 31D0     		beq	.L64
 152:App/Src/calculate.c **** 				quick = (float)(tem - cac.X0) / cac.B;
 983              		.loc 1 152 5 is_stmt 1 view .LVU220
 984              		.loc 1 152 30 is_stmt 0 view .LVU221
 985 0018 9DED067A 		vldr.32	s14, [sp, #24]
ARM GAS  C:\Users\86158\AppData\Local\Temp\cckMY1rk.s 			page 23


 986              		.loc 1 152 13 view .LVU222
 987 001c 30EE470A 		vsub.f32	s0, s0, s14
 988              	.LVL99:
 989              		.loc 1 152 11 view .LVU223
 990 0020 C0EE277A 		vdiv.f32	s15, s0, s15
 991 0024 17EE906A 		vmov	r6, s15
 992              	.LVL100:
 993              	.L61:
 153:App/Src/calculate.c **** 		} else {
 154:App/Src/calculate.c **** 				quick = 0;
 155:App/Src/calculate.c **** 		}
 156:App/Src/calculate.c **** 		if (cac.mode == 0) {
 994              		.loc 1 156 3 is_stmt 1 view .LVU224
 995              		.loc 1 156 10 is_stmt 0 view .LVU225
 996 0028 9DF82030 		ldrb	r3, [sp, #32]	@ zero_extendqisi2
 997              		.loc 1 156 6 view .LVU226
 998 002c 43BB     		cbnz	r3, .L62
 157:App/Src/calculate.c **** 			target = cac.A  * log(cosh(quick)) + cac.C;
 999              		.loc 1 157 4 is_stmt 1 view .LVU227
 1000              		.loc 1 157 16 is_stmt 0 view .LVU228
 1001 002e 0498     		ldr	r0, [sp, #16]	@ float
 1002 0030 FFF7FEFF 		bl	__aeabi_f2d
 1003              	.LVL101:
 1004 0034 0446     		mov	r4, r0
 1005 0036 0D46     		mov	r5, r1
 1006              		.loc 1 157 22 view .LVU229
 1007 0038 3046     		mov	r0, r6	@ float
 1008 003a FFF7FEFF 		bl	__aeabi_f2d
 1009              	.LVL102:
 1010 003e 41EC100B 		vmov	d0, r0, r1
 1011 0042 FFF7FEFF 		bl	cosh
 1012              	.LVL103:
 1013 0046 FFF7FEFF 		bl	log
 1014              	.LVL104:
 1015 004a 53EC102B 		vmov	r2, r3, d0
 1016              		.loc 1 157 20 view .LVU230
 1017 004e 2046     		mov	r0, r4
 1018 0050 2946     		mov	r1, r5
 1019 0052 FFF7FEFF 		bl	__aeabi_dmul
 1020              	.LVL105:
 1021 0056 0446     		mov	r4, r0
 1022 0058 0D46     		mov	r5, r1
 1023              		.loc 1 157 44 view .LVU231
 1024 005a 0798     		ldr	r0, [sp, #28]	@ float
 1025 005c FFF7FEFF 		bl	__aeabi_f2d
 1026              	.LVL106:
 1027 0060 0246     		mov	r2, r0
 1028 0062 0B46     		mov	r3, r1
 1029              		.loc 1 157 39 view .LVU232
 1030 0064 2046     		mov	r0, r4
 1031 0066 2946     		mov	r1, r5
 1032 0068 FFF7FEFF 		bl	__aeabi_dadd
 1033              	.LVL107:
 1034              		.loc 1 157 11 view .LVU233
 1035 006c FFF7FEFF 		bl	__aeabi_d2f
 1036              	.LVL108:
 1037 0070 00EE100A 		vmov	s0, r0
ARM GAS  C:\Users\86158\AppData\Local\Temp\cckMY1rk.s 			page 24


 1038              	.LVL109:
 1039              	.L60:
 158:App/Src/calculate.c **** 		} else {
 159:App/Src/calculate.c **** 			target = cac.A  * cosh(quick) + cac.C;
 160:App/Src/calculate.c **** 		}
 161:App/Src/calculate.c **** 		return target;
 162:App/Src/calculate.c **** }
 1040              		.loc 1 162 1 view .LVU234
 1041 0074 BDE87040 		pop	{r4, r5, r6, lr}
 1042              	.LCFI18:
 1043              		.cfi_remember_state
 1044              		.cfi_restore 14
 1045              		.cfi_restore 6
 1046              		.cfi_restore 5
 1047              		.cfi_restore 4
 1048              		.cfi_def_cfa_offset 16
 1049              	.LVL110:
 1050              		.loc 1 162 1 view .LVU235
 1051 0078 04B0     		add	sp, sp, #16
 1052              	.LCFI19:
 1053              		.cfi_def_cfa_offset 0
 1054 007a 7047     		bx	lr
 1055              	.LVL111:
 1056              	.L64:
 1057              	.LCFI20:
 1058              		.cfi_restore_state
 154:App/Src/calculate.c **** 		}
 1059              		.loc 1 154 11 view .LVU236
 1060 007c 0026     		movs	r6, #0
 1061 007e D3E7     		b	.L61
 1062              	.LVL112:
 1063              	.L62:
 159:App/Src/calculate.c **** 		}
 1064              		.loc 1 159 4 is_stmt 1 view .LVU237
 159:App/Src/calculate.c **** 		}
 1065              		.loc 1 159 16 is_stmt 0 view .LVU238
 1066 0080 0498     		ldr	r0, [sp, #16]	@ float
 1067 0082 FFF7FEFF 		bl	__aeabi_f2d
 1068              	.LVL113:
 1069 0086 0446     		mov	r4, r0
 1070 0088 0D46     		mov	r5, r1
 159:App/Src/calculate.c **** 		}
 1071              		.loc 1 159 22 view .LVU239
 1072 008a 3046     		mov	r0, r6	@ float
 1073 008c FFF7FEFF 		bl	__aeabi_f2d
 1074              	.LVL114:
 1075 0090 41EC100B 		vmov	d0, r0, r1
 1076 0094 FFF7FEFF 		bl	cosh
 1077              	.LVL115:
 1078 0098 53EC102B 		vmov	r2, r3, d0
 159:App/Src/calculate.c **** 		}
 1079              		.loc 1 159 20 view .LVU240
 1080 009c 2046     		mov	r0, r4
 1081 009e 2946     		mov	r1, r5
 1082 00a0 FFF7FEFF 		bl	__aeabi_dmul
 1083              	.LVL116:
 1084 00a4 0446     		mov	r4, r0
ARM GAS  C:\Users\86158\AppData\Local\Temp\cckMY1rk.s 			page 25


 1085 00a6 0D46     		mov	r5, r1
 159:App/Src/calculate.c **** 		}
 1086              		.loc 1 159 39 view .LVU241
 1087 00a8 0798     		ldr	r0, [sp, #28]	@ float
 1088 00aa FFF7FEFF 		bl	__aeabi_f2d
 1089              	.LVL117:
 1090 00ae 0246     		mov	r2, r0
 1091 00b0 0B46     		mov	r3, r1
 159:App/Src/calculate.c **** 		}
 1092              		.loc 1 159 34 view .LVU242
 1093 00b2 2046     		mov	r0, r4
 1094 00b4 2946     		mov	r1, r5
 1095 00b6 FFF7FEFF 		bl	__aeabi_dadd
 1096              	.LVL118:
 159:App/Src/calculate.c **** 		}
 1097              		.loc 1 159 11 view .LVU243
 1098 00ba FFF7FEFF 		bl	__aeabi_d2f
 1099              	.LVL119:
 1100 00be 00EE100A 		vmov	s0, r0
 1101              	.LVL120:
 161:App/Src/calculate.c **** }
 1102              		.loc 1 161 3 is_stmt 1 view .LVU244
 161:App/Src/calculate.c **** }
 1103              		.loc 1 161 10 is_stmt 0 view .LVU245
 1104 00c2 D7E7     		b	.L60
 1105              		.cfi_endproc
 1106              	.LFE239:
 1108              		.global	__aeabi_ddiv
 1109              		.global	__aeabi_dsub
 1110              		.section	.rodata.init_para_5dot.str1.4,"aMS",%progbits,1
 1111              		.align	2
 1112              	.LC9:
 1113 0000 6D696E3A 		.ascii	"min:%.2f, max:%.2f\012\000"
 1113      252E3266 
 1113      2C206D61 
 1113      783A252E 
 1113      32660A00 
 1114              		.align	2
 1115              	.LC10:
 1116 0014 6C656674 		.ascii	"left para use mode 0\012\000"
 1116      20706172 
 1116      61207573 
 1116      65206D6F 
 1116      64652030 
 1117              		.global	__aeabi_dcmple
 1118 002a 0000     		.align	2
 1119              	.LC11:
 1120 002c 6D696E20 		.ascii	"min error:%.2f\012\000"
 1120      6572726F 
 1120      723A252E 
 1120      32660A00 
 1121              		.align	2
 1122              	.LC12:
 1123 003c 63686563 		.ascii	"check left para error, step 1!\012\000"
 1123      6B206C65 
 1123      66742070 
 1123      61726120 
ARM GAS  C:\Users\86158\AppData\Local\Temp\cckMY1rk.s 			page 26


 1123      6572726F 
 1124              		.align	2
 1125              	.LC13:
 1126 005c 6C656674 		.ascii	"left para use mode 1\012\000"
 1126      20706172 
 1126      61207573 
 1126      65206D6F 
 1126      64652031 
 1127 0072 0000     		.align	2
 1128              	.LC14:
 1129 0074 63686563 		.ascii	"check left para error, step 2!\012\000"
 1129      6B206C65 
 1129      66742070 
 1129      61726120 
 1129      6572726F 
 1130              		.align	2
 1131              	.LC15:
 1132 0094 63686563 		.ascii	"check left para error, step 0!\012\000"
 1132      6B206C65 
 1132      66742070 
 1132      61726120 
 1132      6572726F 
 1133              		.align	2
 1134              	.LC16:
 1135 00b4 6C656674 		.ascii	"left:\011A:%.2f, B:%.2f, C:%.2f; X0:%.2f, mode:%d\012"
 1135      3A09413A 
 1135      252E3266 
 1135      2C20423A 
 1135      252E3266 
 1136 00e3 00       		.ascii	"\000"
 1137              		.align	2
 1138              	.LC17:
 1139 00e4 72696768 		.ascii	"right para use mode 0\012\000"
 1139      74207061 
 1139      72612075 
 1139      7365206D 
 1139      6F646520 
 1140 00fb 00       		.align	2
 1141              	.LC18:
 1142 00fc 63686563 		.ascii	"check right para error, step 1!\012\000"
 1142      6B207269 
 1142      67687420 
 1142      70617261 
 1142      20657272 
 1143 011d 000000   		.align	2
 1144              	.LC19:
 1145 0120 72696768 		.ascii	"right para use mode 1\012\000"
 1145      74207061 
 1145      72612075 
 1145      7365206D 
 1145      6F646520 
 1146 0137 00       		.align	2
 1147              	.LC20:
 1148 0138 63686563 		.ascii	"check right para error, step 2!\012\000"
 1148      6B207269 
 1148      67687420 
 1148      70617261 
ARM GAS  C:\Users\86158\AppData\Local\Temp\cckMY1rk.s 			page 27


 1148      20657272 
 1149 0159 000000   		.align	2
 1150              	.LC21:
 1151 015c 63686563 		.ascii	"check right para error, step 0!\012\000"
 1151      6B207269 
 1151      67687420 
 1151      70617261 
 1151      20657272 
 1152 017d 000000   		.align	2
 1153              	.LC22:
 1154 0180 72696768 		.ascii	"right:\011A:%.2f, B:%.2f, C:%.2f; X0:%.2f, mode:%d\012"
 1154      743A0941 
 1154      3A252E32 
 1154      662C2042 
 1154      3A252E32 
 1155 01b0 00       		.ascii	"\000"
 1156 01b1 000000   		.align	2
 1157              	.LC23:
 1158 01b4 70617261 		.ascii	"parameter init success!\012\000"
 1158      6D657465 
 1158      7220696E 
 1158      69742073 
 1158      75636365 
 1159              		.section	.text.init_para_5dot,"ax",%progbits
 1160              		.align	1
 1161              		.global	init_para_5dot
 1162              		.syntax unified
 1163              		.thumb
 1164              		.thumb_func
 1166              	init_para_5dot:
 1167              	.LFB240:
 163:App/Src/calculate.c **** 
 164:App/Src/calculate.c **** uint8_t init_para_5dot(void)
 165:App/Src/calculate.c **** {
 1168              		.loc 1 165 1 is_stmt 1 view -0
 1169              		.cfi_startproc
 1170              		@ args = 0, pretend = 0, frame = 24
 1171              		@ frame_needed = 0, uses_anonymous_args = 0
 1172 0000 2DE9F043 		push	{r4, r5, r6, r7, r8, r9, lr}
 1173              	.LCFI21:
 1174              		.cfi_def_cfa_offset 28
 1175              		.cfi_offset 4, -28
 1176              		.cfi_offset 5, -24
 1177              		.cfi_offset 6, -20
 1178              		.cfi_offset 7, -16
 1179              		.cfi_offset 8, -12
 1180              		.cfi_offset 9, -8
 1181              		.cfi_offset 14, -4
 1182 0004 2DED048B 		vpush.64	{d8, d9}
 1183              	.LCFI22:
 1184              		.cfi_def_cfa_offset 44
 1185              		.cfi_offset 80, -44
 1186              		.cfi_offset 81, -40
 1187              		.cfi_offset 82, -36
 1188              		.cfi_offset 83, -32
 1189 0008 8FB0     		sub	sp, sp, #60
 1190              	.LCFI23:
ARM GAS  C:\Users\86158\AppData\Local\Temp\cckMY1rk.s 			page 28


 1191              		.cfi_def_cfa_offset 104
 166:App/Src/calculate.c **** 	int i;
 1192              		.loc 1 166 2 view .LVU247
 167:App/Src/calculate.c **** 	float minB, maxB;
 1193              		.loc 1 167 2 view .LVU248
 168:App/Src/calculate.c **** 	float minError, maxError, error;
 1194              		.loc 1 168 2 view .LVU249
 169:App/Src/calculate.c **** 	Parameter cac = {0};
 1195              		.loc 1 169 2 view .LVU250
 1196              		.loc 1 169 12 is_stmt 0 view .LVU251
 1197 000a 0023     		movs	r3, #0
 1198 000c 0993     		str	r3, [sp, #36]
 1199 000e 0A93     		str	r3, [sp, #40]
 1200 0010 0B93     		str	r3, [sp, #44]
 1201 0012 0C93     		str	r3, [sp, #48]
 1202 0014 0D93     		str	r3, [sp, #52]
 170:App/Src/calculate.c **** 
 171:App/Src/calculate.c **** 	cac.X0 = g_input[TEST_RTC_TEMP_Z29];
 1203              		.loc 1 171 2 is_stmt 1 view .LVU252
 1204              		.loc 1 171 18 is_stmt 0 view .LVU253
 1205 0016 CC4D     		ldr	r5, .L171+8
 1206 0018 95ED029A 		vldr.32	s18, [r5, #8]
 1207              		.loc 1 171 9 view .LVU254
 1208 001c 8DED0B9A 		vstr.32	s18, [sp, #44]
 172:App/Src/calculate.c **** 	cac.C = g_result[TEST_RTC_TEMP_Z29];
 1209              		.loc 1 172 2 is_stmt 1 view .LVU255
 1210              		.loc 1 172 18 is_stmt 0 view .LVU256
 1211 0020 CA4C     		ldr	r4, .L171+12
 1212 0022 D4ED027A 		vldr.32	s15, [r4, #8]
 1213              		.loc 1 172 8 view .LVU257
 1214 0026 CDED0C7A 		vstr.32	s15, [sp, #48]
 173:App/Src/calculate.c **** 	minB = 10;
 1215              		.loc 1 173 2 is_stmt 1 view .LVU258
 1216              	.LVL121:
 174:App/Src/calculate.c **** 	maxB = 990;
 1217              		.loc 1 174 2 view .LVU259
 175:App/Src/calculate.c **** 
 176:App/Src/calculate.c **** 	cac.B = minB;// 
 1218              		.loc 1 176 2 view .LVU260
 1219              		.loc 1 176 8 is_stmt 0 view .LVU261
 1220 002a F2EE048A 		vmov.f32	s17, #1.0e+1
 1221 002e CDED0A8A 		vstr.32	s17, [sp, #40]
 177:App/Src/calculate.c **** 	cac.A = (g_result[TEST_RTC_TEMP_F40] - cac.C) / log(cosh((g_input[TEST_RTC_TEMP_F40] - cac.X0) / c
 1222              		.loc 1 177 2 is_stmt 1 view .LVU262
 1223              		.loc 1 177 19 is_stmt 0 view .LVU263
 1224 0032 94ED007A 		vldr.32	s14, [r4]
 1225              		.loc 1 177 39 view .LVU264
 1226 0036 77EE677A 		vsub.f32	s15, s14, s15
 1227 003a 17EE900A 		vmov	r0, s15
 1228 003e FFF7FEFF 		bl	__aeabi_f2d
 1229              	.LVL122:
 1230 0042 0646     		mov	r6, r0
 1231 0044 0F46     		mov	r7, r1
 1232              		.loc 1 177 67 view .LVU265
 1233 0046 D5ED007A 		vldr.32	s15, [r5]
 1234              		.loc 1 177 87 view .LVU266
 1235 004a 77EEC97A 		vsub.f32	s15, s15, s18
ARM GAS  C:\Users\86158\AppData\Local\Temp\cckMY1rk.s 			page 29


 1236              		.loc 1 177 50 view .LVU267
 1237 004e C7EEA87A 		vdiv.f32	s15, s15, s17
 1238 0052 17EE900A 		vmov	r0, s15
 1239 0056 FFF7FEFF 		bl	__aeabi_f2d
 1240              	.LVL123:
 1241 005a 41EC100B 		vmov	d0, r0, r1
 1242 005e FFF7FEFF 		bl	cosh
 1243              	.LVL124:
 1244 0062 FFF7FEFF 		bl	log
 1245              	.LVL125:
 1246 0066 53EC102B 		vmov	r2, r3, d0
 1247              		.loc 1 177 48 view .LVU268
 1248 006a 3046     		mov	r0, r6
 1249 006c 3946     		mov	r1, r7
 1250 006e FFF7FEFF 		bl	__aeabi_ddiv
 1251              	.LVL126:
 1252 0072 FFF7FEFF 		bl	__aeabi_d2f
 1253              	.LVL127:
 1254              		.loc 1 177 8 view .LVU269
 1255 0076 0990     		str	r0, [sp, #36]	@ float
 178:App/Src/calculate.c **** 	minError = cac.A * log(cosh((g_input[TEST_RTC_TEMP_F10] - cac.X0) / cac.B)) + cac.C - g_result[TES
 1256              		.loc 1 178 2 is_stmt 1 view .LVU270
 1257              		.loc 1 178 16 is_stmt 0 view .LVU271
 1258 0078 FFF7FEFF 		bl	__aeabi_f2d
 1259              	.LVL128:
 1260 007c 0646     		mov	r6, r0
 1261 007e 0F46     		mov	r7, r1
 1262              		.loc 1 178 38 view .LVU272
 1263 0080 D5ED017A 		vldr.32	s15, [r5, #4]
 1264              		.loc 1 178 63 view .LVU273
 1265 0084 9DED0B7A 		vldr.32	s14, [sp, #44]
 1266              		.loc 1 178 58 view .LVU274
 1267 0088 77EEC77A 		vsub.f32	s15, s15, s14
 1268              		.loc 1 178 21 view .LVU275
 1269 008c 9DED0A7A 		vldr.32	s14, [sp, #40]
 1270 0090 C7EE877A 		vdiv.f32	s15, s15, s14
 1271 0094 17EE900A 		vmov	r0, s15
 1272 0098 FFF7FEFF 		bl	__aeabi_f2d
 1273              	.LVL129:
 1274 009c 41EC100B 		vmov	d0, r0, r1
 1275 00a0 FFF7FEFF 		bl	cosh
 1276              	.LVL130:
 1277 00a4 FFF7FEFF 		bl	log
 1278              	.LVL131:
 1279 00a8 53EC102B 		vmov	r2, r3, d0
 1280              		.loc 1 178 19 view .LVU276
 1281 00ac 3046     		mov	r0, r6
 1282 00ae 3946     		mov	r1, r7
 1283 00b0 FFF7FEFF 		bl	__aeabi_dmul
 1284              	.LVL132:
 1285 00b4 0646     		mov	r6, r0
 1286 00b6 0F46     		mov	r7, r1
 1287              		.loc 1 178 83 view .LVU277
 1288 00b8 DDED0C9A 		vldr.32	s19, [sp, #48]
 1289 00bc 19EE900A 		vmov	r0, s19
 1290 00c0 FFF7FEFF 		bl	__aeabi_f2d
 1291              	.LVL133:
ARM GAS  C:\Users\86158\AppData\Local\Temp\cckMY1rk.s 			page 30


 1292 00c4 0246     		mov	r2, r0
 1293 00c6 0B46     		mov	r3, r1
 1294              		.loc 1 178 78 view .LVU278
 1295 00c8 3046     		mov	r0, r6
 1296 00ca 3946     		mov	r1, r7
 1297 00cc FFF7FEFF 		bl	__aeabi_dadd
 1298              	.LVL134:
 1299 00d0 0646     		mov	r6, r0
 1300 00d2 0F46     		mov	r7, r1
 1301              		.loc 1 178 96 view .LVU279
 1302 00d4 6068     		ldr	r0, [r4, #4]	@ float
 1303 00d6 FFF7FEFF 		bl	__aeabi_f2d
 1304              	.LVL135:
 1305 00da 0246     		mov	r2, r0
 1306 00dc 0B46     		mov	r3, r1
 1307              		.loc 1 178 86 view .LVU280
 1308 00de 3046     		mov	r0, r6
 1309 00e0 3946     		mov	r1, r7
 1310 00e2 FFF7FEFF 		bl	__aeabi_dsub
 1311              	.LVL136:
 1312              		.loc 1 178 11 view .LVU281
 1313 00e6 FFF7FEFF 		bl	__aeabi_d2f
 1314              	.LVL137:
 1315 00ea 08EE900A 		vmov	s17, r0
 1316              	.LVL138:
 179:App/Src/calculate.c **** 	cac.B = maxB;// 
 1317              		.loc 1 179 2 is_stmt 1 view .LVU282
 1318              		.loc 1 179 8 is_stmt 0 view .LVU283
 1319 00ee 9FED989A 		vldr.32	s18, .L171+16
 1320 00f2 8DED0A9A 		vstr.32	s18, [sp, #40]
 180:App/Src/calculate.c **** 	cac.A = (g_result[TEST_RTC_TEMP_F40] - cac.C) / log(cosh((g_input[TEST_RTC_TEMP_F40] - cac.X0) / c
 1321              		.loc 1 180 2 is_stmt 1 view .LVU284
 1322              		.loc 1 180 19 is_stmt 0 view .LVU285
 1323 00f6 D4ED007A 		vldr.32	s15, [r4]
 1324              		.loc 1 180 39 view .LVU286
 1325 00fa 77EEE97A 		vsub.f32	s15, s15, s19
 1326 00fe 17EE900A 		vmov	r0, s15
 1327              	.LVL139:
 1328              		.loc 1 180 39 view .LVU287
 1329 0102 FFF7FEFF 		bl	__aeabi_f2d
 1330              	.LVL140:
 1331 0106 0646     		mov	r6, r0
 1332 0108 0F46     		mov	r7, r1
 1333              		.loc 1 180 67 view .LVU288
 1334 010a D5ED007A 		vldr.32	s15, [r5]
 1335              		.loc 1 180 92 view .LVU289
 1336 010e 9DED0B7A 		vldr.32	s14, [sp, #44]
 1337              		.loc 1 180 87 view .LVU290
 1338 0112 77EEC77A 		vsub.f32	s15, s15, s14
 1339              		.loc 1 180 50 view .LVU291
 1340 0116 C7EE897A 		vdiv.f32	s15, s15, s18
 1341 011a 17EE900A 		vmov	r0, s15
 1342 011e FFF7FEFF 		bl	__aeabi_f2d
 1343              	.LVL141:
 1344 0122 41EC100B 		vmov	d0, r0, r1
 1345 0126 FFF7FEFF 		bl	cosh
 1346              	.LVL142:
ARM GAS  C:\Users\86158\AppData\Local\Temp\cckMY1rk.s 			page 31


 1347 012a FFF7FEFF 		bl	log
 1348              	.LVL143:
 1349 012e 53EC102B 		vmov	r2, r3, d0
 1350              		.loc 1 180 48 view .LVU292
 1351 0132 3046     		mov	r0, r6
 1352 0134 3946     		mov	r1, r7
 1353 0136 FFF7FEFF 		bl	__aeabi_ddiv
 1354              	.LVL144:
 1355 013a FFF7FEFF 		bl	__aeabi_d2f
 1356              	.LVL145:
 1357              		.loc 1 180 8 view .LVU293
 1358 013e 0990     		str	r0, [sp, #36]	@ float
 181:App/Src/calculate.c **** 	maxError = cac.A * log(cosh((g_input[TEST_RTC_TEMP_F10] - cac.X0) / cac.B)) + cac.C - g_result[TES
 1359              		.loc 1 181 2 is_stmt 1 view .LVU294
 1360              		.loc 1 181 16 is_stmt 0 view .LVU295
 1361 0140 FFF7FEFF 		bl	__aeabi_f2d
 1362              	.LVL146:
 1363 0144 0646     		mov	r6, r0
 1364 0146 0F46     		mov	r7, r1
 1365              		.loc 1 181 38 view .LVU296
 1366 0148 D5ED017A 		vldr.32	s15, [r5, #4]
 1367              		.loc 1 181 63 view .LVU297
 1368 014c 9DED0B7A 		vldr.32	s14, [sp, #44]
 1369              		.loc 1 181 58 view .LVU298
 1370 0150 77EEC77A 		vsub.f32	s15, s15, s14
 1371              		.loc 1 181 21 view .LVU299
 1372 0154 9DED0A7A 		vldr.32	s14, [sp, #40]
 1373 0158 C7EE877A 		vdiv.f32	s15, s15, s14
 1374 015c 17EE900A 		vmov	r0, s15
 1375 0160 FFF7FEFF 		bl	__aeabi_f2d
 1376              	.LVL147:
 1377 0164 41EC100B 		vmov	d0, r0, r1
 1378 0168 FFF7FEFF 		bl	cosh
 1379              	.LVL148:
 1380 016c FFF7FEFF 		bl	log
 1381              	.LVL149:
 1382 0170 53EC102B 		vmov	r2, r3, d0
 1383              		.loc 1 181 19 view .LVU300
 1384 0174 3046     		mov	r0, r6
 1385 0176 3946     		mov	r1, r7
 1386 0178 FFF7FEFF 		bl	__aeabi_dmul
 1387              	.LVL150:
 1388 017c 0646     		mov	r6, r0
 1389 017e 0F46     		mov	r7, r1
 1390              		.loc 1 181 83 view .LVU301
 1391 0180 0C98     		ldr	r0, [sp, #48]	@ float
 1392 0182 FFF7FEFF 		bl	__aeabi_f2d
 1393              	.LVL151:
 1394 0186 0246     		mov	r2, r0
 1395 0188 0B46     		mov	r3, r1
 1396              		.loc 1 181 78 view .LVU302
 1397 018a 3046     		mov	r0, r6
 1398 018c 3946     		mov	r1, r7
 1399 018e FFF7FEFF 		bl	__aeabi_dadd
 1400              	.LVL152:
 1401 0192 0646     		mov	r6, r0
 1402 0194 0F46     		mov	r7, r1
ARM GAS  C:\Users\86158\AppData\Local\Temp\cckMY1rk.s 			page 32


 1403              		.loc 1 181 96 view .LVU303
 1404 0196 6068     		ldr	r0, [r4, #4]	@ float
 1405 0198 FFF7FEFF 		bl	__aeabi_f2d
 1406              	.LVL153:
 1407 019c 0246     		mov	r2, r0
 1408 019e 0B46     		mov	r3, r1
 1409              		.loc 1 181 86 view .LVU304
 1410 01a0 3046     		mov	r0, r6
 1411 01a2 3946     		mov	r1, r7
 1412 01a4 FFF7FEFF 		bl	__aeabi_dsub
 1413              	.LVL154:
 1414              		.loc 1 181 11 view .LVU305
 1415 01a8 FFF7FEFF 		bl	__aeabi_d2f
 1416              	.LVL155:
 1417 01ac 09EE100A 		vmov	s18, r0
 1418              	.LVL156:
 182:App/Src/calculate.c **** 	UsbPrintf("min:%.2f, max:%.2f\n", minError, maxError);
 1419              		.loc 1 182 2 is_stmt 1 view .LVU306
 1420 01b0 18EE900A 		vmov	r0, s17
 1421              	.LVL157:
 1422              		.loc 1 182 2 is_stmt 0 view .LVU307
 1423 01b4 FFF7FEFF 		bl	__aeabi_f2d
 1424              	.LVL158:
 1425 01b8 0446     		mov	r4, r0
 1426 01ba 0D46     		mov	r5, r1
 1427 01bc 19EE100A 		vmov	r0, s18
 1428 01c0 FFF7FEFF 		bl	__aeabi_f2d
 1429              	.LVL159:
 1430 01c4 CDE90001 		strd	r0, [sp]
 1431 01c8 2246     		mov	r2, r4
 1432 01ca 2B46     		mov	r3, r5
 1433 01cc 6148     		ldr	r0, .L171+20
 1434 01ce FFF7FEFF 		bl	UsbPrintf
 1435              	.LVL160:
 183:App/Src/calculate.c **** 	if ((minError >= 0 && maxError < 0 ) || (minError <= 0 && maxError > 0)) {//存在中间解
 1436              		.loc 1 183 2 is_stmt 1 view .LVU308
 1437              		.loc 1 183 5 is_stmt 0 view .LVU309
 1438 01d2 F5EEC08A 		vcmpe.f32	s17, #0
 1439 01d6 F1EE10FA 		vmrs	APSR_nzcv, FPSCR
 1440 01da 04DB     		blt	.L67
 1441              		.loc 1 183 21 discriminator 1 view .LVU310
 1442 01dc B5EEC09A 		vcmpe.f32	s18, #0
 1443 01e0 F1EE10FA 		vmrs	APSR_nzcv, FPSCR
 1444 01e4 0BD4     		bmi	.L69
 1445              	.L67:
 1446              		.loc 1 183 39 discriminator 3 view .LVU311
 1447 01e6 F5EEC08A 		vcmpe.f32	s17, #0
 1448 01ea F1EE10FA 		vmrs	APSR_nzcv, FPSCR
 1449 01ee 00F20582 		bhi	.L70
 1450              		.loc 1 183 57 discriminator 4 view .LVU312
 1451 01f2 B5EEC09A 		vcmpe.f32	s18, #0
 1452 01f6 F1EE10FA 		vmrs	APSR_nzcv, FPSCR
 1453 01fa 40F3FF81 		ble	.L70
 1454              	.L69:
 184:App/Src/calculate.c **** 		UsbPrintf("left para use mode 0\n");
 1455              		.loc 1 184 3 is_stmt 1 view .LVU313
 1456 01fe 5648     		ldr	r0, .L171+24
ARM GAS  C:\Users\86158\AppData\Local\Temp\cckMY1rk.s 			page 33


 1457 0200 FFF7FEFF 		bl	UsbPrintf
 1458              	.LVL161:
 185:App/Src/calculate.c **** 		for (i = 0; i < 20; i++) {
 1459              		.loc 1 185 3 view .LVU314
 174:App/Src/calculate.c **** 
 1460              		.loc 1 174 7 is_stmt 0 view .LVU315
 1461 0204 9FED529A 		vldr.32	s18, .L171+16
 1462              	.LVL162:
 173:App/Src/calculate.c **** 	maxB = 990;
 1463              		.loc 1 173 7 view .LVU316
 1464 0208 F2EE049A 		vmov.f32	s19, #1.0e+1
 1465              		.loc 1 185 10 view .LVU317
 1466 020c 0026     		movs	r6, #0
 1467              		.loc 1 185 3 view .LVU318
 1468 020e 08E0     		b	.L73
 1469              	.LVL163:
 1470              	.L75:
 186:App/Src/calculate.c **** 			cac.B = (minB + maxB) / 2;
 187:App/Src/calculate.c **** 			cac.A = (g_result[TEST_RTC_TEMP_F40] - cac.C) / log(cosh((g_input[TEST_RTC_TEMP_F40] - cac.X0) /
 188:App/Src/calculate.c **** 			error = cac.A * log(cosh((g_input[TEST_RTC_TEMP_F10] - cac.X0) / cac.B)) + cac.C - g_result[TEST
 189:App/Src/calculate.c **** 			if (fabs(error) <= 0.2) {
 190:App/Src/calculate.c **** 				break;
 191:App/Src/calculate.c **** 			} else {
 192:App/Src/calculate.c **** 				if ((minError >= 0 && error >= 0) || (minError <= 0 && error <= 0)) {
 1471              		.loc 1 192 39 discriminator 3 view .LVU319
 1472 0210 F5EEC08A 		vcmpe.f32	s17, #0
 1473 0214 F1EE10FA 		vmrs	APSR_nzcv, FPSCR
 1474 0218 40F28B80 		bls	.L167
 1475              	.L78:
 193:App/Src/calculate.c **** 					minB = cac.B;
 194:App/Src/calculate.c **** 				} else {
 195:App/Src/calculate.c **** 					maxB = cac.B;
 1476              		.loc 1 195 6 is_stmt 1 view .LVU320
 1477              		.loc 1 195 11 is_stmt 0 view .LVU321
 1478 021c 9DED0A9A 		vldr.32	s18, [sp, #40]
 1479              	.LVL164:
 1480              	.L81:
 185:App/Src/calculate.c **** 			cac.B = (minB + maxB) / 2;
 1481              		.loc 1 185 23 is_stmt 1 discriminator 2 view .LVU322
 185:App/Src/calculate.c **** 			cac.B = (minB + maxB) / 2;
 1482              		.loc 1 185 24 is_stmt 0 discriminator 2 view .LVU323
 1483 0220 0136     		adds	r6, r6, #1
 1484              	.LVL165:
 1485              	.L73:
 185:App/Src/calculate.c **** 			cac.B = (minB + maxB) / 2;
 1486              		.loc 1 185 15 is_stmt 1 discriminator 1 view .LVU324
 185:App/Src/calculate.c **** 			cac.B = (minB + maxB) / 2;
 1487              		.loc 1 185 3 is_stmt 0 discriminator 1 view .LVU325
 1488 0222 132E     		cmp	r6, #19
 1489 0224 00F39A80 		bgt	.L74
 186:App/Src/calculate.c **** 			cac.B = (minB + maxB) / 2;
 1490              		.loc 1 186 4 is_stmt 1 view .LVU326
 186:App/Src/calculate.c **** 			cac.B = (minB + maxB) / 2;
 1491              		.loc 1 186 18 is_stmt 0 view .LVU327
 1492 0228 39EE898A 		vadd.f32	s16, s19, s18
 1493              	.LVL166:
 186:App/Src/calculate.c **** 			cac.B = (minB + maxB) / 2;
ARM GAS  C:\Users\86158\AppData\Local\Temp\cckMY1rk.s 			page 34


 1494              		.loc 1 186 26 view .LVU328
 1495 022c F6EE007A 		vmov.f32	s15, #5.0e-1
 1496 0230 28EE278A 		vmul.f32	s16, s16, s15
 186:App/Src/calculate.c **** 			cac.B = (minB + maxB) / 2;
 1497              		.loc 1 186 10 view .LVU329
 1498 0234 8DED0A8A 		vstr.32	s16, [sp, #40]
 187:App/Src/calculate.c **** 			error = cac.A * log(cosh((g_input[TEST_RTC_TEMP_F10] - cac.X0) / cac.B)) + cac.C - g_result[TEST
 1499              		.loc 1 187 4 is_stmt 1 view .LVU330
 187:App/Src/calculate.c **** 			error = cac.A * log(cosh((g_input[TEST_RTC_TEMP_F10] - cac.X0) / cac.B)) + cac.C - g_result[TEST
 1500              		.loc 1 187 21 is_stmt 0 view .LVU331
 1501 0238 444F     		ldr	r7, .L171+12
 1502 023a 97ED007A 		vldr.32	s14, [r7]
 187:App/Src/calculate.c **** 			error = cac.A * log(cosh((g_input[TEST_RTC_TEMP_F10] - cac.X0) / cac.B)) + cac.C - g_result[TEST
 1503              		.loc 1 187 41 view .LVU332
 1504 023e DDED0C7A 		vldr.32	s15, [sp, #48]
 1505 0242 77EE677A 		vsub.f32	s15, s14, s15
 1506 0246 17EE900A 		vmov	r0, s15
 1507 024a FFF7FEFF 		bl	__aeabi_f2d
 1508              	.LVL167:
 1509 024e 0446     		mov	r4, r0
 1510 0250 0D46     		mov	r5, r1
 187:App/Src/calculate.c **** 			error = cac.A * log(cosh((g_input[TEST_RTC_TEMP_F10] - cac.X0) / cac.B)) + cac.C - g_result[TEST
 1511              		.loc 1 187 69 view .LVU333
 1512 0252 DFF8F480 		ldr	r8, .L171+8
 1513 0256 D8ED007A 		vldr.32	s15, [r8]
 187:App/Src/calculate.c **** 			error = cac.A * log(cosh((g_input[TEST_RTC_TEMP_F10] - cac.X0) / cac.B)) + cac.C - g_result[TEST
 1514              		.loc 1 187 94 view .LVU334
 1515 025a 9DED0B7A 		vldr.32	s14, [sp, #44]
 187:App/Src/calculate.c **** 			error = cac.A * log(cosh((g_input[TEST_RTC_TEMP_F10] - cac.X0) / cac.B)) + cac.C - g_result[TEST
 1516              		.loc 1 187 89 view .LVU335
 1517 025e 77EEC77A 		vsub.f32	s15, s15, s14
 187:App/Src/calculate.c **** 			error = cac.A * log(cosh((g_input[TEST_RTC_TEMP_F10] - cac.X0) / cac.B)) + cac.C - g_result[TEST
 1518              		.loc 1 187 52 view .LVU336
 1519 0262 C7EE887A 		vdiv.f32	s15, s15, s16
 1520 0266 17EE900A 		vmov	r0, s15
 1521 026a FFF7FEFF 		bl	__aeabi_f2d
 1522              	.LVL168:
 1523 026e 41EC100B 		vmov	d0, r0, r1
 1524 0272 FFF7FEFF 		bl	cosh
 1525              	.LVL169:
 1526 0276 FFF7FEFF 		bl	log
 1527              	.LVL170:
 1528 027a 53EC102B 		vmov	r2, r3, d0
 187:App/Src/calculate.c **** 			error = cac.A * log(cosh((g_input[TEST_RTC_TEMP_F10] - cac.X0) / cac.B)) + cac.C - g_result[TEST
 1529              		.loc 1 187 50 view .LVU337
 1530 027e 2046     		mov	r0, r4
 1531 0280 2946     		mov	r1, r5
 1532 0282 FFF7FEFF 		bl	__aeabi_ddiv
 1533              	.LVL171:
 1534 0286 FFF7FEFF 		bl	__aeabi_d2f
 1535              	.LVL172:
 187:App/Src/calculate.c **** 			error = cac.A * log(cosh((g_input[TEST_RTC_TEMP_F10] - cac.X0) / cac.B)) + cac.C - g_result[TEST
 1536              		.loc 1 187 10 view .LVU338
 1537 028a 0990     		str	r0, [sp, #36]	@ float
 188:App/Src/calculate.c **** 			if (fabs(error) <= 0.2) {
 1538              		.loc 1 188 4 is_stmt 1 view .LVU339
 188:App/Src/calculate.c **** 			if (fabs(error) <= 0.2) {
ARM GAS  C:\Users\86158\AppData\Local\Temp\cckMY1rk.s 			page 35


 1539              		.loc 1 188 15 is_stmt 0 view .LVU340
 1540 028c FFF7FEFF 		bl	__aeabi_f2d
 1541              	.LVL173:
 1542 0290 0446     		mov	r4, r0
 1543 0292 0D46     		mov	r5, r1
 188:App/Src/calculate.c **** 			if (fabs(error) <= 0.2) {
 1544              		.loc 1 188 37 view .LVU341
 1545 0294 D8ED017A 		vldr.32	s15, [r8, #4]
 188:App/Src/calculate.c **** 			if (fabs(error) <= 0.2) {
 1546              		.loc 1 188 62 view .LVU342
 1547 0298 9DED0B7A 		vldr.32	s14, [sp, #44]
 188:App/Src/calculate.c **** 			if (fabs(error) <= 0.2) {
 1548              		.loc 1 188 57 view .LVU343
 1549 029c 77EEC77A 		vsub.f32	s15, s15, s14
 188:App/Src/calculate.c **** 			if (fabs(error) <= 0.2) {
 1550              		.loc 1 188 20 view .LVU344
 1551 02a0 9DED0A7A 		vldr.32	s14, [sp, #40]
 1552 02a4 C7EE877A 		vdiv.f32	s15, s15, s14
 1553 02a8 17EE900A 		vmov	r0, s15
 1554 02ac FFF7FEFF 		bl	__aeabi_f2d
 1555              	.LVL174:
 1556 02b0 41EC100B 		vmov	d0, r0, r1
 1557 02b4 FFF7FEFF 		bl	cosh
 1558              	.LVL175:
 1559 02b8 FFF7FEFF 		bl	log
 1560              	.LVL176:
 1561 02bc 53EC102B 		vmov	r2, r3, d0
 188:App/Src/calculate.c **** 			if (fabs(error) <= 0.2) {
 1562              		.loc 1 188 18 view .LVU345
 1563 02c0 2046     		mov	r0, r4
 1564 02c2 2946     		mov	r1, r5
 1565 02c4 FFF7FEFF 		bl	__aeabi_dmul
 1566              	.LVL177:
 1567 02c8 0446     		mov	r4, r0
 1568 02ca 0D46     		mov	r5, r1
 188:App/Src/calculate.c **** 			if (fabs(error) <= 0.2) {
 1569              		.loc 1 188 82 view .LVU346
 1570 02cc 0C98     		ldr	r0, [sp, #48]	@ float
 1571 02ce FFF7FEFF 		bl	__aeabi_f2d
 1572              	.LVL178:
 1573 02d2 0246     		mov	r2, r0
 1574 02d4 0B46     		mov	r3, r1
 188:App/Src/calculate.c **** 			if (fabs(error) <= 0.2) {
 1575              		.loc 1 188 77 view .LVU347
 1576 02d6 2046     		mov	r0, r4
 1577 02d8 2946     		mov	r1, r5
 1578 02da FFF7FEFF 		bl	__aeabi_dadd
 1579              	.LVL179:
 1580 02de 0446     		mov	r4, r0
 1581 02e0 0D46     		mov	r5, r1
 188:App/Src/calculate.c **** 			if (fabs(error) <= 0.2) {
 1582              		.loc 1 188 95 view .LVU348
 1583 02e2 7868     		ldr	r0, [r7, #4]	@ float
 1584 02e4 FFF7FEFF 		bl	__aeabi_f2d
 1585              	.LVL180:
 1586 02e8 0246     		mov	r2, r0
 1587 02ea 0B46     		mov	r3, r1
ARM GAS  C:\Users\86158\AppData\Local\Temp\cckMY1rk.s 			page 36


 188:App/Src/calculate.c **** 			if (fabs(error) <= 0.2) {
 1588              		.loc 1 188 85 view .LVU349
 1589 02ec 2046     		mov	r0, r4
 1590 02ee 2946     		mov	r1, r5
 1591 02f0 FFF7FEFF 		bl	__aeabi_dsub
 1592              	.LVL181:
 188:App/Src/calculate.c **** 			if (fabs(error) <= 0.2) {
 1593              		.loc 1 188 10 view .LVU350
 1594 02f4 FFF7FEFF 		bl	__aeabi_d2f
 1595              	.LVL182:
 1596 02f8 08EE100A 		vmov	s16, r0
 1597              	.LVL183:
 189:App/Src/calculate.c **** 				break;
 1598              		.loc 1 189 4 is_stmt 1 view .LVU351
 189:App/Src/calculate.c **** 				break;
 1599              		.loc 1 189 8 is_stmt 0 view .LVU352
 1600 02fc F0EEC87A 		vabs.f32	s15, s16
 1601 0300 17EE900A 		vmov	r0, s15
 1602              	.LVL184:
 189:App/Src/calculate.c **** 				break;
 1603              		.loc 1 189 8 view .LVU353
 1604 0304 FFF7FEFF 		bl	__aeabi_f2d
 1605              	.LVL185:
 189:App/Src/calculate.c **** 				break;
 1606              		.loc 1 189 7 view .LVU354
 1607 0308 0DA3     		adr	r3, .L171
 1608 030a D3E90023 		ldrd	r2, [r3]
 1609 030e FFF7FEFF 		bl	__aeabi_dcmple
 1610              	.LVL186:
 1611 0312 18BB     		cbnz	r0, .L74
 192:App/Src/calculate.c **** 					minB = cac.B;
 1612              		.loc 1 192 5 is_stmt 1 view .LVU355
 192:App/Src/calculate.c **** 					minB = cac.B;
 1613              		.loc 1 192 8 is_stmt 0 view .LVU356
 1614 0314 F5EEC08A 		vcmpe.f32	s17, #0
 1615 0318 F1EE10FA 		vmrs	APSR_nzcv, FPSCR
 1616 031c FFF678AF 		blt	.L75
 192:App/Src/calculate.c **** 					minB = cac.B;
 1617              		.loc 1 192 24 discriminator 1 view .LVU357
 1618 0320 B5EEC08A 		vcmpe.f32	s16, #0
 1619 0324 F1EE10FA 		vmrs	APSR_nzcv, FPSCR
 1620 0328 FFF672AF 		blt	.L75
 1621              	.L77:
 193:App/Src/calculate.c **** 				} else {
 1622              		.loc 1 193 6 is_stmt 1 view .LVU358
 193:App/Src/calculate.c **** 				} else {
 1623              		.loc 1 193 11 is_stmt 0 view .LVU359
 1624 032c DDED0A9A 		vldr.32	s19, [sp, #40]
 1625              	.LVL187:
 193:App/Src/calculate.c **** 				} else {
 1626              		.loc 1 193 11 view .LVU360
 1627 0330 76E7     		b	.L81
 1628              	.L167:
 192:App/Src/calculate.c **** 					minB = cac.B;
 1629              		.loc 1 192 57 discriminator 4 view .LVU361
 1630 0332 B5EEC08A 		vcmpe.f32	s16, #0
 1631 0336 F1EE10FA 		vmrs	APSR_nzcv, FPSCR
ARM GAS  C:\Users\86158\AppData\Local\Temp\cckMY1rk.s 			page 37


 1632 033a 3FF66FAF 		bhi	.L78
 1633 033e F5E7     		b	.L77
 1634              	.L172:
 1635              		.align	3
 1636              	.L171:
 1637 0340 9A999999 		.word	-1717986918
 1638 0344 9999C93F 		.word	1070176665
 1639 0348 00000000 		.word	.LANCHOR1
 1640 034c 00000000 		.word	.LANCHOR2
 1641 0350 00807744 		.word	1148682240
 1642 0354 00000000 		.word	.LC9
 1643 0358 14000000 		.word	.LC10
 1644              	.L74:
 196:App/Src/calculate.c **** 				}
 197:App/Src/calculate.c **** 			}
 198:App/Src/calculate.c **** 		}
 199:App/Src/calculate.c **** 		if (fabs(error) <= 1) {
 1645              		.loc 1 199 3 is_stmt 1 view .LVU362
 1646              		.loc 1 199 7 is_stmt 0 view .LVU363
 1647 035c F0EEC87A 		vabs.f32	s15, s16
 1648              		.loc 1 199 6 view .LVU364
 1649 0360 B7EE007A 		vmov.f32	s14, #1.0e+0
 1650 0364 F4EEC77A 		vcmpe.f32	s15, s14
 1651 0368 F1EE10FA 		vmrs	APSR_nzcv, FPSCR
 1652 036c 00F22F81 		bhi	.L162
 200:App/Src/calculate.c **** 			cac.mode = 0;
 1653              		.loc 1 200 4 is_stmt 1 view .LVU365
 1654              		.loc 1 200 13 is_stmt 0 view .LVU366
 1655 0370 0023     		movs	r3, #0
 1656 0372 8DF83430 		strb	r3, [sp, #52]
 201:App/Src/calculate.c **** 			copy_parameter(&g_left, &cac);
 1657              		.loc 1 201 4 is_stmt 1 view .LVU367
 1658 0376 09A9     		add	r1, sp, #36
 1659 0378 9748     		ldr	r0, .L173
 1660 037a FFF7FEFF 		bl	copy_parameter
 1661              	.LVL188:
 202:App/Src/calculate.c **** 			UsbPrintf("min error:%.2f\n", error);
 1662              		.loc 1 202 4 view .LVU368
 1663 037e 18EE100A 		vmov	r0, s16
 1664 0382 FFF7FEFF 		bl	__aeabi_f2d
 1665              	.LVL189:
 1666 0386 0246     		mov	r2, r0
 1667 0388 0B46     		mov	r3, r1
 1668 038a 9448     		ldr	r0, .L173+4
 1669 038c FFF7FEFF 		bl	UsbPrintf
 1670              	.LVL190:
 1671              	.L85:
 203:App/Src/calculate.c **** 		} else {
 204:App/Src/calculate.c **** 			UsbPrintf("check left para error, step 1!\n");
 205:App/Src/calculate.c **** 			return 0;
 206:App/Src/calculate.c **** 		}
 207:App/Src/calculate.c **** 	} else {
 208:App/Src/calculate.c **** 		cac.B = minB;// 
 209:App/Src/calculate.c **** 		cac.A = (g_result[TEST_RTC_TEMP_Z29] - g_result[TEST_RTC_TEMP_F40]) / (1 - cosh((g_input[TEST_RTC
 210:App/Src/calculate.c **** 		cac.C = g_result[TEST_RTC_TEMP_Z29] - cac.A;
 211:App/Src/calculate.c **** 		minError = cac.A * cosh((g_input[TEST_RTC_TEMP_F10] - cac.X0) / cac.B) + cac.C - g_result[TEST_RT
 212:App/Src/calculate.c **** 		cac.B = maxB;// 
ARM GAS  C:\Users\86158\AppData\Local\Temp\cckMY1rk.s 			page 38


 213:App/Src/calculate.c **** 		cac.A = (g_result[TEST_RTC_TEMP_Z29] - g_result[TEST_RTC_TEMP_F40]) / (1 - cosh((g_input[TEST_RTC
 214:App/Src/calculate.c **** 		cac.C = g_result[TEST_RTC_TEMP_Z29] - cac.A;
 215:App/Src/calculate.c **** 		maxError = cac.A * cosh((g_input[TEST_RTC_TEMP_F10] - cac.X0) / cac.B) + cac.C - g_result[TEST_RT
 216:App/Src/calculate.c **** 		UsbPrintf("min:%.2f, max:%.2f\n", minError, maxError);
 217:App/Src/calculate.c **** 		if ((minError > 0 && maxError < 0 ) || (minError < 0 && maxError > 0)) {
 218:App/Src/calculate.c **** 			UsbPrintf("left para use mode 1\n");
 219:App/Src/calculate.c **** 			for (i = 0; i < 20; i++) {
 220:App/Src/calculate.c **** 				cac.B = (minB + maxB) / 2;
 221:App/Src/calculate.c **** 				cac.A = (g_result[TEST_RTC_TEMP_Z29] - g_result[TEST_RTC_TEMP_F40]) / (1 - cosh((g_input[TEST_R
 222:App/Src/calculate.c **** 				cac.C = g_result[TEST_RTC_TEMP_Z29] - cac.A;
 223:App/Src/calculate.c **** 				error = cac.A * cosh((g_input[TEST_RTC_TEMP_F10] - cac.X0) / cac.B) + cac.C - g_result[TEST_RTC
 224:App/Src/calculate.c **** 				if (fabs(error) <= 0.2) {
 225:App/Src/calculate.c **** 					break;
 226:App/Src/calculate.c **** 				} else {
 227:App/Src/calculate.c **** 					if ((minError >= 0 && error >= 0) || (minError <= 0 && error <= 0)) {
 228:App/Src/calculate.c **** 						minB = cac.B;
 229:App/Src/calculate.c **** 					} else {
 230:App/Src/calculate.c **** 						maxB = cac.B;
 231:App/Src/calculate.c **** 					}
 232:App/Src/calculate.c **** 				}
 233:App/Src/calculate.c **** 			}
 234:App/Src/calculate.c **** 			if (fabs(error) <= 1) {
 235:App/Src/calculate.c **** 				cac.mode = 1;
 236:App/Src/calculate.c **** 				copy_parameter(&g_left, &cac);
 237:App/Src/calculate.c **** 				UsbPrintf("min error:%.2f\n", error);
 238:App/Src/calculate.c **** 			} else {
 239:App/Src/calculate.c **** 				UsbPrintf("check left para error, step 2!\n");
 240:App/Src/calculate.c **** 				return 0;
 241:App/Src/calculate.c **** 			}
 242:App/Src/calculate.c **** 		} else {
 243:App/Src/calculate.c **** 			UsbPrintf("check left para error, step 0!\n");
 244:App/Src/calculate.c **** 			return 0;
 245:App/Src/calculate.c **** 		}
 246:App/Src/calculate.c **** 	}
 247:App/Src/calculate.c **** 	UsbPrintf("left:\tA:%.2f, B:%.2f, C:%.2f; X0:%.2f, mode:%d\n", g_left.A, g_left.B, g_left.C, g_lef
 1672              		.loc 1 247 2 view .LVU369
 1673              		.loc 1 247 71 is_stmt 0 view .LVU370
 1674 0390 914B     		ldr	r3, .L173
 1675              		.loc 1 247 81 view .LVU371
 1676 0392 5E68     		ldr	r6, [r3, #4]	@ float
 1677              		.loc 1 247 91 view .LVU372
 1678 0394 DF68     		ldr	r7, [r3, #12]	@ float
 1679              		.loc 1 247 101 view .LVU373
 1680 0396 D3F80880 		ldr	r8, [r3, #8]	@ float
 1681              		.loc 1 247 112 view .LVU374
 1682 039a 93F81090 		ldrb	r9, [r3, #16]	@ zero_extendqisi2
 1683              		.loc 1 247 2 view .LVU375
 1684 039e 1868     		ldr	r0, [r3]	@ float
 1685 03a0 FFF7FEFF 		bl	__aeabi_f2d
 1686              	.LVL191:
 1687 03a4 0446     		mov	r4, r0
 1688 03a6 0D46     		mov	r5, r1
 1689 03a8 CDF81890 		str	r9, [sp, #24]
 1690 03ac 4046     		mov	r0, r8	@ float
 1691 03ae FFF7FEFF 		bl	__aeabi_f2d
 1692              	.LVL192:
 1693 03b2 CDE90401 		strd	r0, [sp, #16]
ARM GAS  C:\Users\86158\AppData\Local\Temp\cckMY1rk.s 			page 39


 1694 03b6 3846     		mov	r0, r7	@ float
 1695 03b8 FFF7FEFF 		bl	__aeabi_f2d
 1696              	.LVL193:
 1697 03bc CDE90201 		strd	r0, [sp, #8]
 1698 03c0 3046     		mov	r0, r6	@ float
 1699 03c2 FFF7FEFF 		bl	__aeabi_f2d
 1700              	.LVL194:
 1701 03c6 CDE90001 		strd	r0, [sp]
 1702 03ca 2246     		mov	r2, r4
 1703 03cc 2B46     		mov	r3, r5
 1704 03ce 8448     		ldr	r0, .L173+8
 1705 03d0 FFF7FEFF 		bl	UsbPrintf
 1706              	.LVL195:
 248:App/Src/calculate.c **** 
 249:App/Src/calculate.c **** //-------------------------------------------------------------------------------------------------
 250:App/Src/calculate.c **** 	cac.X0 = g_input[TEST_RTC_TEMP_Z29];
 1707              		.loc 1 250 2 is_stmt 1 view .LVU376
 1708              		.loc 1 250 18 is_stmt 0 view .LVU377
 1709 03d4 834D     		ldr	r5, .L173+12
 1710 03d6 95ED029A 		vldr.32	s18, [r5, #8]
 1711              	.LVL196:
 1712              		.loc 1 250 9 view .LVU378
 1713 03da 8DED0B9A 		vstr.32	s18, [sp, #44]
 251:App/Src/calculate.c **** 	cac.C = g_result[TEST_RTC_TEMP_Z29];
 1714              		.loc 1 251 2 is_stmt 1 view .LVU379
 1715              		.loc 1 251 18 is_stmt 0 view .LVU380
 1716 03de 824C     		ldr	r4, .L173+16
 1717 03e0 D4ED027A 		vldr.32	s15, [r4, #8]
 1718              		.loc 1 251 8 view .LVU381
 1719 03e4 CDED0C7A 		vstr.32	s15, [sp, #48]
 252:App/Src/calculate.c **** 	minB = 10;
 1720              		.loc 1 252 2 is_stmt 1 view .LVU382
 1721              	.LVL197:
 253:App/Src/calculate.c **** 	maxB = 990;
 1722              		.loc 1 253 2 view .LVU383
 254:App/Src/calculate.c **** 
 255:App/Src/calculate.c **** 	cac.B = minB;// 
 1723              		.loc 1 255 2 view .LVU384
 1724              		.loc 1 255 8 is_stmt 0 view .LVU385
 1725 03e8 F2EE048A 		vmov.f32	s17, #1.0e+1
 1726              	.LVL198:
 1727              		.loc 1 255 8 view .LVU386
 1728 03ec CDED0A8A 		vstr.32	s17, [sp, #40]
 256:App/Src/calculate.c **** 	cac.A = (g_result[TEST_RTC_TEMP_Z85] - cac.C) / log(cosh((g_input[TEST_RTC_TEMP_Z85] - cac.X0) / c
 1729              		.loc 1 256 2 is_stmt 1 view .LVU387
 1730              		.loc 1 256 19 is_stmt 0 view .LVU388
 1731 03f0 94ED047A 		vldr.32	s14, [r4, #16]
 1732              		.loc 1 256 39 view .LVU389
 1733 03f4 77EE677A 		vsub.f32	s15, s14, s15
 1734 03f8 17EE900A 		vmov	r0, s15
 1735 03fc FFF7FEFF 		bl	__aeabi_f2d
 1736              	.LVL199:
 1737 0400 0646     		mov	r6, r0
 1738 0402 0F46     		mov	r7, r1
 1739              		.loc 1 256 67 view .LVU390
 1740 0404 D5ED047A 		vldr.32	s15, [r5, #16]
 1741              		.loc 1 256 87 view .LVU391
ARM GAS  C:\Users\86158\AppData\Local\Temp\cckMY1rk.s 			page 40


 1742 0408 77EEC97A 		vsub.f32	s15, s15, s18
 1743              		.loc 1 256 50 view .LVU392
 1744 040c C7EEA87A 		vdiv.f32	s15, s15, s17
 1745 0410 17EE900A 		vmov	r0, s15
 1746 0414 FFF7FEFF 		bl	__aeabi_f2d
 1747              	.LVL200:
 1748 0418 41EC100B 		vmov	d0, r0, r1
 1749 041c FFF7FEFF 		bl	cosh
 1750              	.LVL201:
 1751 0420 FFF7FEFF 		bl	log
 1752              	.LVL202:
 1753 0424 53EC102B 		vmov	r2, r3, d0
 1754              		.loc 1 256 48 view .LVU393
 1755 0428 3046     		mov	r0, r6
 1756 042a 3946     		mov	r1, r7
 1757 042c FFF7FEFF 		bl	__aeabi_ddiv
 1758              	.LVL203:
 1759 0430 FFF7FEFF 		bl	__aeabi_d2f
 1760              	.LVL204:
 1761              		.loc 1 256 8 view .LVU394
 1762 0434 0990     		str	r0, [sp, #36]	@ float
 257:App/Src/calculate.c **** 	minError = cac.A * log(cosh((g_input[TEST_RTC_TEMP_Z60] - cac.X0) / cac.B)) + cac.C - g_result[TES
 1763              		.loc 1 257 2 is_stmt 1 view .LVU395
 1764              		.loc 1 257 16 is_stmt 0 view .LVU396
 1765 0436 FFF7FEFF 		bl	__aeabi_f2d
 1766              	.LVL205:
 1767 043a 0646     		mov	r6, r0
 1768 043c 0F46     		mov	r7, r1
 1769              		.loc 1 257 38 view .LVU397
 1770 043e D5ED037A 		vldr.32	s15, [r5, #12]
 1771              		.loc 1 257 63 view .LVU398
 1772 0442 9DED0B7A 		vldr.32	s14, [sp, #44]
 1773              		.loc 1 257 58 view .LVU399
 1774 0446 77EEC77A 		vsub.f32	s15, s15, s14
 1775              		.loc 1 257 21 view .LVU400
 1776 044a 9DED0A7A 		vldr.32	s14, [sp, #40]
 1777 044e C7EE877A 		vdiv.f32	s15, s15, s14
 1778 0452 17EE900A 		vmov	r0, s15
 1779 0456 FFF7FEFF 		bl	__aeabi_f2d
 1780              	.LVL206:
 1781 045a 41EC100B 		vmov	d0, r0, r1
 1782 045e FFF7FEFF 		bl	cosh
 1783              	.LVL207:
 1784 0462 FFF7FEFF 		bl	log
 1785              	.LVL208:
 1786 0466 53EC102B 		vmov	r2, r3, d0
 1787              		.loc 1 257 19 view .LVU401
 1788 046a 3046     		mov	r0, r6
 1789 046c 3946     		mov	r1, r7
 1790 046e FFF7FEFF 		bl	__aeabi_dmul
 1791              	.LVL209:
 1792 0472 0646     		mov	r6, r0
 1793 0474 0F46     		mov	r7, r1
 1794              		.loc 1 257 83 view .LVU402
 1795 0476 DDED0C9A 		vldr.32	s19, [sp, #48]
 1796 047a 19EE900A 		vmov	r0, s19
 1797 047e FFF7FEFF 		bl	__aeabi_f2d
ARM GAS  C:\Users\86158\AppData\Local\Temp\cckMY1rk.s 			page 41


 1798              	.LVL210:
 1799 0482 0246     		mov	r2, r0
 1800 0484 0B46     		mov	r3, r1
 1801              		.loc 1 257 78 view .LVU403
 1802 0486 3046     		mov	r0, r6
 1803 0488 3946     		mov	r1, r7
 1804 048a FFF7FEFF 		bl	__aeabi_dadd
 1805              	.LVL211:
 1806 048e 0646     		mov	r6, r0
 1807 0490 0F46     		mov	r7, r1
 1808              		.loc 1 257 96 view .LVU404
 1809 0492 E068     		ldr	r0, [r4, #12]	@ float
 1810 0494 FFF7FEFF 		bl	__aeabi_f2d
 1811              	.LVL212:
 1812 0498 0246     		mov	r2, r0
 1813 049a 0B46     		mov	r3, r1
 1814              		.loc 1 257 86 view .LVU405
 1815 049c 3046     		mov	r0, r6
 1816 049e 3946     		mov	r1, r7
 1817 04a0 FFF7FEFF 		bl	__aeabi_dsub
 1818              	.LVL213:
 1819              		.loc 1 257 11 view .LVU406
 1820 04a4 FFF7FEFF 		bl	__aeabi_d2f
 1821              	.LVL214:
 1822 04a8 08EE900A 		vmov	s17, r0
 1823              	.LVL215:
 258:App/Src/calculate.c **** 	cac.B = maxB;// 
 1824              		.loc 1 258 2 is_stmt 1 view .LVU407
 1825              		.loc 1 258 8 is_stmt 0 view .LVU408
 1826 04ac 9FED4F9A 		vldr.32	s18, .L173+20
 1827 04b0 8DED0A9A 		vstr.32	s18, [sp, #40]
 259:App/Src/calculate.c **** 	cac.A = (g_result[TEST_RTC_TEMP_Z85] - cac.C) / log(cosh((g_input[TEST_RTC_TEMP_Z85] - cac.X0) / c
 1828              		.loc 1 259 2 is_stmt 1 view .LVU409
 1829              		.loc 1 259 19 is_stmt 0 view .LVU410
 1830 04b4 D4ED047A 		vldr.32	s15, [r4, #16]
 1831              		.loc 1 259 39 view .LVU411
 1832 04b8 77EEE97A 		vsub.f32	s15, s15, s19
 1833 04bc 17EE900A 		vmov	r0, s15
 1834              	.LVL216:
 1835              		.loc 1 259 39 view .LVU412
 1836 04c0 FFF7FEFF 		bl	__aeabi_f2d
 1837              	.LVL217:
 1838 04c4 0646     		mov	r6, r0
 1839 04c6 0F46     		mov	r7, r1
 1840              		.loc 1 259 67 view .LVU413
 1841 04c8 D5ED047A 		vldr.32	s15, [r5, #16]
 1842              		.loc 1 259 92 view .LVU414
 1843 04cc 9DED0B7A 		vldr.32	s14, [sp, #44]
 1844              		.loc 1 259 87 view .LVU415
 1845 04d0 77EEC77A 		vsub.f32	s15, s15, s14
 1846              		.loc 1 259 50 view .LVU416
 1847 04d4 C7EE897A 		vdiv.f32	s15, s15, s18
 1848 04d8 17EE900A 		vmov	r0, s15
 1849 04dc FFF7FEFF 		bl	__aeabi_f2d
 1850              	.LVL218:
 1851 04e0 41EC100B 		vmov	d0, r0, r1
 1852 04e4 FFF7FEFF 		bl	cosh
ARM GAS  C:\Users\86158\AppData\Local\Temp\cckMY1rk.s 			page 42


 1853              	.LVL219:
 1854 04e8 FFF7FEFF 		bl	log
 1855              	.LVL220:
 1856 04ec 53EC102B 		vmov	r2, r3, d0
 1857              		.loc 1 259 48 view .LVU417
 1858 04f0 3046     		mov	r0, r6
 1859 04f2 3946     		mov	r1, r7
 1860 04f4 FFF7FEFF 		bl	__aeabi_ddiv
 1861              	.LVL221:
 1862 04f8 FFF7FEFF 		bl	__aeabi_d2f
 1863              	.LVL222:
 1864              		.loc 1 259 8 view .LVU418
 1865 04fc 0990     		str	r0, [sp, #36]	@ float
 260:App/Src/calculate.c **** 	maxError = cac.A * log(cosh((g_input[TEST_RTC_TEMP_Z60] - cac.X0) / cac.B)) + cac.C - g_result[TES
 1866              		.loc 1 260 2 is_stmt 1 view .LVU419
 1867              		.loc 1 260 16 is_stmt 0 view .LVU420
 1868 04fe FFF7FEFF 		bl	__aeabi_f2d
 1869              	.LVL223:
 1870 0502 0646     		mov	r6, r0
 1871 0504 0F46     		mov	r7, r1
 1872              		.loc 1 260 38 view .LVU421
 1873 0506 D5ED037A 		vldr.32	s15, [r5, #12]
 1874              		.loc 1 260 63 view .LVU422
 1875 050a 9DED0B7A 		vldr.32	s14, [sp, #44]
 1876              		.loc 1 260 58 view .LVU423
 1877 050e 77EEC77A 		vsub.f32	s15, s15, s14
 1878              		.loc 1 260 21 view .LVU424
 1879 0512 9DED0A7A 		vldr.32	s14, [sp, #40]
 1880 0516 C7EE877A 		vdiv.f32	s15, s15, s14
 1881 051a 17EE900A 		vmov	r0, s15
 1882 051e FFF7FEFF 		bl	__aeabi_f2d
 1883              	.LVL224:
 1884 0522 41EC100B 		vmov	d0, r0, r1
 1885 0526 FFF7FEFF 		bl	cosh
 1886              	.LVL225:
 1887 052a FFF7FEFF 		bl	log
 1888              	.LVL226:
 1889 052e 53EC102B 		vmov	r2, r3, d0
 1890              		.loc 1 260 19 view .LVU425
 1891 0532 3046     		mov	r0, r6
 1892 0534 3946     		mov	r1, r7
 1893 0536 FFF7FEFF 		bl	__aeabi_dmul
 1894              	.LVL227:
 1895 053a 0646     		mov	r6, r0
 1896 053c 0F46     		mov	r7, r1
 1897              		.loc 1 260 83 view .LVU426
 1898 053e 0C98     		ldr	r0, [sp, #48]	@ float
 1899 0540 FFF7FEFF 		bl	__aeabi_f2d
 1900              	.LVL228:
 1901 0544 0246     		mov	r2, r0
 1902 0546 0B46     		mov	r3, r1
 1903              		.loc 1 260 78 view .LVU427
 1904 0548 3046     		mov	r0, r6
 1905 054a 3946     		mov	r1, r7
 1906 054c FFF7FEFF 		bl	__aeabi_dadd
 1907              	.LVL229:
 1908 0550 0646     		mov	r6, r0
ARM GAS  C:\Users\86158\AppData\Local\Temp\cckMY1rk.s 			page 43


 1909 0552 0F46     		mov	r7, r1
 1910              		.loc 1 260 96 view .LVU428
 1911 0554 E068     		ldr	r0, [r4, #12]	@ float
 1912 0556 FFF7FEFF 		bl	__aeabi_f2d
 1913              	.LVL230:
 1914 055a 0246     		mov	r2, r0
 1915 055c 0B46     		mov	r3, r1
 1916              		.loc 1 260 86 view .LVU429
 1917 055e 3046     		mov	r0, r6
 1918 0560 3946     		mov	r1, r7
 1919 0562 FFF7FEFF 		bl	__aeabi_dsub
 1920              	.LVL231:
 1921              		.loc 1 260 11 view .LVU430
 1922 0566 FFF7FEFF 		bl	__aeabi_d2f
 1923              	.LVL232:
 1924 056a 09EE100A 		vmov	s18, r0
 1925              	.LVL233:
 261:App/Src/calculate.c **** 	UsbPrintf("min:%.2f, max:%.2f\n", minError, maxError);
 1926              		.loc 1 261 2 is_stmt 1 view .LVU431
 1927 056e 18EE900A 		vmov	r0, s17
 1928              	.LVL234:
 1929              		.loc 1 261 2 is_stmt 0 view .LVU432
 1930 0572 FFF7FEFF 		bl	__aeabi_f2d
 1931              	.LVL235:
 1932 0576 0446     		mov	r4, r0
 1933 0578 0D46     		mov	r5, r1
 1934 057a 19EE100A 		vmov	r0, s18
 1935 057e FFF7FEFF 		bl	__aeabi_f2d
 1936              	.LVL236:
 1937 0582 CDE90001 		strd	r0, [sp]
 1938 0586 2246     		mov	r2, r4
 1939 0588 2B46     		mov	r3, r5
 1940 058a 1948     		ldr	r0, .L173+24
 1941 058c FFF7FEFF 		bl	UsbPrintf
 1942              	.LVL237:
 262:App/Src/calculate.c **** 	if ((minError >= 0 && maxError < 0 ) || (minError <= 0 && maxError > 0)) {//存在中间解
 1943              		.loc 1 262 2 is_stmt 1 view .LVU433
 1944              		.loc 1 262 5 is_stmt 0 view .LVU434
 1945 0590 F5EEC08A 		vcmpe.f32	s17, #0
 1946 0594 F1EE10FA 		vmrs	APSR_nzcv, FPSCR
 1947 0598 04DB     		blt	.L105
 1948              		.loc 1 262 21 discriminator 1 view .LVU435
 1949 059a B5EEC09A 		vcmpe.f32	s18, #0
 1950 059e F1EE10FA 		vmrs	APSR_nzcv, FPSCR
 1951 05a2 0BD4     		bmi	.L107
 1952              	.L105:
 1953              		.loc 1 262 39 discriminator 3 view .LVU436
 1954 05a4 F5EEC08A 		vcmpe.f32	s17, #0
 1955 05a8 F1EE10FA 		vmrs	APSR_nzcv, FPSCR
 1956 05ac 00F20483 		bhi	.L108
 1957              		.loc 1 262 57 discriminator 4 view .LVU437
 1958 05b0 B5EEC09A 		vcmpe.f32	s18, #0
 1959 05b4 F1EE10FA 		vmrs	APSR_nzcv, FPSCR
 1960 05b8 40F3FE82 		ble	.L108
 1961              	.L107:
 263:App/Src/calculate.c **** 		UsbPrintf("right para use mode 0\n");
 1962              		.loc 1 263 3 is_stmt 1 view .LVU438
ARM GAS  C:\Users\86158\AppData\Local\Temp\cckMY1rk.s 			page 44


 1963 05bc 0D48     		ldr	r0, .L173+28
 1964 05be FFF7FEFF 		bl	UsbPrintf
 1965              	.LVL238:
 264:App/Src/calculate.c **** 		for (i = 0; i < 20; i++) {
 1966              		.loc 1 264 3 view .LVU439
 253:App/Src/calculate.c **** 
 1967              		.loc 1 253 7 is_stmt 0 view .LVU440
 1968 05c2 9FED0A9A 		vldr.32	s18, .L173+20
 1969              	.LVL239:
 252:App/Src/calculate.c **** 	maxB = 990;
 1970              		.loc 1 252 7 view .LVU441
 1971 05c6 F2EE049A 		vmov.f32	s19, #1.0e+1
 1972              		.loc 1 264 10 view .LVU442
 1973 05ca 0026     		movs	r6, #0
 1974              		.loc 1 264 3 view .LVU443
 1975 05cc 08E2     		b	.L111
 1976              	.LVL240:
 1977              	.L162:
 204:App/Src/calculate.c **** 			return 0;
 1978              		.loc 1 204 4 is_stmt 1 view .LVU444
 1979 05ce 0A48     		ldr	r0, .L173+32
 1980 05d0 FFF7FEFF 		bl	UsbPrintf
 1981              	.LVL241:
 205:App/Src/calculate.c **** 		}
 1982              		.loc 1 205 4 view .LVU445
 205:App/Src/calculate.c **** 		}
 1983              		.loc 1 205 11 is_stmt 0 view .LVU446
 1984 05d4 0020     		movs	r0, #0
 1985 05d6 D1E2     		b	.L86
 1986              	.L174:
 1987              		.align	2
 1988              	.L173:
 1989 05d8 00000000 		.word	.LANCHOR3
 1990 05dc 2C000000 		.word	.LC11
 1991 05e0 B4000000 		.word	.LC16
 1992 05e4 00000000 		.word	.LANCHOR1
 1993 05e8 00000000 		.word	.LANCHOR2
 1994 05ec 00807744 		.word	1148682240
 1995 05f0 00000000 		.word	.LC9
 1996 05f4 E4000000 		.word	.LC17
 1997 05f8 3C000000 		.word	.LC12
 1998              	.LVL242:
 1999              	.L70:
 208:App/Src/calculate.c **** 		cac.A = (g_result[TEST_RTC_TEMP_Z29] - g_result[TEST_RTC_TEMP_F40]) / (1 - cosh((g_input[TEST_RTC
 2000              		.loc 1 208 3 is_stmt 1 view .LVU447
 208:App/Src/calculate.c **** 		cac.A = (g_result[TEST_RTC_TEMP_Z29] - g_result[TEST_RTC_TEMP_F40]) / (1 - cosh((g_input[TEST_RTC
 2001              		.loc 1 208 9 is_stmt 0 view .LVU448
 2002 05fc F2EE048A 		vmov.f32	s17, #1.0e+1
 2003              	.LVL243:
 208:App/Src/calculate.c **** 		cac.A = (g_result[TEST_RTC_TEMP_Z29] - g_result[TEST_RTC_TEMP_F40]) / (1 - cosh((g_input[TEST_RTC
 2004              		.loc 1 208 9 view .LVU449
 2005 0600 CDED0A8A 		vstr.32	s17, [sp, #40]
 209:App/Src/calculate.c **** 		cac.C = g_result[TEST_RTC_TEMP_Z29] - cac.A;
 2006              		.loc 1 209 3 is_stmt 1 view .LVU450
 209:App/Src/calculate.c **** 		cac.C = g_result[TEST_RTC_TEMP_Z29] - cac.A;
 2007              		.loc 1 209 20 is_stmt 0 view .LVU451
 2008 0604 E64C     		ldr	r4, .L175+8
ARM GAS  C:\Users\86158\AppData\Local\Temp\cckMY1rk.s 			page 45


 2009 0606 94ED027A 		vldr.32	s14, [r4, #8]
 209:App/Src/calculate.c **** 		cac.C = g_result[TEST_RTC_TEMP_Z29] - cac.A;
 2010              		.loc 1 209 50 view .LVU452
 2011 060a D4ED007A 		vldr.32	s15, [r4]
 209:App/Src/calculate.c **** 		cac.C = g_result[TEST_RTC_TEMP_Z29] - cac.A;
 2012              		.loc 1 209 40 view .LVU453
 2013 060e 77EE677A 		vsub.f32	s15, s14, s15
 2014 0612 17EE900A 		vmov	r0, s15
 2015 0616 FFF7FEFF 		bl	__aeabi_f2d
 2016              	.LVL244:
 2017 061a 0646     		mov	r6, r0
 2018 061c 0F46     		mov	r7, r1
 209:App/Src/calculate.c **** 		cac.C = g_result[TEST_RTC_TEMP_Z29] - cac.A;
 2019              		.loc 1 209 91 view .LVU454
 2020 061e E14D     		ldr	r5, .L175+12
 2021 0620 D5ED007A 		vldr.32	s15, [r5]
 209:App/Src/calculate.c **** 		cac.C = g_result[TEST_RTC_TEMP_Z29] - cac.A;
 2022              		.loc 1 209 116 view .LVU455
 2023 0624 9DED0B7A 		vldr.32	s14, [sp, #44]
 209:App/Src/calculate.c **** 		cac.C = g_result[TEST_RTC_TEMP_Z29] - cac.A;
 2024              		.loc 1 209 111 view .LVU456
 2025 0628 77EEC77A 		vsub.f32	s15, s15, s14
 209:App/Src/calculate.c **** 		cac.C = g_result[TEST_RTC_TEMP_Z29] - cac.A;
 2026              		.loc 1 209 78 view .LVU457
 2027 062c C7EEA87A 		vdiv.f32	s15, s15, s17
 2028 0630 17EE900A 		vmov	r0, s15
 2029 0634 FFF7FEFF 		bl	__aeabi_f2d
 2030              	.LVL245:
 2031 0638 41EC100B 		vmov	d0, r0, r1
 2032 063c FFF7FEFF 		bl	cosh
 2033              	.LVL246:
 2034 0640 53EC102B 		vmov	r2, r3, d0
 209:App/Src/calculate.c **** 		cac.C = g_result[TEST_RTC_TEMP_Z29] - cac.A;
 2035              		.loc 1 209 76 view .LVU458
 2036 0644 0020     		movs	r0, #0
 2037 0646 D849     		ldr	r1, .L175+16
 2038 0648 FFF7FEFF 		bl	__aeabi_dsub
 2039              	.LVL247:
 2040 064c 0246     		mov	r2, r0
 2041 064e 0B46     		mov	r3, r1
 209:App/Src/calculate.c **** 		cac.C = g_result[TEST_RTC_TEMP_Z29] - cac.A;
 2042              		.loc 1 209 71 view .LVU459
 2043 0650 3046     		mov	r0, r6
 2044 0652 3946     		mov	r1, r7
 2045 0654 FFF7FEFF 		bl	__aeabi_ddiv
 2046              	.LVL248:
 2047 0658 FFF7FEFF 		bl	__aeabi_d2f
 2048              	.LVL249:
 2049 065c 07EE900A 		vmov	s15, r0
 209:App/Src/calculate.c **** 		cac.C = g_result[TEST_RTC_TEMP_Z29] - cac.A;
 2050              		.loc 1 209 9 view .LVU460
 2051 0660 0990     		str	r0, [sp, #36]	@ float
 210:App/Src/calculate.c **** 		minError = cac.A * cosh((g_input[TEST_RTC_TEMP_F10] - cac.X0) / cac.B) + cac.C - g_result[TEST_RT
 2052              		.loc 1 210 3 is_stmt 1 view .LVU461
 210:App/Src/calculate.c **** 		minError = cac.A * cosh((g_input[TEST_RTC_TEMP_F10] - cac.X0) / cac.B) + cac.C - g_result[TEST_RT
 2053              		.loc 1 210 19 is_stmt 0 view .LVU462
 2054 0662 94ED027A 		vldr.32	s14, [r4, #8]
ARM GAS  C:\Users\86158\AppData\Local\Temp\cckMY1rk.s 			page 46


 210:App/Src/calculate.c **** 		minError = cac.A * cosh((g_input[TEST_RTC_TEMP_F10] - cac.X0) / cac.B) + cac.C - g_result[TEST_RT
 2055              		.loc 1 210 39 view .LVU463
 2056 0666 77EE677A 		vsub.f32	s15, s14, s15
 210:App/Src/calculate.c **** 		minError = cac.A * cosh((g_input[TEST_RTC_TEMP_F10] - cac.X0) / cac.B) + cac.C - g_result[TEST_RT
 2057              		.loc 1 210 9 view .LVU464
 2058 066a CDED0C7A 		vstr.32	s15, [sp, #48]
 211:App/Src/calculate.c **** 		cac.B = maxB;// 
 2059              		.loc 1 211 3 is_stmt 1 view .LVU465
 211:App/Src/calculate.c **** 		cac.B = maxB;// 
 2060              		.loc 1 211 17 is_stmt 0 view .LVU466
 2061 066e FFF7FEFF 		bl	__aeabi_f2d
 2062              	.LVL250:
 2063 0672 0646     		mov	r6, r0
 2064 0674 0F46     		mov	r7, r1
 211:App/Src/calculate.c **** 		cac.B = maxB;// 
 2065              		.loc 1 211 35 view .LVU467
 2066 0676 D5ED017A 		vldr.32	s15, [r5, #4]
 211:App/Src/calculate.c **** 		cac.B = maxB;// 
 2067              		.loc 1 211 60 view .LVU468
 2068 067a 9DED0B7A 		vldr.32	s14, [sp, #44]
 211:App/Src/calculate.c **** 		cac.B = maxB;// 
 2069              		.loc 1 211 55 view .LVU469
 2070 067e 77EEC77A 		vsub.f32	s15, s15, s14
 211:App/Src/calculate.c **** 		cac.B = maxB;// 
 2071              		.loc 1 211 22 view .LVU470
 2072 0682 9DED0A7A 		vldr.32	s14, [sp, #40]
 2073 0686 C7EE877A 		vdiv.f32	s15, s15, s14
 2074 068a 17EE900A 		vmov	r0, s15
 2075 068e FFF7FEFF 		bl	__aeabi_f2d
 2076              	.LVL251:
 2077 0692 41EC100B 		vmov	d0, r0, r1
 2078 0696 FFF7FEFF 		bl	cosh
 2079              	.LVL252:
 2080 069a 53EC102B 		vmov	r2, r3, d0
 211:App/Src/calculate.c **** 		cac.B = maxB;// 
 2081              		.loc 1 211 20 view .LVU471
 2082 069e 3046     		mov	r0, r6
 2083 06a0 3946     		mov	r1, r7
 2084 06a2 FFF7FEFF 		bl	__aeabi_dmul
 2085              	.LVL253:
 2086 06a6 0646     		mov	r6, r0
 2087 06a8 0F46     		mov	r7, r1
 211:App/Src/calculate.c **** 		cac.B = maxB;// 
 2088              		.loc 1 211 79 view .LVU472
 2089 06aa 0C98     		ldr	r0, [sp, #48]	@ float
 2090 06ac FFF7FEFF 		bl	__aeabi_f2d
 2091              	.LVL254:
 2092 06b0 0246     		mov	r2, r0
 2093 06b2 0B46     		mov	r3, r1
 211:App/Src/calculate.c **** 		cac.B = maxB;// 
 2094              		.loc 1 211 74 view .LVU473
 2095 06b4 3046     		mov	r0, r6
 2096 06b6 3946     		mov	r1, r7
 2097 06b8 FFF7FEFF 		bl	__aeabi_dadd
 2098              	.LVL255:
 2099 06bc 0646     		mov	r6, r0
 2100 06be 0F46     		mov	r7, r1
ARM GAS  C:\Users\86158\AppData\Local\Temp\cckMY1rk.s 			page 47


 211:App/Src/calculate.c **** 		cac.B = maxB;// 
 2101              		.loc 1 211 92 view .LVU474
 2102 06c0 6068     		ldr	r0, [r4, #4]	@ float
 2103 06c2 FFF7FEFF 		bl	__aeabi_f2d
 2104              	.LVL256:
 2105 06c6 0246     		mov	r2, r0
 2106 06c8 0B46     		mov	r3, r1
 211:App/Src/calculate.c **** 		cac.B = maxB;// 
 2107              		.loc 1 211 82 view .LVU475
 2108 06ca 3046     		mov	r0, r6
 2109 06cc 3946     		mov	r1, r7
 2110 06ce FFF7FEFF 		bl	__aeabi_dsub
 2111              	.LVL257:
 211:App/Src/calculate.c **** 		cac.B = maxB;// 
 2112              		.loc 1 211 12 view .LVU476
 2113 06d2 FFF7FEFF 		bl	__aeabi_d2f
 2114              	.LVL258:
 2115 06d6 08EE900A 		vmov	s17, r0
 2116              	.LVL259:
 212:App/Src/calculate.c **** 		cac.A = (g_result[TEST_RTC_TEMP_Z29] - g_result[TEST_RTC_TEMP_F40]) / (1 - cosh((g_input[TEST_RTC
 2117              		.loc 1 212 3 is_stmt 1 view .LVU477
 212:App/Src/calculate.c **** 		cac.A = (g_result[TEST_RTC_TEMP_Z29] - g_result[TEST_RTC_TEMP_F40]) / (1 - cosh((g_input[TEST_RTC
 2118              		.loc 1 212 9 is_stmt 0 view .LVU478
 2119 06da 9FEDB49A 		vldr.32	s18, .L175+20
 2120              	.LVL260:
 212:App/Src/calculate.c **** 		cac.A = (g_result[TEST_RTC_TEMP_Z29] - g_result[TEST_RTC_TEMP_F40]) / (1 - cosh((g_input[TEST_RTC
 2121              		.loc 1 212 9 view .LVU479
 2122 06de 8DED0A9A 		vstr.32	s18, [sp, #40]
 213:App/Src/calculate.c **** 		cac.C = g_result[TEST_RTC_TEMP_Z29] - cac.A;
 2123              		.loc 1 213 3 is_stmt 1 view .LVU480
 213:App/Src/calculate.c **** 		cac.C = g_result[TEST_RTC_TEMP_Z29] - cac.A;
 2124              		.loc 1 213 20 is_stmt 0 view .LVU481
 2125 06e2 94ED027A 		vldr.32	s14, [r4, #8]
 213:App/Src/calculate.c **** 		cac.C = g_result[TEST_RTC_TEMP_Z29] - cac.A;
 2126              		.loc 1 213 50 view .LVU482
 2127 06e6 D4ED007A 		vldr.32	s15, [r4]
 213:App/Src/calculate.c **** 		cac.C = g_result[TEST_RTC_TEMP_Z29] - cac.A;
 2128              		.loc 1 213 40 view .LVU483
 2129 06ea 77EE677A 		vsub.f32	s15, s14, s15
 2130 06ee 17EE900A 		vmov	r0, s15
 2131              	.LVL261:
 213:App/Src/calculate.c **** 		cac.C = g_result[TEST_RTC_TEMP_Z29] - cac.A;
 2132              		.loc 1 213 40 view .LVU484
 2133 06f2 FFF7FEFF 		bl	__aeabi_f2d
 2134              	.LVL262:
 2135 06f6 0646     		mov	r6, r0
 2136 06f8 0F46     		mov	r7, r1
 213:App/Src/calculate.c **** 		cac.C = g_result[TEST_RTC_TEMP_Z29] - cac.A;
 2137              		.loc 1 213 91 view .LVU485
 2138 06fa D5ED007A 		vldr.32	s15, [r5]
 213:App/Src/calculate.c **** 		cac.C = g_result[TEST_RTC_TEMP_Z29] - cac.A;
 2139              		.loc 1 213 116 view .LVU486
 2140 06fe 9DED0B7A 		vldr.32	s14, [sp, #44]
 213:App/Src/calculate.c **** 		cac.C = g_result[TEST_RTC_TEMP_Z29] - cac.A;
 2141              		.loc 1 213 111 view .LVU487
 2142 0702 77EEC77A 		vsub.f32	s15, s15, s14
 213:App/Src/calculate.c **** 		cac.C = g_result[TEST_RTC_TEMP_Z29] - cac.A;
ARM GAS  C:\Users\86158\AppData\Local\Temp\cckMY1rk.s 			page 48


 2143              		.loc 1 213 78 view .LVU488
 2144 0706 C7EE897A 		vdiv.f32	s15, s15, s18
 2145 070a 17EE900A 		vmov	r0, s15
 2146 070e FFF7FEFF 		bl	__aeabi_f2d
 2147              	.LVL263:
 2148 0712 41EC100B 		vmov	d0, r0, r1
 2149 0716 FFF7FEFF 		bl	cosh
 2150              	.LVL264:
 2151 071a 53EC102B 		vmov	r2, r3, d0
 213:App/Src/calculate.c **** 		cac.C = g_result[TEST_RTC_TEMP_Z29] - cac.A;
 2152              		.loc 1 213 76 view .LVU489
 2153 071e 0020     		movs	r0, #0
 2154 0720 A149     		ldr	r1, .L175+16
 2155 0722 FFF7FEFF 		bl	__aeabi_dsub
 2156              	.LVL265:
 2157 0726 0246     		mov	r2, r0
 2158 0728 0B46     		mov	r3, r1
 213:App/Src/calculate.c **** 		cac.C = g_result[TEST_RTC_TEMP_Z29] - cac.A;
 2159              		.loc 1 213 71 view .LVU490
 2160 072a 3046     		mov	r0, r6
 2161 072c 3946     		mov	r1, r7
 2162 072e FFF7FEFF 		bl	__aeabi_ddiv
 2163              	.LVL266:
 2164 0732 FFF7FEFF 		bl	__aeabi_d2f
 2165              	.LVL267:
 2166 0736 07EE900A 		vmov	s15, r0
 213:App/Src/calculate.c **** 		cac.C = g_result[TEST_RTC_TEMP_Z29] - cac.A;
 2167              		.loc 1 213 9 view .LVU491
 2168 073a 0990     		str	r0, [sp, #36]	@ float
 214:App/Src/calculate.c **** 		maxError = cac.A * cosh((g_input[TEST_RTC_TEMP_F10] - cac.X0) / cac.B) + cac.C - g_result[TEST_RT
 2169              		.loc 1 214 3 is_stmt 1 view .LVU492
 214:App/Src/calculate.c **** 		maxError = cac.A * cosh((g_input[TEST_RTC_TEMP_F10] - cac.X0) / cac.B) + cac.C - g_result[TEST_RT
 2170              		.loc 1 214 19 is_stmt 0 view .LVU493
 2171 073c 94ED027A 		vldr.32	s14, [r4, #8]
 214:App/Src/calculate.c **** 		maxError = cac.A * cosh((g_input[TEST_RTC_TEMP_F10] - cac.X0) / cac.B) + cac.C - g_result[TEST_RT
 2172              		.loc 1 214 39 view .LVU494
 2173 0740 77EE677A 		vsub.f32	s15, s14, s15
 214:App/Src/calculate.c **** 		maxError = cac.A * cosh((g_input[TEST_RTC_TEMP_F10] - cac.X0) / cac.B) + cac.C - g_result[TEST_RT
 2174              		.loc 1 214 9 view .LVU495
 2175 0744 CDED0C7A 		vstr.32	s15, [sp, #48]
 215:App/Src/calculate.c **** 		UsbPrintf("min:%.2f, max:%.2f\n", minError, maxError);
 2176              		.loc 1 215 3 is_stmt 1 view .LVU496
 215:App/Src/calculate.c **** 		UsbPrintf("min:%.2f, max:%.2f\n", minError, maxError);
 2177              		.loc 1 215 17 is_stmt 0 view .LVU497
 2178 0748 FFF7FEFF 		bl	__aeabi_f2d
 2179              	.LVL268:
 2180 074c 0646     		mov	r6, r0
 2181 074e 0F46     		mov	r7, r1
 215:App/Src/calculate.c **** 		UsbPrintf("min:%.2f, max:%.2f\n", minError, maxError);
 2182              		.loc 1 215 35 view .LVU498
 2183 0750 D5ED017A 		vldr.32	s15, [r5, #4]
 215:App/Src/calculate.c **** 		UsbPrintf("min:%.2f, max:%.2f\n", minError, maxError);
 2184              		.loc 1 215 60 view .LVU499
 2185 0754 9DED0B7A 		vldr.32	s14, [sp, #44]
 215:App/Src/calculate.c **** 		UsbPrintf("min:%.2f, max:%.2f\n", minError, maxError);
 2186              		.loc 1 215 55 view .LVU500
 2187 0758 77EEC77A 		vsub.f32	s15, s15, s14
ARM GAS  C:\Users\86158\AppData\Local\Temp\cckMY1rk.s 			page 49


 215:App/Src/calculate.c **** 		UsbPrintf("min:%.2f, max:%.2f\n", minError, maxError);
 2188              		.loc 1 215 22 view .LVU501
 2189 075c 9DED0A7A 		vldr.32	s14, [sp, #40]
 2190 0760 C7EE877A 		vdiv.f32	s15, s15, s14
 2191 0764 17EE900A 		vmov	r0, s15
 2192 0768 FFF7FEFF 		bl	__aeabi_f2d
 2193              	.LVL269:
 2194 076c 41EC100B 		vmov	d0, r0, r1
 2195 0770 FFF7FEFF 		bl	cosh
 2196              	.LVL270:
 2197 0774 53EC102B 		vmov	r2, r3, d0
 215:App/Src/calculate.c **** 		UsbPrintf("min:%.2f, max:%.2f\n", minError, maxError);
 2198              		.loc 1 215 20 view .LVU502
 2199 0778 3046     		mov	r0, r6
 2200 077a 3946     		mov	r1, r7
 2201 077c FFF7FEFF 		bl	__aeabi_dmul
 2202              	.LVL271:
 2203 0780 0646     		mov	r6, r0
 2204 0782 0F46     		mov	r7, r1
 215:App/Src/calculate.c **** 		UsbPrintf("min:%.2f, max:%.2f\n", minError, maxError);
 2205              		.loc 1 215 79 view .LVU503
 2206 0784 0C98     		ldr	r0, [sp, #48]	@ float
 2207 0786 FFF7FEFF 		bl	__aeabi_f2d
 2208              	.LVL272:
 2209 078a 0246     		mov	r2, r0
 2210 078c 0B46     		mov	r3, r1
 215:App/Src/calculate.c **** 		UsbPrintf("min:%.2f, max:%.2f\n", minError, maxError);
 2211              		.loc 1 215 74 view .LVU504
 2212 078e 3046     		mov	r0, r6
 2213 0790 3946     		mov	r1, r7
 2214 0792 FFF7FEFF 		bl	__aeabi_dadd
 2215              	.LVL273:
 2216 0796 0646     		mov	r6, r0
 2217 0798 0F46     		mov	r7, r1
 215:App/Src/calculate.c **** 		UsbPrintf("min:%.2f, max:%.2f\n", minError, maxError);
 2218              		.loc 1 215 92 view .LVU505
 2219 079a 6068     		ldr	r0, [r4, #4]	@ float
 2220 079c FFF7FEFF 		bl	__aeabi_f2d
 2221              	.LVL274:
 2222 07a0 0246     		mov	r2, r0
 2223 07a2 0B46     		mov	r3, r1
 215:App/Src/calculate.c **** 		UsbPrintf("min:%.2f, max:%.2f\n", minError, maxError);
 2224              		.loc 1 215 82 view .LVU506
 2225 07a4 3046     		mov	r0, r6
 2226 07a6 3946     		mov	r1, r7
 2227 07a8 FFF7FEFF 		bl	__aeabi_dsub
 2228              	.LVL275:
 215:App/Src/calculate.c **** 		UsbPrintf("min:%.2f, max:%.2f\n", minError, maxError);
 2229              		.loc 1 215 12 view .LVU507
 2230 07ac FFF7FEFF 		bl	__aeabi_d2f
 2231              	.LVL276:
 2232 07b0 09EE100A 		vmov	s18, r0
 2233              	.LVL277:
 216:App/Src/calculate.c **** 		if ((minError > 0 && maxError < 0 ) || (minError < 0 && maxError > 0)) {
 2234              		.loc 1 216 3 is_stmt 1 view .LVU508
 2235 07b4 18EE900A 		vmov	r0, s17
 2236              	.LVL278:
ARM GAS  C:\Users\86158\AppData\Local\Temp\cckMY1rk.s 			page 50


 216:App/Src/calculate.c **** 		if ((minError > 0 && maxError < 0 ) || (minError < 0 && maxError > 0)) {
 2237              		.loc 1 216 3 is_stmt 0 view .LVU509
 2238 07b8 FFF7FEFF 		bl	__aeabi_f2d
 2239              	.LVL279:
 2240 07bc 0446     		mov	r4, r0
 2241 07be 0D46     		mov	r5, r1
 2242 07c0 19EE100A 		vmov	r0, s18
 2243 07c4 FFF7FEFF 		bl	__aeabi_f2d
 2244              	.LVL280:
 2245 07c8 CDE90001 		strd	r0, [sp]
 2246 07cc 2246     		mov	r2, r4
 2247 07ce 2B46     		mov	r3, r5
 2248 07d0 7748     		ldr	r0, .L175+24
 2249 07d2 FFF7FEFF 		bl	UsbPrintf
 2250              	.LVL281:
 217:App/Src/calculate.c **** 			UsbPrintf("left para use mode 1\n");
 2251              		.loc 1 217 3 is_stmt 1 view .LVU510
 217:App/Src/calculate.c **** 			UsbPrintf("left para use mode 1\n");
 2252              		.loc 1 217 6 is_stmt 0 view .LVU511
 2253 07d6 F5EEC08A 		vcmpe.f32	s17, #0
 2254 07da F1EE10FA 		vmrs	APSR_nzcv, FPSCR
 2255 07de 04DD     		ble	.L87
 217:App/Src/calculate.c **** 			UsbPrintf("left para use mode 1\n");
 2256              		.loc 1 217 21 discriminator 1 view .LVU512
 2257 07e0 B5EEC09A 		vcmpe.f32	s18, #0
 2258 07e4 F1EE10FA 		vmrs	APSR_nzcv, FPSCR
 2259 07e8 0BD4     		bmi	.L89
 2260              	.L87:
 217:App/Src/calculate.c **** 			UsbPrintf("left para use mode 1\n");
 2261              		.loc 1 217 39 discriminator 3 view .LVU513
 2262 07ea F5EEC08A 		vcmpe.f32	s17, #0
 2263 07ee F1EE10FA 		vmrs	APSR_nzcv, FPSCR
 2264 07f2 40F1E780 		bpl	.L90
 217:App/Src/calculate.c **** 			UsbPrintf("left para use mode 1\n");
 2265              		.loc 1 217 56 discriminator 4 view .LVU514
 2266 07f6 B5EEC09A 		vcmpe.f32	s18, #0
 2267 07fa F1EE10FA 		vmrs	APSR_nzcv, FPSCR
 2268 07fe 40F3E180 		ble	.L90
 2269              	.L89:
 218:App/Src/calculate.c **** 			for (i = 0; i < 20; i++) {
 2270              		.loc 1 218 4 is_stmt 1 view .LVU515
 2271 0802 6C48     		ldr	r0, .L175+28
 2272 0804 FFF7FEFF 		bl	UsbPrintf
 2273              	.LVL282:
 219:App/Src/calculate.c **** 				cac.B = (minB + maxB) / 2;
 2274              		.loc 1 219 4 view .LVU516
 174:App/Src/calculate.c **** 
 2275              		.loc 1 174 7 is_stmt 0 view .LVU517
 2276 0808 9FED689A 		vldr.32	s18, .L175+20
 2277              	.LVL283:
 173:App/Src/calculate.c **** 	maxB = 990;
 2278              		.loc 1 173 7 view .LVU518
 2279 080c F2EE049A 		vmov.f32	s19, #1.0e+1
 219:App/Src/calculate.c **** 				cac.B = (minB + maxB) / 2;
 2280              		.loc 1 219 11 view .LVU519
 2281 0810 0025     		movs	r5, #0
 219:App/Src/calculate.c **** 				cac.B = (minB + maxB) / 2;
ARM GAS  C:\Users\86158\AppData\Local\Temp\cckMY1rk.s 			page 51


 2282              		.loc 1 219 4 view .LVU520
 2283 0812 08E0     		b	.L93
 2284              	.LVL284:
 2285              	.L95:
 227:App/Src/calculate.c **** 						minB = cac.B;
 2286              		.loc 1 227 40 discriminator 3 view .LVU521
 2287 0814 F5EEC08A 		vcmpe.f32	s17, #0
 2288 0818 F1EE10FA 		vmrs	APSR_nzcv, FPSCR
 2289 081c 40F29580 		bls	.L168
 2290              	.L98:
 230:App/Src/calculate.c **** 					}
 2291              		.loc 1 230 7 is_stmt 1 view .LVU522
 230:App/Src/calculate.c **** 					}
 2292              		.loc 1 230 12 is_stmt 0 view .LVU523
 2293 0820 9DED0A9A 		vldr.32	s18, [sp, #40]
 2294              	.LVL285:
 2295              	.L101:
 219:App/Src/calculate.c **** 				cac.B = (minB + maxB) / 2;
 2296              		.loc 1 219 24 is_stmt 1 discriminator 2 view .LVU524
 219:App/Src/calculate.c **** 				cac.B = (minB + maxB) / 2;
 2297              		.loc 1 219 25 is_stmt 0 discriminator 2 view .LVU525
 2298 0824 0135     		adds	r5, r5, #1
 2299              	.LVL286:
 2300              	.L93:
 219:App/Src/calculate.c **** 				cac.B = (minB + maxB) / 2;
 2301              		.loc 1 219 16 is_stmt 1 discriminator 1 view .LVU526
 219:App/Src/calculate.c **** 				cac.B = (minB + maxB) / 2;
 2302              		.loc 1 219 4 is_stmt 0 discriminator 1 view .LVU527
 2303 0826 132D     		cmp	r5, #19
 2304 0828 00F39680 		bgt	.L94
 220:App/Src/calculate.c **** 				cac.A = (g_result[TEST_RTC_TEMP_Z29] - g_result[TEST_RTC_TEMP_F40]) / (1 - cosh((g_input[TEST_R
 2305              		.loc 1 220 5 is_stmt 1 view .LVU528
 220:App/Src/calculate.c **** 				cac.A = (g_result[TEST_RTC_TEMP_Z29] - g_result[TEST_RTC_TEMP_F40]) / (1 - cosh((g_input[TEST_R
 2306              		.loc 1 220 19 is_stmt 0 view .LVU529
 2307 082c 39EE898A 		vadd.f32	s16, s19, s18
 2308              	.LVL287:
 220:App/Src/calculate.c **** 				cac.A = (g_result[TEST_RTC_TEMP_Z29] - g_result[TEST_RTC_TEMP_F40]) / (1 - cosh((g_input[TEST_R
 2309              		.loc 1 220 27 view .LVU530
 2310 0830 F6EE007A 		vmov.f32	s15, #5.0e-1
 2311 0834 28EE278A 		vmul.f32	s16, s16, s15
 220:App/Src/calculate.c **** 				cac.A = (g_result[TEST_RTC_TEMP_Z29] - g_result[TEST_RTC_TEMP_F40]) / (1 - cosh((g_input[TEST_R
 2312              		.loc 1 220 11 view .LVU531
 2313 0838 8DED0A8A 		vstr.32	s16, [sp, #40]
 221:App/Src/calculate.c **** 				cac.C = g_result[TEST_RTC_TEMP_Z29] - cac.A;
 2314              		.loc 1 221 5 is_stmt 1 view .LVU532
 221:App/Src/calculate.c **** 				cac.C = g_result[TEST_RTC_TEMP_Z29] - cac.A;
 2315              		.loc 1 221 22 is_stmt 0 view .LVU533
 2316 083c 584C     		ldr	r4, .L175+8
 2317 083e 94ED027A 		vldr.32	s14, [r4, #8]
 221:App/Src/calculate.c **** 				cac.C = g_result[TEST_RTC_TEMP_Z29] - cac.A;
 2318              		.loc 1 221 52 view .LVU534
 2319 0842 D4ED007A 		vldr.32	s15, [r4]
 221:App/Src/calculate.c **** 				cac.C = g_result[TEST_RTC_TEMP_Z29] - cac.A;
 2320              		.loc 1 221 42 view .LVU535
 2321 0846 77EE677A 		vsub.f32	s15, s14, s15
 2322 084a 17EE900A 		vmov	r0, s15
 2323 084e FFF7FEFF 		bl	__aeabi_f2d
ARM GAS  C:\Users\86158\AppData\Local\Temp\cckMY1rk.s 			page 52


 2324              	.LVL288:
 2325 0852 0646     		mov	r6, r0
 2326 0854 0F46     		mov	r7, r1
 221:App/Src/calculate.c **** 				cac.C = g_result[TEST_RTC_TEMP_Z29] - cac.A;
 2327              		.loc 1 221 93 view .LVU536
 2328 0856 DFF84C81 		ldr	r8, .L175+12
 2329 085a D8ED007A 		vldr.32	s15, [r8]
 221:App/Src/calculate.c **** 				cac.C = g_result[TEST_RTC_TEMP_Z29] - cac.A;
 2330              		.loc 1 221 118 view .LVU537
 2331 085e 9DED0B7A 		vldr.32	s14, [sp, #44]
 221:App/Src/calculate.c **** 				cac.C = g_result[TEST_RTC_TEMP_Z29] - cac.A;
 2332              		.loc 1 221 113 view .LVU538
 2333 0862 77EEC77A 		vsub.f32	s15, s15, s14
 221:App/Src/calculate.c **** 				cac.C = g_result[TEST_RTC_TEMP_Z29] - cac.A;
 2334              		.loc 1 221 80 view .LVU539
 2335 0866 C7EE887A 		vdiv.f32	s15, s15, s16
 2336 086a 17EE900A 		vmov	r0, s15
 2337 086e FFF7FEFF 		bl	__aeabi_f2d
 2338              	.LVL289:
 2339 0872 41EC100B 		vmov	d0, r0, r1
 2340 0876 FFF7FEFF 		bl	cosh
 2341              	.LVL290:
 2342 087a 53EC102B 		vmov	r2, r3, d0
 221:App/Src/calculate.c **** 				cac.C = g_result[TEST_RTC_TEMP_Z29] - cac.A;
 2343              		.loc 1 221 78 view .LVU540
 2344 087e 0020     		movs	r0, #0
 2345 0880 4949     		ldr	r1, .L175+16
 2346 0882 FFF7FEFF 		bl	__aeabi_dsub
 2347              	.LVL291:
 2348 0886 0246     		mov	r2, r0
 2349 0888 0B46     		mov	r3, r1
 221:App/Src/calculate.c **** 				cac.C = g_result[TEST_RTC_TEMP_Z29] - cac.A;
 2350              		.loc 1 221 73 view .LVU541
 2351 088a 3046     		mov	r0, r6
 2352 088c 3946     		mov	r1, r7
 2353 088e FFF7FEFF 		bl	__aeabi_ddiv
 2354              	.LVL292:
 2355 0892 FFF7FEFF 		bl	__aeabi_d2f
 2356              	.LVL293:
 2357 0896 07EE900A 		vmov	s15, r0
 221:App/Src/calculate.c **** 				cac.C = g_result[TEST_RTC_TEMP_Z29] - cac.A;
 2358              		.loc 1 221 11 view .LVU542
 2359 089a 0990     		str	r0, [sp, #36]	@ float
 222:App/Src/calculate.c **** 				error = cac.A * cosh((g_input[TEST_RTC_TEMP_F10] - cac.X0) / cac.B) + cac.C - g_result[TEST_RTC
 2360              		.loc 1 222 5 is_stmt 1 view .LVU543
 222:App/Src/calculate.c **** 				error = cac.A * cosh((g_input[TEST_RTC_TEMP_F10] - cac.X0) / cac.B) + cac.C - g_result[TEST_RTC
 2361              		.loc 1 222 21 is_stmt 0 view .LVU544
 2362 089c 94ED027A 		vldr.32	s14, [r4, #8]
 222:App/Src/calculate.c **** 				error = cac.A * cosh((g_input[TEST_RTC_TEMP_F10] - cac.X0) / cac.B) + cac.C - g_result[TEST_RTC
 2363              		.loc 1 222 41 view .LVU545
 2364 08a0 77EE677A 		vsub.f32	s15, s14, s15
 222:App/Src/calculate.c **** 				error = cac.A * cosh((g_input[TEST_RTC_TEMP_F10] - cac.X0) / cac.B) + cac.C - g_result[TEST_RTC
 2365              		.loc 1 222 11 view .LVU546
 2366 08a4 CDED0C7A 		vstr.32	s15, [sp, #48]
 223:App/Src/calculate.c **** 				if (fabs(error) <= 0.2) {
 2367              		.loc 1 223 5 is_stmt 1 view .LVU547
 223:App/Src/calculate.c **** 				if (fabs(error) <= 0.2) {
ARM GAS  C:\Users\86158\AppData\Local\Temp\cckMY1rk.s 			page 53


 2368              		.loc 1 223 16 is_stmt 0 view .LVU548
 2369 08a8 FFF7FEFF 		bl	__aeabi_f2d
 2370              	.LVL294:
 2371 08ac 0646     		mov	r6, r0
 2372 08ae 0F46     		mov	r7, r1
 223:App/Src/calculate.c **** 				if (fabs(error) <= 0.2) {
 2373              		.loc 1 223 34 view .LVU549
 2374 08b0 D8ED017A 		vldr.32	s15, [r8, #4]
 223:App/Src/calculate.c **** 				if (fabs(error) <= 0.2) {
 2375              		.loc 1 223 59 view .LVU550
 2376 08b4 9DED0B7A 		vldr.32	s14, [sp, #44]
 223:App/Src/calculate.c **** 				if (fabs(error) <= 0.2) {
 2377              		.loc 1 223 54 view .LVU551
 2378 08b8 77EEC77A 		vsub.f32	s15, s15, s14
 223:App/Src/calculate.c **** 				if (fabs(error) <= 0.2) {
 2379              		.loc 1 223 21 view .LVU552
 2380 08bc 9DED0A7A 		vldr.32	s14, [sp, #40]
 2381 08c0 C7EE877A 		vdiv.f32	s15, s15, s14
 2382 08c4 17EE900A 		vmov	r0, s15
 2383 08c8 FFF7FEFF 		bl	__aeabi_f2d
 2384              	.LVL295:
 2385 08cc 41EC100B 		vmov	d0, r0, r1
 2386 08d0 FFF7FEFF 		bl	cosh
 2387              	.LVL296:
 2388 08d4 53EC102B 		vmov	r2, r3, d0
 223:App/Src/calculate.c **** 				if (fabs(error) <= 0.2) {
 2389              		.loc 1 223 19 view .LVU553
 2390 08d8 3046     		mov	r0, r6
 2391 08da 3946     		mov	r1, r7
 2392 08dc FFF7FEFF 		bl	__aeabi_dmul
 2393              	.LVL297:
 2394 08e0 0646     		mov	r6, r0
 2395 08e2 0F46     		mov	r7, r1
 223:App/Src/calculate.c **** 				if (fabs(error) <= 0.2) {
 2396              		.loc 1 223 78 view .LVU554
 2397 08e4 0C98     		ldr	r0, [sp, #48]	@ float
 2398 08e6 FFF7FEFF 		bl	__aeabi_f2d
 2399              	.LVL298:
 2400 08ea 0246     		mov	r2, r0
 2401 08ec 0B46     		mov	r3, r1
 223:App/Src/calculate.c **** 				if (fabs(error) <= 0.2) {
 2402              		.loc 1 223 73 view .LVU555
 2403 08ee 3046     		mov	r0, r6
 2404 08f0 3946     		mov	r1, r7
 2405 08f2 FFF7FEFF 		bl	__aeabi_dadd
 2406              	.LVL299:
 2407 08f6 0646     		mov	r6, r0
 2408 08f8 0F46     		mov	r7, r1
 223:App/Src/calculate.c **** 				if (fabs(error) <= 0.2) {
 2409              		.loc 1 223 91 view .LVU556
 2410 08fa 6068     		ldr	r0, [r4, #4]	@ float
 2411 08fc FFF7FEFF 		bl	__aeabi_f2d
 2412              	.LVL300:
 2413 0900 0246     		mov	r2, r0
 2414 0902 0B46     		mov	r3, r1
 223:App/Src/calculate.c **** 				if (fabs(error) <= 0.2) {
 2415              		.loc 1 223 81 view .LVU557
ARM GAS  C:\Users\86158\AppData\Local\Temp\cckMY1rk.s 			page 54


 2416 0904 3046     		mov	r0, r6
 2417 0906 3946     		mov	r1, r7
 2418 0908 FFF7FEFF 		bl	__aeabi_dsub
 2419              	.LVL301:
 223:App/Src/calculate.c **** 				if (fabs(error) <= 0.2) {
 2420              		.loc 1 223 11 view .LVU558
 2421 090c FFF7FEFF 		bl	__aeabi_d2f
 2422              	.LVL302:
 2423 0910 08EE100A 		vmov	s16, r0
 2424              	.LVL303:
 224:App/Src/calculate.c **** 					break;
 2425              		.loc 1 224 5 is_stmt 1 view .LVU559
 224:App/Src/calculate.c **** 					break;
 2426              		.loc 1 224 9 is_stmt 0 view .LVU560
 2427 0914 F0EEC87A 		vabs.f32	s15, s16
 2428 0918 17EE900A 		vmov	r0, s15
 2429              	.LVL304:
 224:App/Src/calculate.c **** 					break;
 2430              		.loc 1 224 9 view .LVU561
 2431 091c FFF7FEFF 		bl	__aeabi_f2d
 2432              	.LVL305:
 224:App/Src/calculate.c **** 					break;
 2433              		.loc 1 224 8 view .LVU562
 2434 0920 1DA3     		adr	r3, .L175
 2435 0922 D3E90023 		ldrd	r2, [r3]
 2436 0926 FFF7FEFF 		bl	__aeabi_dcmple
 2437              	.LVL306:
 2438 092a A8B9     		cbnz	r0, .L94
 227:App/Src/calculate.c **** 						minB = cac.B;
 2439              		.loc 1 227 6 is_stmt 1 view .LVU563
 227:App/Src/calculate.c **** 						minB = cac.B;
 2440              		.loc 1 227 9 is_stmt 0 view .LVU564
 2441 092c F5EEC08A 		vcmpe.f32	s17, #0
 2442 0930 F1EE10FA 		vmrs	APSR_nzcv, FPSCR
 2443 0934 FFF66EAF 		blt	.L95
 227:App/Src/calculate.c **** 						minB = cac.B;
 2444              		.loc 1 227 25 discriminator 1 view .LVU565
 2445 0938 B5EEC08A 		vcmpe.f32	s16, #0
 2446 093c F1EE10FA 		vmrs	APSR_nzcv, FPSCR
 2447 0940 FFF668AF 		blt	.L95
 2448              	.L97:
 228:App/Src/calculate.c **** 					} else {
 2449              		.loc 1 228 7 is_stmt 1 view .LVU566
 228:App/Src/calculate.c **** 					} else {
 2450              		.loc 1 228 12 is_stmt 0 view .LVU567
 2451 0944 DDED0A9A 		vldr.32	s19, [sp, #40]
 2452              	.LVL307:
 228:App/Src/calculate.c **** 					} else {
 2453              		.loc 1 228 12 view .LVU568
 2454 0948 6CE7     		b	.L101
 2455              	.L168:
 227:App/Src/calculate.c **** 						minB = cac.B;
 2456              		.loc 1 227 58 discriminator 4 view .LVU569
 2457 094a B5EEC08A 		vcmpe.f32	s16, #0
 2458 094e F1EE10FA 		vmrs	APSR_nzcv, FPSCR
 2459 0952 3FF665AF 		bhi	.L98
 2460 0956 F5E7     		b	.L97
ARM GAS  C:\Users\86158\AppData\Local\Temp\cckMY1rk.s 			page 55


 2461              	.L94:
 234:App/Src/calculate.c **** 				cac.mode = 1;
 2462              		.loc 1 234 4 is_stmt 1 view .LVU570
 234:App/Src/calculate.c **** 				cac.mode = 1;
 2463              		.loc 1 234 8 is_stmt 0 view .LVU571
 2464 0958 F0EEC87A 		vabs.f32	s15, s16
 234:App/Src/calculate.c **** 				cac.mode = 1;
 2465              		.loc 1 234 7 view .LVU572
 2466 095c B7EE007A 		vmov.f32	s14, #1.0e+0
 2467 0960 F4EEC77A 		vcmpe.f32	s15, s14
 2468 0964 F1EE10FA 		vmrs	APSR_nzcv, FPSCR
 2469 0968 10D8     		bhi	.L163
 235:App/Src/calculate.c **** 				copy_parameter(&g_left, &cac);
 2470              		.loc 1 235 5 is_stmt 1 view .LVU573
 235:App/Src/calculate.c **** 				copy_parameter(&g_left, &cac);
 2471              		.loc 1 235 14 is_stmt 0 view .LVU574
 2472 096a 0123     		movs	r3, #1
 2473 096c 8DF83430 		strb	r3, [sp, #52]
 236:App/Src/calculate.c **** 				UsbPrintf("min error:%.2f\n", error);
 2474              		.loc 1 236 5 is_stmt 1 view .LVU575
 2475 0970 09A9     		add	r1, sp, #36
 2476 0972 1148     		ldr	r0, .L175+32
 2477 0974 FFF7FEFF 		bl	copy_parameter
 2478              	.LVL308:
 237:App/Src/calculate.c **** 			} else {
 2479              		.loc 1 237 5 view .LVU576
 2480 0978 18EE100A 		vmov	r0, s16
 2481 097c FFF7FEFF 		bl	__aeabi_f2d
 2482              	.LVL309:
 2483 0980 0246     		mov	r2, r0
 2484 0982 0B46     		mov	r3, r1
 2485 0984 0D48     		ldr	r0, .L175+36
 2486 0986 FFF7FEFF 		bl	UsbPrintf
 2487              	.LVL310:
 234:App/Src/calculate.c **** 				cac.mode = 1;
 2488              		.loc 1 234 7 is_stmt 0 view .LVU577
 2489 098a 01E5     		b	.L85
 2490              	.L163:
 239:App/Src/calculate.c **** 				return 0;
 2491              		.loc 1 239 5 is_stmt 1 view .LVU578
 2492 098c 0C48     		ldr	r0, .L175+40
 2493 098e FFF7FEFF 		bl	UsbPrintf
 2494              	.LVL311:
 240:App/Src/calculate.c **** 			}
 2495              		.loc 1 240 5 view .LVU579
 240:App/Src/calculate.c **** 			}
 2496              		.loc 1 240 12 is_stmt 0 view .LVU580
 2497 0992 0020     		movs	r0, #0
 2498 0994 F2E0     		b	.L86
 2499              	.L176:
 2500 0996 00BF     		.align	3
 2501              	.L175:
 2502 0998 9A999999 		.word	-1717986918
 2503 099c 9999C93F 		.word	1070176665
 2504 09a0 00000000 		.word	.LANCHOR2
 2505 09a4 00000000 		.word	.LANCHOR1
 2506 09a8 0000F03F 		.word	1072693248
ARM GAS  C:\Users\86158\AppData\Local\Temp\cckMY1rk.s 			page 56


 2507 09ac 00807744 		.word	1148682240
 2508 09b0 00000000 		.word	.LC9
 2509 09b4 5C000000 		.word	.LC13
 2510 09b8 00000000 		.word	.LANCHOR3
 2511 09bc 2C000000 		.word	.LC11
 2512 09c0 74000000 		.word	.LC14
 2513              	.LVL312:
 2514              	.L90:
 243:App/Src/calculate.c **** 			return 0;
 2515              		.loc 1 243 4 is_stmt 1 view .LVU581
 2516 09c4 7448     		ldr	r0, .L177+8
 2517 09c6 FFF7FEFF 		bl	UsbPrintf
 2518              	.LVL313:
 244:App/Src/calculate.c **** 		}
 2519              		.loc 1 244 4 view .LVU582
 244:App/Src/calculate.c **** 		}
 2520              		.loc 1 244 11 is_stmt 0 view .LVU583
 2521 09ca 0020     		movs	r0, #0
 2522 09cc D6E0     		b	.L86
 2523              	.LVL314:
 2524              	.L113:
 265:App/Src/calculate.c **** 			cac.B = (minB + maxB) / 2;
 266:App/Src/calculate.c **** 			cac.A = (g_result[TEST_RTC_TEMP_Z85] - cac.C) / log(cosh((g_input[TEST_RTC_TEMP_Z85] - cac.X0) /
 267:App/Src/calculate.c **** 			error = cac.A * log(cosh((g_input[TEST_RTC_TEMP_Z60] - cac.X0) / cac.B)) + cac.C - g_result[TEST
 268:App/Src/calculate.c **** 			if (fabs(error) <= 0.2) {
 269:App/Src/calculate.c **** 				break;
 270:App/Src/calculate.c **** 			} else {
 271:App/Src/calculate.c **** 				if ((minError >= 0 && error >= 0) || (minError <= 0 && error <= 0)) {
 2525              		.loc 1 271 39 discriminator 3 view .LVU584
 2526 09ce F5EEC08A 		vcmpe.f32	s17, #0
 2527 09d2 F1EE10FA 		vmrs	APSR_nzcv, FPSCR
 2528 09d6 40F28B80 		bls	.L169
 2529              	.L116:
 272:App/Src/calculate.c **** 					minB = cac.B;
 273:App/Src/calculate.c **** 				} else {
 274:App/Src/calculate.c **** 					maxB = cac.B;
 2530              		.loc 1 274 6 is_stmt 1 view .LVU585
 2531              		.loc 1 274 11 is_stmt 0 view .LVU586
 2532 09da 9DED0A9A 		vldr.32	s18, [sp, #40]
 2533              	.LVL315:
 2534              	.L119:
 264:App/Src/calculate.c **** 			cac.B = (minB + maxB) / 2;
 2535              		.loc 1 264 23 is_stmt 1 discriminator 2 view .LVU587
 264:App/Src/calculate.c **** 			cac.B = (minB + maxB) / 2;
 2536              		.loc 1 264 24 is_stmt 0 discriminator 2 view .LVU588
 2537 09de 0136     		adds	r6, r6, #1
 2538              	.LVL316:
 2539              	.L111:
 264:App/Src/calculate.c **** 			cac.B = (minB + maxB) / 2;
 2540              		.loc 1 264 15 is_stmt 1 discriminator 1 view .LVU589
 264:App/Src/calculate.c **** 			cac.B = (minB + maxB) / 2;
 2541              		.loc 1 264 3 is_stmt 0 discriminator 1 view .LVU590
 2542 09e0 132E     		cmp	r6, #19
 2543 09e2 00F38C80 		bgt	.L112
 265:App/Src/calculate.c **** 			cac.B = (minB + maxB) / 2;
 2544              		.loc 1 265 4 is_stmt 1 view .LVU591
 265:App/Src/calculate.c **** 			cac.B = (minB + maxB) / 2;
ARM GAS  C:\Users\86158\AppData\Local\Temp\cckMY1rk.s 			page 57


 2545              		.loc 1 265 18 is_stmt 0 view .LVU592
 2546 09e6 39EE898A 		vadd.f32	s16, s19, s18
 2547              	.LVL317:
 265:App/Src/calculate.c **** 			cac.B = (minB + maxB) / 2;
 2548              		.loc 1 265 26 view .LVU593
 2549 09ea F6EE007A 		vmov.f32	s15, #5.0e-1
 2550 09ee 28EE278A 		vmul.f32	s16, s16, s15
 265:App/Src/calculate.c **** 			cac.B = (minB + maxB) / 2;
 2551              		.loc 1 265 10 view .LVU594
 2552 09f2 8DED0A8A 		vstr.32	s16, [sp, #40]
 266:App/Src/calculate.c **** 			error = cac.A * log(cosh((g_input[TEST_RTC_TEMP_Z60] - cac.X0) / cac.B)) + cac.C - g_result[TEST
 2553              		.loc 1 266 4 is_stmt 1 view .LVU595
 266:App/Src/calculate.c **** 			error = cac.A * log(cosh((g_input[TEST_RTC_TEMP_Z60] - cac.X0) / cac.B)) + cac.C - g_result[TEST
 2554              		.loc 1 266 21 is_stmt 0 view .LVU596
 2555 09f6 694F     		ldr	r7, .L177+12
 2556 09f8 97ED047A 		vldr.32	s14, [r7, #16]
 266:App/Src/calculate.c **** 			error = cac.A * log(cosh((g_input[TEST_RTC_TEMP_Z60] - cac.X0) / cac.B)) + cac.C - g_result[TEST
 2557              		.loc 1 266 41 view .LVU597
 2558 09fc DDED0C7A 		vldr.32	s15, [sp, #48]
 2559 0a00 77EE677A 		vsub.f32	s15, s14, s15
 2560 0a04 17EE900A 		vmov	r0, s15
 2561 0a08 FFF7FEFF 		bl	__aeabi_f2d
 2562              	.LVL318:
 2563 0a0c 0446     		mov	r4, r0
 2564 0a0e 0D46     		mov	r5, r1
 266:App/Src/calculate.c **** 			error = cac.A * log(cosh((g_input[TEST_RTC_TEMP_Z60] - cac.X0) / cac.B)) + cac.C - g_result[TEST
 2565              		.loc 1 266 69 view .LVU598
 2566 0a10 DFF8A081 		ldr	r8, .L177+36
 2567 0a14 D8ED047A 		vldr.32	s15, [r8, #16]
 266:App/Src/calculate.c **** 			error = cac.A * log(cosh((g_input[TEST_RTC_TEMP_Z60] - cac.X0) / cac.B)) + cac.C - g_result[TEST
 2568              		.loc 1 266 94 view .LVU599
 2569 0a18 9DED0B7A 		vldr.32	s14, [sp, #44]
 266:App/Src/calculate.c **** 			error = cac.A * log(cosh((g_input[TEST_RTC_TEMP_Z60] - cac.X0) / cac.B)) + cac.C - g_result[TEST
 2570              		.loc 1 266 89 view .LVU600
 2571 0a1c 77EEC77A 		vsub.f32	s15, s15, s14
 266:App/Src/calculate.c **** 			error = cac.A * log(cosh((g_input[TEST_RTC_TEMP_Z60] - cac.X0) / cac.B)) + cac.C - g_result[TEST
 2572              		.loc 1 266 52 view .LVU601
 2573 0a20 C7EE887A 		vdiv.f32	s15, s15, s16
 2574 0a24 17EE900A 		vmov	r0, s15
 2575 0a28 FFF7FEFF 		bl	__aeabi_f2d
 2576              	.LVL319:
 2577 0a2c 41EC100B 		vmov	d0, r0, r1
 2578 0a30 FFF7FEFF 		bl	cosh
 2579              	.LVL320:
 2580 0a34 FFF7FEFF 		bl	log
 2581              	.LVL321:
 2582 0a38 53EC102B 		vmov	r2, r3, d0
 266:App/Src/calculate.c **** 			error = cac.A * log(cosh((g_input[TEST_RTC_TEMP_Z60] - cac.X0) / cac.B)) + cac.C - g_result[TEST
 2583              		.loc 1 266 50 view .LVU602
 2584 0a3c 2046     		mov	r0, r4
 2585 0a3e 2946     		mov	r1, r5
 2586 0a40 FFF7FEFF 		bl	__aeabi_ddiv
 2587              	.LVL322:
 2588 0a44 FFF7FEFF 		bl	__aeabi_d2f
 2589              	.LVL323:
 266:App/Src/calculate.c **** 			error = cac.A * log(cosh((g_input[TEST_RTC_TEMP_Z60] - cac.X0) / cac.B)) + cac.C - g_result[TEST
 2590              		.loc 1 266 10 view .LVU603
ARM GAS  C:\Users\86158\AppData\Local\Temp\cckMY1rk.s 			page 58


 2591 0a48 0990     		str	r0, [sp, #36]	@ float
 267:App/Src/calculate.c **** 			if (fabs(error) <= 0.2) {
 2592              		.loc 1 267 4 is_stmt 1 view .LVU604
 267:App/Src/calculate.c **** 			if (fabs(error) <= 0.2) {
 2593              		.loc 1 267 15 is_stmt 0 view .LVU605
 2594 0a4a FFF7FEFF 		bl	__aeabi_f2d
 2595              	.LVL324:
 2596 0a4e 0446     		mov	r4, r0
 2597 0a50 0D46     		mov	r5, r1
 267:App/Src/calculate.c **** 			if (fabs(error) <= 0.2) {
 2598              		.loc 1 267 37 view .LVU606
 2599 0a52 D8ED037A 		vldr.32	s15, [r8, #12]
 267:App/Src/calculate.c **** 			if (fabs(error) <= 0.2) {
 2600              		.loc 1 267 62 view .LVU607
 2601 0a56 9DED0B7A 		vldr.32	s14, [sp, #44]
 267:App/Src/calculate.c **** 			if (fabs(error) <= 0.2) {
 2602              		.loc 1 267 57 view .LVU608
 2603 0a5a 77EEC77A 		vsub.f32	s15, s15, s14
 267:App/Src/calculate.c **** 			if (fabs(error) <= 0.2) {
 2604              		.loc 1 267 20 view .LVU609
 2605 0a5e 9DED0A7A 		vldr.32	s14, [sp, #40]
 2606 0a62 C7EE877A 		vdiv.f32	s15, s15, s14
 2607 0a66 17EE900A 		vmov	r0, s15
 2608 0a6a FFF7FEFF 		bl	__aeabi_f2d
 2609              	.LVL325:
 2610 0a6e 41EC100B 		vmov	d0, r0, r1
 2611 0a72 FFF7FEFF 		bl	cosh
 2612              	.LVL326:
 2613 0a76 FFF7FEFF 		bl	log
 2614              	.LVL327:
 2615 0a7a 53EC102B 		vmov	r2, r3, d0
 267:App/Src/calculate.c **** 			if (fabs(error) <= 0.2) {
 2616              		.loc 1 267 18 view .LVU610
 2617 0a7e 2046     		mov	r0, r4
 2618 0a80 2946     		mov	r1, r5
 2619 0a82 FFF7FEFF 		bl	__aeabi_dmul
 2620              	.LVL328:
 2621 0a86 0446     		mov	r4, r0
 2622 0a88 0D46     		mov	r5, r1
 267:App/Src/calculate.c **** 			if (fabs(error) <= 0.2) {
 2623              		.loc 1 267 82 view .LVU611
 2624 0a8a 0C98     		ldr	r0, [sp, #48]	@ float
 2625 0a8c FFF7FEFF 		bl	__aeabi_f2d
 2626              	.LVL329:
 2627 0a90 0246     		mov	r2, r0
 2628 0a92 0B46     		mov	r3, r1
 267:App/Src/calculate.c **** 			if (fabs(error) <= 0.2) {
 2629              		.loc 1 267 77 view .LVU612
 2630 0a94 2046     		mov	r0, r4
 2631 0a96 2946     		mov	r1, r5
 2632 0a98 FFF7FEFF 		bl	__aeabi_dadd
 2633              	.LVL330:
 2634 0a9c 0446     		mov	r4, r0
 2635 0a9e 0D46     		mov	r5, r1
 267:App/Src/calculate.c **** 			if (fabs(error) <= 0.2) {
 2636              		.loc 1 267 95 view .LVU613
 2637 0aa0 F868     		ldr	r0, [r7, #12]	@ float
ARM GAS  C:\Users\86158\AppData\Local\Temp\cckMY1rk.s 			page 59


 2638 0aa2 FFF7FEFF 		bl	__aeabi_f2d
 2639              	.LVL331:
 2640 0aa6 0246     		mov	r2, r0
 2641 0aa8 0B46     		mov	r3, r1
 267:App/Src/calculate.c **** 			if (fabs(error) <= 0.2) {
 2642              		.loc 1 267 85 view .LVU614
 2643 0aaa 2046     		mov	r0, r4
 2644 0aac 2946     		mov	r1, r5
 2645 0aae FFF7FEFF 		bl	__aeabi_dsub
 2646              	.LVL332:
 267:App/Src/calculate.c **** 			if (fabs(error) <= 0.2) {
 2647              		.loc 1 267 10 view .LVU615
 2648 0ab2 FFF7FEFF 		bl	__aeabi_d2f
 2649              	.LVL333:
 2650 0ab6 08EE100A 		vmov	s16, r0
 2651              	.LVL334:
 268:App/Src/calculate.c **** 				break;
 2652              		.loc 1 268 4 is_stmt 1 view .LVU616
 268:App/Src/calculate.c **** 				break;
 2653              		.loc 1 268 8 is_stmt 0 view .LVU617
 2654 0aba F0EEC87A 		vabs.f32	s15, s16
 2655 0abe 17EE900A 		vmov	r0, s15
 2656              	.LVL335:
 268:App/Src/calculate.c **** 				break;
 2657              		.loc 1 268 8 view .LVU618
 2658 0ac2 FFF7FEFF 		bl	__aeabi_f2d
 2659              	.LVL336:
 268:App/Src/calculate.c **** 				break;
 2660              		.loc 1 268 7 view .LVU619
 2661 0ac6 32A3     		adr	r3, .L177
 2662 0ac8 D3E90023 		ldrd	r2, [r3]
 2663 0acc FFF7FEFF 		bl	__aeabi_dcmple
 2664              	.LVL337:
 2665 0ad0 A8B9     		cbnz	r0, .L112
 271:App/Src/calculate.c **** 					minB = cac.B;
 2666              		.loc 1 271 5 is_stmt 1 view .LVU620
 271:App/Src/calculate.c **** 					minB = cac.B;
 2667              		.loc 1 271 8 is_stmt 0 view .LVU621
 2668 0ad2 F5EEC08A 		vcmpe.f32	s17, #0
 2669 0ad6 F1EE10FA 		vmrs	APSR_nzcv, FPSCR
 2670 0ada FFF678AF 		blt	.L113
 271:App/Src/calculate.c **** 					minB = cac.B;
 2671              		.loc 1 271 24 discriminator 1 view .LVU622
 2672 0ade B5EEC08A 		vcmpe.f32	s16, #0
 2673 0ae2 F1EE10FA 		vmrs	APSR_nzcv, FPSCR
 2674 0ae6 FFF672AF 		blt	.L113
 2675              	.L115:
 272:App/Src/calculate.c **** 				} else {
 2676              		.loc 1 272 6 is_stmt 1 view .LVU623
 272:App/Src/calculate.c **** 				} else {
 2677              		.loc 1 272 11 is_stmt 0 view .LVU624
 2678 0aea DDED0A9A 		vldr.32	s19, [sp, #40]
 2679              	.LVL338:
 272:App/Src/calculate.c **** 				} else {
 2680              		.loc 1 272 11 view .LVU625
 2681 0aee 76E7     		b	.L119
 2682              	.L169:
ARM GAS  C:\Users\86158\AppData\Local\Temp\cckMY1rk.s 			page 60


 271:App/Src/calculate.c **** 					minB = cac.B;
 2683              		.loc 1 271 57 discriminator 4 view .LVU626
 2684 0af0 B5EEC08A 		vcmpe.f32	s16, #0
 2685 0af4 F1EE10FA 		vmrs	APSR_nzcv, FPSCR
 2686 0af8 3FF66FAF 		bhi	.L116
 2687 0afc F5E7     		b	.L115
 2688              	.L112:
 275:App/Src/calculate.c **** 				}
 276:App/Src/calculate.c **** 			}
 277:App/Src/calculate.c **** 		}
 278:App/Src/calculate.c **** 		if (fabs(error) <= 1) {
 2689              		.loc 1 278 3 is_stmt 1 view .LVU627
 2690              		.loc 1 278 7 is_stmt 0 view .LVU628
 2691 0afe F0EEC87A 		vabs.f32	s15, s16
 2692              		.loc 1 278 6 view .LVU629
 2693 0b02 B7EE007A 		vmov.f32	s14, #1.0e+0
 2694 0b06 F4EEC77A 		vcmpe.f32	s15, s14
 2695 0b0a F1EE10FA 		vmrs	APSR_nzcv, FPSCR
 2696 0b0e 3AD8     		bhi	.L164
 279:App/Src/calculate.c **** 			cac.mode = 0;
 2697              		.loc 1 279 4 is_stmt 1 view .LVU630
 2698              		.loc 1 279 13 is_stmt 0 view .LVU631
 2699 0b10 0023     		movs	r3, #0
 2700 0b12 8DF83430 		strb	r3, [sp, #52]
 280:App/Src/calculate.c **** 			copy_parameter(&g_right, &cac);
 2701              		.loc 1 280 4 is_stmt 1 view .LVU632
 2702 0b16 09A9     		add	r1, sp, #36
 2703 0b18 2148     		ldr	r0, .L177+16
 2704 0b1a FFF7FEFF 		bl	copy_parameter
 2705              	.LVL339:
 281:App/Src/calculate.c **** 			UsbPrintf("min error:%.2f\n", error);
 2706              		.loc 1 281 4 view .LVU633
 2707 0b1e 18EE100A 		vmov	r0, s16
 2708 0b22 FFF7FEFF 		bl	__aeabi_f2d
 2709              	.LVL340:
 2710 0b26 0246     		mov	r2, r0
 2711 0b28 0B46     		mov	r3, r1
 2712 0b2a 1E48     		ldr	r0, .L177+20
 2713 0b2c FFF7FEFF 		bl	UsbPrintf
 2714              	.LVL341:
 2715              	.L123:
 282:App/Src/calculate.c **** 		} else {
 283:App/Src/calculate.c **** 			UsbPrintf("check right para error, step 1!\n");
 284:App/Src/calculate.c **** 			return 0;
 285:App/Src/calculate.c **** 		}
 286:App/Src/calculate.c **** 	} else {
 287:App/Src/calculate.c **** 		cac.B = minB;// 
 288:App/Src/calculate.c **** 		cac.A = (g_result[TEST_RTC_TEMP_Z29] - g_result[TEST_RTC_TEMP_Z85]) / (1 - cosh((g_input[TEST_RTC
 289:App/Src/calculate.c **** 		cac.C = g_result[TEST_RTC_TEMP_Z29] - cac.A;
 290:App/Src/calculate.c **** 		minError = cac.A * cosh((g_input[TEST_RTC_TEMP_Z60] - cac.X0) / cac.B) + cac.C - g_result[TEST_RT
 291:App/Src/calculate.c **** 		cac.B = maxB;// 
 292:App/Src/calculate.c **** 		cac.A = (g_result[TEST_RTC_TEMP_Z29] - g_result[TEST_RTC_TEMP_Z85]) / (1 - cosh((g_input[TEST_RTC
 293:App/Src/calculate.c **** 		cac.C = g_result[TEST_RTC_TEMP_Z29] - cac.A;
 294:App/Src/calculate.c **** 		maxError = cac.A * cosh((g_input[TEST_RTC_TEMP_Z60] - cac.X0) / cac.B) + cac.C - g_result[TEST_RT
 295:App/Src/calculate.c **** 		UsbPrintf("min:%.2f, max:%.2f\n", minError, maxError);
 296:App/Src/calculate.c **** 		if ((minError > 0 && maxError < 0 ) || (minError < 0 && maxError > 0)) {
 297:App/Src/calculate.c **** 			UsbPrintf("right para use mode 1\n");
ARM GAS  C:\Users\86158\AppData\Local\Temp\cckMY1rk.s 			page 61


 298:App/Src/calculate.c **** 			for (i = 0; i < 20; i++) {
 299:App/Src/calculate.c **** 				cac.B = (minB + maxB) / 2;
 300:App/Src/calculate.c **** 				cac.A = (g_result[TEST_RTC_TEMP_Z29] - g_result[TEST_RTC_TEMP_Z85]) / (1 - cosh((g_input[TEST_R
 301:App/Src/calculate.c **** 				cac.C = g_result[TEST_RTC_TEMP_Z29] - cac.A;
 302:App/Src/calculate.c **** 				error = cac.A * cosh((g_input[TEST_RTC_TEMP_Z60] - cac.X0) / cac.B) + cac.C - g_result[TEST_RTC
 303:App/Src/calculate.c **** 				if (fabs(error) <= 0.2) {
 304:App/Src/calculate.c **** 					break;
 305:App/Src/calculate.c **** 				} else {
 306:App/Src/calculate.c **** 					if ((minError >= 0 && error >= 0) || (minError <= 0 && error <= 0)) {
 307:App/Src/calculate.c **** 						minB = cac.B;
 308:App/Src/calculate.c **** 					} else {
 309:App/Src/calculate.c **** 						maxB = cac.B;
 310:App/Src/calculate.c **** 					}
 311:App/Src/calculate.c **** 				}
 312:App/Src/calculate.c **** 			}
 313:App/Src/calculate.c **** 			if (fabs(error) <= 1) {
 314:App/Src/calculate.c **** 				cac.mode = 1;
 315:App/Src/calculate.c **** 				copy_parameter(&g_right, &cac);
 316:App/Src/calculate.c **** 				UsbPrintf("min error:%.2f\n", error);
 317:App/Src/calculate.c **** 			} else {
 318:App/Src/calculate.c **** 				UsbPrintf("check right para error, step 2!\n");
 319:App/Src/calculate.c **** 				return 0;
 320:App/Src/calculate.c **** 			}
 321:App/Src/calculate.c **** 		} else {
 322:App/Src/calculate.c **** 			UsbPrintf("check right para error, step 0!\n");
 323:App/Src/calculate.c **** 			return 0;
 324:App/Src/calculate.c **** 		}
 325:App/Src/calculate.c **** 	}
 326:App/Src/calculate.c **** 	UsbPrintf("right:\tA:%.2f, B:%.2f, C:%.2f; X0:%.2f, mode:%d\n", g_right.A, g_right.B, g_right.C, g
 2716              		.loc 1 326 2 view .LVU634
 2717              		.loc 1 326 73 is_stmt 0 view .LVU635
 2718 0b30 1B4B     		ldr	r3, .L177+16
 2719              		.loc 1 326 84 view .LVU636
 2720 0b32 5E68     		ldr	r6, [r3, #4]	@ float
 2721              		.loc 1 326 95 view .LVU637
 2722 0b34 DF68     		ldr	r7, [r3, #12]	@ float
 2723              		.loc 1 326 106 view .LVU638
 2724 0b36 D3F80880 		ldr	r8, [r3, #8]	@ float
 2725              		.loc 1 326 118 view .LVU639
 2726 0b3a 93F81090 		ldrb	r9, [r3, #16]	@ zero_extendqisi2
 2727              		.loc 1 326 2 view .LVU640
 2728 0b3e 1868     		ldr	r0, [r3]	@ float
 2729 0b40 FFF7FEFF 		bl	__aeabi_f2d
 2730              	.LVL342:
 2731 0b44 0446     		mov	r4, r0
 2732 0b46 0D46     		mov	r5, r1
 2733 0b48 CDF81890 		str	r9, [sp, #24]
 2734 0b4c 4046     		mov	r0, r8	@ float
 2735 0b4e FFF7FEFF 		bl	__aeabi_f2d
 2736              	.LVL343:
 2737 0b52 CDE90401 		strd	r0, [sp, #16]
 2738 0b56 3846     		mov	r0, r7	@ float
 2739 0b58 FFF7FEFF 		bl	__aeabi_f2d
 2740              	.LVL344:
 2741 0b5c CDE90201 		strd	r0, [sp, #8]
 2742 0b60 3046     		mov	r0, r6	@ float
 2743 0b62 FFF7FEFF 		bl	__aeabi_f2d
ARM GAS  C:\Users\86158\AppData\Local\Temp\cckMY1rk.s 			page 62


 2744              	.LVL345:
 2745 0b66 CDE90001 		strd	r0, [sp]
 2746 0b6a 2246     		mov	r2, r4
 2747 0b6c 2B46     		mov	r3, r5
 2748 0b6e 0E48     		ldr	r0, .L177+24
 2749 0b70 FFF7FEFF 		bl	UsbPrintf
 2750              	.LVL346:
 327:App/Src/calculate.c **** 
 328:App/Src/calculate.c **** 	UsbPrintf("parameter init success!\n");
 2751              		.loc 1 328 2 is_stmt 1 view .LVU641
 2752 0b74 0D48     		ldr	r0, .L177+28
 2753 0b76 FFF7FEFF 		bl	UsbPrintf
 2754              	.LVL347:
 329:App/Src/calculate.c **** 	return 1;
 2755              		.loc 1 329 2 view .LVU642
 2756              		.loc 1 329 9 is_stmt 0 view .LVU643
 2757 0b7a 0120     		movs	r0, #1
 2758              	.LVL348:
 2759              	.L86:
 330:App/Src/calculate.c **** }
 2760              		.loc 1 330 1 view .LVU644
 2761 0b7c 0FB0     		add	sp, sp, #60
 2762              	.LCFI24:
 2763              		.cfi_remember_state
 2764              		.cfi_def_cfa_offset 44
 2765              		@ sp needed
 2766 0b7e BDEC048B 		vldm	sp!, {d8-d9}
 2767              	.LCFI25:
 2768              		.cfi_restore 82
 2769              		.cfi_restore 83
 2770              		.cfi_restore 80
 2771              		.cfi_restore 81
 2772              		.cfi_def_cfa_offset 28
 2773 0b82 BDE8F083 		pop	{r4, r5, r6, r7, r8, r9, pc}
 2774              	.LVL349:
 2775              	.L164:
 2776              	.LCFI26:
 2777              		.cfi_restore_state
 283:App/Src/calculate.c **** 			return 0;
 2778              		.loc 1 283 4 is_stmt 1 view .LVU645
 2779 0b86 0A48     		ldr	r0, .L177+32
 2780 0b88 FFF7FEFF 		bl	UsbPrintf
 2781              	.LVL350:
 284:App/Src/calculate.c **** 		}
 2782              		.loc 1 284 4 view .LVU646
 284:App/Src/calculate.c **** 		}
 2783              		.loc 1 284 11 is_stmt 0 view .LVU647
 2784 0b8c 0020     		movs	r0, #0
 2785 0b8e F5E7     		b	.L86
 2786              	.L178:
 2787              		.align	3
 2788              	.L177:
 2789 0b90 9A999999 		.word	-1717986918
 2790 0b94 9999C93F 		.word	1070176665
 2791 0b98 94000000 		.word	.LC15
 2792 0b9c 00000000 		.word	.LANCHOR2
 2793 0ba0 00000000 		.word	.LANCHOR4
ARM GAS  C:\Users\86158\AppData\Local\Temp\cckMY1rk.s 			page 63


 2794 0ba4 2C000000 		.word	.LC11
 2795 0ba8 80010000 		.word	.LC22
 2796 0bac B4010000 		.word	.LC23
 2797 0bb0 FC000000 		.word	.LC18
 2798 0bb4 00000000 		.word	.LANCHOR1
 2799              	.LVL351:
 2800              	.L108:
 287:App/Src/calculate.c **** 		cac.A = (g_result[TEST_RTC_TEMP_Z29] - g_result[TEST_RTC_TEMP_Z85]) / (1 - cosh((g_input[TEST_RTC
 2801              		.loc 1 287 3 is_stmt 1 view .LVU648
 287:App/Src/calculate.c **** 		cac.A = (g_result[TEST_RTC_TEMP_Z29] - g_result[TEST_RTC_TEMP_Z85]) / (1 - cosh((g_input[TEST_RTC
 2802              		.loc 1 287 9 is_stmt 0 view .LVU649
 2803 0bb8 F2EE048A 		vmov.f32	s17, #1.0e+1
 2804              	.LVL352:
 287:App/Src/calculate.c **** 		cac.A = (g_result[TEST_RTC_TEMP_Z29] - g_result[TEST_RTC_TEMP_Z85]) / (1 - cosh((g_input[TEST_RTC
 2805              		.loc 1 287 9 view .LVU650
 2806 0bbc CDED0A8A 		vstr.32	s17, [sp, #40]
 288:App/Src/calculate.c **** 		cac.C = g_result[TEST_RTC_TEMP_Z29] - cac.A;
 2807              		.loc 1 288 3 is_stmt 1 view .LVU651
 288:App/Src/calculate.c **** 		cac.C = g_result[TEST_RTC_TEMP_Z29] - cac.A;
 2808              		.loc 1 288 20 is_stmt 0 view .LVU652
 2809 0bc0 E74C     		ldr	r4, .L179+8
 2810 0bc2 94ED027A 		vldr.32	s14, [r4, #8]
 288:App/Src/calculate.c **** 		cac.C = g_result[TEST_RTC_TEMP_Z29] - cac.A;
 2811              		.loc 1 288 50 view .LVU653
 2812 0bc6 D4ED047A 		vldr.32	s15, [r4, #16]
 288:App/Src/calculate.c **** 		cac.C = g_result[TEST_RTC_TEMP_Z29] - cac.A;
 2813              		.loc 1 288 40 view .LVU654
 2814 0bca 77EE677A 		vsub.f32	s15, s14, s15
 2815 0bce 17EE900A 		vmov	r0, s15
 2816 0bd2 FFF7FEFF 		bl	__aeabi_f2d
 2817              	.LVL353:
 2818 0bd6 0646     		mov	r6, r0
 2819 0bd8 0F46     		mov	r7, r1
 288:App/Src/calculate.c **** 		cac.C = g_result[TEST_RTC_TEMP_Z29] - cac.A;
 2820              		.loc 1 288 91 view .LVU655
 2821 0bda E24D     		ldr	r5, .L179+12
 2822 0bdc D5ED047A 		vldr.32	s15, [r5, #16]
 288:App/Src/calculate.c **** 		cac.C = g_result[TEST_RTC_TEMP_Z29] - cac.A;
 2823              		.loc 1 288 116 view .LVU656
 2824 0be0 9DED0B7A 		vldr.32	s14, [sp, #44]
 288:App/Src/calculate.c **** 		cac.C = g_result[TEST_RTC_TEMP_Z29] - cac.A;
 2825              		.loc 1 288 111 view .LVU657
 2826 0be4 77EEC77A 		vsub.f32	s15, s15, s14
 288:App/Src/calculate.c **** 		cac.C = g_result[TEST_RTC_TEMP_Z29] - cac.A;
 2827              		.loc 1 288 78 view .LVU658
 2828 0be8 C7EEA87A 		vdiv.f32	s15, s15, s17
 2829 0bec 17EE900A 		vmov	r0, s15
 2830 0bf0 FFF7FEFF 		bl	__aeabi_f2d
 2831              	.LVL354:
 2832 0bf4 41EC100B 		vmov	d0, r0, r1
 2833 0bf8 FFF7FEFF 		bl	cosh
 2834              	.LVL355:
 2835 0bfc 53EC102B 		vmov	r2, r3, d0
 288:App/Src/calculate.c **** 		cac.C = g_result[TEST_RTC_TEMP_Z29] - cac.A;
 2836              		.loc 1 288 76 view .LVU659
 2837 0c00 0020     		movs	r0, #0
 2838 0c02 D949     		ldr	r1, .L179+16
ARM GAS  C:\Users\86158\AppData\Local\Temp\cckMY1rk.s 			page 64


 2839 0c04 FFF7FEFF 		bl	__aeabi_dsub
 2840              	.LVL356:
 2841 0c08 0246     		mov	r2, r0
 2842 0c0a 0B46     		mov	r3, r1
 288:App/Src/calculate.c **** 		cac.C = g_result[TEST_RTC_TEMP_Z29] - cac.A;
 2843              		.loc 1 288 71 view .LVU660
 2844 0c0c 3046     		mov	r0, r6
 2845 0c0e 3946     		mov	r1, r7
 2846 0c10 FFF7FEFF 		bl	__aeabi_ddiv
 2847              	.LVL357:
 2848 0c14 FFF7FEFF 		bl	__aeabi_d2f
 2849              	.LVL358:
 2850 0c18 07EE900A 		vmov	s15, r0
 288:App/Src/calculate.c **** 		cac.C = g_result[TEST_RTC_TEMP_Z29] - cac.A;
 2851              		.loc 1 288 9 view .LVU661
 2852 0c1c 0990     		str	r0, [sp, #36]	@ float
 289:App/Src/calculate.c **** 		minError = cac.A * cosh((g_input[TEST_RTC_TEMP_Z60] - cac.X0) / cac.B) + cac.C - g_result[TEST_RT
 2853              		.loc 1 289 3 is_stmt 1 view .LVU662
 289:App/Src/calculate.c **** 		minError = cac.A * cosh((g_input[TEST_RTC_TEMP_Z60] - cac.X0) / cac.B) + cac.C - g_result[TEST_RT
 2854              		.loc 1 289 19 is_stmt 0 view .LVU663
 2855 0c1e 94ED027A 		vldr.32	s14, [r4, #8]
 289:App/Src/calculate.c **** 		minError = cac.A * cosh((g_input[TEST_RTC_TEMP_Z60] - cac.X0) / cac.B) + cac.C - g_result[TEST_RT
 2856              		.loc 1 289 39 view .LVU664
 2857 0c22 77EE677A 		vsub.f32	s15, s14, s15
 289:App/Src/calculate.c **** 		minError = cac.A * cosh((g_input[TEST_RTC_TEMP_Z60] - cac.X0) / cac.B) + cac.C - g_result[TEST_RT
 2858              		.loc 1 289 9 view .LVU665
 2859 0c26 CDED0C7A 		vstr.32	s15, [sp, #48]
 290:App/Src/calculate.c **** 		cac.B = maxB;// 
 2860              		.loc 1 290 3 is_stmt 1 view .LVU666
 290:App/Src/calculate.c **** 		cac.B = maxB;// 
 2861              		.loc 1 290 17 is_stmt 0 view .LVU667
 2862 0c2a FFF7FEFF 		bl	__aeabi_f2d
 2863              	.LVL359:
 2864 0c2e 0646     		mov	r6, r0
 2865 0c30 0F46     		mov	r7, r1
 290:App/Src/calculate.c **** 		cac.B = maxB;// 
 2866              		.loc 1 290 35 view .LVU668
 2867 0c32 D5ED037A 		vldr.32	s15, [r5, #12]
 290:App/Src/calculate.c **** 		cac.B = maxB;// 
 2868              		.loc 1 290 60 view .LVU669
 2869 0c36 9DED0B7A 		vldr.32	s14, [sp, #44]
 290:App/Src/calculate.c **** 		cac.B = maxB;// 
 2870              		.loc 1 290 55 view .LVU670
 2871 0c3a 77EEC77A 		vsub.f32	s15, s15, s14
 290:App/Src/calculate.c **** 		cac.B = maxB;// 
 2872              		.loc 1 290 22 view .LVU671
 2873 0c3e 9DED0A7A 		vldr.32	s14, [sp, #40]
 2874 0c42 C7EE877A 		vdiv.f32	s15, s15, s14
 2875 0c46 17EE900A 		vmov	r0, s15
 2876 0c4a FFF7FEFF 		bl	__aeabi_f2d
 2877              	.LVL360:
 2878 0c4e 41EC100B 		vmov	d0, r0, r1
 2879 0c52 FFF7FEFF 		bl	cosh
 2880              	.LVL361:
 2881 0c56 53EC102B 		vmov	r2, r3, d0
 290:App/Src/calculate.c **** 		cac.B = maxB;// 
 2882              		.loc 1 290 20 view .LVU672
ARM GAS  C:\Users\86158\AppData\Local\Temp\cckMY1rk.s 			page 65


 2883 0c5a 3046     		mov	r0, r6
 2884 0c5c 3946     		mov	r1, r7
 2885 0c5e FFF7FEFF 		bl	__aeabi_dmul
 2886              	.LVL362:
 2887 0c62 0646     		mov	r6, r0
 2888 0c64 0F46     		mov	r7, r1
 290:App/Src/calculate.c **** 		cac.B = maxB;// 
 2889              		.loc 1 290 79 view .LVU673
 2890 0c66 0C98     		ldr	r0, [sp, #48]	@ float
 2891 0c68 FFF7FEFF 		bl	__aeabi_f2d
 2892              	.LVL363:
 2893 0c6c 0246     		mov	r2, r0
 2894 0c6e 0B46     		mov	r3, r1
 290:App/Src/calculate.c **** 		cac.B = maxB;// 
 2895              		.loc 1 290 74 view .LVU674
 2896 0c70 3046     		mov	r0, r6
 2897 0c72 3946     		mov	r1, r7
 2898 0c74 FFF7FEFF 		bl	__aeabi_dadd
 2899              	.LVL364:
 2900 0c78 0646     		mov	r6, r0
 2901 0c7a 0F46     		mov	r7, r1
 290:App/Src/calculate.c **** 		cac.B = maxB;// 
 2902              		.loc 1 290 92 view .LVU675
 2903 0c7c E068     		ldr	r0, [r4, #12]	@ float
 2904 0c7e FFF7FEFF 		bl	__aeabi_f2d
 2905              	.LVL365:
 2906 0c82 0246     		mov	r2, r0
 2907 0c84 0B46     		mov	r3, r1
 290:App/Src/calculate.c **** 		cac.B = maxB;// 
 2908              		.loc 1 290 82 view .LVU676
 2909 0c86 3046     		mov	r0, r6
 2910 0c88 3946     		mov	r1, r7
 2911 0c8a FFF7FEFF 		bl	__aeabi_dsub
 2912              	.LVL366:
 290:App/Src/calculate.c **** 		cac.B = maxB;// 
 2913              		.loc 1 290 12 view .LVU677
 2914 0c8e FFF7FEFF 		bl	__aeabi_d2f
 2915              	.LVL367:
 2916 0c92 08EE900A 		vmov	s17, r0
 2917              	.LVL368:
 291:App/Src/calculate.c **** 		cac.A = (g_result[TEST_RTC_TEMP_Z29] - g_result[TEST_RTC_TEMP_Z85]) / (1 - cosh((g_input[TEST_RTC
 2918              		.loc 1 291 3 is_stmt 1 view .LVU678
 291:App/Src/calculate.c **** 		cac.A = (g_result[TEST_RTC_TEMP_Z29] - g_result[TEST_RTC_TEMP_Z85]) / (1 - cosh((g_input[TEST_RTC
 2919              		.loc 1 291 9 is_stmt 0 view .LVU679
 2920 0c96 9FEDB59A 		vldr.32	s18, .L179+20
 2921              	.LVL369:
 291:App/Src/calculate.c **** 		cac.A = (g_result[TEST_RTC_TEMP_Z29] - g_result[TEST_RTC_TEMP_Z85]) / (1 - cosh((g_input[TEST_RTC
 2922              		.loc 1 291 9 view .LVU680
 2923 0c9a 8DED0A9A 		vstr.32	s18, [sp, #40]
 292:App/Src/calculate.c **** 		cac.C = g_result[TEST_RTC_TEMP_Z29] - cac.A;
 2924              		.loc 1 292 3 is_stmt 1 view .LVU681
 292:App/Src/calculate.c **** 		cac.C = g_result[TEST_RTC_TEMP_Z29] - cac.A;
 2925              		.loc 1 292 20 is_stmt 0 view .LVU682
 2926 0c9e 94ED027A 		vldr.32	s14, [r4, #8]
 292:App/Src/calculate.c **** 		cac.C = g_result[TEST_RTC_TEMP_Z29] - cac.A;
 2927              		.loc 1 292 50 view .LVU683
 2928 0ca2 D4ED047A 		vldr.32	s15, [r4, #16]
ARM GAS  C:\Users\86158\AppData\Local\Temp\cckMY1rk.s 			page 66


 292:App/Src/calculate.c **** 		cac.C = g_result[TEST_RTC_TEMP_Z29] - cac.A;
 2929              		.loc 1 292 40 view .LVU684
 2930 0ca6 77EE677A 		vsub.f32	s15, s14, s15
 2931 0caa 17EE900A 		vmov	r0, s15
 2932              	.LVL370:
 292:App/Src/calculate.c **** 		cac.C = g_result[TEST_RTC_TEMP_Z29] - cac.A;
 2933              		.loc 1 292 40 view .LVU685
 2934 0cae FFF7FEFF 		bl	__aeabi_f2d
 2935              	.LVL371:
 2936 0cb2 0646     		mov	r6, r0
 2937 0cb4 0F46     		mov	r7, r1
 292:App/Src/calculate.c **** 		cac.C = g_result[TEST_RTC_TEMP_Z29] - cac.A;
 2938              		.loc 1 292 91 view .LVU686
 2939 0cb6 D5ED047A 		vldr.32	s15, [r5, #16]
 292:App/Src/calculate.c **** 		cac.C = g_result[TEST_RTC_TEMP_Z29] - cac.A;
 2940              		.loc 1 292 116 view .LVU687
 2941 0cba 9DED0B7A 		vldr.32	s14, [sp, #44]
 292:App/Src/calculate.c **** 		cac.C = g_result[TEST_RTC_TEMP_Z29] - cac.A;
 2942              		.loc 1 292 111 view .LVU688
 2943 0cbe 77EEC77A 		vsub.f32	s15, s15, s14
 292:App/Src/calculate.c **** 		cac.C = g_result[TEST_RTC_TEMP_Z29] - cac.A;
 2944              		.loc 1 292 78 view .LVU689
 2945 0cc2 C7EE897A 		vdiv.f32	s15, s15, s18
 2946 0cc6 17EE900A 		vmov	r0, s15
 2947 0cca FFF7FEFF 		bl	__aeabi_f2d
 2948              	.LVL372:
 2949 0cce 41EC100B 		vmov	d0, r0, r1
 2950 0cd2 FFF7FEFF 		bl	cosh
 2951              	.LVL373:
 2952 0cd6 53EC102B 		vmov	r2, r3, d0
 292:App/Src/calculate.c **** 		cac.C = g_result[TEST_RTC_TEMP_Z29] - cac.A;
 2953              		.loc 1 292 76 view .LVU690
 2954 0cda 0020     		movs	r0, #0
 2955 0cdc A249     		ldr	r1, .L179+16
 2956 0cde FFF7FEFF 		bl	__aeabi_dsub
 2957              	.LVL374:
 2958 0ce2 0246     		mov	r2, r0
 2959 0ce4 0B46     		mov	r3, r1
 292:App/Src/calculate.c **** 		cac.C = g_result[TEST_RTC_TEMP_Z29] - cac.A;
 2960              		.loc 1 292 71 view .LVU691
 2961 0ce6 3046     		mov	r0, r6
 2962 0ce8 3946     		mov	r1, r7
 2963 0cea FFF7FEFF 		bl	__aeabi_ddiv
 2964              	.LVL375:
 2965 0cee FFF7FEFF 		bl	__aeabi_d2f
 2966              	.LVL376:
 2967 0cf2 07EE900A 		vmov	s15, r0
 292:App/Src/calculate.c **** 		cac.C = g_result[TEST_RTC_TEMP_Z29] - cac.A;
 2968              		.loc 1 292 9 view .LVU692
 2969 0cf6 0990     		str	r0, [sp, #36]	@ float
 293:App/Src/calculate.c **** 		maxError = cac.A * cosh((g_input[TEST_RTC_TEMP_Z60] - cac.X0) / cac.B) + cac.C - g_result[TEST_RT
 2970              		.loc 1 293 3 is_stmt 1 view .LVU693
 293:App/Src/calculate.c **** 		maxError = cac.A * cosh((g_input[TEST_RTC_TEMP_Z60] - cac.X0) / cac.B) + cac.C - g_result[TEST_RT
 2971              		.loc 1 293 19 is_stmt 0 view .LVU694
 2972 0cf8 94ED027A 		vldr.32	s14, [r4, #8]
 293:App/Src/calculate.c **** 		maxError = cac.A * cosh((g_input[TEST_RTC_TEMP_Z60] - cac.X0) / cac.B) + cac.C - g_result[TEST_RT
 2973              		.loc 1 293 39 view .LVU695
ARM GAS  C:\Users\86158\AppData\Local\Temp\cckMY1rk.s 			page 67


 2974 0cfc 77EE677A 		vsub.f32	s15, s14, s15
 293:App/Src/calculate.c **** 		maxError = cac.A * cosh((g_input[TEST_RTC_TEMP_Z60] - cac.X0) / cac.B) + cac.C - g_result[TEST_RT
 2975              		.loc 1 293 9 view .LVU696
 2976 0d00 CDED0C7A 		vstr.32	s15, [sp, #48]
 294:App/Src/calculate.c **** 		UsbPrintf("min:%.2f, max:%.2f\n", minError, maxError);
 2977              		.loc 1 294 3 is_stmt 1 view .LVU697
 294:App/Src/calculate.c **** 		UsbPrintf("min:%.2f, max:%.2f\n", minError, maxError);
 2978              		.loc 1 294 17 is_stmt 0 view .LVU698
 2979 0d04 FFF7FEFF 		bl	__aeabi_f2d
 2980              	.LVL377:
 2981 0d08 0646     		mov	r6, r0
 2982 0d0a 0F46     		mov	r7, r1
 294:App/Src/calculate.c **** 		UsbPrintf("min:%.2f, max:%.2f\n", minError, maxError);
 2983              		.loc 1 294 35 view .LVU699
 2984 0d0c D5ED037A 		vldr.32	s15, [r5, #12]
 294:App/Src/calculate.c **** 		UsbPrintf("min:%.2f, max:%.2f\n", minError, maxError);
 2985              		.loc 1 294 60 view .LVU700
 2986 0d10 9DED0B7A 		vldr.32	s14, [sp, #44]
 294:App/Src/calculate.c **** 		UsbPrintf("min:%.2f, max:%.2f\n", minError, maxError);
 2987              		.loc 1 294 55 view .LVU701
 2988 0d14 77EEC77A 		vsub.f32	s15, s15, s14
 294:App/Src/calculate.c **** 		UsbPrintf("min:%.2f, max:%.2f\n", minError, maxError);
 2989              		.loc 1 294 22 view .LVU702
 2990 0d18 9DED0A7A 		vldr.32	s14, [sp, #40]
 2991 0d1c C7EE877A 		vdiv.f32	s15, s15, s14
 2992 0d20 17EE900A 		vmov	r0, s15
 2993 0d24 FFF7FEFF 		bl	__aeabi_f2d
 2994              	.LVL378:
 2995 0d28 41EC100B 		vmov	d0, r0, r1
 2996 0d2c FFF7FEFF 		bl	cosh
 2997              	.LVL379:
 2998 0d30 53EC102B 		vmov	r2, r3, d0
 294:App/Src/calculate.c **** 		UsbPrintf("min:%.2f, max:%.2f\n", minError, maxError);
 2999              		.loc 1 294 20 view .LVU703
 3000 0d34 3046     		mov	r0, r6
 3001 0d36 3946     		mov	r1, r7
 3002 0d38 FFF7FEFF 		bl	__aeabi_dmul
 3003              	.LVL380:
 3004 0d3c 0646     		mov	r6, r0
 3005 0d3e 0F46     		mov	r7, r1
 294:App/Src/calculate.c **** 		UsbPrintf("min:%.2f, max:%.2f\n", minError, maxError);
 3006              		.loc 1 294 79 view .LVU704
 3007 0d40 0C98     		ldr	r0, [sp, #48]	@ float
 3008 0d42 FFF7FEFF 		bl	__aeabi_f2d
 3009              	.LVL381:
 3010 0d46 0246     		mov	r2, r0
 3011 0d48 0B46     		mov	r3, r1
 294:App/Src/calculate.c **** 		UsbPrintf("min:%.2f, max:%.2f\n", minError, maxError);
 3012              		.loc 1 294 74 view .LVU705
 3013 0d4a 3046     		mov	r0, r6
 3014 0d4c 3946     		mov	r1, r7
 3015 0d4e FFF7FEFF 		bl	__aeabi_dadd
 3016              	.LVL382:
 3017 0d52 0646     		mov	r6, r0
 3018 0d54 0F46     		mov	r7, r1
 294:App/Src/calculate.c **** 		UsbPrintf("min:%.2f, max:%.2f\n", minError, maxError);
 3019              		.loc 1 294 92 view .LVU706
ARM GAS  C:\Users\86158\AppData\Local\Temp\cckMY1rk.s 			page 68


 3020 0d56 E068     		ldr	r0, [r4, #12]	@ float
 3021 0d58 FFF7FEFF 		bl	__aeabi_f2d
 3022              	.LVL383:
 3023 0d5c 0246     		mov	r2, r0
 3024 0d5e 0B46     		mov	r3, r1
 294:App/Src/calculate.c **** 		UsbPrintf("min:%.2f, max:%.2f\n", minError, maxError);
 3025              		.loc 1 294 82 view .LVU707
 3026 0d60 3046     		mov	r0, r6
 3027 0d62 3946     		mov	r1, r7
 3028 0d64 FFF7FEFF 		bl	__aeabi_dsub
 3029              	.LVL384:
 294:App/Src/calculate.c **** 		UsbPrintf("min:%.2f, max:%.2f\n", minError, maxError);
 3030              		.loc 1 294 12 view .LVU708
 3031 0d68 FFF7FEFF 		bl	__aeabi_d2f
 3032              	.LVL385:
 3033 0d6c 09EE100A 		vmov	s18, r0
 3034              	.LVL386:
 295:App/Src/calculate.c **** 		if ((minError > 0 && maxError < 0 ) || (minError < 0 && maxError > 0)) {
 3035              		.loc 1 295 3 is_stmt 1 view .LVU709
 3036 0d70 18EE900A 		vmov	r0, s17
 3037              	.LVL387:
 295:App/Src/calculate.c **** 		if ((minError > 0 && maxError < 0 ) || (minError < 0 && maxError > 0)) {
 3038              		.loc 1 295 3 is_stmt 0 view .LVU710
 3039 0d74 FFF7FEFF 		bl	__aeabi_f2d
 3040              	.LVL388:
 3041 0d78 0446     		mov	r4, r0
 3042 0d7a 0D46     		mov	r5, r1
 3043 0d7c 19EE100A 		vmov	r0, s18
 3044 0d80 FFF7FEFF 		bl	__aeabi_f2d
 3045              	.LVL389:
 3046 0d84 CDE90001 		strd	r0, [sp]
 3047 0d88 2246     		mov	r2, r4
 3048 0d8a 2B46     		mov	r3, r5
 3049 0d8c 7848     		ldr	r0, .L179+24
 3050 0d8e FFF7FEFF 		bl	UsbPrintf
 3051              	.LVL390:
 296:App/Src/calculate.c **** 			UsbPrintf("right para use mode 1\n");
 3052              		.loc 1 296 3 is_stmt 1 view .LVU711
 296:App/Src/calculate.c **** 			UsbPrintf("right para use mode 1\n");
 3053              		.loc 1 296 6 is_stmt 0 view .LVU712
 3054 0d92 F5EEC08A 		vcmpe.f32	s17, #0
 3055 0d96 F1EE10FA 		vmrs	APSR_nzcv, FPSCR
 3056 0d9a 04DD     		ble	.L124
 296:App/Src/calculate.c **** 			UsbPrintf("right para use mode 1\n");
 3057              		.loc 1 296 21 discriminator 1 view .LVU713
 3058 0d9c B5EEC09A 		vcmpe.f32	s18, #0
 3059 0da0 F1EE10FA 		vmrs	APSR_nzcv, FPSCR
 3060 0da4 0BD4     		bmi	.L126
 3061              	.L124:
 296:App/Src/calculate.c **** 			UsbPrintf("right para use mode 1\n");
 3062              		.loc 1 296 39 discriminator 3 view .LVU714
 3063 0da6 F5EEC08A 		vcmpe.f32	s17, #0
 3064 0daa F1EE10FA 		vmrs	APSR_nzcv, FPSCR
 3065 0dae 40F1E980 		bpl	.L127
 296:App/Src/calculate.c **** 			UsbPrintf("right para use mode 1\n");
 3066              		.loc 1 296 56 discriminator 4 view .LVU715
 3067 0db2 B5EEC09A 		vcmpe.f32	s18, #0
ARM GAS  C:\Users\86158\AppData\Local\Temp\cckMY1rk.s 			page 69


 3068 0db6 F1EE10FA 		vmrs	APSR_nzcv, FPSCR
 3069 0dba 40F3E380 		ble	.L127
 3070              	.L126:
 297:App/Src/calculate.c **** 			for (i = 0; i < 20; i++) {
 3071              		.loc 1 297 4 is_stmt 1 view .LVU716
 3072 0dbe 6D48     		ldr	r0, .L179+28
 3073 0dc0 FFF7FEFF 		bl	UsbPrintf
 3074              	.LVL391:
 298:App/Src/calculate.c **** 				cac.B = (minB + maxB) / 2;
 3075              		.loc 1 298 4 view .LVU717
 253:App/Src/calculate.c **** 
 3076              		.loc 1 253 7 is_stmt 0 view .LVU718
 3077 0dc4 9FED699A 		vldr.32	s18, .L179+20
 3078              	.LVL392:
 252:App/Src/calculate.c **** 	maxB = 990;
 3079              		.loc 1 252 7 view .LVU719
 3080 0dc8 F2EE049A 		vmov.f32	s19, #1.0e+1
 298:App/Src/calculate.c **** 				cac.B = (minB + maxB) / 2;
 3081              		.loc 1 298 11 view .LVU720
 3082 0dcc 0025     		movs	r5, #0
 298:App/Src/calculate.c **** 				cac.B = (minB + maxB) / 2;
 3083              		.loc 1 298 4 view .LVU721
 3084 0dce 08E0     		b	.L130
 3085              	.LVL393:
 3086              	.L132:
 306:App/Src/calculate.c **** 						minB = cac.B;
 3087              		.loc 1 306 40 discriminator 3 view .LVU722
 3088 0dd0 F5EEC08A 		vcmpe.f32	s17, #0
 3089 0dd4 F1EE10FA 		vmrs	APSR_nzcv, FPSCR
 3090 0dd8 40F29580 		bls	.L170
 3091              	.L135:
 309:App/Src/calculate.c **** 					}
 3092              		.loc 1 309 7 is_stmt 1 view .LVU723
 309:App/Src/calculate.c **** 					}
 3093              		.loc 1 309 12 is_stmt 0 view .LVU724
 3094 0ddc 9DED0A9A 		vldr.32	s18, [sp, #40]
 3095              	.LVL394:
 3096              	.L138:
 298:App/Src/calculate.c **** 				cac.B = (minB + maxB) / 2;
 3097              		.loc 1 298 24 is_stmt 1 discriminator 2 view .LVU725
 298:App/Src/calculate.c **** 				cac.B = (minB + maxB) / 2;
 3098              		.loc 1 298 25 is_stmt 0 discriminator 2 view .LVU726
 3099 0de0 0135     		adds	r5, r5, #1
 3100              	.LVL395:
 3101              	.L130:
 298:App/Src/calculate.c **** 				cac.B = (minB + maxB) / 2;
 3102              		.loc 1 298 16 is_stmt 1 discriminator 1 view .LVU727
 298:App/Src/calculate.c **** 				cac.B = (minB + maxB) / 2;
 3103              		.loc 1 298 4 is_stmt 0 discriminator 1 view .LVU728
 3104 0de2 132D     		cmp	r5, #19
 3105 0de4 00F39680 		bgt	.L131
 299:App/Src/calculate.c **** 				cac.A = (g_result[TEST_RTC_TEMP_Z29] - g_result[TEST_RTC_TEMP_Z85]) / (1 - cosh((g_input[TEST_R
 3106              		.loc 1 299 5 is_stmt 1 view .LVU729
 299:App/Src/calculate.c **** 				cac.A = (g_result[TEST_RTC_TEMP_Z29] - g_result[TEST_RTC_TEMP_Z85]) / (1 - cosh((g_input[TEST_R
 3107              		.loc 1 299 19 is_stmt 0 view .LVU730
 3108 0de8 39EE898A 		vadd.f32	s16, s19, s18
 3109              	.LVL396:
ARM GAS  C:\Users\86158\AppData\Local\Temp\cckMY1rk.s 			page 70


 299:App/Src/calculate.c **** 				cac.A = (g_result[TEST_RTC_TEMP_Z29] - g_result[TEST_RTC_TEMP_Z85]) / (1 - cosh((g_input[TEST_R
 3110              		.loc 1 299 27 view .LVU731
 3111 0dec F6EE007A 		vmov.f32	s15, #5.0e-1
 3112 0df0 28EE278A 		vmul.f32	s16, s16, s15
 299:App/Src/calculate.c **** 				cac.A = (g_result[TEST_RTC_TEMP_Z29] - g_result[TEST_RTC_TEMP_Z85]) / (1 - cosh((g_input[TEST_R
 3113              		.loc 1 299 11 view .LVU732
 3114 0df4 8DED0A8A 		vstr.32	s16, [sp, #40]
 300:App/Src/calculate.c **** 				cac.C = g_result[TEST_RTC_TEMP_Z29] - cac.A;
 3115              		.loc 1 300 5 is_stmt 1 view .LVU733
 300:App/Src/calculate.c **** 				cac.C = g_result[TEST_RTC_TEMP_Z29] - cac.A;
 3116              		.loc 1 300 22 is_stmt 0 view .LVU734
 3117 0df8 594C     		ldr	r4, .L179+8
 3118 0dfa 94ED027A 		vldr.32	s14, [r4, #8]
 300:App/Src/calculate.c **** 				cac.C = g_result[TEST_RTC_TEMP_Z29] - cac.A;
 3119              		.loc 1 300 52 view .LVU735
 3120 0dfe D4ED047A 		vldr.32	s15, [r4, #16]
 300:App/Src/calculate.c **** 				cac.C = g_result[TEST_RTC_TEMP_Z29] - cac.A;
 3121              		.loc 1 300 42 view .LVU736
 3122 0e02 77EE677A 		vsub.f32	s15, s14, s15
 3123 0e06 17EE900A 		vmov	r0, s15
 3124 0e0a FFF7FEFF 		bl	__aeabi_f2d
 3125              	.LVL397:
 3126 0e0e 0646     		mov	r6, r0
 3127 0e10 0F46     		mov	r7, r1
 300:App/Src/calculate.c **** 				cac.C = g_result[TEST_RTC_TEMP_Z29] - cac.A;
 3128              		.loc 1 300 93 view .LVU737
 3129 0e12 DFF85081 		ldr	r8, .L179+12
 3130 0e16 D8ED047A 		vldr.32	s15, [r8, #16]
 300:App/Src/calculate.c **** 				cac.C = g_result[TEST_RTC_TEMP_Z29] - cac.A;
 3131              		.loc 1 300 118 view .LVU738
 3132 0e1a 9DED0B7A 		vldr.32	s14, [sp, #44]
 300:App/Src/calculate.c **** 				cac.C = g_result[TEST_RTC_TEMP_Z29] - cac.A;
 3133              		.loc 1 300 113 view .LVU739
 3134 0e1e 77EEC77A 		vsub.f32	s15, s15, s14
 300:App/Src/calculate.c **** 				cac.C = g_result[TEST_RTC_TEMP_Z29] - cac.A;
 3135              		.loc 1 300 80 view .LVU740
 3136 0e22 C7EE887A 		vdiv.f32	s15, s15, s16
 3137 0e26 17EE900A 		vmov	r0, s15
 3138 0e2a FFF7FEFF 		bl	__aeabi_f2d
 3139              	.LVL398:
 3140 0e2e 41EC100B 		vmov	d0, r0, r1
 3141 0e32 FFF7FEFF 		bl	cosh
 3142              	.LVL399:
 3143 0e36 53EC102B 		vmov	r2, r3, d0
 300:App/Src/calculate.c **** 				cac.C = g_result[TEST_RTC_TEMP_Z29] - cac.A;
 3144              		.loc 1 300 78 view .LVU741
 3145 0e3a 0020     		movs	r0, #0
 3146 0e3c 4A49     		ldr	r1, .L179+16
 3147 0e3e FFF7FEFF 		bl	__aeabi_dsub
 3148              	.LVL400:
 3149 0e42 0246     		mov	r2, r0
 3150 0e44 0B46     		mov	r3, r1
 300:App/Src/calculate.c **** 				cac.C = g_result[TEST_RTC_TEMP_Z29] - cac.A;
 3151              		.loc 1 300 73 view .LVU742
 3152 0e46 3046     		mov	r0, r6
 3153 0e48 3946     		mov	r1, r7
 3154 0e4a FFF7FEFF 		bl	__aeabi_ddiv
ARM GAS  C:\Users\86158\AppData\Local\Temp\cckMY1rk.s 			page 71


 3155              	.LVL401:
 3156 0e4e FFF7FEFF 		bl	__aeabi_d2f
 3157              	.LVL402:
 3158 0e52 07EE900A 		vmov	s15, r0
 300:App/Src/calculate.c **** 				cac.C = g_result[TEST_RTC_TEMP_Z29] - cac.A;
 3159              		.loc 1 300 11 view .LVU743
 3160 0e56 0990     		str	r0, [sp, #36]	@ float
 301:App/Src/calculate.c **** 				error = cac.A * cosh((g_input[TEST_RTC_TEMP_Z60] - cac.X0) / cac.B) + cac.C - g_result[TEST_RTC
 3161              		.loc 1 301 5 is_stmt 1 view .LVU744
 301:App/Src/calculate.c **** 				error = cac.A * cosh((g_input[TEST_RTC_TEMP_Z60] - cac.X0) / cac.B) + cac.C - g_result[TEST_RTC
 3162              		.loc 1 301 21 is_stmt 0 view .LVU745
 3163 0e58 94ED027A 		vldr.32	s14, [r4, #8]
 301:App/Src/calculate.c **** 				error = cac.A * cosh((g_input[TEST_RTC_TEMP_Z60] - cac.X0) / cac.B) + cac.C - g_result[TEST_RTC
 3164              		.loc 1 301 41 view .LVU746
 3165 0e5c 77EE677A 		vsub.f32	s15, s14, s15
 301:App/Src/calculate.c **** 				error = cac.A * cosh((g_input[TEST_RTC_TEMP_Z60] - cac.X0) / cac.B) + cac.C - g_result[TEST_RTC
 3166              		.loc 1 301 11 view .LVU747
 3167 0e60 CDED0C7A 		vstr.32	s15, [sp, #48]
 302:App/Src/calculate.c **** 				if (fabs(error) <= 0.2) {
 3168              		.loc 1 302 5 is_stmt 1 view .LVU748
 302:App/Src/calculate.c **** 				if (fabs(error) <= 0.2) {
 3169              		.loc 1 302 16 is_stmt 0 view .LVU749
 3170 0e64 FFF7FEFF 		bl	__aeabi_f2d
 3171              	.LVL403:
 3172 0e68 0646     		mov	r6, r0
 3173 0e6a 0F46     		mov	r7, r1
 302:App/Src/calculate.c **** 				if (fabs(error) <= 0.2) {
 3174              		.loc 1 302 34 view .LVU750
 3175 0e6c D8ED037A 		vldr.32	s15, [r8, #12]
 302:App/Src/calculate.c **** 				if (fabs(error) <= 0.2) {
 3176              		.loc 1 302 59 view .LVU751
 3177 0e70 9DED0B7A 		vldr.32	s14, [sp, #44]
 302:App/Src/calculate.c **** 				if (fabs(error) <= 0.2) {
 3178              		.loc 1 302 54 view .LVU752
 3179 0e74 77EEC77A 		vsub.f32	s15, s15, s14
 302:App/Src/calculate.c **** 				if (fabs(error) <= 0.2) {
 3180              		.loc 1 302 21 view .LVU753
 3181 0e78 9DED0A7A 		vldr.32	s14, [sp, #40]
 3182 0e7c C7EE877A 		vdiv.f32	s15, s15, s14
 3183 0e80 17EE900A 		vmov	r0, s15
 3184 0e84 FFF7FEFF 		bl	__aeabi_f2d
 3185              	.LVL404:
 3186 0e88 41EC100B 		vmov	d0, r0, r1
 3187 0e8c FFF7FEFF 		bl	cosh
 3188              	.LVL405:
 3189 0e90 53EC102B 		vmov	r2, r3, d0
 302:App/Src/calculate.c **** 				if (fabs(error) <= 0.2) {
 3190              		.loc 1 302 19 view .LVU754
 3191 0e94 3046     		mov	r0, r6
 3192 0e96 3946     		mov	r1, r7
 3193 0e98 FFF7FEFF 		bl	__aeabi_dmul
 3194              	.LVL406:
 3195 0e9c 0646     		mov	r6, r0
 3196 0e9e 0F46     		mov	r7, r1
 302:App/Src/calculate.c **** 				if (fabs(error) <= 0.2) {
 3197              		.loc 1 302 78 view .LVU755
 3198 0ea0 0C98     		ldr	r0, [sp, #48]	@ float
ARM GAS  C:\Users\86158\AppData\Local\Temp\cckMY1rk.s 			page 72


 3199 0ea2 FFF7FEFF 		bl	__aeabi_f2d
 3200              	.LVL407:
 3201 0ea6 0246     		mov	r2, r0
 3202 0ea8 0B46     		mov	r3, r1
 302:App/Src/calculate.c **** 				if (fabs(error) <= 0.2) {
 3203              		.loc 1 302 73 view .LVU756
 3204 0eaa 3046     		mov	r0, r6
 3205 0eac 3946     		mov	r1, r7
 3206 0eae FFF7FEFF 		bl	__aeabi_dadd
 3207              	.LVL408:
 3208 0eb2 0646     		mov	r6, r0
 3209 0eb4 0F46     		mov	r7, r1
 302:App/Src/calculate.c **** 				if (fabs(error) <= 0.2) {
 3210              		.loc 1 302 91 view .LVU757
 3211 0eb6 E068     		ldr	r0, [r4, #12]	@ float
 3212 0eb8 FFF7FEFF 		bl	__aeabi_f2d
 3213              	.LVL409:
 3214 0ebc 0246     		mov	r2, r0
 3215 0ebe 0B46     		mov	r3, r1
 302:App/Src/calculate.c **** 				if (fabs(error) <= 0.2) {
 3216              		.loc 1 302 81 view .LVU758
 3217 0ec0 3046     		mov	r0, r6
 3218 0ec2 3946     		mov	r1, r7
 3219 0ec4 FFF7FEFF 		bl	__aeabi_dsub
 3220              	.LVL410:
 302:App/Src/calculate.c **** 				if (fabs(error) <= 0.2) {
 3221              		.loc 1 302 11 view .LVU759
 3222 0ec8 FFF7FEFF 		bl	__aeabi_d2f
 3223              	.LVL411:
 3224 0ecc 08EE100A 		vmov	s16, r0
 3225              	.LVL412:
 303:App/Src/calculate.c **** 					break;
 3226              		.loc 1 303 5 is_stmt 1 view .LVU760
 303:App/Src/calculate.c **** 					break;
 3227              		.loc 1 303 9 is_stmt 0 view .LVU761
 3228 0ed0 F0EEC87A 		vabs.f32	s15, s16
 3229 0ed4 17EE900A 		vmov	r0, s15
 3230              	.LVL413:
 303:App/Src/calculate.c **** 					break;
 3231              		.loc 1 303 9 view .LVU762
 3232 0ed8 FFF7FEFF 		bl	__aeabi_f2d
 3233              	.LVL414:
 303:App/Src/calculate.c **** 					break;
 3234              		.loc 1 303 8 view .LVU763
 3235 0edc 1EA3     		adr	r3, .L179
 3236 0ede D3E90023 		ldrd	r2, [r3]
 3237 0ee2 FFF7FEFF 		bl	__aeabi_dcmple
 3238              	.LVL415:
 3239 0ee6 A8B9     		cbnz	r0, .L131
 306:App/Src/calculate.c **** 						minB = cac.B;
 3240              		.loc 1 306 6 is_stmt 1 view .LVU764
 306:App/Src/calculate.c **** 						minB = cac.B;
 3241              		.loc 1 306 9 is_stmt 0 view .LVU765
 3242 0ee8 F5EEC08A 		vcmpe.f32	s17, #0
 3243 0eec F1EE10FA 		vmrs	APSR_nzcv, FPSCR
 3244 0ef0 FFF66EAF 		blt	.L132
 306:App/Src/calculate.c **** 						minB = cac.B;
ARM GAS  C:\Users\86158\AppData\Local\Temp\cckMY1rk.s 			page 73


 3245              		.loc 1 306 25 discriminator 1 view .LVU766
 3246 0ef4 B5EEC08A 		vcmpe.f32	s16, #0
 3247 0ef8 F1EE10FA 		vmrs	APSR_nzcv, FPSCR
 3248 0efc FFF668AF 		blt	.L132
 3249              	.L134:
 307:App/Src/calculate.c **** 					} else {
 3250              		.loc 1 307 7 is_stmt 1 view .LVU767
 307:App/Src/calculate.c **** 					} else {
 3251              		.loc 1 307 12 is_stmt 0 view .LVU768
 3252 0f00 DDED0A9A 		vldr.32	s19, [sp, #40]
 3253              	.LVL416:
 307:App/Src/calculate.c **** 					} else {
 3254              		.loc 1 307 12 view .LVU769
 3255 0f04 6CE7     		b	.L138
 3256              	.L170:
 306:App/Src/calculate.c **** 						minB = cac.B;
 3257              		.loc 1 306 58 discriminator 4 view .LVU770
 3258 0f06 B5EEC08A 		vcmpe.f32	s16, #0
 3259 0f0a F1EE10FA 		vmrs	APSR_nzcv, FPSCR
 3260 0f0e 3FF665AF 		bhi	.L135
 3261 0f12 F5E7     		b	.L134
 3262              	.L131:
 313:App/Src/calculate.c **** 				cac.mode = 1;
 3263              		.loc 1 313 4 is_stmt 1 view .LVU771
 313:App/Src/calculate.c **** 				cac.mode = 1;
 3264              		.loc 1 313 8 is_stmt 0 view .LVU772
 3265 0f14 F0EEC87A 		vabs.f32	s15, s16
 313:App/Src/calculate.c **** 				cac.mode = 1;
 3266              		.loc 1 313 7 view .LVU773
 3267 0f18 B7EE007A 		vmov.f32	s14, #1.0e+0
 3268 0f1c F4EEC77A 		vcmpe.f32	s15, s14
 3269 0f20 F1EE10FA 		vmrs	APSR_nzcv, FPSCR
 3270 0f24 10D8     		bhi	.L165
 314:App/Src/calculate.c **** 				copy_parameter(&g_right, &cac);
 3271              		.loc 1 314 5 is_stmt 1 view .LVU774
 314:App/Src/calculate.c **** 				copy_parameter(&g_right, &cac);
 3272              		.loc 1 314 14 is_stmt 0 view .LVU775
 3273 0f26 0123     		movs	r3, #1
 3274 0f28 8DF83430 		strb	r3, [sp, #52]
 315:App/Src/calculate.c **** 				UsbPrintf("min error:%.2f\n", error);
 3275              		.loc 1 315 5 is_stmt 1 view .LVU776
 3276 0f2c 09A9     		add	r1, sp, #36
 3277 0f2e 1248     		ldr	r0, .L179+32
 3278 0f30 FFF7FEFF 		bl	copy_parameter
 3279              	.LVL417:
 316:App/Src/calculate.c **** 			} else {
 3280              		.loc 1 316 5 view .LVU777
 3281 0f34 18EE100A 		vmov	r0, s16
 3282 0f38 FFF7FEFF 		bl	__aeabi_f2d
 3283              	.LVL418:
 3284 0f3c 0246     		mov	r2, r0
 3285 0f3e 0B46     		mov	r3, r1
 3286 0f40 0E48     		ldr	r0, .L179+36
 3287 0f42 FFF7FEFF 		bl	UsbPrintf
 3288              	.LVL419:
 313:App/Src/calculate.c **** 				cac.mode = 1;
 3289              		.loc 1 313 7 is_stmt 0 view .LVU778
ARM GAS  C:\Users\86158\AppData\Local\Temp\cckMY1rk.s 			page 74


 3290 0f46 F3E5     		b	.L123
 3291              	.L165:
 318:App/Src/calculate.c **** 				return 0;
 3292              		.loc 1 318 5 is_stmt 1 view .LVU779
 3293 0f48 0D48     		ldr	r0, .L179+40
 3294 0f4a FFF7FEFF 		bl	UsbPrintf
 3295              	.LVL420:
 319:App/Src/calculate.c **** 			}
 3296              		.loc 1 319 5 view .LVU780
 319:App/Src/calculate.c **** 			}
 3297              		.loc 1 319 12 is_stmt 0 view .LVU781
 3298 0f4e 0020     		movs	r0, #0
 3299 0f50 14E6     		b	.L86
 3300              	.L180:
 3301 0f52 00BFAFF3 		.align	3
 3301      0080
 3302              	.L179:
 3303 0f58 9A999999 		.word	-1717986918
 3304 0f5c 9999C93F 		.word	1070176665
 3305 0f60 00000000 		.word	.LANCHOR2
 3306 0f64 00000000 		.word	.LANCHOR1
 3307 0f68 0000F03F 		.word	1072693248
 3308 0f6c 00807744 		.word	1148682240
 3309 0f70 00000000 		.word	.LC9
 3310 0f74 20010000 		.word	.LC19
 3311 0f78 00000000 		.word	.LANCHOR4
 3312 0f7c 2C000000 		.word	.LC11
 3313 0f80 38010000 		.word	.LC20
 3314              	.LVL421:
 3315              	.L127:
 322:App/Src/calculate.c **** 			return 0;
 3316              		.loc 1 322 4 is_stmt 1 view .LVU782
 3317 0f84 0248     		ldr	r0, .L181
 3318 0f86 FFF7FEFF 		bl	UsbPrintf
 3319              	.LVL422:
 323:App/Src/calculate.c **** 		}
 3320              		.loc 1 323 4 view .LVU783
 323:App/Src/calculate.c **** 		}
 3321              		.loc 1 323 11 is_stmt 0 view .LVU784
 3322 0f8a 0020     		movs	r0, #0
 3323 0f8c F6E5     		b	.L86
 3324              	.L182:
 3325 0f8e 00BF     		.align	2
 3326              	.L181:
 3327 0f90 5C010000 		.word	.LC21
 3328              		.cfi_endproc
 3329              	.LFE240:
 3331              		.section	.text.compensate_sd8825_left,"ax",%progbits
 3332              		.align	1
 3333              		.global	compensate_sd8825_left
 3334              		.syntax unified
 3335              		.thumb
 3336              		.thumb_func
 3338              	compensate_sd8825_left:
 3339              	.LVL423:
 3340              	.LFB241:
 331:App/Src/calculate.c **** 
ARM GAS  C:\Users\86158\AppData\Local\Temp\cckMY1rk.s 			page 75


 332:App/Src/calculate.c **** 
 333:App/Src/calculate.c **** // float compensate_sd8825_left(float nowTemp)//基于20240510测试的数据，计算的一段补偿值，使得5度不
 334:App/Src/calculate.c **** // {
 335:App/Src/calculate.c **** // 	float result, center;
 336:App/Src/calculate.c **** // 	center = (g_input[TEST_RTC_TEMP_Z29] + g_input[TEST_RTC_TEMP_F10]) * 0.5;
 337:App/Src/calculate.c **** // 	result = -3 + 0.003 * (nowTemp - center) * (nowTemp - center);
 338:App/Src/calculate.c **** // 	if (result < 0) {
 339:App/Src/calculate.c **** // 		return result;
 340:App/Src/calculate.c **** // 	} else {
 341:App/Src/calculate.c **** // 		return 0;
 342:App/Src/calculate.c **** // 	}
 343:App/Src/calculate.c **** // }
 344:App/Src/calculate.c **** 
 345:App/Src/calculate.c **** // float compensate_sd8825_right(float nowTemp)//基于20240510测试的数据，计算的一段补偿值，使得45度
 346:App/Src/calculate.c **** // {
 347:App/Src/calculate.c **** // 	float result, center;
 348:App/Src/calculate.c **** // 	center = (g_input[TEST_RTC_TEMP_Z29] + g_input[TEST_RTC_TEMP_Z60]) * 0.5;
 349:App/Src/calculate.c **** // 	result = 3 - 0.003 * (nowTemp - center) * (nowTemp - center);
 350:App/Src/calculate.c **** // 	if (result > 0) {
 351:App/Src/calculate.c **** // 		return result;
 352:App/Src/calculate.c **** // 	} else {
 353:App/Src/calculate.c **** // 		return 0;
 354:App/Src/calculate.c **** // 	}
 355:App/Src/calculate.c **** // }
 356:App/Src/calculate.c **** float compensate_sd8825_left(float nowTemp)//基于20240816测试的数据，计算的一段补偿值，使得5度不要
 357:App/Src/calculate.c **** {
 3341              		.loc 1 357 1 is_stmt 1 view -0
 3342              		.cfi_startproc
 3343              		@ args = 0, pretend = 0, frame = 0
 3344              		@ frame_needed = 0, uses_anonymous_args = 0
 3345              		.loc 1 357 1 is_stmt 0 view .LVU786
 3346 0000 38B5     		push	{r3, r4, r5, lr}
 3347              	.LCFI27:
 3348              		.cfi_def_cfa_offset 16
 3349              		.cfi_offset 3, -16
 3350              		.cfi_offset 4, -12
 3351              		.cfi_offset 5, -8
 3352              		.cfi_offset 14, -4
 358:App/Src/calculate.c **** 	float result, center;
 3353              		.loc 1 358 2 is_stmt 1 view .LVU787
 359:App/Src/calculate.c **** 	center = g_input[TEST_RTC_TEMP_Z29] - 40;
 3354              		.loc 1 359 2 view .LVU788
 3355              		.loc 1 359 18 is_stmt 0 view .LVU789
 3356 0002 174B     		ldr	r3, .L188+8
 3357 0004 D3ED027A 		vldr.32	s15, [r3, #8]
 3358              		.loc 1 359 9 view .LVU790
 3359 0008 9FED167A 		vldr.32	s14, .L188+12
 3360 000c 77EEC77A 		vsub.f32	s15, s15, s14
 3361              	.LVL424:
 360:App/Src/calculate.c **** 	result = -5 + 0.003 * (nowTemp - center) * (nowTemp - center);
 3362              		.loc 1 360 2 is_stmt 1 view .LVU791
 3363              		.loc 1 360 33 is_stmt 0 view .LVU792
 3364 0010 70EE677A 		vsub.f32	s15, s0, s15
 3365              	.LVL425:
 3366              		.loc 1 360 33 view .LVU793
 3367 0014 17EE900A 		vmov	r0, s15
 3368 0018 FFF7FEFF 		bl	__aeabi_f2d
ARM GAS  C:\Users\86158\AppData\Local\Temp\cckMY1rk.s 			page 76


 3369              	.LVL426:
 3370              		.loc 1 360 33 view .LVU794
 3371 001c 0446     		mov	r4, r0
 3372 001e 0D46     		mov	r5, r1
 3373              		.loc 1 360 22 view .LVU795
 3374 0020 0DA3     		adr	r3, .L188
 3375 0022 D3E90023 		ldrd	r2, [r3]
 3376 0026 FFF7FEFF 		bl	__aeabi_dmul
 3377              	.LVL427:
 3378 002a 0246     		mov	r2, r0
 3379 002c 0B46     		mov	r3, r1
 3380              		.loc 1 360 43 view .LVU796
 3381 002e 2046     		mov	r0, r4
 3382 0030 2946     		mov	r1, r5
 3383 0032 FFF7FEFF 		bl	__aeabi_dmul
 3384              	.LVL428:
 3385              		.loc 1 360 14 view .LVU797
 3386 0036 0022     		movs	r2, #0
 3387 0038 0B4B     		ldr	r3, .L188+16
 3388 003a FFF7FEFF 		bl	__aeabi_dsub
 3389              	.LVL429:
 3390              		.loc 1 360 9 view .LVU798
 3391 003e FFF7FEFF 		bl	__aeabi_d2f
 3392              	.LVL430:
 3393 0042 00EE100A 		vmov	s0, r0
 3394              	.LVL431:
 361:App/Src/calculate.c **** 	if (result < 0) {
 3395              		.loc 1 361 2 is_stmt 1 view .LVU799
 3396              		.loc 1 361 5 is_stmt 0 view .LVU800
 3397 0046 B5EEC00A 		vcmpe.f32	s0, #0
 3398 004a F1EE10FA 		vmrs	APSR_nzcv, FPSCR
 3399 004e 01D4     		bmi	.L183
 362:App/Src/calculate.c **** 		return result;
 363:App/Src/calculate.c **** 	} else {
 364:App/Src/calculate.c **** 		return 0;
 3400              		.loc 1 364 10 view .LVU801
 3401 0050 9FED060A 		vldr.32	s0, .L188+20
 3402              	.L183:
 365:App/Src/calculate.c **** 	}
 366:App/Src/calculate.c **** }
 3403              		.loc 1 366 1 view .LVU802
 3404 0054 38BD     		pop	{r3, r4, r5, pc}
 3405              	.L189:
 3406 0056 00BF     		.align	3
 3407              	.L188:
 3408 0058 FA7E6ABC 		.word	-1133871366
 3409 005c 7493683F 		.word	1063818100
 3410 0060 00000000 		.word	.LANCHOR1
 3411 0064 00002042 		.word	1109393408
 3412 0068 00001440 		.word	1075052544
 3413 006c 00000000 		.word	0
 3414              		.cfi_endproc
 3415              	.LFE241:
 3417              		.section	.text.compensate_sd8825_right,"ax",%progbits
 3418              		.align	1
 3419              		.global	compensate_sd8825_right
 3420              		.syntax unified
ARM GAS  C:\Users\86158\AppData\Local\Temp\cckMY1rk.s 			page 77


 3421              		.thumb
 3422              		.thumb_func
 3424              	compensate_sd8825_right:
 3425              	.LVL432:
 3426              	.LFB242:
 367:App/Src/calculate.c **** 
 368:App/Src/calculate.c **** float compensate_sd8825_right(float nowTemp)//基于20240816测试的数据，计算的一段补偿值，使得45度不
 369:App/Src/calculate.c **** {
 3427              		.loc 1 369 1 is_stmt 1 view -0
 3428              		.cfi_startproc
 3429              		@ args = 0, pretend = 0, frame = 0
 3430              		@ frame_needed = 0, uses_anonymous_args = 0
 3431              		.loc 1 369 1 is_stmt 0 view .LVU804
 3432 0000 38B5     		push	{r3, r4, r5, lr}
 3433              	.LCFI28:
 3434              		.cfi_def_cfa_offset 16
 3435              		.cfi_offset 3, -16
 3436              		.cfi_offset 4, -12
 3437              		.cfi_offset 5, -8
 3438              		.cfi_offset 14, -4
 370:App/Src/calculate.c **** 	float result, center;
 3439              		.loc 1 370 2 is_stmt 1 view .LVU805
 371:App/Src/calculate.c **** 	center = g_input[TEST_RTC_TEMP_Z29] + 40;
 3440              		.loc 1 371 2 view .LVU806
 3441              		.loc 1 371 18 is_stmt 0 view .LVU807
 3442 0002 194B     		ldr	r3, .L196+8
 3443 0004 D3ED027A 		vldr.32	s15, [r3, #8]
 3444              		.loc 1 371 9 view .LVU808
 3445 0008 9FED187A 		vldr.32	s14, .L196+12
 3446 000c 77EE877A 		vadd.f32	s15, s15, s14
 3447              	.LVL433:
 372:App/Src/calculate.c **** 	result = 5 - 0.003 * (nowTemp - center) * (nowTemp - center);
 3448              		.loc 1 372 2 is_stmt 1 view .LVU809
 3449              		.loc 1 372 32 is_stmt 0 view .LVU810
 3450 0010 70EE677A 		vsub.f32	s15, s0, s15
 3451              	.LVL434:
 3452              		.loc 1 372 32 view .LVU811
 3453 0014 17EE900A 		vmov	r0, s15
 3454 0018 FFF7FEFF 		bl	__aeabi_f2d
 3455              	.LVL435:
 3456              		.loc 1 372 32 view .LVU812
 3457 001c 0446     		mov	r4, r0
 3458 001e 0D46     		mov	r5, r1
 3459              		.loc 1 372 21 view .LVU813
 3460 0020 0FA3     		adr	r3, .L196
 3461 0022 D3E90023 		ldrd	r2, [r3]
 3462 0026 FFF7FEFF 		bl	__aeabi_dmul
 3463              	.LVL436:
 3464 002a 0246     		mov	r2, r0
 3465 002c 0B46     		mov	r3, r1
 3466              		.loc 1 372 42 view .LVU814
 3467 002e 2046     		mov	r0, r4
 3468 0030 2946     		mov	r1, r5
 3469 0032 FFF7FEFF 		bl	__aeabi_dmul
 3470              	.LVL437:
 3471 0036 0246     		mov	r2, r0
 3472 0038 0B46     		mov	r3, r1
ARM GAS  C:\Users\86158\AppData\Local\Temp\cckMY1rk.s 			page 78


 3473              		.loc 1 372 13 view .LVU815
 3474 003a 0020     		movs	r0, #0
 3475 003c 0C49     		ldr	r1, .L196+16
 3476 003e FFF7FEFF 		bl	__aeabi_dsub
 3477              	.LVL438:
 3478              		.loc 1 372 9 view .LVU816
 3479 0042 FFF7FEFF 		bl	__aeabi_d2f
 3480              	.LVL439:
 3481 0046 00EE100A 		vmov	s0, r0
 3482              	.LVL440:
 373:App/Src/calculate.c **** 	if (result > 0) {
 3483              		.loc 1 373 2 is_stmt 1 view .LVU817
 3484              		.loc 1 373 5 is_stmt 0 view .LVU818
 3485 004a B5EEC00A 		vcmpe.f32	s0, #0
 3486 004e F1EE10FA 		vmrs	APSR_nzcv, FPSCR
 3487 0052 00DD     		ble	.L195
 3488              	.L190:
 374:App/Src/calculate.c **** 		return result;
 375:App/Src/calculate.c **** 	} else {
 376:App/Src/calculate.c **** 		return 0;
 377:App/Src/calculate.c **** 	}
 378:App/Src/calculate.c **** }
 3489              		.loc 1 378 1 view .LVU819
 3490 0054 38BD     		pop	{r3, r4, r5, pc}
 3491              	.L195:
 376:App/Src/calculate.c **** 	}
 3492              		.loc 1 376 10 view .LVU820
 3493 0056 9FED070A 		vldr.32	s0, .L196+20
 3494 005a FBE7     		b	.L190
 3495              	.L197:
 3496 005c AFF30080 		.align	3
 3497              	.L196:
 3498 0060 FA7E6ABC 		.word	-1133871366
 3499 0064 7493683F 		.word	1063818100
 3500 0068 00000000 		.word	.LANCHOR1
 3501 006c 00002042 		.word	1109393408
 3502 0070 00001440 		.word	1075052544
 3503 0074 00000000 		.word	0
 3504              		.cfi_endproc
 3505              	.LFE242:
 3507              		.section	.rodata.init_para_3dot.str1.4,"aMS",%progbits,1
 3508              		.align	2
 3509              	.LC24:
 3510 0000 70617261 		.ascii	"parameter 3dot init success!\012\000"
 3510      6D657465 
 3510      72203364 
 3510      6F742069 
 3510      6E697420 
 3511              		.section	.text.init_para_3dot,"ax",%progbits
 3512              		.align	1
 3513              		.global	init_para_3dot
 3514              		.syntax unified
 3515              		.thumb
 3516              		.thumb_func
 3518              	init_para_3dot:
 3519              	.LFB243:
 379:App/Src/calculate.c **** 
ARM GAS  C:\Users\86158\AppData\Local\Temp\cckMY1rk.s 			page 79


 380:App/Src/calculate.c **** uint8_t init_para_3dot(void)
 381:App/Src/calculate.c **** {
 3520              		.loc 1 381 1 is_stmt 1 view -0
 3521              		.cfi_startproc
 3522              		@ args = 0, pretend = 0, frame = 32
 3523              		@ frame_needed = 0, uses_anonymous_args = 0
 3524 0000 2DE9F04F 		push	{r4, r5, r6, r7, r8, r9, r10, fp, lr}
 3525              	.LCFI29:
 3526              		.cfi_def_cfa_offset 36
 3527              		.cfi_offset 4, -36
 3528              		.cfi_offset 5, -32
 3529              		.cfi_offset 6, -28
 3530              		.cfi_offset 7, -24
 3531              		.cfi_offset 8, -20
 3532              		.cfi_offset 9, -16
 3533              		.cfi_offset 10, -12
 3534              		.cfi_offset 11, -8
 3535              		.cfi_offset 14, -4
 3536 0004 2DED028B 		vpush.64	{d8}
 3537              	.LCFI30:
 3538              		.cfi_def_cfa_offset 44
 3539              		.cfi_offset 80, -44
 3540              		.cfi_offset 81, -40
 3541 0008 91B0     		sub	sp, sp, #68
 3542              	.LCFI31:
 3543              		.cfi_def_cfa_offset 112
 382:App/Src/calculate.c **** 	Parameter cac = {0};
 3544              		.loc 1 382 2 view .LVU822
 3545              		.loc 1 382 12 is_stmt 0 view .LVU823
 3546 000a 0024     		movs	r4, #0
 3547 000c 0B94     		str	r4, [sp, #44]
 3548 000e 0C94     		str	r4, [sp, #48]
 3549 0010 0D94     		str	r4, [sp, #52]
 3550 0012 0E94     		str	r4, [sp, #56]
 3551 0014 0F94     		str	r4, [sp, #60]
 383:App/Src/calculate.c **** 
 384:App/Src/calculate.c **** 	cac.X0 = g_input[TEST_RTC_TEMP_Z29];
 3552              		.loc 1 384 2 is_stmt 1 view .LVU824
 3553              		.loc 1 384 18 is_stmt 0 view .LVU825
 3554 0016 644E     		ldr	r6, .L200
 3555 0018 D6ED028A 		vldr.32	s17, [r6, #8]
 3556              		.loc 1 384 9 view .LVU826
 3557 001c CDED0D8A 		vstr.32	s17, [sp, #52]
 385:App/Src/calculate.c **** 	cac.C = g_result[TEST_RTC_TEMP_Z29];
 3558              		.loc 1 385 2 is_stmt 1 view .LVU827
 3559              		.loc 1 385 18 is_stmt 0 view .LVU828
 3560 0020 624D     		ldr	r5, .L200+4
 3561 0022 D5ED027A 		vldr.32	s15, [r5, #8]
 3562              		.loc 1 385 8 view .LVU829
 3563 0026 CDED0E7A 		vstr.32	s15, [sp, #56]
 386:App/Src/calculate.c **** 	cac.B = 120;// 
 3564              		.loc 1 386 2 is_stmt 1 view .LVU830
 3565              		.loc 1 386 8 is_stmt 0 view .LVU831
 3566 002a 9FED618A 		vldr.32	s16, .L200+8
 3567 002e 8DED0C8A 		vstr.32	s16, [sp, #48]
 387:App/Src/calculate.c **** 	cac.A = (g_result[TEST_RTC_TEMP_F40] - cac.C) / log(cosh((g_input[TEST_RTC_TEMP_F40] - cac.X0) / c
 3568              		.loc 1 387 2 is_stmt 1 view .LVU832
ARM GAS  C:\Users\86158\AppData\Local\Temp\cckMY1rk.s 			page 80


 3569              		.loc 1 387 19 is_stmt 0 view .LVU833
 3570 0032 95ED007A 		vldr.32	s14, [r5]
 3571              		.loc 1 387 39 view .LVU834
 3572 0036 77EE677A 		vsub.f32	s15, s14, s15
 3573 003a 17EE900A 		vmov	r0, s15
 3574 003e FFF7FEFF 		bl	__aeabi_f2d
 3575              	.LVL441:
 3576 0042 8046     		mov	r8, r0
 3577 0044 8946     		mov	r9, r1
 3578              		.loc 1 387 67 view .LVU835
 3579 0046 D6ED007A 		vldr.32	s15, [r6]
 3580              		.loc 1 387 87 view .LVU836
 3581 004a 77EEE87A 		vsub.f32	s15, s15, s17
 3582              		.loc 1 387 50 view .LVU837
 3583 004e C7EE887A 		vdiv.f32	s15, s15, s16
 3584 0052 17EE900A 		vmov	r0, s15
 3585 0056 FFF7FEFF 		bl	__aeabi_f2d
 3586              	.LVL442:
 3587 005a 41EC100B 		vmov	d0, r0, r1
 3588 005e FFF7FEFF 		bl	cosh
 3589              	.LVL443:
 3590 0062 FFF7FEFF 		bl	log
 3591              	.LVL444:
 3592 0066 53EC102B 		vmov	r2, r3, d0
 3593              		.loc 1 387 48 view .LVU838
 3594 006a 4046     		mov	r0, r8
 3595 006c 4946     		mov	r1, r9
 3596 006e FFF7FEFF 		bl	__aeabi_ddiv
 3597              	.LVL445:
 3598 0072 FFF7FEFF 		bl	__aeabi_d2f
 3599              	.LVL446:
 3600              		.loc 1 387 8 view .LVU839
 3601 0076 0B90     		str	r0, [sp, #44]	@ float
 388:App/Src/calculate.c **** 	cac.mode = 0;
 3602              		.loc 1 388 2 is_stmt 1 view .LVU840
 3603              		.loc 1 388 11 is_stmt 0 view .LVU841
 3604 0078 8DF83C40 		strb	r4, [sp, #60]
 389:App/Src/calculate.c **** 	copy_parameter(&g_left, &cac);
 3605              		.loc 1 389 2 is_stmt 1 view .LVU842
 3606 007c 4D4C     		ldr	r4, .L200+12
 3607 007e 0BA9     		add	r1, sp, #44
 3608 0080 2046     		mov	r0, r4
 3609 0082 FFF7FEFF 		bl	copy_parameter
 3610              	.LVL447:
 390:App/Src/calculate.c **** 
 391:App/Src/calculate.c **** 	UsbPrintf("left:\tA:%.2f, B:%.2f, C:%.2f; X0:%.2f, mode:%d\n", g_left.A, g_left.B, g_left.C, g_lef
 3611              		.loc 1 391 2 view .LVU843
 3612              		.loc 1 391 81 is_stmt 0 view .LVU844
 3613 0086 6768     		ldr	r7, [r4, #4]	@ float
 3614              		.loc 1 391 91 view .LVU845
 3615 0088 D4F80CA0 		ldr	r10, [r4, #12]	@ float
 3616              		.loc 1 391 101 view .LVU846
 3617 008c D4F80880 		ldr	r8, [r4, #8]	@ float
 3618              		.loc 1 391 112 view .LVU847
 3619 0090 94F810B0 		ldrb	fp, [r4, #16]	@ zero_extendqisi2
 3620              		.loc 1 391 2 view .LVU848
 3621 0094 2068     		ldr	r0, [r4]	@ float
ARM GAS  C:\Users\86158\AppData\Local\Temp\cckMY1rk.s 			page 81


 3622 0096 FFF7FEFF 		bl	__aeabi_f2d
 3623              	.LVL448:
 3624 009a CDE90801 		strd	r0, [sp, #32]
 3625 009e CDF818B0 		str	fp, [sp, #24]
 3626 00a2 4046     		mov	r0, r8	@ float
 3627 00a4 FFF7FEFF 		bl	__aeabi_f2d
 3628              	.LVL449:
 3629 00a8 CDE90401 		strd	r0, [sp, #16]
 3630 00ac 5046     		mov	r0, r10	@ float
 3631 00ae FFF7FEFF 		bl	__aeabi_f2d
 3632              	.LVL450:
 3633 00b2 CDE90201 		strd	r0, [sp, #8]
 3634 00b6 3846     		mov	r0, r7	@ float
 3635 00b8 FFF7FEFF 		bl	__aeabi_f2d
 3636              	.LVL451:
 3637 00bc CDE90001 		strd	r0, [sp]
 3638 00c0 DDE90823 		ldrd	r2, [sp, #32]
 3639 00c4 3C48     		ldr	r0, .L200+16
 3640 00c6 FFF7FEFF 		bl	UsbPrintf
 3641              	.LVL452:
 392:App/Src/calculate.c **** 
 393:App/Src/calculate.c **** //-------------------------------------------------------------------------------------------------
 394:App/Src/calculate.c **** 	cac.X0 = g_input[TEST_RTC_TEMP_Z29];
 3642              		.loc 1 394 2 is_stmt 1 view .LVU849
 3643              		.loc 1 394 18 is_stmt 0 view .LVU850
 3644 00ca D6ED028A 		vldr.32	s17, [r6, #8]
 3645              		.loc 1 394 9 view .LVU851
 3646 00ce CDED0D8A 		vstr.32	s17, [sp, #52]
 395:App/Src/calculate.c **** 	cac.B = 120;// 
 3647              		.loc 1 395 2 is_stmt 1 view .LVU852
 3648              		.loc 1 395 8 is_stmt 0 view .LVU853
 3649 00d2 8DED0C8A 		vstr.32	s16, [sp, #48]
 396:App/Src/calculate.c **** 	cac.A = (g_result[TEST_RTC_TEMP_Z29] - g_result[TEST_RTC_TEMP_Z85]) / (1 - cosh((g_input[TEST_RTC_
 3650              		.loc 1 396 2 is_stmt 1 view .LVU854
 3651              		.loc 1 396 19 is_stmt 0 view .LVU855
 3652 00d6 95ED027A 		vldr.32	s14, [r5, #8]
 3653              		.loc 1 396 49 view .LVU856
 3654 00da D5ED047A 		vldr.32	s15, [r5, #16]
 3655              		.loc 1 396 39 view .LVU857
 3656 00de 77EE677A 		vsub.f32	s15, s14, s15
 3657 00e2 17EE900A 		vmov	r0, s15
 3658 00e6 FFF7FEFF 		bl	__aeabi_f2d
 3659              	.LVL453:
 3660 00ea 8046     		mov	r8, r0
 3661 00ec 8946     		mov	r9, r1
 3662              		.loc 1 396 90 view .LVU858
 3663 00ee D6ED047A 		vldr.32	s15, [r6, #16]
 3664              		.loc 1 396 110 view .LVU859
 3665 00f2 77EEE87A 		vsub.f32	s15, s15, s17
 3666              		.loc 1 396 77 view .LVU860
 3667 00f6 C7EE887A 		vdiv.f32	s15, s15, s16
 3668 00fa 17EE900A 		vmov	r0, s15
 3669 00fe FFF7FEFF 		bl	__aeabi_f2d
 3670              	.LVL454:
 3671 0102 41EC100B 		vmov	d0, r0, r1
 3672 0106 FFF7FEFF 		bl	cosh
 3673              	.LVL455:
ARM GAS  C:\Users\86158\AppData\Local\Temp\cckMY1rk.s 			page 82


 3674 010a 53EC102B 		vmov	r2, r3, d0
 3675              		.loc 1 396 75 view .LVU861
 3676 010e 0020     		movs	r0, #0
 3677 0110 2A49     		ldr	r1, .L200+20
 3678 0112 FFF7FEFF 		bl	__aeabi_dsub
 3679              	.LVL456:
 3680 0116 0246     		mov	r2, r0
 3681 0118 0B46     		mov	r3, r1
 3682              		.loc 1 396 70 view .LVU862
 3683 011a 4046     		mov	r0, r8
 3684 011c 4946     		mov	r1, r9
 3685 011e FFF7FEFF 		bl	__aeabi_ddiv
 3686              	.LVL457:
 3687 0122 FFF7FEFF 		bl	__aeabi_d2f
 3688              	.LVL458:
 3689 0126 07EE900A 		vmov	s15, r0
 3690              		.loc 1 396 8 view .LVU863
 3691 012a 0B90     		str	r0, [sp, #44]	@ float
 397:App/Src/calculate.c **** 	cac.C = g_result[TEST_RTC_TEMP_Z29] - cac.A;
 3692              		.loc 1 397 2 is_stmt 1 view .LVU864
 3693              		.loc 1 397 18 is_stmt 0 view .LVU865
 3694 012c 95ED027A 		vldr.32	s14, [r5, #8]
 3695              		.loc 1 397 38 view .LVU866
 3696 0130 77EE677A 		vsub.f32	s15, s14, s15
 3697              		.loc 1 397 8 view .LVU867
 3698 0134 CDED0E7A 		vstr.32	s15, [sp, #56]
 398:App/Src/calculate.c **** 	cac.mode = 1;
 3699              		.loc 1 398 2 is_stmt 1 view .LVU868
 3700              		.loc 1 398 11 is_stmt 0 view .LVU869
 3701 0138 0126     		movs	r6, #1
 3702 013a 8DF83C60 		strb	r6, [sp, #60]
 399:App/Src/calculate.c **** 	copy_parameter(&g_right, &cac);
 3703              		.loc 1 399 2 is_stmt 1 view .LVU870
 3704 013e 204C     		ldr	r4, .L200+24
 3705 0140 0BA9     		add	r1, sp, #44
 3706 0142 2046     		mov	r0, r4
 3707 0144 FFF7FEFF 		bl	copy_parameter
 3708              	.LVL459:
 400:App/Src/calculate.c **** 
 401:App/Src/calculate.c **** 	UsbPrintf("right:\tA:%.2f, B:%.2f, C:%.2f; X0:%.2f, mode:%d\n", g_right.A, g_right.B, g_right.C, g
 3709              		.loc 1 401 2 view .LVU871
 3710              		.loc 1 401 84 is_stmt 0 view .LVU872
 3711 0148 D4F80480 		ldr	r8, [r4, #4]	@ float
 3712              		.loc 1 401 95 view .LVU873
 3713 014c D4F80C90 		ldr	r9, [r4, #12]	@ float
 3714              		.loc 1 401 106 view .LVU874
 3715 0150 A768     		ldr	r7, [r4, #8]	@ float
 3716              		.loc 1 401 118 view .LVU875
 3717 0152 94F810A0 		ldrb	r10, [r4, #16]	@ zero_extendqisi2
 3718              		.loc 1 401 2 view .LVU876
 3719 0156 2068     		ldr	r0, [r4]	@ float
 3720 0158 FFF7FEFF 		bl	__aeabi_f2d
 3721              	.LVL460:
 3722 015c 0446     		mov	r4, r0
 3723 015e 0D46     		mov	r5, r1
 3724 0160 CDF818A0 		str	r10, [sp, #24]
 3725 0164 3846     		mov	r0, r7	@ float
ARM GAS  C:\Users\86158\AppData\Local\Temp\cckMY1rk.s 			page 83


 3726 0166 FFF7FEFF 		bl	__aeabi_f2d
 3727              	.LVL461:
 3728 016a CDE90401 		strd	r0, [sp, #16]
 3729 016e 4846     		mov	r0, r9	@ float
 3730 0170 FFF7FEFF 		bl	__aeabi_f2d
 3731              	.LVL462:
 3732 0174 CDE90201 		strd	r0, [sp, #8]
 3733 0178 4046     		mov	r0, r8	@ float
 3734 017a FFF7FEFF 		bl	__aeabi_f2d
 3735              	.LVL463:
 3736 017e CDE90001 		strd	r0, [sp]
 3737 0182 2246     		mov	r2, r4
 3738 0184 2B46     		mov	r3, r5
 3739 0186 0F48     		ldr	r0, .L200+28
 3740 0188 FFF7FEFF 		bl	UsbPrintf
 3741              	.LVL464:
 402:App/Src/calculate.c **** 
 403:App/Src/calculate.c **** 	log_printf("parameter 3dot init success!\n");
 3742              		.loc 1 403 2 is_stmt 1 view .LVU877
 3743 018c 0E4C     		ldr	r4, .L200+32
 3744 018e 2046     		mov	r0, r4
 3745 0190 FFF7FEFF 		bl	log_printf
 3746              	.LVL465:
 404:App/Src/calculate.c **** 	UsbPrintf("parameter 3dot init success!\n");
 3747              		.loc 1 404 2 view .LVU878
 3748 0194 2046     		mov	r0, r4
 3749 0196 FFF7FEFF 		bl	UsbPrintf
 3750              	.LVL466:
 405:App/Src/calculate.c **** 	return 1;
 3751              		.loc 1 405 2 view .LVU879
 406:App/Src/calculate.c **** }
 3752              		.loc 1 406 1 is_stmt 0 view .LVU880
 3753 019a 3046     		mov	r0, r6
 3754 019c 11B0     		add	sp, sp, #68
 3755              	.LCFI32:
 3756              		.cfi_def_cfa_offset 44
 3757              		@ sp needed
 3758 019e BDEC028B 		vldm	sp!, {d8}
 3759              	.LCFI33:
 3760              		.cfi_restore 80
 3761              		.cfi_restore 81
 3762              		.cfi_def_cfa_offset 36
 3763 01a2 BDE8F08F 		pop	{r4, r5, r6, r7, r8, r9, r10, fp, pc}
 3764              	.L201:
 3765 01a6 00BF     		.align	2
 3766              	.L200:
 3767 01a8 00000000 		.word	.LANCHOR1
 3768 01ac 00000000 		.word	.LANCHOR2
 3769 01b0 0000F042 		.word	1123024896
 3770 01b4 00000000 		.word	.LANCHOR3
 3771 01b8 B4000000 		.word	.LC16
 3772 01bc 0000F03F 		.word	1072693248
 3773 01c0 00000000 		.word	.LANCHOR4
 3774 01c4 80010000 		.word	.LC22
 3775 01c8 00000000 		.word	.LC24
 3776              		.cfi_endproc
 3777              	.LFE243:
ARM GAS  C:\Users\86158\AppData\Local\Temp\cckMY1rk.s 			page 84


 3779              		.global	__aeabi_i2d
 3780              		.section	.rodata.init_adjust_para_5dot.str1.4,"aMS",%progbits,1
 3781              		.align	2
 3782              	.LC25:
 3783 0000 6D696E20 		.ascii	"min left error:%.2f, right:%.2f, C:%.2f, X0:%.2f, m"
 3783      6C656674 
 3783      20657272 
 3783      6F723A25 
 3783      2E32662C 
 3784 0033 6F76653A 		.ascii	"ove:%.2f\012\000"
 3784      252E3266 
 3784      0A00
 3785 003d 000000   		.align	2
 3786              	.LC26:
 3787 0040 63616C63 		.ascii	"calculate success!\012\000"
 3787      756C6174 
 3787      65207375 
 3787      63636573 
 3787      73210A00 
 3788              		.align	2
 3789              	.LC27:
 3790 0054 63616C63 		.ascii	"calculate fail!\012\000"
 3790      756C6174 
 3790      65206661 
 3790      696C210A 
 3790      00
 3791              		.section	.text.init_adjust_para_5dot,"ax",%progbits
 3792              		.align	1
 3793              		.global	init_adjust_para_5dot
 3794              		.syntax unified
 3795              		.thumb
 3796              		.thumb_func
 3798              	init_adjust_para_5dot:
 3799              	.LFB244:
 407:App/Src/calculate.c **** 
 408:App/Src/calculate.c **** #define TEMP_ERROR_GAIN		0.021875 //(temp - center) * (temp - center) / 4 * 0.035 * 2.5
 409:App/Src/calculate.c **** uint8_t init_adjust_para_5dot(void)
 410:App/Src/calculate.c **** {
 3800              		.loc 1 410 1 is_stmt 1 view -0
 3801              		.cfi_startproc
 3802              		@ args = 0, pretend = 0, frame = 0
 3803              		@ frame_needed = 0, uses_anonymous_args = 0
 3804 0000 2DE9F04F 		push	{r4, r5, r6, r7, r8, r9, r10, fp, lr}
 3805              	.LCFI34:
 3806              		.cfi_def_cfa_offset 36
 3807              		.cfi_offset 4, -36
 3808              		.cfi_offset 5, -32
 3809              		.cfi_offset 6, -28
 3810              		.cfi_offset 7, -24
 3811              		.cfi_offset 8, -20
 3812              		.cfi_offset 9, -16
 3813              		.cfi_offset 10, -12
 3814              		.cfi_offset 11, -8
 3815              		.cfi_offset 14, -4
 3816 0004 2DED088B 		vpush.64	{d8, d9, d10, d11}
 3817              	.LCFI35:
 3818              		.cfi_def_cfa_offset 68
ARM GAS  C:\Users\86158\AppData\Local\Temp\cckMY1rk.s 			page 85


 3819              		.cfi_offset 80, -68
 3820              		.cfi_offset 81, -64
 3821              		.cfi_offset 82, -60
 3822              		.cfi_offset 83, -56
 3823              		.cfi_offset 84, -52
 3824              		.cfi_offset 85, -48
 3825              		.cfi_offset 86, -44
 3826              		.cfi_offset 87, -40
 3827 0008 89B0     		sub	sp, sp, #36
 3828              	.LCFI36:
 3829              		.cfi_def_cfa_offset 104
 411:App/Src/calculate.c **** 	int i;
 3830              		.loc 1 411 2 view .LVU882
 412:App/Src/calculate.c **** 	float error1, error2;
 3831              		.loc 1 412 2 view .LVU883
 413:App/Src/calculate.c **** 	float minErrorRight, minErrorLeft;
 3832              		.loc 1 413 2 view .LVU884
 414:App/Src/calculate.c **** 	float moveTemp = 0;
 3833              		.loc 1 414 2 view .LVU885
 3834              	.LVL467:
 415:App/Src/calculate.c **** 	float bigger;
 3835              		.loc 1 415 2 view .LVU886
 416:App/Src/calculate.c **** 	float bestTempRight = 0, bestTempLeft = 0;
 3836              		.loc 1 416 2 view .LVU887
 417:App/Src/calculate.c **** 
 418:App/Src/calculate.c **** 	g_left.B = 1000;
 3837              		.loc 1 418 2 view .LVU888
 3838              		.loc 1 418 11 is_stmt 0 view .LVU889
 3839 000a DFEDD19A 		vldr.32	s19, .L230+8
 3840 000e D14B     		ldr	r3, .L230+12
 3841 0010 C3ED019A 		vstr.32	s19, [r3, #4]
 419:App/Src/calculate.c **** 	g_right.B = 1000;
 3842              		.loc 1 419 2 is_stmt 1 view .LVU890
 3843              		.loc 1 419 12 is_stmt 0 view .LVU891
 3844 0014 D04B     		ldr	r3, .L230+16
 3845 0016 C3ED019A 		vstr.32	s19, [r3, #4]
 420:App/Src/calculate.c **** 	minErrorRight = 1000;
 3846              		.loc 1 420 2 is_stmt 1 view .LVU892
 3847              	.LVL468:
 421:App/Src/calculate.c **** 	minErrorLeft = 1000;
 3848              		.loc 1 421 2 view .LVU893
 422:App/Src/calculate.c **** 	for (i = 0; i < 40; i++) {//1bit = 0.5℃，步进0.25℃,搜索范围±10℃
 3849              		.loc 1 422 2 view .LVU894
 416:App/Src/calculate.c **** 
 3850              		.loc 1 416 27 is_stmt 0 view .LVU895
 3851 001a DFEDD0AA 		vldr.32	s21, .L230+20
 416:App/Src/calculate.c **** 
 3852              		.loc 1 416 8 view .LVU896
 3853 001e B0EE6ABA 		vmov.f32	s22, s21
 421:App/Src/calculate.c **** 	minErrorLeft = 1000;
 3854              		.loc 1 421 15 view .LVU897
 3855 0022 B0EE69AA 		vmov.f32	s20, s19
 3856              		.loc 1 422 9 view .LVU898
 3857 0026 4FF0000B 		mov	fp, #0
 3858              		.loc 1 422 2 view .LVU899
 3859 002a 13E0     		b	.L203
 3860              	.LVL469:
ARM GAS  C:\Users\86158\AppData\Local\Temp\cckMY1rk.s 			page 86


 3861              	.L209:
 423:App/Src/calculate.c **** 		moveTemp = i * 0.5;
 424:App/Src/calculate.c **** 	//-------------------------------------------------计算中心点右移，寻找最好的中心点---------------
 425:App/Src/calculate.c **** 		g_left.X0 = g_input[TEST_RTC_TEMP_Z29] + moveTemp;
 426:App/Src/calculate.c **** 		g_left.C = g_result[TEST_RTC_TEMP_Z29] + moveTemp * moveTemp * TEMP_ERROR_GAIN;
 427:App/Src/calculate.c **** 		g_left.A = (g_result[TEST_RTC_TEMP_F40] - g_left.C) / log(cosh((g_input[TEST_RTC_TEMP_F40] - g_le
 428:App/Src/calculate.c **** 		error1 = chip_temp_function(g_input[TEST_RTC_TEMP_F10], g_left) - g_result[TEST_RTC_TEMP_F10];
 429:App/Src/calculate.c **** 
 430:App/Src/calculate.c **** 		g_right.X0 = g_input[TEST_RTC_TEMP_Z29] + moveTemp;
 431:App/Src/calculate.c **** 		g_right.C = g_result[TEST_RTC_TEMP_Z29] + moveTemp * moveTemp * TEMP_ERROR_GAIN;
 432:App/Src/calculate.c **** 		g_right.A = (g_result[TEST_RTC_TEMP_Z85] - g_right.C) / log(cosh((g_input[TEST_RTC_TEMP_Z85] - g_
 433:App/Src/calculate.c **** 		error2 = chip_temp_function(g_input[TEST_RTC_TEMP_Z60], g_right)- g_result[TEST_RTC_TEMP_Z60];
 434:App/Src/calculate.c **** 
 435:App/Src/calculate.c **** 		if (fabs(error1) < fabs(error2)) {
 436:App/Src/calculate.c **** 			bigger = error2;
 437:App/Src/calculate.c **** 		} else {
 438:App/Src/calculate.c **** 			bigger = error1;
 439:App/Src/calculate.c **** 		}
 440:App/Src/calculate.c **** 		if (fabs(bigger) < fabs(minErrorRight)) {
 441:App/Src/calculate.c **** 			minErrorRight = bigger;
 442:App/Src/calculate.c **** 			bestTempRight = moveTemp;
 443:App/Src/calculate.c **** 		} 
 444:App/Src/calculate.c **** 	//-------------------------------------------------计算中心点左移，寻找最好的中心点---------------
 445:App/Src/calculate.c **** 		
 446:App/Src/calculate.c **** 		g_left.X0 = g_input[TEST_RTC_TEMP_Z29] - moveTemp;
 447:App/Src/calculate.c **** 		g_left.C = g_result[TEST_RTC_TEMP_Z29] + moveTemp * moveTemp * TEMP_ERROR_GAIN;
 448:App/Src/calculate.c **** 		g_left.A = (g_result[TEST_RTC_TEMP_F40] - g_left.C) / log(cosh((g_input[TEST_RTC_TEMP_F40] - g_le
 449:App/Src/calculate.c **** 		error1 = chip_temp_function(g_input[TEST_RTC_TEMP_F10], g_left) - g_result[TEST_RTC_TEMP_F10];
 450:App/Src/calculate.c **** 
 451:App/Src/calculate.c **** 		g_right.X0 = g_input[TEST_RTC_TEMP_Z29] - moveTemp;
 452:App/Src/calculate.c **** 		g_right.C = g_result[TEST_RTC_TEMP_Z29] + moveTemp * moveTemp * TEMP_ERROR_GAIN;
 453:App/Src/calculate.c **** 		g_right.A = (g_result[TEST_RTC_TEMP_Z85] - g_right.C) / log(cosh((g_input[TEST_RTC_TEMP_Z85] - g_
 454:App/Src/calculate.c **** 		error2 = chip_temp_function(g_input[TEST_RTC_TEMP_Z60], g_right) - g_result[TEST_RTC_TEMP_Z60];
 455:App/Src/calculate.c **** 
 456:App/Src/calculate.c **** 		if (fabs(error1) < fabs(error2)) {
 457:App/Src/calculate.c **** 			bigger = error2;
 458:App/Src/calculate.c **** 		} else {
 459:App/Src/calculate.c **** 			bigger = error1;
 460:App/Src/calculate.c **** 		}
 461:App/Src/calculate.c **** 		if (fabs(bigger) < fabs(minErrorLeft)) {
 462:App/Src/calculate.c **** 			minErrorLeft = bigger;
 463:App/Src/calculate.c **** 			bestTempLeft = -1 * moveTemp;
 464:App/Src/calculate.c **** 		} 
 465:App/Src/calculate.c **** 	//误差小于1时，可以直接结束查找过程	
 466:App/Src/calculate.c **** 		if (fabs(minErrorLeft) <= 1 || fabs(minErrorRight) <= 1) {
 3862              		.loc 1 466 3 is_stmt 1 view .LVU900
 3863              		.loc 1 466 7 is_stmt 0 view .LVU901
 3864 002c F0EECA7A 		vabs.f32	s15, s20
 3865              		.loc 1 466 6 view .LVU902
 3866 0030 B7EE007A 		vmov.f32	s14, #1.0e+0
 3867 0034 F4EEC77A 		vcmpe.f32	s15, s14
 3868 0038 F1EE10FA 		vmrs	APSR_nzcv, FPSCR
 3869 003c 40F29681 		bls	.L211
 3870              		.loc 1 466 34 discriminator 1 view .LVU903
 3871 0040 F0EEE97A 		vabs.f32	s15, s19
 3872              		.loc 1 466 31 discriminator 1 view .LVU904
 3873 0044 F4EEC77A 		vcmpe.f32	s15, s14
ARM GAS  C:\Users\86158\AppData\Local\Temp\cckMY1rk.s 			page 87


 3874 0048 F1EE10FA 		vmrs	APSR_nzcv, FPSCR
 3875 004c 40F28E81 		bls	.L211
 422:App/Src/calculate.c **** 		moveTemp = i * 0.5;
 3876              		.loc 1 422 22 is_stmt 1 discriminator 2 view .LVU905
 422:App/Src/calculate.c **** 		moveTemp = i * 0.5;
 3877              		.loc 1 422 23 is_stmt 0 discriminator 2 view .LVU906
 3878 0050 0BF1010B 		add	fp, fp, #1
 3879              	.LVL470:
 3880              	.L203:
 422:App/Src/calculate.c **** 		moveTemp = i * 0.5;
 3881              		.loc 1 422 14 is_stmt 1 discriminator 1 view .LVU907
 422:App/Src/calculate.c **** 		moveTemp = i * 0.5;
 3882              		.loc 1 422 2 is_stmt 0 discriminator 1 view .LVU908
 3883 0054 BBF1270F 		cmp	fp, #39
 3884 0058 00F38881 		bgt	.L211
 423:App/Src/calculate.c **** 		moveTemp = i * 0.5;
 3885              		.loc 1 423 3 is_stmt 1 view .LVU909
 423:App/Src/calculate.c **** 		moveTemp = i * 0.5;
 3886              		.loc 1 423 16 is_stmt 0 view .LVU910
 3887 005c 5846     		mov	r0, fp
 3888 005e FFF7FEFF 		bl	__aeabi_i2d
 3889              	.LVL471:
 3890 0062 0022     		movs	r2, #0
 3891 0064 BE4B     		ldr	r3, .L230+24
 3892 0066 FFF7FEFF 		bl	__aeabi_dmul
 3893              	.LVL472:
 423:App/Src/calculate.c **** 		moveTemp = i * 0.5;
 3894              		.loc 1 423 12 view .LVU911
 3895 006a FFF7FEFF 		bl	__aeabi_d2f
 3896              	.LVL473:
 3897 006e 08EE100A 		vmov	s16, r0
 3898              	.LVL474:
 425:App/Src/calculate.c **** 		g_left.C = g_result[TEST_RTC_TEMP_Z29] + moveTemp * moveTemp * TEMP_ERROR_GAIN;
 3899              		.loc 1 425 3 is_stmt 1 view .LVU912
 425:App/Src/calculate.c **** 		g_left.C = g_result[TEST_RTC_TEMP_Z29] + moveTemp * moveTemp * TEMP_ERROR_GAIN;
 3900              		.loc 1 425 22 is_stmt 0 view .LVU913
 3901 0072 DFF8F4A2 		ldr	r10, .L230+32
 3902 0076 DAED028A 		vldr.32	s17, [r10, #8]
 425:App/Src/calculate.c **** 		g_left.C = g_result[TEST_RTC_TEMP_Z29] + moveTemp * moveTemp * TEMP_ERROR_GAIN;
 3903              		.loc 1 425 42 view .LVU914
 3904 007a 78EE888A 		vadd.f32	s17, s17, s16
 425:App/Src/calculate.c **** 		g_left.C = g_result[TEST_RTC_TEMP_Z29] + moveTemp * moveTemp * TEMP_ERROR_GAIN;
 3905              		.loc 1 425 13 view .LVU915
 3906 007e B54C     		ldr	r4, .L230+12
 3907 0080 C4ED028A 		vstr.32	s17, [r4, #8]
 426:App/Src/calculate.c **** 		g_left.A = (g_result[TEST_RTC_TEMP_F40] - g_left.C) / log(cosh((g_input[TEST_RTC_TEMP_F40] - g_le
 3908              		.loc 1 426 3 is_stmt 1 view .LVU916
 426:App/Src/calculate.c **** 		g_left.A = (g_result[TEST_RTC_TEMP_F40] - g_left.C) / log(cosh((g_input[TEST_RTC_TEMP_F40] - g_le
 3909              		.loc 1 426 22 is_stmt 0 view .LVU917
 3910 0084 B74D     		ldr	r5, .L230+28
 3911 0086 A868     		ldr	r0, [r5, #8]	@ float
 3912              	.LVL475:
 426:App/Src/calculate.c **** 		g_left.A = (g_result[TEST_RTC_TEMP_F40] - g_left.C) / log(cosh((g_input[TEST_RTC_TEMP_F40] - g_le
 3913              		.loc 1 426 22 view .LVU918
 3914 0088 FFF7FEFF 		bl	__aeabi_f2d
 3915              	.LVL476:
 3916 008c 8046     		mov	r8, r0
ARM GAS  C:\Users\86158\AppData\Local\Temp\cckMY1rk.s 			page 88


 3917 008e 8946     		mov	r9, r1
 426:App/Src/calculate.c **** 		g_left.A = (g_result[TEST_RTC_TEMP_F40] - g_left.C) / log(cosh((g_input[TEST_RTC_TEMP_F40] - g_le
 3918              		.loc 1 426 53 view .LVU919
 3919 0090 68EE087A 		vmul.f32	s15, s16, s16
 3920 0094 17EE900A 		vmov	r0, s15
 3921 0098 FFF7FEFF 		bl	__aeabi_f2d
 3922              	.LVL477:
 426:App/Src/calculate.c **** 		g_left.A = (g_result[TEST_RTC_TEMP_F40] - g_left.C) / log(cosh((g_input[TEST_RTC_TEMP_F40] - g_le
 3923              		.loc 1 426 64 view .LVU920
 3924 009c AAA3     		adr	r3, .L230
 3925 009e D3E90023 		ldrd	r2, [r3]
 3926 00a2 FFF7FEFF 		bl	__aeabi_dmul
 3927              	.LVL478:
 3928 00a6 0646     		mov	r6, r0
 3929 00a8 0F46     		mov	r7, r1
 426:App/Src/calculate.c **** 		g_left.A = (g_result[TEST_RTC_TEMP_F40] - g_left.C) / log(cosh((g_input[TEST_RTC_TEMP_F40] - g_le
 3930              		.loc 1 426 42 view .LVU921
 3931 00aa 0246     		mov	r2, r0
 3932 00ac 0B46     		mov	r3, r1
 3933 00ae 4046     		mov	r0, r8
 3934 00b0 4946     		mov	r1, r9
 3935 00b2 FFF7FEFF 		bl	__aeabi_dadd
 3936              	.LVL479:
 3937 00b6 FFF7FEFF 		bl	__aeabi_d2f
 3938              	.LVL480:
 3939 00ba 07EE900A 		vmov	s15, r0
 426:App/Src/calculate.c **** 		g_left.A = (g_result[TEST_RTC_TEMP_F40] - g_left.C) / log(cosh((g_input[TEST_RTC_TEMP_F40] - g_le
 3940              		.loc 1 426 12 view .LVU922
 3941 00be E060     		str	r0, [r4, #12]	@ float
 427:App/Src/calculate.c **** 		error1 = chip_temp_function(g_input[TEST_RTC_TEMP_F10], g_left) - g_result[TEST_RTC_TEMP_F10];
 3942              		.loc 1 427 3 is_stmt 1 view .LVU923
 427:App/Src/calculate.c **** 		error1 = chip_temp_function(g_input[TEST_RTC_TEMP_F10], g_left) - g_result[TEST_RTC_TEMP_F10];
 3943              		.loc 1 427 23 is_stmt 0 view .LVU924
 3944 00c0 95ED007A 		vldr.32	s14, [r5]
 427:App/Src/calculate.c **** 		error1 = chip_temp_function(g_input[TEST_RTC_TEMP_F10], g_left) - g_result[TEST_RTC_TEMP_F10];
 3945              		.loc 1 427 43 view .LVU925
 3946 00c4 77EE677A 		vsub.f32	s15, s14, s15
 3947 00c8 17EE900A 		vmov	r0, s15
 3948 00cc FFF7FEFF 		bl	__aeabi_f2d
 3949              	.LVL481:
 3950 00d0 8046     		mov	r8, r0
 3951 00d2 8946     		mov	r9, r1
 427:App/Src/calculate.c **** 		error1 = chip_temp_function(g_input[TEST_RTC_TEMP_F10], g_left) - g_result[TEST_RTC_TEMP_F10];
 3952              		.loc 1 427 74 view .LVU926
 3953 00d4 DAED007A 		vldr.32	s15, [r10]
 427:App/Src/calculate.c **** 		error1 = chip_temp_function(g_input[TEST_RTC_TEMP_F10], g_left) - g_result[TEST_RTC_TEMP_F10];
 3954              		.loc 1 427 94 view .LVU927
 3955 00d8 77EEE88A 		vsub.f32	s17, s15, s17
 427:App/Src/calculate.c **** 		error1 = chip_temp_function(g_input[TEST_RTC_TEMP_F10], g_left) - g_result[TEST_RTC_TEMP_F10];
 3956              		.loc 1 427 115 view .LVU928
 3957 00dc D4ED017A 		vldr.32	s15, [r4, #4]
 427:App/Src/calculate.c **** 		error1 = chip_temp_function(g_input[TEST_RTC_TEMP_F10], g_left) - g_result[TEST_RTC_TEMP_F10];
 3958              		.loc 1 427 57 view .LVU929
 3959 00e0 C8EEA77A 		vdiv.f32	s15, s17, s15
 3960 00e4 17EE900A 		vmov	r0, s15
 3961 00e8 FFF7FEFF 		bl	__aeabi_f2d
 3962              	.LVL482:
ARM GAS  C:\Users\86158\AppData\Local\Temp\cckMY1rk.s 			page 89


 3963 00ec 41EC100B 		vmov	d0, r0, r1
 3964 00f0 FFF7FEFF 		bl	cosh
 3965              	.LVL483:
 3966 00f4 FFF7FEFF 		bl	log
 3967              	.LVL484:
 3968 00f8 53EC102B 		vmov	r2, r3, d0
 427:App/Src/calculate.c **** 		error1 = chip_temp_function(g_input[TEST_RTC_TEMP_F10], g_left) - g_result[TEST_RTC_TEMP_F10];
 3969              		.loc 1 427 55 view .LVU930
 3970 00fc 4046     		mov	r0, r8
 3971 00fe 4946     		mov	r1, r9
 3972 0100 FFF7FEFF 		bl	__aeabi_ddiv
 3973              	.LVL485:
 3974 0104 FFF7FEFF 		bl	__aeabi_d2f
 3975              	.LVL486:
 427:App/Src/calculate.c **** 		error1 = chip_temp_function(g_input[TEST_RTC_TEMP_F10], g_left) - g_result[TEST_RTC_TEMP_F10];
 3976              		.loc 1 427 12 view .LVU931
 3977 0108 2060     		str	r0, [r4]	@ float
 428:App/Src/calculate.c **** 
 3978              		.loc 1 428 3 is_stmt 1 view .LVU932
 428:App/Src/calculate.c **** 
 3979              		.loc 1 428 12 is_stmt 0 view .LVU933
 3980 010a 2369     		ldr	r3, [r4, #16]
 3981 010c 0093     		str	r3, [sp]
 3982 010e 94E80F00 		ldm	r4, {r0, r1, r2, r3}
 3983 0112 9AED010A 		vldr.32	s0, [r10, #4]
 3984 0116 FFF7FEFF 		bl	chip_temp_function
 3985              	.LVL487:
 428:App/Src/calculate.c **** 
 3986              		.loc 1 428 77 view .LVU934
 3987 011a D5ED017A 		vldr.32	s15, [r5, #4]
 428:App/Src/calculate.c **** 
 3988              		.loc 1 428 10 view .LVU935
 3989 011e 70EE678A 		vsub.f32	s17, s0, s15
 3990              	.LVL488:
 430:App/Src/calculate.c **** 		g_right.C = g_result[TEST_RTC_TEMP_Z29] + moveTemp * moveTemp * TEMP_ERROR_GAIN;
 3991              		.loc 1 430 3 is_stmt 1 view .LVU936
 430:App/Src/calculate.c **** 		g_right.C = g_result[TEST_RTC_TEMP_Z29] + moveTemp * moveTemp * TEMP_ERROR_GAIN;
 3992              		.loc 1 430 23 is_stmt 0 view .LVU937
 3993 0122 9AED029A 		vldr.32	s18, [r10, #8]
 430:App/Src/calculate.c **** 		g_right.C = g_result[TEST_RTC_TEMP_Z29] + moveTemp * moveTemp * TEMP_ERROR_GAIN;
 3994              		.loc 1 430 43 view .LVU938
 3995 0126 39EE089A 		vadd.f32	s18, s18, s16
 430:App/Src/calculate.c **** 		g_right.C = g_result[TEST_RTC_TEMP_Z29] + moveTemp * moveTemp * TEMP_ERROR_GAIN;
 3996              		.loc 1 430 14 view .LVU939
 3997 012a 8B4C     		ldr	r4, .L230+16
 3998 012c 84ED029A 		vstr.32	s18, [r4, #8]
 431:App/Src/calculate.c **** 		g_right.A = (g_result[TEST_RTC_TEMP_Z85] - g_right.C) / log(cosh((g_input[TEST_RTC_TEMP_Z85] - g_
 3999              		.loc 1 431 3 is_stmt 1 view .LVU940
 431:App/Src/calculate.c **** 		g_right.A = (g_result[TEST_RTC_TEMP_Z85] - g_right.C) / log(cosh((g_input[TEST_RTC_TEMP_Z85] - g_
 4000              		.loc 1 431 23 is_stmt 0 view .LVU941
 4001 0130 A868     		ldr	r0, [r5, #8]	@ float
 4002 0132 FFF7FEFF 		bl	__aeabi_f2d
 4003              	.LVL489:
 4004 0136 0246     		mov	r2, r0
 4005 0138 0B46     		mov	r3, r1
 431:App/Src/calculate.c **** 		g_right.A = (g_result[TEST_RTC_TEMP_Z85] - g_right.C) / log(cosh((g_input[TEST_RTC_TEMP_Z85] - g_
 4006              		.loc 1 431 43 view .LVU942
ARM GAS  C:\Users\86158\AppData\Local\Temp\cckMY1rk.s 			page 90


 4007 013a 3046     		mov	r0, r6
 4008 013c 3946     		mov	r1, r7
 4009 013e FFF7FEFF 		bl	__aeabi_dadd
 4010              	.LVL490:
 4011 0142 FFF7FEFF 		bl	__aeabi_d2f
 4012              	.LVL491:
 4013 0146 07EE900A 		vmov	s15, r0
 431:App/Src/calculate.c **** 		g_right.A = (g_result[TEST_RTC_TEMP_Z85] - g_right.C) / log(cosh((g_input[TEST_RTC_TEMP_Z85] - g_
 4014              		.loc 1 431 13 view .LVU943
 4015 014a E060     		str	r0, [r4, #12]	@ float
 432:App/Src/calculate.c **** 		error2 = chip_temp_function(g_input[TEST_RTC_TEMP_Z60], g_right)- g_result[TEST_RTC_TEMP_Z60];
 4016              		.loc 1 432 3 is_stmt 1 view .LVU944
 432:App/Src/calculate.c **** 		error2 = chip_temp_function(g_input[TEST_RTC_TEMP_Z60], g_right)- g_result[TEST_RTC_TEMP_Z60];
 4017              		.loc 1 432 24 is_stmt 0 view .LVU945
 4018 014c 95ED047A 		vldr.32	s14, [r5, #16]
 432:App/Src/calculate.c **** 		error2 = chip_temp_function(g_input[TEST_RTC_TEMP_Z60], g_right)- g_result[TEST_RTC_TEMP_Z60];
 4019              		.loc 1 432 44 view .LVU946
 4020 0150 77EE677A 		vsub.f32	s15, s14, s15
 4021 0154 17EE900A 		vmov	r0, s15
 4022 0158 FFF7FEFF 		bl	__aeabi_f2d
 4023              	.LVL492:
 4024 015c 8046     		mov	r8, r0
 4025 015e 8946     		mov	r9, r1
 432:App/Src/calculate.c **** 		error2 = chip_temp_function(g_input[TEST_RTC_TEMP_Z60], g_right)- g_result[TEST_RTC_TEMP_Z60];
 4026              		.loc 1 432 76 view .LVU947
 4027 0160 DAED047A 		vldr.32	s15, [r10, #16]
 432:App/Src/calculate.c **** 		error2 = chip_temp_function(g_input[TEST_RTC_TEMP_Z60], g_right)- g_result[TEST_RTC_TEMP_Z60];
 4028              		.loc 1 432 96 view .LVU948
 4029 0164 37EEC99A 		vsub.f32	s18, s15, s18
 432:App/Src/calculate.c **** 		error2 = chip_temp_function(g_input[TEST_RTC_TEMP_Z60], g_right)- g_result[TEST_RTC_TEMP_Z60];
 4030              		.loc 1 432 119 view .LVU949
 4031 0168 D4ED017A 		vldr.32	s15, [r4, #4]
 432:App/Src/calculate.c **** 		error2 = chip_temp_function(g_input[TEST_RTC_TEMP_Z60], g_right)- g_result[TEST_RTC_TEMP_Z60];
 4032              		.loc 1 432 59 view .LVU950
 4033 016c C9EE277A 		vdiv.f32	s15, s18, s15
 4034 0170 17EE900A 		vmov	r0, s15
 4035 0174 FFF7FEFF 		bl	__aeabi_f2d
 4036              	.LVL493:
 4037 0178 41EC100B 		vmov	d0, r0, r1
 4038 017c FFF7FEFF 		bl	cosh
 4039              	.LVL494:
 4040 0180 FFF7FEFF 		bl	log
 4041              	.LVL495:
 4042 0184 53EC102B 		vmov	r2, r3, d0
 432:App/Src/calculate.c **** 		error2 = chip_temp_function(g_input[TEST_RTC_TEMP_Z60], g_right)- g_result[TEST_RTC_TEMP_Z60];
 4043              		.loc 1 432 57 view .LVU951
 4044 0188 4046     		mov	r0, r8
 4045 018a 4946     		mov	r1, r9
 4046 018c FFF7FEFF 		bl	__aeabi_ddiv
 4047              	.LVL496:
 4048 0190 FFF7FEFF 		bl	__aeabi_d2f
 4049              	.LVL497:
 432:App/Src/calculate.c **** 		error2 = chip_temp_function(g_input[TEST_RTC_TEMP_Z60], g_right)- g_result[TEST_RTC_TEMP_Z60];
 4050              		.loc 1 432 13 view .LVU952
 4051 0194 2060     		str	r0, [r4]	@ float
 433:App/Src/calculate.c **** 
 4052              		.loc 1 433 3 is_stmt 1 view .LVU953
ARM GAS  C:\Users\86158\AppData\Local\Temp\cckMY1rk.s 			page 91


 433:App/Src/calculate.c **** 
 4053              		.loc 1 433 12 is_stmt 0 view .LVU954
 4054 0196 2369     		ldr	r3, [r4, #16]
 4055 0198 0093     		str	r3, [sp]
 4056 019a 94E80F00 		ldm	r4, {r0, r1, r2, r3}
 4057 019e 9AED030A 		vldr.32	s0, [r10, #12]
 4058 01a2 FFF7FEFF 		bl	chip_temp_function
 4059              	.LVL498:
 433:App/Src/calculate.c **** 
 4060              		.loc 1 433 77 view .LVU955
 4061 01a6 D5ED037A 		vldr.32	s15, [r5, #12]
 433:App/Src/calculate.c **** 
 4062              		.loc 1 433 10 view .LVU956
 4063 01aa 30EE670A 		vsub.f32	s0, s0, s15
 4064              	.LVL499:
 435:App/Src/calculate.c **** 			bigger = error2;
 4065              		.loc 1 435 3 is_stmt 1 view .LVU957
 435:App/Src/calculate.c **** 			bigger = error2;
 4066              		.loc 1 435 7 is_stmt 0 view .LVU958
 4067 01ae B0EEE87A 		vabs.f32	s14, s17
 435:App/Src/calculate.c **** 			bigger = error2;
 4068              		.loc 1 435 22 view .LVU959
 4069 01b2 F0EEC07A 		vabs.f32	s15, s0
 435:App/Src/calculate.c **** 			bigger = error2;
 4070              		.loc 1 435 6 view .LVU960
 4071 01b6 B4EEE77A 		vcmpe.f32	s14, s15
 4072 01ba F1EE10FA 		vmrs	APSR_nzcv, FPSCR
 4073 01be 01D5     		bpl	.L204
 436:App/Src/calculate.c **** 		} else {
 4074              		.loc 1 436 11 view .LVU961
 4075 01c0 F0EE408A 		vmov.f32	s17, s0
 4076              	.LVL500:
 4077              	.L204:
 440:App/Src/calculate.c **** 			minErrorRight = bigger;
 4078              		.loc 1 440 3 is_stmt 1 view .LVU962
 440:App/Src/calculate.c **** 			minErrorRight = bigger;
 4079              		.loc 1 440 7 is_stmt 0 view .LVU963
 4080 01c4 F0EEE87A 		vabs.f32	s15, s17
 440:App/Src/calculate.c **** 			minErrorRight = bigger;
 4081              		.loc 1 440 22 view .LVU964
 4082 01c8 B0EEE97A 		vabs.f32	s14, s19
 440:App/Src/calculate.c **** 			minErrorRight = bigger;
 4083              		.loc 1 440 6 view .LVU965
 4084 01cc F4EEC77A 		vcmpe.f32	s15, s14
 4085 01d0 F1EE10FA 		vmrs	APSR_nzcv, FPSCR
 4086 01d4 03D5     		bpl	.L206
 442:App/Src/calculate.c **** 		} 
 4087              		.loc 1 442 18 view .LVU966
 4088 01d6 B0EE48BA 		vmov.f32	s22, s16
 4089              	.LVL501:
 441:App/Src/calculate.c **** 			bestTempRight = moveTemp;
 4090              		.loc 1 441 18 view .LVU967
 4091 01da F0EE689A 		vmov.f32	s19, s17
 4092              	.LVL502:
 4093              	.L206:
 446:App/Src/calculate.c **** 		g_left.C = g_result[TEST_RTC_TEMP_Z29] + moveTemp * moveTemp * TEMP_ERROR_GAIN;
 4094              		.loc 1 446 3 is_stmt 1 view .LVU968
ARM GAS  C:\Users\86158\AppData\Local\Temp\cckMY1rk.s 			page 92


 446:App/Src/calculate.c **** 		g_left.C = g_result[TEST_RTC_TEMP_Z29] + moveTemp * moveTemp * TEMP_ERROR_GAIN;
 4095              		.loc 1 446 22 is_stmt 0 view .LVU969
 4096 01de DFF88891 		ldr	r9, .L230+32
 4097 01e2 D9ED028A 		vldr.32	s17, [r9, #8]
 4098              	.LVL503:
 446:App/Src/calculate.c **** 		g_left.C = g_result[TEST_RTC_TEMP_Z29] + moveTemp * moveTemp * TEMP_ERROR_GAIN;
 4099              		.loc 1 446 42 view .LVU970
 4100 01e6 78EEC88A 		vsub.f32	s17, s17, s16
 446:App/Src/calculate.c **** 		g_left.C = g_result[TEST_RTC_TEMP_Z29] + moveTemp * moveTemp * TEMP_ERROR_GAIN;
 4101              		.loc 1 446 13 view .LVU971
 4102 01ea DFF868A1 		ldr	r10, .L230+12
 4103 01ee CAED028A 		vstr.32	s17, [r10, #8]
 447:App/Src/calculate.c **** 		g_left.A = (g_result[TEST_RTC_TEMP_F40] - g_left.C) / log(cosh((g_input[TEST_RTC_TEMP_F40] - g_le
 4104              		.loc 1 447 3 is_stmt 1 view .LVU972
 447:App/Src/calculate.c **** 		g_left.A = (g_result[TEST_RTC_TEMP_F40] - g_left.C) / log(cosh((g_input[TEST_RTC_TEMP_F40] - g_le
 4105              		.loc 1 447 22 is_stmt 0 view .LVU973
 4106 01f2 DFF87081 		ldr	r8, .L230+28
 4107 01f6 D8F80800 		ldr	r0, [r8, #8]	@ float
 4108 01fa FFF7FEFF 		bl	__aeabi_f2d
 4109              	.LVL504:
 447:App/Src/calculate.c **** 		g_left.A = (g_result[TEST_RTC_TEMP_F40] - g_left.C) / log(cosh((g_input[TEST_RTC_TEMP_F40] - g_le
 4110              		.loc 1 447 22 view .LVU974
 4111 01fe 0246     		mov	r2, r0
 4112 0200 0B46     		mov	r3, r1
 447:App/Src/calculate.c **** 		g_left.A = (g_result[TEST_RTC_TEMP_F40] - g_left.C) / log(cosh((g_input[TEST_RTC_TEMP_F40] - g_le
 4113              		.loc 1 447 42 view .LVU975
 4114 0202 3046     		mov	r0, r6
 4115 0204 3946     		mov	r1, r7
 4116 0206 FFF7FEFF 		bl	__aeabi_dadd
 4117              	.LVL505:
 4118 020a FFF7FEFF 		bl	__aeabi_d2f
 4119              	.LVL506:
 4120 020e 07EE900A 		vmov	s15, r0
 447:App/Src/calculate.c **** 		g_left.A = (g_result[TEST_RTC_TEMP_F40] - g_left.C) / log(cosh((g_input[TEST_RTC_TEMP_F40] - g_le
 4121              		.loc 1 447 12 view .LVU976
 4122 0212 CAF80C00 		str	r0, [r10, #12]	@ float
 448:App/Src/calculate.c **** 		error1 = chip_temp_function(g_input[TEST_RTC_TEMP_F10], g_left) - g_result[TEST_RTC_TEMP_F10];
 4123              		.loc 1 448 3 is_stmt 1 view .LVU977
 448:App/Src/calculate.c **** 		error1 = chip_temp_function(g_input[TEST_RTC_TEMP_F10], g_left) - g_result[TEST_RTC_TEMP_F10];
 4124              		.loc 1 448 23 is_stmt 0 view .LVU978
 4125 0216 98ED007A 		vldr.32	s14, [r8]
 448:App/Src/calculate.c **** 		error1 = chip_temp_function(g_input[TEST_RTC_TEMP_F10], g_left) - g_result[TEST_RTC_TEMP_F10];
 4126              		.loc 1 448 43 view .LVU979
 4127 021a 77EE677A 		vsub.f32	s15, s14, s15
 4128 021e 17EE900A 		vmov	r0, s15
 4129 0222 FFF7FEFF 		bl	__aeabi_f2d
 4130              	.LVL507:
 4131 0226 0446     		mov	r4, r0
 4132 0228 0D46     		mov	r5, r1
 448:App/Src/calculate.c **** 		error1 = chip_temp_function(g_input[TEST_RTC_TEMP_F10], g_left) - g_result[TEST_RTC_TEMP_F10];
 4133              		.loc 1 448 74 view .LVU980
 4134 022a D9ED007A 		vldr.32	s15, [r9]
 448:App/Src/calculate.c **** 		error1 = chip_temp_function(g_input[TEST_RTC_TEMP_F10], g_left) - g_result[TEST_RTC_TEMP_F10];
 4135              		.loc 1 448 94 view .LVU981
 4136 022e 77EEE88A 		vsub.f32	s17, s15, s17
 448:App/Src/calculate.c **** 		error1 = chip_temp_function(g_input[TEST_RTC_TEMP_F10], g_left) - g_result[TEST_RTC_TEMP_F10];
 4137              		.loc 1 448 115 view .LVU982
ARM GAS  C:\Users\86158\AppData\Local\Temp\cckMY1rk.s 			page 93


 4138 0232 DAED017A 		vldr.32	s15, [r10, #4]
 448:App/Src/calculate.c **** 		error1 = chip_temp_function(g_input[TEST_RTC_TEMP_F10], g_left) - g_result[TEST_RTC_TEMP_F10];
 4139              		.loc 1 448 57 view .LVU983
 4140 0236 C8EEA77A 		vdiv.f32	s15, s17, s15
 4141 023a 17EE900A 		vmov	r0, s15
 4142 023e FFF7FEFF 		bl	__aeabi_f2d
 4143              	.LVL508:
 4144 0242 41EC100B 		vmov	d0, r0, r1
 4145 0246 FFF7FEFF 		bl	cosh
 4146              	.LVL509:
 4147 024a FFF7FEFF 		bl	log
 4148              	.LVL510:
 4149 024e 53EC102B 		vmov	r2, r3, d0
 448:App/Src/calculate.c **** 		error1 = chip_temp_function(g_input[TEST_RTC_TEMP_F10], g_left) - g_result[TEST_RTC_TEMP_F10];
 4150              		.loc 1 448 55 view .LVU984
 4151 0252 2046     		mov	r0, r4
 4152 0254 2946     		mov	r1, r5
 4153 0256 FFF7FEFF 		bl	__aeabi_ddiv
 4154              	.LVL511:
 4155 025a FFF7FEFF 		bl	__aeabi_d2f
 4156              	.LVL512:
 448:App/Src/calculate.c **** 		error1 = chip_temp_function(g_input[TEST_RTC_TEMP_F10], g_left) - g_result[TEST_RTC_TEMP_F10];
 4157              		.loc 1 448 12 view .LVU985
 4158 025e CAF80000 		str	r0, [r10]	@ float
 449:App/Src/calculate.c **** 
 4159              		.loc 1 449 3 is_stmt 1 view .LVU986
 449:App/Src/calculate.c **** 
 4160              		.loc 1 449 12 is_stmt 0 view .LVU987
 4161 0262 DAF81030 		ldr	r3, [r10, #16]
 4162 0266 0093     		str	r3, [sp]
 4163 0268 9AE80F00 		ldm	r10, {r0, r1, r2, r3}
 4164 026c 99ED010A 		vldr.32	s0, [r9, #4]
 4165 0270 FFF7FEFF 		bl	chip_temp_function
 4166              	.LVL513:
 449:App/Src/calculate.c **** 
 4167              		.loc 1 449 77 view .LVU988
 4168 0274 D8ED017A 		vldr.32	s15, [r8, #4]
 449:App/Src/calculate.c **** 
 4169              		.loc 1 449 10 view .LVU989
 4170 0278 70EE678A 		vsub.f32	s17, s0, s15
 4171              	.LVL514:
 451:App/Src/calculate.c **** 		g_right.C = g_result[TEST_RTC_TEMP_Z29] + moveTemp * moveTemp * TEMP_ERROR_GAIN;
 4172              		.loc 1 451 3 is_stmt 1 view .LVU990
 451:App/Src/calculate.c **** 		g_right.C = g_result[TEST_RTC_TEMP_Z29] + moveTemp * moveTemp * TEMP_ERROR_GAIN;
 4173              		.loc 1 451 23 is_stmt 0 view .LVU991
 4174 027c 99ED029A 		vldr.32	s18, [r9, #8]
 451:App/Src/calculate.c **** 		g_right.C = g_result[TEST_RTC_TEMP_Z29] + moveTemp * moveTemp * TEMP_ERROR_GAIN;
 4175              		.loc 1 451 43 view .LVU992
 4176 0280 39EE489A 		vsub.f32	s18, s18, s16
 451:App/Src/calculate.c **** 		g_right.C = g_result[TEST_RTC_TEMP_Z29] + moveTemp * moveTemp * TEMP_ERROR_GAIN;
 4177              		.loc 1 451 14 view .LVU993
 4178 0284 DFF8D0A0 		ldr	r10, .L230+16
 4179 0288 8AED029A 		vstr.32	s18, [r10, #8]
 452:App/Src/calculate.c **** 		g_right.A = (g_result[TEST_RTC_TEMP_Z85] - g_right.C) / log(cosh((g_input[TEST_RTC_TEMP_Z85] - g_
 4180              		.loc 1 452 3 is_stmt 1 view .LVU994
 452:App/Src/calculate.c **** 		g_right.A = (g_result[TEST_RTC_TEMP_Z85] - g_right.C) / log(cosh((g_input[TEST_RTC_TEMP_Z85] - g_
 4181              		.loc 1 452 23 is_stmt 0 view .LVU995
ARM GAS  C:\Users\86158\AppData\Local\Temp\cckMY1rk.s 			page 94


 4182 028c D8F80800 		ldr	r0, [r8, #8]	@ float
 4183 0290 FFF7FEFF 		bl	__aeabi_f2d
 4184              	.LVL515:
 4185 0294 0246     		mov	r2, r0
 4186 0296 0B46     		mov	r3, r1
 452:App/Src/calculate.c **** 		g_right.A = (g_result[TEST_RTC_TEMP_Z85] - g_right.C) / log(cosh((g_input[TEST_RTC_TEMP_Z85] - g_
 4187              		.loc 1 452 43 view .LVU996
 4188 0298 3046     		mov	r0, r6
 4189 029a 3946     		mov	r1, r7
 4190 029c FFF7FEFF 		bl	__aeabi_dadd
 4191              	.LVL516:
 4192 02a0 FFF7FEFF 		bl	__aeabi_d2f
 4193              	.LVL517:
 4194 02a4 07EE900A 		vmov	s15, r0
 452:App/Src/calculate.c **** 		g_right.A = (g_result[TEST_RTC_TEMP_Z85] - g_right.C) / log(cosh((g_input[TEST_RTC_TEMP_Z85] - g_
 4195              		.loc 1 452 13 view .LVU997
 4196 02a8 CAF80C00 		str	r0, [r10, #12]	@ float
 453:App/Src/calculate.c **** 		error2 = chip_temp_function(g_input[TEST_RTC_TEMP_Z60], g_right) - g_result[TEST_RTC_TEMP_Z60];
 4197              		.loc 1 453 3 is_stmt 1 view .LVU998
 453:App/Src/calculate.c **** 		error2 = chip_temp_function(g_input[TEST_RTC_TEMP_Z60], g_right) - g_result[TEST_RTC_TEMP_Z60];
 4198              		.loc 1 453 24 is_stmt 0 view .LVU999
 4199 02ac 98ED047A 		vldr.32	s14, [r8, #16]
 453:App/Src/calculate.c **** 		error2 = chip_temp_function(g_input[TEST_RTC_TEMP_Z60], g_right) - g_result[TEST_RTC_TEMP_Z60];
 4200              		.loc 1 453 44 view .LVU1000
 4201 02b0 77EE677A 		vsub.f32	s15, s14, s15
 4202 02b4 17EE900A 		vmov	r0, s15
 4203 02b8 FFF7FEFF 		bl	__aeabi_f2d
 4204              	.LVL518:
 4205 02bc 0446     		mov	r4, r0
 4206 02be 0D46     		mov	r5, r1
 453:App/Src/calculate.c **** 		error2 = chip_temp_function(g_input[TEST_RTC_TEMP_Z60], g_right) - g_result[TEST_RTC_TEMP_Z60];
 4207              		.loc 1 453 76 view .LVU1001
 4208 02c0 D9ED047A 		vldr.32	s15, [r9, #16]
