ARM GAS  C:\Users\86158\AppData\Local\Temp\ccAoFQ4P.s 			page 1


   1              		.cpu cortex-m4
   2              		.arch armv7e-m
   3              		.fpu fpv4-sp-d16
   4              		.eabi_attribute 27, 1
   5              		.eabi_attribute 28, 1
   6              		.eabi_attribute 20, 1
   7              		.eabi_attribute 21, 1
   8              		.eabi_attribute 23, 3
   9              		.eabi_attribute 24, 1
  10              		.eabi_attribute 25, 1
  11              		.eabi_attribute 26, 1
  12              		.eabi_attribute 30, 1
  13              		.eabi_attribute 34, 1
  14              		.eabi_attribute 18, 4
  15              		.file	"devices.c"
  16              		.text
  17              	.Ltext0:
  18              		.cfi_sections	.debug_frame
  19              		.section	.text.init_key_word_length,"ax",%progbits
  20              		.align	1
  21              		.global	init_key_word_length
  22              		.syntax unified
  23              		.thumb
  24              		.thumb_func
  26              	init_key_word_length:
  27              	.LFB243:
  28              		.file 1 "App/Src/devices.c"
   1:App/Src/devices.c **** #include "main.h"
   2:App/Src/devices.c **** #include "devices.h"
   3:App/Src/devices.c **** #include "cmsis_os.h"
   4:App/Src/devices.c **** #include "soft_uart.h"
   5:App/Src/devices.c **** #include <string.h>
   6:App/Src/devices.c **** #include "user_tool.h"
   7:App/Src/devices.c **** #include "lcd_driver.h"
   8:App/Src/devices.c **** #include  "sd2506.h"
   9:App/Src/devices.c **** #include <stdio.h>
  10:App/Src/devices.c **** 
  11:App/Src/devices.c **** uint32_t g_rxTick[MAX_DEVICES_CHANNEL] = {0};
  12:App/Src/devices.c **** uint8_t g_operate[MAX_DEVICES_CHANNEL] = {0};
  13:App/Src/devices.c **** extern ExcelMessage g_deviceMessage[MAX_DEVICES_CHANNEL];
  14:App/Src/devices.c **** extern RealTime g_systemTime;
  15:App/Src/devices.c **** 
  16:App/Src/devices.c **** // typedef struct {
  17:App/Src/devices.c **** //     uint8_t board;
  18:App/Src/devices.c **** //     float systemTemp;
  19:App/Src/devices.c **** //     uint8_t okNumber;
  20:App/Src/devices.c **** //     uint8_t chipName;
  21:App/Src/devices.c **** //     int chipTemp;
  22:App/Src/devices.c **** //     char state[20];
  23:App/Src/devices.c **** //     char message[20];
  24:App/Src/devices.c **** // }ExcelMessage;
  25:App/Src/devices.c **** #define KEY_WORD_NUMBER             7
  26:App/Src/devices.c **** char DeviceKeyWord[KEY_WORD_NUMBER][15] = {
  27:App/Src/devices.c ****     "board:", "systemTemp:", "okNumber:", "chipName:", "chipTemp:", "state:", "message:"}; 
  28:App/Src/devices.c **** uint8_t g_lengthKeyWord[KEY_WORD_NUMBER] = {0};
  29:App/Src/devices.c **** 
  30:App/Src/devices.c **** #define TEST_WORD_NUMBER             11
ARM GAS  C:\Users\86158\AppData\Local\Temp\ccAoFQ4P.s 			page 2


  31:App/Src/devices.c **** char DeviceTestWord[TEST_WORD_NUMBER][15] = {
  32:App/Src/devices.c ****     "chip:", "download:", "chipTemp:", "systemTemp:", "freq:", "ppm:", "id:", "Ivdd:", "Vbat:", "Ib
  33:App/Src/devices.c **** extern char  g_testMessage[11][20];
  34:App/Src/devices.c **** uint8_t g_lengthTestWord[TEST_WORD_NUMBER] = {0};
  35:App/Src/devices.c **** 
  36:App/Src/devices.c **** 
  37:App/Src/devices.c **** void init_key_word_length(void)
  38:App/Src/devices.c **** {
  29              		.loc 1 38 1 view -0
  30              		.cfi_startproc
  31              		@ args = 0, pretend = 0, frame = 0
  32              		@ frame_needed = 0, uses_anonymous_args = 0
  33 0000 10B5     		push	{r4, lr}
  34              	.LCFI0:
  35              		.cfi_def_cfa_offset 8
  36              		.cfi_offset 4, -8
  37              		.cfi_offset 14, -4
  39:App/Src/devices.c ****     int i;
  38              		.loc 1 39 5 view .LVU1
  40:App/Src/devices.c ****     for (i = 0; i < KEY_WORD_NUMBER; i++) {
  39              		.loc 1 40 5 view .LVU2
  40              	.LVL0:
  41              		.loc 1 40 12 is_stmt 0 view .LVU3
  42 0002 0024     		movs	r4, #0
  43              		.loc 1 40 5 view .LVU4
  44 0004 08E0     		b	.L2
  45              	.LVL1:
  46              	.L3:
  41:App/Src/devices.c ****         g_lengthKeyWord[i] = strlen(DeviceKeyWord[i]);
  47              		.loc 1 41 9 is_stmt 1 discriminator 3 view .LVU5
  48              		.loc 1 41 50 is_stmt 0 discriminator 3 view .LVU6
  49 0006 C4EB0413 		rsb	r3, r4, r4, lsl #4
  50              		.loc 1 41 30 discriminator 3 view .LVU7
  51 000a 0B48     		ldr	r0, .L7
  52 000c 1844     		add	r0, r0, r3
  53 000e FFF7FEFF 		bl	strlen
  54              	.LVL2:
  55              		.loc 1 41 28 discriminator 3 view .LVU8
  56 0012 0A4B     		ldr	r3, .L7+4
  57 0014 1855     		strb	r0, [r3, r4]
  40:App/Src/devices.c ****     for (i = 0; i < KEY_WORD_NUMBER; i++) {
  58              		.loc 1 40 38 is_stmt 1 discriminator 3 view .LVU9
  40:App/Src/devices.c ****     for (i = 0; i < KEY_WORD_NUMBER; i++) {
  59              		.loc 1 40 39 is_stmt 0 discriminator 3 view .LVU10
  60 0016 0134     		adds	r4, r4, #1
  61              	.LVL3:
  62              	.L2:
  40:App/Src/devices.c ****     for (i = 0; i < KEY_WORD_NUMBER; i++) {
  63              		.loc 1 40 17 is_stmt 1 discriminator 1 view .LVU11
  40:App/Src/devices.c ****     for (i = 0; i < KEY_WORD_NUMBER; i++) {
  64              		.loc 1 40 5 is_stmt 0 discriminator 1 view .LVU12
  65 0018 062C     		cmp	r4, #6
  66 001a F4DD     		ble	.L3
  42:App/Src/devices.c ****     }
  43:App/Src/devices.c ****     for (i = 0; i < TEST_WORD_NUMBER; i++) {
  67              		.loc 1 43 12 view .LVU13
  68 001c 0024     		movs	r4, #0
ARM GAS  C:\Users\86158\AppData\Local\Temp\ccAoFQ4P.s 			page 3


  69              	.LVL4:
  70              		.loc 1 43 12 view .LVU14
  71 001e 08E0     		b	.L4
  72              	.LVL5:
  73              	.L5:
  44:App/Src/devices.c ****         g_lengthTestWord[i] = strlen(DeviceTestWord[i]);
  74              		.loc 1 44 9 is_stmt 1 discriminator 3 view .LVU15
  75              		.loc 1 44 52 is_stmt 0 discriminator 3 view .LVU16
  76 0020 C4EB0413 		rsb	r3, r4, r4, lsl #4
  77              		.loc 1 44 31 discriminator 3 view .LVU17
  78 0024 0648     		ldr	r0, .L7+8
  79 0026 1844     		add	r0, r0, r3
  80 0028 FFF7FEFF 		bl	strlen
  81              	.LVL6:
  82              		.loc 1 44 29 discriminator 3 view .LVU18
  83 002c 054B     		ldr	r3, .L7+12
  84 002e 1855     		strb	r0, [r3, r4]
  43:App/Src/devices.c ****         g_lengthTestWord[i] = strlen(DeviceTestWord[i]);
  85              		.loc 1 43 39 is_stmt 1 discriminator 3 view .LVU19
  43:App/Src/devices.c ****         g_lengthTestWord[i] = strlen(DeviceTestWord[i]);
  86              		.loc 1 43 40 is_stmt 0 discriminator 3 view .LVU20
  87 0030 0134     		adds	r4, r4, #1
  88              	.LVL7:
  89              	.L4:
  43:App/Src/devices.c ****         g_lengthTestWord[i] = strlen(DeviceTestWord[i]);
  90              		.loc 1 43 17 is_stmt 1 discriminator 1 view .LVU21
  43:App/Src/devices.c ****         g_lengthTestWord[i] = strlen(DeviceTestWord[i]);
  91              		.loc 1 43 5 is_stmt 0 discriminator 1 view .LVU22
  92 0032 0A2C     		cmp	r4, #10
  93 0034 F4DD     		ble	.L5
  45:App/Src/devices.c ****     }
  46:App/Src/devices.c **** }
  94              		.loc 1 46 1 view .LVU23
  95 0036 10BD     		pop	{r4, pc}
  96              	.LVL8:
  97              	.L8:
  98              		.loc 1 46 1 view .LVU24
  99              		.align	2
 100              	.L7:
 101 0038 00000000 		.word	.LANCHOR0
 102 003c 00000000 		.word	.LANCHOR1
 103 0040 00000000 		.word	.LANCHOR2
 104 0044 00000000 		.word	.LANCHOR3
 105              		.cfi_endproc
 106              	.LFE243:
 108              		.section	.rodata.operate_to_devices.str1.4,"aMS",%progbits,1
 109              		.align	2
 110              	.LC0:
 111 0000 D2D1C1AC 		.ascii	"\322\321\301\254\275\323\000"
 111      BDD300
 112 0007 00       		.align	2
 113              	.LC1:
 114 0008 41545E4F 		.ascii	"AT^OPERATE=%d\012\000"
 114      50455241 
 114      54453D25 
 114      640A00
 115              		.section	.text.operate_to_devices,"ax",%progbits
ARM GAS  C:\Users\86158\AppData\Local\Temp\ccAoFQ4P.s 			page 4


 116              		.align	1
 117              		.global	operate_to_devices
 118              		.syntax unified
 119              		.thumb
 120              		.thumb_func
 122              	operate_to_devices:
 123              	.LVL9:
 124              	.LFB244:
  47:App/Src/devices.c **** 
  48:App/Src/devices.c **** void operate_to_devices(uint8_t command)
  49:App/Src/devices.c **** {
 125              		.loc 1 49 1 is_stmt 1 view -0
 126              		.cfi_startproc
 127              		@ args = 0, pretend = 0, frame = 0
 128              		@ frame_needed = 0, uses_anonymous_args = 0
 129              		.loc 1 49 1 is_stmt 0 view .LVU26
 130 0000 38B5     		push	{r3, r4, r5, lr}
 131              	.LCFI1:
 132              		.cfi_def_cfa_offset 16
 133              		.cfi_offset 3, -16
 134              		.cfi_offset 4, -12
 135              		.cfi_offset 5, -8
 136              		.cfi_offset 14, -4
 137 0002 0546     		mov	r5, r0
  50:App/Src/devices.c ****     int i;
 138              		.loc 1 50 5 is_stmt 1 view .LVU27
  51:App/Src/devices.c ****     for (i = 0; i < MAX_DEVICES_CHANNEL; i++) {
 139              		.loc 1 51 5 view .LVU28
 140              	.LVL10:
 141              		.loc 1 51 12 is_stmt 0 view .LVU29
 142 0004 0024     		movs	r4, #0
 143              		.loc 1 51 5 view .LVU30
 144 0006 00E0     		b	.L10
 145              	.LVL11:
 146              	.L11:
 147              		.loc 1 51 42 is_stmt 1 discriminator 2 view .LVU31
 148              		.loc 1 51 43 is_stmt 0 discriminator 2 view .LVU32
 149 0008 0134     		adds	r4, r4, #1
 150              	.LVL12:
 151              	.L10:
 152              		.loc 1 51 17 is_stmt 1 discriminator 1 view .LVU33
 153              		.loc 1 51 5 is_stmt 0 discriminator 1 view .LVU34
 154 000a 092C     		cmp	r4, #9
 155 000c 16DC     		bgt	.L14
  52:App/Src/devices.c ****         if (strSearch(g_deviceMessage[i].state, "已连接") >= 0) {
 156              		.loc 1 52 9 is_stmt 1 view .LVU35
 157              		.loc 1 52 41 is_stmt 0 view .LVU36
 158 000e C4EBC403 		rsb	r3, r4, r4, lsl #3
 159 0012 DB00     		lsls	r3, r3, #3
 160 0014 1033     		adds	r3, r3, #16
 161              		.loc 1 52 13 view .LVU37
 162 0016 0A49     		ldr	r1, .L15
 163 0018 0A48     		ldr	r0, .L15+4
 164 001a 1844     		add	r0, r0, r3
 165 001c FFF7FEFF 		bl	strSearch
 166              	.LVL13:
 167              		.loc 1 52 12 view .LVU38
ARM GAS  C:\Users\86158\AppData\Local\Temp\ccAoFQ4P.s 			page 5


 168 0020 0028     		cmp	r0, #0
 169 0022 F1DB     		blt	.L11
  53:App/Src/devices.c ****             devices_printf(&uart_dev[i], "AT^OPERATE=%d\n", command);
 170              		.loc 1 53 13 is_stmt 1 view .LVU39
 171 0024 04EB4413 		add	r3, r4, r4, lsl #5
 172 0028 2A46     		mov	r2, r5
 173 002a 0749     		ldr	r1, .L15+8
 174 002c 0748     		ldr	r0, .L15+12
 175 002e 00EBC300 		add	r0, r0, r3, lsl #3
 176 0032 FFF7FEFF 		bl	devices_printf
 177              	.LVL14:
  54:App/Src/devices.c ****             g_operate[i] = command;
 178              		.loc 1 54 13 view .LVU40
 179              		.loc 1 54 26 is_stmt 0 view .LVU41
 180 0036 064B     		ldr	r3, .L15+16
 181 0038 1D55     		strb	r5, [r3, r4]
 182 003a E5E7     		b	.L11
 183              	.L14:
  55:App/Src/devices.c ****         }
  56:App/Src/devices.c ****     }
  57:App/Src/devices.c **** }
 184              		.loc 1 57 1 view .LVU42
 185 003c 38BD     		pop	{r3, r4, r5, pc}
 186              	.LVL15:
 187              	.L16:
 188              		.loc 1 57 1 view .LVU43
 189 003e 00BF     		.align	2
 190              	.L15:
 191 0040 00000000 		.word	.LC0
 192 0044 00000000 		.word	g_deviceMessage
 193 0048 08000000 		.word	.LC1
 194 004c 00000000 		.word	uart_dev
 195 0050 00000000 		.word	.LANCHOR4
 196              		.cfi_endproc
 197              	.LFE244:
 199              		.section	.rodata.DeviceMessageHandle.str1.4,"aMS",%progbits,1
 200              		.align	2
 201              	.LC2:
 202 0000 636F6E6E 		.ascii	"connect OK\000"
 202      65637420 
 202      4F4B00
 203 000b 00       		.align	2
 204              	.LC3:
 205 000c 74656D70 		.ascii	"temp:\000"
 205      3A00
 206 0012 0000     		.align	2
 207              	.LC4:
 208 0014 73796E63 		.ascii	"sync time OK\000"
 208      2074696D 
 208      65204F4B 
 208      00
 209 0021 000000   		.align	2
 210              	.LC5:
 211 0024 CDACB2BD 		.ascii	"\315\254\262\275\312\261\274\344 %d\267\326\000"
 211      CAB1BCE4 
 211      202564B7 
 211      D600
ARM GAS  C:\Users\86158\AppData\Local\Temp\ccAoFQ4P.s 			page 6


 212 0032 0000     		.align	2
 213              	.LC6:
 214 0034 0A00     		.ascii	"\012\000"
 215              		.section	.text.DeviceMessageHandle,"ax",%progbits
 216              		.align	1
 217              		.global	DeviceMessageHandle
 218              		.syntax unified
 219              		.thumb
 220              		.thumb_func
 222              	DeviceMessageHandle:
 223              	.LVL16:
 224              	.LFB245:
  58:App/Src/devices.c **** 
  59:App/Src/devices.c **** //单通道的接收处理函数
  60:App/Src/devices.c **** void DeviceMessageHandle(uint8_t channel, char* str)
  61:App/Src/devices.c **** {
 225              		.loc 1 61 1 is_stmt 1 view -0
 226              		.cfi_startproc
 227              		@ args = 0, pretend = 0, frame = 8
 228              		@ frame_needed = 0, uses_anonymous_args = 0
 229              		.loc 1 61 1 is_stmt 0 view .LVU45
 230 0000 2DE9F041 		push	{r4, r5, r6, r7, r8, lr}
 231              	.LCFI2:
 232              		.cfi_def_cfa_offset 24
 233              		.cfi_offset 4, -24
 234              		.cfi_offset 5, -20
 235              		.cfi_offset 6, -16
 236              		.cfi_offset 7, -12
 237              		.cfi_offset 8, -8
 238              		.cfi_offset 14, -4
 239 0004 82B0     		sub	sp, sp, #8
 240              	.LCFI3:
 241              		.cfi_def_cfa_offset 32
 242 0006 0546     		mov	r5, r0
 243 0008 0C46     		mov	r4, r1
  62:App/Src/devices.c ****     int num;
 244              		.loc 1 62 5 is_stmt 1 view .LVU46
  63:App/Src/devices.c ****     float sysTemp = 0;
 245              		.loc 1 63 5 view .LVU47
 246              		.loc 1 63 11 is_stmt 0 view .LVU48
 247 000a 0023     		movs	r3, #0
 248 000c 0193     		str	r3, [sp, #4]	@ float
  64:App/Src/devices.c ****     int convert = 0;
 249              		.loc 1 64 5 is_stmt 1 view .LVU49
 250              		.loc 1 64 9 is_stmt 0 view .LVU50
 251 000e 0023     		movs	r3, #0
 252 0010 0093     		str	r3, [sp]
  65:App/Src/devices.c ****     int messageEnd = 0;
 253              		.loc 1 65 5 is_stmt 1 view .LVU51
 254              	.LVL17:
  66:App/Src/devices.c **** 
  67:App/Src/devices.c ****     g_rxTick[channel] = HAL_GetTick();
 255              		.loc 1 67 5 view .LVU52
 256              		.loc 1 67 25 is_stmt 0 view .LVU53
 257 0012 FFF7FEFF 		bl	HAL_GetTick
 258              	.LVL18:
 259              		.loc 1 67 23 view .LVU54
ARM GAS  C:\Users\86158\AppData\Local\Temp\ccAoFQ4P.s 			page 7


 260 0016 684B     		ldr	r3, .L35
 261 0018 43F82500 		str	r0, [r3, r5, lsl #2]
  68:App/Src/devices.c ****     num = strSearch(str, "connect OK");
 262              		.loc 1 68 5 is_stmt 1 view .LVU55
 263              		.loc 1 68 11 is_stmt 0 view .LVU56
 264 001c 6749     		ldr	r1, .L35+4
 265 001e 2046     		mov	r0, r4
 266 0020 FFF7FEFF 		bl	strSearch
 267              	.LVL19:
  69:App/Src/devices.c ****     if (num >= 0) {
 268              		.loc 1 69 5 is_stmt 1 view .LVU57
 269              		.loc 1 69 8 is_stmt 0 view .LVU58
 270 0024 0028     		cmp	r0, #0
 271 0026 26DA     		bge	.L28
 272              	.LVL20:
 273              	.L18:
  70:App/Src/devices.c ****         g_deviceMessage[channel].board = channel;
  71:App/Src/devices.c ****         num = strSearch(str, "temp:");
  72:App/Src/devices.c ****         CharToFloat(str, num + 5, &sysTemp);
  73:App/Src/devices.c ****         g_deviceMessage[channel].systemTemp = sysTemp;
  74:App/Src/devices.c ****         memset(g_deviceMessage[channel].state, 0, 20);
  75:App/Src/devices.c ****         strcpy(g_deviceMessage[channel].state, "已连接");
  76:App/Src/devices.c ****         // g_txFlag[channel] = DEVICE_NO_TX;
  77:App/Src/devices.c ****     }
  78:App/Src/devices.c ****     num = strSearch(str, "sync time OK");
 274              		.loc 1 78 5 is_stmt 1 view .LVU59
 275              		.loc 1 78 11 is_stmt 0 view .LVU60
 276 0028 6549     		ldr	r1, .L35+8
 277 002a 2046     		mov	r0, r4
 278 002c FFF7FEFF 		bl	strSearch
 279              	.LVL21:
  79:App/Src/devices.c ****     if (num >= 0) {
 280              		.loc 1 79 5 is_stmt 1 view .LVU61
 281              		.loc 1 79 8 is_stmt 0 view .LVU62
 282 0030 0028     		cmp	r0, #0
 283 0032 47DA     		bge	.L29
 284              	.LVL22:
 285              	.L19:
  80:App/Src/devices.c ****         memset(g_deviceMessage[channel].message, 0, 20);
  81:App/Src/devices.c ****         snprintf(g_deviceMessage[channel].message, 20, "同步时间 %d分", g_systemTime.min);
  82:App/Src/devices.c ****     }
  83:App/Src/devices.c ****     
  84:App/Src/devices.c ****     num = strSearch(str, DeviceKeyWord[1]);
 286              		.loc 1 84 5 is_stmt 1 view .LVU63
 287              		.loc 1 84 11 is_stmt 0 view .LVU64
 288 0034 6349     		ldr	r1, .L35+12
 289 0036 2046     		mov	r0, r4
 290 0038 FFF7FEFF 		bl	strSearch
 291              	.LVL23:
  85:App/Src/devices.c ****     if (num >= 0) {
 292              		.loc 1 85 5 is_stmt 1 view .LVU65
 293              		.loc 1 85 8 is_stmt 0 view .LVU66
 294 003c 0028     		cmp	r0, #0
 295              		.loc 1 85 8 view .LVU67
 296 003e 55DA     		bge	.L30
 297              	.LVL24:
 298              	.L20:
ARM GAS  C:\Users\86158\AppData\Local\Temp\ccAoFQ4P.s 			page 8


  86:App/Src/devices.c ****         CharToFloat(str, num + g_lengthKeyWord[1], &sysTemp);
  87:App/Src/devices.c ****         g_deviceMessage[channel].systemTemp = sysTemp;
  88:App/Src/devices.c ****     }
  89:App/Src/devices.c ****     num = strSearch(str, DeviceKeyWord[2]);
 299              		.loc 1 89 5 is_stmt 1 view .LVU68
 300              		.loc 1 89 11 is_stmt 0 view .LVU69
 301 0040 6149     		ldr	r1, .L35+16
 302 0042 2046     		mov	r0, r4
 303 0044 FFF7FEFF 		bl	strSearch
 304              	.LVL25:
  90:App/Src/devices.c ****     if (num >= 0) {
 305              		.loc 1 90 5 is_stmt 1 view .LVU70
 306              		.loc 1 90 8 is_stmt 0 view .LVU71
 307 0048 0028     		cmp	r0, #0
 308              		.loc 1 90 8 view .LVU72
 309 004a 5FDA     		bge	.L31
 310              	.LVL26:
 311              	.L21:
  91:App/Src/devices.c ****         CharToInt(str, num + g_lengthKeyWord[2], &convert);
  92:App/Src/devices.c ****         g_deviceMessage[channel].okNumber = convert;
  93:App/Src/devices.c ****     }
  94:App/Src/devices.c ****     num = strSearch(str, DeviceKeyWord[3]);
 312              		.loc 1 94 5 is_stmt 1 view .LVU73
 313              		.loc 1 94 11 is_stmt 0 view .LVU74
 314 004c 5F49     		ldr	r1, .L35+20
 315 004e 2046     		mov	r0, r4
 316 0050 FFF7FEFF 		bl	strSearch
 317              	.LVL27:
  95:App/Src/devices.c ****     if (num >= 0) {
 318              		.loc 1 95 5 is_stmt 1 view .LVU75
 319              		.loc 1 95 8 is_stmt 0 view .LVU76
 320 0054 0028     		cmp	r0, #0
 321              		.loc 1 95 8 view .LVU77
 322 0056 69DA     		bge	.L32
 323              	.LVL28:
 324              	.L22:
  96:App/Src/devices.c ****         CharToInt(str, num + g_lengthKeyWord[3], &convert);
  97:App/Src/devices.c ****         g_deviceMessage[channel].chipName = convert;
  98:App/Src/devices.c ****     }
  99:App/Src/devices.c ****     num = strSearch(str, DeviceKeyWord[4]);
 325              		.loc 1 99 5 is_stmt 1 view .LVU78
 326              		.loc 1 99 11 is_stmt 0 view .LVU79
 327 0058 5D49     		ldr	r1, .L35+24
 328 005a 2046     		mov	r0, r4
 329 005c FFF7FEFF 		bl	strSearch
 330              	.LVL29:
 100:App/Src/devices.c ****     if (num >= 0) {
 331              		.loc 1 100 5 is_stmt 1 view .LVU80
 332              		.loc 1 100 8 is_stmt 0 view .LVU81
 333 0060 0028     		cmp	r0, #0
 334              		.loc 1 100 8 view .LVU82
 335 0062 73DA     		bge	.L33
 336              	.LVL30:
 337              	.L23:
 101:App/Src/devices.c ****         CharToInt(str, num + g_lengthKeyWord[4], &convert);
 102:App/Src/devices.c ****         g_deviceMessage[channel].chipTemp = convert;
 103:App/Src/devices.c ****     }
ARM GAS  C:\Users\86158\AppData\Local\Temp\ccAoFQ4P.s 			page 9


 104:App/Src/devices.c ****     num = strSearch(str, DeviceKeyWord[6]);
 338              		.loc 1 104 5 is_stmt 1 view .LVU83
 339              		.loc 1 104 11 is_stmt 0 view .LVU84
 340 0064 5B49     		ldr	r1, .L35+28
 341 0066 2046     		mov	r0, r4
 342 0068 FFF7FEFF 		bl	strSearch
 343              	.LVL31:
 105:App/Src/devices.c ****     if (num >= 0) {
 344              		.loc 1 105 5 is_stmt 1 view .LVU85
 345              		.loc 1 105 8 is_stmt 0 view .LVU86
 346 006c 061E     		subs	r6, r0, #0
 347 006e 7DDA     		bge	.L34
 348              	.LVL32:
 349              	.L17:
 106:App/Src/devices.c ****         memset(g_deviceMessage[channel].message, 0, 20);
 107:App/Src/devices.c ****         // messageEnd = strSearch(str + num, "\n") - num - g_lengthKeyWord[6];
 108:App/Src/devices.c ****         messageEnd = strSearch(str, "\n") - num - g_lengthKeyWord[6];
 109:App/Src/devices.c ****         if (messageEnd > 19) {
 110:App/Src/devices.c ****             messageEnd = 19;
 111:App/Src/devices.c ****         }
 112:App/Src/devices.c ****         strncpy(g_deviceMessage[channel].message, str + num + g_lengthKeyWord[6], messageEnd);
 113:App/Src/devices.c ****         g_deviceMessage[channel].message[19] = '\0';
 114:App/Src/devices.c ****     }
 115:App/Src/devices.c **** }
 350              		.loc 1 115 1 view .LVU87
 351 0070 02B0     		add	sp, sp, #8
 352              	.LCFI4:
 353              		.cfi_remember_state
 354              		.cfi_def_cfa_offset 24
 355              		@ sp needed
 356 0072 BDE8F081 		pop	{r4, r5, r6, r7, r8, pc}
 357              	.LVL33:
 358              	.L28:
 359              	.LCFI5:
 360              		.cfi_restore_state
  70:App/Src/devices.c ****         num = strSearch(str, "temp:");
 361              		.loc 1 70 9 is_stmt 1 view .LVU88
  70:App/Src/devices.c ****         num = strSearch(str, "temp:");
 362              		.loc 1 70 40 is_stmt 0 view .LVU89
 363 0076 584F     		ldr	r7, .L35+32
 364 0078 EE00     		lsls	r6, r5, #3
 365 007a C5EBC503 		rsb	r3, r5, r5, lsl #3
 366 007e 07EBC308 		add	r8, r7, r3, lsl #3
 367 0082 07F83350 		strb	r5, [r7, r3, lsl #3]
  71:App/Src/devices.c ****         CharToFloat(str, num + 5, &sysTemp);
 368              		.loc 1 71 9 is_stmt 1 view .LVU90
  71:App/Src/devices.c ****         CharToFloat(str, num + 5, &sysTemp);
 369              		.loc 1 71 15 is_stmt 0 view .LVU91
 370 0086 5549     		ldr	r1, .L35+36
 371 0088 2046     		mov	r0, r4
 372              	.LVL34:
  71:App/Src/devices.c ****         CharToFloat(str, num + 5, &sysTemp);
 373              		.loc 1 71 15 view .LVU92
 374 008a FFF7FEFF 		bl	strSearch
 375              	.LVL35:
  72:App/Src/devices.c ****         g_deviceMessage[channel].systemTemp = sysTemp;
 376              		.loc 1 72 9 is_stmt 1 view .LVU93
ARM GAS  C:\Users\86158\AppData\Local\Temp\ccAoFQ4P.s 			page 10


 377 008e 411D     		adds	r1, r0, #5
 378 0090 01AA     		add	r2, sp, #4
 379 0092 C9B2     		uxtb	r1, r1
 380 0094 2046     		mov	r0, r4
 381              	.LVL36:
  72:App/Src/devices.c ****         g_deviceMessage[channel].systemTemp = sysTemp;
 382              		.loc 1 72 9 is_stmt 0 view .LVU94
 383 0096 FFF7FEFF 		bl	CharToFloat
 384              	.LVL37:
  73:App/Src/devices.c ****         memset(g_deviceMessage[channel].state, 0, 20);
 385              		.loc 1 73 9 is_stmt 1 view .LVU95
  73:App/Src/devices.c ****         memset(g_deviceMessage[channel].state, 0, 20);
 386              		.loc 1 73 45 is_stmt 0 view .LVU96
 387 009a 019B     		ldr	r3, [sp, #4]	@ float
 388 009c C8F80430 		str	r3, [r8, #4]	@ float
  74:App/Src/devices.c ****         strcpy(g_deviceMessage[channel].state, "已连接");
 389              		.loc 1 74 9 is_stmt 1 view .LVU97
  74:App/Src/devices.c ****         strcpy(g_deviceMessage[channel].state, "已连接");
 390              		.loc 1 74 40 is_stmt 0 view .LVU98
 391 00a0 731B     		subs	r3, r6, r5
 392 00a2 DB00     		lsls	r3, r3, #3
 393 00a4 1033     		adds	r3, r3, #16
 394 00a6 DA19     		adds	r2, r3, r7
  74:App/Src/devices.c ****         strcpy(g_deviceMessage[channel].state, "已连接");
 395              		.loc 1 74 9 view .LVU99
 396 00a8 0021     		movs	r1, #0
 397 00aa D951     		str	r1, [r3, r7]	@ unaligned
 398 00ac 5160     		str	r1, [r2, #4]	@ unaligned
 399 00ae 9160     		str	r1, [r2, #8]	@ unaligned
 400 00b0 D160     		str	r1, [r2, #12]	@ unaligned
 401 00b2 1161     		str	r1, [r2, #16]	@ unaligned
  75:App/Src/devices.c ****         // g_txFlag[channel] = DEVICE_NO_TX;
 402              		.loc 1 75 9 is_stmt 1 view .LVU100
 403 00b4 4A49     		ldr	r1, .L35+40
 404 00b6 0868     		ldr	r0, [r1]
 405 00b8 D851     		str	r0, [r3, r7]	@ unaligned
 406 00ba 8888     		ldrh	r0, [r1, #4]	@ unaligned
 407 00bc 8B79     		ldrb	r3, [r1, #6]	@ zero_extendqisi2
 408 00be 9080     		strh	r0, [r2, #4]	@ unaligned
 409 00c0 9371     		strb	r3, [r2, #6]
 410 00c2 B1E7     		b	.L18
 411              	.LVL38:
 412              	.L29:
  80:App/Src/devices.c ****         snprintf(g_deviceMessage[channel].message, 20, "同步时间 %d分", g_systemTime.min);
 413              		.loc 1 80 9 view .LVU101
  80:App/Src/devices.c ****         snprintf(g_deviceMessage[channel].message, 20, "同步时间 %d分", g_systemTime.min);
 414              		.loc 1 80 40 is_stmt 0 view .LVU102
 415 00c4 C5EBC500 		rsb	r0, r5, r5, lsl #3
 416              	.LVL39:
  80:App/Src/devices.c ****         snprintf(g_deviceMessage[channel].message, 20, "同步时间 %d分", g_systemTime.min);
 417              		.loc 1 80 40 view .LVU103
 418 00c8 C000     		lsls	r0, r0, #3
 419 00ca 2030     		adds	r0, r0, #32
 420 00cc 424B     		ldr	r3, .L35+32
 421 00ce 1844     		add	r0, r0, r3
  80:App/Src/devices.c ****         snprintf(g_deviceMessage[channel].message, 20, "同步时间 %d分", g_systemTime.min);
 422              		.loc 1 80 9 view .LVU104
ARM GAS  C:\Users\86158\AppData\Local\Temp\ccAoFQ4P.s 			page 11


 423 00d0 0023     		movs	r3, #0
 424 00d2 4360     		str	r3, [r0, #4]	@ unaligned
 425 00d4 8360     		str	r3, [r0, #8]	@ unaligned
 426 00d6 C360     		str	r3, [r0, #12]	@ unaligned
 427 00d8 0361     		str	r3, [r0, #16]	@ unaligned
 428 00da 4361     		str	r3, [r0, #20]	@ unaligned
  81:App/Src/devices.c ****     }
 429              		.loc 1 81 9 is_stmt 1 view .LVU105
 430 00dc 414B     		ldr	r3, .L35+44
 431 00de 1B79     		ldrb	r3, [r3, #4]	@ zero_extendqisi2
 432 00e0 414A     		ldr	r2, .L35+48
 433 00e2 1421     		movs	r1, #20
 434 00e4 0430     		adds	r0, r0, #4
 435 00e6 FFF7FEFF 		bl	snprintf
 436              	.LVL40:
 437 00ea A3E7     		b	.L19
 438              	.LVL41:
 439              	.L30:
  86:App/Src/devices.c ****         g_deviceMessage[channel].systemTemp = sysTemp;
 440              		.loc 1 86 9 view .LVU106
  86:App/Src/devices.c ****         g_deviceMessage[channel].systemTemp = sysTemp;
 441              		.loc 1 86 47 is_stmt 0 view .LVU107
 442 00ec 3F4B     		ldr	r3, .L35+52
 443 00ee 5978     		ldrb	r1, [r3, #1]	@ zero_extendqisi2
  86:App/Src/devices.c ****         g_deviceMessage[channel].systemTemp = sysTemp;
 444              		.loc 1 86 9 view .LVU108
 445 00f0 0144     		add	r1, r1, r0
 446 00f2 01AA     		add	r2, sp, #4
 447 00f4 C9B2     		uxtb	r1, r1
 448 00f6 2046     		mov	r0, r4
 449              	.LVL42:
  86:App/Src/devices.c ****         g_deviceMessage[channel].systemTemp = sysTemp;
 450              		.loc 1 86 9 view .LVU109
 451 00f8 FFF7FEFF 		bl	CharToFloat
 452              	.LVL43:
  87:App/Src/devices.c ****     }
 453              		.loc 1 87 9 is_stmt 1 view .LVU110
  87:App/Src/devices.c ****     }
 454              		.loc 1 87 45 is_stmt 0 view .LVU111
 455 00fc C5EBC503 		rsb	r3, r5, r5, lsl #3
 456 0100 354A     		ldr	r2, .L35+32
 457 0102 02EBC303 		add	r3, r2, r3, lsl #3
 458 0106 019A     		ldr	r2, [sp, #4]	@ float
 459 0108 5A60     		str	r2, [r3, #4]	@ float
 460 010a 99E7     		b	.L20
 461              	.LVL44:
 462              	.L31:
  91:App/Src/devices.c ****         g_deviceMessage[channel].okNumber = convert;
 463              		.loc 1 91 9 is_stmt 1 view .LVU112
  91:App/Src/devices.c ****         g_deviceMessage[channel].okNumber = convert;
 464              		.loc 1 91 45 is_stmt 0 view .LVU113
 465 010c 374B     		ldr	r3, .L35+52
 466 010e 9978     		ldrb	r1, [r3, #2]	@ zero_extendqisi2
  91:App/Src/devices.c ****         g_deviceMessage[channel].okNumber = convert;
 467              		.loc 1 91 9 view .LVU114
 468 0110 0144     		add	r1, r1, r0
 469 0112 6A46     		mov	r2, sp
ARM GAS  C:\Users\86158\AppData\Local\Temp\ccAoFQ4P.s 			page 12


 470 0114 C9B2     		uxtb	r1, r1
 471 0116 2046     		mov	r0, r4
 472              	.LVL45:
  91:App/Src/devices.c ****         g_deviceMessage[channel].okNumber = convert;
 473              		.loc 1 91 9 view .LVU115
 474 0118 FFF7FEFF 		bl	CharToInt
 475              	.LVL46:
  92:App/Src/devices.c ****     }
 476              		.loc 1 92 9 is_stmt 1 view .LVU116
  92:App/Src/devices.c ****     }
 477              		.loc 1 92 43 is_stmt 0 view .LVU117
 478 011c C5EBC503 		rsb	r3, r5, r5, lsl #3
 479 0120 2D4A     		ldr	r2, .L35+32
 480 0122 02EBC303 		add	r3, r2, r3, lsl #3
 481 0126 009A     		ldr	r2, [sp]
 482 0128 1A72     		strb	r2, [r3, #8]
 483 012a 8FE7     		b	.L21
 484              	.LVL47:
 485              	.L32:
  96:App/Src/devices.c ****         g_deviceMessage[channel].chipName = convert;
 486              		.loc 1 96 9 is_stmt 1 view .LVU118
  96:App/Src/devices.c ****         g_deviceMessage[channel].chipName = convert;
 487              		.loc 1 96 45 is_stmt 0 view .LVU119
 488 012c 2F4B     		ldr	r3, .L35+52
 489 012e D978     		ldrb	r1, [r3, #3]	@ zero_extendqisi2
  96:App/Src/devices.c ****         g_deviceMessage[channel].chipName = convert;
 490              		.loc 1 96 9 view .LVU120
 491 0130 0144     		add	r1, r1, r0
 492 0132 6A46     		mov	r2, sp
 493 0134 C9B2     		uxtb	r1, r1
 494 0136 2046     		mov	r0, r4
 495              	.LVL48:
  96:App/Src/devices.c ****         g_deviceMessage[channel].chipName = convert;
 496              		.loc 1 96 9 view .LVU121
 497 0138 FFF7FEFF 		bl	CharToInt
 498              	.LVL49:
  97:App/Src/devices.c ****     }
 499              		.loc 1 97 9 is_stmt 1 view .LVU122
  97:App/Src/devices.c ****     }
 500              		.loc 1 97 43 is_stmt 0 view .LVU123
 501 013c C5EBC503 		rsb	r3, r5, r5, lsl #3
 502 0140 254A     		ldr	r2, .L35+32
 503 0142 02EBC303 		add	r3, r2, r3, lsl #3
 504 0146 009A     		ldr	r2, [sp]
 505 0148 5A72     		strb	r2, [r3, #9]
 506 014a 85E7     		b	.L22
 507              	.LVL50:
 508              	.L33:
 101:App/Src/devices.c ****         g_deviceMessage[channel].chipTemp = convert;
 509              		.loc 1 101 9 is_stmt 1 view .LVU124
 101:App/Src/devices.c ****         g_deviceMessage[channel].chipTemp = convert;
 510              		.loc 1 101 45 is_stmt 0 view .LVU125
 511 014c 274B     		ldr	r3, .L35+52
 512 014e 1979     		ldrb	r1, [r3, #4]	@ zero_extendqisi2
 101:App/Src/devices.c ****         g_deviceMessage[channel].chipTemp = convert;
 513              		.loc 1 101 9 view .LVU126
 514 0150 0144     		add	r1, r1, r0
ARM GAS  C:\Users\86158\AppData\Local\Temp\ccAoFQ4P.s 			page 13


 515 0152 6A46     		mov	r2, sp
 516 0154 C9B2     		uxtb	r1, r1
 517 0156 2046     		mov	r0, r4
 518              	.LVL51:
 101:App/Src/devices.c ****         g_deviceMessage[channel].chipTemp = convert;
 519              		.loc 1 101 9 view .LVU127
 520 0158 FFF7FEFF 		bl	CharToInt
 521              	.LVL52:
 102:App/Src/devices.c ****     }
 522              		.loc 1 102 9 is_stmt 1 view .LVU128
 102:App/Src/devices.c ****     }
 523              		.loc 1 102 43 is_stmt 0 view .LVU129
 524 015c C5EBC503 		rsb	r3, r5, r5, lsl #3
 525 0160 1D4A     		ldr	r2, .L35+32
 526 0162 02EBC303 		add	r3, r2, r3, lsl #3
 527 0166 009A     		ldr	r2, [sp]
 528 0168 DA60     		str	r2, [r3, #12]
 529 016a 7BE7     		b	.L23
 530              	.LVL53:
 531              	.L34:
 106:App/Src/devices.c ****         // messageEnd = strSearch(str + num, "\n") - num - g_lengthKeyWord[6];
 532              		.loc 1 106 9 is_stmt 1 view .LVU130
 106:App/Src/devices.c ****         // messageEnd = strSearch(str + num, "\n") - num - g_lengthKeyWord[6];
 533              		.loc 1 106 40 is_stmt 0 view .LVU131
 534 016c C5EBC503 		rsb	r3, r5, r5, lsl #3
 535 0170 DB00     		lsls	r3, r3, #3
 536 0172 2033     		adds	r3, r3, #32
 537 0174 184A     		ldr	r2, .L35+32
 538 0176 1344     		add	r3, r3, r2
 539 0178 1F1D     		adds	r7, r3, #4
 106:App/Src/devices.c ****         // messageEnd = strSearch(str + num, "\n") - num - g_lengthKeyWord[6];
 540              		.loc 1 106 9 view .LVU132
 541 017a 0022     		movs	r2, #0
 542 017c 5A60     		str	r2, [r3, #4]	@ unaligned
 543 017e 9A60     		str	r2, [r3, #8]	@ unaligned
 544 0180 DA60     		str	r2, [r3, #12]	@ unaligned
 545 0182 1A61     		str	r2, [r3, #16]	@ unaligned
 546 0184 5A61     		str	r2, [r3, #20]	@ unaligned
 108:App/Src/devices.c ****         if (messageEnd > 19) {
 547              		.loc 1 108 9 is_stmt 1 view .LVU133
 108:App/Src/devices.c ****         if (messageEnd > 19) {
 548              		.loc 1 108 22 is_stmt 0 view .LVU134
 549 0186 1A49     		ldr	r1, .L35+56
 550 0188 2046     		mov	r0, r4
 551              	.LVL54:
 108:App/Src/devices.c ****         if (messageEnd > 19) {
 552              		.loc 1 108 22 view .LVU135
 553 018a FFF7FEFF 		bl	strSearch
 554              	.LVL55:
 108:App/Src/devices.c ****         if (messageEnd > 19) {
 555              		.loc 1 108 43 view .LVU136
 556 018e 821B     		subs	r2, r0, r6
 108:App/Src/devices.c ****         if (messageEnd > 19) {
 557              		.loc 1 108 66 view .LVU137
 558 0190 164B     		ldr	r3, .L35+52
 559 0192 9979     		ldrb	r1, [r3, #6]	@ zero_extendqisi2
 108:App/Src/devices.c ****         if (messageEnd > 19) {
ARM GAS  C:\Users\86158\AppData\Local\Temp\ccAoFQ4P.s 			page 14


 560              		.loc 1 108 20 view .LVU138
 561 0194 521A     		subs	r2, r2, r1
 562              	.LVL56:
 109:App/Src/devices.c ****             messageEnd = 19;
 563              		.loc 1 109 9 is_stmt 1 view .LVU139
 109:App/Src/devices.c ****             messageEnd = 19;
 564              		.loc 1 109 12 is_stmt 0 view .LVU140
 565 0196 132A     		cmp	r2, #19
 566 0198 00DD     		ble	.L25
 110:App/Src/devices.c ****         }
 567              		.loc 1 110 24 view .LVU141
 568 019a 1322     		movs	r2, #19
 569              	.LVL57:
 570              	.L25:
 112:App/Src/devices.c ****         g_deviceMessage[channel].message[19] = '\0';
 571              		.loc 1 112 9 is_stmt 1 view .LVU142
 112:App/Src/devices.c ****         g_deviceMessage[channel].message[19] = '\0';
 572              		.loc 1 112 61 is_stmt 0 view .LVU143
 573 019c 3144     		add	r1, r1, r6
 112:App/Src/devices.c ****         g_deviceMessage[channel].message[19] = '\0';
 574              		.loc 1 112 9 view .LVU144
 575 019e 2144     		add	r1, r1, r4
 576 01a0 3846     		mov	r0, r7
 577 01a2 FFF7FEFF 		bl	strncpy
 578              	.LVL58:
 113:App/Src/devices.c ****     }
 579              		.loc 1 113 9 is_stmt 1 view .LVU145
 113:App/Src/devices.c ****     }
 580              		.loc 1 113 46 is_stmt 0 view .LVU146
 581 01a6 C5EBC505 		rsb	r5, r5, r5, lsl #3
 582 01aa 0B48     		ldr	r0, .L35+32
 583 01ac 00EBC505 		add	r5, r0, r5, lsl #3
 584 01b0 0023     		movs	r3, #0
 585 01b2 85F83730 		strb	r3, [r5, #55]
 586              		.loc 1 115 1 view .LVU147
 587 01b6 5BE7     		b	.L17
 588              	.L36:
 589              		.align	2
 590              	.L35:
 591 01b8 00000000 		.word	.LANCHOR5
 592 01bc 00000000 		.word	.LC2
 593 01c0 14000000 		.word	.LC4
 594 01c4 0F000000 		.word	.LANCHOR0+15
 595 01c8 1E000000 		.word	.LANCHOR0+30
 596 01cc 2D000000 		.word	.LANCHOR0+45
 597 01d0 3C000000 		.word	.LANCHOR0+60
 598 01d4 5A000000 		.word	.LANCHOR0+90
 599 01d8 00000000 		.word	g_deviceMessage
 600 01dc 0C000000 		.word	.LC3
 601 01e0 00000000 		.word	.LC0
 602 01e4 00000000 		.word	g_systemTime
 603 01e8 24000000 		.word	.LC5
 604 01ec 00000000 		.word	.LANCHOR1
 605 01f0 34000000 		.word	.LC6
 606              		.cfi_endproc
 607              	.LFE245:
 609              		.section	.text.TestMessageHandle,"ax",%progbits
ARM GAS  C:\Users\86158\AppData\Local\Temp\ccAoFQ4P.s 			page 15


 610              		.align	1
 611              		.global	TestMessageHandle
 612              		.syntax unified
 613              		.thumb
 614              		.thumb_func
 616              	TestMessageHandle:
 617              	.LVL59:
 618              	.LFB246:
 116:App/Src/devices.c **** 
 117:App/Src/devices.c **** void TestMessageHandle(uint8_t channel, char* str)
 118:App/Src/devices.c **** {
 619              		.loc 1 118 1 is_stmt 1 view -0
 620              		.cfi_startproc
 621              		@ args = 0, pretend = 0, frame = 8
 622              		@ frame_needed = 0, uses_anonymous_args = 0
 623              		.loc 1 118 1 is_stmt 0 view .LVU149
 624 0000 2DE9F041 		push	{r4, r5, r6, r7, r8, lr}
 625              	.LCFI6:
 626              		.cfi_def_cfa_offset 24
 627              		.cfi_offset 4, -24
 628              		.cfi_offset 5, -20
 629              		.cfi_offset 6, -16
 630              		.cfi_offset 7, -12
 631              		.cfi_offset 8, -8
 632              		.cfi_offset 14, -4
 633 0004 82B0     		sub	sp, sp, #8
 634              	.LCFI7:
 635              		.cfi_def_cfa_offset 32
 636 0006 0646     		mov	r6, r0
 637 0008 0D46     		mov	r5, r1
 119:App/Src/devices.c ****     int i, num, messageEnd;
 638              		.loc 1 119 5 is_stmt 1 view .LVU150
 120:App/Src/devices.c ****     float sysTemp = 0;
 639              		.loc 1 120 5 view .LVU151
 640              		.loc 1 120 11 is_stmt 0 view .LVU152
 641 000a 0023     		movs	r3, #0
 642 000c 0193     		str	r3, [sp, #4]	@ float
 121:App/Src/devices.c ****     g_rxTick[channel] = HAL_GetTick();
 643              		.loc 1 121 5 is_stmt 1 view .LVU153
 644              		.loc 1 121 25 is_stmt 0 view .LVU154
 645 000e FFF7FEFF 		bl	HAL_GetTick
 646              	.LVL60:
 647              		.loc 1 121 23 view .LVU155
 648 0012 344B     		ldr	r3, .L47
 649 0014 43F82600 		str	r0, [r3, r6, lsl #2]
 122:App/Src/devices.c ****     for (i = 0; i < TEST_WORD_NUMBER; i++) {
 650              		.loc 1 122 5 is_stmt 1 view .LVU156
 651              	.LVL61:
 652              		.loc 1 122 12 is_stmt 0 view .LVU157
 653 0018 0024     		movs	r4, #0
 654              		.loc 1 122 5 view .LVU158
 655 001a 0CE0     		b	.L38
 656              	.LVL62:
 657              	.L40:
 123:App/Src/devices.c ****         num = strSearch(str, DeviceTestWord[i]);
 124:App/Src/devices.c ****         if (num >= 0) {
 125:App/Src/devices.c ****             memset(g_testMessage[i], 0, 20);
ARM GAS  C:\Users\86158\AppData\Local\Temp\ccAoFQ4P.s 			page 16


 126:App/Src/devices.c ****             messageEnd = strSearch(str, "\n") - num - g_lengthTestWord[i];
 127:App/Src/devices.c ****             if (messageEnd > 19) {
 128:App/Src/devices.c ****                 messageEnd = 19;
 129:App/Src/devices.c ****             }
 130:App/Src/devices.c ****             strncpy(g_testMessage[i], str + num + g_lengthTestWord[i], messageEnd);
 658              		.loc 1 130 13 is_stmt 1 view .LVU159
 659              		.loc 1 130 49 is_stmt 0 view .LVU160
 660 001c 3844     		add	r0, r0, r7
 661              		.loc 1 130 13 view .LVU161
 662 001e 2918     		adds	r1, r5, r0
 663 0020 4046     		mov	r0, r8
 664 0022 FFF7FEFF 		bl	strncpy
 665              	.LVL63:
 131:App/Src/devices.c ****            g_testMessage[i][19] = '\0';
 666              		.loc 1 131 12 is_stmt 1 view .LVU162
 667              		.loc 1 131 33 is_stmt 0 view .LVU163
 668 0026 04EB8403 		add	r3, r4, r4, lsl #2
 669 002a 2F4A     		ldr	r2, .L47+4
 670 002c 02EB8303 		add	r3, r2, r3, lsl #2
 671 0030 0022     		movs	r2, #0
 672 0032 DA74     		strb	r2, [r3, #19]
 673              	.L39:
 122:App/Src/devices.c ****     for (i = 0; i < TEST_WORD_NUMBER; i++) {
 674              		.loc 1 122 39 is_stmt 1 discriminator 2 view .LVU164
 122:App/Src/devices.c ****     for (i = 0; i < TEST_WORD_NUMBER; i++) {
 675              		.loc 1 122 40 is_stmt 0 discriminator 2 view .LVU165
 676 0034 0134     		adds	r4, r4, #1
 677              	.LVL64:
 678              	.L38:
 122:App/Src/devices.c ****     for (i = 0; i < TEST_WORD_NUMBER; i++) {
 679              		.loc 1 122 17 is_stmt 1 discriminator 1 view .LVU166
 122:App/Src/devices.c ****     for (i = 0; i < TEST_WORD_NUMBER; i++) {
 680              		.loc 1 122 5 is_stmt 0 discriminator 1 view .LVU167
 681 0036 0A2C     		cmp	r4, #10
 682 0038 24DC     		bgt	.L45
 123:App/Src/devices.c ****         num = strSearch(str, DeviceTestWord[i]);
 683              		.loc 1 123 9 is_stmt 1 view .LVU168
 123:App/Src/devices.c ****         num = strSearch(str, DeviceTestWord[i]);
 684              		.loc 1 123 44 is_stmt 0 view .LVU169
 685 003a C4EB0413 		rsb	r3, r4, r4, lsl #4
 123:App/Src/devices.c ****         num = strSearch(str, DeviceTestWord[i]);
 686              		.loc 1 123 15 view .LVU170
 687 003e 2B49     		ldr	r1, .L47+8
 688 0040 1944     		add	r1, r1, r3
 689 0042 2846     		mov	r0, r5
 690 0044 FFF7FEFF 		bl	strSearch
 691              	.LVL65:
 124:App/Src/devices.c ****             memset(g_testMessage[i], 0, 20);
 692              		.loc 1 124 9 is_stmt 1 view .LVU171
 124:App/Src/devices.c ****             memset(g_testMessage[i], 0, 20);
 693              		.loc 1 124 12 is_stmt 0 view .LVU172
 694 0048 071E     		subs	r7, r0, #0
 695 004a F3DB     		blt	.L39
 125:App/Src/devices.c ****             messageEnd = strSearch(str, "\n") - num - g_lengthTestWord[i];
 696              		.loc 1 125 13 is_stmt 1 view .LVU173
 125:App/Src/devices.c ****             messageEnd = strSearch(str, "\n") - num - g_lengthTestWord[i];
 697              		.loc 1 125 33 is_stmt 0 view .LVU174
ARM GAS  C:\Users\86158\AppData\Local\Temp\ccAoFQ4P.s 			page 17


 698 004c 04EB8402 		add	r2, r4, r4, lsl #2
 699 0050 2549     		ldr	r1, .L47+4
 700 0052 01EB8208 		add	r8, r1, r2, lsl #2
 125:App/Src/devices.c ****             messageEnd = strSearch(str, "\n") - num - g_lengthTestWord[i];
 701              		.loc 1 125 13 view .LVU175
 702 0056 0023     		movs	r3, #0
 703 0058 41F82230 		str	r3, [r1, r2, lsl #2]	@ unaligned
 704 005c C8F80430 		str	r3, [r8, #4]	@ unaligned
 705 0060 C8F80830 		str	r3, [r8, #8]	@ unaligned
 706 0064 C8F80C30 		str	r3, [r8, #12]	@ unaligned
 707 0068 C8F81030 		str	r3, [r8, #16]	@ unaligned
 126:App/Src/devices.c ****             if (messageEnd > 19) {
 708              		.loc 1 126 13 is_stmt 1 view .LVU176
 126:App/Src/devices.c ****             if (messageEnd > 19) {
 709              		.loc 1 126 26 is_stmt 0 view .LVU177
 710 006c 2049     		ldr	r1, .L47+12
 711 006e 2846     		mov	r0, r5
 712              	.LVL66:
 126:App/Src/devices.c ****             if (messageEnd > 19) {
 713              		.loc 1 126 26 view .LVU178
 714 0070 FFF7FEFF 		bl	strSearch
 715              	.LVL67:
 126:App/Src/devices.c ****             if (messageEnd > 19) {
 716              		.loc 1 126 47 view .LVU179
 717 0074 C21B     		subs	r2, r0, r7
 126:App/Src/devices.c ****             if (messageEnd > 19) {
 718              		.loc 1 126 71 view .LVU180
 719 0076 1F4B     		ldr	r3, .L47+16
 720 0078 185D     		ldrb	r0, [r3, r4]	@ zero_extendqisi2
 126:App/Src/devices.c ****             if (messageEnd > 19) {
 721              		.loc 1 126 24 view .LVU181
 722 007a 121A     		subs	r2, r2, r0
 723              	.LVL68:
 127:App/Src/devices.c ****                 messageEnd = 19;
 724              		.loc 1 127 13 is_stmt 1 view .LVU182
 127:App/Src/devices.c ****                 messageEnd = 19;
 725              		.loc 1 127 16 is_stmt 0 view .LVU183
 726 007c 132A     		cmp	r2, #19
 727 007e CDDD     		ble	.L40
 128:App/Src/devices.c ****             }
 728              		.loc 1 128 28 view .LVU184
 729 0080 1322     		movs	r2, #19
 730              	.LVL69:
 128:App/Src/devices.c ****             }
 731              		.loc 1 128 28 view .LVU185
 732 0082 CBE7     		b	.L40
 733              	.LVL70:
 734              	.L45:
 132:App/Src/devices.c ****         }
 133:App/Src/devices.c ****     }
 134:App/Src/devices.c ****     num = strSearch(str, "connect OK");
 735              		.loc 1 134 5 is_stmt 1 view .LVU186
 736              		.loc 1 134 11 is_stmt 0 view .LVU187
 737 0084 1C49     		ldr	r1, .L47+20
 738 0086 2846     		mov	r0, r5
 739 0088 FFF7FEFF 		bl	strSearch
 740              	.LVL71:
ARM GAS  C:\Users\86158\AppData\Local\Temp\ccAoFQ4P.s 			page 18


 135:App/Src/devices.c ****     if (num >= 0) {
 741              		.loc 1 135 5 is_stmt 1 view .LVU188
 742              		.loc 1 135 8 is_stmt 0 view .LVU189
 743 008c 0028     		cmp	r0, #0
 744 008e 02DA     		bge	.L46
 745              	.LVL72:
 746              	.L37:
 136:App/Src/devices.c ****         g_deviceMessage[channel].board = channel;
 137:App/Src/devices.c ****         num = strSearch(str, "temp:");
 138:App/Src/devices.c ****         CharToFloat(str, num + 5, &sysTemp);
 139:App/Src/devices.c ****         g_deviceMessage[channel].systemTemp = sysTemp;
 140:App/Src/devices.c ****         memset(g_deviceMessage[channel].state, 0, 20);
 141:App/Src/devices.c ****         strcpy(g_deviceMessage[channel].state, "已连接");
 142:App/Src/devices.c ****     }
 143:App/Src/devices.c **** 
 144:App/Src/devices.c **** }
 747              		.loc 1 144 1 view .LVU190
 748 0090 02B0     		add	sp, sp, #8
 749              	.LCFI8:
 750              		.cfi_remember_state
 751              		.cfi_def_cfa_offset 24
 752              		@ sp needed
 753 0092 BDE8F081 		pop	{r4, r5, r6, r7, r8, pc}
 754              	.LVL73:
 755              	.L46:
 756              	.LCFI9:
 757              		.cfi_restore_state
 136:App/Src/devices.c ****         g_deviceMessage[channel].board = channel;
 758              		.loc 1 136 9 is_stmt 1 view .LVU191
 136:App/Src/devices.c ****         g_deviceMessage[channel].board = channel;
 759              		.loc 1 136 40 is_stmt 0 view .LVU192
 760 0096 194F     		ldr	r7, .L47+24
 761 0098 F400     		lsls	r4, r6, #3
 762              	.LVL74:
 136:App/Src/devices.c ****         g_deviceMessage[channel].board = channel;
 763              		.loc 1 136 40 view .LVU193
 764 009a C6EBC603 		rsb	r3, r6, r6, lsl #3
 765 009e 07EBC308 		add	r8, r7, r3, lsl #3
 766 00a2 07F83360 		strb	r6, [r7, r3, lsl #3]
 137:App/Src/devices.c ****         CharToFloat(str, num + 5, &sysTemp);
 767              		.loc 1 137 9 is_stmt 1 view .LVU194
 137:App/Src/devices.c ****         CharToFloat(str, num + 5, &sysTemp);
 768              		.loc 1 137 15 is_stmt 0 view .LVU195
 769 00a6 1649     		ldr	r1, .L47+28
 770 00a8 2846     		mov	r0, r5
 771              	.LVL75:
 137:App/Src/devices.c ****         CharToFloat(str, num + 5, &sysTemp);
 772              		.loc 1 137 15 view .LVU196
 773 00aa FFF7FEFF 		bl	strSearch
 774              	.LVL76:
 138:App/Src/devices.c ****         g_deviceMessage[channel].systemTemp = sysTemp;
 775              		.loc 1 138 9 is_stmt 1 view .LVU197
 776 00ae 411D     		adds	r1, r0, #5
 777 00b0 01AA     		add	r2, sp, #4
 778 00b2 C9B2     		uxtb	r1, r1
 779 00b4 2846     		mov	r0, r5
 780              	.LVL77:
ARM GAS  C:\Users\86158\AppData\Local\Temp\ccAoFQ4P.s 			page 19


 138:App/Src/devices.c ****         g_deviceMessage[channel].systemTemp = sysTemp;
 781              		.loc 1 138 9 is_stmt 0 view .LVU198
 782 00b6 FFF7FEFF 		bl	CharToFloat
 783              	.LVL78:
 139:App/Src/devices.c ****         memset(g_deviceMessage[channel].state, 0, 20);
 784              		.loc 1 139 9 is_stmt 1 view .LVU199
 139:App/Src/devices.c ****         memset(g_deviceMessage[channel].state, 0, 20);
 785              		.loc 1 139 45 is_stmt 0 view .LVU200
 786 00ba 019B     		ldr	r3, [sp, #4]	@ float
 787 00bc C8F80430 		str	r3, [r8, #4]	@ float
 140:App/Src/devices.c ****         strcpy(g_deviceMessage[channel].state, "已连接");
 788              		.loc 1 140 9 is_stmt 1 view .LVU201
 140:App/Src/devices.c ****         strcpy(g_deviceMessage[channel].state, "已连接");
 789              		.loc 1 140 40 is_stmt 0 view .LVU202
 790 00c0 A31B     		subs	r3, r4, r6
 791 00c2 DB00     		lsls	r3, r3, #3
 792 00c4 1033     		adds	r3, r3, #16
 793 00c6 DA19     		adds	r2, r3, r7
 140:App/Src/devices.c ****         strcpy(g_deviceMessage[channel].state, "已连接");
 794              		.loc 1 140 9 view .LVU203
 795 00c8 0021     		movs	r1, #0
 796 00ca D951     		str	r1, [r3, r7]	@ unaligned
 797 00cc 5160     		str	r1, [r2, #4]	@ unaligned
 798 00ce 9160     		str	r1, [r2, #8]	@ unaligned
 799 00d0 D160     		str	r1, [r2, #12]	@ unaligned
 800 00d2 1161     		str	r1, [r2, #16]	@ unaligned
 141:App/Src/devices.c ****     }
 801              		.loc 1 141 9 is_stmt 1 view .LVU204
 802 00d4 0B49     		ldr	r1, .L47+32
 803 00d6 0868     		ldr	r0, [r1]
 804 00d8 D851     		str	r0, [r3, r7]	@ unaligned
 805 00da 8888     		ldrh	r0, [r1, #4]	@ unaligned
 806 00dc 8B79     		ldrb	r3, [r1, #6]	@ zero_extendqisi2
 807 00de 9080     		strh	r0, [r2, #4]	@ unaligned
 808 00e0 9371     		strb	r3, [r2, #6]
 809              		.loc 1 144 1 is_stmt 0 view .LVU205
 810 00e2 D5E7     		b	.L37
 811              	.L48:
 812              		.align	2
 813              	.L47:
 814 00e4 00000000 		.word	.LANCHOR5
 815 00e8 00000000 		.word	g_testMessage
 816 00ec 00000000 		.word	.LANCHOR2
 817 00f0 34000000 		.word	.LC6
 818 00f4 00000000 		.word	.LANCHOR3
 819 00f8 00000000 		.word	.LC2
 820 00fc 00000000 		.word	g_deviceMessage
 821 0100 0C000000 		.word	.LC3
 822 0104 00000000 		.word	.LC0
 823              		.cfi_endproc
 824              	.LFE246:
 826              		.section	.text.CheckDeviceList,"ax",%progbits
 827              		.align	1
 828              		.global	CheckDeviceList
 829              		.syntax unified
 830              		.thumb
 831              		.thumb_func
ARM GAS  C:\Users\86158\AppData\Local\Temp\ccAoFQ4P.s 			page 20


 833              	CheckDeviceList:
 834              	.LFB247:
 145:App/Src/devices.c **** 
 146:App/Src/devices.c **** void CheckDeviceList(void)
 147:App/Src/devices.c **** {
 835              		.loc 1 147 1 is_stmt 1 view -0
 836              		.cfi_startproc
 837              		@ args = 0, pretend = 0, frame = 0
 838              		@ frame_needed = 0, uses_anonymous_args = 0
 839 0000 70B5     		push	{r4, r5, r6, lr}
 840              	.LCFI10:
 841              		.cfi_def_cfa_offset 16
 842              		.cfi_offset 4, -16
 843              		.cfi_offset 5, -12
 844              		.cfi_offset 6, -8
 845              		.cfi_offset 14, -4
 148:App/Src/devices.c ****     static uint16_t count[MAX_DEVICES_CHANNEL] = {0};
 846              		.loc 1 148 5 view .LVU207
 149:App/Src/devices.c ****     static uint16_t lastLength[MAX_DEVICES_CHANNEL] = {0};
 847              		.loc 1 149 5 view .LVU208
 150:App/Src/devices.c ****     int i;
 848              		.loc 1 150 5 view .LVU209
 151:App/Src/devices.c ****     for (i = 0; i < MAX_DEVICES_CHANNEL; i++) {
 849              		.loc 1 151 5 view .LVU210
 850              	.LVL79:
 851              		.loc 1 151 12 is_stmt 0 view .LVU211
 852 0002 0024     		movs	r4, #0
 853              		.loc 1 151 5 view .LVU212
 854 0004 2BE0     		b	.L50
 855              	.LVL80:
 856              	.L52:
 152:App/Src/devices.c ****         if (uart_dev[i].rx_length == 0) {
 153:App/Src/devices.c ****             continue;
 154:App/Src/devices.c ****         }
 155:App/Src/devices.c ****         if (uart_dev[i].rx_length > lastLength[i]) {
 156:App/Src/devices.c ****             lastLength[i] = uart_dev[i].rx_length;
 157:App/Src/devices.c ****             count[i] = 0;
 158:App/Src/devices.c ****         } else {
 159:App/Src/devices.c ****             count[i]++;
 857              		.loc 1 159 13 is_stmt 1 view .LVU213
 858              		.loc 1 159 18 is_stmt 0 view .LVU214
 859 0006 2E4A     		ldr	r2, .L61
 860 0008 32F81430 		ldrh	r3, [r2, r4, lsl #1]
 861              		.loc 1 159 21 view .LVU215
 862 000c 0133     		adds	r3, r3, #1
 863 000e 22F81430 		strh	r3, [r2, r4, lsl #1]	@ movhi
 864 0012 3AE0     		b	.L53
 865              	.L54:
 160:App/Src/devices.c ****         }
 161:App/Src/devices.c ****         if (count[i] >= SOFT_UART_TICK_CLEAR || uart_dev[i].rx_flag == 1) {
 162:App/Src/devices.c ****             if (i == 1) {
 866              		.loc 1 162 13 is_stmt 1 view .LVU216
 867              		.loc 1 162 16 is_stmt 0 view .LVU217
 868 0014 012C     		cmp	r4, #1
 869 0016 46D0     		beq	.L59
 163:App/Src/devices.c ****                 TestMessageHandle(i, (char*)uart_dev[i].rx_buffer);
 164:App/Src/devices.c ****             } else {
ARM GAS  C:\Users\86158\AppData\Local\Temp\ccAoFQ4P.s 			page 21


 165:App/Src/devices.c ****                 DeviceMessageHandle(i, (char*)uart_dev[i].rx_buffer);//根据不同的场景处理设备消息的
 870              		.loc 1 165 17 is_stmt 1 view .LVU218
 871              		.loc 1 165 47 is_stmt 0 view .LVU219
 872 0018 04EB4413 		add	r3, r4, r4, lsl #5
 873 001c D900     		lsls	r1, r3, #3
 874 001e 8031     		adds	r1, r1, #128
 875 0020 284B     		ldr	r3, .L61+4
 876 0022 1944     		add	r1, r1, r3
 877              		.loc 1 165 17 view .LVU220
 878 0024 0731     		adds	r1, r1, #7
 879 0026 E0B2     		uxtb	r0, r4
 880 0028 FFF7FEFF 		bl	DeviceMessageHandle
 881              	.LVL81:
 882              	.L56:
 166:App/Src/devices.c ****             }
 167:App/Src/devices.c ****             memset(uart_dev[i].rx_buffer, 0, SOFT_UART_RECEICE_LONG);
 883              		.loc 1 167 13 is_stmt 1 view .LVU221
 884              		.loc 1 167 31 is_stmt 0 view .LVU222
 885 002c 6501     		lsls	r5, r4, #5
 886 002e 04EB4413 		add	r3, r4, r4, lsl #5
 887 0032 D800     		lsls	r0, r3, #3
 888 0034 8030     		adds	r0, r0, #128
 889 0036 234E     		ldr	r6, .L61+4
 890 0038 3044     		add	r0, r0, r6
 891              		.loc 1 167 13 view .LVU223
 892 003a 8022     		movs	r2, #128
 893 003c 0021     		movs	r1, #0
 894 003e 0730     		adds	r0, r0, #7
 895 0040 FFF7FEFF 		bl	memset
 896              	.LVL82:
 168:App/Src/devices.c ****             uart_dev[i].rx_length = 0;
 897              		.loc 1 168 13 is_stmt 1 view .LVU224
 898              		.loc 1 168 35 is_stmt 0 view .LVU225
 899 0044 2B19     		adds	r3, r5, r4
 900 0046 DA00     		lsls	r2, r3, #3
 901 0048 1644     		add	r6, r6, r2
 902 004a 0023     		movs	r3, #0
 903 004c B380     		strh	r3, [r6, #4]	@ movhi
 169:App/Src/devices.c ****             uart_dev[i].rx_flag = 0;
 904              		.loc 1 169 13 is_stmt 1 view .LVU226
 905              		.loc 1 169 33 is_stmt 0 view .LVU227
 906 004e B371     		strb	r3, [r6, #6]
 170:App/Src/devices.c ****             count[i] = 0;
 907              		.loc 1 170 13 is_stmt 1 view .LVU228
 908              		.loc 1 170 22 is_stmt 0 view .LVU229
 909 0050 1B4A     		ldr	r2, .L61
 910 0052 22F81430 		strh	r3, [r2, r4, lsl #1]	@ movhi
 171:App/Src/devices.c ****             lastLength[i] = 0;
 911              		.loc 1 171 13 is_stmt 1 view .LVU230
 912              		.loc 1 171 27 is_stmt 0 view .LVU231
 913 0056 1C4A     		ldr	r2, .L61+8
 914 0058 22F81430 		strh	r3, [r2, r4, lsl #1]	@ movhi
 915              	.L51:
 151:App/Src/devices.c ****         if (uart_dev[i].rx_length == 0) {
 916              		.loc 1 151 42 is_stmt 1 discriminator 2 view .LVU232
 151:App/Src/devices.c ****         if (uart_dev[i].rx_length == 0) {
 917              		.loc 1 151 43 is_stmt 0 discriminator 2 view .LVU233
ARM GAS  C:\Users\86158\AppData\Local\Temp\ccAoFQ4P.s 			page 22


 918 005c 0134     		adds	r4, r4, #1
 919              	.LVL83:
 920              	.L50:
 151:App/Src/devices.c ****         if (uart_dev[i].rx_length == 0) {
 921              		.loc 1 151 17 is_stmt 1 discriminator 1 view .LVU234
 151:App/Src/devices.c ****         if (uart_dev[i].rx_length == 0) {
 922              		.loc 1 151 5 is_stmt 0 discriminator 1 view .LVU235
 923 005e 092C     		cmp	r4, #9
 924 0060 2CDC     		bgt	.L60
 152:App/Src/devices.c ****             continue;
 925              		.loc 1 152 9 is_stmt 1 view .LVU236
 152:App/Src/devices.c ****             continue;
 926              		.loc 1 152 24 is_stmt 0 view .LVU237
 927 0062 04EB4413 		add	r3, r4, r4, lsl #5
 928 0066 DA00     		lsls	r2, r3, #3
 929 0068 164B     		ldr	r3, .L61+4
 930 006a 1344     		add	r3, r3, r2
 931 006c 9B88     		ldrh	r3, [r3, #4]
 152:App/Src/devices.c ****             continue;
 932              		.loc 1 152 12 view .LVU238
 933 006e 002B     		cmp	r3, #0
 934 0070 F4D0     		beq	.L51
 155:App/Src/devices.c ****             lastLength[i] = uart_dev[i].rx_length;
 935              		.loc 1 155 9 is_stmt 1 view .LVU239
 155:App/Src/devices.c ****             lastLength[i] = uart_dev[i].rx_length;
 936              		.loc 1 155 47 is_stmt 0 view .LVU240
 937 0072 154A     		ldr	r2, .L61+8
 938 0074 32F81420 		ldrh	r2, [r2, r4, lsl #1]
 155:App/Src/devices.c ****             lastLength[i] = uart_dev[i].rx_length;
 939              		.loc 1 155 12 view .LVU241
 940 0078 9342     		cmp	r3, r2
 941 007a C4D9     		bls	.L52
 156:App/Src/devices.c ****             count[i] = 0;
 942              		.loc 1 156 13 is_stmt 1 view .LVU242
 156:App/Src/devices.c ****             count[i] = 0;
 943              		.loc 1 156 27 is_stmt 0 view .LVU243
 944 007c 124A     		ldr	r2, .L61+8
 945 007e 22F81430 		strh	r3, [r2, r4, lsl #1]	@ movhi
 157:App/Src/devices.c ****         } else {
 946              		.loc 1 157 13 is_stmt 1 view .LVU244
 157:App/Src/devices.c ****         } else {
 947              		.loc 1 157 22 is_stmt 0 view .LVU245
 948 0082 0F4B     		ldr	r3, .L61
 949 0084 0022     		movs	r2, #0
 950 0086 23F81420 		strh	r2, [r3, r4, lsl #1]	@ movhi
 951              	.L53:
 161:App/Src/devices.c ****             if (i == 1) {
 952              		.loc 1 161 9 is_stmt 1 view .LVU246
 161:App/Src/devices.c ****             if (i == 1) {
 953              		.loc 1 161 18 is_stmt 0 view .LVU247
 954 008a 0D4B     		ldr	r3, .L61
 955 008c 33F81430 		ldrh	r3, [r3, r4, lsl #1]
 161:App/Src/devices.c ****             if (i == 1) {
 956              		.loc 1 161 12 view .LVU248
 957 0090 092B     		cmp	r3, #9
 958 0092 BFD8     		bhi	.L54
 161:App/Src/devices.c ****             if (i == 1) {
ARM GAS  C:\Users\86158\AppData\Local\Temp\ccAoFQ4P.s 			page 23


 959              		.loc 1 161 60 discriminator 1 view .LVU249
 960 0094 04EB4413 		add	r3, r4, r4, lsl #5
 961 0098 DA00     		lsls	r2, r3, #3
 962 009a 0A4B     		ldr	r3, .L61+4
 963 009c 1344     		add	r3, r3, r2
 964 009e 9B79     		ldrb	r3, [r3, #6]	@ zero_extendqisi2
 161:App/Src/devices.c ****             if (i == 1) {
 965              		.loc 1 161 46 discriminator 1 view .LVU250
 966 00a0 012B     		cmp	r3, #1
 967 00a2 DBD1     		bne	.L51
 968 00a4 B6E7     		b	.L54
 969              	.L59:
 163:App/Src/devices.c ****             } else {
 970              		.loc 1 163 17 is_stmt 1 view .LVU251
 163:App/Src/devices.c ****             } else {
 971              		.loc 1 163 45 is_stmt 0 view .LVU252
 972 00a6 04EB4413 		add	r3, r4, r4, lsl #5
 973 00aa D900     		lsls	r1, r3, #3
 974 00ac 8031     		adds	r1, r1, #128
 975 00ae 054B     		ldr	r3, .L61+4
 976 00b0 1944     		add	r1, r1, r3
 163:App/Src/devices.c ****             } else {
 977              		.loc 1 163 17 view .LVU253
 978 00b2 0731     		adds	r1, r1, #7
 979 00b4 E0B2     		uxtb	r0, r4
 980 00b6 FFF7FEFF 		bl	TestMessageHandle
 981              	.LVL84:
 982 00ba B7E7     		b	.L56
 983              	.L60:
 172:App/Src/devices.c ****         }
 173:App/Src/devices.c ****     }
 174:App/Src/devices.c **** }
 984              		.loc 1 174 1 view .LVU254
 985 00bc 70BD     		pop	{r4, r5, r6, pc}
 986              	.LVL85:
 987              	.L62:
 988              		.loc 1 174 1 view .LVU255
 989 00be 00BF     		.align	2
 990              	.L61:
 991 00c0 00000000 		.word	.LANCHOR7
 992 00c4 00000000 		.word	uart_dev
 993 00c8 00000000 		.word	.LANCHOR6
 994              		.cfi_endproc
 995              	.LFE247:
 997              		.section	.rodata.CheckDeviceTime.str1.4,"aMS",%progbits,1
 998              		.align	2
 999              	.LC7:
 1000 0000 CDA8B5C0 		.ascii	"\315\250\265\300[%d]\267\242\306\360\315\254\262\275"
 1000      5B25645D 
 1000      B7A2C6F0 
 1000      CDACB2BD 
 1001 0010 CAB1BCE4 		.ascii	"\312\261\274\344\012\000"
 1001      0A00
 1002 0016 0000     		.align	2
 1003              	.LC8:
 1004 0018 41545E52 		.ascii	"AT^REALTIME=year:%d,mon:%d,day:%d,hour:%d,min:%d,se"
 1004      45414C54 
ARM GAS  C:\Users\86158\AppData\Local\Temp\ccAoFQ4P.s 			page 24


 1004      494D453D 
 1004      79656172 
 1004      3A25642C 
 1005 004b 633A2564 		.ascii	"c:%d\012\000"
 1005      0A00
 1006              		.section	.text.CheckDeviceTime,"ax",%progbits
 1007              		.align	1
 1008              		.global	CheckDeviceTime
 1009              		.syntax unified
 1010              		.thumb
 1011              		.thumb_func
 1013              	CheckDeviceTime:
 1014              	.LFB248:
 175:App/Src/devices.c **** 
 176:App/Src/devices.c **** void CheckDeviceTime(void)
 177:App/Src/devices.c **** {
 1015              		.loc 1 177 1 is_stmt 1 view -0
 1016              		.cfi_startproc
 1017              		@ args = 0, pretend = 0, frame = 0
 1018              		@ frame_needed = 0, uses_anonymous_args = 0
 1019 0000 70B5     		push	{r4, r5, r6, lr}
 1020              	.LCFI11:
 1021              		.cfi_def_cfa_offset 16
 1022              		.cfi_offset 4, -16
 1023              		.cfi_offset 5, -12
 1024              		.cfi_offset 6, -8
 1025              		.cfi_offset 14, -4
 1026 0002 84B0     		sub	sp, sp, #16
 1027              	.LCFI12:
 1028              		.cfi_def_cfa_offset 32
 178:App/Src/devices.c ****     static uint8_t state[MAX_DEVICES_CHANNEL] = {0};
 1029              		.loc 1 178 5 view .LVU257
 179:App/Src/devices.c ****     static uint32_t lastTick[MAX_DEVICES_CHANNEL] = {0};
 1030              		.loc 1 179 5 view .LVU258
 180:App/Src/devices.c ****     int i;
 1031              		.loc 1 180 5 view .LVU259
 181:App/Src/devices.c ****     
 182:App/Src/devices.c ****     for (i = 0; i < MAX_DEVICES_CHANNEL; i++) {
 1032              		.loc 1 182 5 view .LVU260
 1033              	.LVL86:
 1034              		.loc 1 182 12 is_stmt 0 view .LVU261
 1035 0004 0024     		movs	r4, #0
 1036              		.loc 1 182 5 view .LVU262
 1037 0006 1FE0     		b	.L64
 1038              	.LVL87:
 1039              	.L66:
 183:App/Src/devices.c ****         if (strSearch(g_deviceMessage[i].state, "已连接") >= 0) {
 184:App/Src/devices.c ****             if (state[i] == 0 || (HAL_GetTick() >= lastTick[i] + 600000)) {//刚刚连接上和每10分钟发
 185:App/Src/devices.c ****                 UsbPrintf("通道[%d]发起同步时间\n", i);
 1040              		.loc 1 185 17 is_stmt 1 view .LVU263
 1041 0008 2146     		mov	r1, r4
 1042 000a 2148     		ldr	r0, .L71
 1043 000c FFF7FEFF 		bl	UsbPrintf
 1044              	.LVL88:
 186:App/Src/devices.c ****                 lastTick[i] = HAL_GetTick();
 1045              		.loc 1 186 17 view .LVU264
 1046              		.loc 1 186 31 is_stmt 0 view .LVU265
ARM GAS  C:\Users\86158\AppData\Local\Temp\ccAoFQ4P.s 			page 25


 1047 0010 FFF7FEFF 		bl	HAL_GetTick
 1048              	.LVL89:
 1049              		.loc 1 186 29 view .LVU266
 1050 0014 1F4B     		ldr	r3, .L71+4
 1051 0016 43F82400 		str	r0, [r3, r4, lsl #2]
 187:App/Src/devices.c ****                 state[i] = 1;
 1052              		.loc 1 187 17 is_stmt 1 view .LVU267
 1053              		.loc 1 187 26 is_stmt 0 view .LVU268
 1054 001a 1F4B     		ldr	r3, .L71+8
 1055 001c 0122     		movs	r2, #1
 1056 001e 1A55     		strb	r2, [r3, r4]
 188:App/Src/devices.c ****                 devices_printf(&uart_dev[i], "AT^REALTIME=year:%d,mon:%d,day:%d,hour:%d,min:%d,sec:
 1057              		.loc 1 188 17 is_stmt 1 view .LVU269
 189:App/Src/devices.c ****                     g_systemTime.year, g_systemTime.mon, g_systemTime.day, g_systemTime.hour, g_sys
 1058              		.loc 1 189 33 is_stmt 0 view .LVU270
 1059 0020 1E4A     		ldr	r2, .L71+12
 1060              		.loc 1 189 70 view .LVU271
 1061 0022 9378     		ldrb	r3, [r2, #2]	@ zero_extendqisi2
 1062              		.loc 1 189 88 view .LVU272
 1063 0024 D178     		ldrb	r1, [r2, #3]	@ zero_extendqisi2
 1064              		.loc 1 189 107 view .LVU273
 1065 0026 1579     		ldrb	r5, [r2, #4]	@ zero_extendqisi2
 1066              		.loc 1 189 125 view .LVU274
 1067 0028 5679     		ldrb	r6, [r2, #5]	@ zero_extendqisi2
 188:App/Src/devices.c ****                 devices_printf(&uart_dev[i], "AT^REALTIME=year:%d,mon:%d,day:%d,hour:%d,min:%d,sec:
 1068              		.loc 1 188 17 view .LVU275
 1069 002a 04EB4410 		add	r0, r4, r4, lsl #5
 1070 002e 0396     		str	r6, [sp, #12]
 1071 0030 0295     		str	r5, [sp, #8]
 1072 0032 0191     		str	r1, [sp, #4]
 1073 0034 0093     		str	r3, [sp]
 1074 0036 5378     		ldrb	r3, [r2, #1]	@ zero_extendqisi2
 1075 0038 1278     		ldrb	r2, [r2]	@ zero_extendqisi2
 1076 003a 1949     		ldr	r1, .L71+16
 1077 003c 194D     		ldr	r5, .L71+20
 1078 003e 05EBC000 		add	r0, r5, r0, lsl #3
 1079 0042 FFF7FEFF 		bl	devices_printf
 1080              	.LVL90:
 1081              	.L67:
 182:App/Src/devices.c ****         if (strSearch(g_deviceMessage[i].state, "已连接") >= 0) {
 1082              		.loc 1 182 42 is_stmt 1 discriminator 2 view .LVU276
 182:App/Src/devices.c ****         if (strSearch(g_deviceMessage[i].state, "已连接") >= 0) {
 1083              		.loc 1 182 43 is_stmt 0 discriminator 2 view .LVU277
 1084 0046 0134     		adds	r4, r4, #1
 1085              	.LVL91:
 1086              	.L64:
 182:App/Src/devices.c ****         if (strSearch(g_deviceMessage[i].state, "已连接") >= 0) {
 1087              		.loc 1 182 17 is_stmt 1 discriminator 1 view .LVU278
 182:App/Src/devices.c ****         if (strSearch(g_deviceMessage[i].state, "已连接") >= 0) {
 1088              		.loc 1 182 5 is_stmt 0 discriminator 1 view .LVU279
 1089 0048 092C     		cmp	r4, #9
 1090 004a 1EDC     		bgt	.L70
 183:App/Src/devices.c ****             if (state[i] == 0 || (HAL_GetTick() >= lastTick[i] + 600000)) {//刚刚连接上和每10分钟发
 1091              		.loc 1 183 9 is_stmt 1 view .LVU280
 183:App/Src/devices.c ****             if (state[i] == 0 || (HAL_GetTick() >= lastTick[i] + 600000)) {//刚刚连接上和每10分钟发
 1092              		.loc 1 183 41 is_stmt 0 view .LVU281
 1093 004c C4EBC403 		rsb	r3, r4, r4, lsl #3
ARM GAS  C:\Users\86158\AppData\Local\Temp\ccAoFQ4P.s 			page 26


 1094 0050 DB00     		lsls	r3, r3, #3
 1095 0052 1033     		adds	r3, r3, #16
 183:App/Src/devices.c ****             if (state[i] == 0 || (HAL_GetTick() >= lastTick[i] + 600000)) {//刚刚连接上和每10分钟发
 1096              		.loc 1 183 13 view .LVU282
 1097 0054 1449     		ldr	r1, .L71+24
 1098 0056 1548     		ldr	r0, .L71+28
 1099 0058 1844     		add	r0, r0, r3
 1100 005a FFF7FEFF 		bl	strSearch
 1101              	.LVL92:
 183:App/Src/devices.c ****             if (state[i] == 0 || (HAL_GetTick() >= lastTick[i] + 600000)) {//刚刚连接上和每10分钟发
 1102              		.loc 1 183 12 view .LVU283
 1103 005e 0028     		cmp	r0, #0
 1104 0060 0FDB     		blt	.L65
 184:App/Src/devices.c ****                 UsbPrintf("通道[%d]发起同步时间\n", i);
 1105              		.loc 1 184 13 is_stmt 1 view .LVU284
 184:App/Src/devices.c ****                 UsbPrintf("通道[%d]发起同步时间\n", i);
 1106              		.loc 1 184 22 is_stmt 0 view .LVU285
 1107 0062 0D4B     		ldr	r3, .L71+8
 1108 0064 1B5D     		ldrb	r3, [r3, r4]	@ zero_extendqisi2
 184:App/Src/devices.c ****                 UsbPrintf("通道[%d]发起同步时间\n", i);
 1109              		.loc 1 184 16 view .LVU286
 1110 0066 002B     		cmp	r3, #0
 1111 0068 CED0     		beq	.L66
 184:App/Src/devices.c ****                 UsbPrintf("通道[%d]发起同步时间\n", i);
 1112              		.loc 1 184 35 discriminator 1 view .LVU287
 1113 006a FFF7FEFF 		bl	HAL_GetTick
 1114              	.LVL93:
 184:App/Src/devices.c ****                 UsbPrintf("通道[%d]发起同步时间\n", i);
 1115              		.loc 1 184 60 discriminator 1 view .LVU288
 1116 006e 094B     		ldr	r3, .L71+4
 1117 0070 53F82430 		ldr	r3, [r3, r4, lsl #2]
 184:App/Src/devices.c ****                 UsbPrintf("通道[%d]发起同步时间\n", i);
 1118              		.loc 1 184 64 discriminator 1 view .LVU289
 1119 0074 03F51223 		add	r3, r3, #598016
 1120 0078 03F5F863 		add	r3, r3, #1984
 184:App/Src/devices.c ****                 UsbPrintf("通道[%d]发起同步时间\n", i);
 1121              		.loc 1 184 31 discriminator 1 view .LVU290
 1122 007c 9842     		cmp	r0, r3
 1123 007e E2D3     		bcc	.L67
 1124 0080 C2E7     		b	.L66
 1125              	.L65:
 190:App/Src/devices.c ****             }
 191:App/Src/devices.c ****         } else {
 192:App/Src/devices.c ****             state[i] = 0;
 1126              		.loc 1 192 13 is_stmt 1 view .LVU291
 1127              		.loc 1 192 22 is_stmt 0 view .LVU292
 1128 0082 054B     		ldr	r3, .L71+8
 1129 0084 0022     		movs	r2, #0
 1130 0086 1A55     		strb	r2, [r3, r4]
 1131 0088 DDE7     		b	.L67
 1132              	.L70:
 193:App/Src/devices.c ****         }
 194:App/Src/devices.c ****     }
 195:App/Src/devices.c **** }
 1133              		.loc 1 195 1 view .LVU293
 1134 008a 04B0     		add	sp, sp, #16
 1135              	.LCFI13:
ARM GAS  C:\Users\86158\AppData\Local\Temp\ccAoFQ4P.s 			page 27


 1136              		.cfi_def_cfa_offset 16
 1137              		@ sp needed
 1138 008c 70BD     		pop	{r4, r5, r6, pc}
 1139              	.LVL94:
 1140              	.L72:
 1141              		.loc 1 195 1 view .LVU294
 1142 008e 00BF     		.align	2
 1143              	.L71:
 1144 0090 00000000 		.word	.LC7
 1145 0094 00000000 		.word	.LANCHOR9
 1146 0098 00000000 		.word	.LANCHOR8
 1147 009c 00000000 		.word	g_systemTime
 1148 00a0 18000000 		.word	.LC8
 1149 00a4 00000000 		.word	uart_dev
 1150 00a8 00000000 		.word	.LC0
 1151 00ac 00000000 		.word	g_deviceMessage
 1152              		.cfi_endproc
 1153              	.LFE248:
 1155              		.section	.rodata.CheckDeviceHeart.str1.4,"aMS",%progbits,1
 1156              		.align	2
 1157              	.LC9:
 1158 0000 63686563 		.ascii	"check %d disconnect\012\000"
 1158      6B202564 
 1158      20646973 
 1158      636F6E6E 
 1158      6563740A 
 1159 0015 000000   		.align	2
 1160              	.LC10:
 1161 0018 CEB4C1AC 		.ascii	"\316\264\301\254\275\323\000"
 1161      BDD300
 1162              		.section	.text.CheckDeviceHeart,"ax",%progbits
 1163              		.align	1
 1164              		.global	CheckDeviceHeart
 1165              		.syntax unified
 1166              		.thumb
 1167              		.thumb_func
 1169              	CheckDeviceHeart:
 1170              	.LFB249:
 196:App/Src/devices.c **** 
 197:App/Src/devices.c **** void  CheckDeviceHeart(void)
 198:App/Src/devices.c **** {
 1171              		.loc 1 198 1 is_stmt 1 view -0
 1172              		.cfi_startproc
 1173              		@ args = 0, pretend = 0, frame = 0
 1174              		@ frame_needed = 0, uses_anonymous_args = 0
 1175 0000 F8B5     		push	{r3, r4, r5, r6, r7, lr}
 1176              	.LCFI14:
 1177              		.cfi_def_cfa_offset 24
 1178              		.cfi_offset 3, -24
 1179              		.cfi_offset 4, -20
 1180              		.cfi_offset 5, -16
 1181              		.cfi_offset 6, -12
 1182              		.cfi_offset 7, -8
 1183              		.cfi_offset 14, -4
 199:App/Src/devices.c ****     int i;
 1184              		.loc 1 199 5 view .LVU296
 200:App/Src/devices.c ****     static uint32_t lastTick[MAX_DEVICES_CHANNEL] = {0};
ARM GAS  C:\Users\86158\AppData\Local\Temp\ccAoFQ4P.s 			page 28


 1185              		.loc 1 200 5 view .LVU297
 201:App/Src/devices.c **** 
 202:App/Src/devices.c ****     for (i = 0; i < MAX_DEVICES_CHANNEL; i++) {
 1186              		.loc 1 202 5 view .LVU298
 1187              	.LVL95:
 1188              		.loc 1 202 12 is_stmt 0 view .LVU299
 1189 0002 0024     		movs	r4, #0
 1190              		.loc 1 202 5 view .LVU300
 1191 0004 00E0     		b	.L74
 1192              	.LVL96:
 1193              	.L75:
 1194              		.loc 1 202 42 is_stmt 1 discriminator 2 view .LVU301
 1195              		.loc 1 202 43 is_stmt 0 discriminator 2 view .LVU302
 1196 0006 0134     		adds	r4, r4, #1
 1197              	.LVL97:
 1198              	.L74:
 1199              		.loc 1 202 17 is_stmt 1 discriminator 1 view .LVU303
 1200              		.loc 1 202 5 is_stmt 0 discriminator 1 view .LVU304
 1201 0008 092C     		cmp	r4, #9
 1202 000a 44DC     		bgt	.L78
 203:App/Src/devices.c ****         if (HAL_GetTick() < lastTick[i] + 4000) {
 1203              		.loc 1 203 9 is_stmt 1 view .LVU305
 1204              		.loc 1 203 13 is_stmt 0 view .LVU306
 1205 000c FFF7FEFF 		bl	HAL_GetTick
 1206              	.LVL98:
 1207              		.loc 1 203 37 view .LVU307
 1208 0010 214B     		ldr	r3, .L79
 1209 0012 53F82430 		ldr	r3, [r3, r4, lsl #2]
 1210              		.loc 1 203 41 view .LVU308
 1211 0016 03F57A63 		add	r3, r3, #4000
 1212              		.loc 1 203 12 view .LVU309
 1213 001a 9842     		cmp	r0, r3
 1214 001c F3D3     		bcc	.L75
 204:App/Src/devices.c ****             continue;
 205:App/Src/devices.c ****         }
 206:App/Src/devices.c ****         lastTick[i] = HAL_GetTick();
 1215              		.loc 1 206 9 is_stmt 1 view .LVU310
 1216              		.loc 1 206 23 is_stmt 0 view .LVU311
 1217 001e FFF7FEFF 		bl	HAL_GetTick
 1218              	.LVL99:
 1219              		.loc 1 206 21 view .LVU312
 1220 0022 1D4B     		ldr	r3, .L79
 1221 0024 43F82400 		str	r0, [r3, r4, lsl #2]
 207:App/Src/devices.c ****         if ((HAL_GetTick() > g_rxTick[i] + 5000)) {
 1222              		.loc 1 207 9 is_stmt 1 view .LVU313
 1223              		.loc 1 207 14 is_stmt 0 view .LVU314
 1224 0028 FFF7FEFF 		bl	HAL_GetTick
 1225              	.LVL100:
 1226              		.loc 1 207 38 view .LVU315
 1227 002c 1B4B     		ldr	r3, .L79+4
 1228 002e 53F82430 		ldr	r3, [r3, r4, lsl #2]
 1229              		.loc 1 207 42 view .LVU316
 1230 0032 03F59C53 		add	r3, r3, #4992
 1231 0036 0833     		adds	r3, r3, #8
 1232              		.loc 1 207 12 view .LVU317
 1233 0038 9842     		cmp	r0, r3
 1234 003a E4D9     		bls	.L75
ARM GAS  C:\Users\86158\AppData\Local\Temp\ccAoFQ4P.s 			page 29


 208:App/Src/devices.c ****             if (strSearch(g_deviceMessage[i].state, "已连接") >= 0) {
 1235              		.loc 1 208 13 is_stmt 1 view .LVU318
 1236              		.loc 1 208 45 is_stmt 0 view .LVU319
 1237 003c C4EBC405 		rsb	r5, r4, r4, lsl #3
 1238 0040 ED00     		lsls	r5, r5, #3
 1239 0042 1035     		adds	r5, r5, #16
 1240 0044 164F     		ldr	r7, .L79+8
 1241 0046 EE19     		adds	r6, r5, r7
 1242              		.loc 1 208 17 view .LVU320
 1243 0048 1649     		ldr	r1, .L79+12
 1244 004a 3046     		mov	r0, r6
 1245 004c FFF7FEFF 		bl	strSearch
 1246              	.LVL101:
 1247              		.loc 1 208 16 view .LVU321
 1248 0050 0028     		cmp	r0, #0
 1249 0052 D8DB     		blt	.L75
 209:App/Src/devices.c ****                 UsbPrintf("check %d disconnect\n", i);
 1250              		.loc 1 209 17 is_stmt 1 view .LVU322
 1251 0054 2146     		mov	r1, r4
 1252 0056 1448     		ldr	r0, .L79+16
 1253 0058 FFF7FEFF 		bl	UsbPrintf
 1254              	.LVL102:
 210:App/Src/devices.c ****                 memset(g_deviceMessage[i].state, 0, 20);
 1255              		.loc 1 210 17 view .LVU323
 1256 005c 0022     		movs	r2, #0
 1257 005e EA51     		str	r2, [r5, r7]	@ unaligned
 1258 0060 7260     		str	r2, [r6, #4]	@ unaligned
 1259 0062 B260     		str	r2, [r6, #8]	@ unaligned
 1260 0064 F260     		str	r2, [r6, #12]	@ unaligned
 1261 0066 3261     		str	r2, [r6, #16]	@ unaligned
 211:App/Src/devices.c ****                 strcpy(g_deviceMessage[i].state, "未连接");
 1262              		.loc 1 211 17 view .LVU324
 1263 0068 104B     		ldr	r3, .L79+20
 1264 006a 1868     		ldr	r0, [r3]
 1265 006c E851     		str	r0, [r5, r7]	@ unaligned
 1266 006e 9988     		ldrh	r1, [r3, #4]	@ unaligned
 1267 0070 9B79     		ldrb	r3, [r3, #6]	@ zero_extendqisi2
 1268 0072 B180     		strh	r1, [r6, #4]	@ unaligned
 1269 0074 B371     		strb	r3, [r6, #6]
 212:App/Src/devices.c ****                 memset(g_deviceMessage[i].message, 0, 20);
 1270              		.loc 1 212 17 view .LVU325
 1271              		.loc 1 212 42 is_stmt 0 view .LVU326
 1272 0076 C4EBC403 		rsb	r3, r4, r4, lsl #3
 1273 007a DB00     		lsls	r3, r3, #3
 1274 007c 2033     		adds	r3, r3, #32
 1275 007e 3B44     		add	r3, r3, r7
 1276              		.loc 1 212 17 view .LVU327
 1277 0080 5A60     		str	r2, [r3, #4]	@ unaligned
 1278 0082 9A60     		str	r2, [r3, #8]	@ unaligned
 1279 0084 DA60     		str	r2, [r3, #12]	@ unaligned
 1280 0086 1A61     		str	r2, [r3, #16]	@ unaligned
 1281 0088 5A61     		str	r2, [r3, #20]	@ unaligned
 213:App/Src/devices.c ****                 g_rxTick[i] = HAL_GetTick();
 1282              		.loc 1 213 17 is_stmt 1 view .LVU328
 1283              		.loc 1 213 31 is_stmt 0 view .LVU329
 1284 008a FFF7FEFF 		bl	HAL_GetTick
 1285              	.LVL103:
ARM GAS  C:\Users\86158\AppData\Local\Temp\ccAoFQ4P.s 			page 30


 1286              		.loc 1 213 29 view .LVU330
 1287 008e 034B     		ldr	r3, .L79+4
 1288 0090 43F82400 		str	r0, [r3, r4, lsl #2]
 1289 0094 B7E7     		b	.L75
 1290              	.L78:
 214:App/Src/devices.c ****             }
 215:App/Src/devices.c ****         }
 216:App/Src/devices.c ****         // devices_printf(&uart_dev[i], "AT^CONNECT?\n");
 217:App/Src/devices.c ****     }
 218:App/Src/devices.c **** } 
 1291              		.loc 1 218 1 view .LVU331
 1292 0096 F8BD     		pop	{r3, r4, r5, r6, r7, pc}
 1293              	.LVL104:
 1294              	.L80:
 1295              		.loc 1 218 1 view .LVU332
 1296              		.align	2
 1297              	.L79:
 1298 0098 00000000 		.word	.LANCHOR10
 1299 009c 00000000 		.word	.LANCHOR5
 1300 00a0 00000000 		.word	g_deviceMessage
 1301 00a4 00000000 		.word	.LC0
 1302 00a8 00000000 		.word	.LC9
 1303 00ac 18000000 		.word	.LC10
 1304              		.cfi_endproc
 1305              	.LFE249:
 1307              		.section	.text.StartDevicesTask,"ax",%progbits
 1308              		.align	1
 1309              		.global	StartDevicesTask
 1310              		.syntax unified
 1311              		.thumb
 1312              		.thumb_func
 1314              	StartDevicesTask:
 1315              	.LVL105:
 1316              	.LFB250:
 219:App/Src/devices.c **** 
 220:App/Src/devices.c **** void StartDevicesTask(void const * argument)
 221:App/Src/devices.c **** {
 1317              		.loc 1 221 1 is_stmt 1 view -0
 1318              		.cfi_startproc
 1319              		@ Volatile: function does not return.
 1320              		@ args = 0, pretend = 0, frame = 0
 1321              		@ frame_needed = 0, uses_anonymous_args = 0
 1322              		.loc 1 221 1 is_stmt 0 view .LVU334
 1323 0000 08B5     		push	{r3, lr}
 1324              	.LCFI15:
 1325              		.cfi_def_cfa_offset 8
 1326              		.cfi_offset 3, -8
 1327              		.cfi_offset 14, -4
 222:App/Src/devices.c ****     init_key_word_length();
 1328              		.loc 1 222 5 is_stmt 1 view .LVU335
 1329 0002 FFF7FEFF 		bl	init_key_word_length
 1330              	.LVL106:
 1331              	.L82:
 223:App/Src/devices.c ****     while (1) {
 1332              		.loc 1 223 5 discriminator 1 view .LVU336
 224:App/Src/devices.c ****         osDelay(4);
 1333              		.loc 1 224 9 discriminator 1 view .LVU337
ARM GAS  C:\Users\86158\AppData\Local\Temp\ccAoFQ4P.s 			page 31


 1334 0006 0420     		movs	r0, #4
 1335 0008 FFF7FEFF 		bl	osDelay
 1336              	.LVL107:
 225:App/Src/devices.c ****         // LedDeviceTest();
 226:App/Src/devices.c ****         CheckDeviceList();
 1337              		.loc 1 226 9 discriminator 1 view .LVU338
 1338 000c FFF7FEFF 		bl	CheckDeviceList
 1339              	.LVL108:
 227:App/Src/devices.c ****         CheckDeviceHeart();
 1340              		.loc 1 227 9 discriminator 1 view .LVU339
 1341 0010 FFF7FEFF 		bl	CheckDeviceHeart
 1342              	.LVL109:
 228:App/Src/devices.c ****         osDelay(1);
 1343              		.loc 1 228 9 discriminator 1 view .LVU340
 1344 0014 0120     		movs	r0, #1
 1345 0016 FFF7FEFF 		bl	osDelay
 1346              	.LVL110:
 229:App/Src/devices.c ****         CheckDeviceTime();
 1347              		.loc 1 229 9 discriminator 1 view .LVU341
 1348 001a FFF7FEFF 		bl	CheckDeviceTime
 1349              	.LVL111:
 223:App/Src/devices.c ****         osDelay(4);
 1350              		.loc 1 223 11 discriminator 1 view .LVU342
 1351 001e F2E7     		b	.L82
 1352              		.cfi_endproc
 1353              	.LFE250:
 1355              		.global	g_lengthTestWord
 1356              		.global	DeviceTestWord
 1357              		.global	g_lengthKeyWord
 1358              		.global	DeviceKeyWord
 1359              		.global	g_operate
 1360              		.global	g_rxTick
 1361              		.section	.bss.count.3,"aw",%nobits
 1362              		.align	2
 1363              		.set	.LANCHOR7,. + 0
 1366              	count.3:
 1367 0000 00000000 		.space	20
 1367      00000000 
 1367      00000000 
 1367      00000000 
 1367      00000000 
 1368              		.section	.bss.g_lengthKeyWord,"aw",%nobits
 1369              		.align	2
 1370              		.set	.LANCHOR1,. + 0
 1373              	g_lengthKeyWord:
 1374 0000 00000000 		.space	7
 1374      000000
 1375              		.section	.bss.g_lengthTestWord,"aw",%nobits
 1376              		.align	2
 1377              		.set	.LANCHOR3,. + 0
 1380              	g_lengthTestWord:
 1381 0000 00000000 		.space	11
 1381      00000000 
 1381      000000
 1382              		.section	.bss.g_operate,"aw",%nobits
 1383              		.align	2
 1384              		.set	.LANCHOR4,. + 0
ARM GAS  C:\Users\86158\AppData\Local\Temp\ccAoFQ4P.s 			page 32


 1387              	g_operate:
 1388 0000 00000000 		.space	10
 1388      00000000 
 1388      0000
 1389              		.section	.bss.g_rxTick,"aw",%nobits
 1390              		.align	2
 1391              		.set	.LANCHOR5,. + 0
 1394              	g_rxTick:
 1395 0000 00000000 		.space	40
 1395      00000000 
 1395      00000000 
 1395      00000000 
 1395      00000000 
 1396              		.section	.bss.lastLength.4,"aw",%nobits
 1397              		.align	2
 1398              		.set	.LANCHOR6,. + 0
 1401              	lastLength.4:
 1402 0000 00000000 		.space	20
 1402      00000000 
 1402      00000000 
 1402      00000000 
 1402      00000000 
 1403              		.section	.bss.lastTick.0,"aw",%nobits
 1404              		.align	2
 1405              		.set	.LANCHOR10,. + 0
 1408              	lastTick.0:
 1409 0000 00000000 		.space	40
 1409      00000000 
 1409      00000000 
 1409      00000000 
 1409      00000000 
 1410              		.section	.bss.lastTick.1,"aw",%nobits
 1411              		.align	2
 1412              		.set	.LANCHOR9,. + 0
 1415              	lastTick.1:
 1416 0000 00000000 		.space	40
 1416      00000000 
 1416      00000000 
 1416      00000000 
 1416      00000000 
 1417              		.section	.bss.state.2,"aw",%nobits
 1418              		.align	2
 1419              		.set	.LANCHOR8,. + 0
 1422              	state.2:
 1423 0000 00000000 		.space	10
 1423      00000000 
 1423      0000
 1424              		.section	.data.DeviceKeyWord,"aw"
 1425              		.align	2
 1426              		.set	.LANCHOR0,. + 0
 1429              	DeviceKeyWord:
 1430 0000 626F6172 		.ascii	"board:\000"
 1430      643A00
 1431 0007 00000000 		.space	8
 1431      00000000 
 1432 000f 73797374 		.ascii	"systemTemp:\000"
 1432      656D5465 
ARM GAS  C:\Users\86158\AppData\Local\Temp\ccAoFQ4P.s 			page 33


 1432      6D703A00 
 1433 001b 000000   		.space	3
 1434 001e 6F6B4E75 		.ascii	"okNumber:\000"
 1434      6D626572 
 1434      3A00
 1435 0028 00000000 		.space	5
 1435      00
 1436 002d 63686970 		.ascii	"chipName:\000"
 1436      4E616D65 
 1436      3A00
 1437 0037 00000000 		.space	5
 1437      00
 1438 003c 63686970 		.ascii	"chipTemp:\000"
 1438      54656D70 
 1438      3A00
 1439 0046 00000000 		.space	5
 1439      00
 1440 004b 73746174 		.ascii	"state:\000"
 1440      653A00
 1441 0052 00000000 		.space	8
 1441      00000000 
 1442 005a 6D657373 		.ascii	"message:\000"
 1442      6167653A 
 1442      00
 1443 0063 00000000 		.space	6
 1443      0000
 1444              		.section	.data.DeviceTestWord,"aw"
 1445              		.align	2
 1446              		.set	.LANCHOR2,. + 0
 1449              	DeviceTestWord:
 1450 0000 63686970 		.ascii	"chip:\000"
 1450      3A00
 1451 0006 00000000 		.space	9
 1451      00000000 
 1451      00
 1452 000f 646F776E 		.ascii	"download:\000"
 1452      6C6F6164 
 1452      3A00
 1453 0019 00000000 		.space	5
 1453      00
 1454 001e 63686970 		.ascii	"chipTemp:\000"
 1454      54656D70 
 1454      3A00
 1455 0028 00000000 		.space	5
 1455      00
 1456 002d 73797374 		.ascii	"systemTemp:\000"
 1456      656D5465 
 1456      6D703A00 
 1457 0039 000000   		.space	3
 1458 003c 66726571 		.ascii	"freq:\000"
 1458      3A00
 1459 0042 00000000 		.space	9
 1459      00000000 
 1459      00
 1460 004b 70706D3A 		.ascii	"ppm:\000"
 1460      00
 1461 0050 00000000 		.space	10
ARM GAS  C:\Users\86158\AppData\Local\Temp\ccAoFQ4P.s 			page 34


 1461      00000000 
 1461      0000
 1462 005a 69643A00 		.ascii	"id:\000"
 1463 005e 00000000 		.space	11
 1463      00000000 
 1463      000000
 1464 0069 49766464 		.ascii	"Ivdd:\000"
 1464      3A00
 1465 006f 00000000 		.space	9
 1465      00000000 
 1465      00
 1466 0078 56626174 		.ascii	"Vbat:\000"
 1466      3A00
 1467 007e 00000000 		.space	9
 1467      00000000 
 1467      00
 1468 0087 49626174 		.ascii	"Ibat:\000"
 1468      3A00
 1469 008d 00000000 		.space	9
 1469      00000000 
 1469      00
 1470 0096 72657375 		.ascii	"result:\000"
 1470      6C743A00 
 1471 009e 00000000 		.space	7
 1471      000000
 1472              		.text
 1473              	.Letext0:
 1474              		.file 2 "e:\\stm32-gcc\\gcc-arm-none-eabi-10.3-2021.10\\arm-none-eabi\\include\\machine\\_default_
 1475              		.file 3 "e:\\stm32-gcc\\gcc-arm-none-eabi-10.3-2021.10\\arm-none-eabi\\include\\sys\\_stdint.h"
 1476              		.file 4 "Device/Inc/soft_uart.h"
 1477              		.file 5 "Device/Inc/lcd_driver.h"
 1478              		.file 6 "Device/Inc/sd2506.h"
 1479              		.file 7 "Middlewares/Third_Party/FreeRTOS/Source/CMSIS_RTOS/cmsis_os.h"
 1480              		.file 8 "Drivers/STM32F4xx_HAL_Driver/Inc/stm32f4xx_hal.h"
 1481              		.file 9 "Device/Inc/user_tool.h"
 1482              		.file 10 "Core/Inc/main.h"
 1483              		.file 11 "e:\\stm32-gcc\\gcc-arm-none-eabi-10.3-2021.10\\arm-none-eabi\\include\\string.h"
 1484              		.file 12 "e:\\stm32-gcc\\gcc-arm-none-eabi-10.3-2021.10\\arm-none-eabi\\include\\stdio.h"
 1485              		.file 13 "<built-in>"
ARM GAS  C:\Users\86158\AppData\Local\Temp\ccAoFQ4P.s 			page 35

