ARM GAS  C:\Users\86158\AppData\Local\Temp\ccQsnM9D.s 			page 1


   1              		.cpu cortex-m4
   2              		.arch armv7e-m
   3              		.fpu fpv4-sp-d16
   4              		.eabi_attribute 27, 1
   5              		.eabi_attribute 28, 1
   6              		.eabi_attribute 20, 1
   7              		.eabi_attribute 21, 1
   8              		.eabi_attribute 23, 3
   9              		.eabi_attribute 24, 1
  10              		.eabi_attribute 25, 1
  11              		.eabi_attribute 26, 1
  12              		.eabi_attribute 30, 1
  13              		.eabi_attribute 34, 1
  14              		.eabi_attribute 18, 4
  15              		.file	"default_task.c"
  16              		.text
  17              	.Ltext0:
  18              		.cfi_sections	.debug_frame
  19              		.section	.text.LedHeart,"ax",%progbits
  20              		.align	1
  21              		.global	LedHeart
  22              		.syntax unified
  23              		.thumb
  24              		.thumb_func
  26              	LedHeart:
  27              	.LFB240:
  28              		.file 1 "App/Src/default_task.c"
   1:App/Src/default_task.c **** #include "default_task.h"
   2:App/Src/default_task.c **** #include "main.h"
   3:App/Src/default_task.c **** #include "cmsis_os.h"
   4:App/Src/default_task.c **** #include "command.h"
   5:App/Src/default_task.c **** #include "sd2506.h"
   6:App/Src/default_task.c **** #include "voltage.h"
   7:App/Src/default_task.c **** 
   8:App/Src/default_task.c **** RealTime g_systemTime = {0};
   9:App/Src/default_task.c **** 
  10:App/Src/default_task.c **** void LedHeart(void)
  11:App/Src/default_task.c **** {
  29              		.loc 1 11 1 view -0
  30              		.cfi_startproc
  31              		@ args = 0, pretend = 0, frame = 0
  32              		@ frame_needed = 0, uses_anonymous_args = 0
  33 0000 08B5     		push	{r3, lr}
  34              	.LCFI0:
  35              		.cfi_def_cfa_offset 8
  36              		.cfi_offset 3, -8
  37              		.cfi_offset 14, -4
  12:App/Src/default_task.c ****     static uint32_t ledTick = 0;
  38              		.loc 1 12 5 view .LVU1
  13:App/Src/default_task.c **** 
  14:App/Src/default_task.c ****     if (HAL_GetTick() >= ledTick + 1000) {
  39              		.loc 1 14 5 view .LVU2
  40              		.loc 1 14 9 is_stmt 0 view .LVU3
  41 0002 FFF7FEFF 		bl	HAL_GetTick
  42              	.LVL0:
  43              		.loc 1 14 34 view .LVU4
  44 0006 084B     		ldr	r3, .L5
ARM GAS  C:\Users\86158\AppData\Local\Temp\ccQsnM9D.s 			page 2


  45 0008 1B68     		ldr	r3, [r3]
  46 000a 03F57A73 		add	r3, r3, #1000
  47              		.loc 1 14 8 view .LVU5
  48 000e 9842     		cmp	r0, r3
  49 0010 00D2     		bcs	.L4
  50              	.L1:
  15:App/Src/default_task.c ****         ledTick = HAL_GetTick();
  16:App/Src/default_task.c ****         HAL_GPIO_TogglePin(GPIOA, GPIO_PIN_12);
  17:App/Src/default_task.c ****     }
  18:App/Src/default_task.c **** }
  51              		.loc 1 18 1 view .LVU6
  52 0012 08BD     		pop	{r3, pc}
  53              	.L4:
  15:App/Src/default_task.c ****         ledTick = HAL_GetTick();
  54              		.loc 1 15 9 is_stmt 1 view .LVU7
  15:App/Src/default_task.c ****         ledTick = HAL_GetTick();
  55              		.loc 1 15 19 is_stmt 0 view .LVU8
  56 0014 FFF7FEFF 		bl	HAL_GetTick
  57              	.LVL1:
  15:App/Src/default_task.c ****         ledTick = HAL_GetTick();
  58              		.loc 1 15 17 view .LVU9
  59 0018 034B     		ldr	r3, .L5
  60 001a 1860     		str	r0, [r3]
  16:App/Src/default_task.c ****     }
  61              		.loc 1 16 9 is_stmt 1 view .LVU10
  62 001c 4FF48051 		mov	r1, #4096
  63 0020 0248     		ldr	r0, .L5+4
  64 0022 FFF7FEFF 		bl	HAL_GPIO_TogglePin
  65              	.LVL2:
  66              		.loc 1 18 1 is_stmt 0 view .LVU11
  67 0026 F4E7     		b	.L1
  68              	.L6:
  69              		.align	2
  70              	.L5:
  71 0028 00000000 		.word	.LANCHOR0
  72 002c 00000240 		.word	1073872896
  73              		.cfi_endproc
  74              	.LFE240:
  76              		.section	.text.sd2506GetTime,"ax",%progbits
  77              		.align	1
  78              		.global	sd2506GetTime
  79              		.syntax unified
  80              		.thumb
  81              		.thumb_func
  83              	sd2506GetTime:
  84              	.LFB241:
  19:App/Src/default_task.c **** 
  20:App/Src/default_task.c **** void sd2506GetTime(void)
  21:App/Src/default_task.c **** {
  85              		.loc 1 21 1 is_stmt 1 view -0
  86              		.cfi_startproc
  87              		@ args = 0, pretend = 0, frame = 0
  88              		@ frame_needed = 0, uses_anonymous_args = 0
  89 0000 08B5     		push	{r3, lr}
  90              	.LCFI1:
  91              		.cfi_def_cfa_offset 8
  92              		.cfi_offset 3, -8
ARM GAS  C:\Users\86158\AppData\Local\Temp\ccQsnM9D.s 			page 3


  93              		.cfi_offset 14, -4
  22:App/Src/default_task.c ****     static uint32_t rtcTick = 0;
  94              		.loc 1 22 5 view .LVU13
  23:App/Src/default_task.c **** 
  24:App/Src/default_task.c ****     if (HAL_GetTick() >= rtcTick + 333) {
  95              		.loc 1 24 5 view .LVU14
  96              		.loc 1 24 9 is_stmt 0 view .LVU15
  97 0002 FFF7FEFF 		bl	HAL_GetTick
  98              	.LVL3:
  99              		.loc 1 24 34 view .LVU16
 100 0006 074B     		ldr	r3, .L11
 101 0008 1B68     		ldr	r3, [r3]
 102 000a 03F24D13 		addw	r3, r3, #333
 103              		.loc 1 24 8 view .LVU17
 104 000e 9842     		cmp	r0, r3
 105 0010 00D2     		bcs	.L10
 106              	.L7:
  25:App/Src/default_task.c ****         rtcTick = HAL_GetTick();
  26:App/Src/default_task.c ****         rtc_read_date(&g_systemTime);
  27:App/Src/default_task.c ****     }
  28:App/Src/default_task.c **** 
  29:App/Src/default_task.c **** }
 107              		.loc 1 29 1 view .LVU18
 108 0012 08BD     		pop	{r3, pc}
 109              	.L10:
  25:App/Src/default_task.c ****         rtcTick = HAL_GetTick();
 110              		.loc 1 25 9 is_stmt 1 view .LVU19
  25:App/Src/default_task.c ****         rtcTick = HAL_GetTick();
 111              		.loc 1 25 19 is_stmt 0 view .LVU20
 112 0014 FFF7FEFF 		bl	HAL_GetTick
 113              	.LVL4:
  25:App/Src/default_task.c ****         rtcTick = HAL_GetTick();
 114              		.loc 1 25 17 view .LVU21
 115 0018 024B     		ldr	r3, .L11
 116 001a 1860     		str	r0, [r3]
  26:App/Src/default_task.c ****     }
 117              		.loc 1 26 9 is_stmt 1 view .LVU22
 118 001c 0248     		ldr	r0, .L11+4
 119 001e FFF7FEFF 		bl	rtc_read_date
 120              	.LVL5:
 121              		.loc 1 29 1 is_stmt 0 view .LVU23
 122 0022 F6E7     		b	.L7
 123              	.L12:
 124              		.align	2
 125              	.L11:
 126 0024 00000000 		.word	.LANCHOR1
 127 0028 00000000 		.word	.LANCHOR2
 128              		.cfi_endproc
 129              	.LFE241:
 131              		.global	__aeabi_f2d
 132              		.global	__aeabi_dmul
 133              		.global	__aeabi_d2f
 134              		.section	.text.check_system_voltage,"ax",%progbits
 135              		.align	1
 136              		.global	check_system_voltage
 137              		.syntax unified
 138              		.thumb
ARM GAS  C:\Users\86158\AppData\Local\Temp\ccQsnM9D.s 			page 4


 139              		.thumb_func
 141              	check_system_voltage:
 142              	.LFB242:
  30:App/Src/default_task.c **** 
  31:App/Src/default_task.c **** float g_12Voltage = 0;
  32:App/Src/default_task.c **** float g_6Voltage = 0;
  33:App/Src/default_task.c **** void check_system_voltage(void)
  34:App/Src/default_task.c **** {
 143              		.loc 1 34 1 is_stmt 1 view -0
 144              		.cfi_startproc
 145              		@ args = 0, pretend = 0, frame = 0
 146              		@ frame_needed = 0, uses_anonymous_args = 0
 147 0000 10B5     		push	{r4, lr}
 148              	.LCFI2:
 149              		.cfi_def_cfa_offset 8
 150              		.cfi_offset 4, -8
 151              		.cfi_offset 14, -4
 152 0002 2DED028B 		vpush.64	{d8}
 153              	.LCFI3:
 154              		.cfi_def_cfa_offset 16
 155              		.cfi_offset 80, -16
 156              		.cfi_offset 81, -12
  35:App/Src/default_task.c ****     int i;
 157              		.loc 1 35 5 view .LVU25
  36:App/Src/default_task.c ****     float adcValue;
 158              		.loc 1 36 5 view .LVU26
  37:App/Src/default_task.c ****     static uint32_t adcTick = 0;
 159              		.loc 1 37 5 view .LVU27
  38:App/Src/default_task.c ****     
  39:App/Src/default_task.c ****     if (HAL_GetTick() >= adcTick + 1000) {
 160              		.loc 1 39 5 view .LVU28
 161              		.loc 1 39 9 is_stmt 0 view .LVU29
 162 0006 FFF7FEFF 		bl	HAL_GetTick
 163              	.LVL6:
 164              		.loc 1 39 8 view .LVU30
 165 000a B0F57A7F 		cmp	r0, #1000
 166 000e 2BD2     		bcs	.L19
 167              	.L13:
  40:App/Src/default_task.c ****         adcValue = 0;
  41:App/Src/default_task.c ****         for (i = 0; i < 5; i++) {
  42:App/Src/default_task.c ****           adcValue += ststem_voltage(CHANNEL_12V);
  43:App/Src/default_task.c ****         }
  44:App/Src/default_task.c ****         g_12Voltage = (adcValue / 5) * 3.3 * 6.0 / 4096;
  45:App/Src/default_task.c **** 
  46:App/Src/default_task.c ****         adcValue = 0;
  47:App/Src/default_task.c ****         for (i = 0; i < 5; i++) {
  48:App/Src/default_task.c ****           adcValue += ststem_voltage(CHANNEL_6V5);
  49:App/Src/default_task.c ****         }
  50:App/Src/default_task.c ****         g_6Voltage = (adcValue / 5) * 3.3 * 6.0 / 4096;
  51:App/Src/default_task.c ****     }
  52:App/Src/default_task.c **** }
 168              		.loc 1 52 1 view .LVU31
 169 0010 BDEC028B 		vldm	sp!, {d8}
 170              	.LCFI4:
 171              		.cfi_remember_state
 172              		.cfi_restore 80
 173              		.cfi_restore 81
ARM GAS  C:\Users\86158\AppData\Local\Temp\ccQsnM9D.s 			page 5


 174              		.cfi_def_cfa_offset 8
 175 0014 10BD     		pop	{r4, pc}
 176              	.LVL7:
 177              	.L16:
 178              	.LCFI5:
 179              		.cfi_restore_state
  42:App/Src/default_task.c ****         }
 180              		.loc 1 42 11 is_stmt 1 discriminator 3 view .LVU32
  42:App/Src/default_task.c ****         }
 181              		.loc 1 42 23 is_stmt 0 discriminator 3 view .LVU33
 182 0016 0020     		movs	r0, #0
 183 0018 FFF7FEFF 		bl	ststem_voltage
 184              	.LVL8:
 185 001c 07EE900A 		vmov	s15, r0	@ int
  42:App/Src/default_task.c ****         }
 186              		.loc 1 42 20 discriminator 3 view .LVU34
 187 0020 F8EE677A 		vcvt.f32.u32	s15, s15
 188 0024 38EE278A 		vadd.f32	s16, s16, s15
 189              	.LVL9:
  41:App/Src/default_task.c ****           adcValue += ststem_voltage(CHANNEL_12V);
 190              		.loc 1 41 28 is_stmt 1 discriminator 3 view .LVU35
  41:App/Src/default_task.c ****           adcValue += ststem_voltage(CHANNEL_12V);
 191              		.loc 1 41 29 is_stmt 0 discriminator 3 view .LVU36
 192 0028 0134     		adds	r4, r4, #1
 193              	.LVL10:
 194              	.L14:
  41:App/Src/default_task.c ****           adcValue += ststem_voltage(CHANNEL_12V);
 195              		.loc 1 41 21 is_stmt 1 discriminator 1 view .LVU37
  41:App/Src/default_task.c ****           adcValue += ststem_voltage(CHANNEL_12V);
 196              		.loc 1 41 9 is_stmt 0 discriminator 1 view .LVU38
 197 002a 042C     		cmp	r4, #4
 198 002c F3DD     		ble	.L16
  44:App/Src/default_task.c **** 
 199              		.loc 1 44 9 is_stmt 1 view .LVU39
  44:App/Src/default_task.c **** 
 200              		.loc 1 44 33 is_stmt 0 view .LVU40
 201 002e F1EE047A 		vmov.f32	s15, #5.0e+0
 202 0032 C8EE277A 		vdiv.f32	s15, s16, s15
 203 0036 17EE900A 		vmov	r0, s15
 204 003a FFF7FEFF 		bl	__aeabi_f2d
 205              	.LVL11:
  44:App/Src/default_task.c **** 
 206              		.loc 1 44 38 view .LVU41
 207 003e 20A3     		adr	r3, .L21
 208 0040 D3E90023 		ldrd	r2, [r3]
 209 0044 FFF7FEFF 		bl	__aeabi_dmul
 210              	.LVL12:
  44:App/Src/default_task.c **** 
 211              		.loc 1 44 44 view .LVU42
 212 0048 0022     		movs	r2, #0
 213 004a 1F4B     		ldr	r3, .L21+8
 214 004c FFF7FEFF 		bl	__aeabi_dmul
 215              	.LVL13:
  44:App/Src/default_task.c **** 
 216              		.loc 1 44 50 view .LVU43
 217 0050 0022     		movs	r2, #0
 218 0052 1E4B     		ldr	r3, .L21+12
ARM GAS  C:\Users\86158\AppData\Local\Temp\ccQsnM9D.s 			page 6


 219 0054 FFF7FEFF 		bl	__aeabi_dmul
 220              	.LVL14:
 221 0058 FFF7FEFF 		bl	__aeabi_d2f
 222              	.LVL15:
  44:App/Src/default_task.c **** 
 223              		.loc 1 44 21 view .LVU44
 224 005c 1C4B     		ldr	r3, .L21+16
 225 005e 1860     		str	r0, [r3]	@ float
  46:App/Src/default_task.c ****         for (i = 0; i < 5; i++) {
 226              		.loc 1 46 9 is_stmt 1 view .LVU45
 227              	.LVL16:
  47:App/Src/default_task.c ****           adcValue += ststem_voltage(CHANNEL_6V5);
 228              		.loc 1 47 9 view .LVU46
  46:App/Src/default_task.c ****         for (i = 0; i < 5; i++) {
 229              		.loc 1 46 18 is_stmt 0 view .LVU47
 230 0060 9FED1C8A 		vldr.32	s16, .L21+20
  47:App/Src/default_task.c ****           adcValue += ststem_voltage(CHANNEL_6V5);
 231              		.loc 1 47 16 view .LVU48
 232 0064 0024     		movs	r4, #0
  47:App/Src/default_task.c ****           adcValue += ststem_voltage(CHANNEL_6V5);
 233              		.loc 1 47 9 view .LVU49
 234 0066 0DE0     		b	.L17
 235              	.LVL17:
 236              	.L19:
  40:App/Src/default_task.c ****         for (i = 0; i < 5; i++) {
 237              		.loc 1 40 18 view .LVU50
 238 0068 9FED1A8A 		vldr.32	s16, .L21+20
  41:App/Src/default_task.c ****           adcValue += ststem_voltage(CHANNEL_12V);
 239              		.loc 1 41 16 view .LVU51
 240 006c 0024     		movs	r4, #0
 241 006e DCE7     		b	.L14
 242              	.LVL18:
 243              	.L18:
  48:App/Src/default_task.c ****         }
 244              		.loc 1 48 11 is_stmt 1 discriminator 3 view .LVU52
  48:App/Src/default_task.c ****         }
 245              		.loc 1 48 23 is_stmt 0 discriminator 3 view .LVU53
 246 0070 0820     		movs	r0, #8
 247 0072 FFF7FEFF 		bl	ststem_voltage
 248              	.LVL19:
 249 0076 07EE900A 		vmov	s15, r0	@ int
  48:App/Src/default_task.c ****         }
 250              		.loc 1 48 20 discriminator 3 view .LVU54
 251 007a F8EE677A 		vcvt.f32.u32	s15, s15
 252 007e 38EE278A 		vadd.f32	s16, s16, s15
 253              	.LVL20:
  47:App/Src/default_task.c ****           adcValue += ststem_voltage(CHANNEL_6V5);
 254              		.loc 1 47 28 is_stmt 1 discriminator 3 view .LVU55
  47:App/Src/default_task.c ****           adcValue += ststem_voltage(CHANNEL_6V5);
 255              		.loc 1 47 29 is_stmt 0 discriminator 3 view .LVU56
 256 0082 0134     		adds	r4, r4, #1
 257              	.LVL21:
 258              	.L17:
  47:App/Src/default_task.c ****           adcValue += ststem_voltage(CHANNEL_6V5);
 259              		.loc 1 47 21 is_stmt 1 discriminator 1 view .LVU57
  47:App/Src/default_task.c ****           adcValue += ststem_voltage(CHANNEL_6V5);
 260              		.loc 1 47 9 is_stmt 0 discriminator 1 view .LVU58
ARM GAS  C:\Users\86158\AppData\Local\Temp\ccQsnM9D.s 			page 7


 261 0084 042C     		cmp	r4, #4
 262 0086 F3DD     		ble	.L18
  50:App/Src/default_task.c ****     }
 263              		.loc 1 50 9 is_stmt 1 view .LVU59
  50:App/Src/default_task.c ****     }
 264              		.loc 1 50 32 is_stmt 0 view .LVU60
 265 0088 F1EE047A 		vmov.f32	s15, #5.0e+0
 266 008c C8EE277A 		vdiv.f32	s15, s16, s15
 267 0090 17EE900A 		vmov	r0, s15
 268 0094 FFF7FEFF 		bl	__aeabi_f2d
 269              	.LVL22:
  50:App/Src/default_task.c ****     }
 270              		.loc 1 50 37 view .LVU61
 271 0098 09A3     		adr	r3, .L21
 272 009a D3E90023 		ldrd	r2, [r3]
 273 009e FFF7FEFF 		bl	__aeabi_dmul
 274              	.LVL23:
  50:App/Src/default_task.c ****     }
 275              		.loc 1 50 43 view .LVU62
 276 00a2 0022     		movs	r2, #0
 277 00a4 084B     		ldr	r3, .L21+8
 278 00a6 FFF7FEFF 		bl	__aeabi_dmul
 279              	.LVL24:
  50:App/Src/default_task.c ****     }
 280              		.loc 1 50 49 view .LVU63
 281 00aa 0022     		movs	r2, #0
 282 00ac 074B     		ldr	r3, .L21+12
 283 00ae FFF7FEFF 		bl	__aeabi_dmul
 284              	.LVL25:
 285 00b2 FFF7FEFF 		bl	__aeabi_d2f
 286              	.LVL26:
  50:App/Src/default_task.c ****     }
 287              		.loc 1 50 20 view .LVU64
 288 00b6 084B     		ldr	r3, .L21+24
 289 00b8 1860     		str	r0, [r3]	@ float
 290              		.loc 1 52 1 view .LVU65
 291 00ba A9E7     		b	.L13
 292              	.L22:
 293 00bc AFF30080 		.align	3
 294              	.L21:
 295 00c0 66666666 		.word	1717986918
 296 00c4 66660A40 		.word	1074423398
 297 00c8 00001840 		.word	1075314688
 298 00cc 0000303F 		.word	1060110336
 299 00d0 00000000 		.word	.LANCHOR3
 300 00d4 00000000 		.word	0
 301 00d8 00000000 		.word	.LANCHOR4
 302              		.cfi_endproc
 303              	.LFE242:
 305              		.section	.text.StartDefaultTask,"ax",%progbits
 306              		.align	1
 307              		.global	StartDefaultTask
 308              		.syntax unified
 309              		.thumb
 310              		.thumb_func
 312              	StartDefaultTask:
 313              	.LVL27:
ARM GAS  C:\Users\86158\AppData\Local\Temp\ccQsnM9D.s 			page 8


 314              	.LFB243:
  53:App/Src/default_task.c **** 
  54:App/Src/default_task.c **** void StartDefaultTask(void const * argument)
  55:App/Src/default_task.c **** {
 315              		.loc 1 55 1 is_stmt 1 view -0
 316              		.cfi_startproc
 317              		@ Volatile: function does not return.
 318              		@ args = 0, pretend = 0, frame = 0
 319              		@ frame_needed = 0, uses_anonymous_args = 0
 320              		.loc 1 55 1 is_stmt 0 view .LVU67
 321 0000 08B5     		push	{r3, lr}
 322              	.LCFI6:
 323              		.cfi_def_cfa_offset 8
 324              		.cfi_offset 3, -8
 325              		.cfi_offset 14, -4
  56:App/Src/default_task.c ****   /* USER CODE BEGIN 5 */
  57:App/Src/default_task.c ****   usb_usart_init();
 326              		.loc 1 57 3 is_stmt 1 view .LVU68
 327 0002 FFF7FEFF 		bl	usb_usart_init
 328              	.LVL28:
 329              	.L24:
  58:App/Src/default_task.c ****   /* Infinite loop */
  59:App/Src/default_task.c ****   for(;;)
 330              		.loc 1 59 3 discriminator 1 view .LVU69
  60:App/Src/default_task.c ****   {
  61:App/Src/default_task.c ****     osDelay(1);
 331              		.loc 1 61 5 discriminator 1 view .LVU70
 332 0006 0120     		movs	r0, #1
 333 0008 FFF7FEFF 		bl	osDelay
 334              	.LVL29:
  62:App/Src/default_task.c ****     LedHeart();
 335              		.loc 1 62 5 discriminator 1 view .LVU71
 336 000c FFF7FEFF 		bl	LedHeart
 337              	.LVL30:
  63:App/Src/default_task.c ****     sd2506GetTime();
 338              		.loc 1 63 5 discriminator 1 view .LVU72
 339 0010 FFF7FEFF 		bl	sd2506GetTime
 340              	.LVL31:
  64:App/Src/default_task.c ****     CheckCommandList();
 341              		.loc 1 64 5 discriminator 1 view .LVU73
 342 0014 FFF7FEFF 		bl	CheckCommandList
 343              	.LVL32:
  65:App/Src/default_task.c ****     check_system_voltage();
 344              		.loc 1 65 5 discriminator 1 view .LVU74
 345 0018 FFF7FEFF 		bl	check_system_voltage
 346              	.LVL33:
  59:App/Src/default_task.c ****   {
 347              		.loc 1 59 8 discriminator 1 view .LVU75
 348 001c F3E7     		b	.L24
 349              		.cfi_endproc
 350              	.LFE243:
 352              		.global	g_6Voltage
 353              		.global	g_12Voltage
 354              		.global	g_systemTime
 355              		.section	.bss.g_12Voltage,"aw",%nobits
 356              		.align	2
 357              		.set	.LANCHOR3,. + 0
ARM GAS  C:\Users\86158\AppData\Local\Temp\ccQsnM9D.s 			page 9


 360              	g_12Voltage:
 361 0000 00000000 		.space	4
 362              		.section	.bss.g_6Voltage,"aw",%nobits
 363              		.align	2
 364              		.set	.LANCHOR4,. + 0
 367              	g_6Voltage:
 368 0000 00000000 		.space	4
 369              		.section	.bss.g_systemTime,"aw",%nobits
 370              		.align	2
 371              		.set	.LANCHOR2,. + 0
 374              	g_systemTime:
 375 0000 00000000 		.space	8
 375      00000000 
 376              		.section	.bss.ledTick.2,"aw",%nobits
 377              		.align	2
 378              		.set	.LANCHOR0,. + 0
 381              	ledTick.2:
 382 0000 00000000 		.space	4
 383              		.section	.bss.rtcTick.1,"aw",%nobits
 384              		.align	2
 385              		.set	.LANCHOR1,. + 0
 388              	rtcTick.1:
 389 0000 00000000 		.space	4
 390              		.text
 391              	.Letext0:
 392              		.file 2 "e:\\stm32-gcc\\gcc-arm-none-eabi-10.3-2021.10\\arm-none-eabi\\include\\machine\\_default_
 393              		.file 3 "e:\\stm32-gcc\\gcc-arm-none-eabi-10.3-2021.10\\arm-none-eabi\\include\\sys\\_stdint.h"
 394              		.file 4 "Drivers/CMSIS/Device/ST/STM32F4xx/Include/stm32f407xx.h"
 395              		.file 5 "Device/Inc/sd2506.h"
 396              		.file 6 "App/Inc/command.h"
 397              		.file 7 "Middlewares/Third_Party/FreeRTOS/Source/CMSIS_RTOS/cmsis_os.h"
 398              		.file 8 "Drivers/STM32F4xx_HAL_Driver/Inc/stm32f4xx_hal.h"
 399              		.file 9 "Device/Inc/voltage.h"
 400              		.file 10 "Drivers/STM32F4xx_HAL_Driver/Inc/stm32f4xx_hal_gpio.h"
ARM GAS  C:\Users\86158\AppData\Local\Temp\ccQsnM9D.s 			page 10

