ARM GAS  C:\Users\86158\AppData\Local\Temp\cc13CoIU.s 			page 1


   1              		.cpu cortex-m4
   2              		.arch armv7e-m
   3              		.fpu fpv4-sp-d16
   4              		.eabi_attribute 27, 1
   5              		.eabi_attribute 28, 1
   6              		.eabi_attribute 20, 1
   7              		.eabi_attribute 21, 1
   8              		.eabi_attribute 23, 3
   9              		.eabi_attribute 24, 1
  10              		.eabi_attribute 25, 1
  11              		.eabi_attribute 26, 1
  12              		.eabi_attribute 30, 1
  13              		.eabi_attribute 34, 1
  14              		.eabi_attribute 18, 4
  15              		.file	"command.c"
  16              		.text
  17              	.Ltext0:
  18              		.cfi_sections	.debug_frame
  19              		.section	.text.AT_TESTMODE_Handle,"ax",%progbits
  20              		.align	1
  21              		.global	AT_TESTMODE_Handle
  22              		.syntax unified
  23              		.thumb
  24              		.thumb_func
  26              	AT_TESTMODE_Handle:
  27              	.LVL0:
  28              	.LFB263:
  29              		.file 1 "App/Src/command.c"
   1:App/Src/command.c **** #include "command.h"
   2:App/Src/command.c **** #include "main.h"
   3:App/Src/command.c **** #include <string.h>
   4:App/Src/command.c **** #include <stdio.h>
   5:App/Src/command.c **** #include <stdarg.h>
   6:App/Src/command.c **** #include "soft_i2c.h"
   7:App/Src/command.c **** #include "current.h"
   8:App/Src/command.c **** #include "rtc.h"
   9:App/Src/command.c **** #include "task.h"
  10:App/Src/command.c **** #include "temp.h"
  11:App/Src/command.c **** #include "rtc_i2c.h"
  12:App/Src/command.c **** #include "flash.h"
  13:App/Src/command.c **** #include "voltage.h"
  14:App/Src/command.c **** #include "log.h"
  15:App/Src/command.c **** #include "manager.h"
  16:App/Src/command.c **** #include "power.h"
  17:App/Src/command.c **** #include "calculate.h"
  18:App/Src/command.c **** #include "drv_wave1006.h"
  19:App/Src/command.c **** #include "soft_uart.h"
  20:App/Src/command.c **** 
  21:App/Src/command.c **** #define UART_RECEIVE_BUFF_NUMBER    200
  22:App/Src/command.c **** #define UART_TRANSMIT_BUFF_NUMBER   300
  23:App/Src/command.c **** #define USB_UART_TICK_CLEAR         10//10ms
  24:App/Src/command.c **** extern FrequencyData g_lastFreq;
  25:App/Src/command.c **** 
  26:App/Src/command.c **** extern UART_HandleTypeDef huart1;
  27:App/Src/command.c **** static uint16_t usb_Rx_Cnt = 0;		//
  28:App/Src/command.c **** static uint8_t usbRxBuf;
  29:App/Src/command.c **** uint8_t g_UsbRxBuff[UART_RECEIVE_BUFF_NUMBER] = {0};
ARM GAS  C:\Users\86158\AppData\Local\Temp\cc13CoIU.s 			page 2


  30:App/Src/command.c **** uint8_t g_UsbTxBuff[UART_TRANSMIT_BUFF_NUMBER] = {0};
  31:App/Src/command.c **** uint8_t g_UsbATStatus = 0;
  32:App/Src/command.c **** 
  33:App/Src/command.c **** extern UART_HandleTypeDef huart2;
  34:App/Src/command.c **** uint16_t device_Rx_Cnt = 0;		//
  35:App/Src/command.c **** uint8_t deviceRxBuf;
  36:App/Src/command.c **** uint8_t g_DeviceRxBuff[UART_RECEIVE_BUFF_NUMBER] = {0};
  37:App/Src/command.c **** uint8_t g_DeviceTxBuff[UART_TRANSMIT_BUFF_NUMBER] = {0};
  38:App/Src/command.c **** uint8_t g_DeviceATStatus = 0;
  39:App/Src/command.c **** uint8_t g_rtcChanenel = 1;
  40:App/Src/command.c **** 
  41:App/Src/command.c **** #define MAX_COMMAND_NUMBER  40
  42:App/Src/command.c **** #define MAX_COMMAND_LENGTH  20
  43:App/Src/command.c **** static char CommandList[MAX_COMMAND_NUMBER][MAX_COMMAND_LENGTH] = {
  44:App/Src/command.c **** 	"AT^HELP",
  45:App/Src/command.c **** 	"AT^REALTIME?", 
  46:App/Src/command.c **** 	"AT^READDATA",
  47:App/Src/command.c **** 	"AT^SETTIME",
  48:App/Src/command.c **** 	"AT^RTCCURRENT?",
  49:App/Src/command.c **** 	"AT^GROUPSETTEMP",
  50:App/Src/command.c **** 	"AT^RTCVBAT?",
  51:App/Src/command.c **** 	"AT^RTC4096",
  52:App/Src/command.c **** 	"AT^RTCADJCAP",
  53:App/Src/command.c **** 	"AT^RTCMODE",
  54:App/Src/command.c **** 	"AT^FREQTEST",
  55:App/Src/command.c **** 	"AT^READGROUP",
  56:App/Src/command.c **** 	"AT^SYSTEMP?",
  57:App/Src/command.c **** 	"AT^WRITEFLASH",
  58:App/Src/command.c **** 	"AT^READFLASH",
  59:App/Src/command.c **** 	"AT^ERASEFLASH",
  60:App/Src/command.c **** 	"AT^SETCURRENT",
  61:App/Src/command.c **** 	"AT^SYSVOLTAGE",
  62:App/Src/command.c **** 	"AT^SYSTEST",
  63:App/Src/command.c **** 	"AT^TESTMODE?",
  64:App/Src/command.c **** 	"AT^RESULT?",
  65:App/Src/command.c **** 	"AT^WRITECONFIG",
  66:App/Src/command.c **** 	"AT^TESTFLAG",
  67:App/Src/command.c **** 	"AT^TESTDATA",
  68:App/Src/command.c **** 	"AT^ATTEST",
  69:App/Src/command.c **** 	"AT^MACHINE",
  70:App/Src/command.c **** 	"AT^1006TMODE",
  71:App/Src/command.c **** 	"AT^SD3078INT",
  72:App/Src/command.c **** 	"AT^RTCLOAD",
  73:App/Src/command.c **** 	"AT^HOTVOLTAGE",
  74:App/Src/command.c **** 	"AT^TEMPADC",
  75:App/Src/command.c **** 	"AT^GETRTCID",
  76:App/Src/command.c **** 	"AT^AECQ100",
  77:App/Src/command.c **** };
  78:App/Src/command.c **** 
  79:App/Src/command.c **** void UsbPrintf(char* fmt,...)  
  80:App/Src/command.c **** {  
  81:App/Src/command.c **** 	va_list ap;//
  82:App/Src/command.c **** 	memset(g_UsbTxBuff, 0, UART_TRANSMIT_BUFF_NUMBER);
  83:App/Src/command.c **** 	va_start(ap, fmt);//
  84:App/Src/command.c **** 	vsnprintf((char*)g_UsbTxBuff, UART_TRANSMIT_BUFF_NUMBER, fmt, ap);//
  85:App/Src/command.c **** 	va_end(ap);
  86:App/Src/command.c **** 	HAL_UART_Transmit(&huart1, g_UsbTxBuff, strlen((char*)g_UsbTxBuff), 1000);
ARM GAS  C:\Users\86158\AppData\Local\Temp\cc13CoIU.s 			page 3


  87:App/Src/command.c **** }
  88:App/Src/command.c **** 
  89:App/Src/command.c **** // void DevicePrintf(char* fmt,...)  
  90:App/Src/command.c **** // {
  91:App/Src/command.c **** // 	devices_printf(&uart_dev[0], fmt);
  92:App/Src/command.c **** // }
  93:App/Src/command.c **** void DevicePrintf(char* fmt,...)  
  94:App/Src/command.c **** {  
  95:App/Src/command.c **** 	va_list ap;//
  96:App/Src/command.c **** 	memset(g_DeviceTxBuff, 0, UART_TRANSMIT_BUFF_NUMBER);
  97:App/Src/command.c **** 	va_start(ap, fmt);//
  98:App/Src/command.c **** 	vsnprintf((char*)g_DeviceTxBuff, UART_TRANSMIT_BUFF_NUMBER, fmt, ap);//
  99:App/Src/command.c **** 	va_end(ap);
 100:App/Src/command.c **** 	HAL_UART_Transmit(&huart2, g_DeviceTxBuff, strlen((char*)g_DeviceTxBuff), 1000);
 101:App/Src/command.c **** }
 102:App/Src/command.c **** 
 103:App/Src/command.c **** void UsartInit(void)
 104:App/Src/command.c **** {
 105:App/Src/command.c **** 	HAL_UART_Receive_IT(&huart1, &usbRxBuf, 1);		
 106:App/Src/command.c ****     memset(g_UsbRxBuff, 0x00, sizeof(g_UsbRxBuff));
 107:App/Src/command.c **** 	memset(g_UsbTxBuff, 0x00, sizeof(g_UsbTxBuff));
 108:App/Src/command.c **** 	HAL_UART_Receive_IT(&huart2, &deviceRxBuf, 1);		
 109:App/Src/command.c ****     memset(g_DeviceRxBuff, 0x00, sizeof(g_DeviceRxBuff));
 110:App/Src/command.c **** 	memset(g_DeviceTxBuff, 0x00, sizeof(g_DeviceTxBuff));
 111:App/Src/command.c **** 	ControlInit();
 112:App/Src/command.c **** 
 113:App/Src/command.c ****     HAL_Delay(100);
 114:App/Src/command.c ****     UsbPrintf("usb usart init success......\n");
 115:App/Src/command.c **** 	HAL_GPIO_WritePin(GPIOE, GPIO_PIN_14, GPIO_PIN_RESET); 
 116:App/Src/command.c **** 	UsbPrintf("VDD is 3.3V\n");
 117:App/Src/command.c **** 	rtc_otp_power(0);//配置dac电压
 118:App/Src/command.c **** 	if (CS1237Init()) {
 119:App/Src/command.c ****     	UsbPrintf("CS1237 init success\n");
 120:App/Src/command.c **** 	} else {
 121:App/Src/command.c ****     	UsbPrintf("CS1237 init error\n");
 122:App/Src/command.c **** 	}
 123:App/Src/command.c **** }
 124:App/Src/command.c **** 
 125:App/Src/command.c **** int strSearch(char* source, char* target)
 126:App/Src/command.c **** {
 127:App/Src/command.c **** 	int len_source = strlen(source);
 128:App/Src/command.c **** 	int len_target = strlen(target);
 129:App/Src/command.c **** 	int i, j;
 130:App/Src/command.c **** 	if (len_source < len_target) {
 131:App/Src/command.c **** 		return -1;
 132:App/Src/command.c **** 	}		
 133:App/Src/command.c **** 	for (i = 0; i <= len_source - len_target; i++) {
 134:App/Src/command.c **** 		for (j = 0; j < len_target; j++) {
 135:App/Src/command.c **** 			if (source[i + j] != target[j]) { break;}
 136:App/Src/command.c **** 		}
 137:App/Src/command.c **** 		if (j == len_target) { return i;}
 138:App/Src/command.c **** 	}
 139:App/Src/command.c **** 	return -1;	
 140:App/Src/command.c **** }
 141:App/Src/command.c **** 
 142:App/Src/command.c **** 
 143:App/Src/command.c **** uint8_t CharToInt(char* source, uint8_t start, int* number)
ARM GAS  C:\Users\86158\AppData\Local\Temp\cc13CoIU.s 			page 4


 144:App/Src/command.c **** {
 145:App/Src/command.c **** 	uint8_t length;
 146:App/Src/command.c **** 	uint8_t i;
 147:App/Src/command.c **** 	int sum = 0;
 148:App/Src/command.c **** 	int state = 0;
 149:App/Src/command.c **** 	uint8_t hex = 0;
 150:App/Src/command.c **** 	length = strlen(source);
 151:App/Src/command.c **** 	if (start >= length) {
 152:App/Src/command.c **** 		*number = 0;
 153:App/Src/command.c **** 		return 0;
 154:App/Src/command.c **** 	}
 155:App/Src/command.c **** 	
 156:App/Src/command.c **** 	if (source[start] == '-') {
 157:App/Src/command.c **** 		state = -1;
 158:App/Src/command.c **** 		start++;
 159:App/Src/command.c **** 	} else {
 160:App/Src/command.c **** 		state = 1;
 161:App/Src/command.c **** 		if (start + 1 < length ) {
 162:App/Src/command.c **** 			if (source[start] == '0' && (source[start + 1] == 'x' ||source[start + 1] == 'X')) {
 163:App/Src/command.c **** 				start += 2;
 164:App/Src/command.c **** 				hex = 1;
 165:App/Src/command.c **** 			}
 166:App/Src/command.c **** 		}
 167:App/Src/command.c **** 	}
 168:App/Src/command.c **** 	for (i = start; i < length; i++) {
 169:App/Src/command.c **** 		if (source[i] >= '0' && source[i] <= '9') {
 170:App/Src/command.c **** 			if (hex == 1) {
 171:App/Src/command.c **** 				sum = sum * 16 + source[i] - '0';
 172:App/Src/command.c **** 			} else {
 173:App/Src/command.c **** 				sum = sum * 10 + source[i] - '0';
 174:App/Src/command.c **** 			}
 175:App/Src/command.c **** 		} else if (source[i] >= 'a' && source[i] <= 'f') {
 176:App/Src/command.c **** 			if (hex == 1) {
 177:App/Src/command.c **** 				sum = sum * 16  + source[i] - 'a' + 10;
 178:App/Src/command.c **** 			} else {
 179:App/Src/command.c **** 				*number = 0;
 180:App/Src/command.c **** 				return 0;
 181:App/Src/command.c **** 			}
 182:App/Src/command.c **** 		}else if (source[i] >= 'A' && source[i] <= 'F') {
 183:App/Src/command.c **** 			if (hex == 1) {
 184:App/Src/command.c **** 				sum = sum * 16  + source[i] - 'A' + 10;
 185:App/Src/command.c **** 			} else {
 186:App/Src/command.c **** 				*number = 0;
 187:App/Src/command.c **** 				return 0;
 188:App/Src/command.c **** 			}
 189:App/Src/command.c **** 		} else if (source[i] == ' ' || source[i] == ',') {
 190:App/Src/command.c **** 			break;
 191:App/Src/command.c **** 		}
 192:App/Src/command.c **** 	}
 193:App/Src/command.c **** 	*number = state * sum;
 194:App/Src/command.c **** 	return 1;
 195:App/Src/command.c **** }
 196:App/Src/command.c **** 
 197:App/Src/command.c **** uint8_t CharToFloat(char* source, uint8_t start, float* number)
 198:App/Src/command.c **** {
 199:App/Src/command.c **** 		uint8_t length;
 200:App/Src/command.c **** 		uint8_t i;
ARM GAS  C:\Users\86158\AppData\Local\Temp\cc13CoIU.s 			page 5


 201:App/Src/command.c **** 		float sum = 0;
 202:App/Src/command.c **** 		int state = 1;
 203:App/Src/command.c **** 		float smallNumber = 0.1;
 204:App/Src/command.c **** 		length = strlen(source);
 205:App/Src/command.c **** 		if (length <= start) {
 206:App/Src/command.c **** 				*number = 0;
 207:App/Src/command.c **** 				return 0;
 208:App/Src/command.c **** 		}
 209:App/Src/command.c **** 		
 210:App/Src/command.c **** 		if (source[start] == '-') {
 211:App/Src/command.c **** 				state = -1;
 212:App/Src/command.c **** 				start++;
 213:App/Src/command.c **** 		}
 214:App/Src/command.c **** 		for (i = start; i < length; i++){
 215:App/Src/command.c **** 				if (source[i] >= '0' && source[i] <= '9') {
 216:App/Src/command.c **** 						sum = sum * 10 + source[i] - '0';
 217:App/Src/command.c **** 				} else if (source[i] == '.') {
 218:App/Src/command.c **** 						i++;
 219:App/Src/command.c **** 						break;
 220:App/Src/command.c **** 				} else if (source[i] == ' ' || source[i] == ',') {
 221:App/Src/command.c **** 						break;
 222:App/Src/command.c **** 				}	else {
 223:App/Src/command.c **** 						*number = 0;
 224:App/Src/command.c **** 						return 0;
 225:App/Src/command.c **** 				}					
 226:App/Src/command.c **** 		}
 227:App/Src/command.c **** 		for (; i < length; i++) {
 228:App/Src/command.c **** 				if (source[i] >= '0' && source[i] <= '9') {
 229:App/Src/command.c **** 						sum += smallNumber * (source[i] - '0');
 230:App/Src/command.c **** 						smallNumber = smallNumber * 0.1;
 231:App/Src/command.c **** 				} else if (source[i] == ' ' || source[i] == ',') {
 232:App/Src/command.c **** 						break;
 233:App/Src/command.c **** 				}	else {
 234:App/Src/command.c **** 						*number = 0;
 235:App/Src/command.c **** 						return 0;
 236:App/Src/command.c **** 				}	
 237:App/Src/command.c **** 		}
 238:App/Src/command.c **** 		*number = state * sum;
 239:App/Src/command.c **** 		return 1;
 240:App/Src/command.c **** }
 241:App/Src/command.c **** 
 242:App/Src/command.c **** void  AT_HELP_Handle(char* command)
 243:App/Src/command.c **** {
 244:App/Src/command.c ****     int i = 0, number = 0;
 245:App/Src/command.c ****     command = NULL;
 246:App/Src/command.c ****     for (i = 0; i < MAX_COMMAND_NUMBER; i++) {
 247:App/Src/command.c **** 		if (strlen(CommandList[i]) > 0) {
 248:App/Src/command.c ****         	UsbPrintf("%d. %s\n", number, CommandList[i]);
 249:App/Src/command.c **** 			number++;
 250:App/Src/command.c **** 		}
 251:App/Src/command.c ****     }
 252:App/Src/command.c **** 	UsbPrintf("command number: %d\n", number);
 253:App/Src/command.c **** }
 254:App/Src/command.c **** 
 255:App/Src/command.c **** void  AT_REALTIME_Handle(char* command)
 256:App/Src/command.c **** {
 257:App/Src/command.c **** 	RealTime rtc = {0};
ARM GAS  C:\Users\86158\AppData\Local\Temp\cc13CoIU.s 			page 6


 258:App/Src/command.c **** 	system_get_real_time(&rtc);
 259:App/Src/command.c **** 	UsbPrintf("\n20%d/%d/%d %d:%d:%d\n", rtc.year, rtc.mon, rtc.day, rtc.hour, rtc.min, rtc.sec);
 260:App/Src/command.c **** }
 261:App/Src/command.c **** 
 262:App/Src/command.c **** 
 263:App/Src/command.c **** void  AT_READDATA_Handle(char* command)
 264:App/Src/command.c **** {
 265:App/Src/command.c ****     int reg, address, num = 0;
 266:App/Src/command.c **** 	uint8_t result = 0;
 267:App/Src/command.c **** 	if (CharToInt(command, 12, &address) == 1) {
 268:App/Src/command.c **** 		num = strSearch(command, ",");
 269:App/Src/command.c **** 		if (num < 0 || address < 0) { UsbPrintf("input error\n"); return; }
 270:App/Src/command.c **** 		CharToInt(command, num + 1, &reg);
 271:App/Src/command.c **** 		i2c_read_multi_bytes(address, reg, &result, 1);
 272:App/Src/command.c **** 		UsbPrintf("reg[0x%x] = 0x%x\n", reg, result);
 273:App/Src/command.c **** 	}
 274:App/Src/command.c **** }
 275:App/Src/command.c **** 
 276:App/Src/command.c **** void  AT_SETTIME_Handle(char* command)
 277:App/Src/command.c **** {
 278:App/Src/command.c **** 	RealTime rtc = {0};
 279:App/Src/command.c **** 	int num = 0;
 280:App/Src/command.c **** 	int inNumber = 0;
 281:App/Src/command.c **** 
 282:App/Src/command.c **** 	system_get_real_time(&rtc);
 283:App/Src/command.c **** 	num = strSearch(command, "year:");
 284:App/Src/command.c **** 	if (num != -1) {
 285:App/Src/command.c **** 		num += strlen("year:");
 286:App/Src/command.c **** 		if (CharToInt(command, num, &inNumber) == 0 ) {	return; }
 287:App/Src/command.c **** 		rtc.year = inNumber % 100;
 288:App/Src/command.c **** 	}
 289:App/Src/command.c **** 	num = strSearch(command, "mon:");
 290:App/Src/command.c **** 	if (num != -1) {
 291:App/Src/command.c **** 		num += strlen("mon:");
 292:App/Src/command.c **** 		if (CharToInt(command, num, &inNumber) == 0 ) {	return; }
 293:App/Src/command.c **** 		rtc.mon = inNumber % 100;
 294:App/Src/command.c **** 	}	
 295:App/Src/command.c **** 	num = strSearch(command, "day:");
 296:App/Src/command.c **** 	if (num != -1) {
 297:App/Src/command.c **** 		num += strlen("day:");
 298:App/Src/command.c **** 		if (CharToInt(command, num, &inNumber) == 0 ) {	return; }
 299:App/Src/command.c **** 		rtc.day = inNumber % 100;
 300:App/Src/command.c **** 	}	
 301:App/Src/command.c **** 	num = strSearch(command, "hour:");
 302:App/Src/command.c **** 	if (num != -1) {
 303:App/Src/command.c **** 		num += strlen("hour:");
 304:App/Src/command.c **** 		if (CharToInt(command, num, &inNumber) == 0 ) {	return; }
 305:App/Src/command.c **** 		rtc.hour = inNumber % 100;
 306:App/Src/command.c **** 	}	
 307:App/Src/command.c **** 	num = strSearch(command, "min:");
 308:App/Src/command.c **** 	if (num != -1) {
 309:App/Src/command.c **** 		num += strlen("min:");
 310:App/Src/command.c **** 		if (CharToInt(command, num, &inNumber) == 0 ) {	return; }
 311:App/Src/command.c **** 		rtc.min = inNumber % 100;
 312:App/Src/command.c **** 	}	
 313:App/Src/command.c **** 	num = strSearch(command, "sec:");
 314:App/Src/command.c **** 	if (num != -1) {
ARM GAS  C:\Users\86158\AppData\Local\Temp\cc13CoIU.s 			page 7


 315:App/Src/command.c **** 		num += strlen("sec:");
 316:App/Src/command.c **** 		if (CharToInt(command, num, &inNumber) == 0 ) {	return; }
 317:App/Src/command.c **** 		rtc.sec = inNumber % 100;
 318:App/Src/command.c **** 	}
 319:App/Src/command.c **** 	system_set_real_time(rtc);
 320:App/Src/command.c **** 	UsbPrintf("date set success!\nOK!\r\n");
 321:App/Src/command.c **** }
 322:App/Src/command.c **** 
 323:App/Src/command.c **** void  AT_RTCCURRENT_Handle(char* command)
 324:App/Src/command.c **** {
 325:App/Src/command.c **** 	float cur;
 326:App/Src/command.c **** 	command = NULL;
 327:App/Src/command.c **** 	cur = CS1237Current();
 328:App/Src/command.c **** 	UsbPrintf("rtc current = %.1f nA\nOK\n", cur);
 329:App/Src/command.c **** }
 330:App/Src/command.c **** 
 331:App/Src/command.c **** void AT_GROUPSETTEMP_Handle(char* command)
 332:App/Src/command.c **** {
 333:App/Src/command.c **** 	command = NULL;
 334:App/Src/command.c **** 	UsbPrintf("system set rtc group temp config start......\n");
 335:App/Src/command.c **** 	log_printf("receive AT^GROUPSETTEMP, start rtc temp config test\n");
 336:App/Src/command.c **** 	system_manage_temp();
 337:App/Src/command.c **** }
 338:App/Src/command.c **** 
 339:App/Src/command.c **** 
 340:App/Src/command.c **** void AT_RTCVBAT_Handle(char* command)
 341:App/Src/command.c **** {
 342:App/Src/command.c **** 	int vbat;
 343:App/Src/command.c **** 	if (rtc_read_vbat(&vbat) != I2C_OK) {
 344:App/Src/command.c **** 		UsbPrintf("i2c error\n");
 345:App/Src/command.c **** 	} else {
 346:App/Src/command.c **** 		UsbPrintf("vbat = %d0mV\n", vbat);
 347:App/Src/command.c **** 	}
 348:App/Src/command.c **** }
 349:App/Src/command.c **** 
 350:App/Src/command.c **** void AT_RTC4096_Handle(char* command)
 351:App/Src/command.c **** {
 352:App/Src/command.c **** 	int inNumber;
 353:App/Src/command.c **** 	uint8_t result;
 354:App/Src/command.c **** 	if (CharToInt(command, 11, &inNumber) == 0 ) {
 355:App/Src/command.c **** 		UsbPrintf("input error\n");
 356:App/Src/command.c **** 		return;
 357:App/Src/command.c **** 	}
 358:App/Src/command.c **** 	
 359:App/Src/command.c **** 	if (inNumber > 0) {
 360:App/Src/command.c **** 		result = rtc_out_4096();
 361:App/Src/command.c **** 	} else {
 362:App/Src/command.c **** 		result = rtc_disable_int();
 363:App/Src/command.c **** 	}
 364:App/Src/command.c **** 	if (result == I2C_OK) {
 365:App/Src/command.c **** 		UsbPrintf("\nOK\n");
 366:App/Src/command.c **** 	} else {
 367:App/Src/command.c **** 		UsbPrintf("\niic error\n");
 368:App/Src/command.c **** 	}
 369:App/Src/command.c **** }
 370:App/Src/command.c **** 
 371:App/Src/command.c **** 
ARM GAS  C:\Users\86158\AppData\Local\Temp\cc13CoIU.s 			page 8


 372:App/Src/command.c **** void AT_RTCADJCAP_Handle(char* command)
 373:App/Src/command.c **** {
 374:App/Src/command.c **** 	// uint8_t osc_buf[2] = {0};
 375:App/Src/command.c **** 	// int high, low;
 376:App/Src/command.c **** 	// if (CharToInt(command, 13, &high) == 0 ) {
 377:App/Src/command.c **** 	// 	UsbPrintf("input error\n");
 378:App/Src/command.c **** 	// 	return;
 379:App/Src/command.c **** 	// }
 380:App/Src/command.c **** 	// CharToInt(command, strSearch(command, ",") + 1, &low);		
 381:App/Src/command.c **** 	// osc_buf[0] = low;
 382:App/Src/command.c **** 	// osc_buf[1] = high;
 383:App/Src/command.c **** 	// if (rtc_set_testcap(osc_buf) != I2C_OK) { //写ram22、ram23 
 384:App/Src/command.c **** 	// 	return;
 385:App/Src/command.c **** 	// }	
 386:App/Src/command.c **** 
 387:App/Src/command.c **** 	// UsbPrintf("adjust success, write cap:0x%02X, 0x%02X\n", osc_buf[1], osc_buf[0]);
 388:App/Src/command.c **** 
 389:App/Src/command.c **** 	uint8_t cap[2] = {0};
 390:App/Src/command.c **** 	int number = 0;
 391:App/Src/command.c **** 
 392:App/Src/command.c **** 	CharToInt(command, strSearch(command, "=") + 1, &number);
 393:App/Src/command.c **** 	if (number == 2000) {
 394:App/Src/command.c **** 		cap[0] = 0x00;
 395:App/Src/command.c **** 		cap[1] = 0x16;
 396:App/Src/command.c **** 	} else {
 397:App/Src/command.c **** 		cap_list_to_uint(number, cap);
 398:App/Src/command.c **** 	}
 399:App/Src/command.c **** 	if (rtc_set_testcap(cap) != I2C_OK) { //写ram22、ram23 
 400:App/Src/command.c **** 		UsbPrintf("cap adjust error\n");
 401:App/Src/command.c **** 	} else {
 402:App/Src/command.c **** 		UsbPrintf("cap set success\n");
 403:App/Src/command.c **** 	}
 404:App/Src/command.c **** 
 405:App/Src/command.c **** 	// rtc_freq_test(FREQ_TEST_STARTING);
 406:App/Src/command.c **** }
 407:App/Src/command.c **** 
 408:App/Src/command.c **** void AT_RTCMODE_Handle(char* command)
 409:App/Src/command.c **** {
 410:App/Src/command.c **** 	static uint8_t state = 1;
 411:App/Src/command.c **** 	state++;
 412:App/Src/command.c **** 
 413:App/Src/command.c **** 	if (state % 2) {
 414:App/Src/command.c **** 		UsbPrintf("VDD is 3.3V\n");
 415:App/Src/command.c **** 		HAL_GPIO_WritePin(GPIOE, GPIO_PIN_14, GPIO_PIN_RESET); 
 416:App/Src/command.c **** 	} else {
 417:App/Src/command.c **** 		UsbPrintf("VDD is 5V\n");
 418:App/Src/command.c **** 		HAL_GPIO_WritePin(GPIOE, GPIO_PIN_14, GPIO_PIN_SET); 
 419:App/Src/command.c **** 
 420:App/Src/command.c **** 	}
 421:App/Src/command.c **** 	UsbPrintf("OK\n");
 422:App/Src/command.c **** }
 423:App/Src/command.c **** 
 424:App/Src/command.c **** void AT_FREQTEST_Handle(char* command)
 425:App/Src/command.c **** {
 426:App/Src/command.c **** 	int i;
 427:App/Src/command.c **** 	DevicePrintf(":MEAS?\n");
 428:App/Src/command.c **** 	for (i = 0; i < 15; i++) {
ARM GAS  C:\Users\86158\AppData\Local\Temp\cc13CoIU.s 			page 9


 429:App/Src/command.c **** 		HAL_Delay(100);
 430:App/Src/command.c **** 		if (strSearch((char*)g_DeviceRxBuff, "Hz") > 0) {
 431:App/Src/command.c **** 			UsbPrintf("%s\n", (char*)g_DeviceRxBuff);
 432:App/Src/command.c **** 			break;
 433:App/Src/command.c **** 		}
 434:App/Src/command.c **** 	}
 435:App/Src/command.c **** 	if (i >= 15) {
 436:App/Src/command.c **** 		UsbPrintf("device no respose!\n");
 437:App/Src/command.c **** 	}
 438:App/Src/command.c **** 
 439:App/Src/command.c **** 	UsbPrintf("OK\n");
 440:App/Src/command.c **** }
 441:App/Src/command.c **** 
 442:App/Src/command.c **** void AT_READGROUP_Handle(char* command)
 443:App/Src/command.c **** {
 444:App/Src/command.c **** 	int channel;
 445:App/Src/command.c **** 	int i;
 446:App/Src/command.c ****     int reg, num = 0;
 447:App/Src/command.c **** 	uint8_t result[8] = {0};
 448:App/Src/command.c **** 	if (CharToInt(command, 13, &channel) == 1) {
 449:App/Src/command.c **** 		num = strSearch(command, ",");
 450:App/Src/command.c **** 		if (num < 0 || channel < 0) { UsbPrintf("input error\n"); return; }
 451:App/Src/command.c **** 		CharToInt(command, num + 1, &reg);
 452:App/Src/command.c **** 		rtc_group_power(channel, POWER_I2C);
 453:App/Src/command.c **** 		rtc_set_channel(channel, RTC_INIT_1006);
 454:App/Src/command.c **** 		// rtc_set_channel(channel, RTC_SD3078B);
 455:App/Src/command.c **** 		g_rtcChanenel = channel;
 456:App/Src/command.c **** 		HAL_Delay(10);
 457:App/Src/command.c **** 		rtc_read_multi_bytes(0x64, reg, result, 8);
 458:App/Src/command.c **** 		UsbPrintf("read group[%d] reg[0x%x]:", channel, reg);
 459:App/Src/command.c **** 		for (i = 0; i < 8; i++) {
 460:App/Src/command.c **** 			UsbPrintf("0x%02x ", result[i]);
 461:App/Src/command.c **** 		}
 462:App/Src/command.c **** 	}
 463:App/Src/command.c **** 
 464:App/Src/command.c **** }
 465:App/Src/command.c **** 
 466:App/Src/command.c **** void AT_SYSTEMP_Handle(char* command)
 467:App/Src/command.c **** {
 468:App/Src/command.c **** 	float temp;
 469:App/Src/command.c **** 	temp = temp_read_value(1);
 470:App/Src/command.c **** 	UsbPrintf("\nsystem temp = %.1fC:\n", temp);
 471:App/Src/command.c **** 	UsbPrintf("\nOK\n");
 472:App/Src/command.c **** }
 473:App/Src/command.c **** 
 474:App/Src/command.c **** 
 475:App/Src/command.c **** void AT_WRITEFLASH_Handle(char* command)
 476:App/Src/command.c **** {
 477:App/Src/command.c **** 	static uint8_t number = 0;
 478:App/Src/command.c **** 	command = NULL;
 479:App/Src/command.c **** 	number++;
 480:App/Src/command.c **** 	log_printf("2023.08.07 w25q128 flash log record test %03d\n", number);
 481:App/Src/command.c **** 	UsbPrintf("write OK\n");
 482:App/Src/command.c **** }
 483:App/Src/command.c **** 
 484:App/Src/command.c **** void AT_READFLASH_Handle(char* command)
 485:App/Src/command.c **** {
ARM GAS  C:\Users\86158\AppData\Local\Temp\cc13CoIU.s 			page 10


 486:App/Src/command.c **** 	int address;
 487:App/Src/command.c **** 	uint8_t str[256] = {0};
 488:App/Src/command.c **** 	int result;
 489:App/Src/command.c ****     int i;
 490:App/Src/command.c **** 	uint32_t pageCount;
 491:App/Src/command.c **** 
 492:App/Src/command.c **** 	if (strSearch(command, "=") > 0) {
 493:App/Src/command.c **** 		CharToInt(command, 13, &address);
 494:App/Src/command.c **** 		result = flash_read_data(address, str, 256);
 495:App/Src/command.c **** 		if (result == 1) {
 496:App/Src/command.c **** 			UsbPrintf("flash address[0x%x] print:\n%s\n", address, (char*)str);
 497:App/Src/command.c **** 		} else {
 498:App/Src/command.c **** 			UsbPrintf("read error %d\n", result);
 499:App/Src/command.c **** 		}
 500:App/Src/command.c **** 	} else {
 501:App/Src/command.c **** 		pageCount = get_log_record_pages();
 502:App/Src/command.c **** 		UsbPrintf("log use pages %d/%d:\n", pageCount, LOG_MAX_PAGE);
 503:App/Src/command.c **** 		for (i = 0; i < pageCount; i++) {
 504:App/Src/command.c **** 			flash_read_data(LOG_START_ADDR + i * PAGE_SIZE, str, PAGE_SIZE);
 505:App/Src/command.c **** 			UsbPrintf("%s\n", (char*)str);
 506:App/Src/command.c **** 		}
 507:App/Src/command.c **** 		UsbPrintf("all log print success\n"); 
 508:App/Src/command.c **** 	} 
 509:App/Src/command.c **** }
 510:App/Src/command.c **** void AT_ERASEFLASH_Handle(char* command)
 511:App/Src/command.c **** {
 512:App/Src/command.c **** 	int mode, address;
 513:App/Src/command.c **** 	int i = 0;
 514:App/Src/command.c **** 	if (CharToInt(command, 14, &mode) == 1) {
 515:App/Src/command.c **** 		CharToInt(command, strSearch(command, ",") + 1, &address);
 516:App/Src/command.c **** 		if (mode >= 0 && mode <= 2) {
 517:App/Src/command.c **** 			flash_erase(address, mode);
 518:App/Src/command.c **** 			UsbPrintf("earse full chip need 40s ~ 200s\n");
 519:App/Src/command.c **** 			if (mode == 0) { 
 520:App/Src/command.c **** 				for (i = 0; i < 100; i++) {
 521:App/Src/command.c **** 					HAL_Delay(2000);
 522:App/Src/command.c **** 					UsbPrintf("wait for %ds...\n", (i + 1) * 2);
 523:App/Src/command.c **** 					if (CheckBusy() == 1) {
 524:App/Src/command.c **** 						break;
 525:App/Src/command.c **** 					}
 526:App/Src/command.c **** 				}
 527:App/Src/command.c **** 				log_list_init(); 
 528:App/Src/command.c **** 			}
 529:App/Src/command.c **** 			UsbPrintf("OK\n");
 530:App/Src/command.c **** 		}
 531:App/Src/command.c **** 	} else {
 532:App/Src/command.c **** 		UsbPrintf("input error!\n");
 533:App/Src/command.c **** 	} 
 534:App/Src/command.c **** }
 535:App/Src/command.c **** 
 536:App/Src/command.c **** void AT_SETCURRENT_Handle(char* command)
 537:App/Src/command.c **** {
 538:App/Src/command.c **** 	int mode, number;
 539:App/Src/command.c **** 	if (CharToInt(command, 14, &mode) == 1) {
 540:App/Src/command.c **** 		CharToInt(command, strSearch(command, ",") + 1, &number);
 541:App/Src/command.c **** 		if (mode == 0) {
 542:App/Src/command.c **** 			rtc_group_power(number, POWER_OFF);
ARM GAS  C:\Users\86158\AppData\Local\Temp\cc13CoIU.s 			page 11


 543:App/Src/command.c **** 		} else if (mode == 1) {
 544:App/Src/command.c **** 			HAL_Delay(5);
 545:App/Src/command.c **** 			rtc_group_power(number, POWER_VDD_I);
 546:App/Src/command.c **** 		} else if (mode == 2) {
 547:App/Src/command.c **** 			HAL_Delay(5);
 548:App/Src/command.c **** 			rtc_group_power(number, POWER_BAT_I);
 549:App/Src/command.c **** 		}
 550:App/Src/command.c **** 		UsbPrintf("current setting :mode %d, channel %d \nOK!\n", mode, number);
 551:App/Src/command.c **** 	} else {
 552:App/Src/command.c **** 		UsbPrintf("input error!\n");
 553:App/Src/command.c **** 	} 
 554:App/Src/command.c **** }
 555:App/Src/command.c **** void AT_SYSVOLTAGE_Handle(char* command)
 556:App/Src/command.c **** {
 557:App/Src/command.c **** 	uint32_t voltage;
 558:App/Src/command.c **** 	voltage = ststem_voltage(0) * 3300 * 4.6 / 4096;
 559:App/Src/command.c **** 	UsbPrintf("\n3.3V\t: %dmV\n", voltage);
 560:App/Src/command.c **** 	voltage = ststem_voltage(1) * 3300 * 4.6 / 4096;
 561:App/Src/command.c **** 	UsbPrintf("VCE\t: %dmV\n", voltage);
 562:App/Src/command.c **** 	voltage = ststem_voltage(8) * 3300 * 4.6 / 4096;
 563:App/Src/command.c **** 	UsbPrintf("5V\t: %dmV\n", voltage);
 564:App/Src/command.c **** 	voltage = ststem_voltage(9) * 3300 * 4.6 / 4096;
 565:App/Src/command.c **** 	UsbPrintf("9V\t: %dmV\n", voltage);
 566:App/Src/command.c **** 	UsbPrintf("OK\n");
 567:App/Src/command.c **** }
 568:App/Src/command.c **** 
 569:App/Src/command.c **** void AT_SYSTEST_Handle(char* command)
 570:App/Src/command.c **** {
 571:App/Src/command.c **** 	int number;
 572:App/Src/command.c **** 	if (CharToInt(command, 11, &number) == 1) {
 573:App/Src/command.c **** 		if (number < FREE_MODE || number > MACHINE_WRITE) {
 574:App/Src/command.c **** 			UsbPrintf("no this test mode!\n");
 575:App/Src/command.c **** 			return;
 576:App/Src/command.c **** 		}
 577:App/Src/command.c **** 		manager_set_mode(number);
 578:App/Src/command.c **** 	}
 579:App/Src/command.c **** 	UsbPrintf("\nOK\n");
 580:App/Src/command.c **** }
 581:App/Src/command.c **** 
 582:App/Src/command.c **** void AT_TESTMODE_Handle(char* command)//取料机查询状态
 583:App/Src/command.c **** {
  30              		.loc 1 583 1 view -0
  31              		.cfi_startproc
  32              		@ args = 0, pretend = 0, frame = 0
  33              		@ frame_needed = 0, uses_anonymous_args = 0
  34              		@ link register save eliminated.
 584:App/Src/command.c **** 
 585:App/Src/command.c **** }
  35              		.loc 1 585 1 view .LVU1
  36 0000 7047     		bx	lr
  37              		.cfi_endproc
  38              	.LFE263:
  40              		.section	.text.AT_RESULT_Handle,"ax",%progbits
  41              		.align	1
  42              		.global	AT_RESULT_Handle
  43              		.syntax unified
  44              		.thumb
ARM GAS  C:\Users\86158\AppData\Local\Temp\cc13CoIU.s 			page 12


  45              		.thumb_func
  47              	AT_RESULT_Handle:
  48              	.LVL1:
  49              	.LFB264:
 586:App/Src/command.c **** 
 587:App/Src/command.c **** 
 588:App/Src/command.c **** void AT_RESULT_Handle(char* command)//取料机查询信息
 589:App/Src/command.c **** {
  50              		.loc 1 589 1 view -0
  51              		.cfi_startproc
  52              		@ args = 0, pretend = 0, frame = 0
  53              		@ frame_needed = 0, uses_anonymous_args = 0
  54              		@ link register save eliminated.
 590:App/Src/command.c **** 
 591:App/Src/command.c **** }
  55              		.loc 1 591 1 view .LVU3
  56 0000 7047     		bx	lr
  57              		.cfi_endproc
  58              	.LFE264:
  60              		.section	.text.AT_WRITECONFIG_Handle,"ax",%progbits
  61              		.align	1
  62              		.global	AT_WRITECONFIG_Handle
  63              		.syntax unified
  64              		.thumb
  65              		.thumb_func
  67              	AT_WRITECONFIG_Handle:
  68              	.LVL2:
  69              	.LFB265:
 592:App/Src/command.c **** 
 593:App/Src/command.c **** void AT_WRITECONFIG_Handle(char* command)//暂时调试使用20231109
 594:App/Src/command.c **** {
  70              		.loc 1 594 1 view -0
  71              		.cfi_startproc
  72              		@ args = 0, pretend = 0, frame = 0
  73              		@ frame_needed = 0, uses_anonymous_args = 0
  74              		@ link register save eliminated.
 595:App/Src/command.c **** 
 596:App/Src/command.c **** }
  75              		.loc 1 596 1 view .LVU5
  76 0000 7047     		bx	lr
  77              		.cfi_endproc
  78              	.LFE265:
  80              		.section	.text.UsbPrintf,"ax",%progbits
  81              		.align	1
  82              		.global	UsbPrintf
  83              		.syntax unified
  84              		.thumb
  85              		.thumb_func
  87              	UsbPrintf:
  88              	.LVL3:
  89              	.LFB238:
  80:App/Src/command.c **** 	va_list ap;//
  90              		.loc 1 80 1 view -0
  91              		.cfi_startproc
  92              		@ args = 4, pretend = 16, frame = 8
  93              		@ frame_needed = 0, uses_anonymous_args = 1
  80:App/Src/command.c **** 	va_list ap;//
ARM GAS  C:\Users\86158\AppData\Local\Temp\cc13CoIU.s 			page 13


  94              		.loc 1 80 1 is_stmt 0 view .LVU7
  95 0000 0FB4     		push	{r0, r1, r2, r3}
  96              	.LCFI0:
  97              		.cfi_def_cfa_offset 16
  98              		.cfi_offset 0, -16
  99              		.cfi_offset 1, -12
 100              		.cfi_offset 2, -8
 101              		.cfi_offset 3, -4
 102 0002 F0B5     		push	{r4, r5, r6, r7, lr}
 103              	.LCFI1:
 104              		.cfi_def_cfa_offset 36
 105              		.cfi_offset 4, -36
 106              		.cfi_offset 5, -32
 107              		.cfi_offset 6, -28
 108              		.cfi_offset 7, -24
 109              		.cfi_offset 14, -20
 110 0004 83B0     		sub	sp, sp, #12
 111              	.LCFI2:
 112              		.cfi_def_cfa_offset 48
 113 0006 08AD     		add	r5, sp, #32
 114 0008 55F8047B 		ldr	r7, [r5], #4
  81:App/Src/command.c **** 	memset(g_UsbTxBuff, 0, UART_TRANSMIT_BUFF_NUMBER);
 115              		.loc 1 81 2 is_stmt 1 view .LVU8
  82:App/Src/command.c **** 	va_start(ap, fmt);//
 116              		.loc 1 82 2 view .LVU9
 117 000c 0E4C     		ldr	r4, .L6
 118 000e 4FF49676 		mov	r6, #300
 119 0012 3246     		mov	r2, r6
 120 0014 0021     		movs	r1, #0
 121 0016 2046     		mov	r0, r4
 122 0018 FFF7FEFF 		bl	memset
 123              	.LVL4:
  83:App/Src/command.c **** 	vsnprintf((char*)g_UsbTxBuff, UART_TRANSMIT_BUFF_NUMBER, fmt, ap);//
 124              		.loc 1 83 2 view .LVU10
 125 001c 0195     		str	r5, [sp, #4]
  84:App/Src/command.c **** 	va_end(ap);
 126              		.loc 1 84 2 view .LVU11
 127 001e 2B46     		mov	r3, r5
 128 0020 3A46     		mov	r2, r7
 129 0022 3146     		mov	r1, r6
 130 0024 2046     		mov	r0, r4
 131 0026 FFF7FEFF 		bl	vsnprintf
 132              	.LVL5:
  85:App/Src/command.c **** 	HAL_UART_Transmit(&huart1, g_UsbTxBuff, strlen((char*)g_UsbTxBuff), 1000);
 133              		.loc 1 85 2 view .LVU12
  86:App/Src/command.c **** }
 134              		.loc 1 86 2 view .LVU13
  86:App/Src/command.c **** }
 135              		.loc 1 86 42 is_stmt 0 view .LVU14
 136 002a 2046     		mov	r0, r4
 137 002c FFF7FEFF 		bl	strlen
 138              	.LVL6:
  86:App/Src/command.c **** }
 139              		.loc 1 86 2 view .LVU15
 140 0030 4FF47A73 		mov	r3, #1000
 141 0034 82B2     		uxth	r2, r0
 142 0036 2146     		mov	r1, r4
ARM GAS  C:\Users\86158\AppData\Local\Temp\cc13CoIU.s 			page 14


 143 0038 0448     		ldr	r0, .L6+4
 144 003a FFF7FEFF 		bl	HAL_UART_Transmit
 145              	.LVL7:
  87:App/Src/command.c **** 
 146              		.loc 1 87 1 view .LVU16
 147 003e 03B0     		add	sp, sp, #12
 148              	.LCFI3:
 149              		.cfi_def_cfa_offset 36
 150              		@ sp needed
 151 0040 BDE8F040 		pop	{r4, r5, r6, r7, lr}
 152              	.LCFI4:
 153              		.cfi_restore 14
 154              		.cfi_restore 7
 155              		.cfi_restore 6
 156              		.cfi_restore 5
 157              		.cfi_restore 4
 158              		.cfi_def_cfa_offset 16
 159 0044 04B0     		add	sp, sp, #16
 160              	.LCFI5:
 161              		.cfi_restore 3
 162              		.cfi_restore 2
 163              		.cfi_restore 1
 164              		.cfi_restore 0
 165              		.cfi_def_cfa_offset 0
 166 0046 7047     		bx	lr
 167              	.L7:
 168              		.align	2
 169              	.L6:
 170 0048 00000000 		.word	.LANCHOR0
 171 004c 00000000 		.word	huart1
 172              		.cfi_endproc
 173              	.LFE238:
 175              		.section	.rodata.AT_HELP_Handle.str1.4,"aMS",%progbits,1
 176              		.align	2
 177              	.LC0:
 178 0000 25642E20 		.ascii	"%d. %s\012\000"
 178      25730A00 
 179              		.align	2
 180              	.LC1:
 181 0008 636F6D6D 		.ascii	"command number: %d\012\000"
 181      616E6420 
 181      6E756D62 
 181      65723A20 
 181      25640A00 
 182              		.section	.text.AT_HELP_Handle,"ax",%progbits
 183              		.align	1
 184              		.global	AT_HELP_Handle
 185              		.syntax unified
 186              		.thumb
 187              		.thumb_func
 189              	AT_HELP_Handle:
 190              	.LVL8:
 191              	.LFB244:
 243:App/Src/command.c ****     int i = 0, number = 0;
 192              		.loc 1 243 1 is_stmt 1 view -0
 193              		.cfi_startproc
 194              		@ args = 0, pretend = 0, frame = 0
ARM GAS  C:\Users\86158\AppData\Local\Temp\cc13CoIU.s 			page 15


 195              		@ frame_needed = 0, uses_anonymous_args = 0
 243:App/Src/command.c ****     int i = 0, number = 0;
 196              		.loc 1 243 1 is_stmt 0 view .LVU18
 197 0000 38B5     		push	{r3, r4, r5, lr}
 198              	.LCFI6:
 199              		.cfi_def_cfa_offset 16
 200              		.cfi_offset 3, -16
 201              		.cfi_offset 4, -12
 202              		.cfi_offset 5, -8
 203              		.cfi_offset 14, -4
 244:App/Src/command.c ****     command = NULL;
 204              		.loc 1 244 5 is_stmt 1 view .LVU19
 205              	.LVL9:
 245:App/Src/command.c ****     for (i = 0; i < MAX_COMMAND_NUMBER; i++) {
 206              		.loc 1 245 5 view .LVU20
 246:App/Src/command.c **** 		if (strlen(CommandList[i]) > 0) {
 207              		.loc 1 246 5 view .LVU21
 244:App/Src/command.c ****     command = NULL;
 208              		.loc 1 244 16 is_stmt 0 view .LVU22
 209 0002 0025     		movs	r5, #0
 246:App/Src/command.c **** 		if (strlen(CommandList[i]) > 0) {
 210              		.loc 1 246 12 view .LVU23
 211 0004 2C46     		mov	r4, r5
 246:App/Src/command.c **** 		if (strlen(CommandList[i]) > 0) {
 212              		.loc 1 246 5 view .LVU24
 213 0006 00E0     		b	.L9
 214              	.LVL10:
 215              	.L10:
 246:App/Src/command.c **** 		if (strlen(CommandList[i]) > 0) {
 216              		.loc 1 246 41 is_stmt 1 discriminator 2 view .LVU25
 246:App/Src/command.c **** 		if (strlen(CommandList[i]) > 0) {
 217              		.loc 1 246 42 is_stmt 0 discriminator 2 view .LVU26
 218 0008 0134     		adds	r4, r4, #1
 219              	.LVL11:
 220              	.L9:
 246:App/Src/command.c **** 		if (strlen(CommandList[i]) > 0) {
 221              		.loc 1 246 17 is_stmt 1 discriminator 1 view .LVU27
 246:App/Src/command.c **** 		if (strlen(CommandList[i]) > 0) {
 222              		.loc 1 246 5 is_stmt 0 discriminator 1 view .LVU28
 223 000a 272C     		cmp	r4, #39
 224 000c 0DDC     		bgt	.L13
 247:App/Src/command.c ****         	UsbPrintf("%d. %s\n", number, CommandList[i]);
 225              		.loc 1 247 3 is_stmt 1 view .LVU29
 247:App/Src/command.c ****         	UsbPrintf("%d. %s\n", number, CommandList[i]);
 226              		.loc 1 247 25 is_stmt 0 view .LVU30
 227 000e 0949     		ldr	r1, .L14
 228 0010 04EB8402 		add	r2, r4, r4, lsl #2
 229 0014 9300     		lsls	r3, r2, #2
 230 0016 CA18     		adds	r2, r1, r3
 247:App/Src/command.c ****         	UsbPrintf("%d. %s\n", number, CommandList[i]);
 231              		.loc 1 247 30 view .LVU31
 232 0018 CB5C     		ldrb	r3, [r1, r3]	@ zero_extendqisi2
 247:App/Src/command.c ****         	UsbPrintf("%d. %s\n", number, CommandList[i]);
 233              		.loc 1 247 6 view .LVU32
 234 001a 002B     		cmp	r3, #0
 235 001c F4D0     		beq	.L10
 248:App/Src/command.c **** 			number++;
ARM GAS  C:\Users\86158\AppData\Local\Temp\cc13CoIU.s 			page 16


 236              		.loc 1 248 10 is_stmt 1 view .LVU33
 237 001e 2946     		mov	r1, r5
 238 0020 0548     		ldr	r0, .L14+4
 239 0022 FFF7FEFF 		bl	UsbPrintf
 240              	.LVL12:
 249:App/Src/command.c **** 		}
 241              		.loc 1 249 4 view .LVU34
 249:App/Src/command.c **** 		}
 242              		.loc 1 249 10 is_stmt 0 view .LVU35
 243 0026 0135     		adds	r5, r5, #1
 244              	.LVL13:
 249:App/Src/command.c **** 		}
 245              		.loc 1 249 10 view .LVU36
 246 0028 EEE7     		b	.L10
 247              	.L13:
 252:App/Src/command.c **** }
 248              		.loc 1 252 2 is_stmt 1 view .LVU37
 249 002a 2946     		mov	r1, r5
 250 002c 0348     		ldr	r0, .L14+8
 251 002e FFF7FEFF 		bl	UsbPrintf
 252              	.LVL14:
 253:App/Src/command.c **** 
 253              		.loc 1 253 1 is_stmt 0 view .LVU38
 254 0032 38BD     		pop	{r3, r4, r5, pc}
 255              	.LVL15:
 256              	.L15:
 253:App/Src/command.c **** 
 257              		.loc 1 253 1 view .LVU39
 258              		.align	2
 259              	.L14:
 260 0034 00000000 		.word	.LANCHOR1
 261 0038 00000000 		.word	.LC0
 262 003c 08000000 		.word	.LC1
 263              		.cfi_endproc
 264              	.LFE244:
 266              		.section	.rodata.AT_REALTIME_Handle.str1.4,"aMS",%progbits,1
 267              		.align	2
 268              	.LC2:
 269 0000 0A323025 		.ascii	"\01220%d/%d/%d %d:%d:%d\012\000"
 269      642F2564 
 269      2F256420 
 269      25643A25 
 269      643A2564 
 270              		.section	.text.AT_REALTIME_Handle,"ax",%progbits
 271              		.align	1
 272              		.global	AT_REALTIME_Handle
 273              		.syntax unified
 274              		.thumb
 275              		.thumb_func
 277              	AT_REALTIME_Handle:
 278              	.LVL16:
 279              	.LFB245:
 256:App/Src/command.c **** 	RealTime rtc = {0};
 280              		.loc 1 256 1 is_stmt 1 view -0
 281              		.cfi_startproc
 282              		@ args = 0, pretend = 0, frame = 8
 283              		@ frame_needed = 0, uses_anonymous_args = 0
ARM GAS  C:\Users\86158\AppData\Local\Temp\cc13CoIU.s 			page 17


 256:App/Src/command.c **** 	RealTime rtc = {0};
 284              		.loc 1 256 1 is_stmt 0 view .LVU41
 285 0000 00B5     		push	{lr}
 286              	.LCFI7:
 287              		.cfi_def_cfa_offset 4
 288              		.cfi_offset 14, -4
 289 0002 87B0     		sub	sp, sp, #28
 290              	.LCFI8:
 291              		.cfi_def_cfa_offset 32
 257:App/Src/command.c **** 	system_get_real_time(&rtc);
 292              		.loc 1 257 2 is_stmt 1 view .LVU42
 257:App/Src/command.c **** 	system_get_real_time(&rtc);
 293              		.loc 1 257 11 is_stmt 0 view .LVU43
 294 0004 0023     		movs	r3, #0
 295 0006 0493     		str	r3, [sp, #16]
 296 0008 0593     		str	r3, [sp, #20]
 258:App/Src/command.c **** 	UsbPrintf("\n20%d/%d/%d %d:%d:%d\n", rtc.year, rtc.mon, rtc.day, rtc.hour, rtc.min, rtc.sec);
 297              		.loc 1 258 2 is_stmt 1 view .LVU44
 298 000a 04A8     		add	r0, sp, #16
 299              	.LVL17:
 258:App/Src/command.c **** 	UsbPrintf("\n20%d/%d/%d %d:%d:%d\n", rtc.year, rtc.mon, rtc.day, rtc.hour, rtc.min, rtc.sec);
 300              		.loc 1 258 2 is_stmt 0 view .LVU45
 301 000c FFF7FEFF 		bl	system_get_real_time
 302              	.LVL18:
 259:App/Src/command.c **** }
 303              		.loc 1 259 2 is_stmt 1 view .LVU46
 259:App/Src/command.c **** }
 304              		.loc 1 259 70 is_stmt 0 view .LVU47
 305 0010 9DF81330 		ldrb	r3, [sp, #19]	@ zero_extendqisi2
 259:App/Src/command.c **** }
 306              		.loc 1 259 80 view .LVU48
 307 0014 9DF81420 		ldrb	r2, [sp, #20]	@ zero_extendqisi2
 259:App/Src/command.c **** }
 308              		.loc 1 259 89 view .LVU49
 309 0018 9DF81510 		ldrb	r1, [sp, #21]	@ zero_extendqisi2
 259:App/Src/command.c **** }
 310              		.loc 1 259 2 view .LVU50
 311 001c 0291     		str	r1, [sp, #8]
 312 001e 0192     		str	r2, [sp, #4]
 313 0020 0093     		str	r3, [sp]
 314 0022 9DF81230 		ldrb	r3, [sp, #18]	@ zero_extendqisi2
 315 0026 9DF81120 		ldrb	r2, [sp, #17]	@ zero_extendqisi2
 316 002a 9DF81010 		ldrb	r1, [sp, #16]	@ zero_extendqisi2
 317 002e 0348     		ldr	r0, .L18
 318 0030 FFF7FEFF 		bl	UsbPrintf
 319              	.LVL19:
 260:App/Src/command.c **** 
 320              		.loc 1 260 1 view .LVU51
 321 0034 07B0     		add	sp, sp, #28
 322              	.LCFI9:
 323              		.cfi_def_cfa_offset 4
 324              		@ sp needed
 325 0036 5DF804FB 		ldr	pc, [sp], #4
 326              	.L19:
 327 003a 00BF     		.align	2
 328              	.L18:
 329 003c 00000000 		.word	.LC2
ARM GAS  C:\Users\86158\AppData\Local\Temp\cc13CoIU.s 			page 18


 330              		.cfi_endproc
 331              	.LFE245:
 333              		.global	__aeabi_f2d
 334              		.section	.rodata.AT_RTCCURRENT_Handle.str1.4,"aMS",%progbits,1
 335              		.align	2
 336              	.LC3:
 337 0000 72746320 		.ascii	"rtc current = %.1f nA\012OK\012\000"
 337      63757272 
 337      656E7420 
 337      3D20252E 
 337      3166206E 
 338              		.section	.text.AT_RTCCURRENT_Handle,"ax",%progbits
 339              		.align	1
 340              		.global	AT_RTCCURRENT_Handle
 341              		.syntax unified
 342              		.thumb
 343              		.thumb_func
 345              	AT_RTCCURRENT_Handle:
 346              	.LVL20:
 347              	.LFB248:
 324:App/Src/command.c **** 	float cur;
 348              		.loc 1 324 1 is_stmt 1 view -0
 349              		.cfi_startproc
 350              		@ args = 0, pretend = 0, frame = 0
 351              		@ frame_needed = 0, uses_anonymous_args = 0
 324:App/Src/command.c **** 	float cur;
 352              		.loc 1 324 1 is_stmt 0 view .LVU53
 353 0000 08B5     		push	{r3, lr}
 354              	.LCFI10:
 355              		.cfi_def_cfa_offset 8
 356              		.cfi_offset 3, -8
 357              		.cfi_offset 14, -4
 325:App/Src/command.c **** 	command = NULL;
 358              		.loc 1 325 2 is_stmt 1 view .LVU54
 326:App/Src/command.c **** 	cur = CS1237Current();
 359              		.loc 1 326 2 view .LVU55
 360              	.LVL21:
 327:App/Src/command.c **** 	UsbPrintf("rtc current = %.1f nA\nOK\n", cur);
 361              		.loc 1 327 2 view .LVU56
 327:App/Src/command.c **** 	UsbPrintf("rtc current = %.1f nA\nOK\n", cur);
 362              		.loc 1 327 8 is_stmt 0 view .LVU57
 363 0002 FFF7FEFF 		bl	CS1237Current
 364              	.LVL22:
 365 0006 10EE100A 		vmov	r0, s0
 366              	.LVL23:
 328:App/Src/command.c **** }
 367              		.loc 1 328 2 is_stmt 1 view .LVU58
 368 000a FFF7FEFF 		bl	__aeabi_f2d
 369              	.LVL24:
 328:App/Src/command.c **** }
 370              		.loc 1 328 2 is_stmt 0 view .LVU59
 371 000e 0246     		mov	r2, r0
 372 0010 0B46     		mov	r3, r1
 373 0012 0248     		ldr	r0, .L22
 374 0014 FFF7FEFF 		bl	UsbPrintf
 375              	.LVL25:
 329:App/Src/command.c **** 
ARM GAS  C:\Users\86158\AppData\Local\Temp\cc13CoIU.s 			page 19


 376              		.loc 1 329 1 view .LVU60
 377 0018 08BD     		pop	{r3, pc}
 378              	.L23:
 379 001a 00BF     		.align	2
 380              	.L22:
 381 001c 00000000 		.word	.LC3
 382              		.cfi_endproc
 383              	.LFE248:
 385              		.section	.rodata.AT_GROUPSETTEMP_Handle.str1.4,"aMS",%progbits,1
 386              		.align	2
 387              	.LC4:
 388 0000 73797374 		.ascii	"system set rtc group temp config start......\012\000"
 388      656D2073 
 388      65742072 
 388      74632067 
 388      726F7570 
 389 002e 0000     		.align	2
 390              	.LC5:
 391 0030 72656365 		.ascii	"receive AT^GROUPSETTEMP, start rtc temp config test"
 391      69766520 
 391      41545E47 
 391      524F5550 
 391      53455454 
 392 0063 0A00     		.ascii	"\012\000"
 393              		.section	.text.AT_GROUPSETTEMP_Handle,"ax",%progbits
 394              		.align	1
 395              		.global	AT_GROUPSETTEMP_Handle
 396              		.syntax unified
 397              		.thumb
 398              		.thumb_func
 400              	AT_GROUPSETTEMP_Handle:
 401              	.LVL26:
 402              	.LFB249:
 332:App/Src/command.c **** 	command = NULL;
 403              		.loc 1 332 1 is_stmt 1 view -0
 404              		.cfi_startproc
 405              		@ args = 0, pretend = 0, frame = 0
 406              		@ frame_needed = 0, uses_anonymous_args = 0
 332:App/Src/command.c **** 	command = NULL;
 407              		.loc 1 332 1 is_stmt 0 view .LVU62
 408 0000 08B5     		push	{r3, lr}
 409              	.LCFI11:
 410              		.cfi_def_cfa_offset 8
 411              		.cfi_offset 3, -8
 412              		.cfi_offset 14, -4
 333:App/Src/command.c **** 	UsbPrintf("system set rtc group temp config start......\n");
 413              		.loc 1 333 2 is_stmt 1 view .LVU63
 414              	.LVL27:
 334:App/Src/command.c **** 	log_printf("receive AT^GROUPSETTEMP, start rtc temp config test\n");
 415              		.loc 1 334 2 view .LVU64
 416 0002 0448     		ldr	r0, .L26
 417 0004 FFF7FEFF 		bl	UsbPrintf
 418              	.LVL28:
 335:App/Src/command.c **** 	system_manage_temp();
 419              		.loc 1 335 2 view .LVU65
 420 0008 0348     		ldr	r0, .L26+4
 421 000a FFF7FEFF 		bl	log_printf
ARM GAS  C:\Users\86158\AppData\Local\Temp\cc13CoIU.s 			page 20


 422              	.LVL29:
 336:App/Src/command.c **** }
 423              		.loc 1 336 2 view .LVU66
 424 000e FFF7FEFF 		bl	system_manage_temp
 425              	.LVL30:
 337:App/Src/command.c **** 
 426              		.loc 1 337 1 is_stmt 0 view .LVU67
 427 0012 08BD     		pop	{r3, pc}
 428              	.L27:
 429              		.align	2
 430              	.L26:
 431 0014 00000000 		.word	.LC4
 432 0018 30000000 		.word	.LC5
 433              		.cfi_endproc
 434              	.LFE249:
 436              		.section	.rodata.AT_RTCVBAT_Handle.str1.4,"aMS",%progbits,1
 437              		.align	2
 438              	.LC6:
 439 0000 69326320 		.ascii	"i2c error\012\000"
 439      6572726F 
 439      720A00
 440 000b 00       		.align	2
 441              	.LC7:
 442 000c 76626174 		.ascii	"vbat = %d0mV\012\000"
 442      203D2025 
 442      64306D56 
 442      0A00
 443              		.section	.text.AT_RTCVBAT_Handle,"ax",%progbits
 444              		.align	1
 445              		.global	AT_RTCVBAT_Handle
 446              		.syntax unified
 447              		.thumb
 448              		.thumb_func
 450              	AT_RTCVBAT_Handle:
 451              	.LVL31:
 452              	.LFB250:
 341:App/Src/command.c **** 	int vbat;
 453              		.loc 1 341 1 is_stmt 1 view -0
 454              		.cfi_startproc
 455              		@ args = 0, pretend = 0, frame = 8
 456              		@ frame_needed = 0, uses_anonymous_args = 0
 341:App/Src/command.c **** 	int vbat;
 457              		.loc 1 341 1 is_stmt 0 view .LVU69
 458 0000 00B5     		push	{lr}
 459              	.LCFI12:
 460              		.cfi_def_cfa_offset 4
 461              		.cfi_offset 14, -4
 462 0002 83B0     		sub	sp, sp, #12
 463              	.LCFI13:
 464              		.cfi_def_cfa_offset 16
 342:App/Src/command.c **** 	if (rtc_read_vbat(&vbat) != I2C_OK) {
 465              		.loc 1 342 2 is_stmt 1 view .LVU70
 343:App/Src/command.c **** 		UsbPrintf("i2c error\n");
 466              		.loc 1 343 2 view .LVU71
 343:App/Src/command.c **** 		UsbPrintf("i2c error\n");
 467              		.loc 1 343 6 is_stmt 0 view .LVU72
 468 0004 01A8     		add	r0, sp, #4
ARM GAS  C:\Users\86158\AppData\Local\Temp\cc13CoIU.s 			page 21


 469              	.LVL32:
 343:App/Src/command.c **** 		UsbPrintf("i2c error\n");
 470              		.loc 1 343 6 view .LVU73
 471 0006 FFF7FEFF 		bl	rtc_read_vbat
 472              	.LVL33:
 343:App/Src/command.c **** 		UsbPrintf("i2c error\n");
 473              		.loc 1 343 5 view .LVU74
 474 000a 28B1     		cbz	r0, .L29
 344:App/Src/command.c **** 	} else {
 475              		.loc 1 344 3 is_stmt 1 view .LVU75
 476 000c 0548     		ldr	r0, .L32
 477 000e FFF7FEFF 		bl	UsbPrintf
 478              	.LVL34:
 479              	.L28:
 348:App/Src/command.c **** 
 480              		.loc 1 348 1 is_stmt 0 view .LVU76
 481 0012 03B0     		add	sp, sp, #12
 482              	.LCFI14:
 483              		.cfi_remember_state
 484              		.cfi_def_cfa_offset 4
 485              		@ sp needed
 486 0014 5DF804FB 		ldr	pc, [sp], #4
 487              	.L29:
 488              	.LCFI15:
 489              		.cfi_restore_state
 346:App/Src/command.c **** 	}
 490              		.loc 1 346 3 is_stmt 1 view .LVU77
 491 0018 0199     		ldr	r1, [sp, #4]
 492 001a 0348     		ldr	r0, .L32+4
 493 001c FFF7FEFF 		bl	UsbPrintf
 494              	.LVL35:
 348:App/Src/command.c **** 
 495              		.loc 1 348 1 is_stmt 0 view .LVU78
 496 0020 F7E7     		b	.L28
 497              	.L33:
 498 0022 00BF     		.align	2
 499              	.L32:
 500 0024 00000000 		.word	.LC6
 501 0028 0C000000 		.word	.LC7
 502              		.cfi_endproc
 503              	.LFE250:
 505              		.section	.rodata.AT_RTCMODE_Handle.str1.4,"aMS",%progbits,1
 506              		.align	2
 507              	.LC8:
 508 0000 56444420 		.ascii	"VDD is 3.3V\012\000"
 508      69732033 
 508      2E33560A 
 508      00
 509 000d 000000   		.align	2
 510              	.LC9:
 511 0010 56444420 		.ascii	"VDD is 5V\012\000"
 511      69732035 
 511      560A00
 512 001b 00       		.align	2
 513              	.LC10:
 514 001c 4F4B0A00 		.ascii	"OK\012\000"
 515              		.section	.text.AT_RTCMODE_Handle,"ax",%progbits
ARM GAS  C:\Users\86158\AppData\Local\Temp\cc13CoIU.s 			page 22


 516              		.align	1
 517              		.global	AT_RTCMODE_Handle
 518              		.syntax unified
 519              		.thumb
 520              		.thumb_func
 522              	AT_RTCMODE_Handle:
 523              	.LVL36:
 524              	.LFB253:
 409:App/Src/command.c **** 	static uint8_t state = 1;
 525              		.loc 1 409 1 is_stmt 1 view -0
 526              		.cfi_startproc
 527              		@ args = 0, pretend = 0, frame = 0
 528              		@ frame_needed = 0, uses_anonymous_args = 0
 409:App/Src/command.c **** 	static uint8_t state = 1;
 529              		.loc 1 409 1 is_stmt 0 view .LVU80
 530 0000 08B5     		push	{r3, lr}
 531              	.LCFI16:
 532              		.cfi_def_cfa_offset 8
 533              		.cfi_offset 3, -8
 534              		.cfi_offset 14, -4
 410:App/Src/command.c **** 	state++;
 535              		.loc 1 410 2 is_stmt 1 view .LVU81
 411:App/Src/command.c **** 
 536              		.loc 1 411 2 view .LVU82
 411:App/Src/command.c **** 
 537              		.loc 1 411 7 is_stmt 0 view .LVU83
 538 0002 0F4A     		ldr	r2, .L38
 539 0004 1378     		ldrb	r3, [r2]	@ zero_extendqisi2
 540 0006 0133     		adds	r3, r3, #1
 541 0008 DBB2     		uxtb	r3, r3
 542 000a 1370     		strb	r3, [r2]
 413:App/Src/command.c **** 		UsbPrintf("VDD is 3.3V\n");
 543              		.loc 1 413 2 is_stmt 1 view .LVU84
 413:App/Src/command.c **** 		UsbPrintf("VDD is 3.3V\n");
 544              		.loc 1 413 5 is_stmt 0 view .LVU85
 545 000c 13F0010F 		tst	r3, #1
 546 0010 0CD0     		beq	.L35
 414:App/Src/command.c **** 		HAL_GPIO_WritePin(GPIOE, GPIO_PIN_14, GPIO_PIN_RESET); 
 547              		.loc 1 414 3 is_stmt 1 view .LVU86
 548 0012 0C48     		ldr	r0, .L38+4
 549              	.LVL37:
 414:App/Src/command.c **** 		HAL_GPIO_WritePin(GPIOE, GPIO_PIN_14, GPIO_PIN_RESET); 
 550              		.loc 1 414 3 is_stmt 0 view .LVU87
 551 0014 FFF7FEFF 		bl	UsbPrintf
 552              	.LVL38:
 415:App/Src/command.c **** 	} else {
 553              		.loc 1 415 3 is_stmt 1 view .LVU88
 554 0018 0022     		movs	r2, #0
 555 001a 4FF48041 		mov	r1, #16384
 556 001e 0A48     		ldr	r0, .L38+8
 557 0020 FFF7FEFF 		bl	HAL_GPIO_WritePin
 558              	.LVL39:
 559              	.L36:
 421:App/Src/command.c **** }
 560              		.loc 1 421 2 view .LVU89
 561 0024 0948     		ldr	r0, .L38+12
 562 0026 FFF7FEFF 		bl	UsbPrintf
ARM GAS  C:\Users\86158\AppData\Local\Temp\cc13CoIU.s 			page 23


 563              	.LVL40:
 422:App/Src/command.c **** 
 564              		.loc 1 422 1 is_stmt 0 view .LVU90
 565 002a 08BD     		pop	{r3, pc}
 566              	.LVL41:
 567              	.L35:
 417:App/Src/command.c **** 		HAL_GPIO_WritePin(GPIOE, GPIO_PIN_14, GPIO_PIN_SET); 
 568              		.loc 1 417 3 is_stmt 1 view .LVU91
 569 002c 0848     		ldr	r0, .L38+16
 570              	.LVL42:
 417:App/Src/command.c **** 		HAL_GPIO_WritePin(GPIOE, GPIO_PIN_14, GPIO_PIN_SET); 
 571              		.loc 1 417 3 is_stmt 0 view .LVU92
 572 002e FFF7FEFF 		bl	UsbPrintf
 573              	.LVL43:
 418:App/Src/command.c **** 
 574              		.loc 1 418 3 is_stmt 1 view .LVU93
 575 0032 0122     		movs	r2, #1
 576 0034 4FF48041 		mov	r1, #16384
 577 0038 0348     		ldr	r0, .L38+8
 578 003a FFF7FEFF 		bl	HAL_GPIO_WritePin
 579              	.LVL44:
 580 003e F1E7     		b	.L36
 581              	.L39:
 582              		.align	2
 583              	.L38:
 584 0040 00000000 		.word	.LANCHOR2
 585 0044 00000000 		.word	.LC8
 586 0048 00100240 		.word	1073876992
 587 004c 1C000000 		.word	.LC10
 588 0050 10000000 		.word	.LC9
 589              		.cfi_endproc
 590              	.LFE253:
 592              		.section	.rodata.AT_SYSTEMP_Handle.str1.4,"aMS",%progbits,1
 593              		.align	2
 594              	.LC11:
 595 0000 0A737973 		.ascii	"\012system temp = %.1fC:\012\000"
 595      74656D20 
 595      74656D70 
 595      203D2025 
 595      2E316643 
 596 0017 00       		.align	2
 597              	.LC12:
 598 0018 0A4F4B0A 		.ascii	"\012OK\012\000"
 598      00
 599              		.section	.text.AT_SYSTEMP_Handle,"ax",%progbits
 600              		.align	1
 601              		.global	AT_SYSTEMP_Handle
 602              		.syntax unified
 603              		.thumb
 604              		.thumb_func
 606              	AT_SYSTEMP_Handle:
 607              	.LVL45:
 608              	.LFB256:
 467:App/Src/command.c **** 	float temp;
 609              		.loc 1 467 1 view -0
 610              		.cfi_startproc
 611              		@ args = 0, pretend = 0, frame = 0
ARM GAS  C:\Users\86158\AppData\Local\Temp\cc13CoIU.s 			page 24


 612              		@ frame_needed = 0, uses_anonymous_args = 0
 467:App/Src/command.c **** 	float temp;
 613              		.loc 1 467 1 is_stmt 0 view .LVU95
 614 0000 08B5     		push	{r3, lr}
 615              	.LCFI17:
 616              		.cfi_def_cfa_offset 8
 617              		.cfi_offset 3, -8
 618              		.cfi_offset 14, -4
 468:App/Src/command.c **** 	temp = temp_read_value(1);
 619              		.loc 1 468 2 is_stmt 1 view .LVU96
 469:App/Src/command.c **** 	UsbPrintf("\nsystem temp = %.1fC:\n", temp);
 620              		.loc 1 469 2 view .LVU97
 469:App/Src/command.c **** 	UsbPrintf("\nsystem temp = %.1fC:\n", temp);
 621              		.loc 1 469 9 is_stmt 0 view .LVU98
 622 0002 0120     		movs	r0, #1
 623              	.LVL46:
 469:App/Src/command.c **** 	UsbPrintf("\nsystem temp = %.1fC:\n", temp);
 624              		.loc 1 469 9 view .LVU99
 625 0004 FFF7FEFF 		bl	temp_read_value
 626              	.LVL47:
 627 0008 10EE100A 		vmov	r0, s0
 628              	.LVL48:
 470:App/Src/command.c **** 	UsbPrintf("\nOK\n");
 629              		.loc 1 470 2 is_stmt 1 view .LVU100
 630 000c FFF7FEFF 		bl	__aeabi_f2d
 631              	.LVL49:
 470:App/Src/command.c **** 	UsbPrintf("\nOK\n");
 632              		.loc 1 470 2 is_stmt 0 view .LVU101
 633 0010 0246     		mov	r2, r0
 634 0012 0B46     		mov	r3, r1
 635 0014 0348     		ldr	r0, .L42
 636 0016 FFF7FEFF 		bl	UsbPrintf
 637              	.LVL50:
 471:App/Src/command.c **** }
 638              		.loc 1 471 2 is_stmt 1 view .LVU102
 639 001a 0348     		ldr	r0, .L42+4
 640 001c FFF7FEFF 		bl	UsbPrintf
 641              	.LVL51:
 472:App/Src/command.c **** 
 642              		.loc 1 472 1 is_stmt 0 view .LVU103
 643 0020 08BD     		pop	{r3, pc}
 644              	.L43:
 645 0022 00BF     		.align	2
 646              	.L42:
 647 0024 00000000 		.word	.LC11
 648 0028 18000000 		.word	.LC12
 649              		.cfi_endproc
 650              	.LFE256:
 652              		.section	.rodata.AT_WRITEFLASH_Handle.str1.4,"aMS",%progbits,1
 653              		.align	2
 654              	.LC13:
 655 0000 32303233 		.ascii	"2023.08.07 w25q128 flash log record test %03d\012\000"
 655      2E30382E 
 655      30372077 
 655      32357131 
 655      32382066 
 656 002f 00       		.align	2
ARM GAS  C:\Users\86158\AppData\Local\Temp\cc13CoIU.s 			page 25


 657              	.LC14:
 658 0030 77726974 		.ascii	"write OK\012\000"
 658      65204F4B 
 658      0A00
 659              		.section	.text.AT_WRITEFLASH_Handle,"ax",%progbits
 660              		.align	1
 661              		.global	AT_WRITEFLASH_Handle
 662              		.syntax unified
 663              		.thumb
 664              		.thumb_func
 666              	AT_WRITEFLASH_Handle:
 667              	.LVL52:
 668              	.LFB257:
 476:App/Src/command.c **** 	static uint8_t number = 0;
 669              		.loc 1 476 1 is_stmt 1 view -0
 670              		.cfi_startproc
 671              		@ args = 0, pretend = 0, frame = 0
 672              		@ frame_needed = 0, uses_anonymous_args = 0
 476:App/Src/command.c **** 	static uint8_t number = 0;
 673              		.loc 1 476 1 is_stmt 0 view .LVU105
 674 0000 08B5     		push	{r3, lr}
 675              	.LCFI18:
 676              		.cfi_def_cfa_offset 8
 677              		.cfi_offset 3, -8
 678              		.cfi_offset 14, -4
 477:App/Src/command.c **** 	command = NULL;
 679              		.loc 1 477 2 is_stmt 1 view .LVU106
 478:App/Src/command.c **** 	number++;
 680              		.loc 1 478 2 view .LVU107
 681              	.LVL53:
 479:App/Src/command.c **** 	log_printf("2023.08.07 w25q128 flash log record test %03d\n", number);
 682              		.loc 1 479 2 view .LVU108
 479:App/Src/command.c **** 	log_printf("2023.08.07 w25q128 flash log record test %03d\n", number);
 683              		.loc 1 479 8 is_stmt 0 view .LVU109
 684 0002 064B     		ldr	r3, .L46
 685 0004 1978     		ldrb	r1, [r3]	@ zero_extendqisi2
 686 0006 0131     		adds	r1, r1, #1
 687 0008 C9B2     		uxtb	r1, r1
 688 000a 1970     		strb	r1, [r3]
 480:App/Src/command.c **** 	UsbPrintf("write OK\n");
 689              		.loc 1 480 2 is_stmt 1 view .LVU110
 690 000c 0448     		ldr	r0, .L46+4
 691 000e FFF7FEFF 		bl	log_printf
 692              	.LVL54:
 481:App/Src/command.c **** }
 693              		.loc 1 481 2 view .LVU111
 694 0012 0448     		ldr	r0, .L46+8
 695 0014 FFF7FEFF 		bl	UsbPrintf
 696              	.LVL55:
 482:App/Src/command.c **** 
 697              		.loc 1 482 1 is_stmt 0 view .LVU112
 698 0018 08BD     		pop	{r3, pc}
 699              	.L47:
 700 001a 00BF     		.align	2
 701              	.L46:
 702 001c 00000000 		.word	.LANCHOR3
 703 0020 00000000 		.word	.LC13
ARM GAS  C:\Users\86158\AppData\Local\Temp\cc13CoIU.s 			page 26


 704 0024 30000000 		.word	.LC14
 705              		.cfi_endproc
 706              	.LFE257:
 708              		.global	__aeabi_ui2d
 709              		.global	__aeabi_dmul
 710              		.global	__aeabi_d2uiz
 711              		.section	.rodata.AT_SYSVOLTAGE_Handle.str1.4,"aMS",%progbits,1
 712              		.align	2
 713              	.LC15:
 714 0000 0A332E33 		.ascii	"\0123.3V\011: %dmV\012\000"
 714      56093A20 
 714      25646D56 
 714      0A00
 715 000e 0000     		.align	2
 716              	.LC16:
 717 0010 56434509 		.ascii	"VCE\011: %dmV\012\000"
 717      3A202564 
 717      6D560A00 
 718              		.align	2
 719              	.LC17:
 720 001c 3556093A 		.ascii	"5V\011: %dmV\012\000"
 720      2025646D 
 720      560A00
 721 0027 00       		.align	2
 722              	.LC18:
 723 0028 3956093A 		.ascii	"9V\011: %dmV\012\000"
 723      2025646D 
 723      560A00
 724              		.section	.text.AT_SYSVOLTAGE_Handle,"ax",%progbits
 725              		.align	1
 726              		.global	AT_SYSVOLTAGE_Handle
 727              		.syntax unified
 728              		.thumb
 729              		.thumb_func
 731              	AT_SYSVOLTAGE_Handle:
 732              	.LVL56:
 733              	.LFB261:
 556:App/Src/command.c **** 	uint32_t voltage;
 734              		.loc 1 556 1 is_stmt 1 view -0
 735              		.cfi_startproc
 736              		@ args = 0, pretend = 0, frame = 0
 737              		@ frame_needed = 0, uses_anonymous_args = 0
 556:App/Src/command.c **** 	uint32_t voltage;
 738              		.loc 1 556 1 is_stmt 0 view .LVU114
 739 0000 10B5     		push	{r4, lr}
 740              	.LCFI19:
 741              		.cfi_def_cfa_offset 8
 742              		.cfi_offset 4, -8
 743              		.cfi_offset 14, -4
 557:App/Src/command.c **** 	voltage = ststem_voltage(0) * 3300 * 4.6 / 4096;
 744              		.loc 1 557 2 is_stmt 1 view .LVU115
 558:App/Src/command.c **** 	UsbPrintf("\n3.3V\t: %dmV\n", voltage);
 745              		.loc 1 558 2 view .LVU116
 558:App/Src/command.c **** 	UsbPrintf("\n3.3V\t: %dmV\n", voltage);
 746              		.loc 1 558 12 is_stmt 0 view .LVU117
 747 0002 0020     		movs	r0, #0
 748              	.LVL57:
ARM GAS  C:\Users\86158\AppData\Local\Temp\cc13CoIU.s 			page 27


 558:App/Src/command.c **** 	UsbPrintf("\n3.3V\t: %dmV\n", voltage);
 749              		.loc 1 558 12 view .LVU118
 750 0004 FFF7FEFF 		bl	ststem_voltage
 751              	.LVL58:
 558:App/Src/command.c **** 	UsbPrintf("\n3.3V\t: %dmV\n", voltage);
 752              		.loc 1 558 30 view .LVU119
 753 0008 40F6E444 		movw	r4, #3300
 558:App/Src/command.c **** 	UsbPrintf("\n3.3V\t: %dmV\n", voltage);
 754              		.loc 1 558 37 view .LVU120
 755 000c 04FB00F0 		mul	r0, r4, r0
 756 0010 FFF7FEFF 		bl	__aeabi_ui2d
 757              	.LVL59:
 758 0014 2AA3     		adr	r3, .L50
 759 0016 D3E90023 		ldrd	r2, [r3]
 760 001a FFF7FEFF 		bl	__aeabi_dmul
 761              	.LVL60:
 558:App/Src/command.c **** 	UsbPrintf("\n3.3V\t: %dmV\n", voltage);
 762              		.loc 1 558 43 view .LVU121
 763 001e 0022     		movs	r2, #0
 764 0020 294B     		ldr	r3, .L50+8
 765 0022 FFF7FEFF 		bl	__aeabi_dmul
 766              	.LVL61:
 558:App/Src/command.c **** 	UsbPrintf("\n3.3V\t: %dmV\n", voltage);
 767              		.loc 1 558 10 view .LVU122
 768 0026 FFF7FEFF 		bl	__aeabi_d2uiz
 769              	.LVL62:
 770 002a 0146     		mov	r1, r0
 771              	.LVL63:
 559:App/Src/command.c **** 	voltage = ststem_voltage(1) * 3300 * 4.6 / 4096;
 772              		.loc 1 559 2 is_stmt 1 view .LVU123
 773 002c 2748     		ldr	r0, .L50+12
 774              	.LVL64:
 559:App/Src/command.c **** 	voltage = ststem_voltage(1) * 3300 * 4.6 / 4096;
 775              		.loc 1 559 2 is_stmt 0 view .LVU124
 776 002e FFF7FEFF 		bl	UsbPrintf
 777              	.LVL65:
 560:App/Src/command.c **** 	UsbPrintf("VCE\t: %dmV\n", voltage);
 778              		.loc 1 560 2 is_stmt 1 view .LVU125
 560:App/Src/command.c **** 	UsbPrintf("VCE\t: %dmV\n", voltage);
 779              		.loc 1 560 12 is_stmt 0 view .LVU126
 780 0032 0120     		movs	r0, #1
 781 0034 FFF7FEFF 		bl	ststem_voltage
 782              	.LVL66:
 560:App/Src/command.c **** 	UsbPrintf("VCE\t: %dmV\n", voltage);
 783              		.loc 1 560 37 view .LVU127
 784 0038 04FB00F0 		mul	r0, r4, r0
 785 003c FFF7FEFF 		bl	__aeabi_ui2d
 786              	.LVL67:
 787 0040 1FA3     		adr	r3, .L50
 788 0042 D3E90023 		ldrd	r2, [r3]
 789 0046 FFF7FEFF 		bl	__aeabi_dmul
 790              	.LVL68:
 560:App/Src/command.c **** 	UsbPrintf("VCE\t: %dmV\n", voltage);
 791              		.loc 1 560 43 view .LVU128
 792 004a 0022     		movs	r2, #0
 793 004c 1E4B     		ldr	r3, .L50+8
 794 004e FFF7FEFF 		bl	__aeabi_dmul
ARM GAS  C:\Users\86158\AppData\Local\Temp\cc13CoIU.s 			page 28


 795              	.LVL69:
 560:App/Src/command.c **** 	UsbPrintf("VCE\t: %dmV\n", voltage);
 796              		.loc 1 560 10 view .LVU129
 797 0052 FFF7FEFF 		bl	__aeabi_d2uiz
 798              	.LVL70:
 799 0056 0146     		mov	r1, r0
 800              	.LVL71:
 561:App/Src/command.c **** 	voltage = ststem_voltage(8) * 3300 * 4.6 / 4096;
 801              		.loc 1 561 2 is_stmt 1 view .LVU130
 802 0058 1D48     		ldr	r0, .L50+16
 803              	.LVL72:
 561:App/Src/command.c **** 	voltage = ststem_voltage(8) * 3300 * 4.6 / 4096;
 804              		.loc 1 561 2 is_stmt 0 view .LVU131
 805 005a FFF7FEFF 		bl	UsbPrintf
 806              	.LVL73:
 562:App/Src/command.c **** 	UsbPrintf("5V\t: %dmV\n", voltage);
 807              		.loc 1 562 2 is_stmt 1 view .LVU132
 562:App/Src/command.c **** 	UsbPrintf("5V\t: %dmV\n", voltage);
 808              		.loc 1 562 12 is_stmt 0 view .LVU133
 809 005e 0820     		movs	r0, #8
 810 0060 FFF7FEFF 		bl	ststem_voltage
 811              	.LVL74:
 562:App/Src/command.c **** 	UsbPrintf("5V\t: %dmV\n", voltage);
 812              		.loc 1 562 37 view .LVU134
 813 0064 04FB00F0 		mul	r0, r4, r0
 814 0068 FFF7FEFF 		bl	__aeabi_ui2d
 815              	.LVL75:
 816 006c 14A3     		adr	r3, .L50
 817 006e D3E90023 		ldrd	r2, [r3]
 818 0072 FFF7FEFF 		bl	__aeabi_dmul
 819              	.LVL76:
 562:App/Src/command.c **** 	UsbPrintf("5V\t: %dmV\n", voltage);
 820              		.loc 1 562 43 view .LVU135
 821 0076 0022     		movs	r2, #0
 822 0078 134B     		ldr	r3, .L50+8
 823 007a FFF7FEFF 		bl	__aeabi_dmul
 824              	.LVL77:
 562:App/Src/command.c **** 	UsbPrintf("5V\t: %dmV\n", voltage);
 825              		.loc 1 562 10 view .LVU136
 826 007e FFF7FEFF 		bl	__aeabi_d2uiz
 827              	.LVL78:
 828 0082 0146     		mov	r1, r0
 829              	.LVL79:
 563:App/Src/command.c **** 	voltage = ststem_voltage(9) * 3300 * 4.6 / 4096;
 830              		.loc 1 563 2 is_stmt 1 view .LVU137
 831 0084 1348     		ldr	r0, .L50+20
 832              	.LVL80:
 563:App/Src/command.c **** 	voltage = ststem_voltage(9) * 3300 * 4.6 / 4096;
 833              		.loc 1 563 2 is_stmt 0 view .LVU138
 834 0086 FFF7FEFF 		bl	UsbPrintf
 835              	.LVL81:
 564:App/Src/command.c **** 	UsbPrintf("9V\t: %dmV\n", voltage);
 836              		.loc 1 564 2 is_stmt 1 view .LVU139
 564:App/Src/command.c **** 	UsbPrintf("9V\t: %dmV\n", voltage);
 837              		.loc 1 564 12 is_stmt 0 view .LVU140
 838 008a 0920     		movs	r0, #9
 839 008c FFF7FEFF 		bl	ststem_voltage
ARM GAS  C:\Users\86158\AppData\Local\Temp\cc13CoIU.s 			page 29


 840              	.LVL82:
 564:App/Src/command.c **** 	UsbPrintf("9V\t: %dmV\n", voltage);
 841              		.loc 1 564 37 view .LVU141
 842 0090 04FB00F0 		mul	r0, r4, r0
 843 0094 FFF7FEFF 		bl	__aeabi_ui2d
 844              	.LVL83:
 845 0098 09A3     		adr	r3, .L50
 846 009a D3E90023 		ldrd	r2, [r3]
 847 009e FFF7FEFF 		bl	__aeabi_dmul
 848              	.LVL84:
 564:App/Src/command.c **** 	UsbPrintf("9V\t: %dmV\n", voltage);
 849              		.loc 1 564 43 view .LVU142
 850 00a2 0022     		movs	r2, #0
 851 00a4 084B     		ldr	r3, .L50+8
 852 00a6 FFF7FEFF 		bl	__aeabi_dmul
 853              	.LVL85:
 564:App/Src/command.c **** 	UsbPrintf("9V\t: %dmV\n", voltage);
 854              		.loc 1 564 10 view .LVU143
 855 00aa FFF7FEFF 		bl	__aeabi_d2uiz
 856              	.LVL86:
 857 00ae 0146     		mov	r1, r0
 858              	.LVL87:
 565:App/Src/command.c **** 	UsbPrintf("OK\n");
 859              		.loc 1 565 2 is_stmt 1 view .LVU144
 860 00b0 0948     		ldr	r0, .L50+24
 861              	.LVL88:
 565:App/Src/command.c **** 	UsbPrintf("OK\n");
 862              		.loc 1 565 2 is_stmt 0 view .LVU145
 863 00b2 FFF7FEFF 		bl	UsbPrintf
 864              	.LVL89:
 566:App/Src/command.c **** }
 865              		.loc 1 566 2 is_stmt 1 view .LVU146
 866 00b6 0948     		ldr	r0, .L50+28
 867 00b8 FFF7FEFF 		bl	UsbPrintf
 868              	.LVL90:
 567:App/Src/command.c **** 
 869              		.loc 1 567 1 is_stmt 0 view .LVU147
 870 00bc 10BD     		pop	{r4, pc}
 871              	.L51:
 872 00be 00BF     		.align	3
 873              	.L50:
 874 00c0 66666666 		.word	1717986918
 875 00c4 66661240 		.word	1074947686
 876 00c8 0000303F 		.word	1060110336
 877 00cc 00000000 		.word	.LC15
 878 00d0 10000000 		.word	.LC16
 879 00d4 1C000000 		.word	.LC17
 880 00d8 28000000 		.word	.LC18
 881 00dc 1C000000 		.word	.LC10
 882              		.cfi_endproc
 883              	.LFE261:
 885              		.section	.rodata.AT_TESTFLAG_Handle.str1.4,"aMS",%progbits,1
 886              		.align	2
 887              	.LC19:
 888 0000 63686970 		.ascii	"chip group flag: config9, 5test, calculate, downloa"
 888      2067726F 
 888      75702066 
ARM GAS  C:\Users\86158\AppData\Local\Temp\cc13CoIU.s 			page 30


 888      6C61673A 
 888      20636F6E 
 889 0033 642C206D 		.ascii	"d, machine, takedown\012\000"
 889      61636869 
 889      6E652C20 
 889      74616B65 
 889      646F776E 
 890 0049 000000   		.align	2
 891              	.LC20:
 892 004c 0A5B2530 		.ascii	"\012[%02d]\000"
 892      32645D00 
 893              		.align	2
 894              	.LC21:
 895 0054 25303258 		.ascii	"%02X \000"
 895      2000
 896 005a 0000     		.align	2
 897              	.LC22:
 898 005c 312000   		.ascii	"1 \000"
 899 005f 00       		.align	2
 900              	.LC23:
 901 0060 0A20636F 		.ascii	"\012 count: %d\012\000"
 901      756E743A 
 901      2025640A 
 901      00
 902              		.section	.text.AT_TESTFLAG_Handle,"ax",%progbits
 903              		.align	1
 904              		.global	AT_TESTFLAG_Handle
 905              		.syntax unified
 906              		.thumb
 907              		.thumb_func
 909              	AT_TESTFLAG_Handle:
 910              	.LVL91:
 911              	.LFB266:
 597:App/Src/command.c **** 
 598:App/Src/command.c **** void AT_TESTFLAG_Handle(char* command)
 599:App/Src/command.c **** {
 912              		.loc 1 599 1 is_stmt 1 view -0
 913              		.cfi_startproc
 914              		@ args = 0, pretend = 0, frame = 104
 915              		@ frame_needed = 0, uses_anonymous_args = 0
 916              		.loc 1 599 1 is_stmt 0 view .LVU149
 917 0000 70B5     		push	{r4, r5, r6, lr}
 918              	.LCFI20:
 919              		.cfi_def_cfa_offset 16
 920              		.cfi_offset 4, -16
 921              		.cfi_offset 5, -12
 922              		.cfi_offset 6, -8
 923              		.cfi_offset 14, -4
 924 0002 9AB0     		sub	sp, sp, #104
 925              	.LCFI21:
 926              		.cfi_def_cfa_offset 120
 600:App/Src/command.c **** 	uint8_t buffer[MAX_CHIP_NUMBER] = {0xff};
 927              		.loc 1 600 2 is_stmt 1 view .LVU150
 928              		.loc 1 600 10 is_stmt 0 view .LVU151
 929 0004 FF23     		movs	r3, #255
 930 0006 0193     		str	r3, [sp, #4]
 931 0008 6022     		movs	r2, #96
ARM GAS  C:\Users\86158\AppData\Local\Temp\cc13CoIU.s 			page 31


 932 000a 0021     		movs	r1, #0
 933 000c 02A8     		add	r0, sp, #8
 934              	.LVL92:
 935              		.loc 1 600 10 view .LVU152
 936 000e FFF7FEFF 		bl	memset
 937              	.LVL93:
 601:App/Src/command.c **** 	uint32_t address;
 938              		.loc 1 601 2 is_stmt 1 view .LVU153
 602:App/Src/command.c **** 	uint8_t count;
 939              		.loc 1 602 2 view .LVU154
 603:App/Src/command.c **** 	int i, j;
 940              		.loc 1 603 2 view .LVU155
 604:App/Src/command.c **** 	UsbPrintf("chip group flag: config9, 5test, calculate, download, machine, takedown\n");
 941              		.loc 1 604 2 view .LVU156
 942 0012 2748     		ldr	r0, .L69
 943 0014 FFF7FEFF 		bl	UsbPrintf
 944              	.LVL94:
 605:App/Src/command.c **** 	for (j = 0; j < 6; j++) {
 945              		.loc 1 605 2 view .LVU157
 946              		.loc 1 605 9 is_stmt 0 view .LVU158
 947 0018 0026     		movs	r6, #0
 948              		.loc 1 605 2 view .LVU159
 949 001a 38E0     		b	.L53
 950              	.LVL95:
 951              	.L65:
 606:App/Src/command.c **** 		memset(buffer, 0xff, MAX_CHIP_NUMBER);
 607:App/Src/command.c **** 		address = TEST_FALG_START_ADDR + j * PAGE_SIZE;
 608:App/Src/command.c **** 		flash_read_data(address, buffer, MAX_CHIP_NUMBER);
 609:App/Src/command.c **** 		count = 0;
 610:App/Src/command.c **** 		for (i = 0; i < MAX_CHIP_NUMBER ; i++) {
 611:App/Src/command.c **** 			if (i % 14 == 0) {
 612:App/Src/command.c **** 				UsbPrintf("\n[%02d]", i + 1);
 952              		.loc 1 612 5 is_stmt 1 view .LVU160
 953 001c 611C     		adds	r1, r4, #1
 954 001e 2548     		ldr	r0, .L69+4
 955 0020 FFF7FEFF 		bl	UsbPrintf
 956              	.LVL96:
 957 0024 21E0     		b	.L55
 958              	.L66:
 613:App/Src/command.c **** 			}
 614:App/Src/command.c **** 			if (j == 1) {
 615:App/Src/command.c **** 				if (buffer[i] == 0xE0) {
 959              		.loc 1 615 5 view .LVU161
 960              		.loc 1 615 15 is_stmt 0 view .LVU162
 961 0026 04F16803 		add	r3, r4, #104
 962 002a 6B44     		add	r3, sp, r3
 963 002c 13F8641C 		ldrb	r1, [r3, #-100]	@ zero_extendqisi2
 964              		.loc 1 615 8 view .LVU163
 965 0030 E029     		cmp	r1, #224
 966 0032 03D0     		beq	.L63
 967              	.L57:
 616:App/Src/command.c **** 					count++;
 617:App/Src/command.c **** 				}
 618:App/Src/command.c **** 				UsbPrintf("%02X ", buffer[i]);
 968              		.loc 1 618 5 is_stmt 1 view .LVU164
 969 0034 2048     		ldr	r0, .L69+8
 970 0036 FFF7FEFF 		bl	UsbPrintf
ARM GAS  C:\Users\86158\AppData\Local\Temp\cc13CoIU.s 			page 32


 971              	.LVL97:
 972 003a 07E0     		b	.L58
 973              	.L63:
 616:App/Src/command.c **** 					count++;
 974              		.loc 1 616 6 view .LVU165
 616:App/Src/command.c **** 					count++;
 975              		.loc 1 616 11 is_stmt 0 view .LVU166
 976 003c 0135     		adds	r5, r5, #1
 977              	.LVL98:
 616:App/Src/command.c **** 					count++;
 978              		.loc 1 616 11 view .LVU167
 979 003e EDB2     		uxtb	r5, r5
 980              	.LVL99:
 616:App/Src/command.c **** 					count++;
 981              		.loc 1 616 11 view .LVU168
 982 0040 F8E7     		b	.L57
 983              	.L67:
 619:App/Src/command.c **** 			} else {
 620:App/Src/command.c **** 				if (buffer[i] == '1') {
 621:App/Src/command.c **** 					count++;
 984              		.loc 1 621 6 is_stmt 1 view .LVU169
 985              		.loc 1 621 11 is_stmt 0 view .LVU170
 986 0042 0135     		adds	r5, r5, #1
 987              	.LVL100:
 988              		.loc 1 621 11 view .LVU171
 989 0044 EDB2     		uxtb	r5, r5
 990              	.LVL101:
 622:App/Src/command.c **** 					UsbPrintf("1 ");
 991              		.loc 1 622 6 is_stmt 1 view .LVU172
 992 0046 1D48     		ldr	r0, .L69+12
 993 0048 FFF7FEFF 		bl	UsbPrintf
 994              	.LVL102:
 995              	.L58:
 610:App/Src/command.c **** 			if (i % 14 == 0) {
 996              		.loc 1 610 37 discriminator 2 view .LVU173
 610:App/Src/command.c **** 			if (i % 14 == 0) {
 997              		.loc 1 610 38 is_stmt 0 discriminator 2 view .LVU174
 998 004c 0134     		adds	r4, r4, #1
 999              	.LVL103:
 1000              	.L54:
 610:App/Src/command.c **** 			if (i % 14 == 0) {
 1001              		.loc 1 610 15 is_stmt 1 discriminator 1 view .LVU175
 610:App/Src/command.c **** 			if (i % 14 == 0) {
 1002              		.loc 1 610 3 is_stmt 0 discriminator 1 view .LVU176
 1003 004e 632C     		cmp	r4, #99
 1004 0050 18DC     		bgt	.L64
 611:App/Src/command.c **** 				UsbPrintf("\n[%02d]", i + 1);
 1005              		.loc 1 611 4 is_stmt 1 view .LVU177
 611:App/Src/command.c **** 				UsbPrintf("\n[%02d]", i + 1);
 1006              		.loc 1 611 10 is_stmt 0 view .LVU178
 1007 0052 1B4B     		ldr	r3, .L69+16
 1008 0054 83FB0423 		smull	r2, r3, r3, r4
 1009 0058 1A19     		adds	r2, r3, r4
 1010 005a E317     		asrs	r3, r4, #31
 1011 005c C3EBE203 		rsb	r3, r3, r2, asr #3
 1012 0060 C3EBC303 		rsb	r3, r3, r3, lsl #3
 1013 0064 5A00     		lsls	r2, r3, #1
ARM GAS  C:\Users\86158\AppData\Local\Temp\cc13CoIU.s 			page 33


 611:App/Src/command.c **** 				UsbPrintf("\n[%02d]", i + 1);
 1014              		.loc 1 611 7 view .LVU179
 1015 0066 9442     		cmp	r4, r2
 1016 0068 D8D0     		beq	.L65
 1017              	.L55:
 614:App/Src/command.c **** 				if (buffer[i] == 0xE0) {
 1018              		.loc 1 614 4 is_stmt 1 view .LVU180
 614:App/Src/command.c **** 				if (buffer[i] == 0xE0) {
 1019              		.loc 1 614 7 is_stmt 0 view .LVU181
 1020 006a 012E     		cmp	r6, #1
 1021 006c DBD0     		beq	.L66
 620:App/Src/command.c **** 					count++;
 1022              		.loc 1 620 5 is_stmt 1 view .LVU182
 620:App/Src/command.c **** 					count++;
 1023              		.loc 1 620 15 is_stmt 0 view .LVU183
 1024 006e 04F16803 		add	r3, r4, #104
 1025 0072 6B44     		add	r3, sp, r3
 1026 0074 13F8641C 		ldrb	r1, [r3, #-100]	@ zero_extendqisi2
 620:App/Src/command.c **** 					count++;
 1027              		.loc 1 620 8 view .LVU184
 1028 0078 3129     		cmp	r1, #49
 1029 007a E2D0     		beq	.L67
 623:App/Src/command.c **** 				} else {
 624:App/Src/command.c **** 					UsbPrintf("%02X ", buffer[i]);
 1030              		.loc 1 624 6 is_stmt 1 view .LVU185
 1031 007c 0E48     		ldr	r0, .L69+8
 1032 007e FFF7FEFF 		bl	UsbPrintf
 1033              	.LVL104:
 1034 0082 E3E7     		b	.L58
 1035              	.L64:
 625:App/Src/command.c **** 				}
 626:App/Src/command.c **** 			}
 627:App/Src/command.c **** 		}
 628:App/Src/command.c **** 		UsbPrintf("\n count: %d\n", count);
 1036              		.loc 1 628 3 discriminator 2 view .LVU186
 1037 0084 2946     		mov	r1, r5
 1038 0086 0F48     		ldr	r0, .L69+20
 1039 0088 FFF7FEFF 		bl	UsbPrintf
 1040              	.LVL105:
 605:App/Src/command.c **** 		memset(buffer, 0xff, MAX_CHIP_NUMBER);
 1041              		.loc 1 605 21 discriminator 2 view .LVU187
 605:App/Src/command.c **** 		memset(buffer, 0xff, MAX_CHIP_NUMBER);
 1042              		.loc 1 605 22 is_stmt 0 discriminator 2 view .LVU188
 1043 008c 0136     		adds	r6, r6, #1
 1044              	.LVL106:
 1045              	.L53:
 605:App/Src/command.c **** 		memset(buffer, 0xff, MAX_CHIP_NUMBER);
 1046              		.loc 1 605 14 is_stmt 1 discriminator 1 view .LVU189
 605:App/Src/command.c **** 		memset(buffer, 0xff, MAX_CHIP_NUMBER);
 1047              		.loc 1 605 2 is_stmt 0 discriminator 1 view .LVU190
 1048 008e 052E     		cmp	r6, #5
 1049 0090 0CDC     		bgt	.L68
 606:App/Src/command.c **** 		address = TEST_FALG_START_ADDR + j * PAGE_SIZE;
 1050              		.loc 1 606 3 is_stmt 1 view .LVU191
 1051 0092 6422     		movs	r2, #100
 1052 0094 FF21     		movs	r1, #255
 1053 0096 01A8     		add	r0, sp, #4
ARM GAS  C:\Users\86158\AppData\Local\Temp\cc13CoIU.s 			page 34


 1054 0098 FFF7FEFF 		bl	memset
 1055              	.LVL107:
 607:App/Src/command.c **** 		flash_read_data(address, buffer, MAX_CHIP_NUMBER);
 1056              		.loc 1 607 3 view .LVU192
 608:App/Src/command.c **** 		count = 0;
 1057              		.loc 1 608 3 view .LVU193
 1058 009c 6422     		movs	r2, #100
 1059 009e 01A9     		add	r1, sp, #4
 1060 00a0 3002     		lsls	r0, r6, #8
 1061              	.LVL108:
 608:App/Src/command.c **** 		count = 0;
 1062              		.loc 1 608 3 is_stmt 0 view .LVU194
 1063 00a2 FFF7FEFF 		bl	flash_read_data
 1064              	.LVL109:
 609:App/Src/command.c **** 		for (i = 0; i < MAX_CHIP_NUMBER ; i++) {
 1065              		.loc 1 609 3 is_stmt 1 view .LVU195
 610:App/Src/command.c **** 			if (i % 14 == 0) {
 1066              		.loc 1 610 3 view .LVU196
 610:App/Src/command.c **** 			if (i % 14 == 0) {
 1067              		.loc 1 610 10 is_stmt 0 view .LVU197
 1068 00a6 0024     		movs	r4, #0
 609:App/Src/command.c **** 		for (i = 0; i < MAX_CHIP_NUMBER ; i++) {
 1069              		.loc 1 609 9 view .LVU198
 1070 00a8 2546     		mov	r5, r4
 610:App/Src/command.c **** 			if (i % 14 == 0) {
 1071              		.loc 1 610 3 view .LVU199
 1072 00aa D0E7     		b	.L54
 1073              	.LVL110:
 1074              	.L68:
 629:App/Src/command.c **** 	}
 630:App/Src/command.c **** }
 1075              		.loc 1 630 1 view .LVU200
 1076 00ac 1AB0     		add	sp, sp, #104
 1077              	.LCFI22:
 1078              		.cfi_def_cfa_offset 16
 1079              		@ sp needed
 1080 00ae 70BD     		pop	{r4, r5, r6, pc}
 1081              	.LVL111:
 1082              	.L70:
 1083              		.loc 1 630 1 view .LVU201
 1084              		.align	2
 1085              	.L69:
 1086 00b0 00000000 		.word	.LC19
 1087 00b4 4C000000 		.word	.LC20
 1088 00b8 54000000 		.word	.LC21
 1089 00bc 5C000000 		.word	.LC22
 1090 00c0 93244992 		.word	-1840700269
 1091 00c4 60000000 		.word	.LC23
 1092              		.cfi_endproc
 1093              	.LFE266:
 1095              		.section	.rodata.AT_MACHINE_Handle.str1.4,"aMS",%progbits,1
 1096              		.align	2
 1097              	.LC24:
 1098 0000 62617420 		.ascii	"bat current test start\012\000"
 1098      63757272 
 1098      656E7420 
 1098      74657374 
ARM GAS  C:\Users\86158\AppData\Local\Temp\cc13CoIU.s 			page 35


 1098      20737461 
 1099              		.align	2
 1100              	.LC25:
 1101 0018 63686970 		.ascii	"chip%d bat current:%.1fnA\012\000"
 1101      25642062 
 1101      61742063 
 1101      75727265 
 1101      6E743A25 
 1102 0033 00       		.align	2
 1103              	.LC26:
 1104 0034 25640900 		.ascii	"%d\011\000"
 1105              		.align	2
 1106              	.LC27:
 1107 0038 0A00     		.ascii	"\012\000"
 1108 003a 0000     		.align	2
 1109              	.LC28:
 1110 003c 62617420 		.ascii	"bat current test end, ok count:%d\012\000"
 1110      63757272 
 1110      656E7420 
 1110      74657374 
 1110      20656E64 
 1111              		.section	.text.AT_MACHINE_Handle,"ax",%progbits
 1112              		.align	1
 1113              		.global	AT_MACHINE_Handle
 1114              		.syntax unified
 1115              		.thumb
 1116              		.thumb_func
 1118              	AT_MACHINE_Handle:
 1119              	.LVL112:
 1120              	.LFB269:
 631:App/Src/command.c **** 
 632:App/Src/command.c **** void AT_TESTDATA_Handle(char* command)
 633:App/Src/command.c **** {
 634:App/Src/command.c **** 	int partNumber = 0;
 635:App/Src/command.c **** 	int chipNumber = 0;
 636:App/Src/command.c **** 	int num;
 637:App/Src/command.c **** 	int i;
 638:App/Src/command.c **** 	TestResult result = {0};
 639:App/Src/command.c **** 
 640:App/Src/command.c **** 	num = strSearch(command, "chip:");
 641:App/Src/command.c **** 	if (num != -1) {
 642:App/Src/command.c **** 		num += strlen("chip:");
 643:App/Src/command.c **** 		CharToInt(command, num, &chipNumber);
 644:App/Src/command.c **** 	}
 645:App/Src/command.c **** 	
 646:App/Src/command.c **** 	num = strSearch(command, "part:");
 647:App/Src/command.c **** 	if (num != -1) {
 648:App/Src/command.c **** 		num += strlen("part:");
 649:App/Src/command.c **** 		CharToInt(command, num, &partNumber);
 650:App/Src/command.c **** 	}
 651:App/Src/command.c **** 	if (chipNumber == 0) {//所有芯片的某一个参数
 652:App/Src/command.c **** 		for (i = 0; i < MAX_CHIP_NUMBER; i++) {
 653:App/Src/command.c **** 			UsbPrintf("chip%d ", i + 1);
 654:App/Src/command.c **** 			flash_test_data_read(&result, i + 1, TEST_DATA_ALL);
 655:App/Src/command.c **** 			test_data_printf(partNumber, result);
 656:App/Src/command.c **** 		}
 657:App/Src/command.c **** 	} else {//某一个芯片的所有参数
ARM GAS  C:\Users\86158\AppData\Local\Temp\cc13CoIU.s 			page 36


 658:App/Src/command.c **** 		if (chipNumber > MAX_CHIP_NUMBER) { chipNumber = MAX_CHIP_NUMBER;}
 659:App/Src/command.c **** 		if (chipNumber < 0) { chipNumber = 1; }
 660:App/Src/command.c **** 		flash_test_data_read(&result, chipNumber, TEST_DATA_ALL);
 661:App/Src/command.c **** 		test_data_printf(partNumber, result);
 662:App/Src/command.c **** 	}
 663:App/Src/command.c **** }
 664:App/Src/command.c **** 
 665:App/Src/command.c **** 
 666:App/Src/command.c **** void AT_ATTEST_Handle(char* command)
 667:App/Src/command.c **** {
 668:App/Src/command.c **** 	int number = 0;
 669:App/Src/command.c **** 	uint16_t offset;
 670:App/Src/command.c **** 	float cap[420] = {0};
 671:App/Src/command.c **** 	int digtal[420] = {0};
 672:App/Src/command.c **** 	int i = 0;
 673:App/Src/command.c **** 	uint8_t count = 0;
 674:App/Src/command.c **** 	CharToInt(command, strSearch(command, "=") + 1, &number);
 675:App/Src/command.c **** 	if (number > 0) {
 676:App/Src/command.c **** 		calculate_wave1006_temp_cap(number, cap, digtal, &offset);
 677:App/Src/command.c **** 	} else {
 678:App/Src/command.c **** 		for (i = 0 ; i < MAX_CHIP_NUMBER ; i++) {
 679:App/Src/command.c **** 			if(calculate_wave1006_temp_cap(i + 1, cap, digtal, &offset) > 0) {
 680:App/Src/command.c **** 				count++;
 681:App/Src/command.c **** 			}
 682:App/Src/command.c **** 		}
 683:App/Src/command.c **** 		UsbPrintf("\ncount : %d\n", count);
 684:App/Src/command.c **** 	}
 685:App/Src/command.c **** 
 686:App/Src/command.c **** }
 687:App/Src/command.c **** 
 688:App/Src/command.c **** void AT_MACHINE_Handle(char* command)
 689:App/Src/command.c **** {	
 1121              		.loc 1 689 1 is_stmt 1 view -0
 1122              		.cfi_startproc
 1123              		@ args = 0, pretend = 0, frame = 104
 1124              		@ frame_needed = 0, uses_anonymous_args = 0
 1125              		.loc 1 689 1 is_stmt 0 view .LVU203
 1126 0000 30B5     		push	{r4, r5, lr}
 1127              	.LCFI23:
 1128              		.cfi_def_cfa_offset 12
 1129              		.cfi_offset 4, -12
 1130              		.cfi_offset 5, -8
 1131              		.cfi_offset 14, -4
 1132 0002 9BB0     		sub	sp, sp, #108
 1133              	.LCFI24:
 1134              		.cfi_def_cfa_offset 120
 690:App/Src/command.c **** 	// int j;
 691:App/Src/command.c **** 	// uint8_t osc_buf[2];
 692:App/Src/command.c **** 	// uint8_t mode  = 2;
 693:App/Src/command.c **** 	// uint8_t com	 = 0;
 694:App/Src/command.c **** 	// uint8_t incap = 0;
 695:App/Src/command.c **** 	// uint8_t outcap = 0;
 696:App/Src/command.c **** 	// int num;
 697:App/Src/command.c **** 	// for (com = 0; com < 32; com++) {
 698:App/Src/command.c **** 	// 	for (incap = 0; incap < 8; incap++) {
 699:App/Src/command.c **** 	// 		for (outcap = 0; outcap < 8; outcap++) {
 700:App/Src/command.c **** 	// 			// outcap = incap;
ARM GAS  C:\Users\86158\AppData\Local\Temp\cc13CoIU.s 			page 37


 701:App/Src/command.c **** 	// 			osc_buf[1] = (mode << 3) | ((com & 0x1f) >> 2);
 702:App/Src/command.c **** 	// 			osc_buf[0] = ((com & 0x03) << 6) | ((incap & 0x07) << 3) | (outcap & 0x07);
 703:App/Src/command.c **** 	// 			if (rtc_set_testcap(osc_buf) != I2C_OK) { //写ram22、ram23 
 704:App/Src/command.c **** 	// 				UsbPrintf("adjust error\n");
 705:App/Src/command.c **** 	// 				return;
 706:App/Src/command.c **** 	// 			}	
 707:App/Src/command.c **** 	// 			UsbPrintf("cap[0x%02x,0x%02x] adjust ok\n", osc_buf[1], osc_buf[0]);
 708:App/Src/command.c **** 	// 			HAL_Delay(500);
 709:App/Src/command.c **** 	// 			DevicePrintf(":MEAS?\n");
 710:App/Src/command.c **** 	// 			for (j = 0; j < 30; j++) {
 711:App/Src/command.c **** 	// 				HAL_Delay(100);
 712:App/Src/command.c **** 	// 				num = strSearch((char*)g_DeviceRxBuff, "PPM");
 713:App/Src/command.c **** 	// 				if (num > 0) {
 714:App/Src/command.c **** 	// 					UsbPrintf("%s", (char*)g_DeviceRxBuff);
 715:App/Src/command.c **** 	// 					memset(g_DeviceRxBuff, 0, UART_RECEIVE_BUFF_NUMBER);
 716:App/Src/command.c **** 	// 					device_Rx_Cnt = 0;
 717:App/Src/command.c **** 	// 					break;
 718:App/Src/command.c **** 	// 				} 
 719:App/Src/command.c **** 	// 			}
 720:App/Src/command.c **** 	// 			if (j >= 30) {
 721:App/Src/command.c **** 	// 				UsbPrintf("device no respose!\n");
 722:App/Src/command.c **** 	// 			}
 723:App/Src/command.c **** 	// 		}
 724:App/Src/command.c **** 	// 	}
 725:App/Src/command.c **** 	// }
 726:App/Src/command.c **** 	
 727:App/Src/command.c **** 	int i;
 1135              		.loc 1 727 2 is_stmt 1 view .LVU204
 728:App/Src/command.c **** 	uint8_t result[MAX_CHIP_NUMBER] = {0};
 1136              		.loc 1 728 2 view .LVU205
 1137              		.loc 1 728 10 is_stmt 0 view .LVU206
 1138 0004 0025     		movs	r5, #0
 1139 0006 0195     		str	r5, [sp, #4]
 1140 0008 6022     		movs	r2, #96
 1141 000a 2946     		mov	r1, r5
 1142 000c 02A8     		add	r0, sp, #8
 1143              	.LVL113:
 1144              		.loc 1 728 10 view .LVU207
 1145 000e FFF7FEFF 		bl	memset
 1146              	.LVL114:
 729:App/Src/command.c **** 	float cur;
 1147              		.loc 1 729 2 is_stmt 1 view .LVU208
 730:App/Src/command.c **** 	uint8_t count = 0;
 1148              		.loc 1 730 2 view .LVU209
 731:App/Src/command.c **** 	UsbPrintf("bat current test start\n");
 1149              		.loc 1 731 2 view .LVU210
 1150 0012 3A48     		ldr	r0, .L90
 1151 0014 FFF7FEFF 		bl	UsbPrintf
 1152              	.LVL115:
 732:App/Src/command.c **** 	for (i = 1; i <= MAX_CHIP_NUMBER; i++) {
 1153              		.loc 1 732 2 view .LVU211
 1154              		.loc 1 732 9 is_stmt 0 view .LVU212
 1155 0018 0124     		movs	r4, #1
 1156              		.loc 1 732 2 view .LVU213
 1157 001a 26E0     		b	.L72
 1158              	.LVL116:
 1159              	.L73:
ARM GAS  C:\Users\86158\AppData\Local\Temp\cc13CoIU.s 			page 38


 733:App/Src/command.c **** 		rtc_group_power(i, POWER_BAT_I);
 734:App/Src/command.c **** 		HAL_Delay(2000);
 735:App/Src/command.c **** 		cur = CS1237Current();
 736:App/Src/command.c **** 		if (cur > 100 && cur < 600) {
 737:App/Src/command.c **** 			result[i - 1] = 1;
 738:App/Src/command.c **** 			count++;
 739:App/Src/command.c **** 		} else {
 740:App/Src/command.c **** 			HAL_Delay(500);
 1160              		.loc 1 740 4 is_stmt 1 view .LVU214
 1161 001c 4FF4FA70 		mov	r0, #500
 1162 0020 FFF7FEFF 		bl	HAL_Delay
 1163              	.LVL117:
 741:App/Src/command.c **** 			cur = CS1237Current();
 1164              		.loc 1 741 4 view .LVU215
 1165              		.loc 1 741 10 is_stmt 0 view .LVU216
 1166 0024 FFF7FEFF 		bl	CS1237Current
 1167              	.LVL118:
 742:App/Src/command.c **** 			if (cur > 100 && cur < 600) {
 1168              		.loc 1 742 4 is_stmt 1 view .LVU217
 1169              		.loc 1 742 7 is_stmt 0 view .LVU218
 1170 0028 DFED357A 		vldr.32	s15, .L90+4
 1171 002c B4EEE70A 		vcmpe.f32	s0, s15
 1172 0030 F1EE10FA 		vmrs	APSR_nzcv, FPSCR
 1173 0034 0EDD     		ble	.L76
 1174              		.loc 1 742 18 discriminator 1 view .LVU219
 1175 0036 DFED337A 		vldr.32	s15, .L90+8
 1176 003a B4EEE70A 		vcmpe.f32	s0, s15
 1177 003e F1EE10FA 		vmrs	APSR_nzcv, FPSCR
 1178 0042 07D5     		bpl	.L76
 743:App/Src/command.c **** 				result[i - 1] = 1;
 1179              		.loc 1 743 5 is_stmt 1 view .LVU220
 1180              		.loc 1 743 19 is_stmt 0 view .LVU221
 1181 0044 04F16703 		add	r3, r4, #103
 1182 0048 6B44     		add	r3, sp, r3
 1183 004a 0122     		movs	r2, #1
 1184 004c 03F8642C 		strb	r2, [r3, #-100]
 744:App/Src/command.c **** 				count++;
 1185              		.loc 1 744 5 is_stmt 1 view .LVU222
 1186              		.loc 1 744 10 is_stmt 0 view .LVU223
 1187 0050 1544     		add	r5, r5, r2
 1188              	.LVL119:
 1189              		.loc 1 744 10 view .LVU224
 1190 0052 EDB2     		uxtb	r5, r5
 1191              	.LVL120:
 1192              	.L76:
 745:App/Src/command.c **** 			}
 746:App/Src/command.c **** 		}
 747:App/Src/command.c **** 		UsbPrintf("chip%d bat current:%.1fnA\n", i, cur);
 1193              		.loc 1 747 3 is_stmt 1 discriminator 2 view .LVU225
 1194 0054 10EE100A 		vmov	r0, s0
 1195 0058 FFF7FEFF 		bl	__aeabi_f2d
 1196              	.LVL121:
 1197              		.loc 1 747 3 is_stmt 0 discriminator 2 view .LVU226
 1198 005c 0246     		mov	r2, r0
 1199 005e 0B46     		mov	r3, r1
 1200 0060 2146     		mov	r1, r4
 1201 0062 2948     		ldr	r0, .L90+12
ARM GAS  C:\Users\86158\AppData\Local\Temp\cc13CoIU.s 			page 39


 1202 0064 FFF7FEFF 		bl	UsbPrintf
 1203              	.LVL122:
 732:App/Src/command.c **** 		rtc_group_power(i, POWER_BAT_I);
 1204              		.loc 1 732 36 is_stmt 1 discriminator 2 view .LVU227
 732:App/Src/command.c **** 		rtc_group_power(i, POWER_BAT_I);
 1205              		.loc 1 732 37 is_stmt 0 discriminator 2 view .LVU228
 1206 0068 0134     		adds	r4, r4, #1
 1207              	.LVL123:
 1208              	.L72:
 732:App/Src/command.c **** 		rtc_group_power(i, POWER_BAT_I);
 1209              		.loc 1 732 14 is_stmt 1 discriminator 1 view .LVU229
 732:App/Src/command.c **** 		rtc_group_power(i, POWER_BAT_I);
 1210              		.loc 1 732 2 is_stmt 0 discriminator 1 view .LVU230
 1211 006a 642C     		cmp	r4, #100
 1212 006c 20DC     		bgt	.L88
 733:App/Src/command.c **** 		HAL_Delay(2000);
 1213              		.loc 1 733 3 is_stmt 1 view .LVU231
 1214 006e 0221     		movs	r1, #2
 1215 0070 E0B2     		uxtb	r0, r4
 1216 0072 FFF7FEFF 		bl	rtc_group_power
 1217              	.LVL124:
 734:App/Src/command.c **** 		cur = CS1237Current();
 1218              		.loc 1 734 3 view .LVU232
 1219 0076 4FF4FA60 		mov	r0, #2000
 1220 007a FFF7FEFF 		bl	HAL_Delay
 1221              	.LVL125:
 735:App/Src/command.c **** 		if (cur > 100 && cur < 600) {
 1222              		.loc 1 735 3 view .LVU233
 735:App/Src/command.c **** 		if (cur > 100 && cur < 600) {
 1223              		.loc 1 735 9 is_stmt 0 view .LVU234
 1224 007e FFF7FEFF 		bl	CS1237Current
 1225              	.LVL126:
 736:App/Src/command.c **** 			result[i - 1] = 1;
 1226              		.loc 1 736 3 is_stmt 1 view .LVU235
 736:App/Src/command.c **** 			result[i - 1] = 1;
 1227              		.loc 1 736 6 is_stmt 0 view .LVU236
 1228 0082 DFED1F7A 		vldr.32	s15, .L90+4
 1229 0086 B4EEE70A 		vcmpe.f32	s0, s15
 1230 008a F1EE10FA 		vmrs	APSR_nzcv, FPSCR
 1231 008e C5DD     		ble	.L73
 736:App/Src/command.c **** 			result[i - 1] = 1;
 1232              		.loc 1 736 17 discriminator 1 view .LVU237
 1233 0090 DFED1C7A 		vldr.32	s15, .L90+8
 1234 0094 B4EEE70A 		vcmpe.f32	s0, s15
 1235 0098 F1EE10FA 		vmrs	APSR_nzcv, FPSCR
 1236 009c BED5     		bpl	.L73
 737:App/Src/command.c **** 			count++;
 1237              		.loc 1 737 4 is_stmt 1 view .LVU238
 737:App/Src/command.c **** 			count++;
 1238              		.loc 1 737 18 is_stmt 0 view .LVU239
 1239 009e 04F16703 		add	r3, r4, #103
 1240 00a2 6B44     		add	r3, sp, r3
 1241 00a4 0122     		movs	r2, #1
 1242 00a6 03F8642C 		strb	r2, [r3, #-100]
 738:App/Src/command.c **** 		} else {
 1243              		.loc 1 738 4 is_stmt 1 view .LVU240
 738:App/Src/command.c **** 		} else {
ARM GAS  C:\Users\86158\AppData\Local\Temp\cc13CoIU.s 			page 40


 1244              		.loc 1 738 9 is_stmt 0 view .LVU241
 1245 00aa 1544     		add	r5, r5, r2
 1246              	.LVL127:
 738:App/Src/command.c **** 		} else {
 1247              		.loc 1 738 9 view .LVU242
 1248 00ac EDB2     		uxtb	r5, r5
 1249              	.LVL128:
 738:App/Src/command.c **** 		} else {
 1250              		.loc 1 738 9 view .LVU243
 1251 00ae D1E7     		b	.L76
 1252              	.LVL129:
 1253              	.L88:
 748:App/Src/command.c **** 	}
 749:App/Src/command.c **** 	rtc_group_power(0, POWER_OFF);
 1254              		.loc 1 749 2 is_stmt 1 view .LVU244
 1255 00b0 0021     		movs	r1, #0
 1256 00b2 0846     		mov	r0, r1
 1257 00b4 FFF7FEFF 		bl	rtc_group_power
 1258              	.LVL130:
 750:App/Src/command.c **** 	for (i = 1; i <= MAX_CHIP_NUMBER; i++) {
 1259              		.loc 1 750 2 view .LVU245
 1260              		.loc 1 750 9 is_stmt 0 view .LVU246
 1261 00b8 0124     		movs	r4, #1
 1262              		.loc 1 750 2 view .LVU247
 1263 00ba 00E0     		b	.L80
 1264              	.LVL131:
 1265              	.L81:
 1266              		.loc 1 750 36 is_stmt 1 discriminator 2 view .LVU248
 1267              		.loc 1 750 37 is_stmt 0 discriminator 2 view .LVU249
 1268 00bc 0134     		adds	r4, r4, #1
 1269              	.LVL132:
 1270              	.L80:
 1271              		.loc 1 750 14 is_stmt 1 discriminator 1 view .LVU250
 1272              		.loc 1 750 2 is_stmt 0 discriminator 1 view .LVU251
 1273 00be 642C     		cmp	r4, #100
 1274 00c0 16DC     		bgt	.L89
 751:App/Src/command.c **** 		UsbPrintf("%d\t", result[i - 1]);
 1275              		.loc 1 751 3 is_stmt 1 view .LVU252
 1276              		.loc 1 751 27 is_stmt 0 view .LVU253
 1277 00c2 04F16703 		add	r3, r4, #103
 1278 00c6 6B44     		add	r3, sp, r3
 1279              		.loc 1 751 3 view .LVU254
 1280 00c8 13F8641C 		ldrb	r1, [r3, #-100]	@ zero_extendqisi2
 1281 00cc 0F48     		ldr	r0, .L90+16
 1282 00ce FFF7FEFF 		bl	UsbPrintf
 1283              	.LVL133:
 752:App/Src/command.c **** 		if (i % 10 == 0) {
 1284              		.loc 1 752 3 is_stmt 1 view .LVU255
 1285              		.loc 1 752 9 is_stmt 0 view .LVU256
 1286 00d2 0F4A     		ldr	r2, .L90+20
 1287 00d4 82FB0432 		smull	r3, r2, r2, r4
 1288 00d8 E317     		asrs	r3, r4, #31
 1289 00da C3EBA203 		rsb	r3, r3, r2, asr #2
 1290 00de 03EB8303 		add	r3, r3, r3, lsl #2
 1291              		.loc 1 752 6 view .LVU257
 1292 00e2 B4EB430F 		cmp	r4, r3, lsl #1
 1293 00e6 E9D1     		bne	.L81
ARM GAS  C:\Users\86158\AppData\Local\Temp\cc13CoIU.s 			page 41


 753:App/Src/command.c **** 			UsbPrintf("\n");
 1294              		.loc 1 753 4 is_stmt 1 view .LVU258
 1295 00e8 0A48     		ldr	r0, .L90+24
 1296 00ea FFF7FEFF 		bl	UsbPrintf
 1297              	.LVL134:
 1298 00ee E5E7     		b	.L81
 1299              	.L89:
 754:App/Src/command.c **** 		}
 755:App/Src/command.c **** 	}
 756:App/Src/command.c **** 	UsbPrintf("bat current test end, ok count:%d\n", count);
 1300              		.loc 1 756 2 view .LVU259
 1301 00f0 2946     		mov	r1, r5
 1302 00f2 0948     		ldr	r0, .L90+28
 1303 00f4 FFF7FEFF 		bl	UsbPrintf
 1304              	.LVL135:
 757:App/Src/command.c **** }
 1305              		.loc 1 757 1 is_stmt 0 view .LVU260
 1306 00f8 1BB0     		add	sp, sp, #108
 1307              	.LCFI25:
 1308              		.cfi_def_cfa_offset 12
 1309              		@ sp needed
 1310 00fa 30BD     		pop	{r4, r5, pc}
 1311              	.LVL136:
 1312              	.L91:
 1313              		.loc 1 757 1 view .LVU261
 1314              		.align	2
 1315              	.L90:
 1316 00fc 00000000 		.word	.LC24
 1317 0100 0000C842 		.word	1120403456
 1318 0104 00001644 		.word	1142292480
 1319 0108 18000000 		.word	.LC25
 1320 010c 34000000 		.word	.LC26
 1321 0110 67666666 		.word	1717986919
 1322 0114 38000000 		.word	.LC27
 1323 0118 3C000000 		.word	.LC28
 1324              		.cfi_endproc
 1325              	.LFE269:
 1327              		.section	.rodata.AT_TEMPADC_Handle.str1.4,"aMS",%progbits,1
 1328              		.align	2
 1329              	.LC29:
 1330 0000 74656D70 		.ascii	"temp adc:%d, i2c[%d]\012\000"
 1330      20616463 
 1330      3A25642C 
 1330      20693263 
 1330      5B25645D 
 1331              		.section	.text.AT_TEMPADC_Handle,"ax",%progbits
 1332              		.align	1
 1333              		.global	AT_TEMPADC_Handle
 1334              		.syntax unified
 1335              		.thumb
 1336              		.thumb_func
 1338              	AT_TEMPADC_Handle:
 1339              	.LVL137:
 1340              	.LFB274:
 758:App/Src/command.c **** 
 759:App/Src/command.c **** void AT_1006TMODE_Handle(char* command)
 760:App/Src/command.c **** {
ARM GAS  C:\Users\86158\AppData\Local\Temp\cc13CoIU.s 			page 42


 761:App/Src/command.c **** 	int mode = 0;
 762:App/Src/command.c **** 	uint8_t buf;
 763:App/Src/command.c **** 	uint8_t osc_buf[2] = {0};
 764:App/Src/command.c **** 	CharToInt(command, strSearch(command, "=") + 1, &mode);
 765:App/Src/command.c **** 	
 766:App/Src/command.c **** 	if (mode > 0) {
 767:App/Src/command.c **** 		buf = 0x40;
 768:App/Src/command.c **** 		if(drv_wave1006_write_reg(DEV_SD8804, WAVE1006_REG_CTR3, 1, &buf) != WAVE1006_EXIT_OK)   //如果是
 769:App/Src/command.c **** 		{
 770:App/Src/command.c **** 			return;
 771:App/Src/command.c **** 		}
 772:App/Src/command.c **** 		//选择为SD3302封装(必须在进测试模式之前选择，否则芯片pad改变)
 773:App/Src/command.c **** 		if (drv_wave1006_read_reg(DEV_SD3068, WAVE1006_REG_USER_RAM_START + 20, 1, &buf) != WAVE1006_EXIT
 774:App/Src/command.c **** 		{
 775:App/Src/command.c **** 			return;
 776:App/Src/command.c **** 		}
 777:App/Src/command.c **** 		buf &= ~0x0f;
 778:App/Src/command.c **** 		buf |= 0x0d;
 779:App/Src/command.c **** 		if (drv_wave1006_write_reg(DEV_SD3068, WAVE1006_REG_USER_RAM_START + 20, 1, &buf) != WAVE1006_EXI
 780:App/Src/command.c **** 		{
 781:App/Src/command.c **** 			return;
 782:App/Src/command.c **** 		}
 783:App/Src/command.c **** 		if (wave1006_enter_test_mode(WAVE1006_TEST_PAD | WAVE1006_TEST_OSC | WAVE1006_TEST_ADC) != WAVE10
 784:App/Src/command.c **** 		{
 785:App/Src/command.c **** 			return;
 786:App/Src/command.c **** 		}
 787:App/Src/command.c **** 		UsbPrintf("pad change OK\n");
 788:App/Src/command.c **** 		HAL_Delay(5);
 789:App/Src/command.c **** 		rtc_set_channel(g_rtcChanenel, RTC_SD3068);
 790:App/Src/command.c **** 		if (drv_wave1006_read_reg(DEV_SD3068, WAVE1006_REG_USER_RAM_START + 19, 1, &buf) != WAVE1006_EXIT
 791:App/Src/command.c **** 		{
 792:App/Src/command.c **** 			return;
 793:App/Src/command.c **** 		}
 794:App/Src/command.c **** 		buf &= ~0x38;   //清0 RuleTempAdj[2:0]      //ADC尺子 暂选5
 795:App/Src/command.c **** 		buf |=  0x28;
 796:App/Src/command.c **** 		if (drv_wave1006_write_reg(DEV_SD3068, WAVE1006_REG_USER_RAM_START + 19, 1, &buf) != WAVE1006_EXI
 797:App/Src/command.c **** 		{
 798:App/Src/command.c **** 			UsbPrintf("i2c error after pad change \n");
 799:App/Src/command.c **** 			return;
 800:App/Src/command.c **** 		}	
 801:App/Src/command.c **** 		if (drv_wave1006_read_reg(DEV_SD3068, WAVE1006_REG_USER_RAM_START + 24, 1, &osc_buf[1]) != WAVE10
 802:App/Src/command.c **** 		{
 803:App/Src/command.c **** 			return;
 804:App/Src/command.c **** 		}
 805:App/Src/command.c **** 		osc_buf[0]  = 0xf7;   //ram24
 806:App/Src/command.c **** 		osc_buf[1] &= ~0x1f;
 807:App/Src/command.c **** 		osc_buf[1] |= 0x19;		//ram25
 808:App/Src/command.c **** 		if (drv_wave1006_write_reg(DEV_SD3068, WAVE1006_REG_USER_RAM_START + 23, 2, osc_buf) != WAVE1006_
 809:App/Src/command.c **** 		{
 810:App/Src/command.c **** 			UsbPrintf("i2c error after pad change \n");
 811:App/Src/command.c **** 			return;
 812:App/Src/command.c **** 		}
 813:App/Src/command.c **** 		UsbPrintf("i2c OK after pad change \n");
 814:App/Src/command.c **** 
 815:App/Src/command.c **** 		// if (drv_wave1006_read_reg(DEV_SD3068, WAVE1006_REG_USER_RAM_START + 25, 1, &osc_buf[1]) != WAV
 816:App/Src/command.c **** 		// {
 817:App/Src/command.c **** 		// 	return;
ARM GAS  C:\Users\86158\AppData\Local\Temp\cc13CoIU.s 			page 43


 818:App/Src/command.c **** 		// }
 819:App/Src/command.c **** 		// osc_buf[1] &= 0xfc;
 820:App/Src/command.c **** 		// osc_buf[1] |= 0x01;
 821:App/Src/command.c **** 		// if (drv_wave1006_write_reg(DEV_SD3068, WAVE1006_REG_USER_RAM_START + 25, 1, &osc_buf[1]) != WA
 822:App/Src/command.c **** 		// {
 823:App/Src/command.c **** 		// 	return;
 824:App/Src/command.c **** 		// }
 825:App/Src/command.c **** 		// UsbPrintf("hot test in mode 01 \n");
 826:App/Src/command.c **** 	} else {
 827:App/Src/command.c **** 		rtc_1006_exit_testmode(g_rtcChanenel);
 828:App/Src/command.c **** 	}
 829:App/Src/command.c **** }
 830:App/Src/command.c **** 
 831:App/Src/command.c **** void AT_SD3078INT_Handle(char* command)
 832:App/Src/command.c **** {
 833:App/Src/command.c **** 	
 834:App/Src/command.c **** 	int startNumber = 0;
 835:App/Src/command.c **** 	int endNumber = 0;
 836:App/Src/command.c **** 
 837:App/Src/command.c **** 	CharToInt(command, strSearch(command, "=") + 1, &startNumber);
 838:App/Src/command.c **** 	CharToInt(command, strSearch(command, ",") + 1, &endNumber);
 839:App/Src/command.c **** 	
 840:App/Src/command.c **** 	if (startNumber > 0) {
 841:App/Src/command.c **** 		set_int_test(1, startNumber, endNumber);
 842:App/Src/command.c **** 		UsbPrintf("start int test, start %d, end %d\n", startNumber, endNumber);
 843:App/Src/command.c **** 	} else {
 844:App/Src/command.c **** 		set_int_test(0, 0, 0);
 845:App/Src/command.c **** 		UsbPrintf("end int test\n");
 846:App/Src/command.c **** 	}
 847:App/Src/command.c **** 	UsbPrintf("OK\n");
 848:App/Src/command.c **** }
 849:App/Src/command.c **** 
 850:App/Src/command.c **** 
 851:App/Src/command.c **** void AT_RTCLOAD_Handle(char* command)
 852:App/Src/command.c **** {
 853:App/Src/command.c **** 	int number = 0;
 854:App/Src/command.c **** 	int i;
 855:App/Src/command.c **** 	uint8_t result[MAX_CHIP_NUMBER] = {0};
 856:App/Src/command.c **** 	CharToInt(command, strSearch(command, "=") + 1, &number);
 857:App/Src/command.c **** 	if (number > 0) {
 858:App/Src/command.c **** 		sd3078b_write_otp(number);
 859:App/Src/command.c **** 	} else {
 860:App/Src/command.c **** 		for (i = 1; i <= MAX_CHIP_NUMBER; i++) {
 861:App/Src/command.c **** 			result[i - 1] = sd3078b_write_otp(i);
 862:App/Src/command.c **** 			HAL_Delay(2000);
 863:App/Src/command.c **** 		}
 864:App/Src/command.c **** 		
 865:App/Src/command.c **** 		for (i = 1; i <= MAX_CHIP_NUMBER; i++) {
 866:App/Src/command.c **** 			UsbPrintf("%d\t", result[i - 1]);
 867:App/Src/command.c **** 			if (i % 10 == 0) {
 868:App/Src/command.c **** 				UsbPrintf("\n");
 869:App/Src/command.c **** 			}
 870:App/Src/command.c **** 		}
 871:App/Src/command.c **** 	}
 872:App/Src/command.c **** 	UsbPrintf("load end\n");
 873:App/Src/command.c **** }
 874:App/Src/command.c **** 
ARM GAS  C:\Users\86158\AppData\Local\Temp\cc13CoIU.s 			page 44


 875:App/Src/command.c **** void AT_HOTVOLTAGE_Handle(char* command)
 876:App/Src/command.c **** {
 877:App/Src/command.c **** 	float number;
 878:App/Src/command.c **** 	CharToFloat(command, strSearch(command, "=") + 1, &number);
 879:App/Src/command.c **** 	rtc_otp_power(number);//配置dac电压
 880:App/Src/command.c ****     HAL_GPIO_WritePin(GPIOE, GPIO_PIN_6, GPIO_PIN_SET);//VCE_SDA选择VCE通道
 881:App/Src/command.c **** 	UsbPrintf("OK\n");
 882:App/Src/command.c **** }
 883:App/Src/command.c **** 
 884:App/Src/command.c **** #define TestNumber 			100
 885:App/Src/command.c **** void AT_TEMPADC_Handle(char* command)
 886:App/Src/command.c **** {
 1341              		.loc 1 886 1 is_stmt 1 view -0
 1342              		.cfi_startproc
 1343              		@ args = 0, pretend = 0, frame = 8
 1344              		@ frame_needed = 0, uses_anonymous_args = 0
 1345              		.loc 1 886 1 is_stmt 0 view .LVU263
 1346 0000 00B5     		push	{lr}
 1347              	.LCFI26:
 1348              		.cfi_def_cfa_offset 4
 1349              		.cfi_offset 14, -4
 1350 0002 83B0     		sub	sp, sp, #12
 1351              	.LCFI27:
 1352              		.cfi_def_cfa_offset 16
 887:App/Src/command.c **** 	uint16_t temp_adc = 0;
 1353              		.loc 1 887 2 is_stmt 1 view .LVU264
 1354              		.loc 1 887 11 is_stmt 0 view .LVU265
 1355 0004 0023     		movs	r3, #0
 1356 0006 ADF80630 		strh	r3, [sp, #6]	@ movhi
 888:App/Src/command.c **** 	uint8_t result;
 1357              		.loc 1 888 2 is_stmt 1 view .LVU266
 889:App/Src/command.c **** 	result = wave1006_read_temp_adc(&temp_adc);
 1358              		.loc 1 889 2 view .LVU267
 1359              		.loc 1 889 11 is_stmt 0 view .LVU268
 1360 000a 0DF10600 		add	r0, sp, #6
 1361              	.LVL138:
 1362              		.loc 1 889 11 view .LVU269
 1363 000e FFF7FEFF 		bl	wave1006_read_temp_adc
 1364              	.LVL139:
 1365 0012 0246     		mov	r2, r0
 1366              	.LVL140:
 890:App/Src/command.c **** 	UsbPrintf("temp adc:%d, i2c[%d]\n", temp_adc, result);
 1367              		.loc 1 890 2 is_stmt 1 view .LVU270
 1368 0014 BDF80610 		ldrh	r1, [sp, #6]
 1369 0018 0248     		ldr	r0, .L94
 1370 001a FFF7FEFF 		bl	UsbPrintf
 1371              	.LVL141:
 891:App/Src/command.c **** }
 1372              		.loc 1 891 1 is_stmt 0 view .LVU271
 1373 001e 03B0     		add	sp, sp, #12
 1374              	.LCFI28:
 1375              		.cfi_def_cfa_offset 4
 1376              		@ sp needed
 1377 0020 5DF804FB 		ldr	pc, [sp], #4
 1378              	.L95:
 1379              		.align	2
 1380              	.L94:
ARM GAS  C:\Users\86158\AppData\Local\Temp\cc13CoIU.s 			page 45


 1381 0024 00000000 		.word	.LC29
 1382              		.cfi_endproc
 1383              	.LFE274:
 1385              		.section	.text.AT_AECQ100_Handle,"ax",%progbits
 1386              		.align	1
 1387              		.global	AT_AECQ100_Handle
 1388              		.syntax unified
 1389              		.thumb
 1390              		.thumb_func
 1392              	AT_AECQ100_Handle:
 1393              	.LVL142:
 1394              	.LFB276:
 892:App/Src/command.c **** 
 893:App/Src/command.c **** void AT_GETRTCID_Handle(char* command)
 894:App/Src/command.c **** {
 895:App/Src/command.c **** 	int number = 1;
 896:App/Src/command.c **** 	uint8_t buf[8] = {0};
 897:App/Src/command.c **** 	uint8_t i;
 898:App/Src/command.c **** 	CharToInt(command, strSearch(command,"=") + 1, &number);
 899:App/Src/command.c **** 	
 900:App/Src/command.c **** 	rtc_group_power(number, POWER_I2C);
 901:App/Src/command.c **** 	rtc_set_channel(number, RTC_SD3078B);
 902:App/Src/command.c **** 	rtc_read_multi_bytes(RTC_3078_ADDRESS, 0x72, buf, 8);
 903:App/Src/command.c **** 	for (i = 0; i < 8; i++) {
 904:App/Src/command.c **** 		UsbPrintf("%02X", buf[i]);
 905:App/Src/command.c **** 	}
 906:App/Src/command.c **** 	UsbPrintf("\nOK\n");
 907:App/Src/command.c **** }
 908:App/Src/command.c **** 
 909:App/Src/command.c **** extern uint8_t Aecq100State;
 910:App/Src/command.c **** void AT_AECQ100_Handle(char* command)
 911:App/Src/command.c **** {
 1395              		.loc 1 911 1 is_stmt 1 view -0
 1396              		.cfi_startproc
 1397              		@ args = 0, pretend = 0, frame = 0
 1398              		@ frame_needed = 0, uses_anonymous_args = 0
 1399              		.loc 1 911 1 is_stmt 0 view .LVU273
 1400 0000 08B5     		push	{r3, lr}
 1401              	.LCFI29:
 1402              		.cfi_def_cfa_offset 8
 1403              		.cfi_offset 3, -8
 1404              		.cfi_offset 14, -4
 912:App/Src/command.c **** 	Aecq100State = 9;//进行频率测试和VBAT测试
 1405              		.loc 1 912 2 is_stmt 1 view .LVU274
 1406              		.loc 1 912 15 is_stmt 0 view .LVU275
 1407 0002 034B     		ldr	r3, .L98
 1408 0004 0922     		movs	r2, #9
 1409 0006 1A70     		strb	r2, [r3]
 913:App/Src/command.c **** 	UsbPrintf("OK\n");
 1410              		.loc 1 913 2 is_stmt 1 view .LVU276
 1411 0008 0248     		ldr	r0, .L98+4
 1412              	.LVL143:
 1413              		.loc 1 913 2 is_stmt 0 view .LVU277
 1414 000a FFF7FEFF 		bl	UsbPrintf
 1415              	.LVL144:
 914:App/Src/command.c **** }
 1416              		.loc 1 914 1 view .LVU278
ARM GAS  C:\Users\86158\AppData\Local\Temp\cc13CoIU.s 			page 46


 1417 000e 08BD     		pop	{r3, pc}
 1418              	.L99:
 1419              		.align	2
 1420              	.L98:
 1421 0010 00000000 		.word	Aecq100State
 1422 0014 1C000000 		.word	.LC10
 1423              		.cfi_endproc
 1424              	.LFE276:
 1426              		.section	.text.DevicePrintf,"ax",%progbits
 1427              		.align	1
 1428              		.global	DevicePrintf
 1429              		.syntax unified
 1430              		.thumb
 1431              		.thumb_func
 1433              	DevicePrintf:
 1434              	.LVL145:
 1435              	.LFB239:
  94:App/Src/command.c **** 	va_list ap;//
 1436              		.loc 1 94 1 is_stmt 1 view -0
 1437              		.cfi_startproc
 1438              		@ args = 4, pretend = 16, frame = 8
 1439              		@ frame_needed = 0, uses_anonymous_args = 1
  94:App/Src/command.c **** 	va_list ap;//
 1440              		.loc 1 94 1 is_stmt 0 view .LVU280
 1441 0000 0FB4     		push	{r0, r1, r2, r3}
 1442              	.LCFI30:
 1443              		.cfi_def_cfa_offset 16
 1444              		.cfi_offset 0, -16
 1445              		.cfi_offset 1, -12
 1446              		.cfi_offset 2, -8
 1447              		.cfi_offset 3, -4
 1448 0002 F0B5     		push	{r4, r5, r6, r7, lr}
 1449              	.LCFI31:
 1450              		.cfi_def_cfa_offset 36
 1451              		.cfi_offset 4, -36
 1452              		.cfi_offset 5, -32
 1453              		.cfi_offset 6, -28
 1454              		.cfi_offset 7, -24
 1455              		.cfi_offset 14, -20
 1456 0004 83B0     		sub	sp, sp, #12
 1457              	.LCFI32:
 1458              		.cfi_def_cfa_offset 48
 1459 0006 08AD     		add	r5, sp, #32
 1460 0008 55F8047B 		ldr	r7, [r5], #4
  95:App/Src/command.c **** 	memset(g_DeviceTxBuff, 0, UART_TRANSMIT_BUFF_NUMBER);
 1461              		.loc 1 95 2 is_stmt 1 view .LVU281
  96:App/Src/command.c **** 	va_start(ap, fmt);//
 1462              		.loc 1 96 2 view .LVU282
 1463 000c 0E4C     		ldr	r4, .L102
 1464 000e 4FF49676 		mov	r6, #300
 1465 0012 3246     		mov	r2, r6
 1466 0014 0021     		movs	r1, #0
 1467 0016 2046     		mov	r0, r4
 1468 0018 FFF7FEFF 		bl	memset
 1469              	.LVL146:
  97:App/Src/command.c **** 	vsnprintf((char*)g_DeviceTxBuff, UART_TRANSMIT_BUFF_NUMBER, fmt, ap);//
 1470              		.loc 1 97 2 view .LVU283
ARM GAS  C:\Users\86158\AppData\Local\Temp\cc13CoIU.s 			page 47


 1471 001c 0195     		str	r5, [sp, #4]
  98:App/Src/command.c **** 	va_end(ap);
 1472              		.loc 1 98 2 view .LVU284
 1473 001e 2B46     		mov	r3, r5
 1474 0020 3A46     		mov	r2, r7
 1475 0022 3146     		mov	r1, r6
 1476 0024 2046     		mov	r0, r4
 1477 0026 FFF7FEFF 		bl	vsnprintf
 1478              	.LVL147:
  99:App/Src/command.c **** 	HAL_UART_Transmit(&huart2, g_DeviceTxBuff, strlen((char*)g_DeviceTxBuff), 1000);
 1479              		.loc 1 99 2 view .LVU285
 100:App/Src/command.c **** }
 1480              		.loc 1 100 2 view .LVU286
 100:App/Src/command.c **** }
 1481              		.loc 1 100 45 is_stmt 0 view .LVU287
 1482 002a 2046     		mov	r0, r4
 1483 002c FFF7FEFF 		bl	strlen
 1484              	.LVL148:
 100:App/Src/command.c **** }
 1485              		.loc 1 100 2 view .LVU288
 1486 0030 4FF47A73 		mov	r3, #1000
 1487 0034 82B2     		uxth	r2, r0
 1488 0036 2146     		mov	r1, r4
 1489 0038 0448     		ldr	r0, .L102+4
 1490 003a FFF7FEFF 		bl	HAL_UART_Transmit
 1491              	.LVL149:
 101:App/Src/command.c **** 
 1492              		.loc 1 101 1 view .LVU289
 1493 003e 03B0     		add	sp, sp, #12
 1494              	.LCFI33:
 1495              		.cfi_def_cfa_offset 36
 1496              		@ sp needed
 1497 0040 BDE8F040 		pop	{r4, r5, r6, r7, lr}
 1498              	.LCFI34:
 1499              		.cfi_restore 14
 1500              		.cfi_restore 7
 1501              		.cfi_restore 6
 1502              		.cfi_restore 5
 1503              		.cfi_restore 4
 1504              		.cfi_def_cfa_offset 16
 1505 0044 04B0     		add	sp, sp, #16
 1506              	.LCFI35:
 1507              		.cfi_restore 3
 1508              		.cfi_restore 2
 1509              		.cfi_restore 1
 1510              		.cfi_restore 0
 1511              		.cfi_def_cfa_offset 0
 1512 0046 7047     		bx	lr
 1513              	.L103:
 1514              		.align	2
 1515              	.L102:
 1516 0048 00000000 		.word	.LANCHOR4
 1517 004c 00000000 		.word	huart2
 1518              		.cfi_endproc
 1519              	.LFE239:
 1521              		.section	.rodata.UsartInit.str1.4,"aMS",%progbits,1
 1522              		.align	2
ARM GAS  C:\Users\86158\AppData\Local\Temp\cc13CoIU.s 			page 48


 1523              	.LC30:
 1524 0000 75736220 		.ascii	"usb usart init success......\012\000"
 1524      75736172 
 1524      7420696E 
 1524      69742073 
 1524      75636365 
 1525 001e 0000     		.align	2
 1526              	.LC31:
 1527 0020 43533132 		.ascii	"CS1237 init success\012\000"
 1527      33372069 
 1527      6E697420 
 1527      73756363 
 1527      6573730A 
 1528 0035 000000   		.align	2
 1529              	.LC32:
 1530 0038 43533132 		.ascii	"CS1237 init error\012\000"
 1530      33372069 
 1530      6E697420 
 1530      6572726F 
 1530      720A00
 1531              		.section	.text.UsartInit,"ax",%progbits
 1532              		.align	1
 1533              		.global	UsartInit
 1534              		.syntax unified
 1535              		.thumb
 1536              		.thumb_func
 1538              	UsartInit:
 1539              	.LFB240:
 104:App/Src/command.c **** 	HAL_UART_Receive_IT(&huart1, &usbRxBuf, 1);		
 1540              		.loc 1 104 1 is_stmt 1 view -0
 1541              		.cfi_startproc
 1542              		@ args = 0, pretend = 0, frame = 0
 1543              		@ frame_needed = 0, uses_anonymous_args = 0
 1544 0000 38B5     		push	{r3, r4, r5, lr}
 1545              	.LCFI36:
 1546              		.cfi_def_cfa_offset 16
 1547              		.cfi_offset 3, -16
 1548              		.cfi_offset 4, -12
 1549              		.cfi_offset 5, -8
 1550              		.cfi_offset 14, -4
 105:App/Src/command.c ****     memset(g_UsbRxBuff, 0x00, sizeof(g_UsbRxBuff));
 1551              		.loc 1 105 2 view .LVU291
 1552 0002 0122     		movs	r2, #1
 1553 0004 1F49     		ldr	r1, .L108
 1554 0006 2048     		ldr	r0, .L108+4
 1555 0008 FFF7FEFF 		bl	HAL_UART_Receive_IT
 1556              	.LVL150:
 106:App/Src/command.c **** 	memset(g_UsbTxBuff, 0x00, sizeof(g_UsbTxBuff));
 1557              		.loc 1 106 5 view .LVU292
 1558 000c C825     		movs	r5, #200
 1559 000e 2A46     		mov	r2, r5
 1560 0010 0021     		movs	r1, #0
 1561 0012 1E48     		ldr	r0, .L108+8
 1562 0014 FFF7FEFF 		bl	memset
 1563              	.LVL151:
 107:App/Src/command.c **** 	HAL_UART_Receive_IT(&huart2, &deviceRxBuf, 1);		
 1564              		.loc 1 107 2 view .LVU293
ARM GAS  C:\Users\86158\AppData\Local\Temp\cc13CoIU.s 			page 49


 1565 0018 4FF49674 		mov	r4, #300
 1566 001c 2246     		mov	r2, r4
 1567 001e 0021     		movs	r1, #0
 1568 0020 1B48     		ldr	r0, .L108+12
 1569 0022 FFF7FEFF 		bl	memset
 1570              	.LVL152:
 108:App/Src/command.c ****     memset(g_DeviceRxBuff, 0x00, sizeof(g_DeviceRxBuff));
 1571              		.loc 1 108 2 view .LVU294
 1572 0026 0122     		movs	r2, #1
 1573 0028 1A49     		ldr	r1, .L108+16
 1574 002a 1B48     		ldr	r0, .L108+20
 1575 002c FFF7FEFF 		bl	HAL_UART_Receive_IT
 1576              	.LVL153:
 109:App/Src/command.c **** 	memset(g_DeviceTxBuff, 0x00, sizeof(g_DeviceTxBuff));
 1577              		.loc 1 109 5 view .LVU295
 1578 0030 2A46     		mov	r2, r5
 1579 0032 0021     		movs	r1, #0
 1580 0034 1948     		ldr	r0, .L108+24
 1581 0036 FFF7FEFF 		bl	memset
 1582              	.LVL154:
 110:App/Src/command.c **** 	ControlInit();
 1583              		.loc 1 110 2 view .LVU296
 1584 003a 2246     		mov	r2, r4
 1585 003c 0021     		movs	r1, #0
 1586 003e 1848     		ldr	r0, .L108+28
 1587 0040 FFF7FEFF 		bl	memset
 1588              	.LVL155:
 111:App/Src/command.c **** 
 1589              		.loc 1 111 2 view .LVU297
 1590 0044 FFF7FEFF 		bl	ControlInit
 1591              	.LVL156:
 113:App/Src/command.c ****     UsbPrintf("usb usart init success......\n");
 1592              		.loc 1 113 5 view .LVU298
 1593 0048 6420     		movs	r0, #100
 1594 004a FFF7FEFF 		bl	HAL_Delay
 1595              	.LVL157:
 114:App/Src/command.c **** 	HAL_GPIO_WritePin(GPIOE, GPIO_PIN_14, GPIO_PIN_RESET); 
 1596              		.loc 1 114 5 view .LVU299
 1597 004e 1548     		ldr	r0, .L108+32
 1598 0050 FFF7FEFF 		bl	UsbPrintf
 1599              	.LVL158:
 115:App/Src/command.c **** 	UsbPrintf("VDD is 3.3V\n");
 1600              		.loc 1 115 2 view .LVU300
 1601 0054 0022     		movs	r2, #0
 1602 0056 4FF48041 		mov	r1, #16384
 1603 005a 1348     		ldr	r0, .L108+36
 1604 005c FFF7FEFF 		bl	HAL_GPIO_WritePin
 1605              	.LVL159:
 116:App/Src/command.c **** 	rtc_otp_power(0);//配置dac电压
 1606              		.loc 1 116 2 view .LVU301
 1607 0060 1248     		ldr	r0, .L108+40
 1608 0062 FFF7FEFF 		bl	UsbPrintf
 1609              	.LVL160:
 117:App/Src/command.c **** 	if (CS1237Init()) {
 1610              		.loc 1 117 2 view .LVU302
 1611 0066 9FED120A 		vldr.32	s0, .L108+44
 1612 006a FFF7FEFF 		bl	rtc_otp_power
ARM GAS  C:\Users\86158\AppData\Local\Temp\cc13CoIU.s 			page 50


 1613              	.LVL161:
 118:App/Src/command.c ****     	UsbPrintf("CS1237 init success\n");
 1614              		.loc 1 118 2 view .LVU303
 118:App/Src/command.c ****     	UsbPrintf("CS1237 init success\n");
 1615              		.loc 1 118 6 is_stmt 0 view .LVU304
 1616 006e FFF7FEFF 		bl	CS1237Init
 1617              	.LVL162:
 118:App/Src/command.c ****     	UsbPrintf("CS1237 init success\n");
 1618              		.loc 1 118 5 view .LVU305
 1619 0072 18B1     		cbz	r0, .L105
 119:App/Src/command.c **** 	} else {
 1620              		.loc 1 119 6 is_stmt 1 view .LVU306
 1621 0074 0F48     		ldr	r0, .L108+48
 1622 0076 FFF7FEFF 		bl	UsbPrintf
 1623              	.LVL163:
 1624              	.L104:
 123:App/Src/command.c **** 
 1625              		.loc 1 123 1 is_stmt 0 view .LVU307
 1626 007a 38BD     		pop	{r3, r4, r5, pc}
 1627              	.L105:
 121:App/Src/command.c **** 	}
 1628              		.loc 1 121 6 is_stmt 1 view .LVU308
 1629 007c 0E48     		ldr	r0, .L108+52
 1630 007e FFF7FEFF 		bl	UsbPrintf
 1631              	.LVL164:
 123:App/Src/command.c **** 
 1632              		.loc 1 123 1 is_stmt 0 view .LVU309
 1633 0082 FAE7     		b	.L104
 1634              	.L109:
 1635              		.align	2
 1636              	.L108:
 1637 0084 00000000 		.word	.LANCHOR5
 1638 0088 00000000 		.word	huart1
 1639 008c 00000000 		.word	.LANCHOR6
 1640 0090 00000000 		.word	.LANCHOR0
 1641 0094 00000000 		.word	.LANCHOR7
 1642 0098 00000000 		.word	huart2
 1643 009c 00000000 		.word	.LANCHOR8
 1644 00a0 00000000 		.word	.LANCHOR4
 1645 00a4 00000000 		.word	.LC30
 1646 00a8 00100240 		.word	1073876992
 1647 00ac 00000000 		.word	.LC8
 1648 00b0 00000000 		.word	0
 1649 00b4 20000000 		.word	.LC31
 1650 00b8 38000000 		.word	.LC32
 1651              		.cfi_endproc
 1652              	.LFE240:
 1654              		.section	.text.strSearch,"ax",%progbits
 1655              		.align	1
 1656              		.global	strSearch
 1657              		.syntax unified
 1658              		.thumb
 1659              		.thumb_func
 1661              	strSearch:
 1662              	.LVL165:
 1663              	.LFB241:
 126:App/Src/command.c **** 	int len_source = strlen(source);
ARM GAS  C:\Users\86158\AppData\Local\Temp\cc13CoIU.s 			page 51


 1664              		.loc 1 126 1 is_stmt 1 view -0
 1665              		.cfi_startproc
 1666              		@ args = 0, pretend = 0, frame = 0
 1667              		@ frame_needed = 0, uses_anonymous_args = 0
 126:App/Src/command.c **** 	int len_source = strlen(source);
 1668              		.loc 1 126 1 is_stmt 0 view .LVU311
 1669 0000 70B5     		push	{r4, r5, r6, lr}
 1670              	.LCFI37:
 1671              		.cfi_def_cfa_offset 16
 1672              		.cfi_offset 4, -16
 1673              		.cfi_offset 5, -12
 1674              		.cfi_offset 6, -8
 1675              		.cfi_offset 14, -4
 1676 0002 0546     		mov	r5, r0
 1677 0004 0C46     		mov	r4, r1
 127:App/Src/command.c **** 	int len_target = strlen(target);
 1678              		.loc 1 127 2 is_stmt 1 view .LVU312
 127:App/Src/command.c **** 	int len_target = strlen(target);
 1679              		.loc 1 127 19 is_stmt 0 view .LVU313
 1680 0006 FFF7FEFF 		bl	strlen
 1681              	.LVL166:
 127:App/Src/command.c **** 	int len_target = strlen(target);
 1682              		.loc 1 127 19 view .LVU314
 1683 000a 0646     		mov	r6, r0
 1684              	.LVL167:
 128:App/Src/command.c **** 	int i, j;
 1685              		.loc 1 128 2 is_stmt 1 view .LVU315
 128:App/Src/command.c **** 	int i, j;
 1686              		.loc 1 128 19 is_stmt 0 view .LVU316
 1687 000c 2046     		mov	r0, r4
 1688              	.LVL168:
 128:App/Src/command.c **** 	int i, j;
 1689              		.loc 1 128 19 view .LVU317
 1690 000e FFF7FEFF 		bl	strlen
 1691              	.LVL169:
 129:App/Src/command.c **** 	if (len_source < len_target) {
 1692              		.loc 1 129 2 is_stmt 1 view .LVU318
 130:App/Src/command.c **** 		return -1;
 1693              		.loc 1 130 2 view .LVU319
 130:App/Src/command.c **** 		return -1;
 1694              		.loc 1 130 5 is_stmt 0 view .LVU320
 1695 0012 8642     		cmp	r6, r0
 1696 0014 16DB     		blt	.L116
 1697 0016 0146     		mov	r1, r0
 133:App/Src/command.c **** 		for (j = 0; j < len_target; j++) {
 1698              		.loc 1 133 9 view .LVU321
 1699 0018 0020     		movs	r0, #0
 1700              	.LVL170:
 133:App/Src/command.c **** 		for (j = 0; j < len_target; j++) {
 1701              		.loc 1 133 9 view .LVU322
 1702 001a 02E0     		b	.L112
 1703              	.LVL171:
 1704              	.L113:
 137:App/Src/command.c **** 	}
 1705              		.loc 1 137 3 is_stmt 1 view .LVU323
 137:App/Src/command.c **** 	}
 1706              		.loc 1 137 6 is_stmt 0 view .LVU324
ARM GAS  C:\Users\86158\AppData\Local\Temp\cc13CoIU.s 			page 52


 1707 001c 8B42     		cmp	r3, r1
 1708 001e 10D0     		beq	.L110
 133:App/Src/command.c **** 		for (j = 0; j < len_target; j++) {
 1709              		.loc 1 133 44 is_stmt 1 discriminator 2 view .LVU325
 133:App/Src/command.c **** 		for (j = 0; j < len_target; j++) {
 1710              		.loc 1 133 45 is_stmt 0 discriminator 2 view .LVU326
 1711 0020 0130     		adds	r0, r0, #1
 1712              	.LVL172:
 1713              	.L112:
 133:App/Src/command.c **** 		for (j = 0; j < len_target; j++) {
 1714              		.loc 1 133 14 is_stmt 1 discriminator 1 view .LVU327
 133:App/Src/command.c **** 		for (j = 0; j < len_target; j++) {
 1715              		.loc 1 133 30 is_stmt 0 discriminator 1 view .LVU328
 1716 0022 731A     		subs	r3, r6, r1
 133:App/Src/command.c **** 		for (j = 0; j < len_target; j++) {
 1717              		.loc 1 133 2 discriminator 1 view .LVU329
 1718 0024 8342     		cmp	r3, r0
 1719 0026 0ADB     		blt	.L119
 134:App/Src/command.c **** 			if (source[i + j] != target[j]) { break;}
 1720              		.loc 1 134 10 view .LVU330
 1721 0028 0023     		movs	r3, #0
 1722              	.L115:
 1723              	.LVL173:
 134:App/Src/command.c **** 			if (source[i + j] != target[j]) { break;}
 1724              		.loc 1 134 15 is_stmt 1 discriminator 1 view .LVU331
 134:App/Src/command.c **** 			if (source[i + j] != target[j]) { break;}
 1725              		.loc 1 134 3 is_stmt 0 discriminator 1 view .LVU332
 1726 002a 8B42     		cmp	r3, r1
 1727 002c F6DA     		bge	.L113
 135:App/Src/command.c **** 		}
 1728              		.loc 1 135 4 is_stmt 1 view .LVU333
 135:App/Src/command.c **** 		}
 1729              		.loc 1 135 17 is_stmt 0 view .LVU334
 1730 002e C218     		adds	r2, r0, r3
 135:App/Src/command.c **** 		}
 1731              		.loc 1 135 14 view .LVU335
 1732 0030 15F802C0 		ldrb	ip, [r5, r2]	@ zero_extendqisi2
 135:App/Src/command.c **** 		}
 1733              		.loc 1 135 31 view .LVU336
 1734 0034 E25C     		ldrb	r2, [r4, r3]	@ zero_extendqisi2
 135:App/Src/command.c **** 		}
 1735              		.loc 1 135 7 view .LVU337
 1736 0036 9445     		cmp	ip, r2
 1737 0038 F0D1     		bne	.L113
 134:App/Src/command.c **** 			if (source[i + j] != target[j]) { break;}
 1738              		.loc 1 134 31 is_stmt 1 discriminator 2 view .LVU338
 134:App/Src/command.c **** 			if (source[i + j] != target[j]) { break;}
 1739              		.loc 1 134 32 is_stmt 0 discriminator 2 view .LVU339
 1740 003a 0133     		adds	r3, r3, #1
 1741              	.LVL174:
 134:App/Src/command.c **** 			if (source[i + j] != target[j]) { break;}
 1742              		.loc 1 134 32 discriminator 2 view .LVU340
 1743 003c F5E7     		b	.L115
 1744              	.LVL175:
 1745              	.L119:
 139:App/Src/command.c **** }
 1746              		.loc 1 139 9 view .LVU341
ARM GAS  C:\Users\86158\AppData\Local\Temp\cc13CoIU.s 			page 53


 1747 003e 4FF0FF30 		mov	r0, #-1
 1748              	.LVL176:
 1749              	.L110:
 140:App/Src/command.c **** 
 1750              		.loc 1 140 1 view .LVU342
 1751 0042 70BD     		pop	{r4, r5, r6, pc}
 1752              	.LVL177:
 1753              	.L116:
 131:App/Src/command.c **** 	}		
 1754              		.loc 1 131 10 view .LVU343
 1755 0044 4FF0FF30 		mov	r0, #-1
 1756              	.LVL178:
 131:App/Src/command.c **** 	}		
 1757              		.loc 1 131 10 view .LVU344
 1758 0048 FBE7     		b	.L110
 1759              		.cfi_endproc
 1760              	.LFE241:
 1762              		.section	.rodata.AT_FREQTEST_Handle.str1.4,"aMS",%progbits,1
 1763              		.align	2
 1764              	.LC33:
 1765 0000 3A4D4541 		.ascii	":MEAS?\012\000"
 1765      533F0A00 
 1766              		.align	2
 1767              	.LC34:
 1768 0008 487A00   		.ascii	"Hz\000"
 1769 000b 00       		.align	2
 1770              	.LC35:
 1771 000c 25730A00 		.ascii	"%s\012\000"
 1772              		.align	2
 1773              	.LC36:
 1774 0010 64657669 		.ascii	"device no respose!\012\000"
 1774      6365206E 
 1774      6F207265 
 1774      73706F73 
 1774      65210A00 
 1775              		.section	.text.AT_FREQTEST_Handle,"ax",%progbits
 1776              		.align	1
 1777              		.global	AT_FREQTEST_Handle
 1778              		.syntax unified
 1779              		.thumb
 1780              		.thumb_func
 1782              	AT_FREQTEST_Handle:
 1783              	.LVL179:
 1784              	.LFB254:
 425:App/Src/command.c **** 	int i;
 1785              		.loc 1 425 1 is_stmt 1 view -0
 1786              		.cfi_startproc
 1787              		@ args = 0, pretend = 0, frame = 0
 1788              		@ frame_needed = 0, uses_anonymous_args = 0
 425:App/Src/command.c **** 	int i;
 1789              		.loc 1 425 1 is_stmt 0 view .LVU346
 1790 0000 10B5     		push	{r4, lr}
 1791              	.LCFI38:
 1792              		.cfi_def_cfa_offset 8
 1793              		.cfi_offset 4, -8
 1794              		.cfi_offset 14, -4
 426:App/Src/command.c **** 	DevicePrintf(":MEAS?\n");
ARM GAS  C:\Users\86158\AppData\Local\Temp\cc13CoIU.s 			page 54


 1795              		.loc 1 426 2 is_stmt 1 view .LVU347
 427:App/Src/command.c **** 	for (i = 0; i < 15; i++) {
 1796              		.loc 1 427 2 view .LVU348
 1797 0002 0F48     		ldr	r0, .L129
 1798              	.LVL180:
 427:App/Src/command.c **** 	for (i = 0; i < 15; i++) {
 1799              		.loc 1 427 2 is_stmt 0 view .LVU349
 1800 0004 FFF7FEFF 		bl	DevicePrintf
 1801              	.LVL181:
 428:App/Src/command.c **** 		HAL_Delay(100);
 1802              		.loc 1 428 2 is_stmt 1 view .LVU350
 428:App/Src/command.c **** 		HAL_Delay(100);
 1803              		.loc 1 428 9 is_stmt 0 view .LVU351
 1804 0008 0024     		movs	r4, #0
 1805              	.LVL182:
 1806              	.L121:
 428:App/Src/command.c **** 		HAL_Delay(100);
 1807              		.loc 1 428 14 is_stmt 1 discriminator 1 view .LVU352
 428:App/Src/command.c **** 		HAL_Delay(100);
 1808              		.loc 1 428 2 is_stmt 0 discriminator 1 view .LVU353
 1809 000a 0E2C     		cmp	r4, #14
 1810 000c 0EDC     		bgt	.L123
 429:App/Src/command.c **** 		if (strSearch((char*)g_DeviceRxBuff, "Hz") > 0) {
 1811              		.loc 1 429 3 is_stmt 1 view .LVU354
 1812 000e 6420     		movs	r0, #100
 1813 0010 FFF7FEFF 		bl	HAL_Delay
 1814              	.LVL183:
 430:App/Src/command.c **** 			UsbPrintf("%s\n", (char*)g_DeviceRxBuff);
 1815              		.loc 1 430 3 view .LVU355
 430:App/Src/command.c **** 			UsbPrintf("%s\n", (char*)g_DeviceRxBuff);
 1816              		.loc 1 430 7 is_stmt 0 view .LVU356
 1817 0014 0B49     		ldr	r1, .L129+4
 1818 0016 0C48     		ldr	r0, .L129+8
 1819 0018 FFF7FEFF 		bl	strSearch
 1820              	.LVL184:
 430:App/Src/command.c **** 			UsbPrintf("%s\n", (char*)g_DeviceRxBuff);
 1821              		.loc 1 430 6 view .LVU357
 1822 001c 0028     		cmp	r0, #0
 1823 001e 01DC     		bgt	.L127
 428:App/Src/command.c **** 		HAL_Delay(100);
 1824              		.loc 1 428 22 is_stmt 1 discriminator 2 view .LVU358
 428:App/Src/command.c **** 		HAL_Delay(100);
 1825              		.loc 1 428 23 is_stmt 0 discriminator 2 view .LVU359
 1826 0020 0134     		adds	r4, r4, #1
 1827              	.LVL185:
 428:App/Src/command.c **** 		HAL_Delay(100);
 1828              		.loc 1 428 23 discriminator 2 view .LVU360
 1829 0022 F2E7     		b	.L121
 1830              	.L127:
 431:App/Src/command.c **** 			break;
 1831              		.loc 1 431 4 is_stmt 1 view .LVU361
 1832 0024 0849     		ldr	r1, .L129+8
 1833 0026 0948     		ldr	r0, .L129+12
 1834 0028 FFF7FEFF 		bl	UsbPrintf
 1835              	.LVL186:
 432:App/Src/command.c **** 		}
 1836              		.loc 1 432 4 view .LVU362
ARM GAS  C:\Users\86158\AppData\Local\Temp\cc13CoIU.s 			page 55


 1837              	.L123:
 435:App/Src/command.c **** 		UsbPrintf("device no respose!\n");
 1838              		.loc 1 435 2 view .LVU363
 435:App/Src/command.c **** 		UsbPrintf("device no respose!\n");
 1839              		.loc 1 435 5 is_stmt 0 view .LVU364
 1840 002c 0E2C     		cmp	r4, #14
 1841 002e 03DC     		bgt	.L128
 1842              	.L125:
 439:App/Src/command.c **** }
 1843              		.loc 1 439 2 is_stmt 1 view .LVU365
 1844 0030 0748     		ldr	r0, .L129+16
 1845 0032 FFF7FEFF 		bl	UsbPrintf
 1846              	.LVL187:
 440:App/Src/command.c **** 
 1847              		.loc 1 440 1 is_stmt 0 view .LVU366
 1848 0036 10BD     		pop	{r4, pc}
 1849              	.LVL188:
 1850              	.L128:
 436:App/Src/command.c **** 	}
 1851              		.loc 1 436 3 is_stmt 1 view .LVU367
 1852 0038 0648     		ldr	r0, .L129+20
 1853 003a FFF7FEFF 		bl	UsbPrintf
 1854              	.LVL189:
 1855 003e F7E7     		b	.L125
 1856              	.L130:
 1857              		.align	2
 1858              	.L129:
 1859 0040 00000000 		.word	.LC33
 1860 0044 08000000 		.word	.LC34
 1861 0048 00000000 		.word	.LANCHOR8
 1862 004c 0C000000 		.word	.LC35
 1863 0050 1C000000 		.word	.LC10
 1864 0054 10000000 		.word	.LC36
 1865              		.cfi_endproc
 1866              	.LFE254:
 1868              		.section	.text.CharToInt,"ax",%progbits
 1869              		.align	1
 1870              		.global	CharToInt
 1871              		.syntax unified
 1872              		.thumb
 1873              		.thumb_func
 1875              	CharToInt:
 1876              	.LVL190:
 1877              	.LFB242:
 144:App/Src/command.c **** 	uint8_t length;
 1878              		.loc 1 144 1 view -0
 1879              		.cfi_startproc
 1880              		@ args = 0, pretend = 0, frame = 0
 1881              		@ frame_needed = 0, uses_anonymous_args = 0
 144:App/Src/command.c **** 	uint8_t length;
 1882              		.loc 1 144 1 is_stmt 0 view .LVU369
 1883 0000 70B5     		push	{r4, r5, r6, lr}
 1884              	.LCFI39:
 1885              		.cfi_def_cfa_offset 16
 1886              		.cfi_offset 4, -16
 1887              		.cfi_offset 5, -12
 1888              		.cfi_offset 6, -8
ARM GAS  C:\Users\86158\AppData\Local\Temp\cc13CoIU.s 			page 56


 1889              		.cfi_offset 14, -4
 1890 0002 0646     		mov	r6, r0
 1891 0004 0C46     		mov	r4, r1
 1892 0006 1546     		mov	r5, r2
 145:App/Src/command.c **** 	uint8_t i;
 1893              		.loc 1 145 2 is_stmt 1 view .LVU370
 146:App/Src/command.c **** 	int sum = 0;
 1894              		.loc 1 146 2 view .LVU371
 147:App/Src/command.c **** 	int state = 0;
 1895              		.loc 1 147 2 view .LVU372
 1896              	.LVL191:
 148:App/Src/command.c **** 	uint8_t hex = 0;
 1897              		.loc 1 148 2 view .LVU373
 149:App/Src/command.c **** 	length = strlen(source);
 1898              		.loc 1 149 2 view .LVU374
 150:App/Src/command.c **** 	if (start >= length) {
 1899              		.loc 1 150 2 view .LVU375
 150:App/Src/command.c **** 	if (start >= length) {
 1900              		.loc 1 150 11 is_stmt 0 view .LVU376
 1901 0008 FFF7FEFF 		bl	strlen
 1902              	.LVL192:
 150:App/Src/command.c **** 	if (start >= length) {
 1903              		.loc 1 150 9 view .LVU377
 1904 000c C2B2     		uxtb	r2, r0
 1905              	.LVL193:
 151:App/Src/command.c **** 		*number = 0;
 1906              		.loc 1 151 2 is_stmt 1 view .LVU378
 151:App/Src/command.c **** 		*number = 0;
 1907              		.loc 1 151 5 is_stmt 0 view .LVU379
 1908 000e A242     		cmp	r2, r4
 1909 0010 15D9     		bls	.L151
 156:App/Src/command.c **** 		state = -1;
 1910              		.loc 1 156 2 is_stmt 1 view .LVU380
 156:App/Src/command.c **** 		state = -1;
 1911              		.loc 1 156 12 is_stmt 0 view .LVU381
 1912 0012 A446     		mov	ip, r4
 1913 0014 315D     		ldrb	r1, [r6, r4]	@ zero_extendqisi2
 156:App/Src/command.c **** 		state = -1;
 1914              		.loc 1 156 5 view .LVU382
 1915 0016 2D29     		cmp	r1, #45
 1916 0018 14D0     		beq	.L152
 160:App/Src/command.c **** 		if (start + 1 < length ) {
 1917              		.loc 1 160 3 is_stmt 1 view .LVU383
 1918              	.LVL194:
 161:App/Src/command.c **** 			if (source[start] == '0' && (source[start + 1] == 'x' ||source[start + 1] == 'X')) {
 1919              		.loc 1 161 3 view .LVU384
 161:App/Src/command.c **** 			if (source[start] == '0' && (source[start + 1] == 'x' ||source[start + 1] == 'X')) {
 1920              		.loc 1 161 13 is_stmt 0 view .LVU385
 1921 001a 631C     		adds	r3, r4, #1
 161:App/Src/command.c **** 			if (source[start] == '0' && (source[start + 1] == 'x' ||source[start + 1] == 'X')) {
 1922              		.loc 1 161 17 view .LVU386
 1923 001c C0B2     		uxtb	r0, r0
 161:App/Src/command.c **** 			if (source[start] == '0' && (source[start + 1] == 'x' ||source[start + 1] == 'X')) {
 1924              		.loc 1 161 6 view .LVU387
 1925 001e 8342     		cmp	r3, r0
 1926 0020 17DA     		bge	.L147
 162:App/Src/command.c **** 				start += 2;
ARM GAS  C:\Users\86158\AppData\Local\Temp\cc13CoIU.s 			page 57


 1927              		.loc 1 162 4 is_stmt 1 view .LVU388
 162:App/Src/command.c **** 				start += 2;
 1928              		.loc 1 162 7 is_stmt 0 view .LVU389
 1929 0022 3029     		cmp	r1, #48
 1930 0024 19D1     		bne	.L148
 162:App/Src/command.c **** 				start += 2;
 1931              		.loc 1 162 39 discriminator 1 view .LVU390
 1932 0026 B444     		add	ip, ip, r6
 1933 0028 9CF80130 		ldrb	r3, [ip, #1]	@ zero_extendqisi2
 162:App/Src/command.c **** 				start += 2;
 1934              		.loc 1 162 29 discriminator 1 view .LVU391
 1935 002c 782B     		cmp	r3, #120
 1936 002e 01D0     		beq	.L136
 162:App/Src/command.c **** 				start += 2;
 1937              		.loc 1 162 58 discriminator 2 view .LVU392
 1938 0030 582B     		cmp	r3, #88
 1939 0032 16D1     		bne	.L149
 1940              	.L136:
 163:App/Src/command.c **** 				hex = 1;
 1941              		.loc 1 163 5 is_stmt 1 view .LVU393
 163:App/Src/command.c **** 				hex = 1;
 1942              		.loc 1 163 11 is_stmt 0 view .LVU394
 1943 0034 0234     		adds	r4, r4, #2
 1944 0036 E4B2     		uxtb	r4, r4
 1945              	.LVL195:
 164:App/Src/command.c **** 			}
 1946              		.loc 1 164 5 is_stmt 1 view .LVU395
 164:App/Src/command.c **** 			}
 1947              		.loc 1 164 9 is_stmt 0 view .LVU396
 1948 0038 0120     		movs	r0, #1
 160:App/Src/command.c **** 		if (start + 1 < length ) {
 1949              		.loc 1 160 9 view .LVU397
 1950 003a 8446     		mov	ip, r0
 1951 003c 07E0     		b	.L135
 1952              	.LVL196:
 1953              	.L151:
 152:App/Src/command.c **** 		return 0;
 1954              		.loc 1 152 3 is_stmt 1 view .LVU398
 152:App/Src/command.c **** 		return 0;
 1955              		.loc 1 152 11 is_stmt 0 view .LVU399
 1956 003e 0020     		movs	r0, #0
 1957 0040 2860     		str	r0, [r5]
 153:App/Src/command.c **** 	}
 1958              		.loc 1 153 3 is_stmt 1 view .LVU400
 153:App/Src/command.c **** 	}
 1959              		.loc 1 153 10 is_stmt 0 view .LVU401
 1960 0042 4CE0     		b	.L133
 1961              	.L152:
 157:App/Src/command.c **** 		start++;
 1962              		.loc 1 157 3 is_stmt 1 view .LVU402
 1963              	.LVL197:
 158:App/Src/command.c **** 	} else {
 1964              		.loc 1 158 3 view .LVU403
 158:App/Src/command.c **** 	} else {
 1965              		.loc 1 158 8 is_stmt 0 view .LVU404
 1966 0044 0134     		adds	r4, r4, #1
 1967 0046 E4B2     		uxtb	r4, r4
ARM GAS  C:\Users\86158\AppData\Local\Temp\cc13CoIU.s 			page 58


 1968              	.LVL198:
 149:App/Src/command.c **** 	length = strlen(source);
 1969              		.loc 1 149 10 view .LVU405
 1970 0048 0020     		movs	r0, #0
 157:App/Src/command.c **** 		start++;
 1971              		.loc 1 157 9 view .LVU406
 1972 004a 4FF0FF3C 		mov	ip, #-1
 1973              	.LVL199:
 1974              	.L135:
 168:App/Src/command.c **** 		if (source[i] >= '0' && source[i] <= '9') {
 1975              		.loc 1 168 2 is_stmt 1 view .LVU407
 147:App/Src/command.c **** 	int state = 0;
 1976              		.loc 1 147 6 is_stmt 0 view .LVU408
 1977 004e 0023     		movs	r3, #0
 168:App/Src/command.c **** 		if (source[i] >= '0' && source[i] <= '9') {
 1978              		.loc 1 168 2 view .LVU409
 1979 0050 12E0     		b	.L137
 1980              	.LVL200:
 1981              	.L147:
 149:App/Src/command.c **** 	length = strlen(source);
 1982              		.loc 1 149 10 view .LVU410
 1983 0052 0020     		movs	r0, #0
 160:App/Src/command.c **** 		if (start + 1 < length ) {
 1984              		.loc 1 160 9 view .LVU411
 1985 0054 4FF0010C 		mov	ip, #1
 1986 0058 F9E7     		b	.L135
 1987              	.L148:
 149:App/Src/command.c **** 	length = strlen(source);
 1988              		.loc 1 149 10 view .LVU412
 1989 005a 0020     		movs	r0, #0
 160:App/Src/command.c **** 		if (start + 1 < length ) {
 1990              		.loc 1 160 9 view .LVU413
 1991 005c 4FF0010C 		mov	ip, #1
 1992 0060 F5E7     		b	.L135
 1993              	.L149:
 149:App/Src/command.c **** 	length = strlen(source);
 1994              		.loc 1 149 10 view .LVU414
 1995 0062 0020     		movs	r0, #0
 160:App/Src/command.c **** 		if (start + 1 < length ) {
 1996              		.loc 1 160 9 view .LVU415
 1997 0064 4FF0010C 		mov	ip, #1
 1998 0068 F1E7     		b	.L135
 1999              	.LVL201:
 2000              	.L139:
 173:App/Src/command.c **** 			}
 2001              		.loc 1 173 5 is_stmt 1 view .LVU416
 173:App/Src/command.c **** 			}
 2002              		.loc 1 173 15 is_stmt 0 view .LVU417
 2003 006a 03EB8303 		add	r3, r3, r3, lsl #2
 2004              	.LVL202:
 173:App/Src/command.c **** 			}
 2005              		.loc 1 173 20 view .LVU418
 2006 006e 0EEB4303 		add	r3, lr, r3, lsl #1
 173:App/Src/command.c **** 			}
 2007              		.loc 1 173 9 view .LVU419
 2008 0072 303B     		subs	r3, r3, #48
 2009              	.LVL203:
ARM GAS  C:\Users\86158\AppData\Local\Temp\cc13CoIU.s 			page 59


 2010              	.L140:
 168:App/Src/command.c **** 		if (source[i] >= '0' && source[i] <= '9') {
 2011              		.loc 1 168 30 is_stmt 1 discriminator 2 view .LVU420
 168:App/Src/command.c **** 		if (source[i] >= '0' && source[i] <= '9') {
 2012              		.loc 1 168 31 is_stmt 0 discriminator 2 view .LVU421
 2013 0074 0134     		adds	r4, r4, #1
 2014              	.LVL204:
 168:App/Src/command.c **** 		if (source[i] >= '0' && source[i] <= '9') {
 2015              		.loc 1 168 31 discriminator 2 view .LVU422
 2016 0076 E4B2     		uxtb	r4, r4
 2017              	.LVL205:
 2018              	.L137:
 168:App/Src/command.c **** 		if (source[i] >= '0' && source[i] <= '9') {
 2019              		.loc 1 168 18 is_stmt 1 discriminator 1 view .LVU423
 168:App/Src/command.c **** 		if (source[i] >= '0' && source[i] <= '9') {
 2020              		.loc 1 168 2 is_stmt 0 discriminator 1 view .LVU424
 2021 0078 9442     		cmp	r4, r2
 2022 007a 2CD2     		bcs	.L145
 169:App/Src/command.c **** 			if (hex == 1) {
 2023              		.loc 1 169 3 is_stmt 1 view .LVU425
 169:App/Src/command.c **** 			if (hex == 1) {
 2024              		.loc 1 169 13 is_stmt 0 view .LVU426
 2025 007c 16F804E0 		ldrb	lr, [r6, r4]	@ zero_extendqisi2
 169:App/Src/command.c **** 			if (hex == 1) {
 2026              		.loc 1 169 24 view .LVU427
 2027 0080 AEF13001 		sub	r1, lr, #48
 2028 0084 C9B2     		uxtb	r1, r1
 169:App/Src/command.c **** 			if (hex == 1) {
 2029              		.loc 1 169 6 view .LVU428
 2030 0086 0929     		cmp	r1, #9
 2031 0088 05D8     		bhi	.L138
 170:App/Src/command.c **** 				sum = sum * 16 + source[i] - '0';
 2032              		.loc 1 170 4 is_stmt 1 view .LVU429
 170:App/Src/command.c **** 				sum = sum * 16 + source[i] - '0';
 2033              		.loc 1 170 7 is_stmt 0 view .LVU430
 2034 008a 0028     		cmp	r0, #0
 2035 008c EDD0     		beq	.L139
 171:App/Src/command.c **** 			} else {
 2036              		.loc 1 171 5 is_stmt 1 view .LVU431
 171:App/Src/command.c **** 			} else {
 2037              		.loc 1 171 20 is_stmt 0 view .LVU432
 2038 008e 0EEB0313 		add	r3, lr, r3, lsl #4
 2039              	.LVL206:
 171:App/Src/command.c **** 			} else {
 2040              		.loc 1 171 9 view .LVU433
 2041 0092 303B     		subs	r3, r3, #48
 2042              	.LVL207:
 171:App/Src/command.c **** 			} else {
 2043              		.loc 1 171 9 view .LVU434
 2044 0094 EEE7     		b	.L140
 2045              	.L138:
 175:App/Src/command.c **** 			if (hex == 1) {
 2046              		.loc 1 175 10 is_stmt 1 view .LVU435
 175:App/Src/command.c **** 			if (hex == 1) {
 2047              		.loc 1 175 31 is_stmt 0 view .LVU436
 2048 0096 AEF16101 		sub	r1, lr, #97
 2049 009a C9B2     		uxtb	r1, r1
ARM GAS  C:\Users\86158\AppData\Local\Temp\cc13CoIU.s 			page 60


 175:App/Src/command.c **** 			if (hex == 1) {
 2050              		.loc 1 175 13 view .LVU437
 2051 009c 0529     		cmp	r1, #5
 2052 009e 07D8     		bhi	.L141
 176:App/Src/command.c **** 				sum = sum * 16  + source[i] - 'a' + 10;
 2053              		.loc 1 176 4 is_stmt 1 view .LVU438
 176:App/Src/command.c **** 				sum = sum * 16  + source[i] - 'a' + 10;
 2054              		.loc 1 176 7 is_stmt 0 view .LVU439
 2055 00a0 18B1     		cbz	r0, .L142
 177:App/Src/command.c **** 			} else {
 2056              		.loc 1 177 5 is_stmt 1 view .LVU440
 177:App/Src/command.c **** 			} else {
 2057              		.loc 1 177 21 is_stmt 0 view .LVU441
 2058 00a2 0EEB0313 		add	r3, lr, r3, lsl #4
 2059              	.LVL208:
 177:App/Src/command.c **** 			} else {
 2060              		.loc 1 177 9 view .LVU442
 2061 00a6 573B     		subs	r3, r3, #87
 2062              	.LVL209:
 177:App/Src/command.c **** 			} else {
 2063              		.loc 1 177 9 view .LVU443
 2064 00a8 E4E7     		b	.L140
 2065              	.L142:
 179:App/Src/command.c **** 				return 0;
 2066              		.loc 1 179 5 is_stmt 1 view .LVU444
 179:App/Src/command.c **** 				return 0;
 2067              		.loc 1 179 13 is_stmt 0 view .LVU445
 2068 00aa 0023     		movs	r3, #0
 2069              	.LVL210:
 179:App/Src/command.c **** 				return 0;
 2070              		.loc 1 179 13 view .LVU446
 2071 00ac 2B60     		str	r3, [r5]
 180:App/Src/command.c **** 			}
 2072              		.loc 1 180 5 is_stmt 1 view .LVU447
 180:App/Src/command.c **** 			}
 2073              		.loc 1 180 12 is_stmt 0 view .LVU448
 2074 00ae 16E0     		b	.L133
 2075              	.LVL211:
 2076              	.L141:
 182:App/Src/command.c **** 			if (hex == 1) {
 2077              		.loc 1 182 9 is_stmt 1 view .LVU449
 182:App/Src/command.c **** 			if (hex == 1) {
 2078              		.loc 1 182 30 is_stmt 0 view .LVU450
 2079 00b0 AEF14101 		sub	r1, lr, #65
 2080 00b4 C9B2     		uxtb	r1, r1
 182:App/Src/command.c **** 			if (hex == 1) {
 2081              		.loc 1 182 12 view .LVU451
 2082 00b6 0529     		cmp	r1, #5
 2083 00b8 07D8     		bhi	.L143
 183:App/Src/command.c **** 				sum = sum * 16  + source[i] - 'A' + 10;
 2084              		.loc 1 183 4 is_stmt 1 view .LVU452
 183:App/Src/command.c **** 				sum = sum * 16  + source[i] - 'A' + 10;
 2085              		.loc 1 183 7 is_stmt 0 view .LVU453
 2086 00ba 18B1     		cbz	r0, .L144
 184:App/Src/command.c **** 			} else {
 2087              		.loc 1 184 5 is_stmt 1 view .LVU454
 184:App/Src/command.c **** 			} else {
ARM GAS  C:\Users\86158\AppData\Local\Temp\cc13CoIU.s 			page 61


 2088              		.loc 1 184 21 is_stmt 0 view .LVU455
 2089 00bc 0EEB0313 		add	r3, lr, r3, lsl #4
 2090              	.LVL212:
 184:App/Src/command.c **** 			} else {
 2091              		.loc 1 184 9 view .LVU456
 2092 00c0 373B     		subs	r3, r3, #55
 2093              	.LVL213:
 184:App/Src/command.c **** 			} else {
 2094              		.loc 1 184 9 view .LVU457
 2095 00c2 D7E7     		b	.L140
 2096              	.L144:
 186:App/Src/command.c **** 				return 0;
 2097              		.loc 1 186 5 is_stmt 1 view .LVU458
 186:App/Src/command.c **** 				return 0;
 2098              		.loc 1 186 13 is_stmt 0 view .LVU459
 2099 00c4 0023     		movs	r3, #0
 2100              	.LVL214:
 186:App/Src/command.c **** 				return 0;
 2101              		.loc 1 186 13 view .LVU460
 2102 00c6 2B60     		str	r3, [r5]
 187:App/Src/command.c **** 			}
 2103              		.loc 1 187 5 is_stmt 1 view .LVU461
 187:App/Src/command.c **** 			}
 2104              		.loc 1 187 12 is_stmt 0 view .LVU462
 2105 00c8 09E0     		b	.L133
 2106              	.LVL215:
 2107              	.L143:
 189:App/Src/command.c **** 			break;
 2108              		.loc 1 189 10 is_stmt 1 view .LVU463
 189:App/Src/command.c **** 			break;
 2109              		.loc 1 189 13 is_stmt 0 view .LVU464
 2110 00ca BEF1200F 		cmp	lr, #32
 2111 00ce 02D0     		beq	.L145
 189:App/Src/command.c **** 			break;
 2112              		.loc 1 189 31 discriminator 1 view .LVU465
 2113 00d0 BEF12C0F 		cmp	lr, #44
 2114 00d4 CED1     		bne	.L140
 2115              	.L145:
 193:App/Src/command.c **** 	return 1;
 2116              		.loc 1 193 2 is_stmt 1 view .LVU466
 193:App/Src/command.c **** 	return 1;
 2117              		.loc 1 193 18 is_stmt 0 view .LVU467
 2118 00d6 0CFB03F3 		mul	r3, ip, r3
 2119              	.LVL216:
 193:App/Src/command.c **** 	return 1;
 2120              		.loc 1 193 10 view .LVU468
 2121 00da 2B60     		str	r3, [r5]
 194:App/Src/command.c **** }
 2122              		.loc 1 194 2 is_stmt 1 view .LVU469
 194:App/Src/command.c **** }
 2123              		.loc 1 194 9 is_stmt 0 view .LVU470
 2124 00dc 0120     		movs	r0, #1
 2125              	.LVL217:
 2126              	.L133:
 195:App/Src/command.c **** 
 2127              		.loc 1 195 1 view .LVU471
 2128 00de 70BD     		pop	{r4, r5, r6, pc}
ARM GAS  C:\Users\86158\AppData\Local\Temp\cc13CoIU.s 			page 62


 195:App/Src/command.c **** 
 2129              		.loc 1 195 1 view .LVU472
 2130              		.cfi_endproc
 2131              	.LFE242:
 2133              		.section	.rodata.AT_READDATA_Handle.str1.4,"aMS",%progbits,1
 2134              		.align	2
 2135              	.LC37:
 2136 0000 2C00     		.ascii	",\000"
 2137 0002 0000     		.align	2
 2138              	.LC38:
 2139 0004 696E7075 		.ascii	"input error\012\000"
 2139      74206572 
 2139      726F720A 
 2139      00
 2140 0011 000000   		.align	2
 2141              	.LC39:
 2142 0014 7265675B 		.ascii	"reg[0x%x] = 0x%x\012\000"
 2142      30782578 
 2142      5D203D20 
 2142      30782578 
 2142      0A00
 2143              		.section	.text.AT_READDATA_Handle,"ax",%progbits
 2144              		.align	1
 2145              		.global	AT_READDATA_Handle
 2146              		.syntax unified
 2147              		.thumb
 2148              		.thumb_func
 2150              	AT_READDATA_Handle:
 2151              	.LVL218:
 2152              	.LFB246:
 264:App/Src/command.c ****     int reg, address, num = 0;
 2153              		.loc 1 264 1 is_stmt 1 view -0
 2154              		.cfi_startproc
 2155              		@ args = 0, pretend = 0, frame = 16
 2156              		@ frame_needed = 0, uses_anonymous_args = 0
 264:App/Src/command.c ****     int reg, address, num = 0;
 2157              		.loc 1 264 1 is_stmt 0 view .LVU474
 2158 0000 10B5     		push	{r4, lr}
 2159              	.LCFI40:
 2160              		.cfi_def_cfa_offset 8
 2161              		.cfi_offset 4, -8
 2162              		.cfi_offset 14, -4
 2163 0002 84B0     		sub	sp, sp, #16
 2164              	.LCFI41:
 2165              		.cfi_def_cfa_offset 24
 2166 0004 0446     		mov	r4, r0
 265:App/Src/command.c **** 	uint8_t result = 0;
 2167              		.loc 1 265 5 is_stmt 1 view .LVU475
 2168              	.LVL219:
 266:App/Src/command.c **** 	if (CharToInt(command, 12, &address) == 1) {
 2169              		.loc 1 266 2 view .LVU476
 266:App/Src/command.c **** 	if (CharToInt(command, 12, &address) == 1) {
 2170              		.loc 1 266 10 is_stmt 0 view .LVU477
 2171 0006 0023     		movs	r3, #0
 2172 0008 8DF80730 		strb	r3, [sp, #7]
 267:App/Src/command.c **** 		num = strSearch(command, ",");
 2173              		.loc 1 267 2 is_stmt 1 view .LVU478
ARM GAS  C:\Users\86158\AppData\Local\Temp\cc13CoIU.s 			page 63


 267:App/Src/command.c **** 		num = strSearch(command, ",");
 2174              		.loc 1 267 6 is_stmt 0 view .LVU479
 2175 000c 02AA     		add	r2, sp, #8
 2176 000e 0C21     		movs	r1, #12
 2177 0010 FFF7FEFF 		bl	CharToInt
 2178              	.LVL220:
 267:App/Src/command.c **** 		num = strSearch(command, ",");
 2179              		.loc 1 267 5 view .LVU480
 2180 0014 0128     		cmp	r0, #1
 2181 0016 01D0     		beq	.L159
 2182              	.LVL221:
 2183              	.L153:
 274:App/Src/command.c **** 
 2184              		.loc 1 274 1 view .LVU481
 2185 0018 04B0     		add	sp, sp, #16
 2186              	.LCFI42:
 2187              		.cfi_remember_state
 2188              		.cfi_def_cfa_offset 8
 2189              		@ sp needed
 2190 001a 10BD     		pop	{r4, pc}
 2191              	.LVL222:
 2192              	.L159:
 2193              	.LCFI43:
 2194              		.cfi_restore_state
 268:App/Src/command.c **** 		if (num < 0 || address < 0) { UsbPrintf("input error\n"); return; }
 2195              		.loc 1 268 3 is_stmt 1 view .LVU482
 268:App/Src/command.c **** 		if (num < 0 || address < 0) { UsbPrintf("input error\n"); return; }
 2196              		.loc 1 268 9 is_stmt 0 view .LVU483
 2197 001c 1149     		ldr	r1, .L160
 2198 001e 2046     		mov	r0, r4
 2199 0020 FFF7FEFF 		bl	strSearch
 2200              	.LVL223:
 269:App/Src/command.c **** 		CharToInt(command, num + 1, &reg);
 2201              		.loc 1 269 3 is_stmt 1 view .LVU484
 269:App/Src/command.c **** 		CharToInt(command, num + 1, &reg);
 2202              		.loc 1 269 6 is_stmt 0 view .LVU485
 2203 0024 0028     		cmp	r0, #0
 269:App/Src/command.c **** 		CharToInt(command, num + 1, &reg);
 2204              		.loc 1 269 6 view .LVU486
 2205 0026 18DB     		blt	.L155
 269:App/Src/command.c **** 		CharToInt(command, num + 1, &reg);
 2206              		.loc 1 269 26 discriminator 2 view .LVU487
 2207 0028 029B     		ldr	r3, [sp, #8]
 269:App/Src/command.c **** 		CharToInt(command, num + 1, &reg);
 2208              		.loc 1 269 15 discriminator 2 view .LVU488
 2209 002a 002B     		cmp	r3, #0
 2210 002c 15DB     		blt	.L155
 270:App/Src/command.c **** 		i2c_read_multi_bytes(address, reg, &result, 1);
 2211              		.loc 1 270 3 is_stmt 1 view .LVU489
 2212 002e 0130     		adds	r0, r0, #1
 2213              	.LVL224:
 270:App/Src/command.c **** 		i2c_read_multi_bytes(address, reg, &result, 1);
 2214              		.loc 1 270 3 is_stmt 0 view .LVU490
 2215 0030 03AA     		add	r2, sp, #12
 2216 0032 C1B2     		uxtb	r1, r0
 2217 0034 2046     		mov	r0, r4
 2218              	.LVL225:
ARM GAS  C:\Users\86158\AppData\Local\Temp\cc13CoIU.s 			page 64


 270:App/Src/command.c **** 		i2c_read_multi_bytes(address, reg, &result, 1);
 2219              		.loc 1 270 3 view .LVU491
 2220 0036 FFF7FEFF 		bl	CharToInt
 2221              	.LVL226:
 271:App/Src/command.c **** 		UsbPrintf("reg[0x%x] = 0x%x\n", reg, result);
 2222              		.loc 1 271 3 is_stmt 1 view .LVU492
 2223 003a 0123     		movs	r3, #1
 2224 003c 0DF10702 		add	r2, sp, #7
 2225 0040 9DF80C10 		ldrb	r1, [sp, #12]	@ zero_extendqisi2
 2226 0044 9DF80800 		ldrb	r0, [sp, #8]	@ zero_extendqisi2
 2227 0048 FFF7FEFF 		bl	i2c_read_multi_bytes
 2228              	.LVL227:
 272:App/Src/command.c **** 	}
 2229              		.loc 1 272 3 view .LVU493
 2230 004c 9DF80720 		ldrb	r2, [sp, #7]	@ zero_extendqisi2
 2231 0050 0399     		ldr	r1, [sp, #12]
 2232 0052 0548     		ldr	r0, .L160+4
 2233 0054 FFF7FEFF 		bl	UsbPrintf
 2234              	.LVL228:
 2235 0058 DEE7     		b	.L153
 2236              	.LVL229:
 2237              	.L155:
 269:App/Src/command.c **** 		CharToInt(command, num + 1, &reg);
 2238              		.loc 1 269 33 discriminator 3 view .LVU494
 2239 005a 0448     		ldr	r0, .L160+8
 2240              	.LVL230:
 269:App/Src/command.c **** 		CharToInt(command, num + 1, &reg);
 2241              		.loc 1 269 33 is_stmt 0 discriminator 3 view .LVU495
 2242 005c FFF7FEFF 		bl	UsbPrintf
 2243              	.LVL231:
 269:App/Src/command.c **** 		CharToInt(command, num + 1, &reg);
 2244              		.loc 1 269 61 is_stmt 1 discriminator 3 view .LVU496
 2245 0060 DAE7     		b	.L153
 2246              	.L161:
 2247 0062 00BF     		.align	2
 2248              	.L160:
 2249 0064 00000000 		.word	.LC37
 2250 0068 14000000 		.word	.LC39
 2251 006c 04000000 		.word	.LC38
 2252              		.cfi_endproc
 2253              	.LFE246:
 2255              		.section	.rodata.AT_SETTIME_Handle.str1.4,"aMS",%progbits,1
 2256              		.align	2
 2257              	.LC40:
 2258 0000 79656172 		.ascii	"year:\000"
 2258      3A00
 2259 0006 0000     		.align	2
 2260              	.LC41:
 2261 0008 6D6F6E3A 		.ascii	"mon:\000"
 2261      00
 2262 000d 000000   		.align	2
 2263              	.LC42:
 2264 0010 6461793A 		.ascii	"day:\000"
 2264      00
 2265 0015 000000   		.align	2
 2266              	.LC43:
 2267 0018 686F7572 		.ascii	"hour:\000"
ARM GAS  C:\Users\86158\AppData\Local\Temp\cc13CoIU.s 			page 65


 2267      3A00
 2268 001e 0000     		.align	2
 2269              	.LC44:
 2270 0020 6D696E3A 		.ascii	"min:\000"
 2270      00
 2271 0025 000000   		.align	2
 2272              	.LC45:
 2273 0028 7365633A 		.ascii	"sec:\000"
 2273      00
 2274 002d 000000   		.align	2
 2275              	.LC46:
 2276 0030 64617465 		.ascii	"date set success!\012OK!\015\012\000"
 2276      20736574 
 2276      20737563 
 2276      63657373 
 2276      210A4F4B 
 2277              		.section	.text.AT_SETTIME_Handle,"ax",%progbits
 2278              		.align	1
 2279              		.global	AT_SETTIME_Handle
 2280              		.syntax unified
 2281              		.thumb
 2282              		.thumb_func
 2284              	AT_SETTIME_Handle:
 2285              	.LVL232:
 2286              	.LFB247:
 277:App/Src/command.c **** 	RealTime rtc = {0};
 2287              		.loc 1 277 1 view -0
 2288              		.cfi_startproc
 2289              		@ args = 0, pretend = 0, frame = 16
 2290              		@ frame_needed = 0, uses_anonymous_args = 0
 277:App/Src/command.c **** 	RealTime rtc = {0};
 2291              		.loc 1 277 1 is_stmt 0 view .LVU498
 2292 0000 10B5     		push	{r4, lr}
 2293              	.LCFI44:
 2294              		.cfi_def_cfa_offset 8
 2295              		.cfi_offset 4, -8
 2296              		.cfi_offset 14, -4
 2297 0002 84B0     		sub	sp, sp, #16
 2298              	.LCFI45:
 2299              		.cfi_def_cfa_offset 24
 2300 0004 0446     		mov	r4, r0
 278:App/Src/command.c **** 	int num = 0;
 2301              		.loc 1 278 2 is_stmt 1 view .LVU499
 278:App/Src/command.c **** 	int num = 0;
 2302              		.loc 1 278 11 is_stmt 0 view .LVU500
 2303 0006 0023     		movs	r3, #0
 2304 0008 0293     		str	r3, [sp, #8]
 2305 000a 0393     		str	r3, [sp, #12]
 279:App/Src/command.c **** 	int inNumber = 0;
 2306              		.loc 1 279 2 is_stmt 1 view .LVU501
 2307              	.LVL233:
 280:App/Src/command.c **** 
 2308              		.loc 1 280 2 view .LVU502
 280:App/Src/command.c **** 
 2309              		.loc 1 280 6 is_stmt 0 view .LVU503
 2310 000c 0193     		str	r3, [sp, #4]
 282:App/Src/command.c **** 	num = strSearch(command, "year:");
ARM GAS  C:\Users\86158\AppData\Local\Temp\cc13CoIU.s 			page 66


 2311              		.loc 1 282 2 is_stmt 1 view .LVU504
 2312 000e 02A8     		add	r0, sp, #8
 2313              	.LVL234:
 282:App/Src/command.c **** 	num = strSearch(command, "year:");
 2314              		.loc 1 282 2 is_stmt 0 view .LVU505
 2315 0010 FFF7FEFF 		bl	system_get_real_time
 2316              	.LVL235:
 283:App/Src/command.c **** 	if (num != -1) {
 2317              		.loc 1 283 2 is_stmt 1 view .LVU506
 283:App/Src/command.c **** 	if (num != -1) {
 2318              		.loc 1 283 8 is_stmt 0 view .LVU507
 2319 0014 5749     		ldr	r1, .L177
 2320 0016 2046     		mov	r0, r4
 2321 0018 FFF7FEFF 		bl	strSearch
 2322              	.LVL236:
 284:App/Src/command.c **** 		num += strlen("year:");
 2323              		.loc 1 284 2 is_stmt 1 view .LVU508
 284:App/Src/command.c **** 		num += strlen("year:");
 2324              		.loc 1 284 5 is_stmt 0 view .LVU509
 2325 001c B0F1FF3F 		cmp	r0, #-1
 2326 0020 3FD1     		bne	.L172
 2327              	.LVL237:
 2328              	.L163:
 289:App/Src/command.c **** 	if (num != -1) {
 2329              		.loc 1 289 2 is_stmt 1 view .LVU510
 289:App/Src/command.c **** 	if (num != -1) {
 2330              		.loc 1 289 8 is_stmt 0 view .LVU511
 2331 0022 5549     		ldr	r1, .L177+4
 2332 0024 2046     		mov	r0, r4
 2333 0026 FFF7FEFF 		bl	strSearch
 2334              	.LVL238:
 290:App/Src/command.c **** 		num += strlen("mon:");
 2335              		.loc 1 290 2 is_stmt 1 view .LVU512
 290:App/Src/command.c **** 		num += strlen("mon:");
 2336              		.loc 1 290 5 is_stmt 0 view .LVU513
 2337 002a B0F1FF3F 		cmp	r0, #-1
 2338 002e 4DD1     		bne	.L173
 2339              	.LVL239:
 2340              	.L165:
 295:App/Src/command.c **** 	if (num != -1) {
 2341              		.loc 1 295 2 is_stmt 1 view .LVU514
 295:App/Src/command.c **** 	if (num != -1) {
 2342              		.loc 1 295 8 is_stmt 0 view .LVU515
 2343 0030 5249     		ldr	r1, .L177+8
 2344 0032 2046     		mov	r0, r4
 2345 0034 FFF7FEFF 		bl	strSearch
 2346              	.LVL240:
 296:App/Src/command.c **** 		num += strlen("day:");
 2347              		.loc 1 296 2 is_stmt 1 view .LVU516
 296:App/Src/command.c **** 		num += strlen("day:");
 2348              		.loc 1 296 5 is_stmt 0 view .LVU517
 2349 0038 B0F1FF3F 		cmp	r0, #-1
 2350 003c 5BD1     		bne	.L174
 2351              	.LVL241:
 2352              	.L166:
 301:App/Src/command.c **** 	if (num != -1) {
 2353              		.loc 1 301 2 is_stmt 1 view .LVU518
ARM GAS  C:\Users\86158\AppData\Local\Temp\cc13CoIU.s 			page 67


 301:App/Src/command.c **** 	if (num != -1) {
 2354              		.loc 1 301 8 is_stmt 0 view .LVU519
 2355 003e 5049     		ldr	r1, .L177+12
 2356 0040 2046     		mov	r0, r4
 2357 0042 FFF7FEFF 		bl	strSearch
 2358              	.LVL242:
 302:App/Src/command.c **** 		num += strlen("hour:");
 2359              		.loc 1 302 2 is_stmt 1 view .LVU520
 302:App/Src/command.c **** 		num += strlen("hour:");
 2360              		.loc 1 302 5 is_stmt 0 view .LVU521
 2361 0046 B0F1FF3F 		cmp	r0, #-1
 2362 004a 69D1     		bne	.L175
 2363              	.LVL243:
 2364              	.L167:
 307:App/Src/command.c **** 	if (num != -1) {
 2365              		.loc 1 307 2 is_stmt 1 view .LVU522
 307:App/Src/command.c **** 	if (num != -1) {
 2366              		.loc 1 307 8 is_stmt 0 view .LVU523
 2367 004c 4D49     		ldr	r1, .L177+16
 2368 004e 2046     		mov	r0, r4
 2369 0050 FFF7FEFF 		bl	strSearch
 2370              	.LVL244:
 308:App/Src/command.c **** 		num += strlen("min:");
 2371              		.loc 1 308 2 is_stmt 1 view .LVU524
 308:App/Src/command.c **** 		num += strlen("min:");
 2372              		.loc 1 308 5 is_stmt 0 view .LVU525
 2373 0054 B0F1FF3F 		cmp	r0, #-1
 2374 0058 77D1     		bne	.L176
 2375              	.LVL245:
 2376              	.L168:
 313:App/Src/command.c **** 	if (num != -1) {
 2377              		.loc 1 313 2 is_stmt 1 view .LVU526
 313:App/Src/command.c **** 	if (num != -1) {
 2378              		.loc 1 313 8 is_stmt 0 view .LVU527
 2379 005a 4B49     		ldr	r1, .L177+20
 2380 005c 2046     		mov	r0, r4
 2381 005e FFF7FEFF 		bl	strSearch
 2382              	.LVL246:
 314:App/Src/command.c **** 		num += strlen("sec:");
 2383              		.loc 1 314 2 is_stmt 1 view .LVU528
 314:App/Src/command.c **** 		num += strlen("sec:");
 2384              		.loc 1 314 5 is_stmt 0 view .LVU529
 2385 0062 B0F1FF3F 		cmp	r0, #-1
 2386 0066 12D0     		beq	.L169
 315:App/Src/command.c **** 		if (CharToInt(command, num, &inNumber) == 0 ) {	return; }
 2387              		.loc 1 315 3 is_stmt 1 view .LVU530
 315:App/Src/command.c **** 		if (CharToInt(command, num, &inNumber) == 0 ) {	return; }
 2388              		.loc 1 315 7 is_stmt 0 view .LVU531
 2389 0068 0430     		adds	r0, r0, #4
 2390              	.LVL247:
 316:App/Src/command.c **** 		rtc.sec = inNumber % 100;
 2391              		.loc 1 316 3 is_stmt 1 view .LVU532
 316:App/Src/command.c **** 		rtc.sec = inNumber % 100;
 2392              		.loc 1 316 7 is_stmt 0 view .LVU533
 2393 006a 01AA     		add	r2, sp, #4
 2394 006c C1B2     		uxtb	r1, r0
 2395 006e 2046     		mov	r0, r4
ARM GAS  C:\Users\86158\AppData\Local\Temp\cc13CoIU.s 			page 68


 2396              	.LVL248:
 316:App/Src/command.c **** 		rtc.sec = inNumber % 100;
 2397              		.loc 1 316 7 view .LVU534
 2398 0070 FFF7FEFF 		bl	CharToInt
 2399              	.LVL249:
 316:App/Src/command.c **** 		rtc.sec = inNumber % 100;
 2400              		.loc 1 316 6 view .LVU535
 2401 0074 98B1     		cbz	r0, .L162
 317:App/Src/command.c **** 	}
 2402              		.loc 1 317 3 is_stmt 1 view .LVU536
 317:App/Src/command.c **** 	}
 2403              		.loc 1 317 22 is_stmt 0 view .LVU537
 2404 0076 019A     		ldr	r2, [sp, #4]
 2405 0078 4449     		ldr	r1, .L177+24
 2406 007a 81FB0231 		smull	r3, r1, r1, r2
 2407 007e D317     		asrs	r3, r2, #31
 2408 0080 C3EB6113 		rsb	r3, r3, r1, asr #5
 2409 0084 6421     		movs	r1, #100
 2410 0086 01FB1323 		mls	r3, r1, r3, r2
 317:App/Src/command.c **** 	}
 2411              		.loc 1 317 11 view .LVU538
 2412 008a 8DF80D30 		strb	r3, [sp, #13]
 2413              	.L169:
 319:App/Src/command.c **** 	UsbPrintf("date set success!\nOK!\r\n");
 2414              		.loc 1 319 2 is_stmt 1 view .LVU539
 2415 008e 04AB     		add	r3, sp, #16
 2416 0090 13E90300 		ldmdb	r3, {r0, r1}
 2417 0094 FFF7FEFF 		bl	system_set_real_time
 2418              	.LVL250:
 320:App/Src/command.c **** }
 2419              		.loc 1 320 2 view .LVU540
 2420 0098 3D48     		ldr	r0, .L177+28
 2421 009a FFF7FEFF 		bl	UsbPrintf
 2422              	.LVL251:
 2423              	.L162:
 321:App/Src/command.c **** 
 2424              		.loc 1 321 1 is_stmt 0 view .LVU541
 2425 009e 04B0     		add	sp, sp, #16
 2426              	.LCFI46:
 2427              		.cfi_remember_state
 2428              		.cfi_def_cfa_offset 8
 2429              		@ sp needed
 2430 00a0 10BD     		pop	{r4, pc}
 2431              	.LVL252:
 2432              	.L172:
 2433              	.LCFI47:
 2434              		.cfi_restore_state
 285:App/Src/command.c **** 		if (CharToInt(command, num, &inNumber) == 0 ) {	return; }
 2435              		.loc 1 285 3 is_stmt 1 view .LVU542
 285:App/Src/command.c **** 		if (CharToInt(command, num, &inNumber) == 0 ) {	return; }
 2436              		.loc 1 285 7 is_stmt 0 view .LVU543
 2437 00a2 0530     		adds	r0, r0, #5
 2438              	.LVL253:
 286:App/Src/command.c **** 		rtc.year = inNumber % 100;
 2439              		.loc 1 286 3 is_stmt 1 view .LVU544
 286:App/Src/command.c **** 		rtc.year = inNumber % 100;
 2440              		.loc 1 286 7 is_stmt 0 view .LVU545
ARM GAS  C:\Users\86158\AppData\Local\Temp\cc13CoIU.s 			page 69


 2441 00a4 01AA     		add	r2, sp, #4
 2442 00a6 C1B2     		uxtb	r1, r0
 2443 00a8 2046     		mov	r0, r4
 2444              	.LVL254:
 286:App/Src/command.c **** 		rtc.year = inNumber % 100;
 2445              		.loc 1 286 7 view .LVU546
 2446 00aa FFF7FEFF 		bl	CharToInt
 2447              	.LVL255:
 286:App/Src/command.c **** 		rtc.year = inNumber % 100;
 2448              		.loc 1 286 6 view .LVU547
 2449 00ae 0028     		cmp	r0, #0
 2450 00b0 F5D0     		beq	.L162
 287:App/Src/command.c **** 	}
 2451              		.loc 1 287 3 is_stmt 1 view .LVU548
 287:App/Src/command.c **** 	}
 2452              		.loc 1 287 23 is_stmt 0 view .LVU549
 2453 00b2 019A     		ldr	r2, [sp, #4]
 2454 00b4 3549     		ldr	r1, .L177+24
 2455 00b6 81FB0231 		smull	r3, r1, r1, r2
 2456 00ba D317     		asrs	r3, r2, #31
 2457 00bc C3EB6113 		rsb	r3, r3, r1, asr #5
 2458 00c0 6421     		movs	r1, #100
 2459 00c2 01FB1323 		mls	r3, r1, r3, r2
 287:App/Src/command.c **** 	}
 2460              		.loc 1 287 12 view .LVU550
 2461 00c6 8DF80830 		strb	r3, [sp, #8]
 2462 00ca AAE7     		b	.L163
 2463              	.LVL256:
 2464              	.L173:
 291:App/Src/command.c **** 		if (CharToInt(command, num, &inNumber) == 0 ) {	return; }
 2465              		.loc 1 291 3 is_stmt 1 view .LVU551
 291:App/Src/command.c **** 		if (CharToInt(command, num, &inNumber) == 0 ) {	return; }
 2466              		.loc 1 291 7 is_stmt 0 view .LVU552
 2467 00cc 0430     		adds	r0, r0, #4
 2468              	.LVL257:
 292:App/Src/command.c **** 		rtc.mon = inNumber % 100;
 2469              		.loc 1 292 3 is_stmt 1 view .LVU553
 292:App/Src/command.c **** 		rtc.mon = inNumber % 100;
 2470              		.loc 1 292 7 is_stmt 0 view .LVU554
 2471 00ce 01AA     		add	r2, sp, #4
 2472 00d0 C1B2     		uxtb	r1, r0
 2473 00d2 2046     		mov	r0, r4
 2474              	.LVL258:
 292:App/Src/command.c **** 		rtc.mon = inNumber % 100;
 2475              		.loc 1 292 7 view .LVU555
 2476 00d4 FFF7FEFF 		bl	CharToInt
 2477              	.LVL259:
 292:App/Src/command.c **** 		rtc.mon = inNumber % 100;
 2478              		.loc 1 292 6 view .LVU556
 2479 00d8 0028     		cmp	r0, #0
 2480 00da E0D0     		beq	.L162
 293:App/Src/command.c **** 	}	
 2481              		.loc 1 293 3 is_stmt 1 view .LVU557
 293:App/Src/command.c **** 	}	
 2482              		.loc 1 293 22 is_stmt 0 view .LVU558
 2483 00dc 019A     		ldr	r2, [sp, #4]
 2484 00de 2B49     		ldr	r1, .L177+24
ARM GAS  C:\Users\86158\AppData\Local\Temp\cc13CoIU.s 			page 70


 2485 00e0 81FB0231 		smull	r3, r1, r1, r2
 2486 00e4 D317     		asrs	r3, r2, #31
 2487 00e6 C3EB6113 		rsb	r3, r3, r1, asr #5
 2488 00ea 6421     		movs	r1, #100
 2489 00ec 01FB1323 		mls	r3, r1, r3, r2
 293:App/Src/command.c **** 	}	
 2490              		.loc 1 293 11 view .LVU559
 2491 00f0 8DF80930 		strb	r3, [sp, #9]
 2492 00f4 9CE7     		b	.L165
 2493              	.LVL260:
 2494              	.L174:
 297:App/Src/command.c **** 		if (CharToInt(command, num, &inNumber) == 0 ) {	return; }
 2495              		.loc 1 297 3 is_stmt 1 view .LVU560
 297:App/Src/command.c **** 		if (CharToInt(command, num, &inNumber) == 0 ) {	return; }
 2496              		.loc 1 297 7 is_stmt 0 view .LVU561
 2497 00f6 0430     		adds	r0, r0, #4
 2498              	.LVL261:
 298:App/Src/command.c **** 		rtc.day = inNumber % 100;
 2499              		.loc 1 298 3 is_stmt 1 view .LVU562
 298:App/Src/command.c **** 		rtc.day = inNumber % 100;
 2500              		.loc 1 298 7 is_stmt 0 view .LVU563
 2501 00f8 01AA     		add	r2, sp, #4
 2502 00fa C1B2     		uxtb	r1, r0
 2503 00fc 2046     		mov	r0, r4
 2504              	.LVL262:
 298:App/Src/command.c **** 		rtc.day = inNumber % 100;
 2505              		.loc 1 298 7 view .LVU564
 2506 00fe FFF7FEFF 		bl	CharToInt
 2507              	.LVL263:
 298:App/Src/command.c **** 		rtc.day = inNumber % 100;
 2508              		.loc 1 298 6 view .LVU565
 2509 0102 0028     		cmp	r0, #0
 2510 0104 CBD0     		beq	.L162
 299:App/Src/command.c **** 	}	
 2511              		.loc 1 299 3 is_stmt 1 view .LVU566
 299:App/Src/command.c **** 	}	
 2512              		.loc 1 299 22 is_stmt 0 view .LVU567
 2513 0106 019A     		ldr	r2, [sp, #4]
 2514 0108 2049     		ldr	r1, .L177+24
 2515 010a 81FB0231 		smull	r3, r1, r1, r2
 2516 010e D317     		asrs	r3, r2, #31
 2517 0110 C3EB6113 		rsb	r3, r3, r1, asr #5
 2518 0114 6421     		movs	r1, #100
 2519 0116 01FB1323 		mls	r3, r1, r3, r2
 299:App/Src/command.c **** 	}	
 2520              		.loc 1 299 11 view .LVU568
 2521 011a 8DF80A30 		strb	r3, [sp, #10]
 2522 011e 8EE7     		b	.L166
 2523              	.LVL264:
 2524              	.L175:
 303:App/Src/command.c **** 		if (CharToInt(command, num, &inNumber) == 0 ) {	return; }
 2525              		.loc 1 303 3 is_stmt 1 view .LVU569
 303:App/Src/command.c **** 		if (CharToInt(command, num, &inNumber) == 0 ) {	return; }
 2526              		.loc 1 303 7 is_stmt 0 view .LVU570
 2527 0120 0530     		adds	r0, r0, #5
 2528              	.LVL265:
 304:App/Src/command.c **** 		rtc.hour = inNumber % 100;
ARM GAS  C:\Users\86158\AppData\Local\Temp\cc13CoIU.s 			page 71


 2529              		.loc 1 304 3 is_stmt 1 view .LVU571
 304:App/Src/command.c **** 		rtc.hour = inNumber % 100;
 2530              		.loc 1 304 7 is_stmt 0 view .LVU572
 2531 0122 01AA     		add	r2, sp, #4
 2532 0124 C1B2     		uxtb	r1, r0
 2533 0126 2046     		mov	r0, r4
 2534              	.LVL266:
 304:App/Src/command.c **** 		rtc.hour = inNumber % 100;
 2535              		.loc 1 304 7 view .LVU573
 2536 0128 FFF7FEFF 		bl	CharToInt
 2537              	.LVL267:
 304:App/Src/command.c **** 		rtc.hour = inNumber % 100;
 2538              		.loc 1 304 6 view .LVU574
 2539 012c 0028     		cmp	r0, #0
 2540 012e B6D0     		beq	.L162
 305:App/Src/command.c **** 	}	
 2541              		.loc 1 305 3 is_stmt 1 view .LVU575
 305:App/Src/command.c **** 	}	
 2542              		.loc 1 305 23 is_stmt 0 view .LVU576
 2543 0130 019A     		ldr	r2, [sp, #4]
 2544 0132 1649     		ldr	r1, .L177+24
 2545 0134 81FB0231 		smull	r3, r1, r1, r2
 2546 0138 D317     		asrs	r3, r2, #31
 2547 013a C3EB6113 		rsb	r3, r3, r1, asr #5
 2548 013e 6421     		movs	r1, #100
 2549 0140 01FB1323 		mls	r3, r1, r3, r2
 305:App/Src/command.c **** 	}	
 2550              		.loc 1 305 12 view .LVU577
 2551 0144 8DF80B30 		strb	r3, [sp, #11]
 2552 0148 80E7     		b	.L167
 2553              	.LVL268:
 2554              	.L176:
 309:App/Src/command.c **** 		if (CharToInt(command, num, &inNumber) == 0 ) {	return; }
 2555              		.loc 1 309 3 is_stmt 1 view .LVU578
 309:App/Src/command.c **** 		if (CharToInt(command, num, &inNumber) == 0 ) {	return; }
 2556              		.loc 1 309 7 is_stmt 0 view .LVU579
 2557 014a 0430     		adds	r0, r0, #4
 2558              	.LVL269:
 310:App/Src/command.c **** 		rtc.min = inNumber % 100;
 2559              		.loc 1 310 3 is_stmt 1 view .LVU580
 310:App/Src/command.c **** 		rtc.min = inNumber % 100;
 2560              		.loc 1 310 7 is_stmt 0 view .LVU581
 2561 014c 01AA     		add	r2, sp, #4
 2562 014e C1B2     		uxtb	r1, r0
 2563 0150 2046     		mov	r0, r4
 2564              	.LVL270:
 310:App/Src/command.c **** 		rtc.min = inNumber % 100;
 2565              		.loc 1 310 7 view .LVU582
 2566 0152 FFF7FEFF 		bl	CharToInt
 2567              	.LVL271:
 310:App/Src/command.c **** 		rtc.min = inNumber % 100;
 2568              		.loc 1 310 6 view .LVU583
 2569 0156 0028     		cmp	r0, #0
 2570 0158 A1D0     		beq	.L162
 311:App/Src/command.c **** 	}	
 2571              		.loc 1 311 3 is_stmt 1 view .LVU584
 311:App/Src/command.c **** 	}	
ARM GAS  C:\Users\86158\AppData\Local\Temp\cc13CoIU.s 			page 72


 2572              		.loc 1 311 22 is_stmt 0 view .LVU585
 2573 015a 019A     		ldr	r2, [sp, #4]
 2574 015c 0B49     		ldr	r1, .L177+24
 2575 015e 81FB0231 		smull	r3, r1, r1, r2
 2576 0162 D317     		asrs	r3, r2, #31
 2577 0164 C3EB6113 		rsb	r3, r3, r1, asr #5
 2578 0168 6421     		movs	r1, #100
 2579 016a 01FB1323 		mls	r3, r1, r3, r2
 311:App/Src/command.c **** 	}	
 2580              		.loc 1 311 11 view .LVU586
 2581 016e 8DF80C30 		strb	r3, [sp, #12]
 2582 0172 72E7     		b	.L168
 2583              	.L178:
 2584              		.align	2
 2585              	.L177:
 2586 0174 00000000 		.word	.LC40
 2587 0178 08000000 		.word	.LC41
 2588 017c 10000000 		.word	.LC42
 2589 0180 18000000 		.word	.LC43
 2590 0184 20000000 		.word	.LC44
 2591 0188 28000000 		.word	.LC45
 2592 018c 1F85EB51 		.word	1374389535
 2593 0190 30000000 		.word	.LC46
 2594              		.cfi_endproc
 2595              	.LFE247:
 2597              		.section	.rodata.AT_RTC4096_Handle.str1.4,"aMS",%progbits,1
 2598              		.align	2
 2599              	.LC47:
 2600 0000 0A696963 		.ascii	"\012iic error\012\000"
 2600      20657272 
 2600      6F720A00 
 2601              		.section	.text.AT_RTC4096_Handle,"ax",%progbits
 2602              		.align	1
 2603              		.global	AT_RTC4096_Handle
 2604              		.syntax unified
 2605              		.thumb
 2606              		.thumb_func
 2608              	AT_RTC4096_Handle:
 2609              	.LVL272:
 2610              	.LFB251:
 351:App/Src/command.c **** 	int inNumber;
 2611              		.loc 1 351 1 is_stmt 1 view -0
 2612              		.cfi_startproc
 2613              		@ args = 0, pretend = 0, frame = 8
 2614              		@ frame_needed = 0, uses_anonymous_args = 0
 351:App/Src/command.c **** 	int inNumber;
 2615              		.loc 1 351 1 is_stmt 0 view .LVU588
 2616 0000 00B5     		push	{lr}
 2617              	.LCFI48:
 2618              		.cfi_def_cfa_offset 4
 2619              		.cfi_offset 14, -4
 2620 0002 83B0     		sub	sp, sp, #12
 2621              	.LCFI49:
 2622              		.cfi_def_cfa_offset 16
 352:App/Src/command.c **** 	uint8_t result;
 2623              		.loc 1 352 2 is_stmt 1 view .LVU589
 353:App/Src/command.c **** 	if (CharToInt(command, 11, &inNumber) == 0 ) {
ARM GAS  C:\Users\86158\AppData\Local\Temp\cc13CoIU.s 			page 73


 2624              		.loc 1 353 2 view .LVU590
 354:App/Src/command.c **** 		UsbPrintf("input error\n");
 2625              		.loc 1 354 2 view .LVU591
 354:App/Src/command.c **** 		UsbPrintf("input error\n");
 2626              		.loc 1 354 6 is_stmt 0 view .LVU592
 2627 0004 01AA     		add	r2, sp, #4
 2628 0006 0B21     		movs	r1, #11
 2629 0008 FFF7FEFF 		bl	CharToInt
 2630              	.LVL273:
 354:App/Src/command.c **** 		UsbPrintf("input error\n");
 2631              		.loc 1 354 5 view .LVU593
 2632 000c 58B1     		cbz	r0, .L187
 359:App/Src/command.c **** 		result = rtc_out_4096();
 2633              		.loc 1 359 2 is_stmt 1 view .LVU594
 359:App/Src/command.c **** 		result = rtc_out_4096();
 2634              		.loc 1 359 15 is_stmt 0 view .LVU595
 2635 000e 019B     		ldr	r3, [sp, #4]
 359:App/Src/command.c **** 		result = rtc_out_4096();
 2636              		.loc 1 359 5 view .LVU596
 2637 0010 002B     		cmp	r3, #0
 2638 0012 0CDD     		ble	.L182
 360:App/Src/command.c **** 	} else {
 2639              		.loc 1 360 3 is_stmt 1 view .LVU597
 360:App/Src/command.c **** 	} else {
 2640              		.loc 1 360 12 is_stmt 0 view .LVU598
 2641 0014 FFF7FEFF 		bl	rtc_out_4096
 2642              	.LVL274:
 2643              	.L183:
 364:App/Src/command.c **** 		UsbPrintf("\nOK\n");
 2644              		.loc 1 364 2 is_stmt 1 view .LVU599
 364:App/Src/command.c **** 		UsbPrintf("\nOK\n");
 2645              		.loc 1 364 5 is_stmt 0 view .LVU600
 2646 0018 60B9     		cbnz	r0, .L184
 365:App/Src/command.c **** 	} else {
 2647              		.loc 1 365 3 is_stmt 1 view .LVU601
 2648 001a 0848     		ldr	r0, .L188
 2649              	.LVL275:
 365:App/Src/command.c **** 	} else {
 2650              		.loc 1 365 3 is_stmt 0 view .LVU602
 2651 001c FFF7FEFF 		bl	UsbPrintf
 2652              	.LVL276:
 2653              	.L179:
 369:App/Src/command.c **** 
 2654              		.loc 1 369 1 view .LVU603
 2655 0020 03B0     		add	sp, sp, #12
 2656              	.LCFI50:
 2657              		.cfi_remember_state
 2658              		.cfi_def_cfa_offset 4
 2659              		@ sp needed
 2660 0022 5DF804FB 		ldr	pc, [sp], #4
 2661              	.L187:
 2662              	.LCFI51:
 2663              		.cfi_restore_state
 355:App/Src/command.c **** 		return;
 2664              		.loc 1 355 3 is_stmt 1 view .LVU604
 2665 0026 0648     		ldr	r0, .L188+4
 2666 0028 FFF7FEFF 		bl	UsbPrintf
ARM GAS  C:\Users\86158\AppData\Local\Temp\cc13CoIU.s 			page 74


 2667              	.LVL277:
 356:App/Src/command.c **** 	}
 2668              		.loc 1 356 3 view .LVU605
 2669 002c F8E7     		b	.L179
 2670              	.L182:
 362:App/Src/command.c **** 	}
 2671              		.loc 1 362 3 view .LVU606
 362:App/Src/command.c **** 	}
 2672              		.loc 1 362 12 is_stmt 0 view .LVU607
 2673 002e FFF7FEFF 		bl	rtc_disable_int
 2674              	.LVL278:
 362:App/Src/command.c **** 	}
 2675              		.loc 1 362 12 view .LVU608
 2676 0032 F1E7     		b	.L183
 2677              	.L184:
 367:App/Src/command.c **** 	}
 2678              		.loc 1 367 3 is_stmt 1 view .LVU609
 2679 0034 0348     		ldr	r0, .L188+8
 2680              	.LVL279:
 367:App/Src/command.c **** 	}
 2681              		.loc 1 367 3 is_stmt 0 view .LVU610
 2682 0036 FFF7FEFF 		bl	UsbPrintf
 2683              	.LVL280:
 2684 003a F1E7     		b	.L179
 2685              	.L189:
 2686              		.align	2
 2687              	.L188:
 2688 003c 18000000 		.word	.LC12
 2689 0040 04000000 		.word	.LC38
 2690 0044 00000000 		.word	.LC47
 2691              		.cfi_endproc
 2692              	.LFE251:
 2694              		.section	.rodata.AT_RTCADJCAP_Handle.str1.4,"aMS",%progbits,1
 2695              		.align	2
 2696              	.LC48:
 2697 0000 3D00     		.ascii	"=\000"
 2698 0002 0000     		.align	2
 2699              	.LC49:
 2700 0004 63617020 		.ascii	"cap adjust error\012\000"
 2700      61646A75 
 2700      73742065 
 2700      72726F72 
 2700      0A00
 2701 0016 0000     		.align	2
 2702              	.LC50:
 2703 0018 63617020 		.ascii	"cap set success\012\000"
 2703      73657420 
 2703      73756363 
 2703      6573730A 
 2703      00
 2704              		.section	.text.AT_RTCADJCAP_Handle,"ax",%progbits
 2705              		.align	1
 2706              		.global	AT_RTCADJCAP_Handle
 2707              		.syntax unified
 2708              		.thumb
 2709              		.thumb_func
 2711              	AT_RTCADJCAP_Handle:
ARM GAS  C:\Users\86158\AppData\Local\Temp\cc13CoIU.s 			page 75


 2712              	.LVL281:
 2713              	.LFB252:
 373:App/Src/command.c **** 	// uint8_t osc_buf[2] = {0};
 2714              		.loc 1 373 1 is_stmt 1 view -0
 2715              		.cfi_startproc
 2716              		@ args = 0, pretend = 0, frame = 8
 2717              		@ frame_needed = 0, uses_anonymous_args = 0
 373:App/Src/command.c **** 	// uint8_t osc_buf[2] = {0};
 2718              		.loc 1 373 1 is_stmt 0 view .LVU612
 2719 0000 10B5     		push	{r4, lr}
 2720              	.LCFI52:
 2721              		.cfi_def_cfa_offset 8
 2722              		.cfi_offset 4, -8
 2723              		.cfi_offset 14, -4
 2724 0002 82B0     		sub	sp, sp, #8
 2725              	.LCFI53:
 2726              		.cfi_def_cfa_offset 16
 2727 0004 0446     		mov	r4, r0
 389:App/Src/command.c **** 	int number = 0;
 2728              		.loc 1 389 2 is_stmt 1 view .LVU613
 389:App/Src/command.c **** 	int number = 0;
 2729              		.loc 1 389 10 is_stmt 0 view .LVU614
 2730 0006 0023     		movs	r3, #0
 2731 0008 ADF80430 		strh	r3, [sp, #4]	@ movhi
 390:App/Src/command.c **** 
 2732              		.loc 1 390 2 is_stmt 1 view .LVU615
 390:App/Src/command.c **** 
 2733              		.loc 1 390 6 is_stmt 0 view .LVU616
 2734 000c 0093     		str	r3, [sp]
 392:App/Src/command.c **** 	if (number == 2000) {
 2735              		.loc 1 392 2 is_stmt 1 view .LVU617
 392:App/Src/command.c **** 	if (number == 2000) {
 2736              		.loc 1 392 21 is_stmt 0 view .LVU618
 2737 000e 1249     		ldr	r1, .L196
 2738 0010 FFF7FEFF 		bl	strSearch
 2739              	.LVL282:
 392:App/Src/command.c **** 	if (number == 2000) {
 2740              		.loc 1 392 2 view .LVU619
 2741 0014 411C     		adds	r1, r0, #1
 2742 0016 6A46     		mov	r2, sp
 2743 0018 C9B2     		uxtb	r1, r1
 2744 001a 2046     		mov	r0, r4
 2745 001c FFF7FEFF 		bl	CharToInt
 2746              	.LVL283:
 393:App/Src/command.c **** 		cap[0] = 0x00;
 2747              		.loc 1 393 2 is_stmt 1 view .LVU620
 393:App/Src/command.c **** 		cap[0] = 0x00;
 2748              		.loc 1 393 13 is_stmt 0 view .LVU621
 2749 0020 0098     		ldr	r0, [sp]
 393:App/Src/command.c **** 		cap[0] = 0x00;
 2750              		.loc 1 393 5 view .LVU622
 2751 0022 B0F5FA6F 		cmp	r0, #2000
 2752 0026 0ED1     		bne	.L191
 394:App/Src/command.c **** 		cap[1] = 0x16;
 2753              		.loc 1 394 3 is_stmt 1 view .LVU623
 394:App/Src/command.c **** 		cap[1] = 0x16;
 2754              		.loc 1 394 10 is_stmt 0 view .LVU624
ARM GAS  C:\Users\86158\AppData\Local\Temp\cc13CoIU.s 			page 76


 2755 0028 0023     		movs	r3, #0
 2756 002a 8DF80430 		strb	r3, [sp, #4]
 395:App/Src/command.c **** 	} else {
 2757              		.loc 1 395 3 is_stmt 1 view .LVU625
 395:App/Src/command.c **** 	} else {
 2758              		.loc 1 395 10 is_stmt 0 view .LVU626
 2759 002e 1623     		movs	r3, #22
 2760 0030 8DF80530 		strb	r3, [sp, #5]
 2761              	.L192:
 399:App/Src/command.c **** 		UsbPrintf("cap adjust error\n");
 2762              		.loc 1 399 2 is_stmt 1 view .LVU627
 399:App/Src/command.c **** 		UsbPrintf("cap adjust error\n");
 2763              		.loc 1 399 6 is_stmt 0 view .LVU628
 2764 0034 01A8     		add	r0, sp, #4
 2765 0036 FFF7FEFF 		bl	rtc_set_testcap
 2766              	.LVL284:
 399:App/Src/command.c **** 		UsbPrintf("cap adjust error\n");
 2767              		.loc 1 399 5 view .LVU629
 2768 003a 48B1     		cbz	r0, .L193
 400:App/Src/command.c **** 	} else {
 2769              		.loc 1 400 3 is_stmt 1 view .LVU630
 2770 003c 0748     		ldr	r0, .L196+4
 2771 003e FFF7FEFF 		bl	UsbPrintf
 2772              	.LVL285:
 2773              	.L190:
 406:App/Src/command.c **** 
 2774              		.loc 1 406 1 is_stmt 0 view .LVU631
 2775 0042 02B0     		add	sp, sp, #8
 2776              	.LCFI54:
 2777              		.cfi_remember_state
 2778              		.cfi_def_cfa_offset 8
 2779              		@ sp needed
 2780 0044 10BD     		pop	{r4, pc}
 2781              	.LVL286:
 2782              	.L191:
 2783              	.LCFI55:
 2784              		.cfi_restore_state
 397:App/Src/command.c **** 	}
 2785              		.loc 1 397 3 is_stmt 1 view .LVU632
 2786 0046 01A9     		add	r1, sp, #4
 2787 0048 80B2     		uxth	r0, r0
 2788 004a FFF7FEFF 		bl	cap_list_to_uint
 2789              	.LVL287:
 2790 004e F1E7     		b	.L192
 2791              	.L193:
 402:App/Src/command.c **** 	}
 2792              		.loc 1 402 3 view .LVU633
 2793 0050 0348     		ldr	r0, .L196+8
 2794 0052 FFF7FEFF 		bl	UsbPrintf
 2795              	.LVL288:
 406:App/Src/command.c **** 
 2796              		.loc 1 406 1 is_stmt 0 view .LVU634
 2797 0056 F4E7     		b	.L190
 2798              	.L197:
 2799              		.align	2
 2800              	.L196:
 2801 0058 00000000 		.word	.LC48
ARM GAS  C:\Users\86158\AppData\Local\Temp\cc13CoIU.s 			page 77


 2802 005c 04000000 		.word	.LC49
 2803 0060 18000000 		.word	.LC50
 2804              		.cfi_endproc
 2805              	.LFE252:
 2807              		.section	.rodata.AT_READGROUP_Handle.str1.4,"aMS",%progbits,1
 2808              		.align	2
 2809              	.LC51:
 2810 0000 72656164 		.ascii	"read group[%d] reg[0x%x]:\000"
 2810      2067726F 
 2810      75705B25 
 2810      645D2072 
 2810      65675B30 
 2811 001a 0000     		.align	2
 2812              	.LC52:
 2813 001c 30782530 		.ascii	"0x%02x \000"
 2813      32782000 
 2814              		.section	.text.AT_READGROUP_Handle,"ax",%progbits
 2815              		.align	1
 2816              		.global	AT_READGROUP_Handle
 2817              		.syntax unified
 2818              		.thumb
 2819              		.thumb_func
 2821              	AT_READGROUP_Handle:
 2822              	.LVL289:
 2823              	.LFB255:
 443:App/Src/command.c **** 	int channel;
 2824              		.loc 1 443 1 is_stmt 1 view -0
 2825              		.cfi_startproc
 2826              		@ args = 0, pretend = 0, frame = 16
 2827              		@ frame_needed = 0, uses_anonymous_args = 0
 443:App/Src/command.c **** 	int channel;
 2828              		.loc 1 443 1 is_stmt 0 view .LVU636
 2829 0000 10B5     		push	{r4, lr}
 2830              	.LCFI56:
 2831              		.cfi_def_cfa_offset 8
 2832              		.cfi_offset 4, -8
 2833              		.cfi_offset 14, -4
 2834 0002 84B0     		sub	sp, sp, #16
 2835              	.LCFI57:
 2836              		.cfi_def_cfa_offset 24
 2837 0004 0446     		mov	r4, r0
 444:App/Src/command.c **** 	int i;
 2838              		.loc 1 444 2 is_stmt 1 view .LVU637
 445:App/Src/command.c ****     int reg, num = 0;
 2839              		.loc 1 445 2 view .LVU638
 446:App/Src/command.c **** 	uint8_t result[8] = {0};
 2840              		.loc 1 446 5 view .LVU639
 2841              	.LVL290:
 447:App/Src/command.c **** 	if (CharToInt(command, 13, &channel) == 1) {
 2842              		.loc 1 447 2 view .LVU640
 447:App/Src/command.c **** 	if (CharToInt(command, 13, &channel) == 1) {
 2843              		.loc 1 447 10 is_stmt 0 view .LVU641
 2844 0006 0023     		movs	r3, #0
 2845 0008 0093     		str	r3, [sp]
 2846 000a 0193     		str	r3, [sp, #4]
 448:App/Src/command.c **** 		num = strSearch(command, ",");
 2847              		.loc 1 448 2 is_stmt 1 view .LVU642
ARM GAS  C:\Users\86158\AppData\Local\Temp\cc13CoIU.s 			page 78


 448:App/Src/command.c **** 		num = strSearch(command, ",");
 2848              		.loc 1 448 6 is_stmt 0 view .LVU643
 2849 000c 03AA     		add	r2, sp, #12
 2850 000e 0D21     		movs	r1, #13
 2851 0010 FFF7FEFF 		bl	CharToInt
 2852              	.LVL291:
 448:App/Src/command.c **** 		num = strSearch(command, ",");
 2853              		.loc 1 448 5 view .LVU644
 2854 0014 0128     		cmp	r0, #1
 2855 0016 01D0     		beq	.L206
 2856              	.LVL292:
 2857              	.L198:
 464:App/Src/command.c **** 
 2858              		.loc 1 464 1 view .LVU645
 2859 0018 04B0     		add	sp, sp, #16
 2860              	.LCFI58:
 2861              		.cfi_remember_state
 2862              		.cfi_def_cfa_offset 8
 2863              		@ sp needed
 2864 001a 10BD     		pop	{r4, pc}
 2865              	.LVL293:
 2866              	.L206:
 2867              	.LCFI59:
 2868              		.cfi_restore_state
 449:App/Src/command.c **** 		if (num < 0 || channel < 0) { UsbPrintf("input error\n"); return; }
 2869              		.loc 1 449 3 is_stmt 1 view .LVU646
 449:App/Src/command.c **** 		if (num < 0 || channel < 0) { UsbPrintf("input error\n"); return; }
 2870              		.loc 1 449 9 is_stmt 0 view .LVU647
 2871 001c 1E49     		ldr	r1, .L207
 2872 001e 2046     		mov	r0, r4
 2873 0020 FFF7FEFF 		bl	strSearch
 2874              	.LVL294:
 450:App/Src/command.c **** 		CharToInt(command, num + 1, &reg);
 2875              		.loc 1 450 3 is_stmt 1 view .LVU648
 450:App/Src/command.c **** 		CharToInt(command, num + 1, &reg);
 2876              		.loc 1 450 6 is_stmt 0 view .LVU649
 2877 0024 0028     		cmp	r0, #0
 450:App/Src/command.c **** 		CharToInt(command, num + 1, &reg);
 2878              		.loc 1 450 6 view .LVU650
 2879 0026 26DB     		blt	.L200
 450:App/Src/command.c **** 		CharToInt(command, num + 1, &reg);
 2880              		.loc 1 450 26 discriminator 2 view .LVU651
 2881 0028 039B     		ldr	r3, [sp, #12]
 450:App/Src/command.c **** 		CharToInt(command, num + 1, &reg);
 2882              		.loc 1 450 15 discriminator 2 view .LVU652
 2883 002a 002B     		cmp	r3, #0
 2884 002c 23DB     		blt	.L200
 451:App/Src/command.c **** 		rtc_group_power(channel, POWER_I2C);
 2885              		.loc 1 451 3 is_stmt 1 view .LVU653
 2886 002e 0130     		adds	r0, r0, #1
 2887              	.LVL295:
 451:App/Src/command.c **** 		rtc_group_power(channel, POWER_I2C);
 2888              		.loc 1 451 3 is_stmt 0 view .LVU654
 2889 0030 02AA     		add	r2, sp, #8
 2890 0032 C1B2     		uxtb	r1, r0
 2891 0034 2046     		mov	r0, r4
 2892              	.LVL296:
ARM GAS  C:\Users\86158\AppData\Local\Temp\cc13CoIU.s 			page 79


 451:App/Src/command.c **** 		rtc_group_power(channel, POWER_I2C);
 2893              		.loc 1 451 3 view .LVU655
 2894 0036 FFF7FEFF 		bl	CharToInt
 2895              	.LVL297:
 452:App/Src/command.c **** 		rtc_set_channel(channel, RTC_INIT_1006);
 2896              		.loc 1 452 3 is_stmt 1 view .LVU656
 2897 003a 0121     		movs	r1, #1
 2898 003c 9DF80C00 		ldrb	r0, [sp, #12]	@ zero_extendqisi2
 2899 0040 FFF7FEFF 		bl	rtc_group_power
 2900              	.LVL298:
 453:App/Src/command.c **** 		// rtc_set_channel(channel, RTC_SD3078B);
 2901              		.loc 1 453 3 view .LVU657
 2902 0044 0321     		movs	r1, #3
 2903 0046 9DF80C00 		ldrb	r0, [sp, #12]	@ zero_extendqisi2
 2904 004a FFF7FEFF 		bl	rtc_set_channel
 2905              	.LVL299:
 455:App/Src/command.c **** 		HAL_Delay(10);
 2906              		.loc 1 455 3 view .LVU658
 455:App/Src/command.c **** 		HAL_Delay(10);
 2907              		.loc 1 455 17 is_stmt 0 view .LVU659
 2908 004e 134B     		ldr	r3, .L207+4
 2909 0050 039A     		ldr	r2, [sp, #12]
 2910 0052 1A70     		strb	r2, [r3]
 456:App/Src/command.c **** 		rtc_read_multi_bytes(0x64, reg, result, 8);
 2911              		.loc 1 456 3 is_stmt 1 view .LVU660
 2912 0054 0A20     		movs	r0, #10
 2913 0056 FFF7FEFF 		bl	HAL_Delay
 2914              	.LVL300:
 457:App/Src/command.c **** 		UsbPrintf("read group[%d] reg[0x%x]:", channel, reg);
 2915              		.loc 1 457 3 view .LVU661
 2916 005a 0823     		movs	r3, #8
 2917 005c 6A46     		mov	r2, sp
 2918 005e 9DF80810 		ldrb	r1, [sp, #8]	@ zero_extendqisi2
 2919 0062 6420     		movs	r0, #100
 2920 0064 FFF7FEFF 		bl	rtc_read_multi_bytes
 2921              	.LVL301:
 458:App/Src/command.c **** 		for (i = 0; i < 8; i++) {
 2922              		.loc 1 458 3 view .LVU662
 2923 0068 029A     		ldr	r2, [sp, #8]
 2924 006a 0399     		ldr	r1, [sp, #12]
 2925 006c 0C48     		ldr	r0, .L207+8
 2926 006e FFF7FEFF 		bl	UsbPrintf
 2927              	.LVL302:
 459:App/Src/command.c **** 			UsbPrintf("0x%02x ", result[i]);
 2928              		.loc 1 459 3 view .LVU663
 459:App/Src/command.c **** 			UsbPrintf("0x%02x ", result[i]);
 2929              		.loc 1 459 10 is_stmt 0 view .LVU664
 2930 0072 0024     		movs	r4, #0
 2931              	.LVL303:
 459:App/Src/command.c **** 			UsbPrintf("0x%02x ", result[i]);
 2932              		.loc 1 459 3 view .LVU665
 2933 0074 0CE0     		b	.L203
 2934              	.LVL304:
 2935              	.L200:
 450:App/Src/command.c **** 		CharToInt(command, num + 1, &reg);
 2936              		.loc 1 450 33 is_stmt 1 discriminator 3 view .LVU666
 2937 0076 0B48     		ldr	r0, .L207+12
ARM GAS  C:\Users\86158\AppData\Local\Temp\cc13CoIU.s 			page 80


 2938              	.LVL305:
 450:App/Src/command.c **** 		CharToInt(command, num + 1, &reg);
 2939              		.loc 1 450 33 is_stmt 0 discriminator 3 view .LVU667
 2940 0078 FFF7FEFF 		bl	UsbPrintf
 2941              	.LVL306:
 450:App/Src/command.c **** 		CharToInt(command, num + 1, &reg);
 2942              		.loc 1 450 61 is_stmt 1 discriminator 3 view .LVU668
 2943 007c CCE7     		b	.L198
 2944              	.LVL307:
 2945              	.L204:
 460:App/Src/command.c **** 		}
 2946              		.loc 1 460 4 discriminator 3 view .LVU669
 460:App/Src/command.c **** 		}
 2947              		.loc 1 460 31 is_stmt 0 discriminator 3 view .LVU670
 2948 007e 04F11003 		add	r3, r4, #16
 2949 0082 6B44     		add	r3, sp, r3
 460:App/Src/command.c **** 		}
 2950              		.loc 1 460 4 discriminator 3 view .LVU671
 2951 0084 13F8101C 		ldrb	r1, [r3, #-16]	@ zero_extendqisi2
 2952 0088 0748     		ldr	r0, .L207+16
 2953 008a FFF7FEFF 		bl	UsbPrintf
 2954              	.LVL308:
 459:App/Src/command.c **** 			UsbPrintf("0x%02x ", result[i]);
 2955              		.loc 1 459 22 is_stmt 1 discriminator 3 view .LVU672
 459:App/Src/command.c **** 			UsbPrintf("0x%02x ", result[i]);
 2956              		.loc 1 459 23 is_stmt 0 discriminator 3 view .LVU673
 2957 008e 0134     		adds	r4, r4, #1
 2958              	.LVL309:
 2959              	.L203:
 459:App/Src/command.c **** 			UsbPrintf("0x%02x ", result[i]);
 2960              		.loc 1 459 15 is_stmt 1 discriminator 1 view .LVU674
 459:App/Src/command.c **** 			UsbPrintf("0x%02x ", result[i]);
 2961              		.loc 1 459 3 is_stmt 0 discriminator 1 view .LVU675
 2962 0090 072C     		cmp	r4, #7
 2963 0092 F4DD     		ble	.L204
 2964 0094 C0E7     		b	.L198
 2965              	.L208:
 2966 0096 00BF     		.align	2
 2967              	.L207:
 2968 0098 00000000 		.word	.LC37
 2969 009c 00000000 		.word	.LANCHOR9
 2970 00a0 00000000 		.word	.LC51
 2971 00a4 04000000 		.word	.LC38
 2972 00a8 1C000000 		.word	.LC52
 2973              		.cfi_endproc
 2974              	.LFE255:
 2976              		.section	.rodata.AT_READFLASH_Handle.str1.4,"aMS",%progbits,1
 2977              		.align	2
 2978              	.LC53:
 2979 0000 666C6173 		.ascii	"flash address[0x%x] print:\012%s\012\000"
 2979      68206164 
 2979      64726573 
 2979      735B3078 
 2979      25785D20 
 2980 001f 00       		.align	2
 2981              	.LC54:
 2982 0020 72656164 		.ascii	"read error %d\012\000"
ARM GAS  C:\Users\86158\AppData\Local\Temp\cc13CoIU.s 			page 81


 2982      20657272 
 2982      6F722025 
 2982      640A00
 2983 002f 00       		.align	2
 2984              	.LC55:
 2985 0030 6C6F6720 		.ascii	"log use pages %d/%d:\012\000"
 2985      75736520 
 2985      70616765 
 2985      73202564 
 2985      2F25643A 
 2986 0046 0000     		.align	2
 2987              	.LC56:
 2988 0048 616C6C20 		.ascii	"all log print success\012\000"
 2988      6C6F6720 
 2988      7072696E 
 2988      74207375 
 2988      63636573 
 2989              		.section	.text.AT_READFLASH_Handle,"ax",%progbits
 2990              		.align	1
 2991              		.global	AT_READFLASH_Handle
 2992              		.syntax unified
 2993              		.thumb
 2994              		.thumb_func
 2996              	AT_READFLASH_Handle:
 2997              	.LVL310:
 2998              	.LFB258:
 485:App/Src/command.c **** 	int address;
 2999              		.loc 1 485 1 is_stmt 1 view -0
 3000              		.cfi_startproc
 3001              		@ args = 0, pretend = 0, frame = 264
 3002              		@ frame_needed = 0, uses_anonymous_args = 0
 485:App/Src/command.c **** 	int address;
 3003              		.loc 1 485 1 is_stmt 0 view .LVU677
 3004 0000 30B5     		push	{r4, r5, lr}
 3005              	.LCFI60:
 3006              		.cfi_def_cfa_offset 12
 3007              		.cfi_offset 4, -12
 3008              		.cfi_offset 5, -8
 3009              		.cfi_offset 14, -4
 3010 0002 C3B0     		sub	sp, sp, #268
 3011              	.LCFI61:
 3012              		.cfi_def_cfa_offset 280
 3013 0004 0446     		mov	r4, r0
 486:App/Src/command.c **** 	uint8_t str[256] = {0};
 3014              		.loc 1 486 2 is_stmt 1 view .LVU678
 487:App/Src/command.c **** 	int result;
 3015              		.loc 1 487 2 view .LVU679
 487:App/Src/command.c **** 	int result;
 3016              		.loc 1 487 10 is_stmt 0 view .LVU680
 3017 0006 0021     		movs	r1, #0
 3018 0008 0191     		str	r1, [sp, #4]
 3019 000a FC22     		movs	r2, #252
 3020 000c 02A8     		add	r0, sp, #8
 3021              	.LVL311:
 487:App/Src/command.c **** 	int result;
 3022              		.loc 1 487 10 view .LVU681
 3023 000e FFF7FEFF 		bl	memset
ARM GAS  C:\Users\86158\AppData\Local\Temp\cc13CoIU.s 			page 82


 3024              	.LVL312:
 488:App/Src/command.c ****     int i;
 3025              		.loc 1 488 2 is_stmt 1 view .LVU682
 489:App/Src/command.c **** 	uint32_t pageCount;
 3026              		.loc 1 489 5 view .LVU683
 490:App/Src/command.c **** 
 3027              		.loc 1 490 2 view .LVU684
 492:App/Src/command.c **** 		CharToInt(command, 13, &address);
 3028              		.loc 1 492 2 view .LVU685
 492:App/Src/command.c **** 		CharToInt(command, 13, &address);
 3029              		.loc 1 492 6 is_stmt 0 view .LVU686
 3030 0012 1E49     		ldr	r1, .L217
 3031 0014 2046     		mov	r0, r4
 3032 0016 FFF7FEFF 		bl	strSearch
 3033              	.LVL313:
 492:App/Src/command.c **** 		CharToInt(command, 13, &address);
 3034              		.loc 1 492 5 view .LVU687
 3035 001a 0028     		cmp	r0, #0
 3036 001c 17DD     		ble	.L210
 493:App/Src/command.c **** 		result = flash_read_data(address, str, 256);
 3037              		.loc 1 493 3 is_stmt 1 view .LVU688
 3038 001e 41AA     		add	r2, sp, #260
 3039 0020 0D21     		movs	r1, #13
 3040 0022 2046     		mov	r0, r4
 3041 0024 FFF7FEFF 		bl	CharToInt
 3042              	.LVL314:
 494:App/Src/command.c **** 		if (result == 1) {
 3043              		.loc 1 494 3 view .LVU689
 494:App/Src/command.c **** 		if (result == 1) {
 3044              		.loc 1 494 12 is_stmt 0 view .LVU690
 3045 0028 4FF48072 		mov	r2, #256
 3046 002c 01A9     		add	r1, sp, #4
 3047 002e 4198     		ldr	r0, [sp, #260]
 3048 0030 FFF7FEFF 		bl	flash_read_data
 3049              	.LVL315:
 3050 0034 0146     		mov	r1, r0
 3051              	.LVL316:
 495:App/Src/command.c **** 			UsbPrintf("flash address[0x%x] print:\n%s\n", address, (char*)str);
 3052              		.loc 1 495 3 is_stmt 1 view .LVU691
 495:App/Src/command.c **** 			UsbPrintf("flash address[0x%x] print:\n%s\n", address, (char*)str);
 3053              		.loc 1 495 6 is_stmt 0 view .LVU692
 3054 0036 0128     		cmp	r0, #1
 3055 0038 03D0     		beq	.L216
 498:App/Src/command.c **** 		}
 3056              		.loc 1 498 4 is_stmt 1 view .LVU693
 3057 003a 1548     		ldr	r0, .L217+4
 3058              	.LVL317:
 498:App/Src/command.c **** 		}
 3059              		.loc 1 498 4 is_stmt 0 view .LVU694
 3060 003c FFF7FEFF 		bl	UsbPrintf
 3061              	.LVL318:
 498:App/Src/command.c **** 		}
 3062              		.loc 1 498 4 view .LVU695
 3063 0040 22E0     		b	.L209
 3064              	.LVL319:
 3065              	.L216:
 496:App/Src/command.c **** 		} else {
ARM GAS  C:\Users\86158\AppData\Local\Temp\cc13CoIU.s 			page 83


 3066              		.loc 1 496 4 is_stmt 1 view .LVU696
 3067 0042 01AA     		add	r2, sp, #4
 3068 0044 4199     		ldr	r1, [sp, #260]
 3069 0046 1348     		ldr	r0, .L217+8
 3070              	.LVL320:
 496:App/Src/command.c **** 		} else {
 3071              		.loc 1 496 4 is_stmt 0 view .LVU697
 3072 0048 FFF7FEFF 		bl	UsbPrintf
 3073              	.LVL321:
 3074 004c 1CE0     		b	.L209
 3075              	.L210:
 501:App/Src/command.c **** 		UsbPrintf("log use pages %d/%d:\n", pageCount, LOG_MAX_PAGE);
 3076              		.loc 1 501 3 is_stmt 1 view .LVU698
 501:App/Src/command.c **** 		UsbPrintf("log use pages %d/%d:\n", pageCount, LOG_MAX_PAGE);
 3077              		.loc 1 501 15 is_stmt 0 view .LVU699
 3078 004e FFF7FEFF 		bl	get_log_record_pages
 3079              	.LVL322:
 3080 0052 0546     		mov	r5, r0
 3081              	.LVL323:
 502:App/Src/command.c **** 		for (i = 0; i < pageCount; i++) {
 3082              		.loc 1 502 3 is_stmt 1 view .LVU700
 3083 0054 4FF47E42 		mov	r2, #65024
 3084 0058 0146     		mov	r1, r0
 3085 005a 0F48     		ldr	r0, .L217+12
 3086              	.LVL324:
 502:App/Src/command.c **** 		for (i = 0; i < pageCount; i++) {
 3087              		.loc 1 502 3 is_stmt 0 view .LVU701
 3088 005c FFF7FEFF 		bl	UsbPrintf
 3089              	.LVL325:
 503:App/Src/command.c **** 			flash_read_data(LOG_START_ADDR + i * PAGE_SIZE, str, PAGE_SIZE);
 3090              		.loc 1 503 3 is_stmt 1 view .LVU702
 503:App/Src/command.c **** 			flash_read_data(LOG_START_ADDR + i * PAGE_SIZE, str, PAGE_SIZE);
 3091              		.loc 1 503 10 is_stmt 0 view .LVU703
 3092 0060 0024     		movs	r4, #0
 3093              	.LVL326:
 503:App/Src/command.c **** 			flash_read_data(LOG_START_ADDR + i * PAGE_SIZE, str, PAGE_SIZE);
 3094              		.loc 1 503 3 view .LVU704
 3095 0062 0CE0     		b	.L213
 3096              	.LVL327:
 3097              	.L214:
 504:App/Src/command.c **** 			UsbPrintf("%s\n", (char*)str);
 3098              		.loc 1 504 4 is_stmt 1 discriminator 3 view .LVU705
 504:App/Src/command.c **** 			UsbPrintf("%s\n", (char*)str);
 3099              		.loc 1 504 35 is_stmt 0 discriminator 3 view .LVU706
 3100 0064 04F50070 		add	r0, r4, #512
 504:App/Src/command.c **** 			UsbPrintf("%s\n", (char*)str);
 3101              		.loc 1 504 4 discriminator 3 view .LVU707
 3102 0068 4FF48072 		mov	r2, #256
 3103 006c 01A9     		add	r1, sp, #4
 3104 006e 0002     		lsls	r0, r0, #8
 3105 0070 FFF7FEFF 		bl	flash_read_data
 3106              	.LVL328:
 505:App/Src/command.c **** 		}
 3107              		.loc 1 505 4 is_stmt 1 discriminator 3 view .LVU708
 3108 0074 01A9     		add	r1, sp, #4
 3109 0076 0948     		ldr	r0, .L217+16
 3110 0078 FFF7FEFF 		bl	UsbPrintf
ARM GAS  C:\Users\86158\AppData\Local\Temp\cc13CoIU.s 			page 84


 3111              	.LVL329:
 503:App/Src/command.c **** 			flash_read_data(LOG_START_ADDR + i * PAGE_SIZE, str, PAGE_SIZE);
 3112              		.loc 1 503 30 discriminator 3 view .LVU709
 503:App/Src/command.c **** 			flash_read_data(LOG_START_ADDR + i * PAGE_SIZE, str, PAGE_SIZE);
 3113              		.loc 1 503 31 is_stmt 0 discriminator 3 view .LVU710
 3114 007c 0134     		adds	r4, r4, #1
 3115              	.LVL330:
 3116              	.L213:
 503:App/Src/command.c **** 			flash_read_data(LOG_START_ADDR + i * PAGE_SIZE, str, PAGE_SIZE);
 3117              		.loc 1 503 15 is_stmt 1 discriminator 1 view .LVU711
 503:App/Src/command.c **** 			flash_read_data(LOG_START_ADDR + i * PAGE_SIZE, str, PAGE_SIZE);
 3118              		.loc 1 503 3 is_stmt 0 discriminator 1 view .LVU712
 3119 007e AC42     		cmp	r4, r5
 3120 0080 F0D3     		bcc	.L214
 507:App/Src/command.c **** 	} 
 3121              		.loc 1 507 3 is_stmt 1 view .LVU713
 3122 0082 0748     		ldr	r0, .L217+20
 3123 0084 FFF7FEFF 		bl	UsbPrintf
 3124              	.LVL331:
 3125              	.L209:
 509:App/Src/command.c **** void AT_ERASEFLASH_Handle(char* command)
 3126              		.loc 1 509 1 is_stmt 0 view .LVU714
 3127 0088 43B0     		add	sp, sp, #268
 3128              	.LCFI62:
 3129              		.cfi_def_cfa_offset 12
 3130              		@ sp needed
 3131 008a 30BD     		pop	{r4, r5, pc}
 3132              	.L218:
 3133              		.align	2
 3134              	.L217:
 3135 008c 00000000 		.word	.LC48
 3136 0090 20000000 		.word	.LC54
 3137 0094 00000000 		.word	.LC53
 3138 0098 30000000 		.word	.LC55
 3139 009c 0C000000 		.word	.LC35
 3140 00a0 48000000 		.word	.LC56
 3141              		.cfi_endproc
 3142              	.LFE258:
 3144              		.section	.rodata.AT_ERASEFLASH_Handle.str1.4,"aMS",%progbits,1
 3145              		.align	2
 3146              	.LC57:
 3147 0000 65617273 		.ascii	"earse full chip need 40s ~ 200s\012\000"
 3147      65206675 
 3147      6C6C2063 
 3147      68697020 
 3147      6E656564 
 3148 0021 000000   		.align	2
 3149              	.LC58:
 3150 0024 77616974 		.ascii	"wait for %ds...\012\000"
 3150      20666F72 
 3150      20256473 
 3150      2E2E2E0A 
 3150      00
 3151 0035 000000   		.align	2
 3152              	.LC59:
 3153 0038 696E7075 		.ascii	"input error!\012\000"
 3153      74206572 
ARM GAS  C:\Users\86158\AppData\Local\Temp\cc13CoIU.s 			page 85


 3153      726F7221 
 3153      0A00
 3154              		.section	.text.AT_ERASEFLASH_Handle,"ax",%progbits
 3155              		.align	1
 3156              		.global	AT_ERASEFLASH_Handle
 3157              		.syntax unified
 3158              		.thumb
 3159              		.thumb_func
 3161              	AT_ERASEFLASH_Handle:
 3162              	.LVL332:
 3163              	.LFB259:
 511:App/Src/command.c **** 	int mode, address;
 3164              		.loc 1 511 1 is_stmt 1 view -0
 3165              		.cfi_startproc
 3166              		@ args = 0, pretend = 0, frame = 8
 3167              		@ frame_needed = 0, uses_anonymous_args = 0
 511:App/Src/command.c **** 	int mode, address;
 3168              		.loc 1 511 1 is_stmt 0 view .LVU716
 3169 0000 10B5     		push	{r4, lr}
 3170              	.LCFI63:
 3171              		.cfi_def_cfa_offset 8
 3172              		.cfi_offset 4, -8
 3173              		.cfi_offset 14, -4
 3174 0002 82B0     		sub	sp, sp, #8
 3175              	.LCFI64:
 3176              		.cfi_def_cfa_offset 16
 3177 0004 0446     		mov	r4, r0
 512:App/Src/command.c **** 	int i = 0;
 3178              		.loc 1 512 2 is_stmt 1 view .LVU717
 513:App/Src/command.c **** 	if (CharToInt(command, 14, &mode) == 1) {
 3179              		.loc 1 513 2 view .LVU718
 3180              	.LVL333:
 514:App/Src/command.c **** 		CharToInt(command, strSearch(command, ",") + 1, &address);
 3181              		.loc 1 514 2 view .LVU719
 514:App/Src/command.c **** 		CharToInt(command, strSearch(command, ",") + 1, &address);
 3182              		.loc 1 514 6 is_stmt 0 view .LVU720
 3183 0006 01AA     		add	r2, sp, #4
 3184 0008 0E21     		movs	r1, #14
 3185 000a FFF7FEFF 		bl	CharToInt
 3186              	.LVL334:
 514:App/Src/command.c **** 		CharToInt(command, strSearch(command, ",") + 1, &address);
 3187              		.loc 1 514 5 view .LVU721
 3188 000e 0128     		cmp	r0, #1
 3189 0010 04D0     		beq	.L227
 532:App/Src/command.c **** 	} 
 3190              		.loc 1 532 3 is_stmt 1 view .LVU722
 3191 0012 1848     		ldr	r0, .L228
 3192 0014 FFF7FEFF 		bl	UsbPrintf
 3193              	.LVL335:
 3194              	.L219:
 534:App/Src/command.c **** 
 3195              		.loc 1 534 1 is_stmt 0 view .LVU723
 3196 0018 02B0     		add	sp, sp, #8
 3197              	.LCFI65:
 3198              		.cfi_remember_state
 3199              		.cfi_def_cfa_offset 8
 3200              		@ sp needed
ARM GAS  C:\Users\86158\AppData\Local\Temp\cc13CoIU.s 			page 86


 3201 001a 10BD     		pop	{r4, pc}
 3202              	.LVL336:
 3203              	.L227:
 3204              	.LCFI66:
 3205              		.cfi_restore_state
 515:App/Src/command.c **** 		if (mode >= 0 && mode <= 2) {
 3206              		.loc 1 515 3 is_stmt 1 view .LVU724
 515:App/Src/command.c **** 		if (mode >= 0 && mode <= 2) {
 3207              		.loc 1 515 22 is_stmt 0 view .LVU725
 3208 001c 1649     		ldr	r1, .L228+4
 3209 001e 2046     		mov	r0, r4
 3210 0020 FFF7FEFF 		bl	strSearch
 3211              	.LVL337:
 515:App/Src/command.c **** 		if (mode >= 0 && mode <= 2) {
 3212              		.loc 1 515 3 view .LVU726
 3213 0024 411C     		adds	r1, r0, #1
 3214 0026 6A46     		mov	r2, sp
 3215 0028 C9B2     		uxtb	r1, r1
 3216 002a 2046     		mov	r0, r4
 3217 002c FFF7FEFF 		bl	CharToInt
 3218              	.LVL338:
 516:App/Src/command.c **** 			flash_erase(address, mode);
 3219              		.loc 1 516 3 is_stmt 1 view .LVU727
 516:App/Src/command.c **** 			flash_erase(address, mode);
 3220              		.loc 1 516 17 is_stmt 0 view .LVU728
 3221 0030 0199     		ldr	r1, [sp, #4]
 516:App/Src/command.c **** 			flash_erase(address, mode);
 3222              		.loc 1 516 6 view .LVU729
 3223 0032 0229     		cmp	r1, #2
 3224 0034 F0D8     		bhi	.L219
 517:App/Src/command.c **** 			UsbPrintf("earse full chip need 40s ~ 200s\n");
 3225              		.loc 1 517 4 is_stmt 1 view .LVU730
 3226 0036 C9B2     		uxtb	r1, r1
 3227 0038 0098     		ldr	r0, [sp]
 3228 003a FFF7FEFF 		bl	flash_erase
 3229              	.LVL339:
 518:App/Src/command.c **** 			if (mode == 0) { 
 3230              		.loc 1 518 4 view .LVU731
 3231 003e 0F48     		ldr	r0, .L228+8
 3232 0040 FFF7FEFF 		bl	UsbPrintf
 3233              	.LVL340:
 519:App/Src/command.c **** 				for (i = 0; i < 100; i++) {
 3234              		.loc 1 519 4 view .LVU732
 519:App/Src/command.c **** 				for (i = 0; i < 100; i++) {
 3235              		.loc 1 519 13 is_stmt 0 view .LVU733
 3236 0044 019C     		ldr	r4, [sp, #4]
 3237              	.LVL341:
 519:App/Src/command.c **** 				for (i = 0; i < 100; i++) {
 3238              		.loc 1 519 7 view .LVU734
 3239 0046 1CB1     		cbz	r4, .L222
 3240              	.LVL342:
 3241              	.L223:
 529:App/Src/command.c **** 		}
 3242              		.loc 1 529 4 is_stmt 1 view .LVU735
 3243 0048 0D48     		ldr	r0, .L228+12
 3244 004a FFF7FEFF 		bl	UsbPrintf
 3245              	.LVL343:
ARM GAS  C:\Users\86158\AppData\Local\Temp\cc13CoIU.s 			page 87


 3246 004e E3E7     		b	.L219
 3247              	.L222:
 3248              	.LVL344:
 520:App/Src/command.c **** 					HAL_Delay(2000);
 3249              		.loc 1 520 17 discriminator 1 view .LVU736
 520:App/Src/command.c **** 					HAL_Delay(2000);
 3250              		.loc 1 520 5 is_stmt 0 discriminator 1 view .LVU737
 3251 0050 632C     		cmp	r4, #99
 3252 0052 0CDC     		bgt	.L224
 521:App/Src/command.c **** 					UsbPrintf("wait for %ds...\n", (i + 1) * 2);
 3253              		.loc 1 521 6 is_stmt 1 view .LVU738
 3254 0054 4FF4FA60 		mov	r0, #2000
 3255 0058 FFF7FEFF 		bl	HAL_Delay
 3256              	.LVL345:
 522:App/Src/command.c **** 					if (CheckBusy() == 1) {
 3257              		.loc 1 522 6 view .LVU739
 522:App/Src/command.c **** 					if (CheckBusy() == 1) {
 3258              		.loc 1 522 40 is_stmt 0 view .LVU740
 3259 005c 0134     		adds	r4, r4, #1
 3260              	.LVL346:
 522:App/Src/command.c **** 					if (CheckBusy() == 1) {
 3261              		.loc 1 522 6 view .LVU741
 3262 005e 6100     		lsls	r1, r4, #1
 3263 0060 0848     		ldr	r0, .L228+16
 3264 0062 FFF7FEFF 		bl	UsbPrintf
 3265              	.LVL347:
 523:App/Src/command.c **** 						break;
 3266              		.loc 1 523 6 is_stmt 1 view .LVU742
 523:App/Src/command.c **** 						break;
 3267              		.loc 1 523 10 is_stmt 0 view .LVU743
 3268 0066 FFF7FEFF 		bl	CheckBusy
 3269              	.LVL348:
 523:App/Src/command.c **** 						break;
 3270              		.loc 1 523 9 view .LVU744
 3271 006a 0128     		cmp	r0, #1
 3272 006c F0D1     		bne	.L222
 3273              	.LVL349:
 3274              	.L224:
 527:App/Src/command.c **** 			}
 3275              		.loc 1 527 5 is_stmt 1 view .LVU745
 3276 006e FFF7FEFF 		bl	log_list_init
 3277              	.LVL350:
 3278 0072 E9E7     		b	.L223
 3279              	.L229:
 3280              		.align	2
 3281              	.L228:
 3282 0074 38000000 		.word	.LC59
 3283 0078 00000000 		.word	.LC37
 3284 007c 00000000 		.word	.LC57
 3285 0080 1C000000 		.word	.LC10
 3286 0084 24000000 		.word	.LC58
 3287              		.cfi_endproc
 3288              	.LFE259:
 3290              		.section	.rodata.AT_SETCURRENT_Handle.str1.4,"aMS",%progbits,1
 3291              		.align	2
 3292              	.LC60:
 3293 0000 63757272 		.ascii	"current setting :mode %d, channel %d \012OK!\012\000"
ARM GAS  C:\Users\86158\AppData\Local\Temp\cc13CoIU.s 			page 88


 3293      656E7420 
 3293      73657474 
 3293      696E6720 
 3293      3A6D6F64 
 3294              		.section	.text.AT_SETCURRENT_Handle,"ax",%progbits
 3295              		.align	1
 3296              		.global	AT_SETCURRENT_Handle
 3297              		.syntax unified
 3298              		.thumb
 3299              		.thumb_func
 3301              	AT_SETCURRENT_Handle:
 3302              	.LVL351:
 3303              	.LFB260:
 537:App/Src/command.c **** 	int mode, number;
 3304              		.loc 1 537 1 view -0
 3305              		.cfi_startproc
 3306              		@ args = 0, pretend = 0, frame = 8
 3307              		@ frame_needed = 0, uses_anonymous_args = 0
 537:App/Src/command.c **** 	int mode, number;
 3308              		.loc 1 537 1 is_stmt 0 view .LVU747
 3309 0000 10B5     		push	{r4, lr}
 3310              	.LCFI67:
 3311              		.cfi_def_cfa_offset 8
 3312              		.cfi_offset 4, -8
 3313              		.cfi_offset 14, -4
 3314 0002 82B0     		sub	sp, sp, #8
 3315              	.LCFI68:
 3316              		.cfi_def_cfa_offset 16
 3317 0004 0446     		mov	r4, r0
 538:App/Src/command.c **** 	if (CharToInt(command, 14, &mode) == 1) {
 3318              		.loc 1 538 2 is_stmt 1 view .LVU748
 539:App/Src/command.c **** 		CharToInt(command, strSearch(command, ",") + 1, &number);
 3319              		.loc 1 539 2 view .LVU749
 539:App/Src/command.c **** 		CharToInt(command, strSearch(command, ",") + 1, &number);
 3320              		.loc 1 539 6 is_stmt 0 view .LVU750
 3321 0006 01AA     		add	r2, sp, #4
 3322 0008 0E21     		movs	r1, #14
 3323 000a FFF7FEFF 		bl	CharToInt
 3324              	.LVL352:
 539:App/Src/command.c **** 		CharToInt(command, strSearch(command, ",") + 1, &number);
 3325              		.loc 1 539 5 view .LVU751
 3326 000e 0128     		cmp	r0, #1
 3327 0010 04D0     		beq	.L237
 552:App/Src/command.c **** 	} 
 3328              		.loc 1 552 3 is_stmt 1 view .LVU752
 3329 0012 1948     		ldr	r0, .L241
 3330 0014 FFF7FEFF 		bl	UsbPrintf
 3331              	.LVL353:
 3332              	.L230:
 554:App/Src/command.c **** void AT_SYSVOLTAGE_Handle(char* command)
 3333              		.loc 1 554 1 is_stmt 0 view .LVU753
 3334 0018 02B0     		add	sp, sp, #8
 3335              	.LCFI69:
 3336              		.cfi_remember_state
 3337              		.cfi_def_cfa_offset 8
 3338              		@ sp needed
 3339 001a 10BD     		pop	{r4, pc}
ARM GAS  C:\Users\86158\AppData\Local\Temp\cc13CoIU.s 			page 89


 3340              	.LVL354:
 3341              	.L237:
 3342              	.LCFI70:
 3343              		.cfi_restore_state
 540:App/Src/command.c **** 		if (mode == 0) {
 3344              		.loc 1 540 3 is_stmt 1 view .LVU754
 540:App/Src/command.c **** 		if (mode == 0) {
 3345              		.loc 1 540 22 is_stmt 0 view .LVU755
 3346 001c 1749     		ldr	r1, .L241+4
 3347 001e 2046     		mov	r0, r4
 3348 0020 FFF7FEFF 		bl	strSearch
 3349              	.LVL355:
 540:App/Src/command.c **** 		if (mode == 0) {
 3350              		.loc 1 540 3 view .LVU756
 3351 0024 411C     		adds	r1, r0, #1
 3352 0026 6A46     		mov	r2, sp
 3353 0028 C9B2     		uxtb	r1, r1
 3354 002a 2046     		mov	r0, r4
 3355 002c FFF7FEFF 		bl	CharToInt
 3356              	.LVL356:
 541:App/Src/command.c **** 			rtc_group_power(number, POWER_OFF);
 3357              		.loc 1 541 3 is_stmt 1 view .LVU757
 541:App/Src/command.c **** 			rtc_group_power(number, POWER_OFF);
 3358              		.loc 1 541 12 is_stmt 0 view .LVU758
 3359 0030 019B     		ldr	r3, [sp, #4]
 541:App/Src/command.c **** 			rtc_group_power(number, POWER_OFF);
 3360              		.loc 1 541 6 view .LVU759
 3361 0032 4BB1     		cbz	r3, .L238
 543:App/Src/command.c **** 			HAL_Delay(5);
 3362              		.loc 1 543 10 is_stmt 1 view .LVU760
 543:App/Src/command.c **** 			HAL_Delay(5);
 3363              		.loc 1 543 13 is_stmt 0 view .LVU761
 3364 0034 012B     		cmp	r3, #1
 3365 0036 0DD0     		beq	.L239
 546:App/Src/command.c **** 			HAL_Delay(5);
 3366              		.loc 1 546 10 is_stmt 1 view .LVU762
 546:App/Src/command.c **** 			HAL_Delay(5);
 3367              		.loc 1 546 13 is_stmt 0 view .LVU763
 3368 0038 022B     		cmp	r3, #2
 3369 003a 14D0     		beq	.L240
 3370              	.L233:
 550:App/Src/command.c **** 	} else {
 3371              		.loc 1 550 3 is_stmt 1 view .LVU764
 3372 003c 009A     		ldr	r2, [sp]
 3373 003e 0199     		ldr	r1, [sp, #4]
 3374 0040 0F48     		ldr	r0, .L241+8
 3375 0042 FFF7FEFF 		bl	UsbPrintf
 3376              	.LVL357:
 3377 0046 E7E7     		b	.L230
 3378              	.L238:
 542:App/Src/command.c **** 		} else if (mode == 1) {
 3379              		.loc 1 542 4 view .LVU765
 3380 0048 0021     		movs	r1, #0
 3381 004a 9DF80000 		ldrb	r0, [sp]	@ zero_extendqisi2
 3382 004e FFF7FEFF 		bl	rtc_group_power
 3383              	.LVL358:
 3384 0052 F3E7     		b	.L233
ARM GAS  C:\Users\86158\AppData\Local\Temp\cc13CoIU.s 			page 90


 3385              	.L239:
 544:App/Src/command.c **** 			rtc_group_power(number, POWER_VDD_I);
 3386              		.loc 1 544 4 view .LVU766
 3387 0054 0520     		movs	r0, #5
 3388 0056 FFF7FEFF 		bl	HAL_Delay
 3389              	.LVL359:
 545:App/Src/command.c **** 		} else if (mode == 2) {
 3390              		.loc 1 545 4 view .LVU767
 3391 005a 0321     		movs	r1, #3
 3392 005c 9DF80000 		ldrb	r0, [sp]	@ zero_extendqisi2
 3393 0060 FFF7FEFF 		bl	rtc_group_power
 3394              	.LVL360:
 3395 0064 EAE7     		b	.L233
 3396              	.L240:
 547:App/Src/command.c **** 			rtc_group_power(number, POWER_BAT_I);
 3397              		.loc 1 547 4 view .LVU768
 3398 0066 0520     		movs	r0, #5
 3399 0068 FFF7FEFF 		bl	HAL_Delay
 3400              	.LVL361:
 548:App/Src/command.c **** 		}
 3401              		.loc 1 548 4 view .LVU769
 3402 006c 0221     		movs	r1, #2
 3403 006e 9DF80000 		ldrb	r0, [sp]	@ zero_extendqisi2
 3404 0072 FFF7FEFF 		bl	rtc_group_power
 3405              	.LVL362:
 3406 0076 E1E7     		b	.L233
 3407              	.L242:
 3408              		.align	2
 3409              	.L241:
 3410 0078 38000000 		.word	.LC59
 3411 007c 00000000 		.word	.LC37
 3412 0080 00000000 		.word	.LC60
 3413              		.cfi_endproc
 3414              	.LFE260:
 3416              		.section	.rodata.AT_SYSTEST_Handle.str1.4,"aMS",%progbits,1
 3417              		.align	2
 3418              	.LC61:
 3419 0000 6E6F2074 		.ascii	"no this test mode!\012\000"
 3419      68697320 
 3419      74657374 
 3419      206D6F64 
 3419      65210A00 
 3420              		.section	.text.AT_SYSTEST_Handle,"ax",%progbits
 3421              		.align	1
 3422              		.global	AT_SYSTEST_Handle
 3423              		.syntax unified
 3424              		.thumb
 3425              		.thumb_func
 3427              	AT_SYSTEST_Handle:
 3428              	.LVL363:
 3429              	.LFB262:
 570:App/Src/command.c **** 	int number;
 3430              		.loc 1 570 1 view -0
 3431              		.cfi_startproc
 3432              		@ args = 0, pretend = 0, frame = 8
 3433              		@ frame_needed = 0, uses_anonymous_args = 0
 570:App/Src/command.c **** 	int number;
ARM GAS  C:\Users\86158\AppData\Local\Temp\cc13CoIU.s 			page 91


 3434              		.loc 1 570 1 is_stmt 0 view .LVU771
 3435 0000 00B5     		push	{lr}
 3436              	.LCFI71:
 3437              		.cfi_def_cfa_offset 4
 3438              		.cfi_offset 14, -4
 3439 0002 83B0     		sub	sp, sp, #12
 3440              	.LCFI72:
 3441              		.cfi_def_cfa_offset 16
 571:App/Src/command.c **** 	if (CharToInt(command, 11, &number) == 1) {
 3442              		.loc 1 571 2 is_stmt 1 view .LVU772
 572:App/Src/command.c **** 		if (number < FREE_MODE || number > MACHINE_WRITE) {
 3443              		.loc 1 572 2 view .LVU773
 572:App/Src/command.c **** 		if (number < FREE_MODE || number > MACHINE_WRITE) {
 3444              		.loc 1 572 6 is_stmt 0 view .LVU774
 3445 0004 01AA     		add	r2, sp, #4
 3446 0006 0B21     		movs	r1, #11
 3447 0008 FFF7FEFF 		bl	CharToInt
 3448              	.LVL364:
 572:App/Src/command.c **** 		if (number < FREE_MODE || number > MACHINE_WRITE) {
 3449              		.loc 1 572 5 view .LVU775
 3450 000c 0128     		cmp	r0, #1
 3451 000e 05D1     		bne	.L244
 573:App/Src/command.c **** 			UsbPrintf("no this test mode!\n");
 3452              		.loc 1 573 3 is_stmt 1 view .LVU776
 573:App/Src/command.c **** 			UsbPrintf("no this test mode!\n");
 3453              		.loc 1 573 26 is_stmt 0 view .LVU777
 3454 0010 0198     		ldr	r0, [sp, #4]
 573:App/Src/command.c **** 			UsbPrintf("no this test mode!\n");
 3455              		.loc 1 573 6 view .LVU778
 3456 0012 0B28     		cmp	r0, #11
 3457 0014 08D8     		bhi	.L248
 577:App/Src/command.c **** 	}
 3458              		.loc 1 577 3 is_stmt 1 view .LVU779
 3459 0016 C0B2     		uxtb	r0, r0
 3460 0018 FFF7FEFF 		bl	manager_set_mode
 3461              	.LVL365:
 3462              	.L244:
 579:App/Src/command.c **** }
 3463              		.loc 1 579 2 view .LVU780
 3464 001c 0448     		ldr	r0, .L249
 3465 001e FFF7FEFF 		bl	UsbPrintf
 3466              	.LVL366:
 3467              	.L243:
 580:App/Src/command.c **** 
 3468              		.loc 1 580 1 is_stmt 0 view .LVU781
 3469 0022 03B0     		add	sp, sp, #12
 3470              	.LCFI73:
 3471              		.cfi_remember_state
 3472              		.cfi_def_cfa_offset 4
 3473              		@ sp needed
 3474 0024 5DF804FB 		ldr	pc, [sp], #4
 3475              	.L248:
 3476              	.LCFI74:
 3477              		.cfi_restore_state
 574:App/Src/command.c **** 			return;
 3478              		.loc 1 574 4 is_stmt 1 view .LVU782
 3479 0028 0248     		ldr	r0, .L249+4
ARM GAS  C:\Users\86158\AppData\Local\Temp\cc13CoIU.s 			page 92


 3480 002a FFF7FEFF 		bl	UsbPrintf
 3481              	.LVL367:
 575:App/Src/command.c **** 		}
 3482              		.loc 1 575 4 view .LVU783
 3483 002e F8E7     		b	.L243
 3484              	.L250:
 3485              		.align	2
 3486              	.L249:
 3487 0030 18000000 		.word	.LC12
 3488 0034 00000000 		.word	.LC61
 3489              		.cfi_endproc
 3490              	.LFE262:
 3492              		.section	.rodata.AT_TESTDATA_Handle.str1.4,"aMS",%progbits,1
 3493              		.align	2
 3494              	.LC62:
 3495 0000 63686970 		.ascii	"chip:\000"
 3495      3A00
 3496 0006 0000     		.align	2
 3497              	.LC63:
 3498 0008 70617274 		.ascii	"part:\000"
 3498      3A00
 3499 000e 0000     		.align	2
 3500              	.LC64:
 3501 0010 63686970 		.ascii	"chip%d \000"
 3501      25642000 
 3502              		.section	.text.AT_TESTDATA_Handle,"ax",%progbits
 3503              		.align	1
 3504              		.global	AT_TESTDATA_Handle
 3505              		.syntax unified
 3506              		.thumb
 3507              		.thumb_func
 3509              	AT_TESTDATA_Handle:
 3510              	.LVL368:
 3511              	.LFB267:
 633:App/Src/command.c **** 	int partNumber = 0;
 3512              		.loc 1 633 1 view -0
 3513              		.cfi_startproc
 3514              		@ args = 0, pretend = 0, frame = 248
 3515              		@ frame_needed = 0, uses_anonymous_args = 0
 633:App/Src/command.c **** 	int partNumber = 0;
 3516              		.loc 1 633 1 is_stmt 0 view .LVU785
 3517 0000 70B5     		push	{r4, r5, r6, lr}
 3518              	.LCFI75:
 3519              		.cfi_def_cfa_offset 16
 3520              		.cfi_offset 4, -16
 3521              		.cfi_offset 5, -12
 3522              		.cfi_offset 6, -8
 3523              		.cfi_offset 14, -4
 3524 0002 F6B0     		sub	sp, sp, #472
 3525              	.LCFI76:
 3526              		.cfi_def_cfa_offset 488
 3527 0004 0446     		mov	r4, r0
 634:App/Src/command.c **** 	int chipNumber = 0;
 3528              		.loc 1 634 2 is_stmt 1 view .LVU786
 634:App/Src/command.c **** 	int chipNumber = 0;
 3529              		.loc 1 634 6 is_stmt 0 view .LVU787
 3530 0006 0021     		movs	r1, #0
ARM GAS  C:\Users\86158\AppData\Local\Temp\cc13CoIU.s 			page 93


 3531 0008 7591     		str	r1, [sp, #468]
 635:App/Src/command.c **** 	int num;
 3532              		.loc 1 635 2 is_stmt 1 view .LVU788
 635:App/Src/command.c **** 	int num;
 3533              		.loc 1 635 6 is_stmt 0 view .LVU789
 3534 000a 7491     		str	r1, [sp, #464]
 636:App/Src/command.c **** 	int i;
 3535              		.loc 1 636 2 is_stmt 1 view .LVU790
 637:App/Src/command.c **** 	TestResult result = {0};
 3536              		.loc 1 637 2 view .LVU791
 638:App/Src/command.c **** 
 3537              		.loc 1 638 2 view .LVU792
 638:App/Src/command.c **** 
 3538              		.loc 1 638 13 is_stmt 0 view .LVU793
 3539 000c EC22     		movs	r2, #236
 3540 000e 39A8     		add	r0, sp, #228
 3541              	.LVL369:
 638:App/Src/command.c **** 
 3542              		.loc 1 638 13 view .LVU794
 3543 0010 FFF7FEFF 		bl	memset
 3544              	.LVL370:
 640:App/Src/command.c **** 	if (num != -1) {
 3545              		.loc 1 640 2 is_stmt 1 view .LVU795
 640:App/Src/command.c **** 	if (num != -1) {
 3546              		.loc 1 640 8 is_stmt 0 view .LVU796
 3547 0014 2D49     		ldr	r1, .L265
 3548 0016 2046     		mov	r0, r4
 3549 0018 FFF7FEFF 		bl	strSearch
 3550              	.LVL371:
 641:App/Src/command.c **** 		num += strlen("chip:");
 3551              		.loc 1 641 2 is_stmt 1 view .LVU797
 641:App/Src/command.c **** 		num += strlen("chip:");
 3552              		.loc 1 641 5 is_stmt 0 view .LVU798
 3553 001c B0F1FF3F 		cmp	r0, #-1
 3554 0020 25D1     		bne	.L262
 3555              	.LVL372:
 3556              	.L252:
 646:App/Src/command.c **** 	if (num != -1) {
 3557              		.loc 1 646 2 is_stmt 1 view .LVU799
 646:App/Src/command.c **** 	if (num != -1) {
 3558              		.loc 1 646 8 is_stmt 0 view .LVU800
 3559 0022 2B49     		ldr	r1, .L265+4
 3560 0024 2046     		mov	r0, r4
 3561 0026 FFF7FEFF 		bl	strSearch
 3562              	.LVL373:
 647:App/Src/command.c **** 		num += strlen("part:");
 3563              		.loc 1 647 2 is_stmt 1 view .LVU801
 647:App/Src/command.c **** 		num += strlen("part:");
 3564              		.loc 1 647 5 is_stmt 0 view .LVU802
 3565 002a B0F1FF3F 		cmp	r0, #-1
 3566 002e 25D1     		bne	.L263
 3567              	.LVL374:
 3568              	.L253:
 651:App/Src/command.c **** 		for (i = 0; i < MAX_CHIP_NUMBER; i++) {
 3569              		.loc 1 651 2 is_stmt 1 view .LVU803
 651:App/Src/command.c **** 		for (i = 0; i < MAX_CHIP_NUMBER; i++) {
 3570              		.loc 1 651 17 is_stmt 0 view .LVU804
ARM GAS  C:\Users\86158\AppData\Local\Temp\cc13CoIU.s 			page 94


 3571 0030 749C     		ldr	r4, [sp, #464]
 3572              	.LVL375:
 651:App/Src/command.c **** 		for (i = 0; i < MAX_CHIP_NUMBER; i++) {
 3573              		.loc 1 651 5 view .LVU805
 3574 0032 002C     		cmp	r4, #0
 3575 0034 42D0     		beq	.L254
 658:App/Src/command.c **** 		if (chipNumber < 0) { chipNumber = 1; }
 3576              		.loc 1 658 3 is_stmt 1 view .LVU806
 658:App/Src/command.c **** 		if (chipNumber < 0) { chipNumber = 1; }
 3577              		.loc 1 658 6 is_stmt 0 view .LVU807
 3578 0036 642C     		cmp	r4, #100
 3579 0038 01DD     		ble	.L258
 658:App/Src/command.c **** 		if (chipNumber < 0) { chipNumber = 1; }
 3580              		.loc 1 658 39 is_stmt 1 discriminator 1 view .LVU808
 658:App/Src/command.c **** 		if (chipNumber < 0) { chipNumber = 1; }
 3581              		.loc 1 658 50 is_stmt 0 discriminator 1 view .LVU809
 3582 003a 6423     		movs	r3, #100
 3583 003c 7493     		str	r3, [sp, #464]
 3584              	.L258:
 659:App/Src/command.c **** 		flash_test_data_read(&result, chipNumber, TEST_DATA_ALL);
 3585              		.loc 1 659 3 is_stmt 1 view .LVU810
 659:App/Src/command.c **** 		flash_test_data_read(&result, chipNumber, TEST_DATA_ALL);
 3586              		.loc 1 659 18 is_stmt 0 view .LVU811
 3587 003e 749B     		ldr	r3, [sp, #464]
 659:App/Src/command.c **** 		flash_test_data_read(&result, chipNumber, TEST_DATA_ALL);
 3588              		.loc 1 659 6 view .LVU812
 3589 0040 002B     		cmp	r3, #0
 3590 0042 3FDB     		blt	.L264
 3591              	.L259:
 660:App/Src/command.c **** 		test_data_printf(partNumber, result);
 3592              		.loc 1 660 3 is_stmt 1 view .LVU813
 3593 0044 39AC     		add	r4, sp, #228
 3594 0046 40F20112 		movw	r2, #257
 3595 004a 9DF8D011 		ldrb	r1, [sp, #464]	@ zero_extendqisi2
 3596 004e 2046     		mov	r0, r4
 3597 0050 FFF7FEFF 		bl	flash_test_data_read
 3598              	.LVL376:
 661:App/Src/command.c **** 	}
 3599              		.loc 1 661 3 view .LVU814
 3600 0054 9DF8D451 		ldrb	r5, [sp, #468]	@ zero_extendqisi2
 3601 0058 E022     		movs	r2, #224
 3602 005a 3CA9     		add	r1, sp, #240
 3603 005c 6846     		mov	r0, sp
 3604 005e FFF7FEFF 		bl	memcpy
 3605              	.LVL377:
 3606 0062 94E80E00 		ldm	r4, {r1, r2, r3}
 3607 0066 2846     		mov	r0, r5
 3608 0068 FFF7FEFF 		bl	test_data_printf
 3609              	.LVL378:
 663:App/Src/command.c **** 
 3610              		.loc 1 663 1 is_stmt 0 view .LVU815
 3611 006c 28E0     		b	.L251
 3612              	.LVL379:
 3613              	.L262:
 642:App/Src/command.c **** 		CharToInt(command, num, &chipNumber);
 3614              		.loc 1 642 3 is_stmt 1 view .LVU816
 642:App/Src/command.c **** 		CharToInt(command, num, &chipNumber);
ARM GAS  C:\Users\86158\AppData\Local\Temp\cc13CoIU.s 			page 95


 3615              		.loc 1 642 7 is_stmt 0 view .LVU817
 3616 006e 411D     		adds	r1, r0, #5
 3617              	.LVL380:
 643:App/Src/command.c **** 	}
 3618              		.loc 1 643 3 is_stmt 1 view .LVU818
 3619 0070 74AA     		add	r2, sp, #464
 3620 0072 C9B2     		uxtb	r1, r1
 3621              	.LVL381:
 643:App/Src/command.c **** 	}
 3622              		.loc 1 643 3 is_stmt 0 view .LVU819
 3623 0074 2046     		mov	r0, r4
 3624              	.LVL382:
 643:App/Src/command.c **** 	}
 3625              		.loc 1 643 3 view .LVU820
 3626 0076 FFF7FEFF 		bl	CharToInt
 3627              	.LVL383:
 3628 007a D2E7     		b	.L252
 3629              	.LVL384:
 3630              	.L263:
 648:App/Src/command.c **** 		CharToInt(command, num, &partNumber);
 3631              		.loc 1 648 3 is_stmt 1 view .LVU821
 648:App/Src/command.c **** 		CharToInt(command, num, &partNumber);
 3632              		.loc 1 648 7 is_stmt 0 view .LVU822
 3633 007c 411D     		adds	r1, r0, #5
 3634              	.LVL385:
 649:App/Src/command.c **** 	}
 3635              		.loc 1 649 3 is_stmt 1 view .LVU823
 3636 007e 75AA     		add	r2, sp, #468
 3637 0080 C9B2     		uxtb	r1, r1
 3638              	.LVL386:
 649:App/Src/command.c **** 	}
 3639              		.loc 1 649 3 is_stmt 0 view .LVU824
 3640 0082 2046     		mov	r0, r4
 3641              	.LVL387:
 649:App/Src/command.c **** 	}
 3642              		.loc 1 649 3 view .LVU825
 3643 0084 FFF7FEFF 		bl	CharToInt
 3644              	.LVL388:
 3645 0088 D2E7     		b	.L253
 3646              	.LVL389:
 3647              	.L256:
 653:App/Src/command.c **** 			flash_test_data_read(&result, i + 1, TEST_DATA_ALL);
 3648              		.loc 1 653 4 is_stmt 1 discriminator 3 view .LVU826
 3649 008a 651C     		adds	r5, r4, #1
 3650 008c 2946     		mov	r1, r5
 3651 008e 1148     		ldr	r0, .L265+8
 3652 0090 FFF7FEFF 		bl	UsbPrintf
 3653              	.LVL390:
 654:App/Src/command.c **** 			test_data_printf(partNumber, result);
 3654              		.loc 1 654 4 discriminator 3 view .LVU827
 3655 0094 39AC     		add	r4, sp, #228
 3656              	.LVL391:
 654:App/Src/command.c **** 			test_data_printf(partNumber, result);
 3657              		.loc 1 654 4 is_stmt 0 discriminator 3 view .LVU828
 3658 0096 40F20112 		movw	r2, #257
 3659 009a E9B2     		uxtb	r1, r5
 3660 009c 2046     		mov	r0, r4
ARM GAS  C:\Users\86158\AppData\Local\Temp\cc13CoIU.s 			page 96


 3661 009e FFF7FEFF 		bl	flash_test_data_read
 3662              	.LVL392:
 655:App/Src/command.c **** 		}
 3663              		.loc 1 655 4 is_stmt 1 discriminator 3 view .LVU829
 3664 00a2 9DF8D461 		ldrb	r6, [sp, #468]	@ zero_extendqisi2
 3665 00a6 E022     		movs	r2, #224
 3666 00a8 3CA9     		add	r1, sp, #240
 3667 00aa 6846     		mov	r0, sp
 3668 00ac FFF7FEFF 		bl	memcpy
 3669              	.LVL393:
 3670 00b0 94E80E00 		ldm	r4, {r1, r2, r3}
 3671 00b4 3046     		mov	r0, r6
 3672 00b6 FFF7FEFF 		bl	test_data_printf
 3673              	.LVL394:
 652:App/Src/command.c **** 			UsbPrintf("chip%d ", i + 1);
 3674              		.loc 1 652 36 discriminator 3 view .LVU830
 652:App/Src/command.c **** 			UsbPrintf("chip%d ", i + 1);
 3675              		.loc 1 652 37 is_stmt 0 discriminator 3 view .LVU831
 3676 00ba 2C46     		mov	r4, r5
 3677              	.LVL395:
 3678              	.L254:
 652:App/Src/command.c **** 			UsbPrintf("chip%d ", i + 1);
 3679              		.loc 1 652 15 is_stmt 1 discriminator 1 view .LVU832
 652:App/Src/command.c **** 			UsbPrintf("chip%d ", i + 1);
 3680              		.loc 1 652 3 is_stmt 0 discriminator 1 view .LVU833
 3681 00bc 632C     		cmp	r4, #99
 3682 00be E4DD     		ble	.L256
 3683              	.LVL396:
 3684              	.L251:
 663:App/Src/command.c **** 
 3685              		.loc 1 663 1 view .LVU834
 3686 00c0 76B0     		add	sp, sp, #472
 3687              	.LCFI77:
 3688              		.cfi_remember_state
 3689              		.cfi_def_cfa_offset 16
 3690              		@ sp needed
 3691 00c2 70BD     		pop	{r4, r5, r6, pc}
 3692              	.L264:
 3693              	.LCFI78:
 3694              		.cfi_restore_state
 659:App/Src/command.c **** 		flash_test_data_read(&result, chipNumber, TEST_DATA_ALL);
 3695              		.loc 1 659 25 is_stmt 1 discriminator 1 view .LVU835
 659:App/Src/command.c **** 		flash_test_data_read(&result, chipNumber, TEST_DATA_ALL);
 3696              		.loc 1 659 36 is_stmt 0 discriminator 1 view .LVU836
 3697 00c4 0123     		movs	r3, #1
 3698 00c6 7493     		str	r3, [sp, #464]
 3699 00c8 BCE7     		b	.L259
 3700              	.L266:
 3701 00ca 00BF     		.align	2
 3702              	.L265:
 3703 00cc 00000000 		.word	.LC62
 3704 00d0 08000000 		.word	.LC63
 3705 00d4 10000000 		.word	.LC64
 3706              		.cfi_endproc
 3707              	.LFE267:
 3709              		.section	.rodata.AT_ATTEST_Handle.str1.4,"aMS",%progbits,1
 3710              		.align	2
ARM GAS  C:\Users\86158\AppData\Local\Temp\cc13CoIU.s 			page 97


 3711              	.LC65:
 3712 0000 0A636F75 		.ascii	"\012count : %d\012\000"
 3712      6E74203A 
 3712      2025640A 
 3712      00
 3713              		.section	.text.AT_ATTEST_Handle,"ax",%progbits
 3714              		.align	1
 3715              		.global	AT_ATTEST_Handle
 3716              		.syntax unified
 3717              		.thumb
 3718              		.thumb_func
 3720              	AT_ATTEST_Handle:
 3721              	.LVL397:
 3722              	.LFB268:
 667:App/Src/command.c **** 	int number = 0;
 3723              		.loc 1 667 1 is_stmt 1 view -0
 3724              		.cfi_startproc
 3725              		@ args = 0, pretend = 0, frame = 3368
 3726              		@ frame_needed = 0, uses_anonymous_args = 0
 667:App/Src/command.c **** 	int number = 0;
 3727              		.loc 1 667 1 is_stmt 0 view .LVU838
 3728 0000 70B5     		push	{r4, r5, r6, lr}
 3729              	.LCFI79:
 3730              		.cfi_def_cfa_offset 16
 3731              		.cfi_offset 4, -16
 3732              		.cfi_offset 5, -12
 3733              		.cfi_offset 6, -8
 3734              		.cfi_offset 14, -4
 3735 0002 ADF6285D 		subw	sp, sp, #3368
 3736              	.LCFI80:
 3737              		.cfi_def_cfa_offset 3384
 3738 0006 0446     		mov	r4, r0
 668:App/Src/command.c **** 	uint16_t offset;
 3739              		.loc 1 668 2 is_stmt 1 view .LVU839
 668:App/Src/command.c **** 	uint16_t offset;
 3740              		.loc 1 668 6 is_stmt 0 view .LVU840
 3741 0008 0025     		movs	r5, #0
 3742 000a CDF8245D 		str	r5, [sp, #3364]
 669:App/Src/command.c **** 	float cap[420] = {0};
 3743              		.loc 1 669 2 is_stmt 1 view .LVU841
 670:App/Src/command.c **** 	int digtal[420] = {0};
 3744              		.loc 1 670 2 view .LVU842
 670:App/Src/command.c **** 	int digtal[420] = {0};
 3745              		.loc 1 670 8 is_stmt 0 view .LVU843
 3746 000e 4FF4D266 		mov	r6, #1680
 3747 0012 3246     		mov	r2, r6
 3748 0014 2946     		mov	r1, r5
 3749 0016 0DEB0600 		add	r0, sp, r6
 3750              	.LVL398:
 670:App/Src/command.c **** 	int digtal[420] = {0};
 3751              		.loc 1 670 8 view .LVU844
 3752 001a FFF7FEFF 		bl	memset
 3753              	.LVL399:
 671:App/Src/command.c **** 	int i = 0;
 3754              		.loc 1 671 2 is_stmt 1 view .LVU845
 671:App/Src/command.c **** 	int i = 0;
 3755              		.loc 1 671 6 is_stmt 0 view .LVU846
ARM GAS  C:\Users\86158\AppData\Local\Temp\cc13CoIU.s 			page 98


 3756 001e 3246     		mov	r2, r6
 3757 0020 2946     		mov	r1, r5
 3758 0022 6846     		mov	r0, sp
 3759 0024 FFF7FEFF 		bl	memset
 3760              	.LVL400:
 672:App/Src/command.c **** 	uint8_t count = 0;
 3761              		.loc 1 672 2 is_stmt 1 view .LVU847
 673:App/Src/command.c **** 	CharToInt(command, strSearch(command, "=") + 1, &number);
 3762              		.loc 1 673 2 view .LVU848
 674:App/Src/command.c **** 	if (number > 0) {
 3763              		.loc 1 674 2 view .LVU849
 674:App/Src/command.c **** 	if (number > 0) {
 3764              		.loc 1 674 21 is_stmt 0 view .LVU850
 3765 0028 1949     		ldr	r1, .L276
 3766 002a 2046     		mov	r0, r4
 3767 002c FFF7FEFF 		bl	strSearch
 3768              	.LVL401:
 674:App/Src/command.c **** 	if (number > 0) {
 3769              		.loc 1 674 2 view .LVU851
 3770 0030 411C     		adds	r1, r0, #1
 3771 0032 0DF62452 		addw	r2, sp, #3364
 3772 0036 C9B2     		uxtb	r1, r1
 3773 0038 2046     		mov	r0, r4
 3774 003a FFF7FEFF 		bl	CharToInt
 3775              	.LVL402:
 675:App/Src/command.c **** 		calculate_wave1006_temp_cap(number, cap, digtal, &offset);
 3776              		.loc 1 675 2 is_stmt 1 view .LVU852
 675:App/Src/command.c **** 		calculate_wave1006_temp_cap(number, cap, digtal, &offset);
 3777              		.loc 1 675 13 is_stmt 0 view .LVU853
 3778 003e DDF8240D 		ldr	r0, [sp, #3364]
 675:App/Src/command.c **** 		calculate_wave1006_temp_cap(number, cap, digtal, &offset);
 3779              		.loc 1 675 5 view .LVU854
 3780 0042 A842     		cmp	r0, r5
 3781 0044 02DC     		bgt	.L274
 673:App/Src/command.c **** 	CharToInt(command, strSearch(command, "=") + 1, &number);
 3782              		.loc 1 673 10 view .LVU855
 3783 0046 0025     		movs	r5, #0
 678:App/Src/command.c **** 			if(calculate_wave1006_temp_cap(i + 1, cap, digtal, &offset) > 0) {
 3784              		.loc 1 678 10 view .LVU856
 3785 0048 2C46     		mov	r4, r5
 3786              	.LVL403:
 678:App/Src/command.c **** 			if(calculate_wave1006_temp_cap(i + 1, cap, digtal, &offset) > 0) {
 3787              		.loc 1 678 10 view .LVU857
 3788 004a 09E0     		b	.L268
 3789              	.LVL404:
 3790              	.L274:
 676:App/Src/command.c **** 	} else {
 3791              		.loc 1 676 3 is_stmt 1 view .LVU858
 3792 004c 0DF62253 		addw	r3, sp, #3362
 3793 0050 6A46     		mov	r2, sp
 3794 0052 0DEB0601 		add	r1, sp, r6
 3795 0056 C0B2     		uxtb	r0, r0
 3796 0058 FFF7FEFF 		bl	calculate_wave1006_temp_cap
 3797              	.LVL405:
 3798 005c 14E0     		b	.L267
 3799              	.LVL406:
 3800              	.L270:
ARM GAS  C:\Users\86158\AppData\Local\Temp\cc13CoIU.s 			page 99


 678:App/Src/command.c **** 			if(calculate_wave1006_temp_cap(i + 1, cap, digtal, &offset) > 0) {
 3801              		.loc 1 678 38 discriminator 2 view .LVU859
 678:App/Src/command.c **** 			if(calculate_wave1006_temp_cap(i + 1, cap, digtal, &offset) > 0) {
 3802              		.loc 1 678 39 is_stmt 0 discriminator 2 view .LVU860
 3803 005e 0134     		adds	r4, r4, #1
 3804              	.LVL407:
 3805              	.L268:
 678:App/Src/command.c **** 			if(calculate_wave1006_temp_cap(i + 1, cap, digtal, &offset) > 0) {
 3806              		.loc 1 678 16 is_stmt 1 discriminator 1 view .LVU861
 678:App/Src/command.c **** 			if(calculate_wave1006_temp_cap(i + 1, cap, digtal, &offset) > 0) {
 3807              		.loc 1 678 3 is_stmt 0 discriminator 1 view .LVU862
 3808 0060 632C     		cmp	r4, #99
 3809 0062 0DDC     		bgt	.L275
 679:App/Src/command.c **** 				count++;
 3810              		.loc 1 679 4 is_stmt 1 view .LVU863
 679:App/Src/command.c **** 				count++;
 3811              		.loc 1 679 7 is_stmt 0 view .LVU864
 3812 0064 601C     		adds	r0, r4, #1
 3813 0066 0DF62253 		addw	r3, sp, #3362
 3814 006a 6A46     		mov	r2, sp
 3815 006c 0DF5D261 		add	r1, sp, #1680
 3816 0070 C0B2     		uxtb	r0, r0
 3817 0072 FFF7FEFF 		bl	calculate_wave1006_temp_cap
 3818              	.LVL408:
 679:App/Src/command.c **** 				count++;
 3819              		.loc 1 679 6 view .LVU865
 3820 0076 0028     		cmp	r0, #0
 3821 0078 F1D0     		beq	.L270
 680:App/Src/command.c **** 			}
 3822              		.loc 1 680 5 is_stmt 1 view .LVU866
 680:App/Src/command.c **** 			}
 3823              		.loc 1 680 10 is_stmt 0 view .LVU867
 3824 007a 0135     		adds	r5, r5, #1
 3825              	.LVL409:
 680:App/Src/command.c **** 			}
 3826              		.loc 1 680 10 view .LVU868
 3827 007c EDB2     		uxtb	r5, r5
 3828              	.LVL410:
 680:App/Src/command.c **** 			}
 3829              		.loc 1 680 10 view .LVU869
 3830 007e EEE7     		b	.L270
 3831              	.L275:
 683:App/Src/command.c **** 	}
 3832              		.loc 1 683 3 is_stmt 1 view .LVU870
 3833 0080 2946     		mov	r1, r5
 3834 0082 0448     		ldr	r0, .L276+4
 3835 0084 FFF7FEFF 		bl	UsbPrintf
 3836              	.LVL411:
 3837              	.L267:
 686:App/Src/command.c **** 
 3838              		.loc 1 686 1 is_stmt 0 view .LVU871
 3839 0088 0DF6285D 		addw	sp, sp, #3368
 3840              	.LCFI81:
 3841              		.cfi_def_cfa_offset 16
 3842              		@ sp needed
 3843 008c 70BD     		pop	{r4, r5, r6, pc}
 3844              	.L277:
ARM GAS  C:\Users\86158\AppData\Local\Temp\cc13CoIU.s 			page 100


 3845 008e 00BF     		.align	2
 3846              	.L276:
 3847 0090 00000000 		.word	.LC48
 3848 0094 00000000 		.word	.LC65
 3849              		.cfi_endproc
 3850              	.LFE268:
 3852              		.section	.rodata.AT_1006TMODE_Handle.str1.4,"aMS",%progbits,1
 3853              		.align	2
 3854              	.LC66:
 3855 0000 70616420 		.ascii	"pad change OK\012\000"
 3855      6368616E 
 3855      6765204F 
 3855      4B0A00
 3856 000f 00       		.align	2
 3857              	.LC67:
 3858 0010 69326320 		.ascii	"i2c error after pad change \012\000"
 3858      6572726F 
 3858      72206166 
 3858      74657220 
 3858      70616420 
 3859 002d 000000   		.align	2
 3860              	.LC68:
 3861 0030 69326320 		.ascii	"i2c OK after pad change \012\000"
 3861      4F4B2061 
 3861      66746572 
 3861      20706164 
 3861      20636861 
 3862              		.section	.text.AT_1006TMODE_Handle,"ax",%progbits
 3863              		.align	1
 3864              		.global	AT_1006TMODE_Handle
 3865              		.syntax unified
 3866              		.thumb
 3867              		.thumb_func
 3869              	AT_1006TMODE_Handle:
 3870              	.LVL412:
 3871              	.LFB270:
 760:App/Src/command.c **** 	int mode = 0;
 3872              		.loc 1 760 1 is_stmt 1 view -0
 3873              		.cfi_startproc
 3874              		@ args = 0, pretend = 0, frame = 8
 3875              		@ frame_needed = 0, uses_anonymous_args = 0
 760:App/Src/command.c **** 	int mode = 0;
 3876              		.loc 1 760 1 is_stmt 0 view .LVU873
 3877 0000 10B5     		push	{r4, lr}
 3878              	.LCFI82:
 3879              		.cfi_def_cfa_offset 8
 3880              		.cfi_offset 4, -8
 3881              		.cfi_offset 14, -4
 3882 0002 82B0     		sub	sp, sp, #8
 3883              	.LCFI83:
 3884              		.cfi_def_cfa_offset 16
 3885 0004 0446     		mov	r4, r0
 761:App/Src/command.c **** 	uint8_t buf;
 3886              		.loc 1 761 2 is_stmt 1 view .LVU874
 761:App/Src/command.c **** 	uint8_t buf;
 3887              		.loc 1 761 6 is_stmt 0 view .LVU875
 3888 0006 0023     		movs	r3, #0
ARM GAS  C:\Users\86158\AppData\Local\Temp\cc13CoIU.s 			page 101


 3889 0008 0193     		str	r3, [sp, #4]
 762:App/Src/command.c **** 	uint8_t osc_buf[2] = {0};
 3890              		.loc 1 762 2 is_stmt 1 view .LVU876
 763:App/Src/command.c **** 	CharToInt(command, strSearch(command, "=") + 1, &mode);
 3891              		.loc 1 763 2 view .LVU877
 763:App/Src/command.c **** 	CharToInt(command, strSearch(command, "=") + 1, &mode);
 3892              		.loc 1 763 10 is_stmt 0 view .LVU878
 3893 000a ADF80030 		strh	r3, [sp]	@ movhi
 764:App/Src/command.c **** 	
 3894              		.loc 1 764 2 is_stmt 1 view .LVU879
 764:App/Src/command.c **** 	
 3895              		.loc 1 764 21 is_stmt 0 view .LVU880
 3896 000e 4449     		ldr	r1, .L288
 3897 0010 FFF7FEFF 		bl	strSearch
 3898              	.LVL413:
 764:App/Src/command.c **** 	
 3899              		.loc 1 764 2 view .LVU881
 3900 0014 411C     		adds	r1, r0, #1
 3901 0016 01AA     		add	r2, sp, #4
 3902 0018 C9B2     		uxtb	r1, r1
 3903 001a 2046     		mov	r0, r4
 3904 001c FFF7FEFF 		bl	CharToInt
 3905              	.LVL414:
 766:App/Src/command.c **** 		buf = 0x40;
 3906              		.loc 1 766 2 is_stmt 1 view .LVU882
 766:App/Src/command.c **** 		buf = 0x40;
 3907              		.loc 1 766 11 is_stmt 0 view .LVU883
 3908 0020 019B     		ldr	r3, [sp, #4]
 766:App/Src/command.c **** 		buf = 0x40;
 3909              		.loc 1 766 5 view .LVU884
 3910 0022 002B     		cmp	r3, #0
 3911 0024 76DD     		ble	.L279
 767:App/Src/command.c **** 		if(drv_wave1006_write_reg(DEV_SD8804, WAVE1006_REG_CTR3, 1, &buf) != WAVE1006_EXIT_OK)   //如果是
 3912              		.loc 1 767 3 is_stmt 1 view .LVU885
 767:App/Src/command.c **** 		if(drv_wave1006_write_reg(DEV_SD8804, WAVE1006_REG_CTR3, 1, &buf) != WAVE1006_EXIT_OK)   //如果是
 3913              		.loc 1 767 7 is_stmt 0 view .LVU886
 3914 0026 4023     		movs	r3, #64
 3915 0028 8DF80330 		strb	r3, [sp, #3]
 768:App/Src/command.c **** 		{
 3916              		.loc 1 768 3 is_stmt 1 view .LVU887
 768:App/Src/command.c **** 		{
 3917              		.loc 1 768 6 is_stmt 0 view .LVU888
 3918 002c 0DF10303 		add	r3, sp, #3
 3919 0030 0122     		movs	r2, #1
 3920 0032 1121     		movs	r1, #17
 3921 0034 0420     		movs	r0, #4
 3922 0036 FFF7FEFF 		bl	drv_wave1006_write_reg
 3923              	.LVL415:
 768:App/Src/command.c **** 		{
 3924              		.loc 1 768 5 view .LVU889
 3925 003a 0028     		cmp	r0, #0
 3926 003c 6ED1     		bne	.L278
 773:App/Src/command.c **** 		{
 3927              		.loc 1 773 3 is_stmt 1 view .LVU890
 773:App/Src/command.c **** 		{
 3928              		.loc 1 773 7 is_stmt 0 view .LVU891
 3929 003e 0DF10303 		add	r3, sp, #3
ARM GAS  C:\Users\86158\AppData\Local\Temp\cc13CoIU.s 			page 102


 3930 0042 0122     		movs	r2, #1
 3931 0044 4021     		movs	r1, #64
 3932 0046 FFF7FEFF 		bl	drv_wave1006_read_reg
 3933              	.LVL416:
 773:App/Src/command.c **** 		{
 3934              		.loc 1 773 6 view .LVU892
 3935 004a 0028     		cmp	r0, #0
 3936 004c 66D1     		bne	.L278
 777:App/Src/command.c **** 		buf |= 0x0d;
 3937              		.loc 1 777 3 is_stmt 1 view .LVU893
 777:App/Src/command.c **** 		buf |= 0x0d;
 3938              		.loc 1 777 7 is_stmt 0 view .LVU894
 3939 004e 9DF80330 		ldrb	r3, [sp, #3]	@ zero_extendqisi2
 3940 0052 03F0F003 		and	r3, r3, #240
 3941 0056 8DF80330 		strb	r3, [sp, #3]
 778:App/Src/command.c **** 		if (drv_wave1006_write_reg(DEV_SD3068, WAVE1006_REG_USER_RAM_START + 20, 1, &buf) != WAVE1006_EXI
 3942              		.loc 1 778 3 is_stmt 1 view .LVU895
 778:App/Src/command.c **** 		if (drv_wave1006_write_reg(DEV_SD3068, WAVE1006_REG_USER_RAM_START + 20, 1, &buf) != WAVE1006_EXI
 3943              		.loc 1 778 7 is_stmt 0 view .LVU896
 3944 005a 43F00D03 		orr	r3, r3, #13
 3945 005e 8DF80330 		strb	r3, [sp, #3]
 779:App/Src/command.c **** 		{
 3946              		.loc 1 779 3 is_stmt 1 view .LVU897
 779:App/Src/command.c **** 		{
 3947              		.loc 1 779 7 is_stmt 0 view .LVU898
 3948 0062 0DF10303 		add	r3, sp, #3
 3949 0066 0122     		movs	r2, #1
 3950 0068 4021     		movs	r1, #64
 3951 006a FFF7FEFF 		bl	drv_wave1006_write_reg
 3952              	.LVL417:
 779:App/Src/command.c **** 		{
 3953              		.loc 1 779 6 view .LVU899
 3954 006e 0028     		cmp	r0, #0
 3955 0070 54D1     		bne	.L278
 783:App/Src/command.c **** 		{
 3956              		.loc 1 783 3 is_stmt 1 view .LVU900
 783:App/Src/command.c **** 		{
 3957              		.loc 1 783 7 is_stmt 0 view .LVU901
 3958 0072 5420     		movs	r0, #84
 3959 0074 FFF7FEFF 		bl	wave1006_enter_test_mode
 3960              	.LVL418:
 783:App/Src/command.c **** 		{
 3961              		.loc 1 783 6 view .LVU902
 3962 0078 0028     		cmp	r0, #0
 3963 007a 4FD1     		bne	.L278
 787:App/Src/command.c **** 		HAL_Delay(5);
 3964              		.loc 1 787 3 is_stmt 1 view .LVU903
 3965 007c 2948     		ldr	r0, .L288+4
 3966 007e FFF7FEFF 		bl	UsbPrintf
 3967              	.LVL419:
 788:App/Src/command.c **** 		rtc_set_channel(g_rtcChanenel, RTC_SD3068);
 3968              		.loc 1 788 3 view .LVU904
 3969 0082 0520     		movs	r0, #5
 3970 0084 FFF7FEFF 		bl	HAL_Delay
 3971              	.LVL420:
 789:App/Src/command.c **** 		if (drv_wave1006_read_reg(DEV_SD3068, WAVE1006_REG_USER_RAM_START + 19, 1, &buf) != WAVE1006_EXIT
 3972              		.loc 1 789 3 view .LVU905
ARM GAS  C:\Users\86158\AppData\Local\Temp\cc13CoIU.s 			page 103


 3973 0088 0421     		movs	r1, #4
 3974 008a 274B     		ldr	r3, .L288+8
 3975 008c 1878     		ldrb	r0, [r3]	@ zero_extendqisi2
 3976 008e FFF7FEFF 		bl	rtc_set_channel
 3977              	.LVL421:
 790:App/Src/command.c **** 		{
 3978              		.loc 1 790 3 view .LVU906
 790:App/Src/command.c **** 		{
 3979              		.loc 1 790 7 is_stmt 0 view .LVU907
 3980 0092 0DF10303 		add	r3, sp, #3
 3981 0096 0122     		movs	r2, #1
 3982 0098 3F21     		movs	r1, #63
 3983 009a 0020     		movs	r0, #0
 3984 009c FFF7FEFF 		bl	drv_wave1006_read_reg
 3985              	.LVL422:
 790:App/Src/command.c **** 		{
 3986              		.loc 1 790 6 view .LVU908
 3987 00a0 0028     		cmp	r0, #0
 3988 00a2 3BD1     		bne	.L278
 794:App/Src/command.c **** 		buf |=  0x28;
 3989              		.loc 1 794 3 is_stmt 1 view .LVU909
 794:App/Src/command.c **** 		buf |=  0x28;
 3990              		.loc 1 794 7 is_stmt 0 view .LVU910
 3991 00a4 9DF80330 		ldrb	r3, [sp, #3]	@ zero_extendqisi2
 3992 00a8 03F0C703 		and	r3, r3, #199
 3993 00ac 8DF80330 		strb	r3, [sp, #3]
 795:App/Src/command.c **** 		if (drv_wave1006_write_reg(DEV_SD3068, WAVE1006_REG_USER_RAM_START + 19, 1, &buf) != WAVE1006_EXI
 3994              		.loc 1 795 3 is_stmt 1 view .LVU911
 795:App/Src/command.c **** 		if (drv_wave1006_write_reg(DEV_SD3068, WAVE1006_REG_USER_RAM_START + 19, 1, &buf) != WAVE1006_EXI
 3995              		.loc 1 795 7 is_stmt 0 view .LVU912
 3996 00b0 43F02803 		orr	r3, r3, #40
 3997 00b4 8DF80330 		strb	r3, [sp, #3]
 796:App/Src/command.c **** 		{
 3998              		.loc 1 796 3 is_stmt 1 view .LVU913
 796:App/Src/command.c **** 		{
 3999              		.loc 1 796 7 is_stmt 0 view .LVU914
 4000 00b8 0DF10303 		add	r3, sp, #3
 4001 00bc 0122     		movs	r2, #1
 4002 00be 3F21     		movs	r1, #63
 4003 00c0 FFF7FEFF 		bl	drv_wave1006_write_reg
 4004              	.LVL423:
 796:App/Src/command.c **** 		{
 4005              		.loc 1 796 6 view .LVU915
 4006 00c4 F0B9     		cbnz	r0, .L286
 801:App/Src/command.c **** 		{
 4007              		.loc 1 801 3 is_stmt 1 view .LVU916
 801:App/Src/command.c **** 		{
 4008              		.loc 1 801 7 is_stmt 0 view .LVU917
 4009 00c6 0DF10103 		add	r3, sp, #1
 4010 00ca 0122     		movs	r2, #1
 4011 00cc 4421     		movs	r1, #68
 4012 00ce 0020     		movs	r0, #0
 4013 00d0 FFF7FEFF 		bl	drv_wave1006_read_reg
 4014              	.LVL424:
 801:App/Src/command.c **** 		{
 4015              		.loc 1 801 6 view .LVU918
 4016 00d4 10BB     		cbnz	r0, .L278
ARM GAS  C:\Users\86158\AppData\Local\Temp\cc13CoIU.s 			page 104


 805:App/Src/command.c **** 		osc_buf[1] &= ~0x1f;
 4017              		.loc 1 805 3 is_stmt 1 view .LVU919
 805:App/Src/command.c **** 		osc_buf[1] &= ~0x1f;
 4018              		.loc 1 805 15 is_stmt 0 view .LVU920
 4019 00d6 F723     		movs	r3, #247
 4020 00d8 8DF80030 		strb	r3, [sp]
 806:App/Src/command.c **** 		osc_buf[1] |= 0x19;		//ram25
 4021              		.loc 1 806 3 is_stmt 1 view .LVU921
 806:App/Src/command.c **** 		osc_buf[1] |= 0x19;		//ram25
 4022              		.loc 1 806 14 is_stmt 0 view .LVU922
 4023 00dc 9DF80130 		ldrb	r3, [sp, #1]	@ zero_extendqisi2
 4024 00e0 03F0E003 		and	r3, r3, #224
 4025 00e4 8DF80130 		strb	r3, [sp, #1]
 807:App/Src/command.c **** 		if (drv_wave1006_write_reg(DEV_SD3068, WAVE1006_REG_USER_RAM_START + 23, 2, osc_buf) != WAVE1006_
 4026              		.loc 1 807 3 is_stmt 1 view .LVU923
 807:App/Src/command.c **** 		if (drv_wave1006_write_reg(DEV_SD3068, WAVE1006_REG_USER_RAM_START + 23, 2, osc_buf) != WAVE1006_
 4027              		.loc 1 807 14 is_stmt 0 view .LVU924
 4028 00e8 43F01903 		orr	r3, r3, #25
 4029 00ec 8DF80130 		strb	r3, [sp, #1]
 808:App/Src/command.c **** 		{
 4030              		.loc 1 808 3 is_stmt 1 view .LVU925
 808:App/Src/command.c **** 		{
 4031              		.loc 1 808 7 is_stmt 0 view .LVU926
 4032 00f0 6B46     		mov	r3, sp
 4033 00f2 0222     		movs	r2, #2
 4034 00f4 4321     		movs	r1, #67
 4035 00f6 FFF7FEFF 		bl	drv_wave1006_write_reg
 4036              	.LVL425:
 808:App/Src/command.c **** 		{
 4037              		.loc 1 808 6 view .LVU927
 4038 00fa 38B9     		cbnz	r0, .L287
 813:App/Src/command.c **** 
 4039              		.loc 1 813 3 is_stmt 1 view .LVU928
 4040 00fc 0B48     		ldr	r0, .L288+12
 4041 00fe FFF7FEFF 		bl	UsbPrintf
 4042              	.LVL426:
 4043 0102 0BE0     		b	.L278
 4044              	.L286:
 798:App/Src/command.c **** 			return;
 4045              		.loc 1 798 4 view .LVU929
 4046 0104 0A48     		ldr	r0, .L288+16
 4047 0106 FFF7FEFF 		bl	UsbPrintf
 4048              	.LVL427:
 799:App/Src/command.c **** 		}	
 4049              		.loc 1 799 4 view .LVU930
 4050 010a 07E0     		b	.L278
 4051              	.L287:
 810:App/Src/command.c **** 			return;
 4052              		.loc 1 810 4 view .LVU931
 4053 010c 0848     		ldr	r0, .L288+16
 4054 010e FFF7FEFF 		bl	UsbPrintf
 4055              	.LVL428:
 811:App/Src/command.c **** 		}
 4056              		.loc 1 811 4 view .LVU932
 4057 0112 03E0     		b	.L278
 4058              	.L279:
 827:App/Src/command.c **** 	}
ARM GAS  C:\Users\86158\AppData\Local\Temp\cc13CoIU.s 			page 105


 4059              		.loc 1 827 3 view .LVU933
 4060 0114 044B     		ldr	r3, .L288+8
 4061 0116 1878     		ldrb	r0, [r3]	@ zero_extendqisi2
 4062 0118 FFF7FEFF 		bl	rtc_1006_exit_testmode
 4063              	.LVL429:
 4064              	.L278:
 829:App/Src/command.c **** 
 4065              		.loc 1 829 1 is_stmt 0 view .LVU934
 4066 011c 02B0     		add	sp, sp, #8
 4067              	.LCFI84:
 4068              		.cfi_def_cfa_offset 8
 4069              		@ sp needed
 4070 011e 10BD     		pop	{r4, pc}
 4071              	.LVL430:
 4072              	.L289:
 829:App/Src/command.c **** 
 4073              		.loc 1 829 1 view .LVU935
 4074              		.align	2
 4075              	.L288:
 4076 0120 00000000 		.word	.LC48
 4077 0124 00000000 		.word	.LC66
 4078 0128 00000000 		.word	.LANCHOR9
 4079 012c 30000000 		.word	.LC68
 4080 0130 10000000 		.word	.LC67
 4081              		.cfi_endproc
 4082              	.LFE270:
 4084              		.section	.rodata.AT_SD3078INT_Handle.str1.4,"aMS",%progbits,1
 4085              		.align	2
 4086              	.LC69:
 4087 0000 73746172 		.ascii	"start int test, start %d, end %d\012\000"
 4087      7420696E 
 4087      74207465 
 4087      73742C20 
 4087      73746172 
 4088 0022 0000     		.align	2
 4089              	.LC70:
 4090 0024 656E6420 		.ascii	"end int test\012\000"
 4090      696E7420 
 4090      74657374 
 4090      0A00
 4091              		.section	.text.AT_SD3078INT_Handle,"ax",%progbits
 4092              		.align	1
 4093              		.global	AT_SD3078INT_Handle
 4094              		.syntax unified
 4095              		.thumb
 4096              		.thumb_func
 4098              	AT_SD3078INT_Handle:
 4099              	.LVL431:
 4100              	.LFB271:
 832:App/Src/command.c **** 	
 4101              		.loc 1 832 1 is_stmt 1 view -0
 4102              		.cfi_startproc
 4103              		@ args = 0, pretend = 0, frame = 8
 4104              		@ frame_needed = 0, uses_anonymous_args = 0
 832:App/Src/command.c **** 	
 4105              		.loc 1 832 1 is_stmt 0 view .LVU937
 4106 0000 10B5     		push	{r4, lr}
ARM GAS  C:\Users\86158\AppData\Local\Temp\cc13CoIU.s 			page 106


 4107              	.LCFI85:
 4108              		.cfi_def_cfa_offset 8
 4109              		.cfi_offset 4, -8
 4110              		.cfi_offset 14, -4
 4111 0002 82B0     		sub	sp, sp, #8
 4112              	.LCFI86:
 4113              		.cfi_def_cfa_offset 16
 4114 0004 0446     		mov	r4, r0
 834:App/Src/command.c **** 	int endNumber = 0;
 4115              		.loc 1 834 2 is_stmt 1 view .LVU938
 834:App/Src/command.c **** 	int endNumber = 0;
 4116              		.loc 1 834 6 is_stmt 0 view .LVU939
 4117 0006 0023     		movs	r3, #0
 4118 0008 0193     		str	r3, [sp, #4]
 835:App/Src/command.c **** 
 4119              		.loc 1 835 2 is_stmt 1 view .LVU940
 835:App/Src/command.c **** 
 4120              		.loc 1 835 6 is_stmt 0 view .LVU941
 4121 000a 0093     		str	r3, [sp]
 837:App/Src/command.c **** 	CharToInt(command, strSearch(command, ",") + 1, &endNumber);
 4122              		.loc 1 837 2 is_stmt 1 view .LVU942
 837:App/Src/command.c **** 	CharToInt(command, strSearch(command, ",") + 1, &endNumber);
 4123              		.loc 1 837 21 is_stmt 0 view .LVU943
 4124 000c 1749     		ldr	r1, .L294
 4125 000e FFF7FEFF 		bl	strSearch
 4126              	.LVL432:
 837:App/Src/command.c **** 	CharToInt(command, strSearch(command, ",") + 1, &endNumber);
 4127              		.loc 1 837 2 view .LVU944
 4128 0012 411C     		adds	r1, r0, #1
 4129 0014 01AA     		add	r2, sp, #4
 4130 0016 C9B2     		uxtb	r1, r1
 4131 0018 2046     		mov	r0, r4
 4132 001a FFF7FEFF 		bl	CharToInt
 4133              	.LVL433:
 838:App/Src/command.c **** 	
 4134              		.loc 1 838 2 is_stmt 1 view .LVU945
 838:App/Src/command.c **** 	
 4135              		.loc 1 838 21 is_stmt 0 view .LVU946
 4136 001e 1449     		ldr	r1, .L294+4
 4137 0020 2046     		mov	r0, r4
 4138 0022 FFF7FEFF 		bl	strSearch
 4139              	.LVL434:
 838:App/Src/command.c **** 	
 4140              		.loc 1 838 2 view .LVU947
 4141 0026 411C     		adds	r1, r0, #1
 4142 0028 6A46     		mov	r2, sp
 4143 002a C9B2     		uxtb	r1, r1
 4144 002c 2046     		mov	r0, r4
 4145 002e FFF7FEFF 		bl	CharToInt
 4146              	.LVL435:
 840:App/Src/command.c **** 		set_int_test(1, startNumber, endNumber);
 4147              		.loc 1 840 2 is_stmt 1 view .LVU948
 840:App/Src/command.c **** 		set_int_test(1, startNumber, endNumber);
 4148              		.loc 1 840 18 is_stmt 0 view .LVU949
 4149 0032 0199     		ldr	r1, [sp, #4]
 840:App/Src/command.c **** 		set_int_test(1, startNumber, endNumber);
 4150              		.loc 1 840 5 view .LVU950
ARM GAS  C:\Users\86158\AppData\Local\Temp\cc13CoIU.s 			page 107


 4151 0034 0029     		cmp	r1, #0
 4152 0036 0FDD     		ble	.L291
 841:App/Src/command.c **** 		UsbPrintf("start int test, start %d, end %d\n", startNumber, endNumber);
 4153              		.loc 1 841 3 is_stmt 1 view .LVU951
 4154 0038 9DF80020 		ldrb	r2, [sp]	@ zero_extendqisi2
 4155 003c C9B2     		uxtb	r1, r1
 4156 003e 0120     		movs	r0, #1
 4157 0040 FFF7FEFF 		bl	set_int_test
 4158              	.LVL436:
 842:App/Src/command.c **** 	} else {
 4159              		.loc 1 842 3 view .LVU952
 4160 0044 009A     		ldr	r2, [sp]
 4161 0046 0199     		ldr	r1, [sp, #4]
 4162 0048 0A48     		ldr	r0, .L294+8
 4163 004a FFF7FEFF 		bl	UsbPrintf
 4164              	.LVL437:
 4165              	.L292:
 847:App/Src/command.c **** }
 4166              		.loc 1 847 2 view .LVU953
 4167 004e 0A48     		ldr	r0, .L294+12
 4168 0050 FFF7FEFF 		bl	UsbPrintf
 4169              	.LVL438:
 848:App/Src/command.c **** 
 4170              		.loc 1 848 1 is_stmt 0 view .LVU954
 4171 0054 02B0     		add	sp, sp, #8
 4172              	.LCFI87:
 4173              		.cfi_remember_state
 4174              		.cfi_def_cfa_offset 8
 4175              		@ sp needed
 4176 0056 10BD     		pop	{r4, pc}
 4177              	.LVL439:
 4178              	.L291:
 4179              	.LCFI88:
 4180              		.cfi_restore_state
 844:App/Src/command.c **** 		UsbPrintf("end int test\n");
 4181              		.loc 1 844 3 is_stmt 1 view .LVU955
 4182 0058 0022     		movs	r2, #0
 4183 005a 1146     		mov	r1, r2
 4184 005c 1046     		mov	r0, r2
 4185 005e FFF7FEFF 		bl	set_int_test
 4186              	.LVL440:
 845:App/Src/command.c **** 	}
 4187              		.loc 1 845 3 view .LVU956
 4188 0062 0648     		ldr	r0, .L294+16
 4189 0064 FFF7FEFF 		bl	UsbPrintf
 4190              	.LVL441:
 4191 0068 F1E7     		b	.L292
 4192              	.L295:
 4193 006a 00BF     		.align	2
 4194              	.L294:
 4195 006c 00000000 		.word	.LC48
 4196 0070 00000000 		.word	.LC37
 4197 0074 00000000 		.word	.LC69
 4198 0078 1C000000 		.word	.LC10
 4199 007c 24000000 		.word	.LC70
 4200              		.cfi_endproc
 4201              	.LFE271:
ARM GAS  C:\Users\86158\AppData\Local\Temp\cc13CoIU.s 			page 108


 4203              		.section	.rodata.AT_RTCLOAD_Handle.str1.4,"aMS",%progbits,1
 4204              		.align	2
 4205              	.LC71:
 4206 0000 6C6F6164 		.ascii	"load end\012\000"
 4206      20656E64 
 4206      0A00
 4207              		.section	.text.AT_RTCLOAD_Handle,"ax",%progbits
 4208              		.align	1
 4209              		.global	AT_RTCLOAD_Handle
 4210              		.syntax unified
 4211              		.thumb
 4212              		.thumb_func
 4214              	AT_RTCLOAD_Handle:
 4215              	.LVL442:
 4216              	.LFB272:
 852:App/Src/command.c **** 	int number = 0;
 4217              		.loc 1 852 1 view -0
 4218              		.cfi_startproc
 4219              		@ args = 0, pretend = 0, frame = 104
 4220              		@ frame_needed = 0, uses_anonymous_args = 0
 852:App/Src/command.c **** 	int number = 0;
 4221              		.loc 1 852 1 is_stmt 0 view .LVU958
 4222 0000 30B5     		push	{r4, r5, lr}
 4223              	.LCFI89:
 4224              		.cfi_def_cfa_offset 12
 4225              		.cfi_offset 4, -12
 4226              		.cfi_offset 5, -8
 4227              		.cfi_offset 14, -4
 4228 0002 9BB0     		sub	sp, sp, #108
 4229              	.LCFI90:
 4230              		.cfi_def_cfa_offset 120
 4231 0004 0446     		mov	r4, r0
 853:App/Src/command.c **** 	int i;
 4232              		.loc 1 853 2 is_stmt 1 view .LVU959
 853:App/Src/command.c **** 	int i;
 4233              		.loc 1 853 6 is_stmt 0 view .LVU960
 4234 0006 0021     		movs	r1, #0
 4235 0008 1991     		str	r1, [sp, #100]
 854:App/Src/command.c **** 	uint8_t result[MAX_CHIP_NUMBER] = {0};
 4236              		.loc 1 854 2 is_stmt 1 view .LVU961
 855:App/Src/command.c **** 	CharToInt(command, strSearch(command, "=") + 1, &number);
 4237              		.loc 1 855 2 view .LVU962
 855:App/Src/command.c **** 	CharToInt(command, strSearch(command, "=") + 1, &number);
 4238              		.loc 1 855 10 is_stmt 0 view .LVU963
 4239 000a 0091     		str	r1, [sp]
 4240 000c 6022     		movs	r2, #96
 4241 000e 01A8     		add	r0, sp, #4
 4242              	.LVL443:
 855:App/Src/command.c **** 	CharToInt(command, strSearch(command, "=") + 1, &number);
 4243              		.loc 1 855 10 view .LVU964
 4244 0010 FFF7FEFF 		bl	memset
 4245              	.LVL444:
 856:App/Src/command.c **** 	if (number > 0) {
 4246              		.loc 1 856 2 is_stmt 1 view .LVU965
 856:App/Src/command.c **** 	if (number > 0) {
 4247              		.loc 1 856 21 is_stmt 0 view .LVU966
 4248 0014 2149     		ldr	r1, .L306
ARM GAS  C:\Users\86158\AppData\Local\Temp\cc13CoIU.s 			page 109


 4249 0016 2046     		mov	r0, r4
 4250 0018 FFF7FEFF 		bl	strSearch
 4251              	.LVL445:
 856:App/Src/command.c **** 	if (number > 0) {
 4252              		.loc 1 856 2 view .LVU967
 4253 001c 411C     		adds	r1, r0, #1
 4254 001e 19AA     		add	r2, sp, #100
 4255 0020 C9B2     		uxtb	r1, r1
 4256 0022 2046     		mov	r0, r4
 4257 0024 FFF7FEFF 		bl	CharToInt
 4258              	.LVL446:
 857:App/Src/command.c **** 		sd3078b_write_otp(number);
 4259              		.loc 1 857 2 is_stmt 1 view .LVU968
 857:App/Src/command.c **** 		sd3078b_write_otp(number);
 4260              		.loc 1 857 13 is_stmt 0 view .LVU969
 4261 0028 1998     		ldr	r0, [sp, #100]
 857:App/Src/command.c **** 		sd3078b_write_otp(number);
 4262              		.loc 1 857 5 view .LVU970
 4263 002a 0028     		cmp	r0, #0
 4264 002c 01DC     		bgt	.L305
 860:App/Src/command.c **** 			result[i - 1] = sd3078b_write_otp(i);
 4265              		.loc 1 860 10 view .LVU971
 4266 002e 0124     		movs	r4, #1
 4267              	.LVL447:
 860:App/Src/command.c **** 			result[i - 1] = sd3078b_write_otp(i);
 4268              		.loc 1 860 10 view .LVU972
 4269 0030 15E0     		b	.L297
 4270              	.LVL448:
 4271              	.L305:
 858:App/Src/command.c **** 	} else {
 4272              		.loc 1 858 3 is_stmt 1 view .LVU973
 4273 0032 C0B2     		uxtb	r0, r0
 4274 0034 FFF7FEFF 		bl	sd3078b_write_otp
 4275              	.LVL449:
 4276              	.L298:
 872:App/Src/command.c **** }
 4277              		.loc 1 872 2 view .LVU974
 4278 0038 1948     		ldr	r0, .L306+4
 4279 003a FFF7FEFF 		bl	UsbPrintf
 4280              	.LVL450:
 873:App/Src/command.c **** 
 4281              		.loc 1 873 1 is_stmt 0 view .LVU975
 4282 003e 1BB0     		add	sp, sp, #108
 4283              	.LCFI91:
 4284              		.cfi_remember_state
 4285              		.cfi_def_cfa_offset 12
 4286              		@ sp needed
 4287 0040 30BD     		pop	{r4, r5, pc}
 4288              	.LVL451:
 4289              	.L299:
 4290              	.LCFI92:
 4291              		.cfi_restore_state
 861:App/Src/command.c **** 			HAL_Delay(2000);
 4292              		.loc 1 861 4 is_stmt 1 discriminator 3 view .LVU976
 861:App/Src/command.c **** 			HAL_Delay(2000);
 4293              		.loc 1 861 20 is_stmt 0 discriminator 3 view .LVU977
 4294 0042 E0B2     		uxtb	r0, r4
ARM GAS  C:\Users\86158\AppData\Local\Temp\cc13CoIU.s 			page 110


 4295 0044 FFF7FEFF 		bl	sd3078b_write_otp
 4296              	.LVL452:
 861:App/Src/command.c **** 			HAL_Delay(2000);
 4297              		.loc 1 861 18 discriminator 3 view .LVU978
 4298 0048 04F16703 		add	r3, r4, #103
 4299 004c 0DEB0305 		add	r5, sp, r3
 4300 0050 05F8680C 		strb	r0, [r5, #-104]
 862:App/Src/command.c **** 		}
 4301              		.loc 1 862 4 is_stmt 1 discriminator 3 view .LVU979
 4302 0054 4FF4FA60 		mov	r0, #2000
 4303 0058 FFF7FEFF 		bl	HAL_Delay
 4304              	.LVL453:
 860:App/Src/command.c **** 			result[i - 1] = sd3078b_write_otp(i);
 4305              		.loc 1 860 37 discriminator 3 view .LVU980
 860:App/Src/command.c **** 			result[i - 1] = sd3078b_write_otp(i);
 4306              		.loc 1 860 38 is_stmt 0 discriminator 3 view .LVU981
 4307 005c 0134     		adds	r4, r4, #1
 4308              	.LVL454:
 4309              	.L297:
 860:App/Src/command.c **** 			result[i - 1] = sd3078b_write_otp(i);
 4310              		.loc 1 860 15 is_stmt 1 discriminator 1 view .LVU982
 860:App/Src/command.c **** 			result[i - 1] = sd3078b_write_otp(i);
 4311              		.loc 1 860 3 is_stmt 0 discriminator 1 view .LVU983
 4312 005e 642C     		cmp	r4, #100
 4313 0060 EFDD     		ble	.L299
 865:App/Src/command.c **** 			UsbPrintf("%d\t", result[i - 1]);
 4314              		.loc 1 865 10 view .LVU984
 4315 0062 0124     		movs	r4, #1
 4316              	.LVL455:
 865:App/Src/command.c **** 			UsbPrintf("%d\t", result[i - 1]);
 4317              		.loc 1 865 10 view .LVU985
 4318 0064 00E0     		b	.L300
 4319              	.LVL456:
 4320              	.L301:
 865:App/Src/command.c **** 			UsbPrintf("%d\t", result[i - 1]);
 4321              		.loc 1 865 37 is_stmt 1 discriminator 2 view .LVU986
 865:App/Src/command.c **** 			UsbPrintf("%d\t", result[i - 1]);
 4322              		.loc 1 865 38 is_stmt 0 discriminator 2 view .LVU987
 4323 0066 0134     		adds	r4, r4, #1
 4324              	.LVL457:
 4325              	.L300:
 865:App/Src/command.c **** 			UsbPrintf("%d\t", result[i - 1]);
 4326              		.loc 1 865 15 is_stmt 1 discriminator 1 view .LVU988
 865:App/Src/command.c **** 			UsbPrintf("%d\t", result[i - 1]);
 4327              		.loc 1 865 3 is_stmt 0 discriminator 1 view .LVU989
 4328 0068 642C     		cmp	r4, #100
 4329 006a E5DC     		bgt	.L298
 866:App/Src/command.c **** 			if (i % 10 == 0) {
 4330              		.loc 1 866 4 is_stmt 1 view .LVU990
 866:App/Src/command.c **** 			if (i % 10 == 0) {
 4331              		.loc 1 866 28 is_stmt 0 view .LVU991
 4332 006c 04F16703 		add	r3, r4, #103
 4333 0070 6B44     		add	r3, sp, r3
 866:App/Src/command.c **** 			if (i % 10 == 0) {
 4334              		.loc 1 866 4 view .LVU992
 4335 0072 13F8681C 		ldrb	r1, [r3, #-104]	@ zero_extendqisi2
 4336 0076 0B48     		ldr	r0, .L306+8
ARM GAS  C:\Users\86158\AppData\Local\Temp\cc13CoIU.s 			page 111


 4337 0078 FFF7FEFF 		bl	UsbPrintf
 4338              	.LVL458:
 867:App/Src/command.c **** 				UsbPrintf("\n");
 4339              		.loc 1 867 4 is_stmt 1 view .LVU993
 867:App/Src/command.c **** 				UsbPrintf("\n");
 4340              		.loc 1 867 10 is_stmt 0 view .LVU994
 4341 007c 0A4A     		ldr	r2, .L306+12
 4342 007e 82FB0432 		smull	r3, r2, r2, r4
 4343 0082 E317     		asrs	r3, r4, #31
 4344 0084 C3EBA203 		rsb	r3, r3, r2, asr #2
 4345 0088 03EB8303 		add	r3, r3, r3, lsl #2
 867:App/Src/command.c **** 				UsbPrintf("\n");
 4346              		.loc 1 867 7 view .LVU995
 4347 008c B4EB430F 		cmp	r4, r3, lsl #1
 4348 0090 E9D1     		bne	.L301
 868:App/Src/command.c **** 			}
 4349              		.loc 1 868 5 is_stmt 1 view .LVU996
 4350 0092 0648     		ldr	r0, .L306+16
 4351 0094 FFF7FEFF 		bl	UsbPrintf
 4352              	.LVL459:
 4353 0098 E5E7     		b	.L301
 4354              	.L307:
 4355 009a 00BF     		.align	2
 4356              	.L306:
 4357 009c 00000000 		.word	.LC48
 4358 00a0 00000000 		.word	.LC71
 4359 00a4 34000000 		.word	.LC26
 4360 00a8 67666666 		.word	1717986919
 4361 00ac 38000000 		.word	.LC27
 4362              		.cfi_endproc
 4363              	.LFE272:
 4365              		.section	.rodata.AT_GETRTCID_Handle.str1.4,"aMS",%progbits,1
 4366              		.align	2
 4367              	.LC72:
 4368 0000 25303258 		.ascii	"%02X\000"
 4368      00
 4369              		.section	.text.AT_GETRTCID_Handle,"ax",%progbits
 4370              		.align	1
 4371              		.global	AT_GETRTCID_Handle
 4372              		.syntax unified
 4373              		.thumb
 4374              		.thumb_func
 4376              	AT_GETRTCID_Handle:
 4377              	.LVL460:
 4378              	.LFB275:
 894:App/Src/command.c **** 	int number = 1;
 4379              		.loc 1 894 1 view -0
 4380              		.cfi_startproc
 4381              		@ args = 0, pretend = 0, frame = 16
 4382              		@ frame_needed = 0, uses_anonymous_args = 0
 894:App/Src/command.c **** 	int number = 1;
 4383              		.loc 1 894 1 is_stmt 0 view .LVU998
 4384 0000 70B5     		push	{r4, r5, r6, lr}
 4385              	.LCFI93:
 4386              		.cfi_def_cfa_offset 16
 4387              		.cfi_offset 4, -16
 4388              		.cfi_offset 5, -12
ARM GAS  C:\Users\86158\AppData\Local\Temp\cc13CoIU.s 			page 112


 4389              		.cfi_offset 6, -8
 4390              		.cfi_offset 14, -4
 4391 0002 84B0     		sub	sp, sp, #16
 4392              	.LCFI94:
 4393              		.cfi_def_cfa_offset 32
 4394 0004 0546     		mov	r5, r0
 895:App/Src/command.c **** 	uint8_t buf[8] = {0};
 4395              		.loc 1 895 2 is_stmt 1 view .LVU999
 895:App/Src/command.c **** 	uint8_t buf[8] = {0};
 4396              		.loc 1 895 6 is_stmt 0 view .LVU1000
 4397 0006 0126     		movs	r6, #1
 4398 0008 0396     		str	r6, [sp, #12]
 896:App/Src/command.c **** 	uint8_t i;
 4399              		.loc 1 896 2 is_stmt 1 view .LVU1001
 896:App/Src/command.c **** 	uint8_t i;
 4400              		.loc 1 896 10 is_stmt 0 view .LVU1002
 4401 000a 0024     		movs	r4, #0
 4402 000c 0194     		str	r4, [sp, #4]
 4403 000e 0294     		str	r4, [sp, #8]
 897:App/Src/command.c **** 	CharToInt(command, strSearch(command,"=") + 1, &number);
 4404              		.loc 1 897 2 is_stmt 1 view .LVU1003
 898:App/Src/command.c **** 	
 4405              		.loc 1 898 2 view .LVU1004
 898:App/Src/command.c **** 	
 4406              		.loc 1 898 21 is_stmt 0 view .LVU1005
 4407 0010 1549     		ldr	r1, .L312
 4408 0012 FFF7FEFF 		bl	strSearch
 4409              	.LVL461:
 898:App/Src/command.c **** 	
 4410              		.loc 1 898 2 view .LVU1006
 4411 0016 8119     		adds	r1, r0, r6
 4412 0018 03AA     		add	r2, sp, #12
 4413 001a C9B2     		uxtb	r1, r1
 4414 001c 2846     		mov	r0, r5
 4415 001e FFF7FEFF 		bl	CharToInt
 4416              	.LVL462:
 900:App/Src/command.c **** 	rtc_set_channel(number, RTC_SD3078B);
 4417              		.loc 1 900 2 is_stmt 1 view .LVU1007
 4418 0022 3146     		mov	r1, r6
 4419 0024 9DF80C00 		ldrb	r0, [sp, #12]	@ zero_extendqisi2
 4420 0028 FFF7FEFF 		bl	rtc_group_power
 4421              	.LVL463:
 901:App/Src/command.c **** 	rtc_read_multi_bytes(RTC_3078_ADDRESS, 0x72, buf, 8);
 4422              		.loc 1 901 2 view .LVU1008
 4423 002c 0521     		movs	r1, #5
 4424 002e 9DF80C00 		ldrb	r0, [sp, #12]	@ zero_extendqisi2
 4425 0032 FFF7FEFF 		bl	rtc_set_channel
 4426              	.LVL464:
 902:App/Src/command.c **** 	for (i = 0; i < 8; i++) {
 4427              		.loc 1 902 2 view .LVU1009
 4428 0036 0823     		movs	r3, #8
 4429 0038 01AA     		add	r2, sp, #4
 4430 003a 7221     		movs	r1, #114
 4431 003c 6420     		movs	r0, #100
 4432 003e FFF7FEFF 		bl	rtc_read_multi_bytes
 4433              	.LVL465:
 903:App/Src/command.c **** 		UsbPrintf("%02X", buf[i]);
ARM GAS  C:\Users\86158\AppData\Local\Temp\cc13CoIU.s 			page 113


 4434              		.loc 1 903 2 view .LVU1010
 903:App/Src/command.c **** 		UsbPrintf("%02X", buf[i]);
 4435              		.loc 1 903 2 is_stmt 0 view .LVU1011
 4436 0042 09E0     		b	.L309
 4437              	.LVL466:
 4438              	.L310:
 904:App/Src/command.c **** 	}
 4439              		.loc 1 904 3 is_stmt 1 discriminator 3 view .LVU1012
 904:App/Src/command.c **** 	}
 4440              		.loc 1 904 24 is_stmt 0 discriminator 3 view .LVU1013
 4441 0044 04F11003 		add	r3, r4, #16
 4442 0048 6B44     		add	r3, sp, r3
 904:App/Src/command.c **** 	}
 4443              		.loc 1 904 3 discriminator 3 view .LVU1014
 4444 004a 13F80C1C 		ldrb	r1, [r3, #-12]	@ zero_extendqisi2
 4445 004e 0748     		ldr	r0, .L312+4
 4446 0050 FFF7FEFF 		bl	UsbPrintf
 4447              	.LVL467:
 903:App/Src/command.c **** 		UsbPrintf("%02X", buf[i]);
 4448              		.loc 1 903 21 is_stmt 1 discriminator 3 view .LVU1015
 903:App/Src/command.c **** 		UsbPrintf("%02X", buf[i]);
 4449              		.loc 1 903 22 is_stmt 0 discriminator 3 view .LVU1016
 4450 0054 0134     		adds	r4, r4, #1
 4451              	.LVL468:
 903:App/Src/command.c **** 		UsbPrintf("%02X", buf[i]);
 4452              		.loc 1 903 22 discriminator 3 view .LVU1017
 4453 0056 E4B2     		uxtb	r4, r4
 4454              	.LVL469:
 4455              	.L309:
 903:App/Src/command.c **** 		UsbPrintf("%02X", buf[i]);
 4456              		.loc 1 903 14 is_stmt 1 discriminator 1 view .LVU1018
 903:App/Src/command.c **** 		UsbPrintf("%02X", buf[i]);
 4457              		.loc 1 903 2 is_stmt 0 discriminator 1 view .LVU1019
 4458 0058 072C     		cmp	r4, #7
 4459 005a F3D9     		bls	.L310
 906:App/Src/command.c **** }
 4460              		.loc 1 906 2 is_stmt 1 view .LVU1020
 4461 005c 0448     		ldr	r0, .L312+8
 4462 005e FFF7FEFF 		bl	UsbPrintf
 4463              	.LVL470:
 907:App/Src/command.c **** 
 4464              		.loc 1 907 1 is_stmt 0 view .LVU1021
 4465 0062 04B0     		add	sp, sp, #16
 4466              	.LCFI95:
 4467              		.cfi_def_cfa_offset 16
 4468              		@ sp needed
 4469 0064 70BD     		pop	{r4, r5, r6, pc}
 4470              	.LVL471:
 4471              	.L313:
 907:App/Src/command.c **** 
 4472              		.loc 1 907 1 view .LVU1022
 4473 0066 00BF     		.align	2
 4474              	.L312:
 4475 0068 00000000 		.word	.LC48
 4476 006c 00000000 		.word	.LC72
 4477 0070 18000000 		.word	.LC12
 4478              		.cfi_endproc
ARM GAS  C:\Users\86158\AppData\Local\Temp\cc13CoIU.s 			page 114


 4479              	.LFE275:
 4481              		.global	__aeabi_d2f
 4482              		.section	.text.CharToFloat,"ax",%progbits
 4483              		.align	1
 4484              		.global	CharToFloat
 4485              		.syntax unified
 4486              		.thumb
 4487              		.thumb_func
 4489              	CharToFloat:
 4490              	.LVL472:
 4491              	.LFB243:
 198:App/Src/command.c **** 		uint8_t length;
 4492              		.loc 1 198 1 is_stmt 1 view -0
 4493              		.cfi_startproc
 4494              		@ args = 0, pretend = 0, frame = 0
 4495              		@ frame_needed = 0, uses_anonymous_args = 0
 198:App/Src/command.c **** 		uint8_t length;
 4496              		.loc 1 198 1 is_stmt 0 view .LVU1024
 4497 0000 2DE9F041 		push	{r4, r5, r6, r7, r8, lr}
 4498              	.LCFI96:
 4499              		.cfi_def_cfa_offset 24
 4500              		.cfi_offset 4, -24
 4501              		.cfi_offset 5, -20
 4502              		.cfi_offset 6, -16
 4503              		.cfi_offset 7, -12
 4504              		.cfi_offset 8, -8
 4505              		.cfi_offset 14, -4
 4506 0004 2DED028B 		vpush.64	{d8}
 4507              	.LCFI97:
 4508              		.cfi_def_cfa_offset 32
 4509              		.cfi_offset 80, -32
 4510              		.cfi_offset 81, -28
 4511 0008 0646     		mov	r6, r0
 4512 000a 0C46     		mov	r4, r1
 4513 000c 1746     		mov	r7, r2
 199:App/Src/command.c **** 		uint8_t i;
 4514              		.loc 1 199 3 is_stmt 1 view .LVU1025
 200:App/Src/command.c **** 		float sum = 0;
 4515              		.loc 1 200 3 view .LVU1026
 201:App/Src/command.c **** 		int state = 1;
 4516              		.loc 1 201 3 view .LVU1027
 4517              	.LVL473:
 202:App/Src/command.c **** 		float smallNumber = 0.1;
 4518              		.loc 1 202 3 view .LVU1028
 203:App/Src/command.c **** 		length = strlen(source);
 4519              		.loc 1 203 3 view .LVU1029
 204:App/Src/command.c **** 		if (length <= start) {
 4520              		.loc 1 204 3 view .LVU1030
 204:App/Src/command.c **** 		if (length <= start) {
 4521              		.loc 1 204 12 is_stmt 0 view .LVU1031
 4522 000e FFF7FEFF 		bl	strlen
 4523              	.LVL474:
 204:App/Src/command.c **** 		if (length <= start) {
 4524              		.loc 1 204 10 view .LVU1032
 4525 0012 C5B2     		uxtb	r5, r0
 4526              	.LVL475:
 205:App/Src/command.c **** 				*number = 0;
ARM GAS  C:\Users\86158\AppData\Local\Temp\cc13CoIU.s 			page 115


 4527              		.loc 1 205 3 is_stmt 1 view .LVU1033
 205:App/Src/command.c **** 				*number = 0;
 4528              		.loc 1 205 6 is_stmt 0 view .LVU1034
 4529 0014 A542     		cmp	r5, r4
 4530 0016 1FD9     		bls	.L329
 210:App/Src/command.c **** 				state = -1;
 4531              		.loc 1 210 3 is_stmt 1 view .LVU1035
 210:App/Src/command.c **** 				state = -1;
 4532              		.loc 1 210 13 is_stmt 0 view .LVU1036
 4533 0018 335D     		ldrb	r3, [r6, r4]	@ zero_extendqisi2
 210:App/Src/command.c **** 				state = -1;
 4534              		.loc 1 210 6 view .LVU1037
 4535 001a 2D2B     		cmp	r3, #45
 4536 001c 20D0     		beq	.L330
 202:App/Src/command.c **** 		float smallNumber = 0.1;
 4537              		.loc 1 202 7 view .LVU1038
 4538 001e 4FF00108 		mov	r8, #1
 4539              	.LVL476:
 4540              	.L317:
 214:App/Src/command.c **** 				if (source[i] >= '0' && source[i] <= '9') {
 4541              		.loc 1 214 3 is_stmt 1 view .LVU1039
 201:App/Src/command.c **** 		int state = 1;
 4542              		.loc 1 201 9 is_stmt 0 view .LVU1040
 4543 0022 9FED378A 		vldr.32	s16, .L333+8
 4544              	.LVL477:
 4545              	.L318:
 214:App/Src/command.c **** 				if (source[i] >= '0' && source[i] <= '9') {
 4546              		.loc 1 214 19 is_stmt 1 discriminator 1 view .LVU1041
 214:App/Src/command.c **** 				if (source[i] >= '0' && source[i] <= '9') {
 4547              		.loc 1 214 3 is_stmt 0 discriminator 1 view .LVU1042
 4548 0026 AC42     		cmp	r4, r5
 4549 0028 2BD2     		bcs	.L322
 215:App/Src/command.c **** 						sum = sum * 10 + source[i] - '0';
 4550              		.loc 1 215 5 is_stmt 1 view .LVU1043
 215:App/Src/command.c **** 						sum = sum * 10 + source[i] - '0';
 4551              		.loc 1 215 15 is_stmt 0 view .LVU1044
 4552 002a 335D     		ldrb	r3, [r6, r4]	@ zero_extendqisi2
 215:App/Src/command.c **** 						sum = sum * 10 + source[i] - '0';
 4553              		.loc 1 215 26 view .LVU1045
 4554 002c A3F13002 		sub	r2, r3, #48
 4555 0030 D2B2     		uxtb	r2, r2
 215:App/Src/command.c **** 						sum = sum * 10 + source[i] - '0';
 4556              		.loc 1 215 8 view .LVU1046
 4557 0032 092A     		cmp	r2, #9
 4558 0034 19D8     		bhi	.L319
 216:App/Src/command.c **** 				} else if (source[i] == '.') {
 4559              		.loc 1 216 7 is_stmt 1 view .LVU1047
 216:App/Src/command.c **** 				} else if (source[i] == '.') {
 4560              		.loc 1 216 17 is_stmt 0 view .LVU1048
 4561 0036 F2EE047A 		vmov.f32	s15, #1.0e+1
 4562 003a 28EE278A 		vmul.f32	s16, s16, s15
 4563              	.LVL478:
 216:App/Src/command.c **** 				} else if (source[i] == '.') {
 4564              		.loc 1 216 22 view .LVU1049
 4565 003e 07EE903A 		vmov	s15, r3	@ int
 4566 0042 F8EEE77A 		vcvt.f32.s32	s15, s15
 4567 0046 77EE887A 		vadd.f32	s15, s15, s16
ARM GAS  C:\Users\86158\AppData\Local\Temp\cc13CoIU.s 			page 116


 216:App/Src/command.c **** 				} else if (source[i] == '.') {
 4568              		.loc 1 216 11 view .LVU1050
 4569 004a 9FED2E8A 		vldr.32	s16, .L333+12
 4570 004e 37EEC88A 		vsub.f32	s16, s15, s16
 4571              	.LVL479:
 214:App/Src/command.c **** 				if (source[i] >= '0' && source[i] <= '9') {
 4572              		.loc 1 214 31 is_stmt 1 view .LVU1051
 214:App/Src/command.c **** 				if (source[i] >= '0' && source[i] <= '9') {
 4573              		.loc 1 214 32 is_stmt 0 view .LVU1052
 4574 0052 0134     		adds	r4, r4, #1
 4575              	.LVL480:
 214:App/Src/command.c **** 				if (source[i] >= '0' && source[i] <= '9') {
 4576              		.loc 1 214 32 view .LVU1053
 4577 0054 E4B2     		uxtb	r4, r4
 4578              	.LVL481:
 214:App/Src/command.c **** 				if (source[i] >= '0' && source[i] <= '9') {
 4579              		.loc 1 214 32 view .LVU1054
 4580 0056 E6E7     		b	.L318
 4581              	.LVL482:
 4582              	.L329:
 206:App/Src/command.c **** 				return 0;
 4583              		.loc 1 206 5 is_stmt 1 view .LVU1055
 206:App/Src/command.c **** 				return 0;
 4584              		.loc 1 206 13 is_stmt 0 view .LVU1056
 4585 0058 0023     		movs	r3, #0
 4586 005a 3B60     		str	r3, [r7]	@ float
 207:App/Src/command.c **** 		}
 4587              		.loc 1 207 5 is_stmt 1 view .LVU1057
 207:App/Src/command.c **** 		}
 4588              		.loc 1 207 12 is_stmt 0 view .LVU1058
 4589 005c 0020     		movs	r0, #0
 4590 005e 44E0     		b	.L316
 4591              	.L330:
 211:App/Src/command.c **** 				start++;
 4592              		.loc 1 211 5 is_stmt 1 view .LVU1059
 4593              	.LVL483:
 212:App/Src/command.c **** 		}
 4594              		.loc 1 212 5 view .LVU1060
 212:App/Src/command.c **** 		}
 4595              		.loc 1 212 10 is_stmt 0 view .LVU1061
 4596 0060 0134     		adds	r4, r4, #1
 4597 0062 E4B2     		uxtb	r4, r4
 4598              	.LVL484:
 211:App/Src/command.c **** 				start++;
 4599              		.loc 1 211 11 view .LVU1062
 4600 0064 4FF0FF38 		mov	r8, #-1
 4601 0068 DBE7     		b	.L317
 4602              	.LVL485:
 4603              	.L319:
 217:App/Src/command.c **** 						i++;
 4604              		.loc 1 217 12 is_stmt 1 view .LVU1063
 217:App/Src/command.c **** 						i++;
 4605              		.loc 1 217 15 is_stmt 0 view .LVU1064
 4606 006a 2E2B     		cmp	r3, #46
 4607 006c 07D0     		beq	.L331
 220:App/Src/command.c **** 						break;
 4608              		.loc 1 220 12 is_stmt 1 view .LVU1065
ARM GAS  C:\Users\86158\AppData\Local\Temp\cc13CoIU.s 			page 117


 220:App/Src/command.c **** 						break;
 4609              		.loc 1 220 15 is_stmt 0 view .LVU1066
 4610 006e 202B     		cmp	r3, #32
 4611 0070 07D0     		beq	.L322
 220:App/Src/command.c **** 						break;
 4612              		.loc 1 220 33 discriminator 1 view .LVU1067
 4613 0072 2C2B     		cmp	r3, #44
 4614 0074 05D0     		beq	.L322
 223:App/Src/command.c **** 						return 0;
 4615              		.loc 1 223 7 is_stmt 1 view .LVU1068
 223:App/Src/command.c **** 						return 0;
 4616              		.loc 1 223 15 is_stmt 0 view .LVU1069
 4617 0076 0023     		movs	r3, #0
 4618 0078 3B60     		str	r3, [r7]	@ float
 224:App/Src/command.c **** 				}					
 4619              		.loc 1 224 7 is_stmt 1 view .LVU1070
 224:App/Src/command.c **** 				}					
 4620              		.loc 1 224 14 is_stmt 0 view .LVU1071
 4621 007a 0020     		movs	r0, #0
 4622 007c 35E0     		b	.L316
 4623              	.L331:
 218:App/Src/command.c **** 						break;
 4624              		.loc 1 218 7 is_stmt 1 view .LVU1072
 218:App/Src/command.c **** 						break;
 4625              		.loc 1 218 8 is_stmt 0 view .LVU1073
 4626 007e 0134     		adds	r4, r4, #1
 4627              	.LVL486:
 218:App/Src/command.c **** 						break;
 4628              		.loc 1 218 8 view .LVU1074
 4629 0080 E4B2     		uxtb	r4, r4
 4630              	.LVL487:
 219:App/Src/command.c **** 				} else if (source[i] == ' ' || source[i] == ',') {
 4631              		.loc 1 219 7 is_stmt 1 view .LVU1075
 4632              	.L322:
 201:App/Src/command.c **** 		int state = 1;
 4633              		.loc 1 201 9 is_stmt 0 discriminator 1 view .LVU1076
 4634 0082 9FED217A 		vldr.32	s14, .L333+16
 4635 0086 17E0     		b	.L321
 4636              	.LVL488:
 4637              	.L332:
 229:App/Src/command.c **** 						smallNumber = smallNumber * 0.1;
 4638              		.loc 1 229 7 is_stmt 1 view .LVU1077
 229:App/Src/command.c **** 						smallNumber = smallNumber * 0.1;
 4639              		.loc 1 229 39 is_stmt 0 view .LVU1078
 4640 0088 303B     		subs	r3, r3, #48
 4641 008a 07EE903A 		vmov	s15, r3	@ int
 229:App/Src/command.c **** 						smallNumber = smallNumber * 0.1;
 4642              		.loc 1 229 26 view .LVU1079
 4643 008e F8EEE77A 		vcvt.f32.s32	s15, s15
 4644 0092 67EE877A 		vmul.f32	s15, s15, s14
 229:App/Src/command.c **** 						smallNumber = smallNumber * 0.1;
 4645              		.loc 1 229 11 view .LVU1080
 4646 0096 38EE278A 		vadd.f32	s16, s16, s15
 4647              	.LVL489:
 230:App/Src/command.c **** 				} else if (source[i] == ' ' || source[i] == ',') {
 4648              		.loc 1 230 7 is_stmt 1 view .LVU1081
 230:App/Src/command.c **** 				} else if (source[i] == ' ' || source[i] == ',') {
ARM GAS  C:\Users\86158\AppData\Local\Temp\cc13CoIU.s 			page 118


 4649              		.loc 1 230 33 is_stmt 0 view .LVU1082
 4650 009a 17EE100A 		vmov	r0, s14
 4651 009e FFF7FEFF 		bl	__aeabi_f2d
 4652              	.LVL490:
 230:App/Src/command.c **** 				} else if (source[i] == ' ' || source[i] == ',') {
 4653              		.loc 1 230 33 view .LVU1083
 4654 00a2 15A3     		adr	r3, .L333
 4655 00a4 D3E90023 		ldrd	r2, [r3]
 4656 00a8 FFF7FEFF 		bl	__aeabi_dmul
 4657              	.LVL491:
 230:App/Src/command.c **** 				} else if (source[i] == ' ' || source[i] == ',') {
 4658              		.loc 1 230 19 view .LVU1084
 4659 00ac FFF7FEFF 		bl	__aeabi_d2f
 4660              	.LVL492:
 4661 00b0 07EE100A 		vmov	s14, r0
 4662              	.LVL493:
 227:App/Src/command.c **** 				if (source[i] >= '0' && source[i] <= '9') {
 4663              		.loc 1 227 22 is_stmt 1 view .LVU1085
 227:App/Src/command.c **** 				if (source[i] >= '0' && source[i] <= '9') {
 4664              		.loc 1 227 23 is_stmt 0 view .LVU1086
 4665 00b4 0134     		adds	r4, r4, #1
 4666              	.LVL494:
 227:App/Src/command.c **** 				if (source[i] >= '0' && source[i] <= '9') {
 4667              		.loc 1 227 23 view .LVU1087
 4668 00b6 E4B2     		uxtb	r4, r4
 4669              	.LVL495:
 4670              	.L321:
 227:App/Src/command.c **** 				if (source[i] >= '0' && source[i] <= '9') {
 4671              		.loc 1 227 10 is_stmt 1 discriminator 1 view .LVU1088
 227:App/Src/command.c **** 				if (source[i] >= '0' && source[i] <= '9') {
 4672              		.loc 1 227 3 is_stmt 0 discriminator 1 view .LVU1089
 4673 00b8 AC42     		cmp	r4, r5
 4674 00ba 0DD2     		bcs	.L325
 228:App/Src/command.c **** 						sum += smallNumber * (source[i] - '0');
 4675              		.loc 1 228 5 is_stmt 1 view .LVU1090
 228:App/Src/command.c **** 						sum += smallNumber * (source[i] - '0');
 4676              		.loc 1 228 15 is_stmt 0 view .LVU1091
 4677 00bc 335D     		ldrb	r3, [r6, r4]	@ zero_extendqisi2
 228:App/Src/command.c **** 						sum += smallNumber * (source[i] - '0');
 4678              		.loc 1 228 26 view .LVU1092
 4679 00be A3F13002 		sub	r2, r3, #48
 4680 00c2 D2B2     		uxtb	r2, r2
 228:App/Src/command.c **** 						sum += smallNumber * (source[i] - '0');
 4681              		.loc 1 228 8 view .LVU1093
 4682 00c4 092A     		cmp	r2, #9
 4683 00c6 DFD9     		bls	.L332
 231:App/Src/command.c **** 						break;
 4684              		.loc 1 231 12 is_stmt 1 view .LVU1094
 231:App/Src/command.c **** 						break;
 4685              		.loc 1 231 15 is_stmt 0 view .LVU1095
 4686 00c8 202B     		cmp	r3, #32
 4687 00ca 05D0     		beq	.L325
 231:App/Src/command.c **** 						break;
 4688              		.loc 1 231 33 discriminator 1 view .LVU1096
 4689 00cc 2C2B     		cmp	r3, #44
 4690 00ce 03D0     		beq	.L325
 234:App/Src/command.c **** 						return 0;
ARM GAS  C:\Users\86158\AppData\Local\Temp\cc13CoIU.s 			page 119


 4691              		.loc 1 234 7 is_stmt 1 view .LVU1097
 234:App/Src/command.c **** 						return 0;
 4692              		.loc 1 234 15 is_stmt 0 view .LVU1098
 4693 00d0 0023     		movs	r3, #0
 4694 00d2 3B60     		str	r3, [r7]	@ float
 235:App/Src/command.c **** 				}	
 4695              		.loc 1 235 7 is_stmt 1 view .LVU1099
 235:App/Src/command.c **** 				}	
 4696              		.loc 1 235 14 is_stmt 0 view .LVU1100
 4697 00d4 0020     		movs	r0, #0
 4698 00d6 08E0     		b	.L316
 4699              	.L325:
 238:App/Src/command.c **** 		return 1;
 4700              		.loc 1 238 3 is_stmt 1 view .LVU1101
 238:App/Src/command.c **** 		return 1;
 4701              		.loc 1 238 19 is_stmt 0 view .LVU1102
 4702 00d8 07EE908A 		vmov	s15, r8	@ int
 4703 00dc F8EEE77A 		vcvt.f32.s32	s15, s15
 4704 00e0 27EE888A 		vmul.f32	s16, s15, s16
 4705              	.LVL496:
 238:App/Src/command.c **** 		return 1;
 4706              		.loc 1 238 11 view .LVU1103
 4707 00e4 87ED008A 		vstr.32	s16, [r7]
 239:App/Src/command.c **** }
 4708              		.loc 1 239 3 is_stmt 1 view .LVU1104
 239:App/Src/command.c **** }
 4709              		.loc 1 239 10 is_stmt 0 view .LVU1105
 4710 00e8 0120     		movs	r0, #1
 4711              	.LVL497:
 4712              	.L316:
 240:App/Src/command.c **** 
 4713              		.loc 1 240 1 view .LVU1106
 4714 00ea BDEC028B 		vldm	sp!, {d8}
 4715              	.LCFI98:
 4716              		.cfi_restore 80
 4717              		.cfi_restore 81
 4718              		.cfi_def_cfa_offset 24
 4719 00ee BDE8F081 		pop	{r4, r5, r6, r7, r8, pc}
 4720              	.LVL498:
 4721              	.L334:
 240:App/Src/command.c **** 
 4722              		.loc 1 240 1 view .LVU1107
 4723 00f2 00BFAFF3 		.align	3
 4723      0080
 4724              	.L333:
 4725 00f8 9A999999 		.word	-1717986918
 4726 00fc 9999B93F 		.word	1069128089
 4727 0100 00000000 		.word	0
 4728 0104 00004042 		.word	1111490560
 4729 0108 CDCCCC3D 		.word	1036831949
 4730              		.cfi_endproc
 4731              	.LFE243:
 4733              		.section	.text.AT_HOTVOLTAGE_Handle,"ax",%progbits
 4734              		.align	1
 4735              		.global	AT_HOTVOLTAGE_Handle
 4736              		.syntax unified
 4737              		.thumb
ARM GAS  C:\Users\86158\AppData\Local\Temp\cc13CoIU.s 			page 120


 4738              		.thumb_func
 4740              	AT_HOTVOLTAGE_Handle:
 4741              	.LVL499:
 4742              	.LFB273:
 876:App/Src/command.c **** 	float number;
 4743              		.loc 1 876 1 is_stmt 1 view -0
 4744              		.cfi_startproc
 4745              		@ args = 0, pretend = 0, frame = 8
 4746              		@ frame_needed = 0, uses_anonymous_args = 0
 876:App/Src/command.c **** 	float number;
 4747              		.loc 1 876 1 is_stmt 0 view .LVU1109
 4748 0000 10B5     		push	{r4, lr}
 4749              	.LCFI99:
 4750              		.cfi_def_cfa_offset 8
 4751              		.cfi_offset 4, -8
 4752              		.cfi_offset 14, -4
 4753 0002 82B0     		sub	sp, sp, #8
 4754              	.LCFI100:
 4755              		.cfi_def_cfa_offset 16
 4756 0004 0446     		mov	r4, r0
 877:App/Src/command.c **** 	CharToFloat(command, strSearch(command, "=") + 1, &number);
 4757              		.loc 1 877 2 is_stmt 1 view .LVU1110
 878:App/Src/command.c **** 	rtc_otp_power(number);//配置dac电压
 4758              		.loc 1 878 2 view .LVU1111
 878:App/Src/command.c **** 	rtc_otp_power(number);//配置dac电压
 4759              		.loc 1 878 23 is_stmt 0 view .LVU1112
 4760 0006 0B49     		ldr	r1, .L337
 4761 0008 FFF7FEFF 		bl	strSearch
 4762              	.LVL500:
 878:App/Src/command.c **** 	rtc_otp_power(number);//配置dac电压
 4763              		.loc 1 878 2 view .LVU1113
 4764 000c 411C     		adds	r1, r0, #1
 4765 000e 01AA     		add	r2, sp, #4
 4766 0010 C9B2     		uxtb	r1, r1
 4767 0012 2046     		mov	r0, r4
 4768 0014 FFF7FEFF 		bl	CharToFloat
 4769              	.LVL501:
 879:App/Src/command.c ****     HAL_GPIO_WritePin(GPIOE, GPIO_PIN_6, GPIO_PIN_SET);//VCE_SDA选择VCE通道
 4770              		.loc 1 879 2 is_stmt 1 view .LVU1114
 4771 0018 9DED010A 		vldr.32	s0, [sp, #4]
 4772 001c FFF7FEFF 		bl	rtc_otp_power
 4773              	.LVL502:
 880:App/Src/command.c **** 	UsbPrintf("OK\n");
 4774              		.loc 1 880 5 view .LVU1115
 4775 0020 0122     		movs	r2, #1
 4776 0022 4021     		movs	r1, #64
 4777 0024 0448     		ldr	r0, .L337+4
 4778 0026 FFF7FEFF 		bl	HAL_GPIO_WritePin
 4779              	.LVL503:
 881:App/Src/command.c **** }
 4780              		.loc 1 881 2 view .LVU1116
 4781 002a 0448     		ldr	r0, .L337+8
 4782 002c FFF7FEFF 		bl	UsbPrintf
 4783              	.LVL504:
 882:App/Src/command.c **** 
 4784              		.loc 1 882 1 is_stmt 0 view .LVU1117
 4785 0030 02B0     		add	sp, sp, #8
ARM GAS  C:\Users\86158\AppData\Local\Temp\cc13CoIU.s 			page 121


 4786              	.LCFI101:
 4787              		.cfi_def_cfa_offset 8
 4788              		@ sp needed
 4789 0032 10BD     		pop	{r4, pc}
 4790              	.LVL505:
 4791              	.L338:
 882:App/Src/command.c **** 
 4792              		.loc 1 882 1 view .LVU1118
 4793              		.align	2
 4794              	.L337:
 4795 0034 00000000 		.word	.LC48
 4796 0038 00100240 		.word	1073876992
 4797 003c 1C000000 		.word	.LC10
 4798              		.cfi_endproc
 4799              	.LFE273:
 4801              		.section	.text.CheckFreqValue,"ax",%progbits
 4802              		.align	1
 4803              		.global	CheckFreqValue
 4804              		.syntax unified
 4805              		.thumb
 4806              		.thumb_func
 4808              	CheckFreqValue:
 4809              	.LVL506:
 4810              	.LFB277:
 915:App/Src/command.c **** 
 916:App/Src/command.c **** uint8_t CheckFreqValue(float* result)
 917:App/Src/command.c **** {
 4811              		.loc 1 917 1 is_stmt 1 view -0
 4812              		.cfi_startproc
 4813              		@ args = 0, pretend = 0, frame = 16
 4814              		@ frame_needed = 0, uses_anonymous_args = 0
 4815              		.loc 1 917 1 is_stmt 0 view .LVU1120
 4816 0000 30B5     		push	{r4, r5, lr}
 4817              	.LCFI102:
 4818              		.cfi_def_cfa_offset 12
 4819              		.cfi_offset 4, -12
 4820              		.cfi_offset 5, -8
 4821              		.cfi_offset 14, -4
 4822 0002 85B0     		sub	sp, sp, #20
 4823              	.LCFI103:
 4824              		.cfi_def_cfa_offset 32
 4825 0004 0446     		mov	r4, r0
 918:App/Src/command.c **** 	int num;
 4826              		.loc 1 918 2 is_stmt 1 view .LVU1121
 919:App/Src/command.c **** 	char strFreq[10] = {0};
 4827              		.loc 1 919 2 view .LVU1122
 4828              		.loc 1 919 7 is_stmt 0 view .LVU1123
 4829 0006 0023     		movs	r3, #0
 4830 0008 0193     		str	r3, [sp, #4]
 4831 000a 0293     		str	r3, [sp, #8]
 4832 000c ADF80C30 		strh	r3, [sp, #12]	@ movhi
 920:App/Src/command.c **** 	float frequency = 0;
 4833              		.loc 1 920 2 is_stmt 1 view .LVU1124
 4834              		.loc 1 920 8 is_stmt 0 view .LVU1125
 4835 0010 0023     		movs	r3, #0
 4836 0012 0093     		str	r3, [sp]	@ float
 921:App/Src/command.c **** 
ARM GAS  C:\Users\86158\AppData\Local\Temp\cc13CoIU.s 			page 122


 922:App/Src/command.c **** 	num = strSearch((char*)g_DeviceRxBuff, "Hz");
 4837              		.loc 1 922 2 is_stmt 1 view .LVU1126
 4838              		.loc 1 922 8 is_stmt 0 view .LVU1127
 4839 0014 0F49     		ldr	r1, .L344
 4840 0016 1048     		ldr	r0, .L344+4
 4841              	.LVL507:
 4842              		.loc 1 922 8 view .LVU1128
 4843 0018 FFF7FEFF 		bl	strSearch
 4844              	.LVL508:
 923:App/Src/command.c **** 	if (num > 0) {//表示是以Hz字符结尾的数据，判断为有效数据
 4845              		.loc 1 923 2 is_stmt 1 view .LVU1129
 4846              		.loc 1 923 5 is_stmt 0 view .LVU1130
 4847 001c 021E     		subs	r2, r0, #0
 4848 001e 02DC     		bgt	.L343
 924:App/Src/command.c **** 		strncpy(strFreq, (char*)g_DeviceRxBuff, num);//读取其中的数字部分
 925:App/Src/command.c **** 		CharToFloat(strFreq, 0, &frequency);//转换为浮点型数据
 926:App/Src/command.c **** 		*result = frequency;
 927:App/Src/command.c ****         memset(g_DeviceRxBuff, 0, UART_RECEIVE_BUFF_NUMBER);
 928:App/Src/command.c ****         device_Rx_Cnt = 0;
 929:App/Src/command.c **** 		return 1;
 930:App/Src/command.c **** 	}
 931:App/Src/command.c **** 	return 0;
 4849              		.loc 1 931 9 view .LVU1131
 4850 0020 0020     		movs	r0, #0
 4851              	.LVL509:
 4852              	.L340:
 932:App/Src/command.c **** }
 4853              		.loc 1 932 1 view .LVU1132
 4854 0022 05B0     		add	sp, sp, #20
 4855              	.LCFI104:
 4856              		.cfi_remember_state
 4857              		.cfi_def_cfa_offset 12
 4858              		@ sp needed
 4859 0024 30BD     		pop	{r4, r5, pc}
 4860              	.LVL510:
 4861              	.L343:
 4862              	.LCFI105:
 4863              		.cfi_restore_state
 924:App/Src/command.c **** 		strncpy(strFreq, (char*)g_DeviceRxBuff, num);//读取其中的数字部分
 4864              		.loc 1 924 3 is_stmt 1 view .LVU1133
 4865 0026 0C4D     		ldr	r5, .L344+4
 4866 0028 2946     		mov	r1, r5
 4867 002a 01A8     		add	r0, sp, #4
 4868              	.LVL511:
 924:App/Src/command.c **** 		strncpy(strFreq, (char*)g_DeviceRxBuff, num);//读取其中的数字部分
 4869              		.loc 1 924 3 is_stmt 0 view .LVU1134
 4870 002c FFF7FEFF 		bl	strncpy
 4871              	.LVL512:
 925:App/Src/command.c **** 		*result = frequency;
 4872              		.loc 1 925 3 is_stmt 1 view .LVU1135
 4873 0030 6A46     		mov	r2, sp
 4874 0032 0021     		movs	r1, #0
 4875 0034 01A8     		add	r0, sp, #4
 4876 0036 FFF7FEFF 		bl	CharToFloat
 4877              	.LVL513:
 926:App/Src/command.c ****         memset(g_DeviceRxBuff, 0, UART_RECEIVE_BUFF_NUMBER);
 4878              		.loc 1 926 3 view .LVU1136
ARM GAS  C:\Users\86158\AppData\Local\Temp\cc13CoIU.s 			page 123


 926:App/Src/command.c ****         memset(g_DeviceRxBuff, 0, UART_RECEIVE_BUFF_NUMBER);
 4879              		.loc 1 926 11 is_stmt 0 view .LVU1137
 4880 003a 009B     		ldr	r3, [sp]	@ float
 4881 003c 2360     		str	r3, [r4]	@ float
 927:App/Src/command.c ****         device_Rx_Cnt = 0;
 4882              		.loc 1 927 9 is_stmt 1 view .LVU1138
 4883 003e C822     		movs	r2, #200
 4884 0040 0021     		movs	r1, #0
 4885 0042 2846     		mov	r0, r5
 4886 0044 FFF7FEFF 		bl	memset
 4887              	.LVL514:
 928:App/Src/command.c **** 		return 1;
 4888              		.loc 1 928 9 view .LVU1139
 928:App/Src/command.c **** 		return 1;
 4889              		.loc 1 928 23 is_stmt 0 view .LVU1140
 4890 0048 044B     		ldr	r3, .L344+8
 4891 004a 0022     		movs	r2, #0
 4892 004c 1A80     		strh	r2, [r3]	@ movhi
 929:App/Src/command.c **** 	}
 4893              		.loc 1 929 3 is_stmt 1 view .LVU1141
 929:App/Src/command.c **** 	}
 4894              		.loc 1 929 10 is_stmt 0 view .LVU1142
 4895 004e 0120     		movs	r0, #1
 4896 0050 E7E7     		b	.L340
 4897              	.L345:
 4898 0052 00BF     		.align	2
 4899              	.L344:
 4900 0054 08000000 		.word	.LC34
 4901 0058 00000000 		.word	.LANCHOR8
 4902 005c 00000000 		.word	.LANCHOR10
 4903              		.cfi_endproc
 4904              	.LFE277:
 4906              		.section	.text.HAL_UART_RxCpltCallback,"ax",%progbits
 4907              		.align	1
 4908              		.global	HAL_UART_RxCpltCallback
 4909              		.syntax unified
 4910              		.thumb
 4911              		.thumb_func
 4913              	HAL_UART_RxCpltCallback:
 4914              	.LVL515:
 4915              	.LFB278:
 933:App/Src/command.c **** 
 934:App/Src/command.c **** typedef void(*function)(char* s);
 935:App/Src/command.c **** function UsbCommand[MAX_COMMAND_NUMBER] = {
 936:App/Src/command.c ****     AT_HELP_Handle,
 937:App/Src/command.c ****     AT_REALTIME_Handle,
 938:App/Src/command.c ****     AT_READDATA_Handle,
 939:App/Src/command.c ****     AT_SETTIME_Handle,
 940:App/Src/command.c **** 	AT_RTCCURRENT_Handle,
 941:App/Src/command.c **** 	AT_GROUPSETTEMP_Handle,
 942:App/Src/command.c **** 	AT_RTCVBAT_Handle,
 943:App/Src/command.c **** 	AT_RTC4096_Handle,
 944:App/Src/command.c **** 	AT_RTCADJCAP_Handle,
 945:App/Src/command.c **** 	AT_RTCMODE_Handle,
 946:App/Src/command.c **** 	AT_FREQTEST_Handle,
 947:App/Src/command.c **** 	AT_READGROUP_Handle,
 948:App/Src/command.c **** 	AT_SYSTEMP_Handle,	
ARM GAS  C:\Users\86158\AppData\Local\Temp\cc13CoIU.s 			page 124


 949:App/Src/command.c **** 	AT_WRITEFLASH_Handle,
 950:App/Src/command.c **** 	AT_READFLASH_Handle,
 951:App/Src/command.c **** 	AT_ERASEFLASH_Handle,
 952:App/Src/command.c **** 	AT_SETCURRENT_Handle,
 953:App/Src/command.c **** 	AT_SYSVOLTAGE_Handle,
 954:App/Src/command.c **** 	AT_SYSTEST_Handle,
 955:App/Src/command.c **** 	AT_TESTMODE_Handle,
 956:App/Src/command.c **** 	AT_RESULT_Handle,
 957:App/Src/command.c **** 	AT_WRITECONFIG_Handle,
 958:App/Src/command.c **** 	AT_TESTFLAG_Handle,
 959:App/Src/command.c **** 	AT_TESTDATA_Handle,
 960:App/Src/command.c **** 	AT_ATTEST_Handle,
 961:App/Src/command.c **** 	AT_MACHINE_Handle,
 962:App/Src/command.c **** 	AT_1006TMODE_Handle,
 963:App/Src/command.c **** 	AT_SD3078INT_Handle,
 964:App/Src/command.c **** 	AT_RTCLOAD_Handle,
 965:App/Src/command.c **** 	AT_HOTVOLTAGE_Handle,
 966:App/Src/command.c **** 	AT_TEMPADC_Handle,
 967:App/Src/command.c **** 	AT_GETRTCID_Handle,
 968:App/Src/command.c **** 	AT_AECQ100_Handle,
 969:App/Src/command.c **** };
 970:App/Src/command.c **** 
 971:App/Src/command.c **** 
 972:App/Src/command.c **** void HAL_UART_RxCpltCallback(UART_HandleTypeDef *huart)
 973:App/Src/command.c **** {
 4916              		.loc 1 973 1 is_stmt 1 view -0
 4917              		.cfi_startproc
 4918              		@ args = 0, pretend = 0, frame = 0
 4919              		@ frame_needed = 0, uses_anonymous_args = 0
 4920              		.loc 1 973 1 is_stmt 0 view .LVU1144
 4921 0000 10B5     		push	{r4, lr}
 4922              	.LCFI106:
 4923              		.cfi_def_cfa_offset 8
 4924              		.cfi_offset 4, -8
 4925              		.cfi_offset 14, -4
 4926 0002 0446     		mov	r4, r0
 974:App/Src/command.c ****     if (huart->Instance == USART1) {//USB调试
 4927              		.loc 1 974 5 is_stmt 1 view .LVU1145
 4928              		.loc 1 974 14 is_stmt 0 view .LVU1146
 4929 0004 0268     		ldr	r2, [r0]
 4930              		.loc 1 974 8 view .LVU1147
 4931 0006 2E4B     		ldr	r3, .L362
 4932 0008 9A42     		cmp	r2, r3
 4933 000a 08D0     		beq	.L359
 4934              	.LVL516:
 4935              	.L347:
 975:App/Src/command.c ****         if (usb_Rx_Cnt == 0 && (usbRxBuf == ' ' || usbRxBuf == '\r' || usbRxBuf == '\n')) {
 976:App/Src/command.c ****             HAL_UART_Receive_IT(&huart1, &usbRxBuf, sizeof(usbRxBuf));
 977:App/Src/command.c ****             return;
 978:App/Src/command.c ****         }
 979:App/Src/command.c ****         if (usb_Rx_Cnt < UART_RECEIVE_BUFF_NUMBER && g_UsbATStatus == 0) {
 980:App/Src/command.c ****             g_UsbRxBuff[usb_Rx_Cnt] = usbRxBuf;
 981:App/Src/command.c ****         	usb_Rx_Cnt++;
 982:App/Src/command.c ****         }
 983:App/Src/command.c ****         if (usb_Rx_Cnt >= UART_RECEIVE_BUFF_NUMBER || usbRxBuf == ' ') {
 984:App/Src/command.c ****             g_UsbATStatus = 1;
 985:App/Src/command.c ****         } 
ARM GAS  C:\Users\86158\AppData\Local\Temp\cc13CoIU.s 			page 125


 986:App/Src/command.c ****         HAL_UART_Receive_IT(&huart1, &usbRxBuf, 1);
 987:App/Src/command.c ****     }
 988:App/Src/command.c **** 	
 989:App/Src/command.c **** 	if (huart->Instance == USART2) {//频率计和上料机
 4936              		.loc 1 989 2 is_stmt 1 view .LVU1148
 4937              		.loc 1 989 11 is_stmt 0 view .LVU1149
 4938 000c 2268     		ldr	r2, [r4]
 4939              		.loc 1 989 5 view .LVU1150
 4940 000e 2D4B     		ldr	r3, .L362+4
 4941 0010 9A42     		cmp	r2, r3
 4942 0012 32D0     		beq	.L360
 4943              	.L354:
 990:App/Src/command.c ****         if (device_Rx_Cnt < UART_RECEIVE_BUFF_NUMBER && g_DeviceATStatus == 0) {
 991:App/Src/command.c ****             g_DeviceRxBuff[device_Rx_Cnt] = deviceRxBuf;
 992:App/Src/command.c ****         	device_Rx_Cnt++;
 993:App/Src/command.c ****         }
 994:App/Src/command.c ****         if (device_Rx_Cnt >= UART_RECEIVE_BUFF_NUMBER || deviceRxBuf == '\n') {
 995:App/Src/command.c ****             g_DeviceATStatus = 1;
 996:App/Src/command.c ****         }
 997:App/Src/command.c ****         HAL_UART_Receive_IT(&huart2, &deviceRxBuf, 1);
 998:App/Src/command.c **** 	}
 999:App/Src/command.c **** 
1000:App/Src/command.c **** 	if (huart->Instance == USART3) {//上位机信息处理
 4944              		.loc 1 1000 2 is_stmt 1 view .LVU1151
 4945              		.loc 1 1000 11 is_stmt 0 view .LVU1152
 4946 0014 2268     		ldr	r2, [r4]
 4947              		.loc 1 1000 5 view .LVU1153
 4948 0016 2C4B     		ldr	r3, .L362+8
 4949 0018 9A42     		cmp	r2, r3
 4950 001a 4DD0     		beq	.L361
 4951              	.L346:
1001:App/Src/command.c **** 		control_usart_receive();
1002:App/Src/command.c **** 	}
1003:App/Src/command.c **** }
 4952              		.loc 1 1003 1 view .LVU1154
 4953 001c 10BD     		pop	{r4, pc}
 4954              	.LVL517:
 4955              	.L359:
 975:App/Src/command.c ****             HAL_UART_Receive_IT(&huart1, &usbRxBuf, sizeof(usbRxBuf));
 4956              		.loc 1 975 9 is_stmt 1 view .LVU1155
 975:App/Src/command.c ****             HAL_UART_Receive_IT(&huart1, &usbRxBuf, sizeof(usbRxBuf));
 4957              		.loc 1 975 24 is_stmt 0 view .LVU1156
 4958 001e 2B4B     		ldr	r3, .L362+12
 4959 0020 1B88     		ldrh	r3, [r3]
 975:App/Src/command.c ****             HAL_UART_Receive_IT(&huart1, &usbRxBuf, sizeof(usbRxBuf));
 4960              		.loc 1 975 12 view .LVU1157
 4961 0022 3BB9     		cbnz	r3, .L348
 975:App/Src/command.c ****             HAL_UART_Receive_IT(&huart1, &usbRxBuf, sizeof(usbRxBuf));
 4962              		.loc 1 975 42 discriminator 1 view .LVU1158
 4963 0024 2A4A     		ldr	r2, .L362+16
 4964 0026 1278     		ldrb	r2, [r2]	@ zero_extendqisi2
 975:App/Src/command.c ****             HAL_UART_Receive_IT(&huart1, &usbRxBuf, sizeof(usbRxBuf));
 4965              		.loc 1 975 29 discriminator 1 view .LVU1159
 4966 0028 202A     		cmp	r2, #32
 4967 002a 20D0     		beq	.L349
 975:App/Src/command.c ****             HAL_UART_Receive_IT(&huart1, &usbRxBuf, sizeof(usbRxBuf));
 4968              		.loc 1 975 49 discriminator 2 view .LVU1160
ARM GAS  C:\Users\86158\AppData\Local\Temp\cc13CoIU.s 			page 126


 4969 002c 0D2A     		cmp	r2, #13
 4970 002e 1ED0     		beq	.L349
 975:App/Src/command.c ****             HAL_UART_Receive_IT(&huart1, &usbRxBuf, sizeof(usbRxBuf));
 4971              		.loc 1 975 69 discriminator 3 view .LVU1161
 4972 0030 0A2A     		cmp	r2, #10
 4973 0032 1CD0     		beq	.L349
 4974              	.L348:
 979:App/Src/command.c ****             g_UsbRxBuff[usb_Rx_Cnt] = usbRxBuf;
 4975              		.loc 1 979 9 is_stmt 1 view .LVU1162
 979:App/Src/command.c ****             g_UsbRxBuff[usb_Rx_Cnt] = usbRxBuf;
 4976              		.loc 1 979 12 is_stmt 0 view .LVU1163
 4977 0034 C72B     		cmp	r3, #199
 4978 0036 09D8     		bhi	.L351
 979:App/Src/command.c ****             g_UsbRxBuff[usb_Rx_Cnt] = usbRxBuf;
 4979              		.loc 1 979 68 discriminator 1 view .LVU1164
 4980 0038 264A     		ldr	r2, .L362+20
 4981 003a 1278     		ldrb	r2, [r2]	@ zero_extendqisi2
 979:App/Src/command.c ****             g_UsbRxBuff[usb_Rx_Cnt] = usbRxBuf;
 4982              		.loc 1 979 51 discriminator 1 view .LVU1165
 4983 003c 32B9     		cbnz	r2, .L351
 980:App/Src/command.c ****         	usb_Rx_Cnt++;
 4984              		.loc 1 980 13 is_stmt 1 view .LVU1166
 980:App/Src/command.c ****         	usb_Rx_Cnt++;
 4985              		.loc 1 980 37 is_stmt 0 view .LVU1167
 4986 003e 244A     		ldr	r2, .L362+16
 4987 0040 1178     		ldrb	r1, [r2]	@ zero_extendqisi2
 4988 0042 254A     		ldr	r2, .L362+24
 4989 0044 D154     		strb	r1, [r2, r3]
 981:App/Src/command.c ****         }
 4990              		.loc 1 981 10 is_stmt 1 view .LVU1168
 981:App/Src/command.c ****         }
 4991              		.loc 1 981 20 is_stmt 0 view .LVU1169
 4992 0046 0133     		adds	r3, r3, #1
 4993 0048 204A     		ldr	r2, .L362+12
 4994 004a 1380     		strh	r3, [r2]	@ movhi
 4995              	.L351:
 983:App/Src/command.c ****             g_UsbATStatus = 1;
 4996              		.loc 1 983 9 is_stmt 1 view .LVU1170
 983:App/Src/command.c ****             g_UsbATStatus = 1;
 4997              		.loc 1 983 24 is_stmt 0 view .LVU1171
 4998 004c 1F4B     		ldr	r3, .L362+12
 4999 004e 1B88     		ldrh	r3, [r3]
 983:App/Src/command.c ****             g_UsbATStatus = 1;
 5000              		.loc 1 983 12 view .LVU1172
 5001 0050 C72B     		cmp	r3, #199
 5002 0052 03D8     		bhi	.L352
 983:App/Src/command.c ****             g_UsbATStatus = 1;
 5003              		.loc 1 983 64 discriminator 1 view .LVU1173
 5004 0054 1E4B     		ldr	r3, .L362+16
 5005 0056 1B78     		ldrb	r3, [r3]	@ zero_extendqisi2
 983:App/Src/command.c ****             g_UsbATStatus = 1;
 5006              		.loc 1 983 52 discriminator 1 view .LVU1174
 5007 0058 202B     		cmp	r3, #32
 5008 005a 02D1     		bne	.L353
 5009              	.L352:
 984:App/Src/command.c ****         } 
 5010              		.loc 1 984 13 is_stmt 1 view .LVU1175
ARM GAS  C:\Users\86158\AppData\Local\Temp\cc13CoIU.s 			page 127


 984:App/Src/command.c ****         } 
 5011              		.loc 1 984 27 is_stmt 0 view .LVU1176
 5012 005c 1D4B     		ldr	r3, .L362+20
 5013 005e 0122     		movs	r2, #1
 5014 0060 1A70     		strb	r2, [r3]
 5015              	.L353:
 986:App/Src/command.c ****     }
 5016              		.loc 1 986 9 is_stmt 1 view .LVU1177
 5017 0062 0122     		movs	r2, #1
 5018 0064 1A49     		ldr	r1, .L362+16
 5019 0066 1D48     		ldr	r0, .L362+28
 5020              	.LVL518:
 986:App/Src/command.c ****     }
 5021              		.loc 1 986 9 is_stmt 0 view .LVU1178
 5022 0068 FFF7FEFF 		bl	HAL_UART_Receive_IT
 5023              	.LVL519:
 5024 006c CEE7     		b	.L347
 5025              	.LVL520:
 5026              	.L349:
 976:App/Src/command.c ****             return;
 5027              		.loc 1 976 13 is_stmt 1 view .LVU1179
 5028 006e 0122     		movs	r2, #1
 5029 0070 1749     		ldr	r1, .L362+16
 5030 0072 1A48     		ldr	r0, .L362+28
 5031              	.LVL521:
 976:App/Src/command.c ****             return;
 5032              		.loc 1 976 13 is_stmt 0 view .LVU1180
 5033 0074 FFF7FEFF 		bl	HAL_UART_Receive_IT
 5034              	.LVL522:
 977:App/Src/command.c ****         }
 5035              		.loc 1 977 13 is_stmt 1 view .LVU1181
 5036 0078 D0E7     		b	.L346
 5037              	.L360:
 990:App/Src/command.c ****             g_DeviceRxBuff[device_Rx_Cnt] = deviceRxBuf;
 5038              		.loc 1 990 9 view .LVU1182
 990:App/Src/command.c ****             g_DeviceRxBuff[device_Rx_Cnt] = deviceRxBuf;
 5039              		.loc 1 990 27 is_stmt 0 view .LVU1183
 5040 007a 194B     		ldr	r3, .L362+32
 5041 007c 1B88     		ldrh	r3, [r3]
 990:App/Src/command.c ****             g_DeviceRxBuff[device_Rx_Cnt] = deviceRxBuf;
 5042              		.loc 1 990 12 view .LVU1184
 5043 007e C72B     		cmp	r3, #199
 5044 0080 09D8     		bhi	.L355
 990:App/Src/command.c ****             g_DeviceRxBuff[device_Rx_Cnt] = deviceRxBuf;
 5045              		.loc 1 990 74 discriminator 1 view .LVU1185
 5046 0082 184A     		ldr	r2, .L362+36
 5047 0084 1278     		ldrb	r2, [r2]	@ zero_extendqisi2
 990:App/Src/command.c ****             g_DeviceRxBuff[device_Rx_Cnt] = deviceRxBuf;
 5048              		.loc 1 990 54 discriminator 1 view .LVU1186
 5049 0086 32B9     		cbnz	r2, .L355
 991:App/Src/command.c ****         	device_Rx_Cnt++;
 5050              		.loc 1 991 13 is_stmt 1 view .LVU1187
 991:App/Src/command.c ****         	device_Rx_Cnt++;
 5051              		.loc 1 991 43 is_stmt 0 view .LVU1188
 5052 0088 174A     		ldr	r2, .L362+40
 5053 008a 1178     		ldrb	r1, [r2]	@ zero_extendqisi2
 5054 008c 174A     		ldr	r2, .L362+44
ARM GAS  C:\Users\86158\AppData\Local\Temp\cc13CoIU.s 			page 128


 5055 008e D154     		strb	r1, [r2, r3]
 992:App/Src/command.c ****         }
 5056              		.loc 1 992 10 is_stmt 1 view .LVU1189
 992:App/Src/command.c ****         }
 5057              		.loc 1 992 23 is_stmt 0 view .LVU1190
 5058 0090 0133     		adds	r3, r3, #1
 5059 0092 134A     		ldr	r2, .L362+32
 5060 0094 1380     		strh	r3, [r2]	@ movhi
 5061              	.L355:
 994:App/Src/command.c ****             g_DeviceATStatus = 1;
 5062              		.loc 1 994 9 is_stmt 1 view .LVU1191
 994:App/Src/command.c ****             g_DeviceATStatus = 1;
 5063              		.loc 1 994 27 is_stmt 0 view .LVU1192
 5064 0096 124B     		ldr	r3, .L362+32
 5065 0098 1B88     		ldrh	r3, [r3]
 994:App/Src/command.c ****             g_DeviceATStatus = 1;
 5066              		.loc 1 994 12 view .LVU1193
 5067 009a C72B     		cmp	r3, #199
 5068 009c 03D8     		bhi	.L356
 994:App/Src/command.c ****             g_DeviceATStatus = 1;
 5069              		.loc 1 994 70 discriminator 1 view .LVU1194
 5070 009e 124B     		ldr	r3, .L362+40
 5071 00a0 1B78     		ldrb	r3, [r3]	@ zero_extendqisi2
 994:App/Src/command.c ****             g_DeviceATStatus = 1;
 5072              		.loc 1 994 55 discriminator 1 view .LVU1195
 5073 00a2 0A2B     		cmp	r3, #10
 5074 00a4 02D1     		bne	.L357
 5075              	.L356:
 995:App/Src/command.c ****         }
 5076              		.loc 1 995 13 is_stmt 1 view .LVU1196
 995:App/Src/command.c ****         }
 5077              		.loc 1 995 30 is_stmt 0 view .LVU1197
 5078 00a6 0F4B     		ldr	r3, .L362+36
 5079 00a8 0122     		movs	r2, #1
 5080 00aa 1A70     		strb	r2, [r3]
 5081              	.L357:
 997:App/Src/command.c **** 	}
 5082              		.loc 1 997 9 is_stmt 1 view .LVU1198
 5083 00ac 0122     		movs	r2, #1
 5084 00ae 0E49     		ldr	r1, .L362+40
 5085 00b0 0F48     		ldr	r0, .L362+48
 5086 00b2 FFF7FEFF 		bl	HAL_UART_Receive_IT
 5087              	.LVL523:
 5088 00b6 ADE7     		b	.L354
 5089              	.L361:
1001:App/Src/command.c **** 	}
 5090              		.loc 1 1001 3 view .LVU1199
 5091 00b8 FFF7FEFF 		bl	control_usart_receive
 5092              	.LVL524:
 5093 00bc AEE7     		b	.L346
 5094              	.L363:
 5095 00be 00BF     		.align	2
 5096              	.L362:
 5097 00c0 00100140 		.word	1073811456
 5098 00c4 00440040 		.word	1073759232
 5099 00c8 00480040 		.word	1073760256
 5100 00cc 00000000 		.word	.LANCHOR11
ARM GAS  C:\Users\86158\AppData\Local\Temp\cc13CoIU.s 			page 129


 5101 00d0 00000000 		.word	.LANCHOR5
 5102 00d4 00000000 		.word	.LANCHOR12
 5103 00d8 00000000 		.word	.LANCHOR6
 5104 00dc 00000000 		.word	huart1
 5105 00e0 00000000 		.word	.LANCHOR10
 5106 00e4 00000000 		.word	.LANCHOR13
 5107 00e8 00000000 		.word	.LANCHOR7
 5108 00ec 00000000 		.word	.LANCHOR8
 5109 00f0 00000000 		.word	huart2
 5110              		.cfi_endproc
 5111              	.LFE278:
 5113              		.section	.rodata.CheckCommandList.str1.4,"aMS",%progbits,1
 5114              		.align	2
 5115              	.LC73:
 5116 0000 0A6E6F20 		.ascii	"\012no this commmand!\012\000"
 5116      74686973 
 5116      20636F6D 
 5116      6D6D616E 
 5116      64210A00 
 5117              		.section	.text.CheckCommandList,"ax",%progbits
 5118              		.align	1
 5119              		.global	CheckCommandList
 5120              		.syntax unified
 5121              		.thumb
 5122              		.thumb_func
 5124              	CheckCommandList:
 5125              	.LFB279:
1004:App/Src/command.c **** 
1005:App/Src/command.c **** void CheckCommandList(void)
1006:App/Src/command.c **** {
 5126              		.loc 1 1006 1 view -0
 5127              		.cfi_startproc
 5128              		@ args = 0, pretend = 0, frame = 0
 5129              		@ frame_needed = 0, uses_anonymous_args = 0
 5130 0000 38B5     		push	{r3, r4, r5, lr}
 5131              	.LCFI107:
 5132              		.cfi_def_cfa_offset 16
 5133              		.cfi_offset 3, -16
 5134              		.cfi_offset 4, -12
 5135              		.cfi_offset 5, -8
 5136              		.cfi_offset 14, -4
1007:App/Src/command.c ****     uint8_t i;
 5137              		.loc 1 1007 5 view .LVU1201
1008:App/Src/command.c ****     static uint16_t usbTick = 0;
 5138              		.loc 1 1008 5 view .LVU1202
1009:App/Src/command.c ****     static uint16_t lastUsbRx = 0;
 5139              		.loc 1 1009 5 view .LVU1203
1010:App/Src/command.c ****     if (g_UsbATStatus == 0 && usb_Rx_Cnt == 0) {
 5140              		.loc 1 1010 5 view .LVU1204
 5141              		.loc 1 1010 23 is_stmt 0 view .LVU1205
 5142 0002 284B     		ldr	r3, .L380
 5143 0004 1B78     		ldrb	r3, [r3]	@ zero_extendqisi2
 5144              		.loc 1 1010 8 view .LVU1206
 5145 0006 13B9     		cbnz	r3, .L365
 5146              		.loc 1 1010 42 discriminator 1 view .LVU1207
 5147 0008 274A     		ldr	r2, .L380+4
 5148 000a 1288     		ldrh	r2, [r2]
ARM GAS  C:\Users\86158\AppData\Local\Temp\cc13CoIU.s 			page 130


 5149              		.loc 1 1010 28 discriminator 1 view .LVU1208
 5150 000c 92B1     		cbz	r2, .L378
 5151              	.L365:
1011:App/Src/command.c ****         usbTick = 0;
1012:App/Src/command.c ****         lastUsbRx = 0;
1013:App/Src/command.c ****         return;
1014:App/Src/command.c ****     }
1015:App/Src/command.c ****     if (usb_Rx_Cnt > lastUsbRx) {
 5152              		.loc 1 1015 5 is_stmt 1 view .LVU1209
 5153              		.loc 1 1015 20 is_stmt 0 view .LVU1210
 5154 000e 264A     		ldr	r2, .L380+4
 5155 0010 1288     		ldrh	r2, [r2]
 5156 0012 2649     		ldr	r1, .L380+8
 5157 0014 0988     		ldrh	r1, [r1]
 5158              		.loc 1 1015 8 view .LVU1211
 5159 0016 8A42     		cmp	r2, r1
 5160 0018 11D9     		bls	.L367
1016:App/Src/command.c ****         lastUsbRx = usb_Rx_Cnt;
 5161              		.loc 1 1016 9 is_stmt 1 view .LVU1212
 5162              		.loc 1 1016 19 is_stmt 0 view .LVU1213
 5163 001a 2449     		ldr	r1, .L380+8
 5164 001c 0A80     		strh	r2, [r1]	@ movhi
1017:App/Src/command.c ****         usbTick = 0;
 5165              		.loc 1 1017 9 is_stmt 1 view .LVU1214
 5166              		.loc 1 1017 17 is_stmt 0 view .LVU1215
 5167 001e 244A     		ldr	r2, .L380+12
 5168 0020 0021     		movs	r1, #0
 5169 0022 1180     		strh	r1, [r2]	@ movhi
 5170              	.L368:
1018:App/Src/command.c ****     } else {
1019:App/Src/command.c ****         usbTick++;
1020:App/Src/command.c ****     }
1021:App/Src/command.c ****     if (usbTick >= USB_UART_TICK_CLEAR || g_UsbATStatus == 1) {
 5171              		.loc 1 1021 5 is_stmt 1 view .LVU1216
 5172              		.loc 1 1021 17 is_stmt 0 view .LVU1217
 5173 0024 224A     		ldr	r2, .L380+12
 5174 0026 1288     		ldrh	r2, [r2]
 5175              		.loc 1 1021 8 view .LVU1218
 5176 0028 092A     		cmp	r2, #9
 5177 002a 35D8     		bhi	.L375
 5178              		.loc 1 1021 40 discriminator 1 view .LVU1219
 5179 002c 012B     		cmp	r3, #1
 5180 002e 32D1     		bne	.L364
 5181 0030 0024     		movs	r4, #0
 5182 0032 0BE0     		b	.L372
 5183              	.L378:
1011:App/Src/command.c ****         lastUsbRx = 0;
 5184              		.loc 1 1011 9 is_stmt 1 view .LVU1220
1011:App/Src/command.c ****         lastUsbRx = 0;
 5185              		.loc 1 1011 17 is_stmt 0 view .LVU1221
 5186 0034 1E4A     		ldr	r2, .L380+12
 5187 0036 1380     		strh	r3, [r2]	@ movhi
1012:App/Src/command.c ****         return;
 5188              		.loc 1 1012 9 is_stmt 1 view .LVU1222
1012:App/Src/command.c ****         return;
 5189              		.loc 1 1012 19 is_stmt 0 view .LVU1223
 5190 0038 1C4A     		ldr	r2, .L380+8
ARM GAS  C:\Users\86158\AppData\Local\Temp\cc13CoIU.s 			page 131


 5191 003a 1380     		strh	r3, [r2]	@ movhi
1013:App/Src/command.c ****     }
 5192              		.loc 1 1013 9 is_stmt 1 view .LVU1224
 5193 003c 2BE0     		b	.L364
 5194              	.L367:
1019:App/Src/command.c ****     }
 5195              		.loc 1 1019 9 view .LVU1225
1019:App/Src/command.c ****     }
 5196              		.loc 1 1019 16 is_stmt 0 view .LVU1226
 5197 003e 1C49     		ldr	r1, .L380+12
 5198 0040 0A88     		ldrh	r2, [r1]
 5199 0042 0132     		adds	r2, r2, #1
 5200 0044 0A80     		strh	r2, [r1]	@ movhi
 5201 0046 EDE7     		b	.L368
 5202              	.LVL525:
 5203              	.L370:
1022:App/Src/command.c ****         for (i = 0; i < MAX_COMMAND_NUMBER; i++) {
 5204              		.loc 1 1022 45 is_stmt 1 discriminator 2 view .LVU1227
 5205              		.loc 1 1022 46 is_stmt 0 discriminator 2 view .LVU1228
 5206 0048 0134     		adds	r4, r4, #1
 5207              	.LVL526:
 5208              		.loc 1 1022 46 discriminator 2 view .LVU1229
 5209 004a E4B2     		uxtb	r4, r4
 5210              	.LVL527:
 5211              	.L372:
 5212              		.loc 1 1022 21 is_stmt 1 discriminator 1 view .LVU1230
 5213              		.loc 1 1022 9 is_stmt 0 discriminator 1 view .LVU1231
 5214 004c 272C     		cmp	r4, #39
 5215 004e 12D8     		bhi	.L371
1023:App/Src/command.c ****             if (strlen(CommandList[i]) > 0 && strSearch((char*)g_UsbRxBuff, CommandList[i]) == 0) {
 5216              		.loc 1 1023 13 is_stmt 1 view .LVU1232
 5217              		.loc 1 1023 35 is_stmt 0 view .LVU1233
 5218 0050 184B     		ldr	r3, .L380+16
 5219 0052 04EB8402 		add	r2, r4, r4, lsl #2
 5220 0056 03EB8201 		add	r1, r3, r2, lsl #2
 5221              		.loc 1 1023 40 view .LVU1234
 5222 005a 13F82230 		ldrb	r3, [r3, r2, lsl #2]	@ zero_extendqisi2
 5223              		.loc 1 1023 16 view .LVU1235
 5224 005e 002B     		cmp	r3, #0
 5225 0060 F2D0     		beq	.L370
 5226              		.loc 1 1023 47 discriminator 1 view .LVU1236
 5227 0062 1548     		ldr	r0, .L380+20
 5228 0064 FFF7FEFF 		bl	strSearch
 5229              	.LVL528:
 5230              		.loc 1 1023 44 discriminator 1 view .LVU1237
 5231 0068 0028     		cmp	r0, #0
 5232 006a EDD1     		bne	.L370
1024:App/Src/command.c ****                 UsbCommand[i]((char*)g_UsbRxBuff);
 5233              		.loc 1 1024 17 is_stmt 1 view .LVU1238
 5234              		.loc 1 1024 27 is_stmt 0 view .LVU1239
 5235 006c 134B     		ldr	r3, .L380+24
 5236 006e 53F82430 		ldr	r3, [r3, r4, lsl #2]
 5237              		.loc 1 1024 17 view .LVU1240
 5238 0072 1148     		ldr	r0, .L380+20
 5239 0074 9847     		blx	r3
 5240              	.LVL529:
1025:App/Src/command.c ****                 break;
ARM GAS  C:\Users\86158\AppData\Local\Temp\cc13CoIU.s 			page 132


 5241              		.loc 1 1025 17 is_stmt 1 view .LVU1241
 5242              	.L371:
1026:App/Src/command.c ****             }
1027:App/Src/command.c ****         }				
1028:App/Src/command.c ****         if (i == MAX_COMMAND_NUMBER) {
 5243              		.loc 1 1028 9 view .LVU1242
 5244              		.loc 1 1028 12 is_stmt 0 view .LVU1243
 5245 0076 282C     		cmp	r4, #40
 5246 0078 10D0     		beq	.L379
 5247              	.L374:
1029:App/Src/command.c ****             UsbPrintf("\nno this commmand!\n");
1030:App/Src/command.c ****         }
1031:App/Src/command.c ****         memset(g_UsbRxBuff, 0, UART_RECEIVE_BUFF_NUMBER);
 5248              		.loc 1 1031 9 is_stmt 1 view .LVU1244
 5249 007a C822     		movs	r2, #200
 5250 007c 0021     		movs	r1, #0
 5251 007e 0E48     		ldr	r0, .L380+20
 5252 0080 FFF7FEFF 		bl	memset
 5253              	.LVL530:
1032:App/Src/command.c ****         usb_Rx_Cnt = 0;
 5254              		.loc 1 1032 9 view .LVU1245
 5255              		.loc 1 1032 20 is_stmt 0 view .LVU1246
 5256 0084 0023     		movs	r3, #0
 5257 0086 084A     		ldr	r2, .L380+4
 5258 0088 1380     		strh	r3, [r2]	@ movhi
1033:App/Src/command.c ****         g_UsbATStatus = 0;
 5259              		.loc 1 1033 9 is_stmt 1 view .LVU1247
 5260              		.loc 1 1033 23 is_stmt 0 view .LVU1248
 5261 008a 064A     		ldr	r2, .L380
 5262 008c 1370     		strb	r3, [r2]
1034:App/Src/command.c ****         usbTick = 0;
 5263              		.loc 1 1034 9 is_stmt 1 view .LVU1249
 5264              		.loc 1 1034 17 is_stmt 0 view .LVU1250
 5265 008e 084A     		ldr	r2, .L380+12
 5266 0090 1380     		strh	r3, [r2]	@ movhi
1035:App/Src/command.c ****         lastUsbRx = 0;
 5267              		.loc 1 1035 9 is_stmt 1 view .LVU1251
 5268              		.loc 1 1035 19 is_stmt 0 view .LVU1252
 5269 0092 064A     		ldr	r2, .L380+8
 5270 0094 1380     		strh	r3, [r2]	@ movhi
 5271              	.LVL531:
 5272              	.L364:
1036:App/Src/command.c ****     }
1037:App/Src/command.c **** }
 5273              		.loc 1 1037 1 view .LVU1253
 5274 0096 38BD     		pop	{r3, r4, r5, pc}
 5275              	.L375:
 5276 0098 0024     		movs	r4, #0
 5277 009a D7E7     		b	.L372
 5278              	.LVL532:
 5279              	.L379:
1029:App/Src/command.c ****         }
 5280              		.loc 1 1029 13 is_stmt 1 view .LVU1254
 5281 009c 0848     		ldr	r0, .L380+28
 5282 009e FFF7FEFF 		bl	UsbPrintf
 5283              	.LVL533:
 5284 00a2 EAE7     		b	.L374
ARM GAS  C:\Users\86158\AppData\Local\Temp\cc13CoIU.s 			page 133


 5285              	.L381:
 5286              		.align	2
 5287              	.L380:
 5288 00a4 00000000 		.word	.LANCHOR12
 5289 00a8 00000000 		.word	.LANCHOR11
 5290 00ac 00000000 		.word	.LANCHOR15
 5291 00b0 00000000 		.word	.LANCHOR14
 5292 00b4 00000000 		.word	.LANCHOR1
 5293 00b8 00000000 		.word	.LANCHOR6
 5294 00bc 00000000 		.word	.LANCHOR16
 5295 00c0 00000000 		.word	.LC73
 5296              		.cfi_endproc
 5297              	.LFE279:
 5299              		.section	.text.DeviceMassage,"ax",%progbits
 5300              		.align	1
 5301              		.global	DeviceMassage
 5302              		.syntax unified
 5303              		.thumb
 5304              		.thumb_func
 5306              	DeviceMassage:
 5307              	.LFB280:
1038:App/Src/command.c **** 
1039:App/Src/command.c **** void DeviceMassage(void)
1040:App/Src/command.c **** {
 5308              		.loc 1 1040 1 view -0
 5309              		.cfi_startproc
 5310              		@ args = 0, pretend = 0, frame = 8
 5311              		@ frame_needed = 0, uses_anonymous_args = 0
 5312 0000 10B5     		push	{r4, lr}
 5313              	.LCFI108:
 5314              		.cfi_def_cfa_offset 8
 5315              		.cfi_offset 4, -8
 5316              		.cfi_offset 14, -4
 5317 0002 82B0     		sub	sp, sp, #8
 5318              	.LCFI109:
 5319              		.cfi_def_cfa_offset 16
1041:App/Src/command.c **** 	float frequency = 0;
 5320              		.loc 1 1041 2 view .LVU1256
 5321              		.loc 1 1041 8 is_stmt 0 view .LVU1257
 5322 0004 0023     		movs	r3, #0
 5323 0006 0193     		str	r3, [sp, #4]	@ float
1042:App/Src/command.c ****     static uint16_t deviceTick = 0;
 5324              		.loc 1 1042 5 is_stmt 1 view .LVU1258
1043:App/Src/command.c ****     static uint16_t lastDeviceRx = 0;
 5325              		.loc 1 1043 5 view .LVU1259
1044:App/Src/command.c ****     if (g_DeviceATStatus == 0 && device_Rx_Cnt == 0) {
 5326              		.loc 1 1044 5 view .LVU1260
 5327              		.loc 1 1044 26 is_stmt 0 view .LVU1261
 5328 0008 1D4B     		ldr	r3, .L393
 5329 000a 1B78     		ldrb	r3, [r3]	@ zero_extendqisi2
 5330              		.loc 1 1044 8 view .LVU1262
 5331 000c 13B9     		cbnz	r3, .L383
 5332              		.loc 1 1044 48 discriminator 1 view .LVU1263
 5333 000e 1D4A     		ldr	r2, .L393+4
 5334 0010 1288     		ldrh	r2, [r2]
 5335              		.loc 1 1044 31 discriminator 1 view .LVU1264
 5336 0012 22B3     		cbz	r2, .L391
ARM GAS  C:\Users\86158\AppData\Local\Temp\cc13CoIU.s 			page 134


 5337              	.L383:
1045:App/Src/command.c ****         deviceTick = 0;
1046:App/Src/command.c ****         lastDeviceRx = 0;
1047:App/Src/command.c ****         return;
1048:App/Src/command.c ****     }
1049:App/Src/command.c ****     if (device_Rx_Cnt > lastDeviceRx) {
 5338              		.loc 1 1049 5 is_stmt 1 view .LVU1265
 5339              		.loc 1 1049 23 is_stmt 0 view .LVU1266
 5340 0014 1B4A     		ldr	r2, .L393+4
 5341 0016 1288     		ldrh	r2, [r2]
 5342 0018 1B49     		ldr	r1, .L393+8
 5343 001a 0988     		ldrh	r1, [r1]
 5344              		.loc 1 1049 8 view .LVU1267
 5345 001c 8A42     		cmp	r2, r1
 5346 001e 23D9     		bls	.L385
1050:App/Src/command.c ****         lastDeviceRx = device_Rx_Cnt;
 5347              		.loc 1 1050 9 is_stmt 1 view .LVU1268
 5348              		.loc 1 1050 22 is_stmt 0 view .LVU1269
 5349 0020 1949     		ldr	r1, .L393+8
 5350 0022 0A80     		strh	r2, [r1]	@ movhi
1051:App/Src/command.c ****         deviceTick = 0;
 5351              		.loc 1 1051 9 is_stmt 1 view .LVU1270
 5352              		.loc 1 1051 20 is_stmt 0 view .LVU1271
 5353 0024 194A     		ldr	r2, .L393+12
 5354 0026 0021     		movs	r1, #0
 5355 0028 1180     		strh	r1, [r2]	@ movhi
 5356              	.L386:
1052:App/Src/command.c ****     } else {
1053:App/Src/command.c ****         deviceTick++;
1054:App/Src/command.c ****     }
1055:App/Src/command.c ****     if (deviceTick >= USB_UART_TICK_CLEAR || g_DeviceATStatus == 1) {
 5357              		.loc 1 1055 5 is_stmt 1 view .LVU1272
 5358              		.loc 1 1055 20 is_stmt 0 view .LVU1273
 5359 002a 184A     		ldr	r2, .L393+12
 5360 002c 1288     		ldrh	r2, [r2]
 5361              		.loc 1 1055 8 view .LVU1274
 5362 002e 092A     		cmp	r2, #9
 5363 0030 01D8     		bhi	.L387
 5364              		.loc 1 1055 43 discriminator 1 view .LVU1275
 5365 0032 012B     		cmp	r3, #1
 5366 0034 11D1     		bne	.L382
 5367              	.L387:
1056:App/Src/command.c **** 		if (CheckFreqValue(&frequency) > 0) {//表示是以KHz字符结尾的数据，判断为有效数据
 5368              		.loc 1 1056 3 is_stmt 1 view .LVU1276
 5369              		.loc 1 1056 7 is_stmt 0 view .LVU1277
 5370 0036 01A8     		add	r0, sp, #4
 5371 0038 FFF7FEFF 		bl	CheckFreqValue
 5372              	.LVL534:
 5373              		.loc 1 1056 6 view .LVU1278
 5374 003c C8B9     		cbnz	r0, .L392
 5375              	.L389:
1057:App/Src/command.c **** 			g_lastFreq.freq = frequency;
1058:App/Src/command.c **** 			g_lastFreq.recordTime = HAL_GetTick();//记录收到数据的时刻
1059:App/Src/command.c **** 		} 
1060:App/Src/command.c ****         memset(g_DeviceRxBuff, 0, UART_RECEIVE_BUFF_NUMBER);
 5376              		.loc 1 1060 9 is_stmt 1 view .LVU1279
 5377 003e C822     		movs	r2, #200
ARM GAS  C:\Users\86158\AppData\Local\Temp\cc13CoIU.s 			page 135


 5378 0040 0021     		movs	r1, #0
 5379 0042 1348     		ldr	r0, .L393+16
 5380 0044 FFF7FEFF 		bl	memset
 5381              	.LVL535:
1061:App/Src/command.c ****         device_Rx_Cnt = 0;
 5382              		.loc 1 1061 9 view .LVU1280
 5383              		.loc 1 1061 23 is_stmt 0 view .LVU1281
 5384 0048 0023     		movs	r3, #0
 5385 004a 0E4A     		ldr	r2, .L393+4
 5386 004c 1380     		strh	r3, [r2]	@ movhi
1062:App/Src/command.c ****         g_DeviceATStatus = 0;
 5387              		.loc 1 1062 9 is_stmt 1 view .LVU1282
 5388              		.loc 1 1062 26 is_stmt 0 view .LVU1283
 5389 004e 0C4A     		ldr	r2, .L393
 5390 0050 1370     		strb	r3, [r2]
1063:App/Src/command.c ****         deviceTick = 0;
 5391              		.loc 1 1063 9 is_stmt 1 view .LVU1284
 5392              		.loc 1 1063 20 is_stmt 0 view .LVU1285
 5393 0052 0E4A     		ldr	r2, .L393+12
 5394 0054 1380     		strh	r3, [r2]	@ movhi
1064:App/Src/command.c ****         lastDeviceRx = 0;
 5395              		.loc 1 1064 9 is_stmt 1 view .LVU1286
 5396              		.loc 1 1064 22 is_stmt 0 view .LVU1287
 5397 0056 0C4A     		ldr	r2, .L393+8
 5398 0058 1380     		strh	r3, [r2]	@ movhi
 5399              	.L382:
1065:App/Src/command.c **** 	}
1066:App/Src/command.c **** }
 5400              		.loc 1 1066 1 view .LVU1288
 5401 005a 02B0     		add	sp, sp, #8
 5402              	.LCFI110:
 5403              		.cfi_remember_state
 5404              		.cfi_def_cfa_offset 8
 5405              		@ sp needed
 5406 005c 10BD     		pop	{r4, pc}
 5407              	.L391:
 5408              	.LCFI111:
 5409              		.cfi_restore_state
1045:App/Src/command.c ****         lastDeviceRx = 0;
 5410              		.loc 1 1045 9 is_stmt 1 view .LVU1289
1045:App/Src/command.c ****         lastDeviceRx = 0;
 5411              		.loc 1 1045 20 is_stmt 0 view .LVU1290
 5412 005e 0B4A     		ldr	r2, .L393+12
 5413 0060 1380     		strh	r3, [r2]	@ movhi
1046:App/Src/command.c ****         return;
 5414              		.loc 1 1046 9 is_stmt 1 view .LVU1291
1046:App/Src/command.c ****         return;
 5415              		.loc 1 1046 22 is_stmt 0 view .LVU1292
 5416 0062 094A     		ldr	r2, .L393+8
 5417 0064 1380     		strh	r3, [r2]	@ movhi
1047:App/Src/command.c ****     }
 5418              		.loc 1 1047 9 is_stmt 1 view .LVU1293
 5419 0066 F8E7     		b	.L382
 5420              	.L385:
1053:App/Src/command.c ****     }
 5421              		.loc 1 1053 9 view .LVU1294
1053:App/Src/command.c ****     }
ARM GAS  C:\Users\86158\AppData\Local\Temp\cc13CoIU.s 			page 136


 5422              		.loc 1 1053 19 is_stmt 0 view .LVU1295
 5423 0068 0849     		ldr	r1, .L393+12
 5424 006a 0A88     		ldrh	r2, [r1]
 5425 006c 0132     		adds	r2, r2, #1
 5426 006e 0A80     		strh	r2, [r1]	@ movhi
 5427 0070 DBE7     		b	.L386
 5428              	.L392:
1057:App/Src/command.c **** 			g_lastFreq.recordTime = HAL_GetTick();//记录收到数据的时刻
 5429              		.loc 1 1057 4 is_stmt 1 view .LVU1296
1057:App/Src/command.c **** 			g_lastFreq.recordTime = HAL_GetTick();//记录收到数据的时刻
 5430              		.loc 1 1057 20 is_stmt 0 view .LVU1297
 5431 0072 084C     		ldr	r4, .L393+20
 5432 0074 019B     		ldr	r3, [sp, #4]	@ float
 5433 0076 6360     		str	r3, [r4, #4]	@ float
1058:App/Src/command.c **** 		} 
 5434              		.loc 1 1058 4 is_stmt 1 view .LVU1298
1058:App/Src/command.c **** 		} 
 5435              		.loc 1 1058 28 is_stmt 0 view .LVU1299
 5436 0078 FFF7FEFF 		bl	HAL_GetTick
 5437              	.LVL536:
1058:App/Src/command.c **** 		} 
 5438              		.loc 1 1058 26 view .LVU1300
 5439 007c 2060     		str	r0, [r4]
 5440 007e DEE7     		b	.L389
 5441              	.L394:
 5442              		.align	2
 5443              	.L393:
 5444 0080 00000000 		.word	.LANCHOR13
 5445 0084 00000000 		.word	.LANCHOR10
 5446 0088 00000000 		.word	.LANCHOR18
 5447 008c 00000000 		.word	.LANCHOR17
 5448 0090 00000000 		.word	.LANCHOR8
 5449 0094 00000000 		.word	g_lastFreq
 5450              		.cfi_endproc
 5451              	.LFE280:
 5453              		.global	UsbCommand
 5454              		.global	g_rtcChanenel
 5455              		.global	g_DeviceATStatus
 5456              		.global	g_DeviceTxBuff
 5457              		.global	g_DeviceRxBuff
 5458              		.global	deviceRxBuf
 5459              		.global	device_Rx_Cnt
 5460              		.global	g_UsbATStatus
 5461              		.global	g_UsbTxBuff
 5462              		.global	g_UsbRxBuff
 5463              		.section	.bss.deviceRxBuf,"aw",%nobits
 5464              		.set	.LANCHOR7,. + 0
 5467              	deviceRxBuf:
 5468 0000 00       		.space	1
 5469              		.section	.bss.deviceTick.1,"aw",%nobits
 5470              		.align	1
 5471              		.set	.LANCHOR17,. + 0
 5474              	deviceTick.1:
 5475 0000 0000     		.space	2
 5476              		.section	.bss.device_Rx_Cnt,"aw",%nobits
 5477              		.align	1
 5478              		.set	.LANCHOR10,. + 0
ARM GAS  C:\Users\86158\AppData\Local\Temp\cc13CoIU.s 			page 137


 5481              	device_Rx_Cnt:
 5482 0000 0000     		.space	2
 5483              		.section	.bss.g_DeviceATStatus,"aw",%nobits
 5484              		.set	.LANCHOR13,. + 0
 5487              	g_DeviceATStatus:
 5488 0000 00       		.space	1
 5489              		.section	.bss.g_DeviceRxBuff,"aw",%nobits
 5490              		.align	2
 5491              		.set	.LANCHOR8,. + 0
 5494              	g_DeviceRxBuff:
 5495 0000 00000000 		.space	200
 5495      00000000 
 5495      00000000 
 5495      00000000 
 5495      00000000 
 5496              		.section	.bss.g_DeviceTxBuff,"aw",%nobits
 5497              		.align	2
 5498              		.set	.LANCHOR4,. + 0
 5501              	g_DeviceTxBuff:
 5502 0000 00000000 		.space	300
 5502      00000000 
 5502      00000000 
 5502      00000000 
 5502      00000000 
 5503              		.section	.bss.g_UsbATStatus,"aw",%nobits
 5504              		.set	.LANCHOR12,. + 0
 5507              	g_UsbATStatus:
 5508 0000 00       		.space	1
 5509              		.section	.bss.g_UsbRxBuff,"aw",%nobits
 5510              		.align	2
 5511              		.set	.LANCHOR6,. + 0
 5514              	g_UsbRxBuff:
 5515 0000 00000000 		.space	200
 5515      00000000 
 5515      00000000 
 5515      00000000 
 5515      00000000 
 5516              		.section	.bss.g_UsbTxBuff,"aw",%nobits
 5517              		.align	2
 5518              		.set	.LANCHOR0,. + 0
 5521              	g_UsbTxBuff:
 5522 0000 00000000 		.space	300
 5522      00000000 
 5522      00000000 
 5522      00000000 
 5522      00000000 
 5523              		.section	.bss.lastDeviceRx.0,"aw",%nobits
 5524              		.align	1
 5525              		.set	.LANCHOR18,. + 0
 5528              	lastDeviceRx.0:
 5529 0000 0000     		.space	2
 5530              		.section	.bss.lastUsbRx.2,"aw",%nobits
 5531              		.align	1
 5532              		.set	.LANCHOR15,. + 0
 5535              	lastUsbRx.2:
 5536 0000 0000     		.space	2
 5537              		.section	.bss.number.4,"aw",%nobits
ARM GAS  C:\Users\86158\AppData\Local\Temp\cc13CoIU.s 			page 138


 5538              		.set	.LANCHOR3,. + 0
 5541              	number.4:
 5542 0000 00       		.space	1
 5543              		.section	.bss.usbRxBuf,"aw",%nobits
 5544              		.set	.LANCHOR5,. + 0
 5547              	usbRxBuf:
 5548 0000 00       		.space	1
 5549              		.section	.bss.usbTick.3,"aw",%nobits
 5550              		.align	1
 5551              		.set	.LANCHOR14,. + 0
 5554              	usbTick.3:
 5555 0000 0000     		.space	2
 5556              		.section	.bss.usb_Rx_Cnt,"aw",%nobits
 5557              		.align	1
 5558              		.set	.LANCHOR11,. + 0
 5561              	usb_Rx_Cnt:
 5562 0000 0000     		.space	2
 5563              		.section	.data.CommandList,"aw"
 5564              		.align	2
 5565              		.set	.LANCHOR1,. + 0
 5568              	CommandList:
 5569 0000 41545E48 		.ascii	"AT^HELP\000"
 5569      454C5000 
 5570 0008 00000000 		.space	12
 5570      00000000 
 5570      00000000 
 5571 0014 41545E52 		.ascii	"AT^REALTIME?\000"
 5571      45414C54 
 5571      494D453F 
 5571      00
 5572 0021 00000000 		.space	7
 5572      000000
 5573 0028 41545E52 		.ascii	"AT^READDATA\000"
 5573      45414444 
 5573      41544100 
 5574 0034 00000000 		.space	8
 5574      00000000 
 5575 003c 41545E53 		.ascii	"AT^SETTIME\000"
 5575      45545449 
 5575      4D4500
 5576 0047 00000000 		.space	9
 5576      00000000 
 5576      00
 5577 0050 41545E52 		.ascii	"AT^RTCCURRENT?\000"
 5577      54434355 
 5577      5252454E 
 5577      543F00
 5578 005f 00000000 		.space	5
 5578      00
 5579 0064 41545E47 		.ascii	"AT^GROUPSETTEMP\000"
 5579      524F5550 
 5579      53455454 
 5579      454D5000 
 5580 0074 00000000 		.space	4
 5581 0078 41545E52 		.ascii	"AT^RTCVBAT?\000"
 5581      54435642 
 5581      41543F00 
ARM GAS  C:\Users\86158\AppData\Local\Temp\cc13CoIU.s 			page 139


 5582 0084 00000000 		.space	8
 5582      00000000 
 5583 008c 41545E52 		.ascii	"AT^RTC4096\000"
 5583      54433430 
 5583      393600
 5584 0097 00000000 		.space	9
 5584      00000000 
 5584      00
 5585 00a0 41545E52 		.ascii	"AT^RTCADJCAP\000"
 5585      54434144 
 5585      4A434150 
 5585      00
 5586 00ad 00000000 		.space	7
 5586      000000
 5587 00b4 41545E52 		.ascii	"AT^RTCMODE\000"
 5587      54434D4F 
 5587      444500
 5588 00bf 00000000 		.space	9
 5588      00000000 
 5588      00
 5589 00c8 41545E46 		.ascii	"AT^FREQTEST\000"
 5589      52455154 
 5589      45535400 
 5590 00d4 00000000 		.space	8
 5590      00000000 
 5591 00dc 41545E52 		.ascii	"AT^READGROUP\000"
 5591      45414447 
 5591      524F5550 
 5591      00
 5592 00e9 00000000 		.space	7
 5592      000000
 5593 00f0 41545E53 		.ascii	"AT^SYSTEMP?\000"
 5593      59535445 
 5593      4D503F00 
 5594 00fc 00000000 		.space	8
 5594      00000000 
 5595 0104 41545E57 		.ascii	"AT^WRITEFLASH\000"
 5595      52495445 
 5595      464C4153 
 5595      4800
 5596 0112 00000000 		.space	6
 5596      0000
 5597 0118 41545E52 		.ascii	"AT^READFLASH\000"
 5597      45414446 
 5597      4C415348 
 5597      00
 5598 0125 00000000 		.space	7
 5598      000000
 5599 012c 41545E45 		.ascii	"AT^ERASEFLASH\000"
 5599      52415345 
 5599      464C4153 
 5599      4800
 5600 013a 00000000 		.space	6
 5600      0000
 5601 0140 41545E53 		.ascii	"AT^SETCURRENT\000"
 5601      45544355 
 5601      5252454E 
ARM GAS  C:\Users\86158\AppData\Local\Temp\cc13CoIU.s 			page 140


 5601      5400
 5602 014e 00000000 		.space	6
 5602      0000
 5603 0154 41545E53 		.ascii	"AT^SYSVOLTAGE\000"
 5603      5953564F 
 5603      4C544147 
 5603      4500
 5604 0162 00000000 		.space	6
 5604      0000
 5605 0168 41545E53 		.ascii	"AT^SYSTEST\000"
 5605      59535445 
 5605      535400
 5606 0173 00000000 		.space	9
 5606      00000000 
 5606      00
 5607 017c 41545E54 		.ascii	"AT^TESTMODE?\000"
 5607      4553544D 
 5607      4F44453F 
 5607      00
 5608 0189 00000000 		.space	7
 5608      000000
 5609 0190 41545E52 		.ascii	"AT^RESULT?\000"
 5609      4553554C 
 5609      543F00
 5610 019b 00000000 		.space	9
 5610      00000000 
 5610      00
 5611 01a4 41545E57 		.ascii	"AT^WRITECONFIG\000"
 5611      52495445 
 5611      434F4E46 
 5611      494700
 5612 01b3 00000000 		.space	5
 5612      00
 5613 01b8 41545E54 		.ascii	"AT^TESTFLAG\000"
 5613      45535446 
 5613      4C414700 
 5614 01c4 00000000 		.space	8
 5614      00000000 
 5615 01cc 41545E54 		.ascii	"AT^TESTDATA\000"
 5615      45535444 
 5615      41544100 
 5616 01d8 00000000 		.space	8
 5616      00000000 
 5617 01e0 41545E41 		.ascii	"AT^ATTEST\000"
 5617      54544553 
 5617      5400
 5618 01ea 00000000 		.space	10
 5618      00000000 
 5618      0000
 5619 01f4 41545E4D 		.ascii	"AT^MACHINE\000"
 5619      41434849 
 5619      4E4500
 5620 01ff 00000000 		.space	9
 5620      00000000 
 5620      00
 5621 0208 41545E31 		.ascii	"AT^1006TMODE\000"
 5621      30303654 
ARM GAS  C:\Users\86158\AppData\Local\Temp\cc13CoIU.s 			page 141


 5621      4D4F4445 
 5621      00
 5622 0215 00000000 		.space	7
 5622      000000
 5623 021c 41545E53 		.ascii	"AT^SD3078INT\000"
 5623      44333037 
 5623      38494E54 
 5623      00
 5624 0229 00000000 		.space	7
 5624      000000
 5625 0230 41545E52 		.ascii	"AT^RTCLOAD\000"
 5625      54434C4F 
 5625      414400
 5626 023b 00000000 		.space	9
 5626      00000000 
 5626      00
 5627 0244 41545E48 		.ascii	"AT^HOTVOLTAGE\000"
 5627      4F54564F 
 5627      4C544147 
 5627      4500
 5628 0252 00000000 		.space	6
 5628      0000
 5629 0258 41545E54 		.ascii	"AT^TEMPADC\000"
 5629      454D5041 
 5629      444300
 5630 0263 00000000 		.space	9
 5630      00000000 
 5630      00
 5631 026c 41545E47 		.ascii	"AT^GETRTCID\000"
 5631      45545254 
 5631      43494400 
 5632 0278 00000000 		.space	8
 5632      00000000 
 5633 0280 41545E41 		.ascii	"AT^AECQ100\000"
 5633      45435131 
 5633      303000
 5634 028b 00000000 		.space	9
 5634      00000000 
 5634      00
 5635 0294 00000000 		.space	140
 5635      00000000 
 5635      00000000 
 5635      00000000 
 5635      00000000 
 5636              		.section	.data.UsbCommand,"aw"
 5637              		.align	2
 5638              		.set	.LANCHOR16,. + 0
 5641              	UsbCommand:
 5642 0000 00000000 		.word	AT_HELP_Handle
 5643 0004 00000000 		.word	AT_REALTIME_Handle
 5644 0008 00000000 		.word	AT_READDATA_Handle
 5645 000c 00000000 		.word	AT_SETTIME_Handle
 5646 0010 00000000 		.word	AT_RTCCURRENT_Handle
 5647 0014 00000000 		.word	AT_GROUPSETTEMP_Handle
 5648 0018 00000000 		.word	AT_RTCVBAT_Handle
 5649 001c 00000000 		.word	AT_RTC4096_Handle
 5650 0020 00000000 		.word	AT_RTCADJCAP_Handle
ARM GAS  C:\Users\86158\AppData\Local\Temp\cc13CoIU.s 			page 142


 5651 0024 00000000 		.word	AT_RTCMODE_Handle
 5652 0028 00000000 		.word	AT_FREQTEST_Handle
 5653 002c 00000000 		.word	AT_READGROUP_Handle
 5654 0030 00000000 		.word	AT_SYSTEMP_Handle
 5655 0034 00000000 		.word	AT_WRITEFLASH_Handle
 5656 0038 00000000 		.word	AT_READFLASH_Handle
 5657 003c 00000000 		.word	AT_ERASEFLASH_Handle
 5658 0040 00000000 		.word	AT_SETCURRENT_Handle
 5659 0044 00000000 		.word	AT_SYSVOLTAGE_Handle
 5660 0048 00000000 		.word	AT_SYSTEST_Handle
 5661 004c 00000000 		.word	AT_TESTMODE_Handle
 5662 0050 00000000 		.word	AT_RESULT_Handle
 5663 0054 00000000 		.word	AT_WRITECONFIG_Handle
 5664 0058 00000000 		.word	AT_TESTFLAG_Handle
 5665 005c 00000000 		.word	AT_TESTDATA_Handle
 5666 0060 00000000 		.word	AT_ATTEST_Handle
 5667 0064 00000000 		.word	AT_MACHINE_Handle
 5668 0068 00000000 		.word	AT_1006TMODE_Handle
 5669 006c 00000000 		.word	AT_SD3078INT_Handle
 5670 0070 00000000 		.word	AT_RTCLOAD_Handle
 5671 0074 00000000 		.word	AT_HOTVOLTAGE_Handle
 5672 0078 00000000 		.word	AT_TEMPADC_Handle
 5673 007c 00000000 		.word	AT_GETRTCID_Handle
 5674 0080 00000000 		.word	AT_AECQ100_Handle
 5675 0084 00000000 		.space	28
 5675      00000000 
 5675      00000000 
 5675      00000000 
 5675      00000000 
 5676              		.section	.data.g_rtcChanenel,"aw"
 5677              		.set	.LANCHOR9,. + 0
 5680              	g_rtcChanenel:
 5681 0000 01       		.byte	1
 5682              		.section	.data.state.5,"aw"
 5683              		.set	.LANCHOR2,. + 0
 5686              	state.5:
 5687 0000 01       		.byte	1
 5688              		.text
 5689              	.Letext0:
 5690              		.file 2 "e:\\stm32-gcc\\gcc-arm-none-eabi-10.3-2021.10\\arm-none-eabi\\include\\machine\\_default_
 5691              		.file 3 "e:\\stm32-gcc\\gcc-arm-none-eabi-10.3-2021.10\\arm-none-eabi\\include\\sys\\_stdint.h"
 5692              		.file 4 "Drivers/CMSIS/Device/ST/STM32F4xx/Include/stm32f407xx.h"
 5693              		.file 5 "Drivers/STM32F4xx_HAL_Driver/Inc/stm32f4xx_hal_def.h"
 5694              		.file 6 "Drivers/STM32F4xx_HAL_Driver/Inc/stm32f4xx_hal_gpio.h"
 5695              		.file 7 "Drivers/STM32F4xx_HAL_Driver/Inc/stm32f4xx_hal_dma.h"
 5696              		.file 8 "Drivers/STM32F4xx_HAL_Driver/Inc/stm32f4xx_hal_uart.h"
 5697              		.file 9 "Core/Inc/main.h"
 5698              		.file 10 "e:\\stm32-gcc\\gcc-arm-none-eabi-10.3-2021.10\\lib\\gcc\\arm-none-eabi\\10.3.1\\include\
 5699              		.file 11 "e:\\stm32-gcc\\gcc-arm-none-eabi-10.3-2021.10\\arm-none-eabi\\include\\stdio.h"
 5700              		.file 12 "Drivers/User_Driver/Inc/soft_i2c.h"
 5701              		.file 13 "Drivers/User_Driver/Inc/rtc_i2c.h"
 5702              		.file 14 "App/Inc/task.h"
 5703              		.file 15 "Device/Inc/flash.h"
 5704              		.file 16 "App/Inc/manager.h"
 5705              		.file 17 "Device/Inc/power.h"
 5706              		.file 18 "Device/Inc/drv_wave1006.h"
 5707              		.file 19 "Drivers/STM32F4xx_HAL_Driver/Inc/stm32f4xx_hal.h"
ARM GAS  C:\Users\86158\AppData\Local\Temp\cc13CoIU.s 			page 143


 5708              		.file 20 "App/Inc/command.h"
 5709              		.file 21 "e:\\stm32-gcc\\gcc-arm-none-eabi-10.3-2021.10\\arm-none-eabi\\include\\string.h"
 5710              		.file 22 "Device/Inc/rtc.h"
 5711              		.file 23 "Device/Inc/current.h"
 5712              		.file 24 "App/Inc/calculate.h"
 5713              		.file 25 "<built-in>"
 5714              		.file 26 "Device/Inc/voltage.h"
 5715              		.file 27 "App/Inc/log.h"
 5716              		.file 28 "Device/Inc/temp.h"
ARM GAS  C:\Users\86158\AppData\Local\Temp\cc13CoIU.s 			page 144


DEFINED SYMBOLS
                            *ABS*:00000000 command.c
C:\Users\86158\AppData\Local\Temp\cc13CoIU.s:20     .text.AT_TESTMODE_Handle:00000000 $t
C:\Users\86158\AppData\Local\Temp\cc13CoIU.s:26     .text.AT_TESTMODE_Handle:00000000 AT_TESTMODE_Handle
C:\Users\86158\AppData\Local\Temp\cc13CoIU.s:41     .text.AT_RESULT_Handle:00000000 $t
C:\Users\86158\AppData\Local\Temp\cc13CoIU.s:47     .text.AT_RESULT_Handle:00000000 AT_RESULT_Handle
C:\Users\86158\AppData\Local\Temp\cc13CoIU.s:61     .text.AT_WRITECONFIG_Handle:00000000 $t
C:\Users\86158\AppData\Local\Temp\cc13CoIU.s:67     .text.AT_WRITECONFIG_Handle:00000000 AT_WRITECONFIG_Handle
C:\Users\86158\AppData\Local\Temp\cc13CoIU.s:81     .text.UsbPrintf:00000000 $t
C:\Users\86158\AppData\Local\Temp\cc13CoIU.s:87     .text.UsbPrintf:00000000 UsbPrintf
C:\Users\86158\AppData\Local\Temp\cc13CoIU.s:170    .text.UsbPrintf:00000048 $d
C:\Users\86158\AppData\Local\Temp\cc13CoIU.s:176    .rodata.AT_HELP_Handle.str1.4:00000000 $d
C:\Users\86158\AppData\Local\Temp\cc13CoIU.s:183    .text.AT_HELP_Handle:00000000 $t
C:\Users\86158\AppData\Local\Temp\cc13CoIU.s:189    .text.AT_HELP_Handle:00000000 AT_HELP_Handle
C:\Users\86158\AppData\Local\Temp\cc13CoIU.s:260    .text.AT_HELP_Handle:00000034 $d
C:\Users\86158\AppData\Local\Temp\cc13CoIU.s:267    .rodata.AT_REALTIME_Handle.str1.4:00000000 $d
C:\Users\86158\AppData\Local\Temp\cc13CoIU.s:271    .text.AT_REALTIME_Handle:00000000 $t
C:\Users\86158\AppData\Local\Temp\cc13CoIU.s:277    .text.AT_REALTIME_Handle:00000000 AT_REALTIME_Handle
C:\Users\86158\AppData\Local\Temp\cc13CoIU.s:329    .text.AT_REALTIME_Handle:0000003c $d
C:\Users\86158\AppData\Local\Temp\cc13CoIU.s:335    .rodata.AT_RTCCURRENT_Handle.str1.4:00000000 $d
C:\Users\86158\AppData\Local\Temp\cc13CoIU.s:339    .text.AT_RTCCURRENT_Handle:00000000 $t
C:\Users\86158\AppData\Local\Temp\cc13CoIU.s:345    .text.AT_RTCCURRENT_Handle:00000000 AT_RTCCURRENT_Handle
C:\Users\86158\AppData\Local\Temp\cc13CoIU.s:381    .text.AT_RTCCURRENT_Handle:0000001c $d
C:\Users\86158\AppData\Local\Temp\cc13CoIU.s:386    .rodata.AT_GROUPSETTEMP_Handle.str1.4:00000000 $d
C:\Users\86158\AppData\Local\Temp\cc13CoIU.s:394    .text.AT_GROUPSETTEMP_Handle:00000000 $t
C:\Users\86158\AppData\Local\Temp\cc13CoIU.s:400    .text.AT_GROUPSETTEMP_Handle:00000000 AT_GROUPSETTEMP_Handle
C:\Users\86158\AppData\Local\Temp\cc13CoIU.s:431    .text.AT_GROUPSETTEMP_Handle:00000014 $d
C:\Users\86158\AppData\Local\Temp\cc13CoIU.s:437    .rodata.AT_RTCVBAT_Handle.str1.4:00000000 $d
C:\Users\86158\AppData\Local\Temp\cc13CoIU.s:444    .text.AT_RTCVBAT_Handle:00000000 $t
C:\Users\86158\AppData\Local\Temp\cc13CoIU.s:450    .text.AT_RTCVBAT_Handle:00000000 AT_RTCVBAT_Handle
C:\Users\86158\AppData\Local\Temp\cc13CoIU.s:500    .text.AT_RTCVBAT_Handle:00000024 $d
C:\Users\86158\AppData\Local\Temp\cc13CoIU.s:506    .rodata.AT_RTCMODE_Handle.str1.4:00000000 $d
C:\Users\86158\AppData\Local\Temp\cc13CoIU.s:516    .text.AT_RTCMODE_Handle:00000000 $t
C:\Users\86158\AppData\Local\Temp\cc13CoIU.s:522    .text.AT_RTCMODE_Handle:00000000 AT_RTCMODE_Handle
C:\Users\86158\AppData\Local\Temp\cc13CoIU.s:584    .text.AT_RTCMODE_Handle:00000040 $d
C:\Users\86158\AppData\Local\Temp\cc13CoIU.s:593    .rodata.AT_SYSTEMP_Handle.str1.4:00000000 $d
C:\Users\86158\AppData\Local\Temp\cc13CoIU.s:600    .text.AT_SYSTEMP_Handle:00000000 $t
C:\Users\86158\AppData\Local\Temp\cc13CoIU.s:606    .text.AT_SYSTEMP_Handle:00000000 AT_SYSTEMP_Handle
C:\Users\86158\AppData\Local\Temp\cc13CoIU.s:647    .text.AT_SYSTEMP_Handle:00000024 $d
C:\Users\86158\AppData\Local\Temp\cc13CoIU.s:653    .rodata.AT_WRITEFLASH_Handle.str1.4:00000000 $d
C:\Users\86158\AppData\Local\Temp\cc13CoIU.s:660    .text.AT_WRITEFLASH_Handle:00000000 $t
C:\Users\86158\AppData\Local\Temp\cc13CoIU.s:666    .text.AT_WRITEFLASH_Handle:00000000 AT_WRITEFLASH_Handle
C:\Users\86158\AppData\Local\Temp\cc13CoIU.s:702    .text.AT_WRITEFLASH_Handle:0000001c $d
C:\Users\86158\AppData\Local\Temp\cc13CoIU.s:712    .rodata.AT_SYSVOLTAGE_Handle.str1.4:00000000 $d
C:\Users\86158\AppData\Local\Temp\cc13CoIU.s:725    .text.AT_SYSVOLTAGE_Handle:00000000 $t
C:\Users\86158\AppData\Local\Temp\cc13CoIU.s:731    .text.AT_SYSVOLTAGE_Handle:00000000 AT_SYSVOLTAGE_Handle
C:\Users\86158\AppData\Local\Temp\cc13CoIU.s:874    .text.AT_SYSVOLTAGE_Handle:000000c0 $d
C:\Users\86158\AppData\Local\Temp\cc13CoIU.s:886    .rodata.AT_TESTFLAG_Handle.str1.4:00000000 $d
C:\Users\86158\AppData\Local\Temp\cc13CoIU.s:903    .text.AT_TESTFLAG_Handle:00000000 $t
C:\Users\86158\AppData\Local\Temp\cc13CoIU.s:909    .text.AT_TESTFLAG_Handle:00000000 AT_TESTFLAG_Handle
C:\Users\86158\AppData\Local\Temp\cc13CoIU.s:1086   .text.AT_TESTFLAG_Handle:000000b0 $d
C:\Users\86158\AppData\Local\Temp\cc13CoIU.s:1096   .rodata.AT_MACHINE_Handle.str1.4:00000000 $d
C:\Users\86158\AppData\Local\Temp\cc13CoIU.s:1112   .text.AT_MACHINE_Handle:00000000 $t
C:\Users\86158\AppData\Local\Temp\cc13CoIU.s:1118   .text.AT_MACHINE_Handle:00000000 AT_MACHINE_Handle
C:\Users\86158\AppData\Local\Temp\cc13CoIU.s:1316   .text.AT_MACHINE_Handle:000000fc $d
C:\Users\86158\AppData\Local\Temp\cc13CoIU.s:1328   .rodata.AT_TEMPADC_Handle.str1.4:00000000 $d
C:\Users\86158\AppData\Local\Temp\cc13CoIU.s:1332   .text.AT_TEMPADC_Handle:00000000 $t
ARM GAS  C:\Users\86158\AppData\Local\Temp\cc13CoIU.s 			page 145


C:\Users\86158\AppData\Local\Temp\cc13CoIU.s:1338   .text.AT_TEMPADC_Handle:00000000 AT_TEMPADC_Handle
C:\Users\86158\AppData\Local\Temp\cc13CoIU.s:1381   .text.AT_TEMPADC_Handle:00000024 $d
C:\Users\86158\AppData\Local\Temp\cc13CoIU.s:1386   .text.AT_AECQ100_Handle:00000000 $t
C:\Users\86158\AppData\Local\Temp\cc13CoIU.s:1392   .text.AT_AECQ100_Handle:00000000 AT_AECQ100_Handle
C:\Users\86158\AppData\Local\Temp\cc13CoIU.s:1421   .text.AT_AECQ100_Handle:00000010 $d
C:\Users\86158\AppData\Local\Temp\cc13CoIU.s:1427   .text.DevicePrintf:00000000 $t
C:\Users\86158\AppData\Local\Temp\cc13CoIU.s:1433   .text.DevicePrintf:00000000 DevicePrintf
C:\Users\86158\AppData\Local\Temp\cc13CoIU.s:1516   .text.DevicePrintf:00000048 $d
C:\Users\86158\AppData\Local\Temp\cc13CoIU.s:1522   .rodata.UsartInit.str1.4:00000000 $d
C:\Users\86158\AppData\Local\Temp\cc13CoIU.s:1532   .text.UsartInit:00000000 $t
C:\Users\86158\AppData\Local\Temp\cc13CoIU.s:1538   .text.UsartInit:00000000 UsartInit
C:\Users\86158\AppData\Local\Temp\cc13CoIU.s:1637   .text.UsartInit:00000084 $d
C:\Users\86158\AppData\Local\Temp\cc13CoIU.s:1655   .text.strSearch:00000000 $t
C:\Users\86158\AppData\Local\Temp\cc13CoIU.s:1661   .text.strSearch:00000000 strSearch
C:\Users\86158\AppData\Local\Temp\cc13CoIU.s:1763   .rodata.AT_FREQTEST_Handle.str1.4:00000000 $d
C:\Users\86158\AppData\Local\Temp\cc13CoIU.s:1776   .text.AT_FREQTEST_Handle:00000000 $t
C:\Users\86158\AppData\Local\Temp\cc13CoIU.s:1782   .text.AT_FREQTEST_Handle:00000000 AT_FREQTEST_Handle
C:\Users\86158\AppData\Local\Temp\cc13CoIU.s:1859   .text.AT_FREQTEST_Handle:00000040 $d
C:\Users\86158\AppData\Local\Temp\cc13CoIU.s:1869   .text.CharToInt:00000000 $t
C:\Users\86158\AppData\Local\Temp\cc13CoIU.s:1875   .text.CharToInt:00000000 CharToInt
C:\Users\86158\AppData\Local\Temp\cc13CoIU.s:2134   .rodata.AT_READDATA_Handle.str1.4:00000000 $d
C:\Users\86158\AppData\Local\Temp\cc13CoIU.s:2144   .text.AT_READDATA_Handle:00000000 $t
C:\Users\86158\AppData\Local\Temp\cc13CoIU.s:2150   .text.AT_READDATA_Handle:00000000 AT_READDATA_Handle
C:\Users\86158\AppData\Local\Temp\cc13CoIU.s:2249   .text.AT_READDATA_Handle:00000064 $d
C:\Users\86158\AppData\Local\Temp\cc13CoIU.s:2256   .rodata.AT_SETTIME_Handle.str1.4:00000000 $d
C:\Users\86158\AppData\Local\Temp\cc13CoIU.s:2278   .text.AT_SETTIME_Handle:00000000 $t
C:\Users\86158\AppData\Local\Temp\cc13CoIU.s:2284   .text.AT_SETTIME_Handle:00000000 AT_SETTIME_Handle
C:\Users\86158\AppData\Local\Temp\cc13CoIU.s:2586   .text.AT_SETTIME_Handle:00000174 $d
C:\Users\86158\AppData\Local\Temp\cc13CoIU.s:2598   .rodata.AT_RTC4096_Handle.str1.4:00000000 $d
C:\Users\86158\AppData\Local\Temp\cc13CoIU.s:2602   .text.AT_RTC4096_Handle:00000000 $t
C:\Users\86158\AppData\Local\Temp\cc13CoIU.s:2608   .text.AT_RTC4096_Handle:00000000 AT_RTC4096_Handle
C:\Users\86158\AppData\Local\Temp\cc13CoIU.s:2688   .text.AT_RTC4096_Handle:0000003c $d
C:\Users\86158\AppData\Local\Temp\cc13CoIU.s:2695   .rodata.AT_RTCADJCAP_Handle.str1.4:00000000 $d
C:\Users\86158\AppData\Local\Temp\cc13CoIU.s:2705   .text.AT_RTCADJCAP_Handle:00000000 $t
C:\Users\86158\AppData\Local\Temp\cc13CoIU.s:2711   .text.AT_RTCADJCAP_Handle:00000000 AT_RTCADJCAP_Handle
C:\Users\86158\AppData\Local\Temp\cc13CoIU.s:2801   .text.AT_RTCADJCAP_Handle:00000058 $d
C:\Users\86158\AppData\Local\Temp\cc13CoIU.s:2808   .rodata.AT_READGROUP_Handle.str1.4:00000000 $d
C:\Users\86158\AppData\Local\Temp\cc13CoIU.s:2815   .text.AT_READGROUP_Handle:00000000 $t
C:\Users\86158\AppData\Local\Temp\cc13CoIU.s:2821   .text.AT_READGROUP_Handle:00000000 AT_READGROUP_Handle
C:\Users\86158\AppData\Local\Temp\cc13CoIU.s:2968   .text.AT_READGROUP_Handle:00000098 $d
C:\Users\86158\AppData\Local\Temp\cc13CoIU.s:2977   .rodata.AT_READFLASH_Handle.str1.4:00000000 $d
C:\Users\86158\AppData\Local\Temp\cc13CoIU.s:2990   .text.AT_READFLASH_Handle:00000000 $t
C:\Users\86158\AppData\Local\Temp\cc13CoIU.s:2996   .text.AT_READFLASH_Handle:00000000 AT_READFLASH_Handle
C:\Users\86158\AppData\Local\Temp\cc13CoIU.s:3135   .text.AT_READFLASH_Handle:0000008c $d
C:\Users\86158\AppData\Local\Temp\cc13CoIU.s:3145   .rodata.AT_ERASEFLASH_Handle.str1.4:00000000 $d
C:\Users\86158\AppData\Local\Temp\cc13CoIU.s:3155   .text.AT_ERASEFLASH_Handle:00000000 $t
C:\Users\86158\AppData\Local\Temp\cc13CoIU.s:3161   .text.AT_ERASEFLASH_Handle:00000000 AT_ERASEFLASH_Handle
C:\Users\86158\AppData\Local\Temp\cc13CoIU.s:3282   .text.AT_ERASEFLASH_Handle:00000074 $d
C:\Users\86158\AppData\Local\Temp\cc13CoIU.s:3291   .rodata.AT_SETCURRENT_Handle.str1.4:00000000 $d
C:\Users\86158\AppData\Local\Temp\cc13CoIU.s:3295   .text.AT_SETCURRENT_Handle:00000000 $t
C:\Users\86158\AppData\Local\Temp\cc13CoIU.s:3301   .text.AT_SETCURRENT_Handle:00000000 AT_SETCURRENT_Handle
C:\Users\86158\AppData\Local\Temp\cc13CoIU.s:3410   .text.AT_SETCURRENT_Handle:00000078 $d
C:\Users\86158\AppData\Local\Temp\cc13CoIU.s:3417   .rodata.AT_SYSTEST_Handle.str1.4:00000000 $d
C:\Users\86158\AppData\Local\Temp\cc13CoIU.s:3421   .text.AT_SYSTEST_Handle:00000000 $t
C:\Users\86158\AppData\Local\Temp\cc13CoIU.s:3427   .text.AT_SYSTEST_Handle:00000000 AT_SYSTEST_Handle
C:\Users\86158\AppData\Local\Temp\cc13CoIU.s:3487   .text.AT_SYSTEST_Handle:00000030 $d
C:\Users\86158\AppData\Local\Temp\cc13CoIU.s:3493   .rodata.AT_TESTDATA_Handle.str1.4:00000000 $d
ARM GAS  C:\Users\86158\AppData\Local\Temp\cc13CoIU.s 			page 146


C:\Users\86158\AppData\Local\Temp\cc13CoIU.s:3503   .text.AT_TESTDATA_Handle:00000000 $t
C:\Users\86158\AppData\Local\Temp\cc13CoIU.s:3509   .text.AT_TESTDATA_Handle:00000000 AT_TESTDATA_Handle
C:\Users\86158\AppData\Local\Temp\cc13CoIU.s:3703   .text.AT_TESTDATA_Handle:000000cc $d
C:\Users\86158\AppData\Local\Temp\cc13CoIU.s:3710   .rodata.AT_ATTEST_Handle.str1.4:00000000 $d
C:\Users\86158\AppData\Local\Temp\cc13CoIU.s:3714   .text.AT_ATTEST_Handle:00000000 $t
C:\Users\86158\AppData\Local\Temp\cc13CoIU.s:3720   .text.AT_ATTEST_Handle:00000000 AT_ATTEST_Handle
C:\Users\86158\AppData\Local\Temp\cc13CoIU.s:3847   .text.AT_ATTEST_Handle:00000090 $d
C:\Users\86158\AppData\Local\Temp\cc13CoIU.s:3853   .rodata.AT_1006TMODE_Handle.str1.4:00000000 $d
C:\Users\86158\AppData\Local\Temp\cc13CoIU.s:3863   .text.AT_1006TMODE_Handle:00000000 $t
C:\Users\86158\AppData\Local\Temp\cc13CoIU.s:3869   .text.AT_1006TMODE_Handle:00000000 AT_1006TMODE_Handle
C:\Users\86158\AppData\Local\Temp\cc13CoIU.s:4076   .text.AT_1006TMODE_Handle:00000120 $d
C:\Users\86158\AppData\Local\Temp\cc13CoIU.s:4085   .rodata.AT_SD3078INT_Handle.str1.4:00000000 $d
C:\Users\86158\AppData\Local\Temp\cc13CoIU.s:4092   .text.AT_SD3078INT_Handle:00000000 $t
C:\Users\86158\AppData\Local\Temp\cc13CoIU.s:4098   .text.AT_SD3078INT_Handle:00000000 AT_SD3078INT_Handle
C:\Users\86158\AppData\Local\Temp\cc13CoIU.s:4195   .text.AT_SD3078INT_Handle:0000006c $d
C:\Users\86158\AppData\Local\Temp\cc13CoIU.s:4204   .rodata.AT_RTCLOAD_Handle.str1.4:00000000 $d
C:\Users\86158\AppData\Local\Temp\cc13CoIU.s:4208   .text.AT_RTCLOAD_Handle:00000000 $t
C:\Users\86158\AppData\Local\Temp\cc13CoIU.s:4214   .text.AT_RTCLOAD_Handle:00000000 AT_RTCLOAD_Handle
C:\Users\86158\AppData\Local\Temp\cc13CoIU.s:4357   .text.AT_RTCLOAD_Handle:0000009c $d
C:\Users\86158\AppData\Local\Temp\cc13CoIU.s:4366   .rodata.AT_GETRTCID_Handle.str1.4:00000000 $d
C:\Users\86158\AppData\Local\Temp\cc13CoIU.s:4370   .text.AT_GETRTCID_Handle:00000000 $t
C:\Users\86158\AppData\Local\Temp\cc13CoIU.s:4376   .text.AT_GETRTCID_Handle:00000000 AT_GETRTCID_Handle
C:\Users\86158\AppData\Local\Temp\cc13CoIU.s:4475   .text.AT_GETRTCID_Handle:00000068 $d
C:\Users\86158\AppData\Local\Temp\cc13CoIU.s:4483   .text.CharToFloat:00000000 $t
C:\Users\86158\AppData\Local\Temp\cc13CoIU.s:4489   .text.CharToFloat:00000000 CharToFloat
C:\Users\86158\AppData\Local\Temp\cc13CoIU.s:4725   .text.CharToFloat:000000f8 $d
C:\Users\86158\AppData\Local\Temp\cc13CoIU.s:4734   .text.AT_HOTVOLTAGE_Handle:00000000 $t
C:\Users\86158\AppData\Local\Temp\cc13CoIU.s:4740   .text.AT_HOTVOLTAGE_Handle:00000000 AT_HOTVOLTAGE_Handle
C:\Users\86158\AppData\Local\Temp\cc13CoIU.s:4795   .text.AT_HOTVOLTAGE_Handle:00000034 $d
C:\Users\86158\AppData\Local\Temp\cc13CoIU.s:4802   .text.CheckFreqValue:00000000 $t
C:\Users\86158\AppData\Local\Temp\cc13CoIU.s:4808   .text.CheckFreqValue:00000000 CheckFreqValue
C:\Users\86158\AppData\Local\Temp\cc13CoIU.s:4900   .text.CheckFreqValue:00000054 $d
C:\Users\86158\AppData\Local\Temp\cc13CoIU.s:4907   .text.HAL_UART_RxCpltCallback:00000000 $t
C:\Users\86158\AppData\Local\Temp\cc13CoIU.s:4913   .text.HAL_UART_RxCpltCallback:00000000 HAL_UART_RxCpltCallback
C:\Users\86158\AppData\Local\Temp\cc13CoIU.s:5097   .text.HAL_UART_RxCpltCallback:000000c0 $d
C:\Users\86158\AppData\Local\Temp\cc13CoIU.s:5114   .rodata.CheckCommandList.str1.4:00000000 $d
C:\Users\86158\AppData\Local\Temp\cc13CoIU.s:5118   .text.CheckCommandList:00000000 $t
C:\Users\86158\AppData\Local\Temp\cc13CoIU.s:5124   .text.CheckCommandList:00000000 CheckCommandList
C:\Users\86158\AppData\Local\Temp\cc13CoIU.s:5288   .text.CheckCommandList:000000a4 $d
C:\Users\86158\AppData\Local\Temp\cc13CoIU.s:5300   .text.DeviceMassage:00000000 $t
C:\Users\86158\AppData\Local\Temp\cc13CoIU.s:5306   .text.DeviceMassage:00000000 DeviceMassage
C:\Users\86158\AppData\Local\Temp\cc13CoIU.s:5444   .text.DeviceMassage:00000080 $d
C:\Users\86158\AppData\Local\Temp\cc13CoIU.s:5641   .data.UsbCommand:00000000 UsbCommand
C:\Users\86158\AppData\Local\Temp\cc13CoIU.s:5680   .data.g_rtcChanenel:00000000 g_rtcChanenel
C:\Users\86158\AppData\Local\Temp\cc13CoIU.s:5487   .bss.g_DeviceATStatus:00000000 g_DeviceATStatus
C:\Users\86158\AppData\Local\Temp\cc13CoIU.s:5501   .bss.g_DeviceTxBuff:00000000 g_DeviceTxBuff
C:\Users\86158\AppData\Local\Temp\cc13CoIU.s:5494   .bss.g_DeviceRxBuff:00000000 g_DeviceRxBuff
C:\Users\86158\AppData\Local\Temp\cc13CoIU.s:5467   .bss.deviceRxBuf:00000000 deviceRxBuf
C:\Users\86158\AppData\Local\Temp\cc13CoIU.s:5481   .bss.device_Rx_Cnt:00000000 device_Rx_Cnt
C:\Users\86158\AppData\Local\Temp\cc13CoIU.s:5507   .bss.g_UsbATStatus:00000000 g_UsbATStatus
C:\Users\86158\AppData\Local\Temp\cc13CoIU.s:5521   .bss.g_UsbTxBuff:00000000 g_UsbTxBuff
C:\Users\86158\AppData\Local\Temp\cc13CoIU.s:5514   .bss.g_UsbRxBuff:00000000 g_UsbRxBuff
C:\Users\86158\AppData\Local\Temp\cc13CoIU.s:5468   .bss.deviceRxBuf:00000000 $d
C:\Users\86158\AppData\Local\Temp\cc13CoIU.s:5470   .bss.deviceTick.1:00000000 $d
C:\Users\86158\AppData\Local\Temp\cc13CoIU.s:5474   .bss.deviceTick.1:00000000 deviceTick.1
C:\Users\86158\AppData\Local\Temp\cc13CoIU.s:5477   .bss.device_Rx_Cnt:00000000 $d
C:\Users\86158\AppData\Local\Temp\cc13CoIU.s:5488   .bss.g_DeviceATStatus:00000000 $d
ARM GAS  C:\Users\86158\AppData\Local\Temp\cc13CoIU.s 			page 147


C:\Users\86158\AppData\Local\Temp\cc13CoIU.s:5490   .bss.g_DeviceRxBuff:00000000 $d
C:\Users\86158\AppData\Local\Temp\cc13CoIU.s:5497   .bss.g_DeviceTxBuff:00000000 $d
C:\Users\86158\AppData\Local\Temp\cc13CoIU.s:5508   .bss.g_UsbATStatus:00000000 $d
C:\Users\86158\AppData\Local\Temp\cc13CoIU.s:5510   .bss.g_UsbRxBuff:00000000 $d
C:\Users\86158\AppData\Local\Temp\cc13CoIU.s:5517   .bss.g_UsbTxBuff:00000000 $d
C:\Users\86158\AppData\Local\Temp\cc13CoIU.s:5524   .bss.lastDeviceRx.0:00000000 $d
C:\Users\86158\AppData\Local\Temp\cc13CoIU.s:5528   .bss.lastDeviceRx.0:00000000 lastDeviceRx.0
C:\Users\86158\AppData\Local\Temp\cc13CoIU.s:5531   .bss.lastUsbRx.2:00000000 $d
C:\Users\86158\AppData\Local\Temp\cc13CoIU.s:5535   .bss.lastUsbRx.2:00000000 lastUsbRx.2
C:\Users\86158\AppData\Local\Temp\cc13CoIU.s:5541   .bss.number.4:00000000 number.4
C:\Users\86158\AppData\Local\Temp\cc13CoIU.s:5542   .bss.number.4:00000000 $d
C:\Users\86158\AppData\Local\Temp\cc13CoIU.s:5547   .bss.usbRxBuf:00000000 usbRxBuf
C:\Users\86158\AppData\Local\Temp\cc13CoIU.s:5548   .bss.usbRxBuf:00000000 $d
C:\Users\86158\AppData\Local\Temp\cc13CoIU.s:5550   .bss.usbTick.3:00000000 $d
C:\Users\86158\AppData\Local\Temp\cc13CoIU.s:5554   .bss.usbTick.3:00000000 usbTick.3
C:\Users\86158\AppData\Local\Temp\cc13CoIU.s:5557   .bss.usb_Rx_Cnt:00000000 $d
C:\Users\86158\AppData\Local\Temp\cc13CoIU.s:5561   .bss.usb_Rx_Cnt:00000000 usb_Rx_Cnt
C:\Users\86158\AppData\Local\Temp\cc13CoIU.s:5564   .data.CommandList:00000000 $d
C:\Users\86158\AppData\Local\Temp\cc13CoIU.s:5568   .data.CommandList:00000000 CommandList
C:\Users\86158\AppData\Local\Temp\cc13CoIU.s:5637   .data.UsbCommand:00000000 $d
C:\Users\86158\AppData\Local\Temp\cc13CoIU.s:5686   .data.state.5:00000000 state.5

UNDEFINED SYMBOLS
memset
vsnprintf
strlen
HAL_UART_Transmit
huart1
system_get_real_time
__aeabi_f2d
CS1237Current
log_printf
system_manage_temp
rtc_read_vbat
HAL_GPIO_WritePin
temp_read_value
__aeabi_ui2d
__aeabi_dmul
__aeabi_d2uiz
ststem_voltage
flash_read_data
HAL_Delay
rtc_group_power
wave1006_read_temp_adc
Aecq100State
huart2
HAL_UART_Receive_IT
ControlInit
rtc_otp_power
CS1237Init
i2c_read_multi_bytes
system_set_real_time
rtc_out_4096
rtc_disable_int
rtc_set_testcap
cap_list_to_uint
rtc_set_channel
ARM GAS  C:\Users\86158\AppData\Local\Temp\cc13CoIU.s 			page 148


rtc_read_multi_bytes
get_log_record_pages
flash_erase
CheckBusy
log_list_init
manager_set_mode
flash_test_data_read
memcpy
test_data_printf
calculate_wave1006_temp_cap
drv_wave1006_write_reg
drv_wave1006_read_reg
wave1006_enter_test_mode
rtc_1006_exit_testmode
set_int_test
sd3078b_write_otp
__aeabi_d2f
strncpy
control_usart_receive
HAL_GetTick
g_lastFreq
