ARM GAS  C:\Users\86158\AppData\Local\Temp\cc7jsRHQ.s 			page 1


   1              		.cpu cortex-m4
   2              		.arch armv7e-m
   3              		.fpu fpv4-sp-d16
   4              		.eabi_attribute 27, 1
   5              		.eabi_attribute 28, 1
   6              		.eabi_attribute 20, 1
   7              		.eabi_attribute 21, 1
   8              		.eabi_attribute 23, 3
   9              		.eabi_attribute 24, 1
  10              		.eabi_attribute 25, 1
  11              		.eabi_attribute 26, 1
  12              		.eabi_attribute 30, 1
  13              		.eabi_attribute 34, 1
  14              		.eabi_attribute 18, 4
  15              		.file	"power.c"
  16              		.text
  17              	.Ltext0:
  18              		.cfi_sections	.debug_frame
  19              		.section	.text.rtc_group_vdd,"ax",%progbits
  20              		.align	1
  21              		.global	rtc_group_vdd
  22              		.syntax unified
  23              		.thumb
  24              		.thumb_func
  26              	rtc_group_vdd:
  27              	.LVL0:
  28              	.LFB235:
  29              		.file 1 "Device/Src/power.c"
   1:Device/Src/power.c **** #include "main.h"
   2:Device/Src/power.c **** #include "power.h"
   3:Device/Src/power.c **** #include "rtc_i2c.h"
   4:Device/Src/power.c **** #include "rtc.h"
   5:Device/Src/power.c **** #include "current.h"
   6:Device/Src/power.c **** #include "flash.h"
   7:Device/Src/power.c **** 
   8:Device/Src/power.c **** extern DAC_HandleTypeDef hdac;
   9:Device/Src/power.c **** 
  10:Device/Src/power.c **** void rtc_group_vdd(uint8_t mode) 
  11:Device/Src/power.c **** {
  30              		.loc 1 11 1 view -0
  31              		.cfi_startproc
  32              		@ args = 0, pretend = 0, frame = 0
  33              		@ frame_needed = 0, uses_anonymous_args = 0
  34              		.loc 1 11 1 is_stmt 0 view .LVU1
  35 0000 08B5     		push	{r3, lr}
  36              	.LCFI0:
  37              		.cfi_def_cfa_offset 8
  38              		.cfi_offset 3, -8
  39              		.cfi_offset 14, -4
  12:Device/Src/power.c ****     if (mode == 0) {
  40              		.loc 1 12 5 is_stmt 1 view .LVU2
  41              		.loc 1 12 8 is_stmt 0 view .LVU3
  42 0002 30B9     		cbnz	r0, .L2
  13:Device/Src/power.c ****         HAL_GPIO_WritePin(GPIOD, GPIO_PIN_10, GPIO_PIN_RESET);//3.3V 
  43              		.loc 1 13 9 is_stmt 1 view .LVU4
  44 0004 0022     		movs	r2, #0
  45 0006 4FF48061 		mov	r1, #1024
ARM GAS  C:\Users\86158\AppData\Local\Temp\cc7jsRHQ.s 			page 2


  46 000a 0548     		ldr	r0, .L5
  47              	.LVL1:
  48              		.loc 1 13 9 is_stmt 0 view .LVU5
  49 000c FFF7FEFF 		bl	HAL_GPIO_WritePin
  50              	.LVL2:
  51              	.L1:
  14:Device/Src/power.c ****     } else {
  15:Device/Src/power.c ****         HAL_GPIO_WritePin(GPIOD, GPIO_PIN_10, GPIO_PIN_SET);//5V 
  16:Device/Src/power.c ****     }
  17:Device/Src/power.c **** }
  52              		.loc 1 17 1 view .LVU6
  53 0010 08BD     		pop	{r3, pc}
  54              	.LVL3:
  55              	.L2:
  15:Device/Src/power.c ****     }
  56              		.loc 1 15 9 is_stmt 1 view .LVU7
  57 0012 0122     		movs	r2, #1
  58 0014 4FF48061 		mov	r1, #1024
  59 0018 0148     		ldr	r0, .L5
  60              	.LVL4:
  15:Device/Src/power.c ****     }
  61              		.loc 1 15 9 is_stmt 0 view .LVU8
  62 001a FFF7FEFF 		bl	HAL_GPIO_WritePin
  63              	.LVL5:
  64              		.loc 1 17 1 view .LVU9
  65 001e F7E7     		b	.L1
  66              	.L6:
  67              		.align	2
  68              	.L5:
  69 0020 000C0240 		.word	1073875968
  70              		.cfi_endproc
  71              	.LFE235:
  73              		.section	.text.rtc_vertical_open_one,"ax",%progbits
  74              		.align	1
  75              		.global	rtc_vertical_open_one
  76              		.syntax unified
  77              		.thumb
  78              		.thumb_func
  80              	rtc_vertical_open_one:
  81              	.LVL6:
  82              	.LFB236:
  18:Device/Src/power.c **** 
  19:Device/Src/power.c **** void rtc_vertical_open_one(uint8_t left)//left: 0 ~ 9
  20:Device/Src/power.c **** {
  83              		.loc 1 20 1 is_stmt 1 view -0
  84              		.cfi_startproc
  85              		@ args = 0, pretend = 0, frame = 0
  86              		@ frame_needed = 0, uses_anonymous_args = 0
  87              		.loc 1 20 1 is_stmt 0 view .LVU11
  88 0000 08B5     		push	{r3, lr}
  89              	.LCFI1:
  90              		.cfi_def_cfa_offset 8
  91              		.cfi_offset 3, -8
  92              		.cfi_offset 14, -4
  21:Device/Src/power.c ****     HAL_GPIO_WritePin(GPIOD, GPIO_PIN_0 << left, GPIO_PIN_RESET);
  93              		.loc 1 21 5 is_stmt 1 view .LVU12
  94              		.loc 1 21 41 is_stmt 0 view .LVU13
ARM GAS  C:\Users\86158\AppData\Local\Temp\cc7jsRHQ.s 			page 3


  95 0002 0121     		movs	r1, #1
  96 0004 8140     		lsls	r1, r1, r0
  97              		.loc 1 21 5 view .LVU14
  98 0006 0022     		movs	r2, #0
  99 0008 89B2     		uxth	r1, r1
 100 000a 0248     		ldr	r0, .L9
 101              	.LVL7:
 102              		.loc 1 21 5 view .LVU15
 103 000c FFF7FEFF 		bl	HAL_GPIO_WritePin
 104              	.LVL8:
  22:Device/Src/power.c **** }
 105              		.loc 1 22 1 view .LVU16
 106 0010 08BD     		pop	{r3, pc}
 107              	.L10:
 108 0012 00BF     		.align	2
 109              	.L9:
 110 0014 000C0240 		.word	1073875968
 111              		.cfi_endproc
 112              	.LFE236:
 114              		.section	.text.rtc_vertical_close_one,"ax",%progbits
 115              		.align	1
 116              		.global	rtc_vertical_close_one
 117              		.syntax unified
 118              		.thumb
 119              		.thumb_func
 121              	rtc_vertical_close_one:
 122              	.LVL9:
 123              	.LFB237:
  23:Device/Src/power.c **** 
  24:Device/Src/power.c **** void rtc_vertical_close_one(uint8_t left)//left: 0 ~ 9
  25:Device/Src/power.c **** {
 124              		.loc 1 25 1 is_stmt 1 view -0
 125              		.cfi_startproc
 126              		@ args = 0, pretend = 0, frame = 0
 127              		@ frame_needed = 0, uses_anonymous_args = 0
 128              		.loc 1 25 1 is_stmt 0 view .LVU18
 129 0000 08B5     		push	{r3, lr}
 130              	.LCFI2:
 131              		.cfi_def_cfa_offset 8
 132              		.cfi_offset 3, -8
 133              		.cfi_offset 14, -4
  26:Device/Src/power.c ****     HAL_GPIO_WritePin(GPIOD, GPIO_PIN_0 << left, GPIO_PIN_SET);
 134              		.loc 1 26 5 is_stmt 1 view .LVU19
 135              		.loc 1 26 41 is_stmt 0 view .LVU20
 136 0002 0122     		movs	r2, #1
 137 0004 02FA00F1 		lsl	r1, r2, r0
 138              		.loc 1 26 5 view .LVU21
 139 0008 89B2     		uxth	r1, r1
 140 000a 0248     		ldr	r0, .L13
 141              	.LVL10:
 142              		.loc 1 26 5 view .LVU22
 143 000c FFF7FEFF 		bl	HAL_GPIO_WritePin
 144              	.LVL11:
  27:Device/Src/power.c **** }
 145              		.loc 1 27 1 view .LVU23
 146 0010 08BD     		pop	{r3, pc}
 147              	.L14:
ARM GAS  C:\Users\86158\AppData\Local\Temp\cc7jsRHQ.s 			page 4


 148 0012 00BF     		.align	2
 149              	.L13:
 150 0014 000C0240 		.word	1073875968
 151              		.cfi_endproc
 152              	.LFE237:
 154              		.section	.text.rtc_vertical_control,"ax",%progbits
 155              		.align	1
 156              		.global	rtc_vertical_control
 157              		.syntax unified
 158              		.thumb
 159              		.thumb_func
 161              	rtc_vertical_control:
 162              	.LVL12:
 163              	.LFB238:
  28:Device/Src/power.c **** 
  29:Device/Src/power.c **** void rtc_vertical_control(uint8_t lineNum, uint8_t mode)
  30:Device/Src/power.c **** {
 164              		.loc 1 30 1 is_stmt 1 view -0
 165              		.cfi_startproc
 166              		@ args = 0, pretend = 0, frame = 0
 167              		@ frame_needed = 0, uses_anonymous_args = 0
 168              		.loc 1 30 1 is_stmt 0 view .LVU25
 169 0000 38B5     		push	{r3, r4, r5, lr}
 170              	.LCFI3:
 171              		.cfi_def_cfa_offset 16
 172              		.cfi_offset 3, -16
 173              		.cfi_offset 4, -12
 174              		.cfi_offset 5, -8
 175              		.cfi_offset 14, -4
  31:Device/Src/power.c ****     uint8_t i = 0;
 176              		.loc 1 31 5 is_stmt 1 view .LVU26
 177              	.LVL13:
  32:Device/Src/power.c ****     if (mode == ALL_CLOSE) {
 178              		.loc 1 32 5 view .LVU27
 179              		.loc 1 32 8 is_stmt 0 view .LVU28
 180 0002 31B1     		cbz	r1, .L29
 181 0004 0546     		mov	r5, r0
  33:Device/Src/power.c ****         HAL_GPIO_WritePin(GPIOD, 0x03ff, GPIO_PIN_SET);
  34:Device/Src/power.c ****     } else if (mode == ALL_OPEN) {
 182              		.loc 1 34 12 is_stmt 1 view .LVU29
 183              		.loc 1 34 15 is_stmt 0 view .LVU30
 184 0006 0129     		cmp	r1, #1
 185 0008 0AD0     		beq	.L30
  35:Device/Src/power.c ****         HAL_GPIO_WritePin(GPIOD, 0x03ff, GPIO_PIN_RESET);
  36:Device/Src/power.c ****     } else if (mode == ONE_OPEN_OTHER_CLOSE) {
 186              		.loc 1 36 12 is_stmt 1 view .LVU31
 187              		.loc 1 36 15 is_stmt 0 view .LVU32
 188 000a 0229     		cmp	r1, #2
 189 000c 1CD0     		beq	.L27
  37:Device/Src/power.c ****         for (i = 0; i <= 9; i++) {
  38:Device/Src/power.c ****             if (i == lineNum) {
  39:Device/Src/power.c ****                 rtc_vertical_open_one(i);
  40:Device/Src/power.c ****             } else {
  41:Device/Src/power.c ****                 rtc_vertical_close_one(i);
  42:Device/Src/power.c ****             }
  43:Device/Src/power.c ****         }
  44:Device/Src/power.c ****     } else {
ARM GAS  C:\Users\86158\AppData\Local\Temp\cc7jsRHQ.s 			page 5


  45:Device/Src/power.c ****         for (i = 0; i <= 9; i++) {
 190              		.loc 1 45 16 view .LVU33
 191 000e 0024     		movs	r4, #0
 192 0010 21E0     		b	.L20
 193              	.L29:
  33:Device/Src/power.c ****     } else if (mode == ALL_OPEN) {
 194              		.loc 1 33 9 is_stmt 1 view .LVU34
 195 0012 0122     		movs	r2, #1
 196 0014 40F2FF31 		movw	r1, #1023
 197              	.LVL14:
  33:Device/Src/power.c ****     } else if (mode == ALL_OPEN) {
 198              		.loc 1 33 9 is_stmt 0 view .LVU35
 199 0018 1348     		ldr	r0, .L33
 200              	.LVL15:
  33:Device/Src/power.c ****     } else if (mode == ALL_OPEN) {
 201              		.loc 1 33 9 view .LVU36
 202 001a FFF7FEFF 		bl	HAL_GPIO_WritePin
 203              	.LVL16:
 204              	.L15:
  46:Device/Src/power.c ****             if (i == lineNum) {
  47:Device/Src/power.c ****                 rtc_vertical_close_one(i);
  48:Device/Src/power.c ****             } else {
  49:Device/Src/power.c ****                 rtc_vertical_open_one(i);
  50:Device/Src/power.c ****             }
  51:Device/Src/power.c ****         }
  52:Device/Src/power.c ****     }
  53:Device/Src/power.c **** }
 205              		.loc 1 53 1 view .LVU37
 206 001e 38BD     		pop	{r3, r4, r5, pc}
 207              	.LVL17:
 208              	.L30:
  35:Device/Src/power.c ****     } else if (mode == ONE_OPEN_OTHER_CLOSE) {
 209              		.loc 1 35 9 is_stmt 1 view .LVU38
 210 0020 0022     		movs	r2, #0
 211 0022 40F2FF31 		movw	r1, #1023
 212              	.LVL18:
  35:Device/Src/power.c ****     } else if (mode == ONE_OPEN_OTHER_CLOSE) {
 213              		.loc 1 35 9 is_stmt 0 view .LVU39
 214 0026 1048     		ldr	r0, .L33
 215              	.LVL19:
  35:Device/Src/power.c ****     } else if (mode == ONE_OPEN_OTHER_CLOSE) {
 216              		.loc 1 35 9 view .LVU40
 217 0028 FFF7FEFF 		bl	HAL_GPIO_WritePin
 218              	.LVL20:
 219 002c F7E7     		b	.L15
 220              	.LVL21:
 221              	.L31:
  39:Device/Src/power.c ****             } else {
 222              		.loc 1 39 17 is_stmt 1 view .LVU41
 223 002e 2046     		mov	r0, r4
 224 0030 FFF7FEFF 		bl	rtc_vertical_open_one
 225              	.LVL22:
 226              	.L22:
  37:Device/Src/power.c ****             if (i == lineNum) {
 227              		.loc 1 37 29 discriminator 2 view .LVU42
  37:Device/Src/power.c ****             if (i == lineNum) {
 228              		.loc 1 37 30 is_stmt 0 discriminator 2 view .LVU43
ARM GAS  C:\Users\86158\AppData\Local\Temp\cc7jsRHQ.s 			page 6


 229 0034 0134     		adds	r4, r4, #1
 230              	.LVL23:
  37:Device/Src/power.c ****             if (i == lineNum) {
 231              		.loc 1 37 30 discriminator 2 view .LVU44
 232 0036 E4B2     		uxtb	r4, r4
 233              	.LVL24:
 234              	.L19:
  37:Device/Src/power.c ****             if (i == lineNum) {
 235              		.loc 1 37 21 is_stmt 1 discriminator 1 view .LVU45
  37:Device/Src/power.c ****             if (i == lineNum) {
 236              		.loc 1 37 9 is_stmt 0 discriminator 1 view .LVU46
 237 0038 092C     		cmp	r4, #9
 238 003a F0D8     		bhi	.L15
  38:Device/Src/power.c ****                 rtc_vertical_open_one(i);
 239              		.loc 1 38 13 is_stmt 1 view .LVU47
  38:Device/Src/power.c ****                 rtc_vertical_open_one(i);
 240              		.loc 1 38 16 is_stmt 0 view .LVU48
 241 003c AC42     		cmp	r4, r5
 242 003e F6D0     		beq	.L31
  41:Device/Src/power.c ****             }
 243              		.loc 1 41 17 is_stmt 1 view .LVU49
 244 0040 2046     		mov	r0, r4
 245 0042 FFF7FEFF 		bl	rtc_vertical_close_one
 246              	.LVL25:
 247 0046 F5E7     		b	.L22
 248              	.LVL26:
 249              	.L27:
  37:Device/Src/power.c ****             if (i == lineNum) {
 250              		.loc 1 37 16 is_stmt 0 view .LVU50
 251 0048 0024     		movs	r4, #0
 252 004a F5E7     		b	.L19
 253              	.LVL27:
 254              	.L32:
  47:Device/Src/power.c ****             } else {
 255              		.loc 1 47 17 is_stmt 1 view .LVU51
 256 004c 2046     		mov	r0, r4
 257 004e FFF7FEFF 		bl	rtc_vertical_close_one
 258              	.LVL28:
 259              	.L25:
  45:Device/Src/power.c ****             if (i == lineNum) {
 260              		.loc 1 45 29 discriminator 2 view .LVU52
  45:Device/Src/power.c ****             if (i == lineNum) {
 261              		.loc 1 45 30 is_stmt 0 discriminator 2 view .LVU53
 262 0052 0134     		adds	r4, r4, #1
 263              	.LVL29:
  45:Device/Src/power.c ****             if (i == lineNum) {
 264              		.loc 1 45 30 discriminator 2 view .LVU54
 265 0054 E4B2     		uxtb	r4, r4
 266              	.LVL30:
 267              	.L20:
  45:Device/Src/power.c ****             if (i == lineNum) {
 268              		.loc 1 45 21 is_stmt 1 discriminator 1 view .LVU55
  45:Device/Src/power.c ****             if (i == lineNum) {
 269              		.loc 1 45 9 is_stmt 0 discriminator 1 view .LVU56
 270 0056 092C     		cmp	r4, #9
 271 0058 E1D8     		bhi	.L15
  46:Device/Src/power.c ****                 rtc_vertical_close_one(i);
ARM GAS  C:\Users\86158\AppData\Local\Temp\cc7jsRHQ.s 			page 7


 272              		.loc 1 46 13 is_stmt 1 view .LVU57
  46:Device/Src/power.c ****                 rtc_vertical_close_one(i);
 273              		.loc 1 46 16 is_stmt 0 view .LVU58
 274 005a AC42     		cmp	r4, r5
 275 005c F6D0     		beq	.L32
  49:Device/Src/power.c ****             }
 276              		.loc 1 49 17 is_stmt 1 view .LVU59
 277 005e 2046     		mov	r0, r4
 278 0060 FFF7FEFF 		bl	rtc_vertical_open_one
 279              	.LVL31:
 280 0064 F5E7     		b	.L25
 281              	.L34:
 282 0066 00BF     		.align	2
 283              	.L33:
 284 0068 000C0240 		.word	1073875968
 285              		.cfi_endproc
 286              	.LFE238:
 288              		.section	.text.rtc_horizontal_vdd_control,"ax",%progbits
 289              		.align	1
 290              		.global	rtc_horizontal_vdd_control
 291              		.syntax unified
 292              		.thumb
 293              		.thumb_func
 295              	rtc_horizontal_vdd_control:
 296              	.LVL32:
 297              	.LFB239:
  54:Device/Src/power.c **** 
  55:Device/Src/power.c **** void rtc_horizontal_vdd_control(uint8_t lineNum, uint8_t mode)
  56:Device/Src/power.c **** {//VDD_I_S0 ~ VDD_I_S9 总共10，将该列拉高，Pmos管将关闭
 298              		.loc 1 56 1 view -0
 299              		.cfi_startproc
 300              		@ args = 0, pretend = 0, frame = 0
 301              		@ frame_needed = 0, uses_anonymous_args = 0
 302              		.loc 1 56 1 is_stmt 0 view .LVU61
 303 0000 10B5     		push	{r4, lr}
 304              	.LCFI4:
 305              		.cfi_def_cfa_offset 8
 306              		.cfi_offset 4, -8
 307              		.cfi_offset 14, -4
  57:Device/Src/power.c ****     uint16_t buff;
 308              		.loc 1 57 5 is_stmt 1 view .LVU62
  58:Device/Src/power.c ****     if (mode == ALL_CLOSE) {
 309              		.loc 1 58 5 view .LVU63
 310              		.loc 1 58 8 is_stmt 0 view .LVU64
 311 0002 A1B1     		cbz	r1, .L45
  59:Device/Src/power.c ****         HAL_GPIO_WritePin(GPIOE, GPIO_PIN_0 | GPIO_PIN_1 | GPIO_PIN_2 | GPIO_PIN_3|
  60:Device/Src/power.c ****                             GPIO_PIN_8 | GPIO_PIN_9 | GPIO_PIN_10 | GPIO_PIN_11 | GPIO_PIN_12 | GPI
  61:Device/Src/power.c ****     } else if (mode == ALL_OPEN) {
 312              		.loc 1 61 12 is_stmt 1 view .LVU65
 313              		.loc 1 61 15 is_stmt 0 view .LVU66
 314 0004 0129     		cmp	r1, #1
 315 0006 19D0     		beq	.L46
  62:Device/Src/power.c ****         HAL_GPIO_WritePin(GPIOE, GPIO_PIN_0 | GPIO_PIN_1 | GPIO_PIN_2 | GPIO_PIN_3|
  63:Device/Src/power.c ****                             GPIO_PIN_8 | GPIO_PIN_9 | GPIO_PIN_10 | GPIO_PIN_11 | GPIO_PIN_12 | GPI
  64:Device/Src/power.c ****     } else if (mode == ONE_OPEN_OTHER_CLOSE) {
 316              		.loc 1 64 12 is_stmt 1 view .LVU67
 317              		.loc 1 64 15 is_stmt 0 view .LVU68
ARM GAS  C:\Users\86158\AppData\Local\Temp\cc7jsRHQ.s 			page 8


 318 0008 0229     		cmp	r1, #2
 319 000a 1ED0     		beq	.L47
  65:Device/Src/power.c ****         if (lineNum <= 5) {
  66:Device/Src/power.c ****             buff = GPIO_PIN_8 << lineNum;
  67:Device/Src/power.c ****         } else {
  68:Device/Src/power.c ****             buff = GPIO_PIN_0 << (lineNum - 6);
  69:Device/Src/power.c ****         }
  70:Device/Src/power.c ****         rtc_horizontal_vdd_control(0, ALL_CLOSE);
  71:Device/Src/power.c ****         HAL_GPIO_WritePin(GPIOE, buff, GPIO_PIN_RESET);
  72:Device/Src/power.c ****     } else {
  73:Device/Src/power.c ****         if (lineNum <= 5) {
 320              		.loc 1 73 9 is_stmt 1 view .LVU69
 321              		.loc 1 73 12 is_stmt 0 view .LVU70
 322 000c 0528     		cmp	r0, #5
 323 000e 33D8     		bhi	.L42
  74:Device/Src/power.c ****             buff = GPIO_PIN_8 << lineNum;
 324              		.loc 1 74 13 is_stmt 1 view .LVU71
 325              		.loc 1 74 31 is_stmt 0 view .LVU72
 326 0010 4FF48074 		mov	r4, #256
 327 0014 04FA00F0 		lsl	r0, r4, r0
 328              	.LVL33:
 329              		.loc 1 74 18 view .LVU73
 330 0018 84B2     		uxth	r4, r0
 331              	.LVL34:
 332              	.L43:
  75:Device/Src/power.c ****         } else {
  76:Device/Src/power.c ****             buff = GPIO_PIN_0 << (lineNum - 6);
  77:Device/Src/power.c ****         }
  78:Device/Src/power.c ****         rtc_horizontal_vdd_control(0, ALL_OPEN);
 333              		.loc 1 78 9 is_stmt 1 view .LVU74
 334 001a 0121     		movs	r1, #1
 335              	.LVL35:
 336              		.loc 1 78 9 is_stmt 0 view .LVU75
 337 001c 0020     		movs	r0, #0
 338 001e FFF7FEFF 		bl	rtc_horizontal_vdd_control
 339              	.LVL36:
  79:Device/Src/power.c ****         HAL_GPIO_WritePin(GPIOE, buff, GPIO_PIN_SET);
 340              		.loc 1 79 9 is_stmt 1 view .LVU76
 341 0022 0122     		movs	r2, #1
 342 0024 2146     		mov	r1, r4
 343 0026 1748     		ldr	r0, .L48
 344 0028 FFF7FEFF 		bl	HAL_GPIO_WritePin
 345              	.LVL37:
 346              	.L35:
  80:Device/Src/power.c ****     }
  81:Device/Src/power.c **** }
 347              		.loc 1 81 1 is_stmt 0 view .LVU77
 348 002c 10BD     		pop	{r4, pc}
 349              	.LVL38:
 350              	.L45:
  59:Device/Src/power.c ****                             GPIO_PIN_8 | GPIO_PIN_9 | GPIO_PIN_10 | GPIO_PIN_11 | GPIO_PIN_12 | GPI
 351              		.loc 1 59 9 is_stmt 1 view .LVU78
 352 002e 0122     		movs	r2, #1
 353 0030 43F60F71 		movw	r1, #16143
 354              	.LVL39:
  59:Device/Src/power.c ****                             GPIO_PIN_8 | GPIO_PIN_9 | GPIO_PIN_10 | GPIO_PIN_11 | GPIO_PIN_12 | GPI
 355              		.loc 1 59 9 is_stmt 0 view .LVU79
ARM GAS  C:\Users\86158\AppData\Local\Temp\cc7jsRHQ.s 			page 9


 356 0034 1348     		ldr	r0, .L48
 357              	.LVL40:
  59:Device/Src/power.c ****                             GPIO_PIN_8 | GPIO_PIN_9 | GPIO_PIN_10 | GPIO_PIN_11 | GPIO_PIN_12 | GPI
 358              		.loc 1 59 9 view .LVU80
 359 0036 FFF7FEFF 		bl	HAL_GPIO_WritePin
 360              	.LVL41:
 361 003a F7E7     		b	.L35
 362              	.LVL42:
 363              	.L46:
  62:Device/Src/power.c ****                             GPIO_PIN_8 | GPIO_PIN_9 | GPIO_PIN_10 | GPIO_PIN_11 | GPIO_PIN_12 | GPI
 364              		.loc 1 62 9 is_stmt 1 view .LVU81
 365 003c 0022     		movs	r2, #0
 366 003e 43F60F71 		movw	r1, #16143
 367              	.LVL43:
  62:Device/Src/power.c ****                             GPIO_PIN_8 | GPIO_PIN_9 | GPIO_PIN_10 | GPIO_PIN_11 | GPIO_PIN_12 | GPI
 368              		.loc 1 62 9 is_stmt 0 view .LVU82
 369 0042 1048     		ldr	r0, .L48
 370              	.LVL44:
  62:Device/Src/power.c ****                             GPIO_PIN_8 | GPIO_PIN_9 | GPIO_PIN_10 | GPIO_PIN_11 | GPIO_PIN_12 | GPI
 371              		.loc 1 62 9 view .LVU83
 372 0044 FFF7FEFF 		bl	HAL_GPIO_WritePin
 373              	.LVL45:
 374 0048 F0E7     		b	.L35
 375              	.LVL46:
 376              	.L47:
  65:Device/Src/power.c ****             buff = GPIO_PIN_8 << lineNum;
 377              		.loc 1 65 9 is_stmt 1 view .LVU84
  65:Device/Src/power.c ****             buff = GPIO_PIN_8 << lineNum;
 378              		.loc 1 65 12 is_stmt 0 view .LVU85
 379 004a 0528     		cmp	r0, #5
 380 004c 0ED8     		bhi	.L40
  66:Device/Src/power.c ****         } else {
 381              		.loc 1 66 13 is_stmt 1 view .LVU86
  66:Device/Src/power.c ****         } else {
 382              		.loc 1 66 31 is_stmt 0 view .LVU87
 383 004e 4FF48074 		mov	r4, #256
 384 0052 04FA00F0 		lsl	r0, r4, r0
 385              	.LVL47:
  66:Device/Src/power.c ****         } else {
 386              		.loc 1 66 18 view .LVU88
 387 0056 84B2     		uxth	r4, r0
 388              	.LVL48:
 389              	.L41:
  70:Device/Src/power.c ****         HAL_GPIO_WritePin(GPIOE, buff, GPIO_PIN_RESET);
 390              		.loc 1 70 9 is_stmt 1 view .LVU89
 391 0058 0021     		movs	r1, #0
 392              	.LVL49:
  70:Device/Src/power.c ****         HAL_GPIO_WritePin(GPIOE, buff, GPIO_PIN_RESET);
 393              		.loc 1 70 9 is_stmt 0 view .LVU90
 394 005a 0846     		mov	r0, r1
 395 005c FFF7FEFF 		bl	rtc_horizontal_vdd_control
 396              	.LVL50:
  71:Device/Src/power.c ****     } else {
 397              		.loc 1 71 9 is_stmt 1 view .LVU91
 398 0060 0022     		movs	r2, #0
 399 0062 2146     		mov	r1, r4
 400 0064 0748     		ldr	r0, .L48
ARM GAS  C:\Users\86158\AppData\Local\Temp\cc7jsRHQ.s 			page 10


 401 0066 FFF7FEFF 		bl	HAL_GPIO_WritePin
 402              	.LVL51:
 403 006a DFE7     		b	.L35
 404              	.LVL52:
 405              	.L40:
  68:Device/Src/power.c ****         }
 406              		.loc 1 68 13 view .LVU92
  68:Device/Src/power.c ****         }
 407              		.loc 1 68 43 is_stmt 0 view .LVU93
 408 006c 0638     		subs	r0, r0, #6
 409              	.LVL53:
  68:Device/Src/power.c ****         }
 410              		.loc 1 68 31 view .LVU94
 411 006e 0124     		movs	r4, #1
 412 0070 04FA00F0 		lsl	r0, r4, r0
  68:Device/Src/power.c ****         }
 413              		.loc 1 68 18 view .LVU95
 414 0074 84B2     		uxth	r4, r0
 415              	.LVL54:
  68:Device/Src/power.c ****         }
 416              		.loc 1 68 18 view .LVU96
 417 0076 EFE7     		b	.L41
 418              	.LVL55:
 419              	.L42:
  76:Device/Src/power.c ****         }
 420              		.loc 1 76 13 is_stmt 1 view .LVU97
  76:Device/Src/power.c ****         }
 421              		.loc 1 76 43 is_stmt 0 view .LVU98
 422 0078 0638     		subs	r0, r0, #6
 423              	.LVL56:
  76:Device/Src/power.c ****         }
 424              		.loc 1 76 31 view .LVU99
 425 007a 0124     		movs	r4, #1
 426 007c 04FA00F0 		lsl	r0, r4, r0
  76:Device/Src/power.c ****         }
 427              		.loc 1 76 18 view .LVU100
 428 0080 84B2     		uxth	r4, r0
 429              	.LVL57:
  76:Device/Src/power.c ****         }
 430              		.loc 1 76 18 view .LVU101
 431 0082 CAE7     		b	.L43
 432              	.L49:
 433              		.align	2
 434              	.L48:
 435 0084 00100240 		.word	1073876992
 436              		.cfi_endproc
 437              	.LFE239:
 439              		.section	.text.rtc_horizontal_bat_control,"ax",%progbits
 440              		.align	1
 441              		.global	rtc_horizontal_bat_control
 442              		.syntax unified
 443              		.thumb
 444              		.thumb_func
 446              	rtc_horizontal_bat_control:
 447              	.LVL58:
 448              	.LFB240:
  82:Device/Src/power.c **** 
ARM GAS  C:\Users\86158\AppData\Local\Temp\cc7jsRHQ.s 			page 11


  83:Device/Src/power.c **** void rtc_horizontal_bat_control(uint8_t lineNum, uint8_t mode)
  84:Device/Src/power.c **** {
 449              		.loc 1 84 1 is_stmt 1 view -0
 450              		.cfi_startproc
 451              		@ args = 0, pretend = 0, frame = 0
 452              		@ frame_needed = 0, uses_anonymous_args = 0
 453              		.loc 1 84 1 is_stmt 0 view .LVU103
 454 0000 38B5     		push	{r3, r4, r5, lr}
 455              	.LCFI5:
 456              		.cfi_def_cfa_offset 16
 457              		.cfi_offset 3, -16
 458              		.cfi_offset 4, -12
 459              		.cfi_offset 5, -8
 460              		.cfi_offset 14, -4
  85:Device/Src/power.c ****     uint16_t buff;
 461              		.loc 1 85 5 is_stmt 1 view .LVU104
  86:Device/Src/power.c ****     if (mode == ALL_CLOSE) {
 462              		.loc 1 86 5 view .LVU105
 463              		.loc 1 86 8 is_stmt 0 view .LVU106
 464 0002 B1B1     		cbz	r1, .L60
  87:Device/Src/power.c ****         HAL_GPIO_WritePin(GPIOB, GPIO_PIN_2|GPIO_PIN_3|GPIO_PIN_4|GPIO_PIN_5|GPIO_PIN_6|GPIO_PIN_7|
  88:Device/Src/power.c ****                             GPIO_PIN_8|GPIO_PIN_9|GPIO_PIN_12|GPIO_PIN_13, GPIO_PIN_SET);
  89:Device/Src/power.c ****     } else if (mode == ALL_OPEN) {
 465              		.loc 1 89 12 is_stmt 1 view .LVU107
 466              		.loc 1 89 15 is_stmt 0 view .LVU108
 467 0004 0129     		cmp	r1, #1
 468 0006 1BD0     		beq	.L61
  90:Device/Src/power.c ****         HAL_GPIO_WritePin(GPIOB, GPIO_PIN_2|GPIO_PIN_3|GPIO_PIN_4|GPIO_PIN_5|GPIO_PIN_6|GPIO_PIN_7|
  91:Device/Src/power.c ****                             GPIO_PIN_8|GPIO_PIN_9|GPIO_PIN_12|GPIO_PIN_13, GPIO_PIN_RESET);
  92:Device/Src/power.c ****     } else if (mode == ONE_OPEN_OTHER_CLOSE) {
 469              		.loc 1 92 12 is_stmt 1 view .LVU109
 470              		.loc 1 92 15 is_stmt 0 view .LVU110
 471 0008 0229     		cmp	r1, #2
 472 000a 20D0     		beq	.L62
  93:Device/Src/power.c ****         if (lineNum <= 7) {
  94:Device/Src/power.c ****             buff = GPIO_PIN_2 << lineNum;
  95:Device/Src/power.c ****         } else {
  96:Device/Src/power.c ****             buff = GPIO_PIN_12 << (lineNum - 8);
  97:Device/Src/power.c ****         }
  98:Device/Src/power.c ****         HAL_GPIO_WritePin(GPIOB, GPIO_PIN_2|GPIO_PIN_3|GPIO_PIN_4|GPIO_PIN_5|GPIO_PIN_6|GPIO_PIN_7|
  99:Device/Src/power.c ****                             GPIO_PIN_8|GPIO_PIN_9|GPIO_PIN_12|GPIO_PIN_13, GPIO_PIN_SET);
 100:Device/Src/power.c ****         HAL_GPIO_WritePin(GPIOB, buff, GPIO_PIN_RESET);
 101:Device/Src/power.c ****     } else {
 102:Device/Src/power.c ****         if (lineNum <= 7) {
 473              		.loc 1 102 9 is_stmt 1 view .LVU111
 474              		.loc 1 102 12 is_stmt 0 view .LVU112
 475 000c 0728     		cmp	r0, #7
 476 000e 38D8     		bhi	.L57
 103:Device/Src/power.c ****             buff = GPIO_PIN_2 << lineNum;
 477              		.loc 1 103 13 is_stmt 1 view .LVU113
 478              		.loc 1 103 31 is_stmt 0 view .LVU114
 479 0010 0424     		movs	r4, #4
 480 0012 04FA00F0 		lsl	r0, r4, r0
 481              	.LVL59:
 482              		.loc 1 103 18 view .LVU115
 483 0016 84B2     		uxth	r4, r0
 484              	.LVL60:
ARM GAS  C:\Users\86158\AppData\Local\Temp\cc7jsRHQ.s 			page 12


 485              	.L58:
 104:Device/Src/power.c ****         } else {
 105:Device/Src/power.c ****             buff = GPIO_PIN_12 << (lineNum - 8);
 106:Device/Src/power.c ****         }
 107:Device/Src/power.c ****         HAL_GPIO_WritePin(GPIOB, GPIO_PIN_2|GPIO_PIN_3|GPIO_PIN_4|GPIO_PIN_5|GPIO_PIN_6|GPIO_PIN_7|
 486              		.loc 1 107 9 is_stmt 1 view .LVU116
 487 0018 1D4D     		ldr	r5, .L63
 488 001a 0022     		movs	r2, #0
 489 001c 43F2FC31 		movw	r1, #13308
 490              	.LVL61:
 491              		.loc 1 107 9 is_stmt 0 view .LVU117
 492 0020 2846     		mov	r0, r5
 493 0022 FFF7FEFF 		bl	HAL_GPIO_WritePin
 494              	.LVL62:
 108:Device/Src/power.c ****                             GPIO_PIN_8|GPIO_PIN_9|GPIO_PIN_12|GPIO_PIN_13, GPIO_PIN_RESET);
 109:Device/Src/power.c ****         HAL_GPIO_WritePin(GPIOB, buff, GPIO_PIN_SET);
 495              		.loc 1 109 9 is_stmt 1 view .LVU118
 496 0026 0122     		movs	r2, #1
 497 0028 2146     		mov	r1, r4
 498 002a 2846     		mov	r0, r5
 499 002c FFF7FEFF 		bl	HAL_GPIO_WritePin
 500              	.LVL63:
 501              	.L50:
 110:Device/Src/power.c ****     }
 111:Device/Src/power.c **** }
 502              		.loc 1 111 1 is_stmt 0 view .LVU119
 503 0030 38BD     		pop	{r3, r4, r5, pc}
 504              	.LVL64:
 505              	.L60:
  87:Device/Src/power.c ****                             GPIO_PIN_8|GPIO_PIN_9|GPIO_PIN_12|GPIO_PIN_13, GPIO_PIN_SET);
 506              		.loc 1 87 9 is_stmt 1 view .LVU120
 507 0032 0122     		movs	r2, #1
 508 0034 43F2FC31 		movw	r1, #13308
 509              	.LVL65:
  87:Device/Src/power.c ****                             GPIO_PIN_8|GPIO_PIN_9|GPIO_PIN_12|GPIO_PIN_13, GPIO_PIN_SET);
 510              		.loc 1 87 9 is_stmt 0 view .LVU121
 511 0038 1548     		ldr	r0, .L63
 512              	.LVL66:
  87:Device/Src/power.c ****                             GPIO_PIN_8|GPIO_PIN_9|GPIO_PIN_12|GPIO_PIN_13, GPIO_PIN_SET);
 513              		.loc 1 87 9 view .LVU122
 514 003a FFF7FEFF 		bl	HAL_GPIO_WritePin
 515              	.LVL67:
 516 003e F7E7     		b	.L50
 517              	.LVL68:
 518              	.L61:
  90:Device/Src/power.c ****                             GPIO_PIN_8|GPIO_PIN_9|GPIO_PIN_12|GPIO_PIN_13, GPIO_PIN_RESET);
 519              		.loc 1 90 9 is_stmt 1 view .LVU123
 520 0040 0022     		movs	r2, #0
 521 0042 43F2FC31 		movw	r1, #13308
 522              	.LVL69:
  90:Device/Src/power.c ****                             GPIO_PIN_8|GPIO_PIN_9|GPIO_PIN_12|GPIO_PIN_13, GPIO_PIN_RESET);
 523              		.loc 1 90 9 is_stmt 0 view .LVU124
 524 0046 1248     		ldr	r0, .L63
 525              	.LVL70:
  90:Device/Src/power.c ****                             GPIO_PIN_8|GPIO_PIN_9|GPIO_PIN_12|GPIO_PIN_13, GPIO_PIN_RESET);
 526              		.loc 1 90 9 view .LVU125
 527 0048 FFF7FEFF 		bl	HAL_GPIO_WritePin
ARM GAS  C:\Users\86158\AppData\Local\Temp\cc7jsRHQ.s 			page 13


 528              	.LVL71:
 529 004c F0E7     		b	.L50
 530              	.LVL72:
 531              	.L62:
  93:Device/Src/power.c ****             buff = GPIO_PIN_2 << lineNum;
 532              		.loc 1 93 9 is_stmt 1 view .LVU126
  93:Device/Src/power.c ****             buff = GPIO_PIN_2 << lineNum;
 533              		.loc 1 93 12 is_stmt 0 view .LVU127
 534 004e 0728     		cmp	r0, #7
 535 0050 10D8     		bhi	.L55
  94:Device/Src/power.c ****         } else {
 536              		.loc 1 94 13 is_stmt 1 view .LVU128
  94:Device/Src/power.c ****         } else {
 537              		.loc 1 94 31 is_stmt 0 view .LVU129
 538 0052 0424     		movs	r4, #4
 539 0054 04FA00F0 		lsl	r0, r4, r0
 540              	.LVL73:
  94:Device/Src/power.c ****         } else {
 541              		.loc 1 94 18 view .LVU130
 542 0058 84B2     		uxth	r4, r0
 543              	.LVL74:
 544              	.L56:
  98:Device/Src/power.c ****                             GPIO_PIN_8|GPIO_PIN_9|GPIO_PIN_12|GPIO_PIN_13, GPIO_PIN_SET);
 545              		.loc 1 98 9 is_stmt 1 view .LVU131
 546 005a 0D4D     		ldr	r5, .L63
 547 005c 0122     		movs	r2, #1
 548 005e 43F2FC31 		movw	r1, #13308
 549              	.LVL75:
  98:Device/Src/power.c ****                             GPIO_PIN_8|GPIO_PIN_9|GPIO_PIN_12|GPIO_PIN_13, GPIO_PIN_SET);
 550              		.loc 1 98 9 is_stmt 0 view .LVU132
 551 0062 2846     		mov	r0, r5
 552 0064 FFF7FEFF 		bl	HAL_GPIO_WritePin
 553              	.LVL76:
 100:Device/Src/power.c ****     } else {
 554              		.loc 1 100 9 is_stmt 1 view .LVU133
 555 0068 0022     		movs	r2, #0
 556 006a 2146     		mov	r1, r4
 557 006c 2846     		mov	r0, r5
 558 006e FFF7FEFF 		bl	HAL_GPIO_WritePin
 559              	.LVL77:
 560 0072 DDE7     		b	.L50
 561              	.LVL78:
 562              	.L55:
  96:Device/Src/power.c ****         }
 563              		.loc 1 96 13 view .LVU134
  96:Device/Src/power.c ****         }
 564              		.loc 1 96 44 is_stmt 0 view .LVU135
 565 0074 0838     		subs	r0, r0, #8
 566              	.LVL79:
  96:Device/Src/power.c ****         }
 567              		.loc 1 96 32 view .LVU136
 568 0076 4FF48054 		mov	r4, #4096
 569 007a 04FA00F0 		lsl	r0, r4, r0
  96:Device/Src/power.c ****         }
 570              		.loc 1 96 18 view .LVU137
 571 007e 84B2     		uxth	r4, r0
 572              	.LVL80:
ARM GAS  C:\Users\86158\AppData\Local\Temp\cc7jsRHQ.s 			page 14


  96:Device/Src/power.c ****         }
 573              		.loc 1 96 18 view .LVU138
 574 0080 EBE7     		b	.L56
 575              	.LVL81:
 576              	.L57:
 105:Device/Src/power.c ****         }
 577              		.loc 1 105 13 is_stmt 1 view .LVU139
 105:Device/Src/power.c ****         }
 578              		.loc 1 105 44 is_stmt 0 view .LVU140
 579 0082 0838     		subs	r0, r0, #8
 580              	.LVL82:
 105:Device/Src/power.c ****         }
 581              		.loc 1 105 32 view .LVU141
 582 0084 4FF48054 		mov	r4, #4096
 583 0088 04FA00F0 		lsl	r0, r4, r0
 105:Device/Src/power.c ****         }
 584              		.loc 1 105 18 view .LVU142
 585 008c 84B2     		uxth	r4, r0
 586              	.LVL83:
 105:Device/Src/power.c ****         }
 587              		.loc 1 105 18 view .LVU143
 588 008e C3E7     		b	.L58
 589              	.L64:
 590              		.align	2
 591              	.L63:
 592 0090 00040240 		.word	1073873920
 593              		.cfi_endproc
 594              	.LFE240:
 596              		.global	__aeabi_f2d
 597              		.global	__aeabi_ddiv
 598              		.global	__aeabi_dmul
 599              		.global	__aeabi_d2uiz
 600              		.section	.text.rtc_otp_power,"ax",%progbits
 601              		.align	1
 602              		.global	rtc_otp_power
 603              		.syntax unified
 604              		.thumb
 605              		.thumb_func
 607              	rtc_otp_power:
 608              	.LVL84:
 609              	.LFB241:
 112:Device/Src/power.c **** 
 113:Device/Src/power.c **** uint8_t rtc_otp_power(float vol)//配置dac电压
 114:Device/Src/power.c **** {
 610              		.loc 1 114 1 is_stmt 1 view -0
 611              		.cfi_startproc
 612              		@ args = 0, pretend = 0, frame = 0
 613              		@ frame_needed = 0, uses_anonymous_args = 0
 614              		.loc 1 114 1 is_stmt 0 view .LVU145
 615 0000 10B5     		push	{r4, lr}
 616              	.LCFI6:
 617              		.cfi_def_cfa_offset 8
 618              		.cfi_offset 4, -8
 619              		.cfi_offset 14, -4
 620 0002 10EE100A 		vmov	r0, s0
 115:Device/Src/power.c ****     HAL_DAC_SetValue(&hdac, DAC1_CHANNEL_1, DAC_ALIGN_12B_R, vol / L2722_GAIN / 3.3 * 4096);
 621              		.loc 1 115 5 is_stmt 1 view .LVU146
ARM GAS  C:\Users\86158\AppData\Local\Temp\cc7jsRHQ.s 			page 15


 622              		.loc 1 115 66 is_stmt 0 view .LVU147
 623 0006 FFF7FEFF 		bl	__aeabi_f2d
 624              	.LVL85:
 625              		.loc 1 115 66 view .LVU148
 626 000a 11A3     		adr	r3, .L67+8
 627 000c D3E90023 		ldrd	r2, [r3]
 628 0010 FFF7FEFF 		bl	__aeabi_ddiv
 629              	.LVL86:
 630              		.loc 1 115 79 view .LVU149
 631 0014 10A3     		adr	r3, .L67+16
 632 0016 D3E90023 		ldrd	r2, [r3]
 633 001a FFF7FEFF 		bl	__aeabi_ddiv
 634              	.LVL87:
 635              		.loc 1 115 85 view .LVU150
 636 001e 0022     		movs	r2, #0
 637 0020 094B     		ldr	r3, .L67
 638 0022 FFF7FEFF 		bl	__aeabi_dmul
 639              	.LVL88:
 640              		.loc 1 115 5 view .LVU151
 641 0026 FFF7FEFF 		bl	__aeabi_d2uiz
 642              	.LVL89:
 643 002a 0346     		mov	r3, r0
 644 002c 074C     		ldr	r4, .L67+4
 645 002e 0022     		movs	r2, #0
 646 0030 1146     		mov	r1, r2
 647 0032 2046     		mov	r0, r4
 648 0034 FFF7FEFF 		bl	HAL_DAC_SetValue
 649              	.LVL90:
 116:Device/Src/power.c ****     HAL_DAC_Start(&hdac, DAC1_CHANNEL_1);
 650              		.loc 1 116 5 is_stmt 1 view .LVU152
 651 0038 0021     		movs	r1, #0
 652 003a 2046     		mov	r0, r4
 653 003c FFF7FEFF 		bl	HAL_DAC_Start
 654              	.LVL91:
 117:Device/Src/power.c ****     return 1;
 655              		.loc 1 117 5 view .LVU153
 118:Device/Src/power.c **** }
 656              		.loc 1 118 1 is_stmt 0 view .LVU154
 657 0040 0120     		movs	r0, #1
 658 0042 10BD     		pop	{r4, pc}
 659              	.L68:
 660 0044 AFF30080 		.align	3
 661              	.L67:
 662 0048 0000B040 		.word	1085276160
 663 004c 00000000 		.word	hdac
 664 0050 66666666 		.word	1717986918
 665 0054 66661040 		.word	1074816614
 666 0058 66666666 		.word	1717986918
 667 005c 66660A40 		.word	1074423398
 668              		.cfi_endproc
 669              	.LFE241:
 671              		.section	.text.rtc_group_int_close,"ax",%progbits
 672              		.align	1
 673              		.global	rtc_group_int_close
 674              		.syntax unified
 675              		.thumb
 676              		.thumb_func
ARM GAS  C:\Users\86158\AppData\Local\Temp\cc7jsRHQ.s 			page 16


 678              	rtc_group_int_close:
 679              	.LFB242:
 119:Device/Src/power.c **** 
 120:Device/Src/power.c **** void rtc_group_int_close(void)
 121:Device/Src/power.c **** {
 680              		.loc 1 121 1 is_stmt 1 view -0
 681              		.cfi_startproc
 682              		@ args = 0, pretend = 0, frame = 24
 683              		@ frame_needed = 0, uses_anonymous_args = 0
 684 0000 70B5     		push	{r4, r5, r6, lr}
 685              	.LCFI7:
 686              		.cfi_def_cfa_offset 16
 687              		.cfi_offset 4, -16
 688              		.cfi_offset 5, -12
 689              		.cfi_offset 6, -8
 690              		.cfi_offset 14, -4
 691 0002 86B0     		sub	sp, sp, #24
 692              	.LCFI8:
 693              		.cfi_def_cfa_offset 40
 122:Device/Src/power.c **** 	/*user code */
 123:Device/Src/power.c ****   	GPIO_InitTypeDef GPIO_InitStruct = {0};
 694              		.loc 1 123 4 view .LVU156
 695              		.loc 1 123 21 is_stmt 0 view .LVU157
 696 0004 0024     		movs	r4, #0
 697 0006 0194     		str	r4, [sp, #4]
 698 0008 0294     		str	r4, [sp, #8]
 699 000a 0394     		str	r4, [sp, #12]
 700 000c 0494     		str	r4, [sp, #16]
 701 000e 0594     		str	r4, [sp, #20]
 124:Device/Src/power.c **** 	GPIO_InitStruct.Pin = GPIO_PIN_7;
 702              		.loc 1 124 2 is_stmt 1 view .LVU158
 703              		.loc 1 124 22 is_stmt 0 view .LVU159
 704 0010 8026     		movs	r6, #128
 705 0012 0196     		str	r6, [sp, #4]
 125:Device/Src/power.c **** 	GPIO_InitStruct.Mode = GPIO_MODE_OUTPUT_OD;
 706              		.loc 1 125 2 is_stmt 1 view .LVU160
 707              		.loc 1 125 23 is_stmt 0 view .LVU161
 708 0014 1123     		movs	r3, #17
 709 0016 0293     		str	r3, [sp, #8]
 126:Device/Src/power.c **** 	GPIO_InitStruct.Pull = GPIO_NOPULL;
 710              		.loc 1 126 2 is_stmt 1 view .LVU162
 127:Device/Src/power.c **** 	GPIO_InitStruct.Speed = GPIO_SPEED_FREQ_LOW;
 711              		.loc 1 127 2 view .LVU163
 128:Device/Src/power.c **** 	HAL_GPIO_Init(GPIOE, &GPIO_InitStruct);
 712              		.loc 1 128 2 view .LVU164
 713 0018 054D     		ldr	r5, .L71
 714 001a 01A9     		add	r1, sp, #4
 715 001c 2846     		mov	r0, r5
 716 001e FFF7FEFF 		bl	HAL_GPIO_Init
 717              	.LVL92:
 129:Device/Src/power.c ****     HAL_GPIO_WritePin(GPIOE, GPIO_PIN_7, GPIO_PIN_RESET);
 718              		.loc 1 129 5 view .LVU165
 719 0022 2246     		mov	r2, r4
 720 0024 3146     		mov	r1, r6
 721 0026 2846     		mov	r0, r5
 722 0028 FFF7FEFF 		bl	HAL_GPIO_WritePin
 723              	.LVL93:
ARM GAS  C:\Users\86158\AppData\Local\Temp\cc7jsRHQ.s 			page 17


 130:Device/Src/power.c **** }
 724              		.loc 1 130 1 is_stmt 0 view .LVU166
 725 002c 06B0     		add	sp, sp, #24
 726              	.LCFI9:
 727              		.cfi_def_cfa_offset 16
 728              		@ sp needed
 729 002e 70BD     		pop	{r4, r5, r6, pc}
 730              	.L72:
 731              		.align	2
 732              	.L71:
 733 0030 00100240 		.word	1073876992
 734              		.cfi_endproc
 735              	.LFE242:
 737              		.section	.text.rtc_group_scl_close,"ax",%progbits
 738              		.align	1
 739              		.global	rtc_group_scl_close
 740              		.syntax unified
 741              		.thumb
 742              		.thumb_func
 744              	rtc_group_scl_close:
 745              	.LFB243:
 131:Device/Src/power.c **** 
 132:Device/Src/power.c **** void rtc_group_scl_close(void)
 133:Device/Src/power.c **** {
 746              		.loc 1 133 1 is_stmt 1 view -0
 747              		.cfi_startproc
 748              		@ args = 0, pretend = 0, frame = 24
 749              		@ frame_needed = 0, uses_anonymous_args = 0
 750 0000 70B5     		push	{r4, r5, r6, lr}
 751              	.LCFI10:
 752              		.cfi_def_cfa_offset 16
 753              		.cfi_offset 4, -16
 754              		.cfi_offset 5, -12
 755              		.cfi_offset 6, -8
 756              		.cfi_offset 14, -4
 757 0002 86B0     		sub	sp, sp, #24
 758              	.LCFI11:
 759              		.cfi_def_cfa_offset 40
 134:Device/Src/power.c ****   	GPIO_InitTypeDef GPIO_InitStruct = {0};
 760              		.loc 1 134 4 view .LVU168
 761              		.loc 1 134 21 is_stmt 0 view .LVU169
 762 0004 0024     		movs	r4, #0
 763 0006 0194     		str	r4, [sp, #4]
 764 0008 0294     		str	r4, [sp, #8]
 765 000a 0394     		str	r4, [sp, #12]
 766 000c 0494     		str	r4, [sp, #16]
 767 000e 0594     		str	r4, [sp, #20]
 135:Device/Src/power.c ****     GPIO_InitStruct.Pin = GPIO_PIN_0|GPIO_PIN_1|GPIO_PIN_2|GPIO_PIN_3|GPIO_PIN_4|GPIO_PIN_5|GPIO_PI
 768              		.loc 1 135 5 is_stmt 1 view .LVU170
 769              		.loc 1 135 25 is_stmt 0 view .LVU171
 770 0010 40F2FF36 		movw	r6, #1023
 771 0014 0196     		str	r6, [sp, #4]
 136:Device/Src/power.c ****     GPIO_InitStruct.Mode =  GPIO_MODE_OUTPUT_OD;
 772              		.loc 1 136 5 is_stmt 1 view .LVU172
 773              		.loc 1 136 26 is_stmt 0 view .LVU173
 774 0016 1123     		movs	r3, #17
 775 0018 0293     		str	r3, [sp, #8]
ARM GAS  C:\Users\86158\AppData\Local\Temp\cc7jsRHQ.s 			page 18


 137:Device/Src/power.c ****     GPIO_InitStruct.Pull = GPIO_NOPULL;
 776              		.loc 1 137 5 is_stmt 1 view .LVU174
 138:Device/Src/power.c ****     GPIO_InitStruct.Speed = GPIO_SPEED_FREQ_LOW;
 777              		.loc 1 138 5 view .LVU175
 139:Device/Src/power.c ****     HAL_GPIO_Init(GPIOC, &GPIO_InitStruct);  
 778              		.loc 1 139 5 view .LVU176
 779 001a 064D     		ldr	r5, .L75
 780 001c 01A9     		add	r1, sp, #4
 781 001e 2846     		mov	r0, r5
 782 0020 FFF7FEFF 		bl	HAL_GPIO_Init
 783              	.LVL94:
 140:Device/Src/power.c ****     HAL_GPIO_WritePin(GPIOC, 0x03ff, GPIO_PIN_RESET);//SCL 拉低
 784              		.loc 1 140 5 view .LVU177
 785 0024 2246     		mov	r2, r4
 786 0026 3146     		mov	r1, r6
 787 0028 2846     		mov	r0, r5
 788 002a FFF7FEFF 		bl	HAL_GPIO_WritePin
 789              	.LVL95:
 141:Device/Src/power.c **** }
 790              		.loc 1 141 1 is_stmt 0 view .LVU178
 791 002e 06B0     		add	sp, sp, #24
 792              	.LCFI12:
 793              		.cfi_def_cfa_offset 16
 794              		@ sp needed
 795 0030 70BD     		pop	{r4, r5, r6, pc}
 796              	.L76:
 797 0032 00BF     		.align	2
 798              	.L75:
 799 0034 00080240 		.word	1073874944
 800              		.cfi_endproc
 801              	.LFE243:
 803              		.section	.text.rtc_group_power,"ax",%progbits
 804              		.align	1
 805              		.global	rtc_group_power
 806              		.syntax unified
 807              		.thumb
 808              		.thumb_func
 810              	rtc_group_power:
 811              	.LVL96:
 812              	.LFB244:
 142:Device/Src/power.c **** 
 143:Device/Src/power.c **** void rtc_group_power(uint8_t channel, uint8_t mode)
 144:Device/Src/power.c **** {
 813              		.loc 1 144 1 is_stmt 1 view -0
 814              		.cfi_startproc
 815              		@ args = 0, pretend = 0, frame = 0
 816              		@ frame_needed = 0, uses_anonymous_args = 0
 817              		.loc 1 144 1 is_stmt 0 view .LVU180
 818 0000 38B5     		push	{r3, r4, r5, lr}
 819              	.LCFI13:
 820              		.cfi_def_cfa_offset 16
 821              		.cfi_offset 3, -16
 822              		.cfi_offset 4, -12
 823              		.cfi_offset 5, -8
 824              		.cfi_offset 14, -4
 145:Device/Src/power.c ****     if (channel < 1) { channel = 1; }
 825              		.loc 1 145 5 is_stmt 1 view .LVU181
ARM GAS  C:\Users\86158\AppData\Local\Temp\cc7jsRHQ.s 			page 19


 826              		.loc 1 145 8 is_stmt 0 view .LVU182
 827 0002 20B1     		cbz	r0, .L85
 828 0004 0446     		mov	r4, r0
 146:Device/Src/power.c ****     if (channel > MAX_CHIP_NUMBER) { channel = MAX_CHIP_NUMBER; }
 829              		.loc 1 146 5 is_stmt 1 view .LVU183
 830              		.loc 1 146 8 is_stmt 0 view .LVU184
 831 0006 6428     		cmp	r0, #100
 832 0008 02D9     		bls	.L78
 833              		.loc 1 146 46 view .LVU185
 834 000a 6424     		movs	r4, #100
 835 000c 00E0     		b	.L78
 836              	.L85:
 145:Device/Src/power.c ****     if (channel < 1) { channel = 1; }
 837              		.loc 1 145 32 view .LVU186
 838 000e 0124     		movs	r4, #1
 839              	.L78:
 840              	.LVL97:
 147:Device/Src/power.c ****     switch (mode) {
 841              		.loc 1 147 5 is_stmt 1 view .LVU187
 842 0010 0329     		cmp	r1, #3
 843 0012 1ED8     		bhi	.L77
 844 0014 DFE801F0 		tbb	[pc, r1]
 845              	.L81:
 846 0018 02       		.byte	(.L84-.L81)/2
 847 0019 1E       		.byte	(.L83-.L81)/2
 848 001a 40       		.byte	(.L82-.L81)/2
 849 001b 68       		.byte	(.L80-.L81)/2
 850              		.p2align 1
 851              	.L84:
 148:Device/Src/power.c ****         case POWER_OFF:  //全部关闭电源
 149:Device/Src/power.c ****             HAL_GPIO_WritePin(GPIOD, GPIO_PIN_12 | GPIO_PIN_13 | GPIO_PIN_14 | GPIO_PIN_15, GPIO_PI
 852              		.loc 1 149 13 view .LVU188
 853 001c 0122     		movs	r2, #1
 854 001e 4FF47041 		mov	r1, #61440
 855              	.LVL98:
 856              		.loc 1 149 13 is_stmt 0 view .LVU189
 857 0022 4548     		ldr	r0, .L88
 858 0024 FFF7FEFF 		bl	HAL_GPIO_WritePin
 859              	.LVL99:
 150:Device/Src/power.c ****             HAL_GPIO_WritePin(GPIOE, GPIO_PIN_6, GPIO_PIN_SET);//VCE_SDA选择VCE通道，但VCE均关闭
 860              		.loc 1 150 13 is_stmt 1 view .LVU190
 861 0028 0122     		movs	r2, #1
 862 002a 4021     		movs	r1, #64
 863 002c 4348     		ldr	r0, .L88+4
 864 002e FFF7FEFF 		bl	HAL_GPIO_WritePin
 865              	.LVL100:
 151:Device/Src/power.c ****             rtc_group_scl_close();//scl拉低
 866              		.loc 1 151 13 view .LVU191
 867 0032 FFF7FEFF 		bl	rtc_group_scl_close
 868              	.LVL101:
 152:Device/Src/power.c ****             rtc_group_int_close();//INT 拉低
 869              		.loc 1 152 13 view .LVU192
 870 0036 FFF7FEFF 		bl	rtc_group_int_close
 871              	.LVL102:
 153:Device/Src/power.c ****             rtc_horizontal_bat_control(0, ALL_CLOSE);
 872              		.loc 1 153 13 view .LVU193
 873 003a 0021     		movs	r1, #0
ARM GAS  C:\Users\86158\AppData\Local\Temp\cc7jsRHQ.s 			page 20


 874 003c 0846     		mov	r0, r1
 875 003e FFF7FEFF 		bl	rtc_horizontal_bat_control
 876              	.LVL103:
 154:Device/Src/power.c ****             rtc_horizontal_vdd_control(0, ALL_CLOSE);
 877              		.loc 1 154 13 view .LVU194
 878 0042 0021     		movs	r1, #0
 879 0044 0846     		mov	r0, r1
 880 0046 FFF7FEFF 		bl	rtc_horizontal_vdd_control
 881              	.LVL104:
 155:Device/Src/power.c ****             rtc_vertical_control(0, ALL_CLOSE);
 882              		.loc 1 155 13 view .LVU195
 883 004a 0021     		movs	r1, #0
 884 004c 0846     		mov	r0, r1
 885 004e FFF7FEFF 		bl	rtc_vertical_control
 886              	.LVL105:
 156:Device/Src/power.c ****         break;
 887              		.loc 1 156 9 view .LVU196
 888              	.L77:
 157:Device/Src/power.c ****         case POWER_I2C:  //I2C通信模式，也就是正常模式
 158:Device/Src/power.c ****             rtc_horizontal_bat_control(0, ALL_CLOSE);//bat电流关闭
 159:Device/Src/power.c ****             rtc_horizontal_vdd_control(0, ALL_OPEN);//全部行打开
 160:Device/Src/power.c ****             HAL_GPIO_WritePin(GPIOE, GPIO_PIN_15, GPIO_PIN_RESET);//VDD_TEST模拟开关切换到VDD_SW通
 161:Device/Src/power.c ****             rtc_vertical_control(0, ALL_OPEN);//全部列打开
 162:Device/Src/power.c ****             HAL_GPIO_WritePin(GPIOE, GPIO_PIN_6, GPIO_PIN_RESET);//VCE_SDA选择SDA通道
 163:Device/Src/power.c ****             rtc_otp_power(3.3);//输出3.3V，防止电压倒灌到寄生二极管
 164:Device/Src/power.c ****             HAL_GPIO_WritePin(GPIOE, GPIO_PIN_7, GPIO_PIN_SET);//INT 拉高
 165:Device/Src/power.c ****             // rtc_set_channel(channel, RTC_COMMON);
 166:Device/Src/power.c ****         break;
 167:Device/Src/power.c ****         case POWER_BAT_I:    //BAT电流测试模式
 168:Device/Src/power.c ****             HAL_GPIO_WritePin(GPIOE, GPIO_PIN_15, GPIO_PIN_RESET);//开关选择2.5V
 169:Device/Src/power.c ****             rtc_group_int_close();//INT 拉低
 170:Device/Src/power.c ****             //选择行开关
 171:Device/Src/power.c ****             rtc_horizontal_bat_control((channel - 1) / 10, ONE_OPEN_OTHER_CLOSE);
 172:Device/Src/power.c ****             rtc_horizontal_vdd_control(0, ALL_CLOSE);//VDD通路关闭
 173:Device/Src/power.c ****             //选择列开关
 174:Device/Src/power.c ****             rtc_vertical_control((channel - 1) % 10, ONE_OPEN_OTHER_CLOSE);
 175:Device/Src/power.c ****             HAL_GPIO_WritePin(GPIOD, GPIO_PIN_12 |GPIO_PIN_13 |GPIO_PIN_14 |GPIO_PIN_15, GPIO_PIN_S
 176:Device/Src/power.c ****             rtc_group_scl_close();///SCL 拉低
 177:Device/Src/power.c ****         break;
 178:Device/Src/power.c ****         case POWER_VDD_I:    //VDD电流测试模式
 179:Device/Src/power.c ****             HAL_GPIO_WritePin(GPIOE, GPIO_PIN_15, GPIO_PIN_SET);//开关选择2.5V
 180:Device/Src/power.c ****             rtc_group_int_close();//INT 拉低
 181:Device/Src/power.c ****             //选择行开关
 182:Device/Src/power.c ****             rtc_horizontal_vdd_control((channel - 1) / 10, ONE_OPEN_OTHER_CLOSE);
 183:Device/Src/power.c ****             rtc_horizontal_bat_control(0, ALL_CLOSE);//battery通路关闭
 184:Device/Src/power.c ****             //选择列开关
 185:Device/Src/power.c ****             rtc_vertical_control((channel - 1) % 10, ONE_OPEN_OTHER_CLOSE);
 186:Device/Src/power.c ****             HAL_GPIO_WritePin(GPIOD, GPIO_PIN_12 |GPIO_PIN_13 |GPIO_PIN_14 |GPIO_PIN_15, GPIO_PIN_S
 187:Device/Src/power.c ****             rtc_group_scl_close();///SCL 拉低
 188:Device/Src/power.c ****         break;
 189:Device/Src/power.c ****         default:break;
 190:Device/Src/power.c ****     }
 191:Device/Src/power.c **** }...
 889              		.loc 1 191 1 is_stmt 0 view .LVU197
 890 0052 38BD     		pop	{r3, r4, r5, pc}
 891              	.LVL106:
 892              	.L83:
ARM GAS  C:\Users\86158\AppData\Local\Temp\cc7jsRHQ.s 			page 21


 158:Device/Src/power.c ****             rtc_horizontal_bat_control(0, ALL_CLOSE);//bat电流关闭
 893              		.loc 1 158 13 is_stmt 1 view .LVU198
 894 0054 0021     		movs	r1, #0
 895              	.LVL107:
 158:Device/Src/power.c ****             rtc_horizontal_bat_control(0, ALL_CLOSE);//bat电流关闭
 896              		.loc 1 158 13 is_stmt 0 view .LVU199
 897 0056 0846     		mov	r0, r1
 898 0058 FFF7FEFF 		bl	rtc_horizontal_bat_control
 899              	.LVL108:
 159:Device/Src/power.c ****             rtc_horizontal_vdd_control(0, ALL_OPEN);//全部行打开
 900              		.loc 1 159 13 is_stmt 1 view .LVU200
 901 005c 0121     		movs	r1, #1
 902 005e 0020     		movs	r0, #0
 903 0060 FFF7FEFF 		bl	rtc_horizontal_vdd_control
 904              	.LVL109:
 160:Device/Src/power.c ****             HAL_GPIO_WritePin(GPIOE, GPIO_PIN_15, GPIO_PIN_RESET);//VDD_TEST模拟开关切换到VDD_SW通
 905              		.loc 1 160 13 view .LVU201
 906 0064 354C     		ldr	r4, .L88+4
 907              	.LVL110:
 160:Device/Src/power.c ****             HAL_GPIO_WritePin(GPIOE, GPIO_PIN_15, GPIO_PIN_RESET);//VDD_TEST模拟开关切换到VDD_SW通
 908              		.loc 1 160 13 is_stmt 0 view .LVU202
 909 0066 0022     		movs	r2, #0
 910 0068 4FF40041 		mov	r1, #32768
 911 006c 2046     		mov	r0, r4
 912 006e FFF7FEFF 		bl	HAL_GPIO_WritePin
 913              	.LVL111:
 161:Device/Src/power.c ****             rtc_vertical_control(0, ALL_OPEN);//全部列打开
 914              		.loc 1 161 13 is_stmt 1 view .LVU203
 915 0072 0121     		movs	r1, #1
 916 0074 0020     		movs	r0, #0
 917 0076 FFF7FEFF 		bl	rtc_vertical_control
 918              	.LVL112:
 162:Device/Src/power.c ****             HAL_GPIO_WritePin(GPIOE, GPIO_PIN_6, GPIO_PIN_RESET);//VCE_SDA选择SDA通道
 919              		.loc 1 162 13 view .LVU204
 920 007a 0022     		movs	r2, #0
 921 007c 4021     		movs	r1, #64
 922 007e 2046     		mov	r0, r4
 923 0080 FFF7FEFF 		bl	HAL_GPIO_WritePin
 924              	.LVL113:
 163:Device/Src/power.c ****             rtc_otp_power(3.3);//输出3.3V，防止电压倒灌到寄生二极管
 925              		.loc 1 163 13 view .LVU205
 926 0084 9FED2E0A 		vldr.32	s0, .L88+8
 927 0088 FFF7FEFF 		bl	rtc_otp_power
 928              	.LVL114:
 164:Device/Src/power.c ****             HAL_GPIO_WritePin(GPIOE, GPIO_PIN_7, GPIO_PIN_SET);//INT 拉高
 929              		.loc 1 164 13 view .LVU206
 930 008c 0122     		movs	r2, #1
 931 008e 8021     		movs	r1, #128
 932 0090 2046     		mov	r0, r4
 933 0092 FFF7FEFF 		bl	HAL_GPIO_WritePin
 934              	.LVL115:
 166:Device/Src/power.c ****         break;
 935              		.loc 1 166 9 view .LVU207
 936 0096 DCE7     		b	.L77
 937              	.LVL116:
 938              	.L82:
 168:Device/Src/power.c ****             HAL_GPIO_WritePin(GPIOE, GPIO_PIN_15, GPIO_PIN_RESET);//开关选择2.5V
ARM GAS  C:\Users\86158\AppData\Local\Temp\cc7jsRHQ.s 			page 22


 939              		.loc 1 168 13 view .LVU208
 940 0098 0022     		movs	r2, #0
 941 009a 4FF40041 		mov	r1, #32768
 942              	.LVL117:
 168:Device/Src/power.c ****             HAL_GPIO_WritePin(GPIOE, GPIO_PIN_15, GPIO_PIN_RESET);//开关选择2.5V
 943              		.loc 1 168 13 is_stmt 0 view .LVU209
 944 009e 2748     		ldr	r0, .L88+4
 945 00a0 FFF7FEFF 		bl	HAL_GPIO_WritePin
 946              	.LVL118:
 169:Device/Src/power.c ****             rtc_group_int_close();//INT 拉低
 947              		.loc 1 169 13 is_stmt 1 view .LVU210
 948 00a4 FFF7FEFF 		bl	rtc_group_int_close
 949              	.LVL119:
 171:Device/Src/power.c ****             rtc_horizontal_bat_control((channel - 1) / 10, ONE_OPEN_OTHER_CLOSE);
 950              		.loc 1 171 13 view .LVU211
 171:Device/Src/power.c ****             rtc_horizontal_bat_control((channel - 1) / 10, ONE_OPEN_OTHER_CLOSE);
 951              		.loc 1 171 49 is_stmt 0 view .LVU212
 952 00a8 013C     		subs	r4, r4, #1
 953              	.LVL120:
 171:Device/Src/power.c ****             rtc_horizontal_bat_control((channel - 1) / 10, ONE_OPEN_OTHER_CLOSE);
 954              		.loc 1 171 54 view .LVU213
 955 00aa 2648     		ldr	r0, .L88+12
 956 00ac 80FB0430 		smull	r3, r0, r0, r4
 957 00b0 E517     		asrs	r5, r4, #31
 958 00b2 C5EBA005 		rsb	r5, r5, r0, asr #2
 171:Device/Src/power.c ****             rtc_horizontal_bat_control((channel - 1) / 10, ONE_OPEN_OTHER_CLOSE);
 959              		.loc 1 171 13 view .LVU214
 960 00b6 0221     		movs	r1, #2
 961 00b8 E8B2     		uxtb	r0, r5
 962 00ba FFF7FEFF 		bl	rtc_horizontal_bat_control
 963              	.LVL121:
 172:Device/Src/power.c ****             rtc_horizontal_vdd_control(0, ALL_CLOSE);//VDD通路关闭
 964              		.loc 1 172 13 is_stmt 1 view .LVU215
 965 00be 0021     		movs	r1, #0
 966 00c0 0846     		mov	r0, r1
 967 00c2 FFF7FEFF 		bl	rtc_horizontal_vdd_control
 968              	.LVL122:
 174:Device/Src/power.c ****             rtc_vertical_control((channel - 1) % 10, ONE_OPEN_OTHER_CLOSE);
 969              		.loc 1 174 13 view .LVU216
 174:Device/Src/power.c ****             rtc_vertical_control((channel - 1) % 10, ONE_OPEN_OTHER_CLOSE);
 970              		.loc 1 174 48 is_stmt 0 view .LVU217
 971 00c6 05EB8505 		add	r5, r5, r5, lsl #2
 972 00ca A4EB4504 		sub	r4, r4, r5, lsl #1
 174:Device/Src/power.c ****             rtc_vertical_control((channel - 1) % 10, ONE_OPEN_OTHER_CLOSE);
 973              		.loc 1 174 13 view .LVU218
 974 00ce 0221     		movs	r1, #2
 975 00d0 E0B2     		uxtb	r0, r4
 976 00d2 FFF7FEFF 		bl	rtc_vertical_control
 977              	.LVL123:
 175:Device/Src/power.c ****             HAL_GPIO_WritePin(GPIOD, GPIO_PIN_12 |GPIO_PIN_13 |GPIO_PIN_14 |GPIO_PIN_15, GPIO_PIN_S
 978              		.loc 1 175 13 is_stmt 1 view .LVU219
 979 00d6 0122     		movs	r2, #1
 980 00d8 4FF47041 		mov	r1, #61440
 981 00dc 1648     		ldr	r0, .L88
 982 00de FFF7FEFF 		bl	HAL_GPIO_WritePin
 983              	.LVL124:
 176:Device/Src/power.c ****             rtc_group_scl_close();///SCL 拉低
ARM GAS  C:\Users\86158\AppData\Local\Temp\cc7jsRHQ.s 			page 23


 984              		.loc 1 176 13 view .LVU220
 985 00e2 FFF7FEFF 		bl	rtc_group_scl_close
 986              	.LVL125:
 177:Device/Src/power.c ****         break;
 987              		.loc 1 177 9 view .LVU221
 988 00e6 B4E7     		b	.L77
 989              	.LVL126:
 990              	.L80:
 179:Device/Src/power.c ****             HAL_GPIO_WritePin(GPIOE, GPIO_PIN_15, GPIO_PIN_SET);//开关选择2.5V
 991              		.loc 1 179 13 view .LVU222
 992 00e8 0122     		movs	r2, #1
 993 00ea 4FF40041 		mov	r1, #32768
 994              	.LVL127:
 179:Device/Src/power.c ****             HAL_GPIO_WritePin(GPIOE, GPIO_PIN_15, GPIO_PIN_SET);//开关选择2.5V
 995              		.loc 1 179 13 is_stmt 0 view .LVU223
 996 00ee 1348     		ldr	r0, .L88+4
 997 00f0 FFF7FEFF 		bl	HAL_GPIO_WritePin
 998              	.LVL128:
 180:Device/Src/power.c ****             rtc_group_int_close();//INT 拉低
 999              		.loc 1 180 13 is_stmt 1 view .LVU224
 1000 00f4 FFF7FEFF 		bl	rtc_group_int_close
 1001              	.LVL129:
 182:Device/Src/power.c ****             rtc_horizontal_vdd_control((channel - 1) / 10, ONE_OPEN_OTHER_CLOSE);
 1002              		.loc 1 182 13 view .LVU225
 182:Device/Src/power.c ****             rtc_horizontal_vdd_control((channel - 1) / 10, ONE_OPEN_OTHER_CLOSE);
 1003              		.loc 1 182 49 is_stmt 0 view .LVU226
 1004 00f8 013C     		subs	r4, r4, #1
 1005              	.LVL130:
 182:Device/Src/power.c ****             rtc_horizontal_vdd_control((channel - 1) / 10, ONE_OPEN_OTHER_CLOSE);
 1006              		.loc 1 182 54 view .LVU227
 1007 00fa 1248     		ldr	r0, .L88+12
 1008 00fc 80FB0430 		smull	r3, r0, r0, r4
 1009 0100 E517     		asrs	r5, r4, #31
 1010 0102 C5EBA005 		rsb	r5, r5, r0, asr #2
 182:Device/Src/power.c ****             rtc_horizontal_vdd_control((channel - 1) / 10, ONE_OPEN_OTHER_CLOSE);
 1011              		.loc 1 182 13 view .LVU228
 1012 0106 0221     		movs	r1, #2
 1013 0108 E8B2     		uxtb	r0, r5
 1014 010a FFF7FEFF 		bl	rtc_horizontal_vdd_control
 1015              	.LVL131:
 183:Device/Src/power.c ****             rtc_horizontal_bat_control(0, ALL_CLOSE);//battery通路关闭
 1016              		.loc 1 183 13 is_stmt 1 view .LVU229
 1017 010e 0021     		movs	r1, #0
 1018 0110 0846     		mov	r0, r1
 1019 0112 FFF7FEFF 		bl	rtc_horizontal_bat_control
 1020              	.LVL132:
 185:Device/Src/power.c ****             rtc_vertical_control((channel - 1) % 10, ONE_OPEN_OTHER_CLOSE);
 1021              		.loc 1 185 13 view .LVU230
 185:Device/Src/power.c ****             rtc_vertical_control((channel - 1) % 10, ONE_OPEN_OTHER_CLOSE);
 1022              		.loc 1 185 48 is_stmt 0 view .LVU231
 1023 0116 05EB8505 		add	r5, r5, r5, lsl #2
 1024 011a A4EB4504 		sub	r4, r4, r5, lsl #1
 185:Device/Src/power.c ****             rtc_vertical_control((channel - 1) % 10, ONE_OPEN_OTHER_CLOSE);
 1025              		.loc 1 185 13 view .LVU232
 1026 011e 0221     		movs	r1, #2
 1027 0120 E0B2     		uxtb	r0, r4
 1028 0122 FFF7FEFF 		bl	rtc_vertical_control
ARM GAS  C:\Users\86158\AppData\Local\Temp\cc7jsRHQ.s 			page 24


 1029              	.LVL133:
 186:Device/Src/power.c ****             HAL_GPIO_WritePin(GPIOD, GPIO_PIN_12 |GPIO_PIN_13 |GPIO_PIN_14 |GPIO_PIN_15, GPIO_PIN_S
 1030              		.loc 1 186 13 is_stmt 1 view .LVU233
 1031 0126 0122     		movs	r2, #1
 1032 0128 4FF47041 		mov	r1, #61440
 1033 012c 0248     		ldr	r0, .L88
 1034 012e FFF7FEFF 		bl	HAL_GPIO_WritePin
 1035              	.LVL134:
 187:Device/Src/power.c ****             rtc_group_scl_close();///SCL 拉低
 1036              		.loc 1 187 13 view .LVU234
 1037 0132 FFF7FEFF 		bl	rtc_group_scl_close
 1038              	.LVL135:
 188:Device/Src/power.c ****         break;
 1039              		.loc 1 188 9 view .LVU235
 1040              		.loc 1 191 1 is_stmt 0 view .LVU236
 1041 0136 8CE7     		b	.L77
 1042              	.L89:
 1043              		.align	2
 1044              	.L88:
 1045 0138 000C0240 		.word	1073875968
 1046 013c 00100240 		.word	1073876992
 1047 0140 33335340 		.word	1079194419
 1048 0144 67666666 		.word	1717986919
 1049              		.cfi_endproc
 1050              	.LFE244:
 1052              		.text
 1053              	.Letext0:
 1054              		.file 2 "e:\\stm32-gcc\\gcc-arm-none-eabi-10.3-2021.10\\arm-none-eabi\\include\\machine\\_default_
 1055              		.file 3 "e:\\stm32-gcc\\gcc-arm-none-eabi-10.3-2021.10\\arm-none-eabi\\include\\sys\\_stdint.h"
 1056              		.file 4 "Drivers/CMSIS/Device/ST/STM32F4xx/Include/stm32f407xx.h"
 1057              		.file 5 "Drivers/STM32F4xx_HAL_Driver/Inc/stm32f4xx_hal_def.h"
 1058              		.file 6 "Drivers/STM32F4xx_HAL_Driver/Inc/stm32f4xx_hal_gpio.h"
 1059              		.file 7 "Drivers/STM32F4xx_HAL_Driver/Inc/stm32f4xx_hal_dma.h"
 1060              		.file 8 "Drivers/STM32F4xx_HAL_Driver/Inc/stm32f4xx_hal_dac.h"
 1061              		.file 9 "Device/Inc/power.h"
ARM GAS  C:\Users\86158\AppData\Local\Temp\cc7jsRHQ.s 			page 25

