ARM GAS  C:\Users\86158\AppData\Local\Temp\cc1OFnJc.s 			page 1


   1              		.cpu cortex-m4
   2              		.arch armv7e-m
   3              		.fpu fpv4-sp-d16
   4              		.eabi_attribute 27, 1
   5              		.eabi_attribute 28, 1
   6              		.eabi_attribute 20, 1
   7              		.eabi_attribute 21, 1
   8              		.eabi_attribute 23, 3
   9              		.eabi_attribute 24, 1
  10              		.eabi_attribute 25, 1
  11              		.eabi_attribute 26, 1
  12              		.eabi_attribute 30, 1
  13              		.eabi_attribute 34, 1
  14              		.eabi_attribute 18, 4
  15              		.file	"rtc.c"
  16              		.text
  17              	.Ltext0:
  18              		.cfi_sections	.debug_frame
  19              		.section	.text.rtc_read_temp,"ax",%progbits
  20              		.align	1
  21              		.global	rtc_read_temp
  22              		.syntax unified
  23              		.thumb
  24              		.thumb_func
  26              	rtc_read_temp:
  27              	.LVL0:
  28              	.LFB235:
  29              		.file 1 "Device/Src/rtc.c"
   1:Device/Src/rtc.c **** #include "main.h"
   2:Device/Src/rtc.c **** #include "rtc.h"
   3:Device/Src/rtc.c **** #include <string.h>
   4:Device/Src/rtc.c **** #include "drv_wave1006.h"
   5:Device/Src/rtc.c **** 
   6:Device/Src/rtc.c **** #define OTP_LENGTH_SD3900           1024
   7:Device/Src/rtc.c **** uint8_t g_otpBuffer[OTP_LENGTH_SD3900] = {0xff};
   8:Device/Src/rtc.c **** #define CAP_STEP_2D4			23
   9:Device/Src/rtc.c **** #define CAP_STEP_1D2			126
  10:Device/Src/rtc.c **** #define CAP_STEP_0D8			191
  11:Device/Src/rtc.c **** #define CAP_STEP_0D6			284
  12:Device/Src/rtc.c **** #define CAP_STEP_0D4			SD8800_CAP_LIST_MAX
  13:Device/Src/rtc.c **** 
  14:Device/Src/rtc.c **** uint8_t g_capList[SD8800_CAP_LIST_MAX + 1][2] = {
  15:Device/Src/rtc.c **** 	{0x10,0x00},
  16:Device/Src/rtc.c **** 	{0x10,0x02},
  17:Device/Src/rtc.c **** 	{0x10,0x03},
  18:Device/Src/rtc.c **** 	{0x10,0x04},
  19:Device/Src/rtc.c **** 	{0x10,0x10},
  20:Device/Src/rtc.c **** 	{0x10,0x07},
  21:Device/Src/rtc.c **** 	{0x10,0x12},
  22:Device/Src/rtc.c **** 	{0x10,0x0e},
  23:Device/Src/rtc.c **** 	{0x10,0x0f},
  24:Device/Src/rtc.c **** 	{0x10,0x22},
  25:Device/Src/rtc.c **** 	{0x10,0x28},
  26:Device/Src/rtc.c **** 	{0x10,0x29},
  27:Device/Src/rtc.c **** 	{0x10,0x26},
  28:Device/Src/rtc.c **** 	{0x10,0x2c},
  29:Device/Src/rtc.c **** 	{0x10,0x2d},
ARM GAS  C:\Users\86158\AppData\Local\Temp\cc1OFnJc.s 			page 2


  30:Device/Src/rtc.c **** 	{0x10,0x39},
  31:Device/Src/rtc.c **** 	{0x10,0x36},
  32:Device/Src/rtc.c **** 	{0x10,0x37},
  33:Device/Src/rtc.c **** 	{0x10,0x3d},
  34:Device/Src/rtc.c **** 	{0x10,0x40},
  35:Device/Src/rtc.c **** 	{0x10,0x41},
  36:Device/Src/rtc.c **** 	{0x10,0x42},
  37:Device/Src/rtc.c **** 	{0x10,0x44},
  38:Device/Src/rtc.c **** 	{0x10,0x46},
  39:Device/Src/rtc.c **** 	{0x10,0x4b},
  40:Device/Src/rtc.c **** 	{0x10,0x52},
  41:Device/Src/rtc.c **** 	{0x10,0x4d},
  42:Device/Src/rtc.c **** 	{0x10,0x60},
  43:Device/Src/rtc.c **** 	{0x10,0x59},
  44:Device/Src/rtc.c **** 	{0x10,0x55},
  45:Device/Src/rtc.c **** 	{0x10,0x56},
  46:Device/Src/rtc.c **** 	{0x10,0x5b},
  47:Device/Src/rtc.c **** 	{0x10,0x5c},
  48:Device/Src/rtc.c **** 	{0x10,0x64},
  49:Device/Src/rtc.c **** 	{0x10,0x69},
  50:Device/Src/rtc.c **** 	{0x10,0x6a},
  51:Device/Src/rtc.c **** 	{0x10,0x71},
  52:Device/Src/rtc.c **** 	{0x10,0x6c},
  53:Device/Src/rtc.c **** 	{0x10,0x78},
  54:Device/Src/rtc.c **** 	{0x10,0x6d},
  55:Device/Src/rtc.c **** 	{0x10,0x6e},
  56:Device/Src/rtc.c **** 	{0x10,0x79},
  57:Device/Src/rtc.c **** 	{0x10,0x6f},
  58:Device/Src/rtc.c **** 	{0x10,0x76},
  59:Device/Src/rtc.c **** 	{0x10,0x7c},
  60:Device/Src/rtc.c **** 	{0x10,0x80},
  61:Device/Src/rtc.c **** 	{0x10,0x7d},
  62:Device/Src/rtc.c **** 	{0x10,0x7e},
  63:Device/Src/rtc.c **** 	{0x10,0x82},
  64:Device/Src/rtc.c **** 	{0x10,0x7f},
  65:Device/Src/rtc.c **** 	{0x10,0x84},
  66:Device/Src/rtc.c **** 	{0x10,0x89},
  67:Device/Src/rtc.c **** 	{0x10,0x90},
  68:Device/Src/rtc.c **** 	{0x10,0x86},
  69:Device/Src/rtc.c **** 	{0x10,0x91},
  70:Device/Src/rtc.c **** 	{0x10,0x92},
  71:Device/Src/rtc.c **** 	{0x10,0x98},
  72:Device/Src/rtc.c **** 	{0x10,0x94},
  73:Device/Src/rtc.c **** 	{0x10,0x99},
  74:Device/Src/rtc.c **** 	{0x10,0x9a},
  75:Device/Src/rtc.c **** 	{0x10,0xa2},
  76:Device/Src/rtc.c **** 	{0x10,0xa8},
  77:Device/Src/rtc.c **** 	{0x10,0xa4},
  78:Device/Src/rtc.c **** 	{0x10,0xa9},
  79:Device/Src/rtc.c **** 	{0x10,0x9e},
  80:Device/Src/rtc.c **** 	{0x10,0xb1},
  81:Device/Src/rtc.c **** 	{0x10,0xab},
  82:Device/Src/rtc.c **** 	{0x10,0xb8},
  83:Device/Src/rtc.c **** 	{0x10,0xb3},
  84:Device/Src/rtc.c **** 	{0x10,0xae},
  85:Device/Src/rtc.c **** 	{0x10,0xb5},
  86:Device/Src/rtc.c **** 	{0x10,0xb6},
ARM GAS  C:\Users\86158\AppData\Local\Temp\cc1OFnJc.s 			page 3


  87:Device/Src/rtc.c **** 	{0x10,0xbb},
  88:Device/Src/rtc.c **** 	{0x10,0xb7},
  89:Device/Src/rtc.c **** 	{0x10,0xbd},
  90:Device/Src/rtc.c **** 	{0x10,0xbe},
  91:Device/Src/rtc.c **** 	{0x10,0xc0},
  92:Device/Src/rtc.c **** 	{0x10,0xc1},
  93:Device/Src/rtc.c **** 	{0x10,0xc2},
  94:Device/Src/rtc.c **** 	{0x10,0xc8},
  95:Device/Src/rtc.c **** 	{0x10,0xc4},
  96:Device/Src/rtc.c **** 	{0x10,0xc9},
  97:Device/Src/rtc.c **** 	{0x10,0xca},
  98:Device/Src/rtc.c **** 	{0x10,0xd1},
  99:Device/Src/rtc.c **** 	{0x10,0xcc},
 100:Device/Src/rtc.c **** 	{0x10,0xd8},
 101:Device/Src/rtc.c **** 	{0x10,0xd4},
 102:Device/Src/rtc.c **** 	{0x10,0xd9},
 103:Device/Src/rtc.c **** 	{0x10,0xda},
 104:Device/Src/rtc.c **** 	{0x10,0xd6},
 105:Device/Src/rtc.c **** 	{0x10,0xe3},
 106:Device/Src/rtc.c **** 	{0x10,0xe9},
 107:Device/Src/rtc.c **** 	{0x10,0xe5},
 108:Device/Src/rtc.c **** 	{0x10,0xf1},
 109:Device/Src/rtc.c **** 	{0x10,0xec},
 110:Device/Src/rtc.c **** 	{0x10,0xf8},
 111:Device/Src/rtc.c **** 	{0x10,0xf4},
 112:Device/Src/rtc.c **** 	{0x10,0xf9},
 113:Device/Src/rtc.c **** 	{0x10,0xef},
 114:Device/Src/rtc.c **** 	{0x10,0xfb},
 115:Device/Src/rtc.c **** 	{0x10,0xf7},
 116:Device/Src/rtc.c **** 	{0x10,0xfd},
 117:Device/Src/rtc.c **** 	{0x10,0xfe},
 118:Device/Src/rtc.c **** 	{0x11,0x04},
 119:Device/Src/rtc.c **** 	{0x11,0x09},
 120:Device/Src/rtc.c **** 	{0x11,0x0a},
 121:Device/Src/rtc.c **** 	{0x11,0x11},
 122:Device/Src/rtc.c **** 	{0x11,0x12},
 123:Device/Src/rtc.c **** 	{0x11,0x0d},
 124:Device/Src/rtc.c **** 	{0x11,0x0e},
 125:Device/Src/rtc.c **** 	{0x11,0x21},
 126:Device/Src/rtc.c **** 	{0x11,0x16},
 127:Device/Src/rtc.c **** 	{0x11,0x1c},
 128:Device/Src/rtc.c **** 	{0x11,0x29},
 129:Device/Src/rtc.c **** 	{0x11,0x25},
 130:Device/Src/rtc.c **** 	{0x11,0x31},
 131:Device/Src/rtc.c **** 	{0x11,0x32},
 132:Device/Src/rtc.c **** 	{0x11,0x2d},
 133:Device/Src/rtc.c **** 	{0x11,0x34},
 134:Device/Src/rtc.c **** 	{0x11,0x3a},
 135:Device/Src/rtc.c **** 	{0x11,0x36},
 136:Device/Src/rtc.c **** 	{0x11,0x3c},
 137:Device/Src/rtc.c **** 	{0x11,0x37},
 138:Device/Src/rtc.c **** 	{0x11,0x3e},
 139:Device/Src/rtc.c **** 	{0x11,0x40},
 140:Device/Src/rtc.c **** 	{0x11,0x3f},
 141:Device/Src/rtc.c **** 	{0x11,0x42},
 142:Device/Src/rtc.c **** 	{0x11,0x48},
 143:Device/Src/rtc.c **** 	{0x11,0x44},
ARM GAS  C:\Users\86158\AppData\Local\Temp\cc1OFnJc.s 			page 4


 144:Device/Src/rtc.c **** 	{0x11,0x49},
 145:Device/Src/rtc.c **** 	{0x11,0x45},
 146:Device/Src/rtc.c **** 	{0x11,0x4a},
 147:Device/Src/rtc.c **** 	{0x11,0x51},
 148:Device/Src/rtc.c **** 	{0x11,0x4c},
 149:Device/Src/rtc.c **** 	{0x11,0x58},
 150:Device/Src/rtc.c **** 	{0x11,0x4d},
 151:Device/Src/rtc.c **** 	{0x11,0x4e},
 152:Device/Src/rtc.c **** 	{0x11,0x61},
 153:Device/Src/rtc.c **** 	{0x11,0x4f},
 154:Device/Src/rtc.c **** 	{0x11,0x56},
 155:Device/Src/rtc.c **** 	{0x11,0x5b},
 156:Device/Src/rtc.c **** 	{0x11,0x57},
 157:Device/Src/rtc.c **** 	{0x11,0x5d},
 158:Device/Src/rtc.c **** 	{0x11,0x6a},
 159:Device/Src/rtc.c **** 	{0x11,0x71},
 160:Device/Src/rtc.c **** 	{0x11,0x6b},
 161:Device/Src/rtc.c **** 	{0x11,0x67},
 162:Device/Src/rtc.c **** 	{0x11,0x73},
 163:Device/Src/rtc.c **** 	{0x11,0x79},
 164:Device/Src/rtc.c **** 	{0x11,0x6e},
 165:Device/Src/rtc.c **** 	{0x11,0x75},
 166:Device/Src/rtc.c **** 	{0x11,0x76},
 167:Device/Src/rtc.c **** 	{0x11,0x7c},
 168:Device/Src/rtc.c **** 	{0x11,0x77},
 169:Device/Src/rtc.c **** 	{0x11,0x7d},
 170:Device/Src/rtc.c **** 	{0x11,0x81},
 171:Device/Src/rtc.c **** 	{0x11,0x82},
 172:Device/Src/rtc.c **** 	{0x11,0x7f},
 173:Device/Src/rtc.c **** 	{0x11,0x83},
 174:Device/Src/rtc.c **** 	{0x11,0x84},
 175:Device/Src/rtc.c **** 	{0x11,0x90},
 176:Device/Src/rtc.c **** 	{0x11,0x8a},
 177:Device/Src/rtc.c **** 	{0x11,0x91},
 178:Device/Src/rtc.c **** 	{0x11,0x8c},
 179:Device/Src/rtc.c **** 	{0x11,0xa0},
 180:Device/Src/rtc.c **** 	{0x11,0x93},
 181:Device/Src/rtc.c **** 	{0x11,0x99},
 182:Device/Src/rtc.c **** 	{0x11,0x9a},
 183:Device/Src/rtc.c **** 	{0x11,0x8f},
 184:Device/Src/rtc.c **** 	{0x11,0x9b},
 185:Device/Src/rtc.c **** 	{0x11,0xa4},
 186:Device/Src/rtc.c **** 	{0x11,0xa9},
 187:Device/Src/rtc.c **** 	{0x11,0xa5},
 188:Device/Src/rtc.c **** 	{0x11,0xb1},
 189:Device/Src/rtc.c **** 	{0x11,0xb2},
 190:Device/Src/rtc.c **** 	{0x11,0xa7},
 191:Device/Src/rtc.c **** 	{0x11,0xb3},
 192:Device/Src/rtc.c **** 	{0x11,0xae},
 193:Device/Src/rtc.c **** 	{0x11,0xba},
 194:Device/Src/rtc.c **** 	{0x11,0xaf},
 195:Device/Src/rtc.c **** 	{0x11,0xbb},
 196:Device/Src/rtc.c **** 	{0x11,0xbc},
 197:Device/Src/rtc.c **** 	{0x11,0xb7},
 198:Device/Src/rtc.c **** 	{0x11,0xbe},
 199:Device/Src/rtc.c **** 	{0x11,0xc0},
 200:Device/Src/rtc.c **** 	{0x11,0xbf},
ARM GAS  C:\Users\86158\AppData\Local\Temp\cc1OFnJc.s 			page 5


 201:Device/Src/rtc.c **** 	{0x11,0xc1},
 202:Device/Src/rtc.c **** 	{0x11,0xc2},
 203:Device/Src/rtc.c **** 	{0x11,0xc8},
 204:Device/Src/rtc.c **** 	{0x11,0xc4},
 205:Device/Src/rtc.c **** 	{0x11,0xd0},
 206:Device/Src/rtc.c **** 	{0x11,0xca},
 207:Device/Src/rtc.c **** 	{0x11,0xd1},
 208:Device/Src/rtc.c **** 	{0x11,0xcb},
 209:Device/Src/rtc.c **** 	{0x11,0xd8},
 210:Device/Src/rtc.c **** 	{0x11,0xe0},
 211:Device/Src/rtc.c **** 	{0x11,0xd4},
 212:Device/Src/rtc.c **** 	{0x11,0xd9},
 213:Device/Src/rtc.c **** 	{0x11,0xda},
 214:Device/Src/rtc.c **** 	{0x11,0xe2},
 215:Device/Src/rtc.c **** 	{0x11,0xd6},
 216:Device/Src/rtc.c **** 	{0x11,0xdc},
 217:Device/Src/rtc.c **** 	{0x11,0xf0},
 218:Device/Src/rtc.c **** 	{0x11,0xdd},
 219:Device/Src/rtc.c **** 	{0x11,0xe5},
 220:Device/Src/rtc.c **** 	{0x11,0xf1},
 221:Device/Src/rtc.c **** 	{0x11,0xeb},
 222:Device/Src/rtc.c **** 	{0x11,0xf8},
 223:Device/Src/rtc.c **** 	{0x11,0xe7},
 224:Device/Src/rtc.c **** 	{0x11,0xf4},
 225:Device/Src/rtc.c **** 	{0x11,0xee},
 226:Device/Src/rtc.c **** 	{0x11,0xfa},
 227:Device/Src/rtc.c **** 	{0x11,0xf5},
 228:Device/Src/rtc.c **** 	{0x11,0xef},
 229:Device/Src/rtc.c **** 	{0x11,0xfc},
 230:Device/Src/rtc.c **** 	{0x12,0x02},
 231:Device/Src/rtc.c **** 	{0x12,0x08},
 232:Device/Src/rtc.c **** 	{0x12,0x03},
 233:Device/Src/rtc.c **** 	{0x12,0x04},
 234:Device/Src/rtc.c **** 	{0x12,0x10},
 235:Device/Src/rtc.c **** 	{0x12,0x0a},
 236:Device/Src/rtc.c **** 	{0x12,0x11},
 237:Device/Src/rtc.c **** 	{0x12,0x06},
 238:Device/Src/rtc.c **** 	{0x12,0x12},
 239:Device/Src/rtc.c **** 	{0x12,0x07},
 240:Device/Src/rtc.c **** 	{0x12,0x0d},
 241:Device/Src/rtc.c **** 	{0x12,0x19},
 242:Device/Src/rtc.c **** 	{0x12,0x1a},
 243:Device/Src/rtc.c **** 	{0x12,0x15},
 244:Device/Src/rtc.c **** 	{0x12,0x0f},
 245:Device/Src/rtc.c **** 	{0x12,0x1c},
 246:Device/Src/rtc.c **** 	{0x12,0x23},
 247:Device/Src/rtc.c **** 	{0x12,0x17},
 248:Device/Src/rtc.c **** 	{0x12,0x2a},
 249:Device/Src/rtc.c **** 	{0x12,0x1e},
 250:Device/Src/rtc.c **** 	{0x12,0x26},
 251:Device/Src/rtc.c **** 	{0x12,0x1f},
 252:Device/Src/rtc.c **** 	{0x12,0x27},
 253:Device/Src/rtc.c **** 	{0x12,0x39},
 254:Device/Src/rtc.c **** 	{0x12,0x2e},
 255:Device/Src/rtc.c **** 	{0x12,0x3a},
 256:Device/Src/rtc.c **** 	{0x12,0x35},
 257:Device/Src/rtc.c **** 	{0x12,0x3b},
ARM GAS  C:\Users\86158\AppData\Local\Temp\cc1OFnJc.s 			page 6


 258:Device/Src/rtc.c **** 	{0x12,0x3c},
 259:Device/Src/rtc.c **** 	{0x12,0x37},
 260:Device/Src/rtc.c **** 	{0x12,0x3d},
 261:Device/Src/rtc.c **** 	{0x12,0x3e},
 262:Device/Src/rtc.c **** 	{0x12,0x40},
 263:Device/Src/rtc.c **** 	{0x12,0x3f},
 264:Device/Src/rtc.c **** 	{0x12,0x3f},
 265:Device/Src/rtc.c **** 	{0x12,0x41},
 266:Device/Src/rtc.c **** 	{0x12,0x42},
 267:Device/Src/rtc.c **** 	{0x12,0x48},
 268:Device/Src/rtc.c **** 	{0x12,0x43},
 269:Device/Src/rtc.c **** 	{0x12,0x49},
 270:Device/Src/rtc.c **** 	{0x12,0x4a},
 271:Device/Src/rtc.c **** 	{0x12,0x45},
 272:Device/Src/rtc.c **** 	{0x12,0x46},
 273:Device/Src/rtc.c **** 	{0x12,0x4c},
 274:Device/Src/rtc.c **** 	{0x12,0x47},
 275:Device/Src/rtc.c **** 	{0x12,0x53},
 276:Device/Src/rtc.c **** 	{0x12,0x61},
 277:Device/Src/rtc.c **** 	{0x12,0x5a},
 278:Device/Src/rtc.c **** 	{0x12,0x68},
 279:Device/Src/rtc.c **** 	{0x12,0x56},
 280:Device/Src/rtc.c **** 	{0x12,0x63},
 281:Device/Src/rtc.c **** 	{0x12,0x57},
 282:Device/Src/rtc.c **** 	{0x12,0x6a},
 283:Device/Src/rtc.c **** 	{0x12,0x5e},
 284:Device/Src/rtc.c **** 	{0x12,0x78},
 285:Device/Src/rtc.c **** 	{0x12,0x5f},
 286:Device/Src/rtc.c **** 	{0x12,0x73},
 287:Device/Src/rtc.c **** 	{0x12,0x6d},
 288:Device/Src/rtc.c **** 	{0x12,0x6e},
 289:Device/Src/rtc.c **** 	{0x12,0x75},
 290:Device/Src/rtc.c **** 	{0x12,0x7b},
 291:Device/Src/rtc.c **** 	{0x12,0x7c},
 292:Device/Src/rtc.c **** 	{0x12,0x77},
 293:Device/Src/rtc.c **** 	{0x12,0x7d},
 294:Device/Src/rtc.c **** 	{0x12,0x7e},
 295:Device/Src/rtc.c **** 	{0x12,0x81},
 296:Device/Src/rtc.c **** 	{0x12,0x7f},
 297:Device/Src/rtc.c **** 	{0x12,0x88},
 298:Device/Src/rtc.c **** 	{0x12,0x84},
 299:Device/Src/rtc.c **** 	{0x12,0x90},
 300:Device/Src/rtc.c **** 	{0x12,0x8a},
 301:Device/Src/rtc.c **** 	{0x12,0x85},
 302:Device/Src/rtc.c **** 	{0x12,0x86},
 303:Device/Src/rtc.c **** 	{0x12,0x8b},
 304:Device/Src/rtc.c **** 	{0x12,0x8c},
 305:Device/Src/rtc.c **** 	{0x12,0x87},
 306:Device/Src/rtc.c **** 	{0x12,0x93},
 307:Device/Src/rtc.c **** 	{0x12,0x99},
 308:Device/Src/rtc.c **** 	{0x12,0xa1},
 309:Device/Src/rtc.c **** 	{0x12,0x9a},
 310:Device/Src/rtc.c **** 	{0x12,0x95},
 311:Device/Src/rtc.c **** 	{0x12,0x8f},
 312:Device/Src/rtc.c **** 	{0x12,0x96},
 313:Device/Src/rtc.c **** 	{0x12,0xa3},
 314:Device/Src/rtc.c **** 	{0x12,0xa9},
ARM GAS  C:\Users\86158\AppData\Local\Temp\cc1OFnJc.s 			page 7


 315:Device/Src/rtc.c **** 	{0x12,0x97},
 316:Device/Src/rtc.c **** 	{0x12,0xaa},
 317:Device/Src/rtc.c **** 	{0x12,0xa5},
 318:Device/Src/rtc.c **** 	{0x12,0x9e},
 319:Device/Src/rtc.c **** 	{0x12,0xb8},
 320:Device/Src/rtc.c **** 	{0x12,0xac},
 321:Device/Src/rtc.c **** 	{0x12,0x9f},
 322:Device/Src/rtc.c **** 	{0x12,0xb3},
 323:Device/Src/rtc.c **** 	{0x12,0xad},
 324:Device/Src/rtc.c **** 	{0x12,0xba},
 325:Device/Src/rtc.c **** 	{0x12,0xae},
 326:Device/Src/rtc.c **** 	{0x12,0xb5},
 327:Device/Src/rtc.c **** 	{0x12,0xaf},
 328:Device/Src/rtc.c **** 	{0x12,0xbc},
 329:Device/Src/rtc.c **** 	{0x12,0xbc},
 330:Device/Src/rtc.c **** 	{0x12,0xb7},
 331:Device/Src/rtc.c **** 	{0x12,0xb7},
 332:Device/Src/rtc.c **** 	{0x12,0xbd},
 333:Device/Src/rtc.c **** 	{0x12,0xbe},
 334:Device/Src/rtc.c **** 	{0x12,0xc0},
 335:Device/Src/rtc.c **** 	{0x12,0xbf},
 336:Device/Src/rtc.c **** 	{0x12,0xbf},
 337:Device/Src/rtc.c **** 	{0x12,0xc1},
 338:Device/Src/rtc.c **** 	{0x12,0xc1},
 339:Device/Src/rtc.c **** 	{0x12,0xc2},
 340:Device/Src/rtc.c **** 	{0x12,0xc8},
 341:Device/Src/rtc.c **** 	{0x12,0xc3},
 342:Device/Src/rtc.c **** 	{0x12,0xc3},
 343:Device/Src/rtc.c **** 	{0x12,0xc9},
 344:Device/Src/rtc.c **** 	{0x12,0xca},
 345:Device/Src/rtc.c **** 	{0x12,0xca},
 346:Device/Src/rtc.c **** 	{0x12,0xd1},
 347:Device/Src/rtc.c **** 	{0x12,0xc6},
 348:Device/Src/rtc.c **** 	{0x12,0xd8},
 349:Device/Src/rtc.c **** 	{0x12,0xe0},
 350:Device/Src/rtc.c **** 	{0x12,0xc7},
 351:Device/Src/rtc.c **** 	{0x12,0xd4},
 352:Device/Src/rtc.c **** 	{0x12,0xe1},
 353:Device/Src/rtc.c **** 	{0x12,0xda},
 354:Device/Src/rtc.c **** 	{0x12,0xe8},
 355:Device/Src/rtc.c **** 	{0x12,0xcf},
 356:Device/Src/rtc.c **** 	{0x12,0xd6},
 357:Device/Src/rtc.c **** 	{0x12,0xe4},
 358:Device/Src/rtc.c **** 	{0x12,0xd7},
 359:Device/Src/rtc.c **** 	{0x12,0xea},
 360:Device/Src/rtc.c **** 	{0x12,0xf1},
 361:Device/Src/rtc.c **** 	{0x12,0xde},
 362:Device/Src/rtc.c **** 	{0x12,0xeb},
 363:Device/Src/rtc.c **** 	{0x12,0xec},
 364:Device/Src/rtc.c **** 	{0x12,0xdf},
 365:Device/Src/rtc.c **** 	{0x12,0xf9},
 366:Device/Src/rtc.c **** 	{0x12,0xf4},
 367:Device/Src/rtc.c **** 	{0x12,0xee},
 368:Device/Src/rtc.c **** 	{0x12,0xf5},
 369:Device/Src/rtc.c **** 	{0x12,0xfb},
 370:Device/Src/rtc.c **** 	{0x12,0xfc},
 371:Device/Src/rtc.c **** 	{0x13,0x01},
ARM GAS  C:\Users\86158\AppData\Local\Temp\cc1OFnJc.s 			page 8


 372:Device/Src/rtc.c **** 	{0x13,0x01},
 373:Device/Src/rtc.c **** 	{0x12,0xfd},
 374:Device/Src/rtc.c **** 	{0x13,0x08},
 375:Device/Src/rtc.c **** 	{0x12,0xfe},
 376:Device/Src/rtc.c **** 	{0x13,0x03},
 377:Device/Src/rtc.c **** 	{0x13,0x10},
 378:Device/Src/rtc.c **** 	{0x12,0xff},
 379:Device/Src/rtc.c **** 	{0x13,0x0a},
 380:Device/Src/rtc.c **** 	{0x13,0x11},
 381:Device/Src/rtc.c **** 	{0x13,0x06},
 382:Device/Src/rtc.c **** 	{0x13,0x0c},
 383:Device/Src/rtc.c **** 	{0x13,0x20},
 384:Device/Src/rtc.c **** 	{0x13,0x07},
 385:Device/Src/rtc.c **** 	{0x13,0x0d},
 386:Device/Src/rtc.c **** 	{0x13,0x1a},
 387:Device/Src/rtc.c **** 	{0x13,0x22},
 388:Device/Src/rtc.c **** 	{0x13,0x15},
 389:Device/Src/rtc.c **** 	{0x13,0x1b},
 390:Device/Src/rtc.c **** 	{0x13,0x23},
 391:Device/Src/rtc.c **** 	{0x13,0x24},
 392:Device/Src/rtc.c **** 	{0x13,0x2a},
 393:Device/Src/rtc.c **** 	{0x13,0x31},
 394:Device/Src/rtc.c **** 	{0x13,0x1e},
 395:Device/Src/rtc.c **** 	{0x13,0x26},
 396:Device/Src/rtc.c **** 	{0x13,0x2c},
 397:Device/Src/rtc.c **** 	{0x13,0x1f},
 398:Device/Src/rtc.c **** 	{0x13,0x34},
 399:Device/Src/rtc.c **** 	{0x13,0x3a},
 400:Device/Src/rtc.c **** 	{0x13,0x2e},
 401:Device/Src/rtc.c **** 	{0x13,0x35},
 402:Device/Src/rtc.c **** 	{0x13,0x3b},
 403:Device/Src/rtc.c **** 	{0x13,0x2f},
 404:Device/Src/rtc.c **** 	{0x13,0x2f},
 405:Device/Src/rtc.c **** 	{0x13,0x37},
 406:Device/Src/rtc.c **** 	{0x13,0x3d},
 407:Device/Src/rtc.c **** 	{0x13,0x3e},
 408:Device/Src/rtc.c **** 	{0x13,0x3e},
 409:Device/Src/rtc.c **** 	{0x13,0x40},
 410:Device/Src/rtc.c **** 	{0x13,0x3f},
 411:Device/Src/rtc.c **** 	{0x13,0x3f},
 412:Device/Src/rtc.c **** 	{0x13,0x41},
 413:Device/Src/rtc.c **** 	{0x13,0x42},
 414:Device/Src/rtc.c **** 	{0x13,0x48},
 415:Device/Src/rtc.c **** 	{0x13,0x48},
 416:Device/Src/rtc.c **** 	{0x13,0x50},
 417:Device/Src/rtc.c **** 	{0x13,0x44},
 418:Device/Src/rtc.c **** 	{0x13,0x4a},
 419:Device/Src/rtc.c **** 	{0x13,0x51},
 420:Device/Src/rtc.c **** 	{0x13,0x46},
 421:Device/Src/rtc.c **** 	{0x13,0x52},
 422:Device/Src/rtc.c **** 	{0x13,0x60},
 423:Device/Src/rtc.c **** 	{0x13,0x47},
 424:Device/Src/rtc.c **** 	{0x13,0x61},
 425:Device/Src/rtc.c **** 	{0x13,0x5a},
 426:Device/Src/rtc.c **** 	{0x13,0x62},
 427:Device/Src/rtc.c **** 	{0x13,0x55},
 428:Device/Src/rtc.c **** 	{0x13,0x56},
ARM GAS  C:\Users\86158\AppData\Local\Temp\cc1OFnJc.s 			page 9


 429:Device/Src/rtc.c **** 	{0x13,0x69},
 430:Device/Src/rtc.c **** 	{0x13,0x6a},
 431:Device/Src/rtc.c **** 	{0x13,0x5d},
 432:Device/Src/rtc.c **** 	{0x13,0x65},
 433:Device/Src/rtc.c **** 	{0x13,0x6b},
 434:Device/Src/rtc.c **** 	{0x13,0x6c},
 435:Device/Src/rtc.c **** 	{0x13,0x5f},
 436:Device/Src/rtc.c **** 	{0x13,0x67},
 437:Device/Src/rtc.c **** 	{0x13,0x7a},
 438:Device/Src/rtc.c **** 	{0x13,0x6e},
 439:Device/Src/rtc.c **** 	{0x13,0x75},
 440:Device/Src/rtc.c **** 	{0x13,0x7c},
 441:Device/Src/rtc.c **** 	{0x13,0x6f},
 442:Device/Src/rtc.c **** 	{0x13,0x80},
 443:Device/Src/rtc.c **** 	{0x13,0x7d},
 444:Device/Src/rtc.c **** 	{0x13,0x7d},
 445:Device/Src/rtc.c **** 	{0x13,0x81},
 446:Device/Src/rtc.c **** 	{0x13,0x81},
 447:Device/Src/rtc.c **** 	{0x13,0x88},
 448:Device/Src/rtc.c **** 	{0x13,0x88},
 449:Device/Src/rtc.c **** 	{0x13,0x83},
 450:Device/Src/rtc.c **** 	{0x13,0x89},
 451:Device/Src/rtc.c **** 	{0x13,0x8a},
 452:Device/Src/rtc.c **** 	{0x13,0x91},
 453:Device/Src/rtc.c **** 	{0x13,0x85},
 454:Device/Src/rtc.c **** 	{0x13,0x98},
 455:Device/Src/rtc.c **** 	{0x13,0xa0},
 456:Device/Src/rtc.c **** 	{0x13,0x93},
 457:Device/Src/rtc.c **** 	{0x13,0x8d},
 458:Device/Src/rtc.c **** 	{0x13,0x8e},
 459:Device/Src/rtc.c **** 	{0x13,0xa8},
 460:Device/Src/rtc.c **** 	{0x13,0x9b},
 461:Device/Src/rtc.c **** 	{0x13,0x9c},
 462:Device/Src/rtc.c **** 	{0x13,0xa4},
 463:Device/Src/rtc.c **** 	{0x13,0xaa},
 464:Device/Src/rtc.c **** 	{0x13,0xa5},
 465:Device/Src/rtc.c **** 	{0x13,0x9e},
 466:Device/Src/rtc.c **** 	{0x13,0xac},
 467:Device/Src/rtc.c **** 	{0x13,0xb9},
 468:Device/Src/rtc.c **** 	{0x13,0xb4},
 469:Device/Src/rtc.c **** 	{0x13,0xba},
 470:Device/Src/rtc.c **** 	{0x13,0xae},
 471:Device/Src/rtc.c **** 	{0x13,0xb5},
 472:Device/Src/rtc.c **** 	{0x13,0xbb},
 473:Device/Src/rtc.c **** 	{0x13,0xaf},
 474:Device/Src/rtc.c **** 	{0x13,0xb7},
 475:Device/Src/rtc.c **** 	{0x13,0xbd},
 476:Device/Src/rtc.c **** 	{0x13,0xbe},
 477:Device/Src/rtc.c **** 	{0x13,0xc0},
 478:Device/Src/rtc.c **** 	{0x13,0xc0},
 479:Device/Src/rtc.c **** 	{0x13,0xbf},
 480:Device/Src/rtc.c **** 	{0x13,0xc1},
 481:Device/Src/rtc.c **** 	{0x13,0xc8},
 482:Device/Src/rtc.c **** 	{0x13,0xc2},
 483:Device/Src/rtc.c **** 	{0x13,0xd0},
 484:Device/Src/rtc.c **** 	{0x13,0xc9},
 485:Device/Src/rtc.c **** 	{0x13,0xca},
ARM GAS  C:\Users\86158\AppData\Local\Temp\cc1OFnJc.s 			page 10


 486:Device/Src/rtc.c **** 	{0x13,0xd1},
 487:Device/Src/rtc.c **** 	{0x13,0xd8},
 488:Device/Src/rtc.c **** 	{0x13,0xcb},
 489:Device/Src/rtc.c **** 	{0x13,0xcc},
 490:Device/Src/rtc.c **** 	{0x13,0xc7},
 491:Device/Src/rtc.c **** 	{0x13,0xd4},
 492:Device/Src/rtc.c **** 	{0x13,0xe8},
 493:Device/Src/rtc.c **** 	{0x13,0xd5},
 494:Device/Src/rtc.c **** 	{0x13,0xf0},
 495:Device/Src/rtc.c **** 	{0x13,0xe4},
 496:Device/Src/rtc.c **** 	{0x13,0xea},
 497:Device/Src/rtc.c **** 	{0x13,0xdd},
 498:Device/Src/rtc.c **** 	{0x13,0xf2},
 499:Device/Src/rtc.c **** 	{0x13,0xec},
 500:Device/Src/rtc.c **** 	{0x13,0xf9},
 501:Device/Src/rtc.c **** 	{0x13,0xf4},
 502:Device/Src/rtc.c **** 	{0x13,0xfa},
 503:Device/Src/rtc.c **** 	{0x13,0xee},
 504:Device/Src/rtc.c **** 	{0x13,0xf5},
 505:Device/Src/rtc.c **** 	{0x14,0x09},
 506:Device/Src/rtc.c **** 	{0x14,0x0a},
 507:Device/Src/rtc.c **** 	{0x13,0xf7},
 508:Device/Src/rtc.c **** 	{0x14,0x05},
 509:Device/Src/rtc.c **** 	{0x14,0x20},
 510:Device/Src/rtc.c **** 	{0x14,0x0c},
 511:Device/Src/rtc.c **** 	{0x14,0x13},
 512:Device/Src/rtc.c **** 	{0x14,0x0d},
 513:Device/Src/rtc.c **** 	{0x14,0x22},
 514:Device/Src/rtc.c **** 	{0x14,0x15},
 515:Device/Src/rtc.c **** 	{0x14,0x30},
 516:Device/Src/rtc.c **** 	{0x14,0x24},
 517:Device/Src/rtc.c **** 	{0x14,0x31},
 518:Device/Src/rtc.c **** 	{0x14,0x1d},
 519:Device/Src/rtc.c **** 	{0x14,0x32},
 520:Device/Src/rtc.c **** 	{0x14,0x2c},
 521:Device/Src/rtc.c **** 	{0x14,0x39},
 522:Device/Src/rtc.c **** 	{0x14,0x3a},
 523:Device/Src/rtc.c **** 	{0x14,0x2e},
 524:Device/Src/rtc.c **** 	{0x14,0x35},
 525:Device/Src/rtc.c **** 	{0x14,0x3b},
 526:Device/Src/rtc.c **** 	{0x14,0x2f},
 527:Device/Src/rtc.c **** 	{0x14,0x3d},
 528:Device/Src/rtc.c **** 	{0x14,0x3d},
 529:Device/Src/rtc.c **** 	{0x14,0x3e},
 530:Device/Src/rtc.c **** 	{0x14,0x3e},
 531:Device/Src/rtc.c **** 	{0x14,0x40},
 532:Device/Src/rtc.c **** 	{0x14,0x3f},
 533:Device/Src/rtc.c **** 	{0x14,0x41},
 534:Device/Src/rtc.c **** 	{0x14,0x48},
 535:Device/Src/rtc.c **** 	{0x14,0x48},
 536:Device/Src/rtc.c **** 	{0x14,0x50},
 537:Device/Src/rtc.c **** 	{0x14,0x49},
 538:Device/Src/rtc.c **** 	{0x14,0x4a},
 539:Device/Src/rtc.c **** 	{0x14,0x51},
 540:Device/Src/rtc.c **** 	{0x14,0x60},
 541:Device/Src/rtc.c **** 	{0x14,0x46},
 542:Device/Src/rtc.c **** 	{0x14,0x59},
ARM GAS  C:\Users\86158\AppData\Local\Temp\cc1OFnJc.s 			page 11


 543:Device/Src/rtc.c **** 	{0x14,0x47},
 544:Device/Src/rtc.c **** 	{0x14,0x62},
 545:Device/Src/rtc.c **** 	{0x14,0x55},
 546:Device/Src/rtc.c **** 	{0x14,0x70},
 547:Device/Src/rtc.c **** 	{0x14,0x64},
 548:Device/Src/rtc.c **** 	{0x14,0x6a},
 549:Device/Src/rtc.c **** 	{0x14,0x78},
 550:Device/Src/rtc.c **** 	{0x14,0x5e},
 551:Device/Src/rtc.c **** 	{0x14,0x66},
 552:Device/Src/rtc.c **** 	{0x14,0x5f},
 553:Device/Src/rtc.c **** 	{0x14,0x7a},
 554:Device/Src/rtc.c **** 	{0x14,0x6e},
 555:Device/Src/rtc.c **** 	{0x14,0x7b},
 556:Device/Src/rtc.c **** 	{0x14,0x76},
 557:Device/Src/rtc.c **** 	{0x14,0x6f},
 558:Device/Src/rtc.c **** 	{0x14,0x7d},
 559:Device/Src/rtc.c **** 	{0x14,0x7e},
 560:Device/Src/rtc.c **** 	{0x14,0x81},
 561:Device/Src/rtc.c **** 	{0x14,0x7f},
 562:Device/Src/rtc.c **** 	{0x14,0x82},
 563:Device/Src/rtc.c **** 	{0x14,0x90},
 564:Device/Src/rtc.c **** 	{0x14,0x89},
 565:Device/Src/rtc.c **** 	{0x14,0x8a},
 566:Device/Src/rtc.c **** 	{0x14,0x91},
 567:Device/Src/rtc.c **** 	{0x14,0xa0},
 568:Device/Src/rtc.c **** 	{0x14,0x8c},
 569:Device/Src/rtc.c **** 	{0x14,0x99},
 570:Device/Src/rtc.c **** 	{0x14,0x87},
 571:Device/Src/rtc.c **** 	{0x14,0xa8},
 572:Device/Src/rtc.c **** 	{0x14,0x95},
 573:Device/Src/rtc.c **** 	{0x14,0xa9},
 574:Device/Src/rtc.c **** 	{0x14,0xaa},
 575:Device/Src/rtc.c **** 	{0x14,0xb1},
 576:Device/Src/rtc.c **** 	{0x14,0xa5},
 577:Device/Src/rtc.c **** 	{0x14,0xac},
 578:Device/Src/rtc.c **** 	{0x14,0xb9},
 579:Device/Src/rtc.c **** 	{0x14,0xba},
 580:Device/Src/rtc.c **** 	{0x14,0xae},
 581:Device/Src/rtc.c **** 	{0x14,0xb5},
 582:Device/Src/rtc.c **** 	{0x14,0xb6},
 583:Device/Src/rtc.c **** 	{0x14,0xaf},
 584:Device/Src/rtc.c **** 	{0x14,0xbd},
 585:Device/Src/rtc.c **** 	{0x14,0xb7},
 586:Device/Src/rtc.c **** 	{0x14,0xc0},
 587:Device/Src/rtc.c **** 	{0x14,0xbf},
 588:Device/Src/rtc.c **** 	{0x14,0xc1},
 589:Device/Src/rtc.c **** 	{0x14,0xc8},
 590:Device/Src/rtc.c **** 	{0x14,0xc2},
 591:Device/Src/rtc.c **** 	{0x14,0xd0},
 592:Device/Src/rtc.c **** 	{0x14,0xc9},
 593:Device/Src/rtc.c **** 	{0x14,0xca},
 594:Device/Src/rtc.c **** 	{0x14,0xd8},
 595:Device/Src/rtc.c **** 	{0x14,0xcb},
 596:Device/Src/rtc.c **** 	{0x14,0xcc},
 597:Device/Src/rtc.c **** 	{0x14,0xe1},
 598:Device/Src/rtc.c **** 	{0x14,0xda},
 599:Device/Src/rtc.c **** 	{0x14,0xce},
ARM GAS  C:\Users\86158\AppData\Local\Temp\cc1OFnJc.s 			page 12


 600:Device/Src/rtc.c **** 	{0x14,0xdb},
 601:Device/Src/rtc.c **** 	{0x14,0xe4},
 602:Device/Src/rtc.c **** 	{0x14,0xf1},
 603:Device/Src/rtc.c **** 	{0x14,0xf2},
 604:Device/Src/rtc.c **** 	{0x14,0xec},
 605:Device/Src/rtc.c **** 	{0x14,0xf9},
 606:Device/Src/rtc.c **** 	{0x14,0xed},
 607:Device/Src/rtc.c **** 	{0x14,0xee},
 608:Device/Src/rtc.c **** 	{0x14,0xfb},
 609:Device/Src/rtc.c **** 	{0x14,0xfc},
 610:Device/Src/rtc.c **** 	{0x14,0xef},
 611:Device/Src/rtc.c **** 	{0x15,0x01},
 612:Device/Src/rtc.c **** 	{0x14,0xfe},
 613:Device/Src/rtc.c **** 	{0x15,0x08},
 614:Device/Src/rtc.c **** 	{0x15,0x10},
 615:Device/Src/rtc.c **** 	{0x15,0x04},
 616:Device/Src/rtc.c **** 	{0x15,0x11},
 617:Device/Src/rtc.c **** 	{0x15,0x20},
 618:Device/Src/rtc.c **** 	{0x15,0x0c},
 619:Device/Src/rtc.c **** 	{0x15,0x21},
 620:Device/Src/rtc.c **** 	{0x15,0x1a},
 621:Device/Src/rtc.c **** 	{0x15,0x0e},
 622:Device/Src/rtc.c **** 	{0x15,0x1b},
 623:Device/Src/rtc.c **** 	{0x15,0x24},
 624:Device/Src/rtc.c **** 	{0x15,0x31},
 625:Device/Src/rtc.c **** 	{0x15,0x17},
 626:Device/Src/rtc.c **** 	{0x15,0x2c},
 627:Device/Src/rtc.c **** 	{0x15,0x39},
 628:Device/Src/rtc.c **** 	{0x15,0x1f},
 629:Device/Src/rtc.c **** 	{0x15,0x27},
 630:Device/Src/rtc.c **** 	{0x15,0x3b},
 631:Device/Src/rtc.c **** 	{0x15,0x36},
 632:Device/Src/rtc.c **** 	{0x15,0x3d},
 633:Device/Src/rtc.c **** 	{0x15,0x37},
 634:Device/Src/rtc.c **** 	{0x15,0x3e},
 635:Device/Src/rtc.c **** 	{0x15,0x40},
 636:Device/Src/rtc.c **** 	{0x15,0x3f},
 637:Device/Src/rtc.c **** 	{0x15,0x41},
 638:Device/Src/rtc.c **** 	{0x15,0x42},
 639:Device/Src/rtc.c **** 	{0x15,0x50},
 640:Device/Src/rtc.c **** 	{0x15,0x49},
 641:Device/Src/rtc.c **** 	{0x15,0x4a},
 642:Device/Src/rtc.c **** 	{0x15,0x58},
 643:Device/Src/rtc.c **** 	{0x15,0x4c},
 644:Device/Src/rtc.c **** 	{0x15,0x59},
 645:Device/Src/rtc.c **** 	{0x15,0x68},
 646:Device/Src/rtc.c **** 	{0x15,0x4e},
 647:Device/Src/rtc.c **** 	{0x15,0x5b},
 648:Device/Src/rtc.c **** 	{0x15,0x4f},
 649:Device/Src/rtc.c **** 	{0x15,0x71},
 650:Device/Src/rtc.c **** 	{0x15,0x72},
 651:Device/Src/rtc.c **** 	{0x15,0x6c},
 652:Device/Src/rtc.c **** 	{0x15,0x73},
 653:Device/Src/rtc.c **** 	{0x15,0x67},
 654:Device/Src/rtc.c **** 	{0x15,0x6e},
 655:Device/Src/rtc.c **** 	{0x15,0x76},
 656:Device/Src/rtc.c **** 	{0x15,0x6f},
ARM GAS  C:\Users\86158\AppData\Local\Temp\cc1OFnJc.s 			page 13


 657:Device/Src/rtc.c **** 	{0x15,0x7d},
 658:Device/Src/rtc.c **** 	{0x15,0x7e},
 659:Device/Src/rtc.c **** 	{0x15,0x81},
 660:Device/Src/rtc.c **** 	{0x15,0x82},
 661:Device/Src/rtc.c **** 	{0x15,0x90},
 662:Device/Src/rtc.c **** 	{0x15,0x84},
 663:Device/Src/rtc.c **** 	{0x15,0x91},
 664:Device/Src/rtc.c **** 	{0x15,0xa0},
 665:Device/Src/rtc.c **** 	{0x15,0x86},
 666:Device/Src/rtc.c **** 	{0x15,0x93},
 667:Device/Src/rtc.c **** 	{0x15,0x9a},
 668:Device/Src/rtc.c **** 	{0x15,0xb0},
 669:Device/Src/rtc.c **** 	{0x15,0xa3},
 670:Device/Src/rtc.c **** 	{0x15,0xb1},
 671:Device/Src/rtc.c **** 	{0x15,0x97},
 672:Device/Src/rtc.c **** 	{0x15,0xac},
 673:Device/Src/rtc.c **** 	{0x15,0xb3},
 674:Device/Src/rtc.c **** 	{0x15,0xad},
 675:Device/Src/rtc.c **** 	{0x15,0xae},
 676:Device/Src/rtc.c **** 	{0x15,0xbc},
 677:Device/Src/rtc.c **** 	{0x15,0xaf},
 678:Device/Src/rtc.c **** 	{0x15,0xbd},
 679:Device/Src/rtc.c **** 	{0x15,0xbe},
 680:Device/Src/rtc.c **** 	{0x15,0xc0},
 681:Device/Src/rtc.c **** 	{0x15,0xbf},
 682:Device/Src/rtc.c **** 	{0x15,0xc1},
 683:Device/Src/rtc.c **** 	{0x15,0xc2},
 684:Device/Src/rtc.c **** 	{0x15,0xc9},
 685:Device/Src/rtc.c **** 	{0x15,0xc4},
 686:Device/Src/rtc.c **** 	{0x15,0xd8},
 687:Device/Src/rtc.c **** 	{0x15,0xcb},
 688:Device/Src/rtc.c **** 	{0x15,0xd9},
 689:Device/Src/rtc.c **** 	{0x15,0xe8},
 690:Device/Src/rtc.c **** 	{0x15,0xce},
 691:Device/Src/rtc.c **** 	{0x15,0xe9},
 692:Device/Src/rtc.c **** 	{0x15,0xea},
 693:Device/Src/rtc.c **** 	{0x15,0xdd},
 694:Device/Src/rtc.c **** 	{0x15,0xec},
 695:Device/Src/rtc.c **** 	{0x15,0xf3},
 696:Device/Src/rtc.c **** 	{0x15,0xed},
 697:Device/Src/rtc.c **** 	{0x15,0xf5},
 698:Device/Src/rtc.c **** 	{0x15,0xf6},
 699:Device/Src/rtc.c **** 	{0x15,0xef},
 700:Device/Src/rtc.c **** 	{0x15,0xf7},
 701:Device/Src/rtc.c **** 	{0x16,0x04},
 702:Device/Src/rtc.c **** 	{0x16,0x18},
 703:Device/Src/rtc.c **** 	{0x16,0x0c},
 704:Device/Src/rtc.c **** 	{0x16,0x21},
 705:Device/Src/rtc.c **** 	{0x16,0x0d},
 706:Device/Src/rtc.c **** 	{0x16,0x30},
 707:Device/Src/rtc.c **** 	{0x16,0x23},
 708:Device/Src/rtc.c **** 	{0x16,0x0f},
 709:Device/Src/rtc.c **** 	{0x16,0x17},
 710:Device/Src/rtc.c **** 	{0x16,0x26},
 711:Device/Src/rtc.c **** 	{0x16,0x33},
 712:Device/Src/rtc.c **** 	{0x16,0x27},
 713:Device/Src/rtc.c **** 	{0x16,0x3b},
ARM GAS  C:\Users\86158\AppData\Local\Temp\cc1OFnJc.s 			page 14


 714:Device/Src/rtc.c **** 	{0x16,0x36},
 715:Device/Src/rtc.c **** 	{0x16,0x3d},
 716:Device/Src/rtc.c **** 	{0x16,0x37},
 717:Device/Src/rtc.c **** 	{0x16,0x40},
 718:Device/Src/rtc.c **** 	{0x16,0x3f},
 719:Device/Src/rtc.c **** 	{0x16,0x41},
 720:Device/Src/rtc.c **** 	{0x16,0x42},
 721:Device/Src/rtc.c **** 	{0x16,0x50},
 722:Device/Src/rtc.c **** 	{0x16,0x44},
 723:Device/Src/rtc.c **** 	{0x16,0x51},
 724:Device/Src/rtc.c **** 	{0x16,0x45},
 725:Device/Src/rtc.c **** 	{0x16,0x59},
 726:Device/Src/rtc.c **** 	{0x16,0x68},
 727:Device/Src/rtc.c **** 	{0x16,0x4e},
 728:Device/Src/rtc.c **** 	{0x16,0x5c},
 729:Device/Src/rtc.c **** 	{0x16,0x78},
 730:Device/Src/rtc.c **** 	{0x16,0x72},
 731:Device/Src/rtc.c **** 	{0x16,0x79},
 732:Device/Src/rtc.c **** 	{0x16,0x7a},
 733:Device/Src/rtc.c **** 	{0x16,0x6e},
 734:Device/Src/rtc.c **** 	{0x16,0x7c},
 735:Device/Src/rtc.c **** 	{0x16,0x6f},
 736:Device/Src/rtc.c **** 	{0x16,0x80},
 737:Device/Src/rtc.c **** 	{0x16,0x7e},
 738:Device/Src/rtc.c **** 	{0x16,0x7f},
 739:Device/Src/rtc.c **** 	{0x16,0x90},
 740:Device/Src/rtc.c **** 	{0x16,0x83},
 741:Device/Src/rtc.c **** 	{0x16,0x91},
 742:Device/Src/rtc.c **** 	{0x16,0x85},
 743:Device/Src/rtc.c **** 	{0x16,0x86},
 744:Device/Src/rtc.c **** 	{0x16,0x94},
 745:Device/Src/rtc.c **** 	{0x16,0x87},
 746:Device/Src/rtc.c **** 	{0x16,0x9b},
 747:Device/Src/rtc.c **** 	{0x16,0xaa},
 748:Device/Src/rtc.c **** 	{0x16,0x9d},
 749:Device/Src/rtc.c **** 	{0x16,0xb9},
 750:Device/Src/rtc.c **** 	{0x16,0xb4},
 751:Device/Src/rtc.c **** 	{0x16,0xa7},
 752:Device/Src/rtc.c **** 	{0x16,0xbb},
 753:Device/Src/rtc.c **** 	{0x16,0xaf},
 754:Device/Src/rtc.c **** 	{0x16,0xbd},
 755:Device/Src/rtc.c **** 	{0x16,0xc0},
 756:Device/Src/rtc.c **** 	{0x16,0xbf},
 757:Device/Src/rtc.c **** 	{0x16,0xc1},
 758:Device/Src/rtc.c **** 	{0x16,0xc2},
 759:Device/Src/rtc.c **** 	{0x16,0xc9},
 760:Device/Src/rtc.c **** 	{0x16,0xc4},
 761:Device/Src/rtc.c **** 	{0x16,0xe0},
 762:Device/Src/rtc.c **** 	{0x16,0xcc},
 763:Device/Src/rtc.c **** 	{0x16,0xd3},
 764:Device/Src/rtc.c **** 	{0x16,0xce},
 765:Device/Src/rtc.c **** 	{0x16,0xe9},
 766:Device/Src/rtc.c **** 	{0x16,0xcf},
 767:Device/Src/rtc.c **** 	{0x16,0xf2},
 768:Device/Src/rtc.c **** 	{0x16,0xe6},
 769:Device/Src/rtc.c **** 	{0x16,0xfa},
 770:Device/Src/rtc.c **** 	{0x16,0xee},
ARM GAS  C:\Users\86158\AppData\Local\Temp\cc1OFnJc.s 			page 15


 771:Device/Src/rtc.c **** 	{0x17,0x00},
 772:Device/Src/rtc.c **** 	{0x17,0x01},
 773:Device/Src/rtc.c **** 	{0x17,0x02},
 774:Device/Src/rtc.c **** 	{0x17,0x10},
 775:Device/Src/rtc.c **** 	{0x17,0x04},
 776:Device/Src/rtc.c **** 	{0x17,0x18},
 777:Device/Src/rtc.c **** 	{0x17,0x0c},
 778:Device/Src/rtc.c **** 	{0x17,0x13},
 779:Device/Src/rtc.c **** 	{0x17,0x07},
 780:Device/Src/rtc.c **** 	{0x17,0x1c},
 781:Device/Src/rtc.c **** 	{0x17,0x0f},
 782:Device/Src/rtc.c **** 	{0x17,0x17},
 783:Device/Src/rtc.c **** 	{0x17,0x26},
 784:Device/Src/rtc.c **** 	{0x17,0x2d},
 785:Device/Src/rtc.c **** 	{0x17,0x3b},
 786:Device/Src/rtc.c **** 	{0x17,0x36},
 787:Device/Src/rtc.c **** 	{0x17,0x3d},
 788:Device/Src/rtc.c **** 	{0x17,0x3e},
 789:Device/Src/rtc.c **** 	{0x17,0x3f},
 790:Device/Src/rtc.c **** 	{0x17,0x41},
 791:Device/Src/rtc.c **** 	{0x17,0x42},
 792:Device/Src/rtc.c **** 	{0x17,0x50},
 793:Device/Src/rtc.c **** 	{0x17,0x4a},
 794:Device/Src/rtc.c **** 	{0x17,0x52},
 795:Device/Src/rtc.c **** 	{0x17,0x46},
 796:Device/Src/rtc.c **** 	{0x17,0x54},
 797:Device/Src/rtc.c **** 	{0x17,0x4e},
 798:Device/Src/rtc.c **** 	{0x17,0x5c},
 799:Device/Src/rtc.c **** 	{0x17,0x5d},
 800:Device/Src/rtc.c **** 	{0x17,0x5e},
 801:Device/Src/rtc.c **** 	{0x17,0x74},
 802:Device/Src/rtc.c **** 	{0x17,0x67},
 803:Device/Src/rtc.c **** 	{0x17,0x7c},
 804:Device/Src/rtc.c **** 	{0x17,0x6f},
 805:Device/Src/rtc.c **** 	{0x17,0x7e},
 806:Device/Src/rtc.c **** 	{0x17,0x88},
 807:Device/Src/rtc.c **** 	{0x17,0x82},
 808:Device/Src/rtc.c **** 	{0x17,0x83},
 809:Device/Src/rtc.c **** 	{0x17,0x8a},
 810:Device/Src/rtc.c **** 	{0x17,0x8b},
 811:Device/Src/rtc.c **** 	{0x17,0xa1},
 812:Device/Src/rtc.c **** 	{0x17,0x87},
 813:Device/Src/rtc.c **** 	{0x17,0x9c},
 814:Device/Src/rtc.c **** 	{0x17,0xb8},
 815:Device/Src/rtc.c **** 	{0x17,0xa5},
 816:Device/Src/rtc.c **** 	{0x17,0xb3},
 817:Device/Src/rtc.c **** 	{0x17,0xa7},
 818:Device/Src/rtc.c **** 	{0x17,0xbc},
 819:Device/Src/rtc.c **** 	{0x17,0xaf},
 820:Device/Src/rtc.c **** 	{0x17,0xb7},
 821:Device/Src/rtc.c **** 	{0x17,0xc0},
 822:Device/Src/rtc.c **** 	{0x17,0xc1},
 823:Device/Src/rtc.c **** 	{0x17,0xc2},
 824:Device/Src/rtc.c **** 	{0x17,0xc9},
 825:Device/Src/rtc.c **** 	{0x17,0xca},
 826:Device/Src/rtc.c **** 	{0x17,0xd2},
 827:Device/Src/rtc.c **** 	{0x17,0xc6},
ARM GAS  C:\Users\86158\AppData\Local\Temp\cc1OFnJc.s 			page 16


 828:Device/Src/rtc.c **** 	{0x17,0xe2},
 829:Device/Src/rtc.c **** 	{0x17,0xe9},
 830:Device/Src/rtc.c **** 	{0x17,0xf8},
 831:Device/Src/rtc.c **** 	{0x17,0xeb},
 832:Device/Src/rtc.c **** 	{0x17,0xf3},
 833:Device/Src/rtc.c **** 	{0x17,0xe7},
 834:Device/Src/rtc.c **** 	{0x17,0xfc},
 835:Device/Src/rtc.c **** 	{0x17,0xef},
 836:Device/Src/rtc.c **** 	{0x17,0xfe},
 837:Device/Src/rtc.c **** 	{0x17,0xff},
 838:Device/Src/rtc.c **** 
 839:Device/Src/rtc.c **** };
 840:Device/Src/rtc.c **** 
 841:Device/Src/rtc.c **** 
 842:Device/Src/rtc.c **** uint8_t rtc_read_temp(uint8_t* temp)
 843:Device/Src/rtc.c **** {
  30              		.loc 1 843 1 view -0
  31              		.cfi_startproc
  32              		@ args = 0, pretend = 0, frame = 8
  33              		@ frame_needed = 0, uses_anonymous_args = 0
  34              		.loc 1 843 1 is_stmt 0 view .LVU1
  35 0000 70B5     		push	{r4, r5, r6, lr}
  36              	.LCFI0:
  37              		.cfi_def_cfa_offset 16
  38              		.cfi_offset 4, -16
  39              		.cfi_offset 5, -12
  40              		.cfi_offset 6, -8
  41              		.cfi_offset 14, -4
  42 0002 82B0     		sub	sp, sp, #8
  43              	.LCFI1:
  44              		.cfi_def_cfa_offset 24
  45 0004 0646     		mov	r6, r0
 844:Device/Src/rtc.c **** 	uint8_t time = 20;
  46              		.loc 1 844 2 is_stmt 1 view .LVU2
  47              	.LVL1:
 845:Device/Src/rtc.c **** 	uint8_t buffer = 0;
  48              		.loc 1 845 2 view .LVU3
  49              		.loc 1 845 10 is_stmt 0 view .LVU4
  50 0006 0023     		movs	r3, #0
  51 0008 8DF80730 		strb	r3, [sp, #7]
 846:Device/Src/rtc.c **** 
 847:Device/Src/rtc.c **** 
 848:Device/Src/rtc.c **** 	if(rtc_write_lock_on() != I2C_OK)
  52              		.loc 1 848 2 is_stmt 1 view .LVU5
  53              		.loc 1 848 5 is_stmt 0 view .LVU6
  54 000c FFF7FEFF 		bl	rtc_write_lock_on
  55              	.LVL2:
  56              		.loc 1 848 4 view .LVU7
  57 0010 70BB     		cbnz	r0, .L5
 849:Device/Src/rtc.c **** 		return I2C_NO_ACK;
 850:Device/Src/rtc.c **** 	
 851:Device/Src/rtc.c ****     buffer = 0x10;
  58              		.loc 1 851 5 is_stmt 1 view .LVU8
  59              		.loc 1 851 12 is_stmt 0 view .LVU9
  60 0012 1023     		movs	r3, #16
  61 0014 8DF80730 		strb	r3, [sp, #7]
 852:Device/Src/rtc.c ****     if (rtc_write_multi_bytes(RTC_3900_ADDRESS, 0x17, &buffer, 1) != I2C_OK) 
ARM GAS  C:\Users\86158\AppData\Local\Temp\cc1OFnJc.s 			page 17


  62              		.loc 1 852 5 is_stmt 1 view .LVU10
  63              		.loc 1 852 9 is_stmt 0 view .LVU11
  64 0018 0123     		movs	r3, #1
  65 001a 0DF10702 		add	r2, sp, #7
  66 001e 1721     		movs	r1, #23
  67 0020 6420     		movs	r0, #100
  68 0022 FFF7FEFF 		bl	rtc_write_multi_bytes
  69              	.LVL3:
  70              		.loc 1 852 8 view .LVU12
  71 0026 38BB     		cbnz	r0, .L6
 853:Device/Src/rtc.c **** 		return I2C_NO_ACK;
 854:Device/Src/rtc.c **** 	
 855:Device/Src/rtc.c **** 	if(rtc_write_lock_off() != I2C_OK)
  72              		.loc 1 855 2 is_stmt 1 view .LVU13
  73              		.loc 1 855 5 is_stmt 0 view .LVU14
  74 0028 FFF7FEFF 		bl	rtc_write_lock_off
  75              	.LVL4:
  76              		.loc 1 855 4 view .LVU15
  77 002c 30BB     		cbnz	r0, .L7
 844:Device/Src/rtc.c **** 	uint8_t buffer = 0;
  78              		.loc 1 844 10 view .LVU16
  79 002e 1424     		movs	r4, #20
  80              	.LVL5:
  81              	.L3:
 856:Device/Src/rtc.c **** 		return I2C_NO_ACK;
 857:Device/Src/rtc.c **** 	
 858:Device/Src/rtc.c **** 	while(time --)
  82              		.loc 1 858 7 is_stmt 1 view .LVU17
  83 0030 2346     		mov	r3, r4
  84              		.loc 1 858 13 is_stmt 0 view .LVU18
  85 0032 013C     		subs	r4, r4, #1
  86              	.LVL6:
  87              		.loc 1 858 13 view .LVU19
  88 0034 E4B2     		uxtb	r4, r4
  89              	.LVL7:
  90              		.loc 1 858 7 view .LVU20
  91 0036 CBB1     		cbz	r3, .L9
 859:Device/Src/rtc.c **** 	{
 860:Device/Src/rtc.c **** 		HAL_Delay(1);
  92              		.loc 1 860 3 is_stmt 1 view .LVU21
  93 0038 0120     		movs	r0, #1
  94 003a FFF7FEFF 		bl	HAL_Delay
  95              	.LVL8:
 861:Device/Src/rtc.c **** 		
 862:Device/Src/rtc.c ****         rtc_read_multi_bytes(RTC_3900_ADDRESS, 0x17, &buffer, 1);
  96              		.loc 1 862 9 view .LVU22
  97 003e 0123     		movs	r3, #1
  98 0040 0DF10702 		add	r2, sp, #7
  99 0044 1721     		movs	r1, #23
 100 0046 6420     		movs	r0, #100
 101 0048 FFF7FEFF 		bl	rtc_read_multi_bytes
 102              	.LVL9:
 863:Device/Src/rtc.c **** 		if (!(buffer & 0x20)) {
 103              		.loc 1 863 3 view .LVU23
 104              		.loc 1 863 16 is_stmt 0 view .LVU24
 105 004c 9DF80730 		ldrb	r3, [sp, #7]	@ zero_extendqisi2
 106              		.loc 1 863 6 view .LVU25
ARM GAS  C:\Users\86158\AppData\Local\Temp\cc1OFnJc.s 			page 18


 107 0050 13F02005 		ands	r5, r3, #32
 108 0054 ECD1     		bne	.L3
 864:Device/Src/rtc.c ****             rtc_read_multi_bytes(RTC_3900_ADDRESS, 0x16, &buffer, 1);
 109              		.loc 1 864 13 is_stmt 1 view .LVU26
 110 0056 0123     		movs	r3, #1
 111 0058 0DF10702 		add	r2, sp, #7
 112 005c 1621     		movs	r1, #22
 113 005e 6420     		movs	r0, #100
 114 0060 FFF7FEFF 		bl	rtc_read_multi_bytes
 115              	.LVL10:
 865:Device/Src/rtc.c ****             *temp = buffer;
 116              		.loc 1 865 13 view .LVU27
 117              		.loc 1 865 19 is_stmt 0 view .LVU28
 118 0064 9DF80730 		ldrb	r3, [sp, #7]	@ zero_extendqisi2
 119 0068 3370     		strb	r3, [r6]
 866:Device/Src/rtc.c ****             return I2C_OK;
 120              		.loc 1 866 13 is_stmt 1 view .LVU29
 121              		.loc 1 866 20 is_stmt 0 view .LVU30
 122 006a 02E0     		b	.L2
 123              	.L9:
 867:Device/Src/rtc.c ****         }
 868:Device/Src/rtc.c **** 	}
 869:Device/Src/rtc.c **** 	
 870:Device/Src/rtc.c **** 	return I2C_NO_ACK;
 124              		.loc 1 870 9 view .LVU31
 125 006c 0225     		movs	r5, #2
 126 006e 00E0     		b	.L2
 127              	.LVL11:
 128              	.L5:
 849:Device/Src/rtc.c **** 	
 129              		.loc 1 849 10 view .LVU32
 130 0070 0225     		movs	r5, #2
 131              	.LVL12:
 132              	.L2:
 871:Device/Src/rtc.c **** }
 133              		.loc 1 871 1 view .LVU33
 134 0072 2846     		mov	r0, r5
 135 0074 02B0     		add	sp, sp, #8
 136              	.LCFI2:
 137              		.cfi_remember_state
 138              		.cfi_def_cfa_offset 16
 139              		@ sp needed
 140 0076 70BD     		pop	{r4, r5, r6, pc}
 141              	.LVL13:
 142              	.L6:
 143              	.LCFI3:
 144              		.cfi_restore_state
 853:Device/Src/rtc.c **** 	
 145              		.loc 1 853 10 view .LVU34
 146 0078 0225     		movs	r5, #2
 147 007a FAE7     		b	.L2
 148              	.L7:
 856:Device/Src/rtc.c **** 	
 149              		.loc 1 856 10 view .LVU35
 150 007c 0225     		movs	r5, #2
 151 007e F8E7     		b	.L2
 152              		.cfi_endproc
ARM GAS  C:\Users\86158\AppData\Local\Temp\cc1OFnJc.s 			page 19


 153              	.LFE235:
 155              		.section	.text.rtc_set_bat_charge,"ax",%progbits
 156              		.align	1
 157              		.global	rtc_set_bat_charge
 158              		.syntax unified
 159              		.thumb
 160              		.thumb_func
 162              	rtc_set_bat_charge:
 163              	.LVL14:
 164              	.LFB236:
 872:Device/Src/rtc.c **** 
 873:Device/Src/rtc.c **** uint8_t rtc_set_bat_charge(uint8_t mode)
 874:Device/Src/rtc.c **** {
 165              		.loc 1 874 1 is_stmt 1 view -0
 166              		.cfi_startproc
 167              		@ args = 0, pretend = 0, frame = 8
 168              		@ frame_needed = 0, uses_anonymous_args = 0
 169              		.loc 1 874 1 is_stmt 0 view .LVU37
 170 0000 10B5     		push	{r4, lr}
 171              	.LCFI4:
 172              		.cfi_def_cfa_offset 8
 173              		.cfi_offset 4, -8
 174              		.cfi_offset 14, -4
 175 0002 82B0     		sub	sp, sp, #8
 176              	.LCFI5:
 177              		.cfi_def_cfa_offset 16
 178 0004 0446     		mov	r4, r0
 875:Device/Src/rtc.c **** 	uint8_t buffer = 0;
 179              		.loc 1 875 2 is_stmt 1 view .LVU38
 180              		.loc 1 875 10 is_stmt 0 view .LVU39
 181 0006 0023     		movs	r3, #0
 182 0008 8DF80730 		strb	r3, [sp, #7]
 876:Device/Src/rtc.c **** 
 877:Device/Src/rtc.c **** 	if(rtc_write_lock_on() != I2C_OK)
 183              		.loc 1 877 2 is_stmt 1 view .LVU40
 184              		.loc 1 877 5 is_stmt 0 view .LVU41
 185 000c FFF7FEFF 		bl	rtc_write_lock_on
 186              	.LVL15:
 187              		.loc 1 877 4 view .LVU42
 188 0010 A0B9     		cbnz	r0, .L14
 878:Device/Src/rtc.c **** 		return I2C_NO_ACK;
 879:Device/Src/rtc.c **** 		
 880:Device/Src/rtc.c **** 	if (mode == 0) { 
 189              		.loc 1 880 2 is_stmt 1 view .LVU43
 190              		.loc 1 880 5 is_stmt 0 view .LVU44
 191 0012 7CB9     		cbnz	r4, .L12
 881:Device/Src/rtc.c **** 		buffer = 0x00; 
 192              		.loc 1 881 3 is_stmt 1 view .LVU45
 193              		.loc 1 881 10 is_stmt 0 view .LVU46
 194 0014 0023     		movs	r3, #0
 195 0016 8DF80730 		strb	r3, [sp, #7]
 196              	.L13:
 882:Device/Src/rtc.c **** 	} else {
 883:Device/Src/rtc.c **** 		buffer = 0x82;
 884:Device/Src/rtc.c **** 	}
 885:Device/Src/rtc.c ****     if (rtc_write_multi_bytes(RTC_3900_ADDRESS, 0x18, &buffer, 1) != I2C_OK) 
 197              		.loc 1 885 5 is_stmt 1 view .LVU47
ARM GAS  C:\Users\86158\AppData\Local\Temp\cc1OFnJc.s 			page 20


 198              		.loc 1 885 9 is_stmt 0 view .LVU48
 199 001a 0123     		movs	r3, #1
 200 001c 0DF10702 		add	r2, sp, #7
 201 0020 1821     		movs	r1, #24
 202 0022 6420     		movs	r0, #100
 203 0024 FFF7FEFF 		bl	rtc_write_multi_bytes
 204              	.LVL16:
 205              		.loc 1 885 8 view .LVU49
 206 0028 50B9     		cbnz	r0, .L15
 886:Device/Src/rtc.c **** 		return I2C_NO_ACK;
 887:Device/Src/rtc.c **** 	
 888:Device/Src/rtc.c **** 	if(rtc_write_lock_off() != I2C_OK)
 207              		.loc 1 888 2 is_stmt 1 view .LVU50
 208              		.loc 1 888 5 is_stmt 0 view .LVU51
 209 002a FFF7FEFF 		bl	rtc_write_lock_off
 210              	.LVL17:
 211              		.loc 1 888 4 view .LVU52
 212 002e 48B9     		cbnz	r0, .L18
 213              	.L11:
 889:Device/Src/rtc.c **** 		return I2C_NO_ACK;
 890:Device/Src/rtc.c **** 	
 891:Device/Src/rtc.c **** 	return I2C_OK;
 892:Device/Src/rtc.c **** }
 214              		.loc 1 892 1 view .LVU53
 215 0030 02B0     		add	sp, sp, #8
 216              	.LCFI6:
 217              		.cfi_remember_state
 218              		.cfi_def_cfa_offset 8
 219              		@ sp needed
 220 0032 10BD     		pop	{r4, pc}
 221              	.L12:
 222              	.LCFI7:
 223              		.cfi_restore_state
 883:Device/Src/rtc.c **** 	}
 224              		.loc 1 883 3 is_stmt 1 view .LVU54
 883:Device/Src/rtc.c **** 	}
 225              		.loc 1 883 10 is_stmt 0 view .LVU55
 226 0034 8223     		movs	r3, #130
 227 0036 8DF80730 		strb	r3, [sp, #7]
 228 003a EEE7     		b	.L13
 229              	.L14:
 878:Device/Src/rtc.c **** 		
 230              		.loc 1 878 10 view .LVU56
 231 003c 0220     		movs	r0, #2
 232 003e F7E7     		b	.L11
 233              	.L15:
 886:Device/Src/rtc.c **** 	
 234              		.loc 1 886 10 view .LVU57
 235 0040 0220     		movs	r0, #2
 236 0042 F5E7     		b	.L11
 237              	.L18:
 889:Device/Src/rtc.c **** 	
 238              		.loc 1 889 10 view .LVU58
 239 0044 0220     		movs	r0, #2
 240 0046 F3E7     		b	.L11
 241              		.cfi_endproc
 242              	.LFE236:
ARM GAS  C:\Users\86158\AppData\Local\Temp\cc1OFnJc.s 			page 21


 244              		.section	.text.rtc_read_vbat,"ax",%progbits
 245              		.align	1
 246              		.global	rtc_read_vbat
 247              		.syntax unified
 248              		.thumb
 249              		.thumb_func
 251              	rtc_read_vbat:
 252              	.LVL18:
 253              	.LFB238:
 893:Device/Src/rtc.c **** 
 894:Device/Src/rtc.c **** float system_get_rtc_temp(void)//ря╦д1208
 895:Device/Src/rtc.c **** {
 896:Device/Src/rtc.c **** 	float tempSum = 0;
 897:Device/Src/rtc.c **** 	uint8_t count = 0;
 898:Device/Src/rtc.c **** 	uint16_t readTemp;
 899:Device/Src/rtc.c **** 	int quick;
 900:Device/Src/rtc.c **** 	int i;
 901:Device/Src/rtc.c **** 
 902:Device/Src/rtc.c **** 	for (i = 0; i < 5; i++) {
 903:Device/Src/rtc.c **** 		if (wave1006_read_temp_adc(&readTemp) > 0) {
 904:Device/Src/rtc.c **** 			quick = readTemp;
 905:Device/Src/rtc.c **** 			// if (quick > 160) {
 906:Device/Src/rtc.c **** 			// 	quick =  quick - 256;
 907:Device/Src/rtc.c **** 			// }
 908:Device/Src/rtc.c **** 			count++;
 909:Device/Src/rtc.c **** 			tempSum += quick;
 910:Device/Src/rtc.c **** 		}
 911:Device/Src/rtc.c **** 		HAL_Delay(5);
 912:Device/Src/rtc.c **** 	}
 913:Device/Src/rtc.c **** 	if (count == 0) {
 914:Device/Src/rtc.c **** 		tempSum = -300;
 915:Device/Src/rtc.c **** 	} else {
 916:Device/Src/rtc.c **** 		tempSum = tempSum / count;
 917:Device/Src/rtc.c **** 	}
 918:Device/Src/rtc.c **** 	return tempSum;
 919:Device/Src/rtc.c **** }
 920:Device/Src/rtc.c **** 
 921:Device/Src/rtc.c **** 
 922:Device/Src/rtc.c **** uint8_t rtc_read_vbat(int* vbat)
 923:Device/Src/rtc.c **** {
 254              		.loc 1 923 1 is_stmt 1 view -0
 255              		.cfi_startproc
 256              		@ args = 0, pretend = 0, frame = 8
 257              		@ frame_needed = 0, uses_anonymous_args = 0
 258              		.loc 1 923 1 is_stmt 0 view .LVU60
 259 0000 70B5     		push	{r4, r5, r6, lr}
 260              	.LCFI8:
 261              		.cfi_def_cfa_offset 16
 262              		.cfi_offset 4, -16
 263              		.cfi_offset 5, -12
 264              		.cfi_offset 6, -8
 265              		.cfi_offset 14, -4
 266 0002 82B0     		sub	sp, sp, #8
 267              	.LCFI9:
 268              		.cfi_def_cfa_offset 24
 269 0004 0646     		mov	r6, r0
 924:Device/Src/rtc.c **** 	uint8_t time = 20;
ARM GAS  C:\Users\86158\AppData\Local\Temp\cc1OFnJc.s 			page 22


 270              		.loc 1 924 2 is_stmt 1 view .LVU61
 271              	.LVL19:
 925:Device/Src/rtc.c **** 	uint8_t buffer[2] = {0};
 272              		.loc 1 925 2 view .LVU62
 273              		.loc 1 925 10 is_stmt 0 view .LVU63
 274 0006 0023     		movs	r3, #0
 275 0008 ADF80430 		strh	r3, [sp, #4]	@ movhi
 926:Device/Src/rtc.c ****     int value = 0;
 276              		.loc 1 926 5 is_stmt 1 view .LVU64
 277              	.LVL20:
 927:Device/Src/rtc.c ****     *vbat = 0;
 278              		.loc 1 927 5 view .LVU65
 279              		.loc 1 927 11 is_stmt 0 view .LVU66
 280 000c 0360     		str	r3, [r0]
 928:Device/Src/rtc.c **** 
 929:Device/Src/rtc.c **** 	if(rtc_write_lock_on() != I2C_OK)
 281              		.loc 1 929 2 is_stmt 1 view .LVU67
 282              		.loc 1 929 5 is_stmt 0 view .LVU68
 283 000e FFF7FEFF 		bl	rtc_write_lock_on
 284              	.LVL21:
 285              		.loc 1 929 4 view .LVU69
 286 0012 88BB     		cbnz	r0, .L23
 930:Device/Src/rtc.c **** 		return I2C_NO_ACK;
 931:Device/Src/rtc.c **** 	
 932:Device/Src/rtc.c ****     buffer[0] = 0x10;
 287              		.loc 1 932 5 is_stmt 1 view .LVU70
 288              		.loc 1 932 15 is_stmt 0 view .LVU71
 289 0014 1023     		movs	r3, #16
 290 0016 8DF80430 		strb	r3, [sp, #4]
 933:Device/Src/rtc.c ****     if (rtc_write_multi_bytes(RTC_3900_ADDRESS, 0x19, buffer, 1) != I2C_OK) 
 291              		.loc 1 933 5 is_stmt 1 view .LVU72
 292              		.loc 1 933 9 is_stmt 0 view .LVU73
 293 001a 0123     		movs	r3, #1
 294 001c 01AA     		add	r2, sp, #4
 295 001e 1921     		movs	r1, #25
 296 0020 6420     		movs	r0, #100
 297 0022 FFF7FEFF 		bl	rtc_write_multi_bytes
 298              	.LVL22:
 299              		.loc 1 933 8 view .LVU74
 300 0026 58BB     		cbnz	r0, .L24
 934:Device/Src/rtc.c **** 		return I2C_NO_ACK;
 935:Device/Src/rtc.c **** 	
 936:Device/Src/rtc.c **** 	if(rtc_write_lock_off() != I2C_OK)
 301              		.loc 1 936 2 is_stmt 1 view .LVU75
 302              		.loc 1 936 5 is_stmt 0 view .LVU76
 303 0028 FFF7FEFF 		bl	rtc_write_lock_off
 304              	.LVL23:
 305              		.loc 1 936 4 view .LVU77
 306 002c 50BB     		cbnz	r0, .L25
 924:Device/Src/rtc.c **** 	uint8_t buffer[2] = {0};
 307              		.loc 1 924 10 view .LVU78
 308 002e 1424     		movs	r4, #20
 309              	.LVL24:
 310              	.L21:
 937:Device/Src/rtc.c **** 		return I2C_NO_ACK;
 938:Device/Src/rtc.c **** 	
 939:Device/Src/rtc.c **** 	while (time --)
ARM GAS  C:\Users\86158\AppData\Local\Temp\cc1OFnJc.s 			page 23


 311              		.loc 1 939 8 is_stmt 1 view .LVU79
 312 0030 2346     		mov	r3, r4
 313              		.loc 1 939 14 is_stmt 0 view .LVU80
 314 0032 013C     		subs	r4, r4, #1
 315              	.LVL25:
 316              		.loc 1 939 14 view .LVU81
 317 0034 E4B2     		uxtb	r4, r4
 318              	.LVL26:
 319              		.loc 1 939 8 view .LVU82
 320 0036 EBB1     		cbz	r3, .L27
 940:Device/Src/rtc.c **** 	{
 941:Device/Src/rtc.c **** 		HAL_Delay(1);
 321              		.loc 1 941 3 is_stmt 1 view .LVU83
 322 0038 0120     		movs	r0, #1
 323 003a FFF7FEFF 		bl	HAL_Delay
 324              	.LVL27:
 942:Device/Src/rtc.c **** 		
 943:Device/Src/rtc.c ****         rtc_read_multi_bytes(RTC_3900_ADDRESS, 0x17, buffer, 1);
 325              		.loc 1 943 9 view .LVU84
 326 003e 0123     		movs	r3, #1
 327 0040 01AA     		add	r2, sp, #4
 328 0042 1721     		movs	r1, #23
 329 0044 6420     		movs	r0, #100
 330 0046 FFF7FEFF 		bl	rtc_read_multi_bytes
 331              	.LVL28:
 944:Device/Src/rtc.c **** 		if (!(buffer[0] & 0x20)) {
 332              		.loc 1 944 3 view .LVU85
 333              		.loc 1 944 15 is_stmt 0 view .LVU86
 334 004a 9DF80430 		ldrb	r3, [sp, #4]	@ zero_extendqisi2
 335              		.loc 1 944 6 view .LVU87
 336 004e 13F02005 		ands	r5, r3, #32
 337 0052 EDD1     		bne	.L21
 945:Device/Src/rtc.c ****             rtc_read_multi_bytes(RTC_3900_ADDRESS, 0x1A, buffer, 2);
 338              		.loc 1 945 13 is_stmt 1 view .LVU88
 339 0054 0223     		movs	r3, #2
 340 0056 01AA     		add	r2, sp, #4
 341 0058 1A21     		movs	r1, #26
 342 005a 6420     		movs	r0, #100
 343 005c FFF7FEFF 		bl	rtc_read_multi_bytes
 344              	.LVL29:
 946:Device/Src/rtc.c ****             value = buffer[0] & 0x80;
 345              		.loc 1 946 13 view .LVU89
 346              		.loc 1 946 27 is_stmt 0 view .LVU90
 347 0060 9DF80430 		ldrb	r3, [sp, #4]	@ zero_extendqisi2
 348              		.loc 1 946 19 view .LVU91
 349 0064 03F08002 		and	r2, r3, #128
 350              	.LVL30:
 947:Device/Src/rtc.c ****             value = (value << 1) + buffer[1];
 351              		.loc 1 947 13 is_stmt 1 view .LVU92
 352              		.loc 1 947 42 is_stmt 0 view .LVU93
 353 0068 9DF80530 		ldrb	r3, [sp, #5]	@ zero_extendqisi2
 354              		.loc 1 947 19 view .LVU94
 355 006c 03EB4203 		add	r3, r3, r2, lsl #1
 356              	.LVL31:
 948:Device/Src/rtc.c ****             *vbat = value;
 357              		.loc 1 948 13 is_stmt 1 view .LVU95
 358              		.loc 1 948 19 is_stmt 0 view .LVU96
ARM GAS  C:\Users\86158\AppData\Local\Temp\cc1OFnJc.s 			page 24


 359 0070 3360     		str	r3, [r6]
 949:Device/Src/rtc.c ****             return I2C_OK;
 360              		.loc 1 949 13 is_stmt 1 view .LVU97
 361              		.loc 1 949 20 is_stmt 0 view .LVU98
 362 0072 02E0     		b	.L20
 363              	.LVL32:
 364              	.L27:
 950:Device/Src/rtc.c ****         }
 951:Device/Src/rtc.c **** 	}
 952:Device/Src/rtc.c **** 	
 953:Device/Src/rtc.c **** 	return I2C_NO_ACK;
 365              		.loc 1 953 9 view .LVU99
 366 0074 0225     		movs	r5, #2
 367 0076 00E0     		b	.L20
 368              	.LVL33:
 369              	.L23:
 930:Device/Src/rtc.c **** 	
 370              		.loc 1 930 10 view .LVU100
 371 0078 0225     		movs	r5, #2
 372              	.LVL34:
 373              	.L20:
 954:Device/Src/rtc.c **** 
 955:Device/Src/rtc.c **** }
 374              		.loc 1 955 1 view .LVU101
 375 007a 2846     		mov	r0, r5
 376 007c 02B0     		add	sp, sp, #8
 377              	.LCFI10:
 378              		.cfi_remember_state
 379              		.cfi_def_cfa_offset 16
 380              		@ sp needed
 381 007e 70BD     		pop	{r4, r5, r6, pc}
 382              	.LVL35:
 383              	.L24:
 384              	.LCFI11:
 385              		.cfi_restore_state
 934:Device/Src/rtc.c **** 	
 386              		.loc 1 934 10 view .LVU102
 387 0080 0225     		movs	r5, #2
 388 0082 FAE7     		b	.L20
 389              	.L25:
 937:Device/Src/rtc.c **** 	
 390              		.loc 1 937 10 view .LVU103
 391 0084 0225     		movs	r5, #2
 392 0086 F8E7     		b	.L20
 393              		.cfi_endproc
 394              	.LFE238:
 396              		.section	.text.rtc_read_date,"ax",%progbits
 397              		.align	1
 398              		.global	rtc_read_date
 399              		.syntax unified
 400              		.thumb
 401              		.thumb_func
 403              	rtc_read_date:
 404              	.LVL36:
 405              	.LFB239:
 956:Device/Src/rtc.c **** uint8_t rtc_read_date(RealTime* psRTC)
 957:Device/Src/rtc.c **** {
ARM GAS  C:\Users\86158\AppData\Local\Temp\cc1OFnJc.s 			page 25


 406              		.loc 1 957 1 is_stmt 1 view -0
 407              		.cfi_startproc
 408              		@ args = 0, pretend = 0, frame = 8
 409              		@ frame_needed = 0, uses_anonymous_args = 0
 410              		.loc 1 957 1 is_stmt 0 view .LVU105
 411 0000 10B5     		push	{r4, lr}
 412              	.LCFI12:
 413              		.cfi_def_cfa_offset 8
 414              		.cfi_offset 4, -8
 415              		.cfi_offset 14, -4
 416 0002 82B0     		sub	sp, sp, #8
 417              	.LCFI13:
 418              		.cfi_def_cfa_offset 16
 419 0004 0446     		mov	r4, r0
 958:Device/Src/rtc.c ****     uint8_t buffer[7] = {0};
 420              		.loc 1 958 5 is_stmt 1 view .LVU106
 421              		.loc 1 958 13 is_stmt 0 view .LVU107
 422 0006 0021     		movs	r1, #0
 423 0008 0091     		str	r1, [sp]
 424 000a ADF80410 		strh	r1, [sp, #4]	@ movhi
 425 000e 8DF80610 		strb	r1, [sp, #6]
 959:Device/Src/rtc.c ****     
 960:Device/Src/rtc.c ****     if (rtc_read_multi_bytes(RTC_3900_ADDRESS, 0x00, buffer, 7)!= I2C_OK) {
 426              		.loc 1 960 5 is_stmt 1 view .LVU108
 427              		.loc 1 960 9 is_stmt 0 view .LVU109
 428 0012 0723     		movs	r3, #7
 429 0014 6A46     		mov	r2, sp
 430 0016 6420     		movs	r0, #100
 431              	.LVL37:
 432              		.loc 1 960 9 view .LVU110
 433 0018 FFF7FEFF 		bl	rtc_read_multi_bytes
 434              	.LVL38:
 435              		.loc 1 960 8 view .LVU111
 436 001c 0028     		cmp	r0, #0
 437 001e 65D1     		bne	.L33
 438 0020 0246     		mov	r2, r0
 961:Device/Src/rtc.c ****         return I2C_NO_ACK;
 962:Device/Src/rtc.c ****     } 
 963:Device/Src/rtc.c ****     psRTC->sec = (buffer[0] / 16) * 10 + (buffer[0] % 16);
 439              		.loc 1 963 5 is_stmt 1 view .LVU112
 440              		.loc 1 963 25 is_stmt 0 view .LVU113
 441 0022 9DF80030 		ldrb	r3, [sp]	@ zero_extendqisi2
 442              		.loc 1 963 53 view .LVU114
 443 0026 03F00F01 		and	r1, r3, #15
 444              		.loc 1 963 40 view .LVU115
 445 002a 1B09     		lsrs	r3, r3, #4
 446 002c 03EB8303 		add	r3, r3, r3, lsl #2
 447 0030 01EB4303 		add	r3, r1, r3, lsl #1
 448              		.loc 1 963 16 view .LVU116
 449 0034 6371     		strb	r3, [r4, #5]
 964:Device/Src/rtc.c ****     psRTC->min = (buffer[1] / 16) * 10 + (buffer[1] % 16);
 450              		.loc 1 964 5 is_stmt 1 view .LVU117
 451              		.loc 1 964 25 is_stmt 0 view .LVU118
 452 0036 9DF80130 		ldrb	r3, [sp, #1]	@ zero_extendqisi2
 453              		.loc 1 964 53 view .LVU119
 454 003a 03F00F01 		and	r1, r3, #15
 455              		.loc 1 964 40 view .LVU120
ARM GAS  C:\Users\86158\AppData\Local\Temp\cc1OFnJc.s 			page 26


 456 003e 1B09     		lsrs	r3, r3, #4
 457 0040 03EB8303 		add	r3, r3, r3, lsl #2
 458 0044 01EB4303 		add	r3, r1, r3, lsl #1
 459              		.loc 1 964 16 view .LVU121
 460 0048 2371     		strb	r3, [r4, #4]
 965:Device/Src/rtc.c ****     if (buffer[2] & 0x80) {//
 461              		.loc 1 965 5 is_stmt 1 view .LVU122
 462              		.loc 1 965 15 is_stmt 0 view .LVU123
 463 004a 9DF80230 		ldrb	r3, [sp, #2]	@ zero_extendqisi2
 464              		.loc 1 965 9 view .LVU124
 465 004e 9DF90210 		ldrsb	r1, [sp, #2]
 466              		.loc 1 965 8 view .LVU125
 467 0052 0029     		cmp	r1, #0
 468 0054 10DB     		blt	.L35
 966:Device/Src/rtc.c ****         buffer[2] = buffer[2] & 0x7f;
 967:Device/Src/rtc.c ****         psRTC->hour = (buffer[2] / 16) * 10 + (buffer[2] % 16);
 968:Device/Src/rtc.c ****     } else {
 969:Device/Src/rtc.c ****         if (buffer[2] & 0x20) {//
 469              		.loc 1 969 9 is_stmt 1 view .LVU126
 470              		.loc 1 969 12 is_stmt 0 view .LVU127
 471 0056 13F0200F 		tst	r3, #32
 472 005a 3AD0     		beq	.L32
 970:Device/Src/rtc.c ****             buffer[2] = buffer[2] & 0x1f;
 473              		.loc 1 970 13 is_stmt 1 view .LVU128
 474              		.loc 1 970 35 is_stmt 0 view .LVU129
 475 005c 03F01F03 		and	r3, r3, #31
 476              		.loc 1 970 23 view .LVU130
 477 0060 8DF80230 		strb	r3, [sp, #2]
 971:Device/Src/rtc.c ****             psRTC->hour = (buffer[2] / 16) * 10 + (buffer[2] % 16) + 12;
 478              		.loc 1 971 13 is_stmt 1 view .LVU131
 479              		.loc 1 971 62 is_stmt 0 view .LVU132
 480 0064 03F00F01 		and	r1, r3, #15
 481              		.loc 1 971 49 view .LVU133
 482 0068 1B09     		lsrs	r3, r3, #4
 483 006a 03EB8303 		add	r3, r3, r3, lsl #2
 484 006e 01EB4303 		add	r3, r1, r3, lsl #1
 485              		.loc 1 971 68 view .LVU134
 486 0072 0C33     		adds	r3, r3, #12
 487              		.loc 1 971 25 view .LVU135
 488 0074 E370     		strb	r3, [r4, #3]
 489 0076 0BE0     		b	.L31
 490              	.L35:
 966:Device/Src/rtc.c ****         buffer[2] = buffer[2] & 0x7f;
 491              		.loc 1 966 9 is_stmt 1 view .LVU136
 966:Device/Src/rtc.c ****         buffer[2] = buffer[2] & 0x7f;
 492              		.loc 1 966 31 is_stmt 0 view .LVU137
 493 0078 03F07F03 		and	r3, r3, #127
 966:Device/Src/rtc.c ****         buffer[2] = buffer[2] & 0x7f;
 494              		.loc 1 966 19 view .LVU138
 495 007c 8DF80230 		strb	r3, [sp, #2]
 967:Device/Src/rtc.c ****     } else {
 496              		.loc 1 967 9 is_stmt 1 view .LVU139
 967:Device/Src/rtc.c ****     } else {
 497              		.loc 1 967 58 is_stmt 0 view .LVU140
 498 0080 03F00F01 		and	r1, r3, #15
 967:Device/Src/rtc.c ****     } else {
 499              		.loc 1 967 45 view .LVU141
ARM GAS  C:\Users\86158\AppData\Local\Temp\cc1OFnJc.s 			page 27


 500 0084 1B09     		lsrs	r3, r3, #4
 501 0086 03EB8303 		add	r3, r3, r3, lsl #2
 502 008a 01EB4303 		add	r3, r1, r3, lsl #1
 967:Device/Src/rtc.c ****     } else {
 503              		.loc 1 967 21 view .LVU142
 504 008e E370     		strb	r3, [r4, #3]
 505              	.L31:
 972:Device/Src/rtc.c ****         } else {//
 973:Device/Src/rtc.c ****             buffer[2] = buffer[2] & 0x1f;
 974:Device/Src/rtc.c ****             psRTC->hour = (buffer[2] / 16) * 10 + (buffer[2] % 16);
 975:Device/Src/rtc.c ****         }
 976:Device/Src/rtc.c ****     }
 977:Device/Src/rtc.c ****     // psRTC->week = (buffer[3] / 16) * 10 + (buffer[3] % 16);
 978:Device/Src/rtc.c ****     psRTC->day = (buffer[4] / 16) * 10 + (buffer[4] % 16);
 506              		.loc 1 978 5 is_stmt 1 view .LVU143
 507              		.loc 1 978 25 is_stmt 0 view .LVU144
 508 0090 9DF80430 		ldrb	r3, [sp, #4]	@ zero_extendqisi2
 509              		.loc 1 978 53 view .LVU145
 510 0094 03F00F01 		and	r1, r3, #15
 511              		.loc 1 978 40 view .LVU146
 512 0098 1B09     		lsrs	r3, r3, #4
 513 009a 03EB8303 		add	r3, r3, r3, lsl #2
 514 009e 01EB4303 		add	r3, r1, r3, lsl #1
 515              		.loc 1 978 16 view .LVU147
 516 00a2 A370     		strb	r3, [r4, #2]
 979:Device/Src/rtc.c ****     psRTC->mon = (buffer[5] / 16) * 10 + (buffer[5] % 16);
 517              		.loc 1 979 5 is_stmt 1 view .LVU148
 518              		.loc 1 979 25 is_stmt 0 view .LVU149
 519 00a4 9DF80530 		ldrb	r3, [sp, #5]	@ zero_extendqisi2
 520              		.loc 1 979 53 view .LVU150
 521 00a8 03F00F01 		and	r1, r3, #15
 522              		.loc 1 979 40 view .LVU151
 523 00ac 1B09     		lsrs	r3, r3, #4
 524 00ae 03EB8303 		add	r3, r3, r3, lsl #2
 525 00b2 01EB4303 		add	r3, r1, r3, lsl #1
 526              		.loc 1 979 16 view .LVU152
 527 00b6 6370     		strb	r3, [r4, #1]
 980:Device/Src/rtc.c ****     psRTC->year = (buffer[6] / 16) * 10 + (buffer[6] % 16);
 528              		.loc 1 980 5 is_stmt 1 view .LVU153
 529              		.loc 1 980 26 is_stmt 0 view .LVU154
 530 00b8 9DF80630 		ldrb	r3, [sp, #6]	@ zero_extendqisi2
 531              		.loc 1 980 54 view .LVU155
 532 00bc 03F00F01 		and	r1, r3, #15
 533              		.loc 1 980 41 view .LVU156
 534 00c0 1B09     		lsrs	r3, r3, #4
 535 00c2 03EB8303 		add	r3, r3, r3, lsl #2
 536 00c6 01EB4303 		add	r3, r1, r3, lsl #1
 537              		.loc 1 980 17 view .LVU157
 538 00ca 2370     		strb	r3, [r4]
 981:Device/Src/rtc.c ****     return I2C_OK;
 539              		.loc 1 981 5 is_stmt 1 view .LVU158
 540              	.L29:
 982:Device/Src/rtc.c **** }
 541              		.loc 1 982 1 is_stmt 0 view .LVU159
 542 00cc 1046     		mov	r0, r2
 543 00ce 02B0     		add	sp, sp, #8
 544              	.LCFI14:
ARM GAS  C:\Users\86158\AppData\Local\Temp\cc1OFnJc.s 			page 28


 545              		.cfi_remember_state
 546              		.cfi_def_cfa_offset 8
 547              		@ sp needed
 548 00d0 10BD     		pop	{r4, pc}
 549              	.LVL39:
 550              	.L32:
 551              	.LCFI15:
 552              		.cfi_restore_state
 973:Device/Src/rtc.c ****             psRTC->hour = (buffer[2] / 16) * 10 + (buffer[2] % 16);
 553              		.loc 1 973 13 is_stmt 1 view .LVU160
 973:Device/Src/rtc.c ****             psRTC->hour = (buffer[2] / 16) * 10 + (buffer[2] % 16);
 554              		.loc 1 973 35 is_stmt 0 view .LVU161
 555 00d2 03F01F03 		and	r3, r3, #31
 973:Device/Src/rtc.c ****             psRTC->hour = (buffer[2] / 16) * 10 + (buffer[2] % 16);
 556              		.loc 1 973 23 view .LVU162
 557 00d6 8DF80230 		strb	r3, [sp, #2]
 974:Device/Src/rtc.c ****         }
 558              		.loc 1 974 13 is_stmt 1 view .LVU163
 974:Device/Src/rtc.c ****         }
 559              		.loc 1 974 62 is_stmt 0 view .LVU164
 560 00da 03F00F01 		and	r1, r3, #15
 974:Device/Src/rtc.c ****         }
 561              		.loc 1 974 49 view .LVU165
 562 00de 1B09     		lsrs	r3, r3, #4
 563 00e0 03EB8303 		add	r3, r3, r3, lsl #2
 564 00e4 01EB4303 		add	r3, r1, r3, lsl #1
 974:Device/Src/rtc.c ****         }
 565              		.loc 1 974 25 view .LVU166
 566 00e8 E370     		strb	r3, [r4, #3]
 567 00ea D1E7     		b	.L31
 568              	.L33:
 961:Device/Src/rtc.c ****     } 
 569              		.loc 1 961 16 view .LVU167
 570 00ec 0222     		movs	r2, #2
 571 00ee EDE7     		b	.L29
 572              		.cfi_endproc
 573              	.LFE239:
 575              		.section	.text.rtc_write_date,"ax",%progbits
 576              		.align	1
 577              		.global	rtc_write_date
 578              		.syntax unified
 579              		.thumb
 580              		.thumb_func
 582              	rtc_write_date:
 583              	.LVL40:
 584              	.LFB240:
 983:Device/Src/rtc.c **** 
 984:Device/Src/rtc.c **** uint8_t rtc_write_date(RealTime* setRTC)	
 985:Device/Src/rtc.c **** {                               
 585              		.loc 1 985 1 is_stmt 1 view -0
 586              		.cfi_startproc
 587              		@ args = 0, pretend = 0, frame = 8
 588              		@ frame_needed = 0, uses_anonymous_args = 0
 589              		.loc 1 985 1 is_stmt 0 view .LVU169
 590 0000 30B5     		push	{r4, r5, lr}
 591              	.LCFI16:
 592              		.cfi_def_cfa_offset 12
ARM GAS  C:\Users\86158\AppData\Local\Temp\cc1OFnJc.s 			page 29


 593              		.cfi_offset 4, -12
 594              		.cfi_offset 5, -8
 595              		.cfi_offset 14, -4
 596 0002 83B0     		sub	sp, sp, #12
 597              	.LCFI17:
 598              		.cfi_def_cfa_offset 24
 599 0004 0546     		mov	r5, r0
 986:Device/Src/rtc.c ****     uint8_t buffer[7] = {0};
 600              		.loc 1 986 5 is_stmt 1 view .LVU170
 601              		.loc 1 986 13 is_stmt 0 view .LVU171
 602 0006 0024     		movs	r4, #0
 603 0008 0094     		str	r4, [sp]
 604 000a ADF80440 		strh	r4, [sp, #4]	@ movhi
 605 000e 8DF80640 		strb	r4, [sp, #6]
 987:Device/Src/rtc.c ****     rtc_write_lock_on();
 606              		.loc 1 987 5 is_stmt 1 view .LVU172
 607 0012 FFF7FEFF 		bl	rtc_write_lock_on
 608              	.LVL41:
 988:Device/Src/rtc.c ****     buffer[0] = (setRTC->sec / 10) * 16 + (setRTC->sec % 10);
 609              		.loc 1 988 5 view .LVU173
 610              		.loc 1 988 24 is_stmt 0 view .LVU174
 611 0016 6A79     		ldrb	r2, [r5, #5]	@ zero_extendqisi2
 612              		.loc 1 988 41 view .LVU175
 613 0018 2E4B     		ldr	r3, .L41
 614 001a A3FB0201 		umull	r0, r1, r3, r2
 615 001e C908     		lsrs	r1, r1, #3
 616 0020 01EB8100 		add	r0, r1, r1, lsl #2
 617 0024 A2EB4002 		sub	r2, r2, r0, lsl #1
 618 0028 02EB0112 		add	r2, r2, r1, lsl #4
 619              		.loc 1 988 15 view .LVU176
 620 002c 8DF80020 		strb	r2, [sp]
 989:Device/Src/rtc.c ****     buffer[1] = (setRTC->min / 10) * 16 + (setRTC->min % 10);
 621              		.loc 1 989 5 is_stmt 1 view .LVU177
 622              		.loc 1 989 24 is_stmt 0 view .LVU178
 623 0030 2A79     		ldrb	r2, [r5, #4]	@ zero_extendqisi2
 624              		.loc 1 989 41 view .LVU179
 625 0032 A3FB0201 		umull	r0, r1, r3, r2
 626 0036 C908     		lsrs	r1, r1, #3
 627 0038 01EB8100 		add	r0, r1, r1, lsl #2
 628 003c A2EB4002 		sub	r2, r2, r0, lsl #1
 629 0040 02EB0112 		add	r2, r2, r1, lsl #4
 630              		.loc 1 989 15 view .LVU180
 631 0044 8DF80120 		strb	r2, [sp, #1]
 990:Device/Src/rtc.c ****     buffer[2] = (setRTC->hour / 10) * 16 + (setRTC->hour % 10) + 0x80;//
 632              		.loc 1 990 5 is_stmt 1 view .LVU181
 633              		.loc 1 990 24 is_stmt 0 view .LVU182
 634 0048 EA78     		ldrb	r2, [r5, #3]	@ zero_extendqisi2
 635              		.loc 1 990 42 view .LVU183
 636 004a A3FB0201 		umull	r0, r1, r3, r2
 637 004e C908     		lsrs	r1, r1, #3
 638 0050 01EB8100 		add	r0, r1, r1, lsl #2
 639 0054 A2EB4002 		sub	r2, r2, r0, lsl #1
 640 0058 02EB0112 		add	r2, r2, r1, lsl #4
 641 005c D2B2     		uxtb	r2, r2
 642              		.loc 1 990 64 view .LVU184
 643 005e 82F08002 		eor	r2, r2, #128
 644              		.loc 1 990 15 view .LVU185
ARM GAS  C:\Users\86158\AppData\Local\Temp\cc1OFnJc.s 			page 30


 645 0062 8DF80220 		strb	r2, [sp, #2]
 991:Device/Src/rtc.c ****     buffer[3] = 0;
 646              		.loc 1 991 5 is_stmt 1 view .LVU186
 647              		.loc 1 991 15 is_stmt 0 view .LVU187
 648 0066 8DF80340 		strb	r4, [sp, #3]
 992:Device/Src/rtc.c ****     buffer[4] = (setRTC->day / 10) * 16 + (setRTC->day % 10);
 649              		.loc 1 992 5 is_stmt 1 view .LVU188
 650              		.loc 1 992 24 is_stmt 0 view .LVU189
 651 006a AA78     		ldrb	r2, [r5, #2]	@ zero_extendqisi2
 652              		.loc 1 992 41 view .LVU190
 653 006c A3FB0201 		umull	r0, r1, r3, r2
 654 0070 C908     		lsrs	r1, r1, #3
 655 0072 01EB8100 		add	r0, r1, r1, lsl #2
 656 0076 A2EB4002 		sub	r2, r2, r0, lsl #1
 657 007a 02EB0112 		add	r2, r2, r1, lsl #4
 658              		.loc 1 992 15 view .LVU191
 659 007e 8DF80420 		strb	r2, [sp, #4]
 993:Device/Src/rtc.c ****     buffer[5] = (setRTC->mon / 10) * 16 + (setRTC->mon % 10);
 660              		.loc 1 993 5 is_stmt 1 view .LVU192
 661              		.loc 1 993 24 is_stmt 0 view .LVU193
 662 0082 6A78     		ldrb	r2, [r5, #1]	@ zero_extendqisi2
 663              		.loc 1 993 41 view .LVU194
 664 0084 A3FB0201 		umull	r0, r1, r3, r2
 665 0088 C908     		lsrs	r1, r1, #3
 666 008a 01EB8100 		add	r0, r1, r1, lsl #2
 667 008e A2EB4002 		sub	r2, r2, r0, lsl #1
 668 0092 02EB0112 		add	r2, r2, r1, lsl #4
 669              		.loc 1 993 15 view .LVU195
 670 0096 8DF80520 		strb	r2, [sp, #5]
 994:Device/Src/rtc.c ****     buffer[6] = (setRTC->year / 10) * 16 + (setRTC->year % 10);
 671              		.loc 1 994 5 is_stmt 1 view .LVU196
 672              		.loc 1 994 24 is_stmt 0 view .LVU197
 673 009a 2A78     		ldrb	r2, [r5]	@ zero_extendqisi2
 674              		.loc 1 994 42 view .LVU198
 675 009c A3FB0213 		umull	r1, r3, r3, r2
 676 00a0 DB08     		lsrs	r3, r3, #3
 677 00a2 03EB8301 		add	r1, r3, r3, lsl #2
 678 00a6 A2EB4102 		sub	r2, r2, r1, lsl #1
 679 00aa 02EB0313 		add	r3, r2, r3, lsl #4
 680              		.loc 1 994 15 view .LVU199
 681 00ae 8DF80630 		strb	r3, [sp, #6]
 995:Device/Src/rtc.c ****     if (rtc_write_multi_bytes(RTC_3900_ADDRESS, 0x00, buffer, 7)!= I2C_OK) {
 682              		.loc 1 995 5 is_stmt 1 view .LVU200
 683              		.loc 1 995 9 is_stmt 0 view .LVU201
 684 00b2 0723     		movs	r3, #7
 685 00b4 6A46     		mov	r2, sp
 686 00b6 2146     		mov	r1, r4
 687 00b8 6420     		movs	r0, #100
 688 00ba FFF7FEFF 		bl	rtc_write_multi_bytes
 689              	.LVL42:
 690              		.loc 1 995 8 view .LVU202
 691 00be 28B9     		cbnz	r0, .L40
 692 00c0 0446     		mov	r4, r0
 996:Device/Src/rtc.c ****         rtc_write_lock_off();
 997:Device/Src/rtc.c ****         return I2C_NO_ACK;
 998:Device/Src/rtc.c ****     } 
 999:Device/Src/rtc.c ****     rtc_write_lock_off();
ARM GAS  C:\Users\86158\AppData\Local\Temp\cc1OFnJc.s 			page 31


 693              		.loc 1 999 5 is_stmt 1 view .LVU203
 694 00c2 FFF7FEFF 		bl	rtc_write_lock_off
 695              	.LVL43:
1000:Device/Src/rtc.c ****     return I2C_OK;
 696              		.loc 1 1000 5 view .LVU204
 697              	.L38:
1001:Device/Src/rtc.c **** }
 698              		.loc 1 1001 1 is_stmt 0 view .LVU205
 699 00c6 2046     		mov	r0, r4
 700 00c8 03B0     		add	sp, sp, #12
 701              	.LCFI18:
 702              		.cfi_remember_state
 703              		.cfi_def_cfa_offset 12
 704              		@ sp needed
 705 00ca 30BD     		pop	{r4, r5, pc}
 706              	.LVL44:
 707              	.L40:
 708              	.LCFI19:
 709              		.cfi_restore_state
 996:Device/Src/rtc.c ****         rtc_write_lock_off();
 710              		.loc 1 996 9 is_stmt 1 view .LVU206
 711 00cc FFF7FEFF 		bl	rtc_write_lock_off
 712              	.LVL45:
 997:Device/Src/rtc.c ****     } 
 713              		.loc 1 997 9 view .LVU207
 997:Device/Src/rtc.c ****     } 
 714              		.loc 1 997 16 is_stmt 0 view .LVU208
 715 00d0 0224     		movs	r4, #2
 716 00d2 F8E7     		b	.L38
 717              	.L42:
 718              		.align	2
 719              	.L41:
 720 00d4 CDCCCCCC 		.word	-858993459
 721              		.cfi_endproc
 722              	.LFE240:
 724              		.section	.text.PrintfTime,"ax",%progbits
 725              		.align	1
 726              		.global	PrintfTime
 727              		.syntax unified
 728              		.thumb
 729              		.thumb_func
 731              	PrintfTime:
 732              	.LVL46:
 733              	.LFB241:
1002:Device/Src/rtc.c **** 
1003:Device/Src/rtc.c **** void PrintfTime(RealTime* rtc)
1004:Device/Src/rtc.c **** {
 734              		.loc 1 1004 1 is_stmt 1 view -0
 735              		.cfi_startproc
 736              		@ args = 0, pretend = 0, frame = 0
 737              		@ frame_needed = 0, uses_anonymous_args = 0
 738              		@ link register save eliminated.
1005:Device/Src/rtc.c **** 	// UsbPrintf("\n20%d/%d/%d %d:%d:%d\n", rtc->year, rtc->mon, rtc->day, rtc->hour, rtc->min, rtc->s
1006:Device/Src/rtc.c **** }
 739              		.loc 1 1006 1 view .LVU210
 740 0000 7047     		bx	lr
 741              		.cfi_endproc
ARM GAS  C:\Users\86158\AppData\Local\Temp\cc1OFnJc.s 			page 32


 742              	.LFE241:
 744              		.section	.rodata.rtc_out_4096.str1.4,"aMS",%progbits,1
 745              		.align	2
 746              	.LC0:
 747 0000 6F757420 		.ascii	"out 64Hz error!!\012\000"
 747      3634487A 
 747      20657272 
 747      6F722121 
 747      0A00
 748              		.section	.text.rtc_out_4096,"ax",%progbits
 749              		.align	1
 750              		.global	rtc_out_4096
 751              		.syntax unified
 752              		.thumb
 753              		.thumb_func
 755              	rtc_out_4096:
 756              	.LFB242:
1007:Device/Src/rtc.c **** 
1008:Device/Src/rtc.c **** 
1009:Device/Src/rtc.c **** 
1010:Device/Src/rtc.c **** uint8_t rtc_out_4096(void)
1011:Device/Src/rtc.c **** {
 757              		.loc 1 1011 1 view -0
 758              		.cfi_startproc
 759              		@ args = 0, pretend = 0, frame = 8
 760              		@ frame_needed = 0, uses_anonymous_args = 0
 761 0000 00B5     		push	{lr}
 762              	.LCFI20:
 763              		.cfi_def_cfa_offset 4
 764              		.cfi_offset 14, -4
 765 0002 83B0     		sub	sp, sp, #12
 766              	.LCFI21:
 767              		.cfi_def_cfa_offset 16
1012:Device/Src/rtc.c **** 	uint8_t buffer[2] = {0xA1, 0x44};
 768              		.loc 1 1012 2 view .LVU212
 769              		.loc 1 1012 10 is_stmt 0 view .LVU213
 770 0004 44F2A143 		movw	r3, #17569
 771 0008 ADF80430 		strh	r3, [sp, #4]	@ movhi
1013:Device/Src/rtc.c **** 	if (rtc_write_multi_bytes(RTC_3900_ADDRESS, 0x10, buffer, 2) != I2C_OK) {
 772              		.loc 1 1013 2 is_stmt 1 view .LVU214
 773              		.loc 1 1013 6 is_stmt 0 view .LVU215
 774 000c 0223     		movs	r3, #2
 775 000e 01AA     		add	r2, sp, #4
 776 0010 1021     		movs	r1, #16
 777 0012 6420     		movs	r0, #100
 778 0014 FFF7FEFF 		bl	rtc_write_multi_bytes
 779              	.LVL47:
 780              		.loc 1 1013 5 view .LVU216
 781 0018 10B9     		cbnz	r0, .L47
 782              	.L45:
1014:Device/Src/rtc.c **** 		UsbPrintf("out 64Hz error!!\n");
1015:Device/Src/rtc.c ****         return I2C_NO_ACK;
1016:Device/Src/rtc.c ****     } 
1017:Device/Src/rtc.c **** 	
1018:Device/Src/rtc.c **** 	// UsbPrintf("out 64Hz ...\n");
1019:Device/Src/rtc.c **** 	return I2C_OK;
1020:Device/Src/rtc.c **** }
ARM GAS  C:\Users\86158\AppData\Local\Temp\cc1OFnJc.s 			page 33


 783              		.loc 1 1020 1 view .LVU217
 784 001a 03B0     		add	sp, sp, #12
 785              	.LCFI22:
 786              		.cfi_remember_state
 787              		.cfi_def_cfa_offset 4
 788              		@ sp needed
 789 001c 5DF804FB 		ldr	pc, [sp], #4
 790              	.L47:
 791              	.LCFI23:
 792              		.cfi_restore_state
1014:Device/Src/rtc.c **** 		UsbPrintf("out 64Hz error!!\n");
 793              		.loc 1 1014 3 is_stmt 1 view .LVU218
 794 0020 0248     		ldr	r0, .L48
 795 0022 FFF7FEFF 		bl	UsbPrintf
 796              	.LVL48:
1015:Device/Src/rtc.c ****     } 
 797              		.loc 1 1015 9 view .LVU219
1015:Device/Src/rtc.c ****     } 
 798              		.loc 1 1015 16 is_stmt 0 view .LVU220
 799 0026 0220     		movs	r0, #2
 800 0028 F7E7     		b	.L45
 801              	.L49:
 802 002a 00BF     		.align	2
 803              	.L48:
 804 002c 00000000 		.word	.LC0
 805              		.cfi_endproc
 806              	.LFE242:
 808              		.section	.rodata.rtc_disable_int.str1.4,"aMS",%progbits,1
 809              		.align	2
 810              	.LC1:
 811 0000 636C6F73 		.ascii	"close int error\012\000"
 811      6520696E 
 811      74206572 
 811      726F720A 
 811      00
 812              		.section	.text.rtc_disable_int,"ax",%progbits
 813              		.align	1
 814              		.global	rtc_disable_int
 815              		.syntax unified
 816              		.thumb
 817              		.thumb_func
 819              	rtc_disable_int:
 820              	.LFB243:
1021:Device/Src/rtc.c **** 
1022:Device/Src/rtc.c **** uint8_t rtc_disable_int(void)
1023:Device/Src/rtc.c **** {
 821              		.loc 1 1023 1 is_stmt 1 view -0
 822              		.cfi_startproc
 823              		@ args = 0, pretend = 0, frame = 8
 824              		@ frame_needed = 0, uses_anonymous_args = 0
 825 0000 10B5     		push	{r4, lr}
 826              	.LCFI24:
 827              		.cfi_def_cfa_offset 8
 828              		.cfi_offset 4, -8
 829              		.cfi_offset 14, -4
 830 0002 82B0     		sub	sp, sp, #8
 831              	.LCFI25:
ARM GAS  C:\Users\86158\AppData\Local\Temp\cc1OFnJc.s 			page 34


 832              		.cfi_def_cfa_offset 16
1024:Device/Src/rtc.c ****     uint8_t buffer[2] = {0x00, 0x40};
 833              		.loc 1 1024 5 view .LVU222
 834              		.loc 1 1024 13 is_stmt 0 view .LVU223
 835 0004 4FF48043 		mov	r3, #16384
 836 0008 ADF80430 		strh	r3, [sp, #4]	@ movhi
1025:Device/Src/rtc.c **** 	uint8_t i;
 837              		.loc 1 1025 2 is_stmt 1 view .LVU224
1026:Device/Src/rtc.c **** 	for (i = 0; i < 10; i++) {
 838              		.loc 1 1026 2 view .LVU225
 839              	.LVL49:
 840              		.loc 1 1026 9 is_stmt 0 view .LVU226
 841 000c 0024     		movs	r4, #0
 842              		.loc 1 1026 2 view .LVU227
 843 000e 04E0     		b	.L51
 844              	.LVL50:
 845              	.L52:
1027:Device/Src/rtc.c **** 		if (check_sda_level()) {
1028:Device/Src/rtc.c **** 			if (rtc_write_multi_bytes(RTC_3900_ADDRESS, 0x10, buffer, 2) == I2C_OK) {
1029:Device/Src/rtc.c **** 				// UsbPrintf("close 64Hz ...\n");
1030:Device/Src/rtc.c **** 				return I2C_OK;
1031:Device/Src/rtc.c **** 			}
1032:Device/Src/rtc.c **** 		}
1033:Device/Src/rtc.c **** 		HAL_Delay(2);
 846              		.loc 1 1033 3 is_stmt 1 discriminator 2 view .LVU228
 847 0010 0220     		movs	r0, #2
 848 0012 FFF7FEFF 		bl	HAL_Delay
 849              	.LVL51:
1026:Device/Src/rtc.c **** 	for (i = 0; i < 10; i++) {
 850              		.loc 1 1026 22 discriminator 2 view .LVU229
1026:Device/Src/rtc.c **** 	for (i = 0; i < 10; i++) {
 851              		.loc 1 1026 23 is_stmt 0 discriminator 2 view .LVU230
 852 0016 0134     		adds	r4, r4, #1
 853              	.LVL52:
1026:Device/Src/rtc.c **** 	for (i = 0; i < 10; i++) {
 854              		.loc 1 1026 23 discriminator 2 view .LVU231
 855 0018 E4B2     		uxtb	r4, r4
 856              	.LVL53:
 857              	.L51:
1026:Device/Src/rtc.c **** 	for (i = 0; i < 10; i++) {
 858              		.loc 1 1026 14 is_stmt 1 discriminator 1 view .LVU232
1026:Device/Src/rtc.c **** 	for (i = 0; i < 10; i++) {
 859              		.loc 1 1026 2 is_stmt 0 discriminator 1 view .LVU233
 860 001a 092C     		cmp	r4, #9
 861 001c 0DD8     		bhi	.L56
1027:Device/Src/rtc.c **** 		if (check_sda_level()) {
 862              		.loc 1 1027 3 is_stmt 1 view .LVU234
1027:Device/Src/rtc.c **** 		if (check_sda_level()) {
 863              		.loc 1 1027 7 is_stmt 0 view .LVU235
 864 001e FFF7FEFF 		bl	check_sda_level
 865              	.LVL54:
1027:Device/Src/rtc.c **** 		if (check_sda_level()) {
 866              		.loc 1 1027 6 view .LVU236
 867 0022 0028     		cmp	r0, #0
 868 0024 F4D0     		beq	.L52
1028:Device/Src/rtc.c **** 				// UsbPrintf("close 64Hz ...\n");
 869              		.loc 1 1028 4 is_stmt 1 view .LVU237
ARM GAS  C:\Users\86158\AppData\Local\Temp\cc1OFnJc.s 			page 35


1028:Device/Src/rtc.c **** 				// UsbPrintf("close 64Hz ...\n");
 870              		.loc 1 1028 8 is_stmt 0 view .LVU238
 871 0026 0223     		movs	r3, #2
 872 0028 01AA     		add	r2, sp, #4
 873 002a 1021     		movs	r1, #16
 874 002c 6420     		movs	r0, #100
 875 002e FFF7FEFF 		bl	rtc_write_multi_bytes
 876              	.LVL55:
1028:Device/Src/rtc.c **** 				// UsbPrintf("close 64Hz ...\n");
 877              		.loc 1 1028 7 view .LVU239
 878 0032 0346     		mov	r3, r0
 879 0034 0028     		cmp	r0, #0
 880 0036 EBD1     		bne	.L52
 881 0038 03E0     		b	.L53
 882              	.L56:
1034:Device/Src/rtc.c **** 	}
1035:Device/Src/rtc.c **** 	UsbPrintf("close int error\n");
 883              		.loc 1 1035 2 is_stmt 1 view .LVU240
 884 003a 0348     		ldr	r0, .L57
 885 003c FFF7FEFF 		bl	UsbPrintf
 886              	.LVL56:
1036:Device/Src/rtc.c **** 	return I2C_NO_ACK;
 887              		.loc 1 1036 2 view .LVU241
 888              		.loc 1 1036 9 is_stmt 0 view .LVU242
 889 0040 0223     		movs	r3, #2
 890              	.L53:
1037:Device/Src/rtc.c **** }
 891              		.loc 1 1037 1 view .LVU243
 892 0042 1846     		mov	r0, r3
 893 0044 02B0     		add	sp, sp, #8
 894              	.LCFI26:
 895              		.cfi_def_cfa_offset 8
 896              		@ sp needed
 897 0046 10BD     		pop	{r4, pc}
 898              	.LVL57:
 899              	.L58:
 900              		.loc 1 1037 1 view .LVU244
 901              		.align	2
 902              	.L57:
 903 0048 00000000 		.word	.LC1
 904              		.cfi_endproc
 905              	.LFE243:
 907              		.section	.rodata.rtc_set_testcap.str1.4,"aMS",%progbits,1
 908              		.align	2
 909              	.LC2:
 910 0000 61646A75 		.ascii	"adjust cap iic error\012\000"
 910      73742063 
 910      61702069 
 910      69632065 
 910      72726F72 
 911              		.section	.text.rtc_set_testcap,"ax",%progbits
 912              		.align	1
 913              		.global	rtc_set_testcap
 914              		.syntax unified
 915              		.thumb
 916              		.thumb_func
 918              	rtc_set_testcap:
ARM GAS  C:\Users\86158\AppData\Local\Temp\cc1OFnJc.s 			page 36


 919              	.LVL58:
 920              	.LFB244:
1038:Device/Src/rtc.c **** 
1039:Device/Src/rtc.c **** 
1040:Device/Src/rtc.c **** uint8_t rtc_set_testcap(uint8_t *p_dat)
1041:Device/Src/rtc.c **** {	
 921              		.loc 1 1041 1 is_stmt 1 view -0
 922              		.cfi_startproc
 923              		@ args = 0, pretend = 0, frame = 0
 924              		@ frame_needed = 0, uses_anonymous_args = 0
 925              		.loc 1 1041 1 is_stmt 0 view .LVU246
 926 0000 38B5     		push	{r3, r4, r5, lr}
 927              	.LCFI27:
 928              		.cfi_def_cfa_offset 16
 929              		.cfi_offset 3, -16
 930              		.cfi_offset 4, -12
 931              		.cfi_offset 5, -8
 932              		.cfi_offset 14, -4
 933 0002 0546     		mov	r5, r0
1042:Device/Src/rtc.c **** 	uint8_t i;
 934              		.loc 1 1042 2 is_stmt 1 view .LVU247
1043:Device/Src/rtc.c **** 	for (i = 0; i < 10; i++) {
 935              		.loc 1 1043 2 view .LVU248
 936              	.LVL59:
 937              		.loc 1 1043 9 is_stmt 0 view .LVU249
 938 0004 0024     		movs	r4, #0
 939              		.loc 1 1043 2 view .LVU250
 940 0006 04E0     		b	.L60
 941              	.LVL60:
 942              	.L61:
1044:Device/Src/rtc.c **** 		if (check_sda_level()) {
1045:Device/Src/rtc.c **** 			if (rtc_write_multi_bytes(RTC_3900_ADDRESS, WAVE1006_REG_USER_RAM_START + 21, p_dat, 2) == I2C_O
1046:Device/Src/rtc.c **** 				return I2C_OK;
1047:Device/Src/rtc.c **** 			} 
1048:Device/Src/rtc.c **** 		}
1049:Device/Src/rtc.c **** 		HAL_Delay(2);
 943              		.loc 1 1049 3 is_stmt 1 discriminator 2 view .LVU251
 944 0008 0220     		movs	r0, #2
 945 000a FFF7FEFF 		bl	HAL_Delay
 946              	.LVL61:
1043:Device/Src/rtc.c **** 	for (i = 0; i < 10; i++) {
 947              		.loc 1 1043 22 discriminator 2 view .LVU252
1043:Device/Src/rtc.c **** 	for (i = 0; i < 10; i++) {
 948              		.loc 1 1043 23 is_stmt 0 discriminator 2 view .LVU253
 949 000e 0134     		adds	r4, r4, #1
 950              	.LVL62:
1043:Device/Src/rtc.c **** 	for (i = 0; i < 10; i++) {
 951              		.loc 1 1043 23 discriminator 2 view .LVU254
 952 0010 E4B2     		uxtb	r4, r4
 953              	.LVL63:
 954              	.L60:
1043:Device/Src/rtc.c **** 	for (i = 0; i < 10; i++) {
 955              		.loc 1 1043 14 is_stmt 1 discriminator 1 view .LVU255
1043:Device/Src/rtc.c **** 	for (i = 0; i < 10; i++) {
 956              		.loc 1 1043 2 is_stmt 0 discriminator 1 view .LVU256
 957 0012 092C     		cmp	r4, #9
 958 0014 0DD8     		bhi	.L65
ARM GAS  C:\Users\86158\AppData\Local\Temp\cc1OFnJc.s 			page 37


1044:Device/Src/rtc.c **** 		if (check_sda_level()) {
 959              		.loc 1 1044 3 is_stmt 1 view .LVU257
1044:Device/Src/rtc.c **** 		if (check_sda_level()) {
 960              		.loc 1 1044 7 is_stmt 0 view .LVU258
 961 0016 FFF7FEFF 		bl	check_sda_level
 962              	.LVL64:
1044:Device/Src/rtc.c **** 		if (check_sda_level()) {
 963              		.loc 1 1044 6 view .LVU259
 964 001a 0028     		cmp	r0, #0
 965 001c F4D0     		beq	.L61
1045:Device/Src/rtc.c **** 				return I2C_OK;
 966              		.loc 1 1045 4 is_stmt 1 view .LVU260
1045:Device/Src/rtc.c **** 				return I2C_OK;
 967              		.loc 1 1045 8 is_stmt 0 view .LVU261
 968 001e 0223     		movs	r3, #2
 969 0020 2A46     		mov	r2, r5
 970 0022 4121     		movs	r1, #65
 971 0024 6420     		movs	r0, #100
 972 0026 FFF7FEFF 		bl	rtc_write_multi_bytes
 973              	.LVL65:
1045:Device/Src/rtc.c **** 				return I2C_OK;
 974              		.loc 1 1045 7 view .LVU262
 975 002a 0346     		mov	r3, r0
 976 002c 0028     		cmp	r0, #0
 977 002e EBD1     		bne	.L61
 978 0030 03E0     		b	.L62
 979              	.L65:
1050:Device/Src/rtc.c **** 	}
1051:Device/Src/rtc.c **** 	UsbPrintf("adjust cap iic error\n");
 980              		.loc 1 1051 2 is_stmt 1 view .LVU263
 981 0032 0348     		ldr	r0, .L66
 982 0034 FFF7FEFF 		bl	UsbPrintf
 983              	.LVL66:
1052:Device/Src/rtc.c **** 	return I2C_NO_ACK;
 984              		.loc 1 1052 2 view .LVU264
 985              		.loc 1 1052 9 is_stmt 0 view .LVU265
 986 0038 0223     		movs	r3, #2
 987              	.L62:
1053:Device/Src/rtc.c **** }
 988              		.loc 1 1053 1 view .LVU266
 989 003a 1846     		mov	r0, r3
 990 003c 38BD     		pop	{r3, r4, r5, pc}
 991              	.LVL67:
 992              	.L67:
 993              		.loc 1 1053 1 view .LVU267
 994 003e 00BF     		.align	2
 995              	.L66:
 996 0040 00000000 		.word	.LC2
 997              		.cfi_endproc
 998              	.LFE244:
 1000              		.section	.text.rtc_set_testmode,"ax",%progbits
 1001              		.align	1
 1002              		.global	rtc_set_testmode
 1003              		.syntax unified
 1004              		.thumb
 1005              		.thumb_func
 1007              	rtc_set_testmode:
ARM GAS  C:\Users\86158\AppData\Local\Temp\cc1OFnJc.s 			page 38


 1008              	.LFB245:
1054:Device/Src/rtc.c **** 
1055:Device/Src/rtc.c **** uint8_t rtc_set_testmode(void)
1056:Device/Src/rtc.c **** {
 1009              		.loc 1 1056 1 is_stmt 1 view -0
 1010              		.cfi_startproc
 1011              		@ args = 0, pretend = 0, frame = 0
 1012              		@ frame_needed = 0, uses_anonymous_args = 0
 1013              		@ link register save eliminated.
1057:Device/Src/rtc.c **** 	// uint8_t config[9] = {0xFF, 0xFF, 0x2F, 0xFF, 0x30, 0x30, 0xFE, 0x22, 0x80};
1058:Device/Src/rtc.c **** 		
1059:Device/Src/rtc.c ****     // rtc_write_lock_on();
1060:Device/Src/rtc.c **** 	
1061:Device/Src/rtc.c **** 	// if (rtc_write_multi_bytes(RTC_3900_ADDRESS, 0x3F, config, 9)!= I2C_OK) {
1062:Device/Src/rtc.c ****     //     rtc_write_lock_off();
1063:Device/Src/rtc.c ****     //     return I2C_NO_ACK;
1064:Device/Src/rtc.c ****     // } 
1065:Device/Src/rtc.c ****     // rtc_write_lock_off();
1066:Device/Src/rtc.c **** 	return I2C_OK;
 1014              		.loc 1 1066 2 view .LVU269
1067:Device/Src/rtc.c **** }
 1015              		.loc 1 1067 1 is_stmt 0 view .LVU270
 1016 0000 0020     		movs	r0, #0
 1017 0002 7047     		bx	lr
 1018              		.cfi_endproc
 1019              	.LFE245:
 1021              		.section	.rodata.rtc_1006_set_testmode.str1.4,"aMS",%progbits,1
 1022              		.align	2
 1023              	.LC3:
 1024 0000 69326320 		.ascii	"i2c OK after pad change \012\000"
 1024      4F4B2061 
 1024      66746572 
 1024      20706164 
 1024      20636861 
 1025              		.section	.text.rtc_1006_set_testmode,"ax",%progbits
 1026              		.align	1
 1027              		.global	rtc_1006_set_testmode
 1028              		.syntax unified
 1029              		.thumb
 1030              		.thumb_func
 1032              	rtc_1006_set_testmode:
 1033              	.LVL68:
 1034              	.LFB246:
1068:Device/Src/rtc.c **** 
1069:Device/Src/rtc.c **** uint8_t rtc_1006_set_testmode(uint8_t channel)
1070:Device/Src/rtc.c **** {
 1035              		.loc 1 1070 1 is_stmt 1 view -0
 1036              		.cfi_startproc
 1037              		@ args = 0, pretend = 0, frame = 8
 1038              		@ frame_needed = 0, uses_anonymous_args = 0
 1039              		.loc 1 1070 1 is_stmt 0 view .LVU272
 1040 0000 10B5     		push	{r4, lr}
 1041              	.LCFI28:
 1042              		.cfi_def_cfa_offset 8
 1043              		.cfi_offset 4, -8
 1044              		.cfi_offset 14, -4
 1045 0002 82B0     		sub	sp, sp, #8
ARM GAS  C:\Users\86158\AppData\Local\Temp\cc1OFnJc.s 			page 39


 1046              	.LCFI29:
 1047              		.cfi_def_cfa_offset 16
 1048 0004 0446     		mov	r4, r0
1071:Device/Src/rtc.c **** 	uint8_t buf;
 1049              		.loc 1 1071 2 is_stmt 1 view .LVU273
1072:Device/Src/rtc.c **** 	uint8_t osc_buf[2] = {0};
 1050              		.loc 1 1072 2 view .LVU274
 1051              		.loc 1 1072 10 is_stmt 0 view .LVU275
 1052 0006 0023     		movs	r3, #0
 1053 0008 ADF80430 		strh	r3, [sp, #4]	@ movhi
1073:Device/Src/rtc.c **** 
1074:Device/Src/rtc.c **** 	rtc_set_channel(channel, RTC_INIT_1006);
 1054              		.loc 1 1074 2 is_stmt 1 view .LVU276
 1055 000c 0321     		movs	r1, #3
 1056 000e FFF7FEFF 		bl	rtc_set_channel
 1057              	.LVL69:
1075:Device/Src/rtc.c **** 	buf = 0x40;
 1058              		.loc 1 1075 2 view .LVU277
 1059              		.loc 1 1075 6 is_stmt 0 view .LVU278
 1060 0012 4023     		movs	r3, #64
 1061 0014 8DF80730 		strb	r3, [sp, #7]
1076:Device/Src/rtc.c **** 	if(drv_wave1006_write_reg(DEV_SD8804, WAVE1006_REG_CTR3, 1, &buf) != WAVE1006_EXIT_OK)   //хГ╧Шйгс
 1062              		.loc 1 1076 2 is_stmt 1 view .LVU279
 1063              		.loc 1 1076 5 is_stmt 0 view .LVU280
 1064 0018 0DF10703 		add	r3, sp, #7
 1065 001c 0122     		movs	r2, #1
 1066 001e 1121     		movs	r1, #17
 1067 0020 0420     		movs	r0, #4
 1068 0022 FFF7FEFF 		bl	drv_wave1006_write_reg
 1069              	.LVL70:
 1070              		.loc 1 1076 4 view .LVU281
 1071 0026 0028     		cmp	r0, #0
 1072 0028 5FD1     		bne	.L71
1077:Device/Src/rtc.c **** 	{
1078:Device/Src/rtc.c **** 		return I2C_NO_ACK;
1079:Device/Src/rtc.c **** 	}
1080:Device/Src/rtc.c **** 
1081:Device/Src/rtc.c **** 	//я║тЯн╙SD3078B╥Бв╟(╠ьпКтз╫Ь╡Бйтдёй╫ж╝г╟я║тЯё╛╥ЯтРп╬ф╛pad╦д╠Д)
1082:Device/Src/rtc.c **** 	if (drv_wave1006_read_reg(DEV_SD3068, WAVE1006_REG_USER_RAM_START + 20, 1, &buf) != WAVE1006_EXIT_
 1073              		.loc 1 1082 2 is_stmt 1 view .LVU282
 1074              		.loc 1 1082 6 is_stmt 0 view .LVU283
 1075 002a 0DF10703 		add	r3, sp, #7
 1076 002e 0122     		movs	r2, #1
 1077 0030 4021     		movs	r1, #64
 1078 0032 FFF7FEFF 		bl	drv_wave1006_read_reg
 1079              	.LVL71:
 1080              		.loc 1 1082 5 view .LVU284
 1081 0036 0028     		cmp	r0, #0
 1082 0038 5AD1     		bne	.L72
1083:Device/Src/rtc.c **** 	{
1084:Device/Src/rtc.c **** 		return I2C_NO_ACK;
1085:Device/Src/rtc.c **** 	}
1086:Device/Src/rtc.c **** 	buf &= ~0x0f;
 1083              		.loc 1 1086 2 is_stmt 1 view .LVU285
 1084              		.loc 1 1086 6 is_stmt 0 view .LVU286
 1085 003a 9DF80730 		ldrb	r3, [sp, #7]	@ zero_extendqisi2
 1086 003e 03F0F003 		and	r3, r3, #240
ARM GAS  C:\Users\86158\AppData\Local\Temp\cc1OFnJc.s 			page 40


 1087 0042 8DF80730 		strb	r3, [sp, #7]
1087:Device/Src/rtc.c **** 	buf |= 0x0d;
 1088              		.loc 1 1087 2 is_stmt 1 view .LVU287
 1089              		.loc 1 1087 6 is_stmt 0 view .LVU288
 1090 0046 43F00D03 		orr	r3, r3, #13
 1091 004a 8DF80730 		strb	r3, [sp, #7]
1088:Device/Src/rtc.c **** 	if (drv_wave1006_write_reg(DEV_SD3068, WAVE1006_REG_USER_RAM_START + 20, 1, &buf) != WAVE1006_EXIT
 1092              		.loc 1 1088 2 is_stmt 1 view .LVU289
 1093              		.loc 1 1088 6 is_stmt 0 view .LVU290
 1094 004e 0DF10703 		add	r3, sp, #7
 1095 0052 0122     		movs	r2, #1
 1096 0054 4021     		movs	r1, #64
 1097 0056 FFF7FEFF 		bl	drv_wave1006_write_reg
 1098              	.LVL72:
 1099              		.loc 1 1088 5 view .LVU291
 1100 005a 0028     		cmp	r0, #0
 1101 005c 4AD1     		bne	.L73
1089:Device/Src/rtc.c **** 	{
1090:Device/Src/rtc.c **** 		return I2C_NO_ACK;
1091:Device/Src/rtc.c **** 	}
1092:Device/Src/rtc.c **** 	if (wave1006_enter_test_mode(WAVE1006_TEST_PAD | WAVE1006_TEST_OSC | WAVE1006_TEST_ADC) != WAVE100
 1102              		.loc 1 1092 2 is_stmt 1 view .LVU292
 1103              		.loc 1 1092 6 is_stmt 0 view .LVU293
 1104 005e 5420     		movs	r0, #84
 1105 0060 FFF7FEFF 		bl	wave1006_enter_test_mode
 1106              	.LVL73:
 1107              		.loc 1 1092 5 view .LVU294
 1108 0064 0028     		cmp	r0, #0
 1109 0066 47D1     		bne	.L74
1093:Device/Src/rtc.c **** 	{
1094:Device/Src/rtc.c **** 		return I2C_NO_ACK;
1095:Device/Src/rtc.c **** 	}
1096:Device/Src/rtc.c **** 	// UsbPrintf("pad change OK\n");
1097:Device/Src/rtc.c **** 	HAL_Delay(5);
 1110              		.loc 1 1097 2 is_stmt 1 view .LVU295
 1111 0068 0520     		movs	r0, #5
 1112 006a FFF7FEFF 		bl	HAL_Delay
 1113              	.LVL74:
1098:Device/Src/rtc.c **** 	rtc_set_channel(channel, RTC_SD3068);
 1114              		.loc 1 1098 2 view .LVU296
 1115 006e 0421     		movs	r1, #4
 1116 0070 2046     		mov	r0, r4
 1117 0072 FFF7FEFF 		bl	rtc_set_channel
 1118              	.LVL75:
1099:Device/Src/rtc.c **** 	if (drv_wave1006_read_reg(DEV_SD3068, WAVE1006_REG_USER_RAM_START + 19, 1, &buf) != WAVE1006_EXIT_
 1119              		.loc 1 1099 2 view .LVU297
 1120              		.loc 1 1099 6 is_stmt 0 view .LVU298
 1121 0076 0DF10703 		add	r3, sp, #7
 1122 007a 0122     		movs	r2, #1
 1123 007c 3F21     		movs	r1, #63
 1124 007e 0020     		movs	r0, #0
 1125 0080 FFF7FEFF 		bl	drv_wave1006_read_reg
 1126              	.LVL76:
 1127              		.loc 1 1099 5 view .LVU299
 1128 0084 D0BB     		cbnz	r0, .L75
1100:Device/Src/rtc.c **** 	{
1101:Device/Src/rtc.c **** 		return I2C_NO_ACK;
ARM GAS  C:\Users\86158\AppData\Local\Temp\cc1OFnJc.s 			page 41


1102:Device/Src/rtc.c **** 	}
1103:Device/Src/rtc.c **** 	buf &= ~0x38;   //гЕ0 RuleTempAdj[2:0]      //ADCЁъвс тщя║5
 1129              		.loc 1 1103 2 is_stmt 1 view .LVU300
 1130              		.loc 1 1103 6 is_stmt 0 view .LVU301
 1131 0086 9DF80730 		ldrb	r3, [sp, #7]	@ zero_extendqisi2
 1132 008a 03F0C703 		and	r3, r3, #199
 1133 008e 8DF80730 		strb	r3, [sp, #7]
1104:Device/Src/rtc.c **** 	buf |=  0x28;
 1134              		.loc 1 1104 2 is_stmt 1 view .LVU302
 1135              		.loc 1 1104 6 is_stmt 0 view .LVU303
 1136 0092 43F02803 		orr	r3, r3, #40
 1137 0096 8DF80730 		strb	r3, [sp, #7]
1105:Device/Src/rtc.c **** 	if (drv_wave1006_write_reg(DEV_SD3068, WAVE1006_REG_USER_RAM_START + 19, 1, &buf) != WAVE1006_EXIT
 1138              		.loc 1 1105 2 is_stmt 1 view .LVU304
 1139              		.loc 1 1105 6 is_stmt 0 view .LVU305
 1140 009a 0DF10703 		add	r3, sp, #7
 1141 009e 0122     		movs	r2, #1
 1142 00a0 3F21     		movs	r1, #63
 1143 00a2 FFF7FEFF 		bl	drv_wave1006_write_reg
 1144              	.LVL77:
 1145              		.loc 1 1105 5 view .LVU306
 1146 00a6 58BB     		cbnz	r0, .L76
1106:Device/Src/rtc.c **** 	{
1107:Device/Src/rtc.c **** 		return I2C_NO_ACK;
1108:Device/Src/rtc.c **** 	}
1109:Device/Src/rtc.c **** 
1110:Device/Src/rtc.c **** 	//1║╒еДжц╨цOSC TEST╡нйЩ     RAM24║╒RAM25
1111:Device/Src/rtc.c **** 	if (drv_wave1006_read_reg(DEV_SD8804, WAVE1006_REG_USER_RAM_START + 24, 1, &osc_buf[1]) != WAVE100
 1147              		.loc 1 1111 2 is_stmt 1 view .LVU307
 1148              		.loc 1 1111 6 is_stmt 0 view .LVU308
 1149 00a8 0DF10503 		add	r3, sp, #5
 1150 00ac 0122     		movs	r2, #1
 1151 00ae 4421     		movs	r1, #68
 1152 00b0 0420     		movs	r0, #4
 1153 00b2 FFF7FEFF 		bl	drv_wave1006_read_reg
 1154              	.LVL78:
 1155              		.loc 1 1111 5 view .LVU309
 1156 00b6 28BB     		cbnz	r0, .L77
1112:Device/Src/rtc.c **** 	{
1113:Device/Src/rtc.c **** 		return I2C_NO_ACK;
1114:Device/Src/rtc.c **** 	}
1115:Device/Src/rtc.c **** 	osc_buf[0]  = 0xf7;   //ram24
 1157              		.loc 1 1115 2 is_stmt 1 view .LVU310
 1158              		.loc 1 1115 14 is_stmt 0 view .LVU311
 1159 00b8 F723     		movs	r3, #247
 1160 00ba 8DF80430 		strb	r3, [sp, #4]
1116:Device/Src/rtc.c **** 	osc_buf[1] &= ~0x1f;
 1161              		.loc 1 1116 2 is_stmt 1 view .LVU312
 1162              		.loc 1 1116 13 is_stmt 0 view .LVU313
 1163 00be 9DF80530 		ldrb	r3, [sp, #5]	@ zero_extendqisi2
 1164 00c2 03F0E003 		and	r3, r3, #224
 1165 00c6 8DF80530 		strb	r3, [sp, #5]
1117:Device/Src/rtc.c **** 	osc_buf[1] |= 0x19;		//ram25
 1166              		.loc 1 1117 2 is_stmt 1 view .LVU314
 1167              		.loc 1 1117 13 is_stmt 0 view .LVU315
 1168 00ca 43F01903 		orr	r3, r3, #25
 1169 00ce 8DF80530 		strb	r3, [sp, #5]
ARM GAS  C:\Users\86158\AppData\Local\Temp\cc1OFnJc.s 			page 42


1118:Device/Src/rtc.c **** 	if (drv_wave1006_write_reg(DEV_SD8804, WAVE1006_REG_USER_RAM_START + 23, 2, osc_buf) != WAVE1006_E
 1170              		.loc 1 1118 2 is_stmt 1 view .LVU316
 1171              		.loc 1 1118 6 is_stmt 0 view .LVU317
 1172 00d2 01AB     		add	r3, sp, #4
 1173 00d4 0222     		movs	r2, #2
 1174 00d6 4321     		movs	r1, #67
 1175 00d8 0420     		movs	r0, #4
 1176 00da FFF7FEFF 		bl	drv_wave1006_write_reg
 1177              	.LVL79:
 1178              		.loc 1 1118 5 view .LVU318
 1179 00de 98B9     		cbnz	r0, .L78
1119:Device/Src/rtc.c **** 	{
1120:Device/Src/rtc.c **** 		return I2C_NO_ACK;
1121:Device/Src/rtc.c **** 	}
1122:Device/Src/rtc.c **** 	UsbPrintf("i2c OK after pad change \n");
 1180              		.loc 1 1122 2 is_stmt 1 view .LVU319
 1181 00e0 0A48     		ldr	r0, .L80
 1182 00e2 FFF7FEFF 		bl	UsbPrintf
 1183              	.LVL80:
1123:Device/Src/rtc.c **** 	
1124:Device/Src/rtc.c **** 	return I2C_OK;
 1184              		.loc 1 1124 2 view .LVU320
 1185              		.loc 1 1124 9 is_stmt 0 view .LVU321
 1186 00e6 0020     		movs	r0, #0
 1187 00e8 00E0     		b	.L70
 1188              	.L71:
1078:Device/Src/rtc.c **** 	}
 1189              		.loc 1 1078 10 view .LVU322
 1190 00ea 0220     		movs	r0, #2
 1191              	.L70:
1125:Device/Src/rtc.c **** }
 1192              		.loc 1 1125 1 view .LVU323
 1193 00ec 02B0     		add	sp, sp, #8
 1194              	.LCFI30:
 1195              		.cfi_remember_state
 1196              		.cfi_def_cfa_offset 8
 1197              		@ sp needed
 1198 00ee 10BD     		pop	{r4, pc}
 1199              	.L72:
 1200              	.LCFI31:
 1201              		.cfi_restore_state
1084:Device/Src/rtc.c **** 	}
 1202              		.loc 1 1084 10 view .LVU324
 1203 00f0 0220     		movs	r0, #2
 1204 00f2 FBE7     		b	.L70
 1205              	.L73:
1090:Device/Src/rtc.c **** 	}
 1206              		.loc 1 1090 10 view .LVU325
 1207 00f4 0220     		movs	r0, #2
 1208 00f6 F9E7     		b	.L70
 1209              	.L74:
1094:Device/Src/rtc.c **** 	}
 1210              		.loc 1 1094 10 view .LVU326
 1211 00f8 0220     		movs	r0, #2
 1212 00fa F7E7     		b	.L70
 1213              	.L75:
1101:Device/Src/rtc.c **** 	}
ARM GAS  C:\Users\86158\AppData\Local\Temp\cc1OFnJc.s 			page 43


 1214              		.loc 1 1101 10 view .LVU327
 1215 00fc 0220     		movs	r0, #2
 1216 00fe F5E7     		b	.L70
 1217              	.L76:
1107:Device/Src/rtc.c **** 	}
 1218              		.loc 1 1107 10 view .LVU328
 1219 0100 0220     		movs	r0, #2
 1220 0102 F3E7     		b	.L70
 1221              	.L77:
1113:Device/Src/rtc.c **** 	}
 1222              		.loc 1 1113 10 view .LVU329
 1223 0104 0220     		movs	r0, #2
 1224 0106 F1E7     		b	.L70
 1225              	.L78:
1120:Device/Src/rtc.c **** 	}
 1226              		.loc 1 1120 10 view .LVU330
 1227 0108 0220     		movs	r0, #2
 1228 010a EFE7     		b	.L70
 1229              	.L81:
 1230              		.align	2
 1231              	.L80:
 1232 010c 00000000 		.word	.LC3
 1233              		.cfi_endproc
 1234              	.LFE246:
 1236              		.section	.rodata.rtc_1006_exit_testmode.str1.4,"aMS",%progbits,1
 1237              		.align	2
 1238              	.LC4:
 1239 0000 7761726E 		.ascii	"warning! RTC exit testmode fail!\012\000"
 1239      696E6721 
 1239      20525443 
 1239      20657869 
 1239      74207465 
 1240 0022 0000     		.align	2
 1241              	.LC5:
 1242 0024 65786974 		.ascii	"exit testmode success\012\000"
 1242      20746573 
 1242      746D6F64 
 1242      65207375 
 1242      63636573 
 1243              		.section	.text.rtc_1006_exit_testmode,"ax",%progbits
 1244              		.align	1
 1245              		.global	rtc_1006_exit_testmode
 1246              		.syntax unified
 1247              		.thumb
 1248              		.thumb_func
 1250              	rtc_1006_exit_testmode:
 1251              	.LVL81:
 1252              	.LFB247:
1126:Device/Src/rtc.c **** 
1127:Device/Src/rtc.c **** uint8_t rtc_1006_exit_testmode(uint8_t channel)
1128:Device/Src/rtc.c **** {
 1253              		.loc 1 1128 1 is_stmt 1 view -0
 1254              		.cfi_startproc
 1255              		@ args = 0, pretend = 0, frame = 8
 1256              		@ frame_needed = 0, uses_anonymous_args = 0
 1257              		.loc 1 1128 1 is_stmt 0 view .LVU332
 1258 0000 30B5     		push	{r4, r5, lr}
ARM GAS  C:\Users\86158\AppData\Local\Temp\cc1OFnJc.s 			page 44


 1259              	.LCFI32:
 1260              		.cfi_def_cfa_offset 12
 1261              		.cfi_offset 4, -12
 1262              		.cfi_offset 5, -8
 1263              		.cfi_offset 14, -4
 1264 0002 83B0     		sub	sp, sp, #12
 1265              	.LCFI33:
 1266              		.cfi_def_cfa_offset 24
 1267 0004 0446     		mov	r4, r0
1129:Device/Src/rtc.c **** 	uint8_t buf = 0x00;
 1268              		.loc 1 1129 2 is_stmt 1 view .LVU333
 1269              		.loc 1 1129 10 is_stmt 0 view .LVU334
 1270 0006 0023     		movs	r3, #0
 1271 0008 8DF80730 		strb	r3, [sp, #7]
1130:Device/Src/rtc.c **** 		
1131:Device/Src/rtc.c **** 	buf = 0x00;
 1272              		.loc 1 1131 2 is_stmt 1 view .LVU335
1132:Device/Src/rtc.c **** 	if (rtc_write_multi_bytes(RTC_3900_ADDRESS, WAVE1006_REG_EXTEND , &buf, 1) != I2C_OK) {
 1273              		.loc 1 1132 2 view .LVU336
 1274              		.loc 1 1132 6 is_stmt 0 view .LVU337
 1275 000c 0123     		movs	r3, #1
 1276 000e 0DF10702 		add	r2, sp, #7
 1277 0012 FD21     		movs	r1, #253
 1278 0014 6420     		movs	r0, #100
 1279              	.LVL82:
 1280              		.loc 1 1132 6 view .LVU338
 1281 0016 FFF7FEFF 		bl	rtc_write_multi_bytes
 1282              	.LVL83:
 1283              		.loc 1 1132 5 view .LVU339
 1284 001a 50B9     		cbnz	r0, .L86
 1285 001c 0546     		mov	r5, r0
1133:Device/Src/rtc.c **** 		rtc_set_channel(channel, RTC_INIT_1006);
1134:Device/Src/rtc.c **** 		UsbPrintf("warning! RTC exit testmode fail!\n");
1135:Device/Src/rtc.c **** 		return I2C_NO_ACK;
1136:Device/Src/rtc.c **** 	} 
1137:Device/Src/rtc.c **** 	rtc_set_channel(channel, RTC_INIT_1006);
 1286              		.loc 1 1137 2 is_stmt 1 view .LVU340
 1287 001e 0321     		movs	r1, #3
 1288 0020 2046     		mov	r0, r4
 1289 0022 FFF7FEFF 		bl	rtc_set_channel
 1290              	.LVL84:
1138:Device/Src/rtc.c **** 	UsbPrintf("exit testmode success\n");
 1291              		.loc 1 1138 2 view .LVU341
 1292 0026 0748     		ldr	r0, .L87
 1293 0028 FFF7FEFF 		bl	UsbPrintf
 1294              	.LVL85:
1139:Device/Src/rtc.c **** 	return I2C_OK;
 1295              		.loc 1 1139 2 view .LVU342
 1296              	.L84:
1140:Device/Src/rtc.c **** }
 1297              		.loc 1 1140 1 is_stmt 0 view .LVU343
 1298 002c 2846     		mov	r0, r5
 1299 002e 03B0     		add	sp, sp, #12
 1300              	.LCFI34:
 1301              		.cfi_remember_state
 1302              		.cfi_def_cfa_offset 12
 1303              		@ sp needed
ARM GAS  C:\Users\86158\AppData\Local\Temp\cc1OFnJc.s 			page 45


 1304 0030 30BD     		pop	{r4, r5, pc}
 1305              	.L86:
 1306              	.LCFI35:
 1307              		.cfi_restore_state
1133:Device/Src/rtc.c **** 		UsbPrintf("warning! RTC exit testmode fail!\n");
 1308              		.loc 1 1133 3 is_stmt 1 view .LVU344
 1309 0032 0321     		movs	r1, #3
 1310 0034 2046     		mov	r0, r4
 1311 0036 FFF7FEFF 		bl	rtc_set_channel
 1312              	.LVL86:
1134:Device/Src/rtc.c **** 		return I2C_NO_ACK;
 1313              		.loc 1 1134 3 view .LVU345
 1314 003a 0348     		ldr	r0, .L87+4
 1315 003c FFF7FEFF 		bl	UsbPrintf
 1316              	.LVL87:
1135:Device/Src/rtc.c **** 	} 
 1317              		.loc 1 1135 3 view .LVU346
1135:Device/Src/rtc.c **** 	} 
 1318              		.loc 1 1135 10 is_stmt 0 view .LVU347
 1319 0040 0225     		movs	r5, #2
 1320 0042 F3E7     		b	.L84
 1321              	.L88:
 1322              		.align	2
 1323              	.L87:
 1324 0044 24000000 		.word	.LC5
 1325 0048 00000000 		.word	.LC4
 1326              		.cfi_endproc
 1327              	.LFE247:
 1329              		.section	.text.rtc_set_int_channel,"ax",%progbits
 1330              		.align	1
 1331              		.global	rtc_set_int_channel
 1332              		.syntax unified
 1333              		.thumb
 1334              		.thumb_func
 1336              	rtc_set_int_channel:
 1337              	.LVL88:
 1338              	.LFB248:
1141:Device/Src/rtc.c **** 
1142:Device/Src/rtc.c **** 
1143:Device/Src/rtc.c **** void rtc_set_int_channel(uint8_t channel)
1144:Device/Src/rtc.c **** {
 1339              		.loc 1 1144 1 is_stmt 1 view -0
 1340              		.cfi_startproc
 1341              		@ args = 0, pretend = 0, frame = 0
 1342              		@ frame_needed = 0, uses_anonymous_args = 0
 1343              		@ link register save eliminated.
1145:Device/Src/rtc.c ****     // uint8_t intChannel;
1146:Device/Src/rtc.c ****     // HAL_GPIO_WritePin(GPIOC, GPIO_PIN_1 | GPIO_PIN_3 | GPIO_PIN_5 | GPIO_PIN_7 | 
1147:Device/Src/rtc.c **** 	// 						GPIO_PIN_9| GPIO_PIN_11, GPIO_PIN_SET);
1148:Device/Src/rtc.c ****     // intChannel = (channel - 1) / 14;
1149:Device/Src/rtc.c ****     // HAL_GPIO_WritePin(GPIOE, GPIO_PIN_0, intChannel & 0x01);
1150:Device/Src/rtc.c ****     // HAL_GPIO_WritePin(GPIOE, GPIO_PIN_1, intChannel & 0x02);
1151:Device/Src/rtc.c ****     // HAL_GPIO_WritePin(GPIOE, GPIO_PIN_2, intChannel & 0x04);
1152:Device/Src/rtc.c ****     // HAL_GPIO_WritePin(GPIOE, GPIO_PIN_3, GPIO_PIN_RESET);
1153:Device/Src/rtc.c **** }
 1344              		.loc 1 1153 1 view .LVU349
 1345 0000 7047     		bx	lr
ARM GAS  C:\Users\86158\AppData\Local\Temp\cc1OFnJc.s 			page 46


 1346              		.cfi_endproc
 1347              	.LFE248:
 1349              		.section	.text.rtc_convert_temp_offset,"ax",%progbits
 1350              		.align	1
 1351              		.global	rtc_convert_temp_offset
 1352              		.syntax unified
 1353              		.thumb
 1354              		.thumb_func
 1356              	rtc_convert_temp_offset:
 1357              	.LVL89:
 1358              	.LFB249:
1154:Device/Src/rtc.c **** 
1155:Device/Src/rtc.c **** 
1156:Device/Src/rtc.c **** uint8_t rtc_convert_temp_offset(float rtc_adc, float system_temp)
1157:Device/Src/rtc.c **** {
 1359              		.loc 1 1157 1 view -0
 1360              		.cfi_startproc
 1361              		@ args = 0, pretend = 0, frame = 8
 1362              		@ frame_needed = 0, uses_anonymous_args = 0
 1363              		@ link register save eliminated.
 1364              		.loc 1 1157 1 is_stmt 0 view .LVU351
 1365 0000 82B0     		sub	sp, sp, #8
 1366              	.LCFI36:
 1367              		.cfi_def_cfa_offset 8
1158:Device/Src/rtc.c **** 	uint8_t offset;
 1368              		.loc 1 1158 2 is_stmt 1 view .LVU352
1159:Device/Src/rtc.c **** 	offset = (uint8_t)(((rtc_adc - (system_temp + 60) * 2)) * 2 - 48);//оЙ╪Шп╬ф╛иХ╪фйж╡Аё╛фПй╪-60╤хё╛╣
 1369              		.loc 1 1159 2 view .LVU353
 1370              		.loc 1 1159 46 is_stmt 0 view .LVU354
 1371 0002 DFED0B7A 		vldr.32	s15, .L92
 1372 0006 70EEA70A 		vadd.f32	s1, s1, s15
 1373              	.LVL90:
 1374              		.loc 1 1159 52 view .LVU355
 1375 000a 70EEA00A 		vadd.f32	s1, s1, s1
 1376              		.loc 1 1159 31 view .LVU356
 1377 000e 30EE600A 		vsub.f32	s0, s0, s1
 1378              	.LVL91:
 1379              		.loc 1 1159 58 view .LVU357
 1380 0012 30EE000A 		vadd.f32	s0, s0, s0
 1381              		.loc 1 1159 62 view .LVU358
 1382 0016 DFED077A 		vldr.32	s15, .L92+4
 1383 001a 30EE670A 		vsub.f32	s0, s0, s15
 1384              		.loc 1 1159 9 view .LVU359
 1385 001e FCEEC07A 		vcvt.u32.f32	s15, s0
 1386 0022 CDED017A 		vstr.32	s15, [sp, #4]	@ int
 1387              	.LVL92:
1160:Device/Src/rtc.c **** 	return offset;
 1388              		.loc 1 1160 2 is_stmt 1 view .LVU360
1161:Device/Src/rtc.c **** }
 1389              		.loc 1 1161 1 is_stmt 0 view .LVU361
 1390 0026 9DF80400 		ldrb	r0, [sp, #4]	@ zero_extendqisi2
 1391 002a 02B0     		add	sp, sp, #8
 1392              	.LCFI37:
 1393              		.cfi_def_cfa_offset 0
 1394              	.LVL93:
 1395              		.loc 1 1161 1 view .LVU362
 1396              		@ sp needed
ARM GAS  C:\Users\86158\AppData\Local\Temp\cc1OFnJc.s 			page 47


 1397 002c 7047     		bx	lr
 1398              	.L93:
 1399 002e 00BF     		.align	2
 1400              	.L92:
 1401 0030 00007042 		.word	1114636288
 1402 0034 00004042 		.word	1111490560
 1403              		.cfi_endproc
 1404              	.LFE249:
 1406              		.section	.text.rtc_write_otp_config,"ax",%progbits
 1407              		.align	1
 1408              		.global	rtc_write_otp_config
 1409              		.syntax unified
 1410              		.thumb
 1411              		.thumb_func
 1413              	rtc_write_otp_config:
 1414              	.LFB250:
1162:Device/Src/rtc.c **** 
1163:Device/Src/rtc.c **** uint8_t rtc_write_otp_config(void)
1164:Device/Src/rtc.c **** {
 1415              		.loc 1 1164 1 is_stmt 1 view -0
 1416              		.cfi_startproc
 1417              		@ args = 0, pretend = 0, frame = 16
 1418              		@ frame_needed = 0, uses_anonymous_args = 0
 1419 0000 00B5     		push	{lr}
 1420              	.LCFI38:
 1421              		.cfi_def_cfa_offset 4
 1422              		.cfi_offset 14, -4
 1423 0002 85B0     		sub	sp, sp, #20
 1424              	.LCFI39:
 1425              		.cfi_def_cfa_offset 24
1165:Device/Src/rtc.c ****     uint8_t config[16]=	{0xBC, 0xEB, 0xFF, 0xFF, 0x2F, 0xFF, 0xFF, 0xFE, 0x22, 0xFF, 0x00, 0x00, 0x
 1426              		.loc 1 1165 5 view .LVU364
 1427              		.loc 1 1165 13 is_stmt 0 view .LVU365
 1428 0004 064B     		ldr	r3, .L96
 1429 0006 EC46     		mov	ip, sp
 1430 0008 0FCB     		ldm	r3, {r0, r1, r2, r3}
 1431 000a 8CE80F00 		stm	ip, {r0, r1, r2, r3}
1166:Device/Src/rtc.c ****     // uint8_t config[16]=	{0xBC, 0xEF, 0xFF, 0xFF, 0x2F, 0xFF, 0xFF, 0xFE, 0x22, 0xFF, 0x00, 0x00,
1167:Device/Src/rtc.c ****     uint8_t i2c_result;
 1432              		.loc 1 1167 5 is_stmt 1 view .LVU366
1168:Device/Src/rtc.c ****     i2c_result = rtc_download_otp_data(config, 0x162, 16);//0x162 is config0 address
 1433              		.loc 1 1168 5 view .LVU367
 1434              		.loc 1 1168 18 is_stmt 0 view .LVU368
 1435 000e 1022     		movs	r2, #16
 1436 0010 4FF4B171 		mov	r1, #354
 1437 0014 6046     		mov	r0, ip
 1438 0016 FFF7FEFF 		bl	rtc_download_otp_data
 1439              	.LVL94:
1169:Device/Src/rtc.c ****     return i2c_result;
 1440              		.loc 1 1169 5 is_stmt 1 view .LVU369
1170:Device/Src/rtc.c **** } 
 1441              		.loc 1 1170 1 is_stmt 0 view .LVU370
 1442 001a 05B0     		add	sp, sp, #20
 1443              	.LCFI40:
 1444              		.cfi_def_cfa_offset 4
 1445              		@ sp needed
 1446 001c 5DF804FB 		ldr	pc, [sp], #4
ARM GAS  C:\Users\86158\AppData\Local\Temp\cc1OFnJc.s 			page 48


 1447              	.L97:
 1448              		.align	2
 1449              	.L96:
 1450 0020 00000000 		.word	.LANCHOR0
 1451              		.cfi_endproc
 1452              	.LFE250:
 1454              		.section	.text.rtc_init_test_cap,"ax",%progbits
 1455              		.align	1
 1456              		.global	rtc_init_test_cap
 1457              		.syntax unified
 1458              		.thumb
 1459              		.thumb_func
 1461              	rtc_init_test_cap:
 1462              	.LVL95:
 1463              	.LFB251:
1171:Device/Src/rtc.c **** 
1172:Device/Src/rtc.c **** 
1173:Device/Src/rtc.c **** uint16_t rtc_init_test_cap(float temp)
1174:Device/Src/rtc.c **** {
 1464              		.loc 1 1174 1 is_stmt 1 view -0
 1465              		.cfi_startproc
 1466              		@ args = 0, pretend = 0, frame = 0
 1467              		@ frame_needed = 0, uses_anonymous_args = 0
 1468              		@ link register save eliminated.
1175:Device/Src/rtc.c **** 	uint16_t cap = 960;
 1469              		.loc 1 1175 2 view .LVU372
1176:Device/Src/rtc.c **** 	if (temp > -45 && temp <= -35)		//-40
 1470              		.loc 1 1176 2 view .LVU373
 1471              		.loc 1 1176 5 is_stmt 0 view .LVU374
 1472 0000 DFED2D7A 		vldr.32	s15, .L121
 1473 0004 B4EEE70A 		vcmpe.f32	s0, s15
 1474 0008 F1EE10FA 		vmrs	APSR_nzcv, FPSCR
 1475 000c 06DD     		ble	.L99
 1476              		.loc 1 1176 17 discriminator 1 view .LVU375
 1477 000e DFED2B7A 		vldr.32	s15, .L121+4
 1478 0012 B4EEE70A 		vcmpe.f32	s0, s15
 1479 0016 F1EE10FA 		vmrs	APSR_nzcv, FPSCR
 1480 001a 3AD9     		bls	.L109
 1481              	.L99:
1177:Device/Src/rtc.c **** 	{
1178:Device/Src/rtc.c **** 		cap = 360;
1179:Device/Src/rtc.c **** 	}
1180:Device/Src/rtc.c **** 	else if (temp > -15 && temp <= -5)	//-10
 1482              		.loc 1 1180 7 is_stmt 1 view .LVU376
 1483              		.loc 1 1180 10 is_stmt 0 view .LVU377
 1484 001c FAEE0E7A 		vmov.f32	s15, #-1.5e+1
 1485 0020 B4EEE70A 		vcmpe.f32	s0, s15
 1486 0024 F1EE10FA 		vmrs	APSR_nzcv, FPSCR
 1487 0028 06DD     		ble	.L102
 1488              		.loc 1 1180 22 discriminator 1 view .LVU378
 1489 002a F9EE047A 		vmov.f32	s15, #-5.0e+0
 1490 002e B4EEE70A 		vcmpe.f32	s0, s15
 1491 0032 F1EE10FA 		vmrs	APSR_nzcv, FPSCR
 1492 0036 2FD9     		bls	.L110
 1493              	.L102:
1181:Device/Src/rtc.c **** 	{
1182:Device/Src/rtc.c **** 		cap = 560;
ARM GAS  C:\Users\86158\AppData\Local\Temp\cc1OFnJc.s 			page 49


1183:Device/Src/rtc.c **** 	}
1184:Device/Src/rtc.c **** 	else if (temp > 10 && temp <= 35)		//29
 1494              		.loc 1 1184 7 is_stmt 1 view .LVU379
 1495              		.loc 1 1184 10 is_stmt 0 view .LVU380
 1496 0038 F2EE047A 		vmov.f32	s15, #1.0e+1
 1497 003c B4EEE70A 		vcmpe.f32	s0, s15
 1498 0040 F1EE10FA 		vmrs	APSR_nzcv, FPSCR
 1499 0044 06DD     		ble	.L104
 1500              		.loc 1 1184 21 discriminator 1 view .LVU381
 1501 0046 DFED1E7A 		vldr.32	s15, .L121+8
 1502 004a B4EEE70A 		vcmpe.f32	s0, s15
 1503 004e F1EE10FA 		vmrs	APSR_nzcv, FPSCR
 1504 0052 24D9     		bls	.L111
 1505              	.L104:
1185:Device/Src/rtc.c **** 	{
1186:Device/Src/rtc.c **** 		cap = 660;
1187:Device/Src/rtc.c **** 	}
1188:Device/Src/rtc.c **** 	else if (temp > 55 && temp <= 65)		//60
 1506              		.loc 1 1188 7 is_stmt 1 view .LVU382
 1507              		.loc 1 1188 10 is_stmt 0 view .LVU383
 1508 0054 DFED1B7A 		vldr.32	s15, .L121+12
 1509 0058 B4EEE70A 		vcmpe.f32	s0, s15
 1510 005c F1EE10FA 		vmrs	APSR_nzcv, FPSCR
 1511 0060 06DD     		ble	.L106
 1512              		.loc 1 1188 21 discriminator 1 view .LVU384
 1513 0062 DFED197A 		vldr.32	s15, .L121+16
 1514 0066 B4EEE70A 		vcmpe.f32	s0, s15
 1515 006a F1EE10FA 		vmrs	APSR_nzcv, FPSCR
 1516 006e 19D9     		bls	.L112
 1517              	.L106:
1189:Device/Src/rtc.c **** 	{
1190:Device/Src/rtc.c **** 		cap = 560;
1191:Device/Src/rtc.c **** 	}
1192:Device/Src/rtc.c **** 	else if (temp > 80 && temp <= 90)		//85
 1518              		.loc 1 1192 7 is_stmt 1 view .LVU385
 1519              		.loc 1 1192 10 is_stmt 0 view .LVU386
 1520 0070 DFED167A 		vldr.32	s15, .L121+20
 1521 0074 B4EEE70A 		vcmpe.f32	s0, s15
 1522 0078 F1EE10FA 		vmrs	APSR_nzcv, FPSCR
 1523 007c 15DD     		ble	.L120
 1524              		.loc 1 1192 21 discriminator 1 view .LVU387
 1525 007e DFED147A 		vldr.32	s15, .L121+24
 1526 0082 B4EEE70A 		vcmpe.f32	s0, s15
 1527 0086 F1EE10FA 		vmrs	APSR_nzcv, FPSCR
 1528 008a 11D9     		bls	.L114
1175:Device/Src/rtc.c **** 	if (temp > -45 && temp <= -35)		//-40
 1529              		.loc 1 1175 11 view .LVU388
 1530 008c 4FF47070 		mov	r0, #960
 1531 0090 7047     		bx	lr
 1532              	.L109:
1178:Device/Src/rtc.c **** 	}
 1533              		.loc 1 1178 7 view .LVU389
 1534 0092 4FF4B470 		mov	r0, #360
 1535 0096 7047     		bx	lr
 1536              	.L110:
1182:Device/Src/rtc.c **** 	}
 1537              		.loc 1 1182 7 view .LVU390
ARM GAS  C:\Users\86158\AppData\Local\Temp\cc1OFnJc.s 			page 50


 1538 0098 4FF40C70 		mov	r0, #560
 1539 009c 7047     		bx	lr
 1540              	.L111:
1186:Device/Src/rtc.c **** 	}
 1541              		.loc 1 1186 7 view .LVU391
 1542 009e 4FF42570 		mov	r0, #660
 1543 00a2 7047     		bx	lr
 1544              	.L112:
1190:Device/Src/rtc.c **** 	}
 1545              		.loc 1 1190 7 view .LVU392
 1546 00a4 4FF40C70 		mov	r0, #560
 1547 00a8 7047     		bx	lr
 1548              	.L120:
1175:Device/Src/rtc.c **** 	if (temp > -45 && temp <= -35)		//-40
 1549              		.loc 1 1175 11 view .LVU393
 1550 00aa 4FF47070 		mov	r0, #960
 1551 00ae 7047     		bx	lr
 1552              	.L114:
1193:Device/Src/rtc.c **** 	{
1194:Device/Src/rtc.c **** 		cap = 360;
 1553              		.loc 1 1194 7 view .LVU394
 1554 00b0 4FF4B470 		mov	r0, #360
 1555              	.LVL96:
1195:Device/Src/rtc.c **** 	}
1196:Device/Src/rtc.c **** 	return cap;
 1556              		.loc 1 1196 2 is_stmt 1 view .LVU395
1197:Device/Src/rtc.c **** }
 1557              		.loc 1 1197 1 is_stmt 0 view .LVU396
 1558 00b4 7047     		bx	lr
 1559              	.L122:
 1560 00b6 00BF     		.align	2
 1561              	.L121:
 1562 00b8 000034C2 		.word	-1036779520
 1563 00bc 00000CC2 		.word	-1039400960
 1564 00c0 00000C42 		.word	1108082688
 1565 00c4 00005C42 		.word	1113325568
 1566 00c8 00008242 		.word	1115815936
 1567 00cc 0000A042 		.word	1117782016
 1568 00d0 0000B442 		.word	1119092736
 1569              		.cfi_endproc
 1570              	.LFE251:
 1572              		.global	__aeabi_i2d
 1573              		.global	__aeabi_dmul
 1574              		.global	__aeabi_dadd
 1575              		.global	__aeabi_d2f
 1576              		.section	.text.cap_uint_to_float,"ax",%progbits
 1577              		.align	1
 1578              		.global	cap_uint_to_float
 1579              		.syntax unified
 1580              		.thumb
 1581              		.thumb_func
 1583              	cap_uint_to_float:
 1584              	.LVL97:
 1585              	.LFB252:
1198:Device/Src/rtc.c **** /*
1199:Device/Src/rtc.c **** OSCCapSel<12:11>	"уЯ╣╢фВрЩ╫еOSCIN╨мOSCOUT╢ж╣В╣Гхщя║тЯоН║ё
1200:Device/Src/rtc.c **** 00:0pF
ARM GAS  C:\Users\86158\AppData\Local\Temp\cc1OFnJc.s 			page 51


1201:Device/Src/rtc.c **** 01:1.5pF
1202:Device/Src/rtc.c **** 10:3.0pF
1203:Device/Src/rtc.c **** 11:4.5pF"	
1204:Device/Src/rtc.c **** OSCCapSel<10:6>	"уЯ╣╢фВрЩ╫еOSCIN╨мOSCOUT╢н╪╤╢ж╣В╣Гхщя║тЯоН║ё╡╫╫Ьн╙408fF"
1205:Device/Src/rtc.c **** OSCCapSel<5:3>	"уЯ╣╢фВрЩ╫еOSCINо╦╣В╣Гхщя║тЯоН║ё╡╫╫Ьн╙51fF"
1206:Device/Src/rtc.c **** OSCCapSel<2:0>	"уЯ╣╢фВрЩ╫еOSCOUTо╦╣В╣Гхщя║тЯоН║ё╡╫╫Ьн╙51fF"	
1207:Device/Src/rtc.c **** */
1208:Device/Src/rtc.c **** float cap_uint_to_float(uint8_t cap1, uint8_t cap2)
1209:Device/Src/rtc.c **** {
 1586              		.loc 1 1209 1 is_stmt 1 view -0
 1587              		.cfi_startproc
 1588              		@ args = 0, pretend = 0, frame = 0
 1589              		@ frame_needed = 0, uses_anonymous_args = 0
 1590              		.loc 1 1209 1 is_stmt 0 view .LVU398
 1591 0000 D0B5     		push	{r4, r6, r7, lr}
 1592              	.LCFI41:
 1593              		.cfi_def_cfa_offset 16
 1594              		.cfi_offset 4, -16
 1595              		.cfi_offset 6, -12
 1596              		.cfi_offset 7, -8
 1597              		.cfi_offset 14, -4
1210:Device/Src/rtc.c **** 	float convert = 0;
 1598              		.loc 1 1210 2 is_stmt 1 view .LVU399
 1599              	.LVL98:
1211:Device/Src/rtc.c **** 	uint16_t cap_config = 0;
 1600              		.loc 1 1211 2 view .LVU400
1212:Device/Src/rtc.c **** 	cap_config = ((cap2 & 0x07) << 5) | (cap1 >> 3);
 1601              		.loc 1 1212 2 view .LVU401
 1602              		.loc 1 1212 30 is_stmt 0 view .LVU402
 1603 0002 4C01     		lsls	r4, r1, #5
 1604 0004 04F0E004 		and	r4, r4, #224
 1605              		.loc 1 1212 13 view .LVU403
 1606 0008 44EAD004 		orr	r4, r4, r0, lsr #3
 1607              	.LVL99:
1213:Device/Src/rtc.c **** 	convert = 1.5 * ((cap2 >> 3) & 0x03) + cap_config * 0.051;
 1608              		.loc 1 1213 2 is_stmt 1 view .LVU404
 1609              		.loc 1 1213 16 is_stmt 0 view .LVU405
 1610 000c C1F3C100 		ubfx	r0, r1, #3, #2
 1611              	.LVL100:
 1612              		.loc 1 1213 16 view .LVU406
 1613 0010 FFF7FEFF 		bl	__aeabi_i2d
 1614              	.LVL101:
 1615              		.loc 1 1213 16 view .LVU407
 1616 0014 0022     		movs	r2, #0
 1617 0016 0E4B     		ldr	r3, .L125+8
 1618 0018 FFF7FEFF 		bl	__aeabi_dmul
 1619              	.LVL102:
 1620 001c 0646     		mov	r6, r0
 1621 001e 0F46     		mov	r7, r1
 1622              		.loc 1 1213 52 view .LVU408
 1623 0020 2046     		mov	r0, r4
 1624 0022 FFF7FEFF 		bl	__aeabi_i2d
 1625              	.LVL103:
 1626 0026 08A3     		adr	r3, .L125
 1627 0028 D3E90023 		ldrd	r2, [r3]
 1628 002c FFF7FEFF 		bl	__aeabi_dmul
 1629              	.LVL104:
ARM GAS  C:\Users\86158\AppData\Local\Temp\cc1OFnJc.s 			page 52


 1630 0030 0246     		mov	r2, r0
 1631 0032 0B46     		mov	r3, r1
 1632              		.loc 1 1213 39 view .LVU409
 1633 0034 3046     		mov	r0, r6
 1634 0036 3946     		mov	r1, r7
 1635 0038 FFF7FEFF 		bl	__aeabi_dadd
 1636              	.LVL105:
 1637              		.loc 1 1213 10 view .LVU410
 1638 003c FFF7FEFF 		bl	__aeabi_d2f
 1639              	.LVL106:
1214:Device/Src/rtc.c **** 	return convert;
 1640              		.loc 1 1214 2 is_stmt 1 view .LVU411
1215:Device/Src/rtc.c **** }
 1641              		.loc 1 1215 1 is_stmt 0 view .LVU412
 1642 0040 00EE100A 		vmov	s0, r0
 1643 0044 D0BD     		pop	{r4, r6, r7, pc}
 1644              	.LVL107:
 1645              	.L126:
 1646              		.loc 1 1215 1 view .LVU413
 1647 0046 00BF     		.align	3
 1648              	.L125:
 1649 0048 E9263108 		.word	137438953
 1650 004c AC1CAA3F 		.word	1068113068
 1651 0050 0000F83F 		.word	1073217536
 1652              		.cfi_endproc
 1653              	.LFE252:
 1655              		.section	.text.cap_config_to_float,"ax",%progbits
 1656              		.align	1
 1657              		.global	cap_config_to_float
 1658              		.syntax unified
 1659              		.thumb
 1660              		.thumb_func
 1662              	cap_config_to_float:
 1663              	.LVL108:
 1664              	.LFB253:
1216:Device/Src/rtc.c **** 
1217:Device/Src/rtc.c **** float cap_config_to_float(uint8_t mode, uint8_t cap)
1218:Device/Src/rtc.c **** {
 1665              		.loc 1 1218 1 is_stmt 1 view -0
 1666              		.cfi_startproc
 1667              		@ args = 0, pretend = 0, frame = 0
 1668              		@ frame_needed = 0, uses_anonymous_args = 0
 1669              		.loc 1 1218 1 is_stmt 0 view .LVU415
 1670 0000 70B5     		push	{r4, r5, r6, lr}
 1671              	.LCFI42:
 1672              		.cfi_def_cfa_offset 16
 1673              		.cfi_offset 4, -16
 1674              		.cfi_offset 5, -12
 1675              		.cfi_offset 6, -8
 1676              		.cfi_offset 14, -4
 1677 0002 0E46     		mov	r6, r1
1219:Device/Src/rtc.c **** 	float convert = 0;
 1678              		.loc 1 1219 2 is_stmt 1 view .LVU416
 1679              	.LVL109:
1220:Device/Src/rtc.c **** 	convert = 1.5 * mode + cap * 0.051;
 1680              		.loc 1 1220 2 view .LVU417
 1681              		.loc 1 1220 16 is_stmt 0 view .LVU418
ARM GAS  C:\Users\86158\AppData\Local\Temp\cc1OFnJc.s 			page 53


 1682 0004 FFF7FEFF 		bl	__aeabi_i2d
 1683              	.LVL110:
 1684              		.loc 1 1220 16 view .LVU419
 1685 0008 0022     		movs	r2, #0
 1686 000a 0F4B     		ldr	r3, .L129+8
 1687 000c FFF7FEFF 		bl	__aeabi_dmul
 1688              	.LVL111:
 1689 0010 0446     		mov	r4, r0
 1690 0012 0D46     		mov	r5, r1
 1691              		.loc 1 1220 29 view .LVU420
 1692 0014 3046     		mov	r0, r6
 1693 0016 FFF7FEFF 		bl	__aeabi_i2d
 1694              	.LVL112:
 1695 001a 09A3     		adr	r3, .L129
 1696 001c D3E90023 		ldrd	r2, [r3]
 1697 0020 FFF7FEFF 		bl	__aeabi_dmul
 1698              	.LVL113:
 1699 0024 0246     		mov	r2, r0
 1700 0026 0B46     		mov	r3, r1
 1701              		.loc 1 1220 23 view .LVU421
 1702 0028 2046     		mov	r0, r4
 1703 002a 2946     		mov	r1, r5
 1704 002c FFF7FEFF 		bl	__aeabi_dadd
 1705              	.LVL114:
 1706              		.loc 1 1220 10 view .LVU422
 1707 0030 FFF7FEFF 		bl	__aeabi_d2f
 1708              	.LVL115:
1221:Device/Src/rtc.c **** 	return convert;
 1709              		.loc 1 1221 2 is_stmt 1 view .LVU423
1222:Device/Src/rtc.c **** }
 1710              		.loc 1 1222 1 is_stmt 0 view .LVU424
 1711 0034 00EE100A 		vmov	s0, r0
 1712 0038 70BD     		pop	{r4, r5, r6, pc}
 1713              	.L130:
 1714 003a 00BFAFF3 		.align	3
 1714      0080
 1715              	.L129:
 1716 0040 E9263108 		.word	137438953
 1717 0044 AC1CAA3F 		.word	1068113068
 1718 0048 0000F83F 		.word	1073217536
 1719              		.cfi_endproc
 1720              	.LFE253:
 1722              		.section	.text.cap_config_to_uint,"ax",%progbits
 1723              		.align	1
 1724              		.global	cap_config_to_uint
 1725              		.syntax unified
 1726              		.thumb
 1727              		.thumb_func
 1729              	cap_config_to_uint:
 1730              	.LVL116:
 1731              	.LFB254:
1223:Device/Src/rtc.c **** 
1224:Device/Src/rtc.c **** void cap_config_to_uint(uint8_t mode, uint8_t cap, uint8_t* cap_buf)
1225:Device/Src/rtc.c **** {
 1732              		.loc 1 1225 1 is_stmt 1 view -0
 1733              		.cfi_startproc
 1734              		@ args = 0, pretend = 0, frame = 0
ARM GAS  C:\Users\86158\AppData\Local\Temp\cc1OFnJc.s 			page 54


 1735              		@ frame_needed = 0, uses_anonymous_args = 0
 1736              		@ link register save eliminated.
1226:Device/Src/rtc.c **** 	cap_buf[0] = ((cap & 0xff) << 3) | (cap & 0x07);
 1737              		.loc 1 1226 2 view .LVU426
 1738              		.loc 1 1226 42 is_stmt 0 view .LVU427
 1739 0000 01F00703 		and	r3, r1, #7
 1740              		.loc 1 1226 35 view .LVU428
 1741 0004 43EAC103 		orr	r3, r3, r1, lsl #3
 1742              		.loc 1 1226 13 view .LVU429
 1743 0008 1370     		strb	r3, [r2]
1227:Device/Src/rtc.c **** 	cap_buf[1] = ((mode & 0x03) << 3) | ((cap & 0xff) >> 5);
 1744              		.loc 1 1227 2 is_stmt 1 view .LVU430
 1745              		.loc 1 1227 30 is_stmt 0 view .LVU431
 1746 000a C000     		lsls	r0, r0, #3
 1747              	.LVL117:
 1748              		.loc 1 1227 30 view .LVU432
 1749 000c 00F01800 		and	r0, r0, #24
 1750              		.loc 1 1227 36 view .LVU433
 1751 0010 40EA5110 		orr	r0, r0, r1, lsr #5
 1752              		.loc 1 1227 13 view .LVU434
 1753 0014 5070     		strb	r0, [r2, #1]
1228:Device/Src/rtc.c **** }
 1754              		.loc 1 1228 1 view .LVU435
 1755 0016 7047     		bx	lr
 1756              		.cfi_endproc
 1757              	.LFE254:
 1759              		.section	.text.cap_list_to_uint,"ax",%progbits
 1760              		.align	1
 1761              		.global	cap_list_to_uint
 1762              		.syntax unified
 1763              		.thumb
 1764              		.thumb_func
 1766              	cap_list_to_uint:
 1767              	.LVL118:
 1768              	.LFB255:
1229:Device/Src/rtc.c **** 
1230:Device/Src/rtc.c **** void cap_list_to_uint(uint16_t number, uint8_t* cap_buf)
1231:Device/Src/rtc.c **** {
 1769              		.loc 1 1231 1 is_stmt 1 view -0
 1770              		.cfi_startproc
 1771              		@ args = 0, pretend = 0, frame = 0
 1772              		@ frame_needed = 0, uses_anonymous_args = 0
 1773              		@ link register save eliminated.
1232:Device/Src/rtc.c **** 	if (number < SD8800_CAP_LIST_MAX) {
 1774              		.loc 1 1232 2 view .LVU437
 1775              		.loc 1 1232 5 is_stmt 0 view .LVU438
 1776 0000 40F23533 		movw	r3, #821
 1777 0004 9842     		cmp	r0, r3
 1778 0006 07D8     		bhi	.L132
1233:Device/Src/rtc.c **** 		cap_buf[1] = g_capList[number][0];
 1779              		.loc 1 1233 3 is_stmt 1 view .LVU439
 1780              		.loc 1 1233 33 is_stmt 0 view .LVU440
 1781 0008 044B     		ldr	r3, .L134
 1782 000a 13F81020 		ldrb	r2, [r3, r0, lsl #1]	@ zero_extendqisi2
 1783              		.loc 1 1233 14 view .LVU441
 1784 000e 4A70     		strb	r2, [r1, #1]
1234:Device/Src/rtc.c **** 		cap_buf[0] = g_capList[number][1];
ARM GAS  C:\Users\86158\AppData\Local\Temp\cc1OFnJc.s 			page 55


 1785              		.loc 1 1234 3 is_stmt 1 view .LVU442
 1786              		.loc 1 1234 33 is_stmt 0 view .LVU443
 1787 0010 03EB4000 		add	r0, r3, r0, lsl #1
 1788              	.LVL119:
 1789              		.loc 1 1234 33 view .LVU444
 1790 0014 4378     		ldrb	r3, [r0, #1]	@ zero_extendqisi2
 1791              		.loc 1 1234 14 view .LVU445
 1792 0016 0B70     		strb	r3, [r1]
 1793              	.L132:
1235:Device/Src/rtc.c **** 	}
1236:Device/Src/rtc.c **** }
 1794              		.loc 1 1236 1 view .LVU446
 1795 0018 7047     		bx	lr
 1796              	.L135:
 1797 001a 00BF     		.align	2
 1798              	.L134:
 1799 001c 00000000 		.word	.LANCHOR1
 1800              		.cfi_endproc
 1801              	.LFE255:
 1803              		.global	__aeabi_f2d
 1804              		.global	__aeabi_ddiv
 1805              		.global	__aeabi_d2uiz
 1806              		.section	.text.cap_float_to_uint,"ax",%progbits
 1807              		.align	1
 1808              		.global	cap_float_to_uint
 1809              		.syntax unified
 1810              		.thumb
 1811              		.thumb_func
 1813              	cap_float_to_uint:
 1814              	.LVL120:
 1815              	.LFB256:
1237:Device/Src/rtc.c **** 
1238:Device/Src/rtc.c **** void cap_float_to_uint(float f_cap, uint8_t *p_dat1, uint8_t *p_dat2)
1239:Device/Src/rtc.c **** {
 1816              		.loc 1 1239 1 is_stmt 1 view -0
 1817              		.cfi_startproc
 1818              		@ args = 0, pretend = 0, frame = 0
 1819              		@ frame_needed = 0, uses_anonymous_args = 0
 1820              		.loc 1 1239 1 is_stmt 0 view .LVU448
 1821 0000 38B5     		push	{r3, r4, r5, lr}
 1822              	.LCFI43:
 1823              		.cfi_def_cfa_offset 16
 1824              		.cfi_offset 3, -16
 1825              		.cfi_offset 4, -12
 1826              		.cfi_offset 5, -8
 1827              		.cfi_offset 14, -4
 1828 0002 0446     		mov	r4, r0
 1829 0004 0D46     		mov	r5, r1
1240:Device/Src/rtc.c **** 	float convert;
 1830              		.loc 1 1240 2 is_stmt 1 view .LVU449
1241:Device/Src/rtc.c **** 	uint16_t cap_config = 0;
 1831              		.loc 1 1241 2 view .LVU450
 1832              	.LVL121:
1242:Device/Src/rtc.c **** 	convert = f_cap - SD8800_CAP_MIN;//╧л╤╗╢С╣Гхщ
 1833              		.loc 1 1242 2 view .LVU451
1243:Device/Src/rtc.c **** 	cap_config = convert / 0.051;//╬ьуСп║╣Гхщ
 1834              		.loc 1 1243 2 view .LVU452
ARM GAS  C:\Users\86158\AppData\Local\Temp\cc1OFnJc.s 			page 56


 1835              		.loc 1 1243 23 is_stmt 0 view .LVU453
 1836 0006 F7EE087A 		vmov.f32	s15, #1.5e+0
 1837 000a 70EE677A 		vsub.f32	s15, s0, s15
 1838              	.LVL122:
 1839              		.loc 1 1243 23 view .LVU454
 1840 000e 17EE900A 		vmov	r0, s15
 1841              	.LVL123:
 1842              		.loc 1 1243 23 view .LVU455
 1843 0012 FFF7FEFF 		bl	__aeabi_f2d
 1844              	.LVL124:
 1845              		.loc 1 1243 23 view .LVU456
 1846 0016 0AA3     		adr	r3, .L138
 1847 0018 D3E90023 		ldrd	r2, [r3]
 1848 001c FFF7FEFF 		bl	__aeabi_ddiv
 1849              	.LVL125:
 1850              		.loc 1 1243 13 view .LVU457
 1851 0020 FFF7FEFF 		bl	__aeabi_d2uiz
 1852              	.LVL126:
 1853 0024 82B2     		uxth	r2, r0
 1854              	.LVL127:
1244:Device/Src/rtc.c **** 
1245:Device/Src/rtc.c **** 	// if (cap_config > 0 && (cap_config + 1) % 32 == 0) {
1246:Device/Src/rtc.c **** 	// 	cap_config -= 1;
1247:Device/Src/rtc.c **** 	// } 
1248:Device/Src/rtc.c **** 	*p_dat2 = (SD8800_CAP_MODE << 3) | ((cap_config & 0xff) >> 5);
 1855              		.loc 1 1248 2 is_stmt 1 view .LVU458
 1856              		.loc 1 1248 58 is_stmt 0 view .LVU459
 1857 0026 C0F34213 		ubfx	r3, r0, #5, #3
 1858              		.loc 1 1248 35 view .LVU460
 1859 002a 43F00803 		orr	r3, r3, #8
 1860              		.loc 1 1248 10 view .LVU461
 1861 002e 2B70     		strb	r3, [r5]
1249:Device/Src/rtc.c **** 	*p_dat1 = ((cap_config & 0xff) << 3) | (cap_config & 0x07);
 1862              		.loc 1 1249 2 is_stmt 1 view .LVU462
 1863              		.loc 1 1249 33 is_stmt 0 view .LVU463
 1864 0030 D300     		lsls	r3, r2, #3
 1865 0032 5BB2     		sxtb	r3, r3
 1866              		.loc 1 1249 53 view .LVU464
 1867 0034 02F00702 		and	r2, r2, #7
 1868              	.LVL128:
 1869              		.loc 1 1249 39 view .LVU465
 1870 0038 1343     		orrs	r3, r3, r2
 1871              		.loc 1 1249 10 view .LVU466
 1872 003a 2370     		strb	r3, [r4]
1250:Device/Src/rtc.c **** 
1251:Device/Src/rtc.c **** }
 1873              		.loc 1 1251 1 view .LVU467
 1874 003c 38BD     		pop	{r3, r4, r5, pc}
 1875              	.LVL129:
 1876              	.L139:
 1877              		.loc 1 1251 1 view .LVU468
 1878 003e 00BF     		.align	3
 1879              	.L138:
 1880 0040 E9263108 		.word	137438953
 1881 0044 AC1CAA3F 		.word	1068113068
 1882              		.cfi_endproc
 1883              	.LFE256:
ARM GAS  C:\Users\86158\AppData\Local\Temp\cc1OFnJc.s 			page 57


 1885              		.global	__aeabi_dsub
 1886              		.section	.text.cap_list_number_convert,"ax",%progbits
 1887              		.align	1
 1888              		.global	cap_list_number_convert
 1889              		.syntax unified
 1890              		.thumb
 1891              		.thumb_func
 1893              	cap_list_number_convert:
 1894              	.LVL130:
 1895              	.LFB257:
1252:Device/Src/rtc.c **** uint16_t cap_list_number_convert(uint16_t start, float ppm)
1253:Device/Src/rtc.c **** {
 1896              		.loc 1 1253 1 is_stmt 1 view -0
 1897              		.cfi_startproc
 1898              		@ args = 0, pretend = 0, frame = 0
 1899              		@ frame_needed = 0, uses_anonymous_args = 0
 1900              		.loc 1 1253 1 is_stmt 0 view .LVU470
 1901 0000 D0B5     		push	{r4, r6, r7, lr}
 1902              	.LCFI44:
 1903              		.cfi_def_cfa_offset 16
 1904              		.cfi_offset 4, -16
 1905              		.cfi_offset 6, -12
 1906              		.cfi_offset 7, -8
 1907              		.cfi_offset 14, -4
 1908 0002 2DED028B 		vpush.64	{d8}
 1909              	.LCFI45:
 1910              		.cfi_def_cfa_offset 24
 1911              		.cfi_offset 80, -24
 1912              		.cfi_offset 81, -20
 1913 0006 0446     		mov	r4, r0
 1914 0008 B0EE408A 		vmov.f32	s16, s0
1254:Device/Src/rtc.c **** 	float sum2d4 = 2.4 * CAP_STEP_2D4;
 1915              		.loc 1 1254 2 is_stmt 1 view .LVU471
 1916              	.LVL131:
1255:Device/Src/rtc.c **** 	float sum1d2 = 1.2 * (CAP_STEP_1D2 - CAP_STEP_2D4);
 1917              		.loc 1 1255 2 view .LVU472
1256:Device/Src/rtc.c **** 	float sum0d8 = 0.8 * (CAP_STEP_0D8 - CAP_STEP_1D2);
 1918              		.loc 1 1256 2 view .LVU473
1257:Device/Src/rtc.c **** 	float sum0d6 = 0.6 * (CAP_STEP_0D6 - CAP_STEP_0D8);
 1919              		.loc 1 1257 2 view .LVU474
1258:Device/Src/rtc.c **** 	float sum0d4 = 0.4 * (start - CAP_STEP_0D6);
 1920              		.loc 1 1258 2 view .LVU475
 1921              		.loc 1 1258 21 is_stmt 0 view .LVU476
 1922 000c A0F58E70 		sub	r0, r0, #284
 1923              	.LVL132:
 1924              		.loc 1 1258 21 view .LVU477
 1925 0010 FFF7FEFF 		bl	__aeabi_i2d
 1926              	.LVL133:
 1927              		.loc 1 1258 21 view .LVU478
 1928 0014 62A3     		adr	r3, .L163+72
 1929 0016 D3E90023 		ldrd	r2, [r3]
 1930 001a FFF7FEFF 		bl	__aeabi_dmul
 1931              	.LVL134:
 1932              		.loc 1 1258 8 view .LVU479
 1933 001e FFF7FEFF 		bl	__aeabi_d2f
 1934              	.LVL135:
 1935 0022 00EE100A 		vmov	s0, r0
ARM GAS  C:\Users\86158\AppData\Local\Temp\cc1OFnJc.s 			page 58


 1936              	.LVL136:
1259:Device/Src/rtc.c **** 	uint16_t number = 1;
 1937              		.loc 1 1259 2 is_stmt 1 view .LVU480
1260:Device/Src/rtc.c **** 	if (ppm < sum0d4) {
 1938              		.loc 1 1260 2 view .LVU481
 1939              		.loc 1 1260 5 is_stmt 0 view .LVU482
 1940 0026 B4EEC80A 		vcmpe.f32	s0, s16
 1941 002a F1EE10FA 		vmrs	APSR_nzcv, FPSCR
 1942 002e 16DD     		ble	.L157
1261:Device/Src/rtc.c **** 		number = start - ppm * 2.5;
 1943              		.loc 1 1261 3 is_stmt 1 view .LVU483
 1944              		.loc 1 1261 24 is_stmt 0 view .LVU484
 1945 0030 18EE100A 		vmov	r0, s16
 1946              	.LVL137:
 1947              		.loc 1 1261 24 view .LVU485
 1948 0034 FFF7FEFF 		bl	__aeabi_f2d
 1949              	.LVL138:
 1950              		.loc 1 1261 24 view .LVU486
 1951 0038 0022     		movs	r2, #0
 1952 003a 514B     		ldr	r3, .L163+40
 1953 003c FFF7FEFF 		bl	__aeabi_dmul
 1954              	.LVL139:
 1955 0040 0646     		mov	r6, r0
 1956 0042 0F46     		mov	r7, r1
 1957              		.loc 1 1261 18 view .LVU487
 1958 0044 2046     		mov	r0, r4
 1959 0046 FFF7FEFF 		bl	__aeabi_i2d
 1960              	.LVL140:
 1961 004a 3246     		mov	r2, r6
 1962 004c 3B46     		mov	r3, r7
 1963 004e FFF7FEFF 		bl	__aeabi_dsub
 1964              	.LVL141:
 1965              		.loc 1 1261 10 view .LVU488
 1966 0052 FFF7FEFF 		bl	__aeabi_d2uiz
 1967              	.LVL142:
 1968 0056 80B2     		uxth	r0, r0
 1969              	.LVL143:
 1970              	.L143:
1262:Device/Src/rtc.c **** 	} else {
1263:Device/Src/rtc.c **** 		ppm -= sum0d4;
1264:Device/Src/rtc.c **** 		if (ppm < sum0d6) {
1265:Device/Src/rtc.c **** 			number = CAP_STEP_0D6 - ppm / 0.6;
1266:Device/Src/rtc.c **** 		} else {
1267:Device/Src/rtc.c **** 			ppm -= sum0d6;
1268:Device/Src/rtc.c **** 			if (ppm < sum0d8) {
1269:Device/Src/rtc.c **** 				number = CAP_STEP_0D8 - ppm / 0.8;
1270:Device/Src/rtc.c **** 			} else {
1271:Device/Src/rtc.c **** 				ppm -= sum0d8;
1272:Device/Src/rtc.c **** 				if (ppm < sum1d2) {
1273:Device/Src/rtc.c **** 					number = CAP_STEP_1D2 - ppm / 1.2;
1274:Device/Src/rtc.c **** 				} else {
1275:Device/Src/rtc.c **** 					ppm -= sum1d2;
1276:Device/Src/rtc.c **** 					if (ppm < sum2d4) {
1277:Device/Src/rtc.c **** 						number = CAP_STEP_2D4 - ppm / 2.4;
1278:Device/Src/rtc.c **** 					} else {
1279:Device/Src/rtc.c **** 						number = 1;
1280:Device/Src/rtc.c **** 					}
ARM GAS  C:\Users\86158\AppData\Local\Temp\cc1OFnJc.s 			page 59


1281:Device/Src/rtc.c **** 				}
1282:Device/Src/rtc.c **** 			}
1283:Device/Src/rtc.c **** 		}
1284:Device/Src/rtc.c **** 	}
1285:Device/Src/rtc.c **** 	return number;
 1971              		.loc 1 1285 2 is_stmt 1 view .LVU489
1286:Device/Src/rtc.c **** }
 1972              		.loc 1 1286 1 is_stmt 0 view .LVU490
 1973 0058 BDEC028B 		vldm	sp!, {d8}
 1974              	.LCFI46:
 1975              		.cfi_remember_state
 1976              		.cfi_restore 80
 1977              		.cfi_restore 81
 1978              		.cfi_def_cfa_offset 16
 1979              	.LVL144:
 1980              		.loc 1 1286 1 view .LVU491
 1981 005c D0BD     		pop	{r4, r6, r7, pc}
 1982              	.LVL145:
 1983              	.L157:
 1984              	.LCFI47:
 1985              		.cfi_restore_state
1263:Device/Src/rtc.c **** 		if (ppm < sum0d6) {
 1986              		.loc 1 1263 3 is_stmt 1 view .LVU492
1263:Device/Src/rtc.c **** 		if (ppm < sum0d6) {
 1987              		.loc 1 1263 7 is_stmt 0 view .LVU493
 1988 005e 38EE408A 		vsub.f32	s16, s16, s0
 1989              	.LVL146:
1264:Device/Src/rtc.c **** 			number = CAP_STEP_0D6 - ppm / 0.6;
 1990              		.loc 1 1264 3 is_stmt 1 view .LVU494
1264:Device/Src/rtc.c **** 			number = CAP_STEP_0D6 - ppm / 0.6;
 1991              		.loc 1 1264 6 is_stmt 0 view .LVU495
 1992 0062 DFED487A 		vldr.32	s15, .L163+44
 1993 0066 B4EEE78A 		vcmpe.f32	s16, s15
 1994 006a F1EE10FA 		vmrs	APSR_nzcv, FPSCR
 1995 006e 13D5     		bpl	.L158
1265:Device/Src/rtc.c **** 		} else {
 1996              		.loc 1 1265 4 is_stmt 1 view .LVU496
1265:Device/Src/rtc.c **** 		} else {
 1997              		.loc 1 1265 32 is_stmt 0 view .LVU497
 1998 0070 18EE100A 		vmov	r0, s16
 1999              	.LVL147:
1265:Device/Src/rtc.c **** 		} else {
 2000              		.loc 1 1265 32 view .LVU498
 2001 0074 FFF7FEFF 		bl	__aeabi_f2d
 2002              	.LVL148:
1265:Device/Src/rtc.c **** 		} else {
 2003              		.loc 1 1265 32 view .LVU499
 2004 0078 37A3     		adr	r3, .L163
 2005 007a D3E90023 		ldrd	r2, [r3]
 2006 007e FFF7FEFF 		bl	__aeabi_ddiv
 2007              	.LVL149:
 2008 0082 0246     		mov	r2, r0
 2009 0084 0B46     		mov	r3, r1
1265:Device/Src/rtc.c **** 		} else {
 2010              		.loc 1 1265 26 view .LVU500
 2011 0086 36A1     		adr	r1, .L163+8
 2012 0088 D1E90001 		ldrd	r0, [r1]
ARM GAS  C:\Users\86158\AppData\Local\Temp\cc1OFnJc.s 			page 60


 2013 008c FFF7FEFF 		bl	__aeabi_dsub
 2014              	.LVL150:
1265:Device/Src/rtc.c **** 		} else {
 2015              		.loc 1 1265 11 view .LVU501
 2016 0090 FFF7FEFF 		bl	__aeabi_d2uiz
 2017              	.LVL151:
 2018 0094 80B2     		uxth	r0, r0
 2019              	.LVL152:
1265:Device/Src/rtc.c **** 		} else {
 2020              		.loc 1 1265 11 view .LVU502
 2021 0096 DFE7     		b	.L143
 2022              	.LVL153:
 2023              	.L158:
1267:Device/Src/rtc.c **** 			if (ppm < sum0d8) {
 2024              		.loc 1 1267 4 is_stmt 1 view .LVU503
1267:Device/Src/rtc.c **** 			if (ppm < sum0d8) {
 2025              		.loc 1 1267 8 is_stmt 0 view .LVU504
 2026 0098 DFED3A7A 		vldr.32	s15, .L163+44
 2027 009c 38EE678A 		vsub.f32	s16, s16, s15
 2028              	.LVL154:
1268:Device/Src/rtc.c **** 				number = CAP_STEP_0D8 - ppm / 0.8;
 2029              		.loc 1 1268 4 is_stmt 1 view .LVU505
1268:Device/Src/rtc.c **** 				number = CAP_STEP_0D8 - ppm / 0.8;
 2030              		.loc 1 1268 7 is_stmt 0 view .LVU506
 2031 00a0 DFED397A 		vldr.32	s15, .L163+48
 2032 00a4 B4EEE78A 		vcmpe.f32	s16, s15
 2033 00a8 F1EE10FA 		vmrs	APSR_nzcv, FPSCR
 2034 00ac 13D5     		bpl	.L159
1269:Device/Src/rtc.c **** 			} else {
 2035              		.loc 1 1269 5 is_stmt 1 view .LVU507
1269:Device/Src/rtc.c **** 			} else {
 2036              		.loc 1 1269 33 is_stmt 0 view .LVU508
 2037 00ae 18EE100A 		vmov	r0, s16
 2038              	.LVL155:
1269:Device/Src/rtc.c **** 			} else {
 2039              		.loc 1 1269 33 view .LVU509
 2040 00b2 FFF7FEFF 		bl	__aeabi_f2d
 2041              	.LVL156:
1269:Device/Src/rtc.c **** 			} else {
 2042              		.loc 1 1269 33 view .LVU510
 2043 00b6 2CA3     		adr	r3, .L163+16
 2044 00b8 D3E90023 		ldrd	r2, [r3]
 2045 00bc FFF7FEFF 		bl	__aeabi_ddiv
 2046              	.LVL157:
 2047 00c0 0246     		mov	r2, r0
 2048 00c2 0B46     		mov	r3, r1
1269:Device/Src/rtc.c **** 			} else {
 2049              		.loc 1 1269 27 view .LVU511
 2050 00c4 2AA1     		adr	r1, .L163+24
 2051 00c6 D1E90001 		ldrd	r0, [r1]
 2052 00ca FFF7FEFF 		bl	__aeabi_dsub
 2053              	.LVL158:
1269:Device/Src/rtc.c **** 			} else {
 2054              		.loc 1 1269 12 view .LVU512
 2055 00ce FFF7FEFF 		bl	__aeabi_d2uiz
 2056              	.LVL159:
 2057 00d2 80B2     		uxth	r0, r0
ARM GAS  C:\Users\86158\AppData\Local\Temp\cc1OFnJc.s 			page 61


 2058              	.LVL160:
1269:Device/Src/rtc.c **** 			} else {
 2059              		.loc 1 1269 12 view .LVU513
 2060 00d4 C0E7     		b	.L143
 2061              	.LVL161:
 2062              	.L159:
1271:Device/Src/rtc.c **** 				if (ppm < sum1d2) {
 2063              		.loc 1 1271 5 is_stmt 1 view .LVU514
1271:Device/Src/rtc.c **** 				if (ppm < sum1d2) {
 2064              		.loc 1 1271 9 is_stmt 0 view .LVU515
 2065 00d6 DFED2C7A 		vldr.32	s15, .L163+48
 2066 00da 38EE678A 		vsub.f32	s16, s16, s15
 2067              	.LVL162:
1272:Device/Src/rtc.c **** 					number = CAP_STEP_1D2 - ppm / 1.2;
 2068              		.loc 1 1272 5 is_stmt 1 view .LVU516
1272:Device/Src/rtc.c **** 					number = CAP_STEP_1D2 - ppm / 1.2;
 2069              		.loc 1 1272 8 is_stmt 0 view .LVU517
 2070 00de DFED2B7A 		vldr.32	s15, .L163+52
 2071 00e2 B4EEE78A 		vcmpe.f32	s16, s15
 2072 00e6 F1EE10FA 		vmrs	APSR_nzcv, FPSCR
 2073 00ea 12D5     		bpl	.L160
1273:Device/Src/rtc.c **** 				} else {
 2074              		.loc 1 1273 6 is_stmt 1 view .LVU518
1273:Device/Src/rtc.c **** 				} else {
 2075              		.loc 1 1273 34 is_stmt 0 view .LVU519
 2076 00ec 18EE100A 		vmov	r0, s16
 2077              	.LVL163:
1273:Device/Src/rtc.c **** 				} else {
 2078              		.loc 1 1273 34 view .LVU520
 2079 00f0 FFF7FEFF 		bl	__aeabi_f2d
 2080              	.LVL164:
1273:Device/Src/rtc.c **** 				} else {
 2081              		.loc 1 1273 34 view .LVU521
 2082 00f4 4FF03332 		mov	r2, #858993459
 2083 00f8 254B     		ldr	r3, .L163+56
 2084 00fa FFF7FEFF 		bl	__aeabi_ddiv
 2085              	.LVL165:
 2086 00fe 0246     		mov	r2, r0
 2087 0100 0B46     		mov	r3, r1
1273:Device/Src/rtc.c **** 				} else {
 2088              		.loc 1 1273 28 view .LVU522
 2089 0102 0020     		movs	r0, #0
 2090 0104 2349     		ldr	r1, .L163+60
 2091 0106 FFF7FEFF 		bl	__aeabi_dsub
 2092              	.LVL166:
1273:Device/Src/rtc.c **** 				} else {
 2093              		.loc 1 1273 13 view .LVU523
 2094 010a FFF7FEFF 		bl	__aeabi_d2uiz
 2095              	.LVL167:
 2096 010e 80B2     		uxth	r0, r0
 2097              	.LVL168:
1273:Device/Src/rtc.c **** 				} else {
 2098              		.loc 1 1273 13 view .LVU524
 2099 0110 A2E7     		b	.L143
 2100              	.LVL169:
 2101              	.L160:
1275:Device/Src/rtc.c **** 					if (ppm < sum2d4) {
ARM GAS  C:\Users\86158\AppData\Local\Temp\cc1OFnJc.s 			page 62


 2102              		.loc 1 1275 6 is_stmt 1 view .LVU525
1275:Device/Src/rtc.c **** 					if (ppm < sum2d4) {
 2103              		.loc 1 1275 10 is_stmt 0 view .LVU526
 2104 0112 DFED1E7A 		vldr.32	s15, .L163+52
 2105 0116 38EE678A 		vsub.f32	s16, s16, s15
 2106              	.LVL170:
1276:Device/Src/rtc.c **** 						number = CAP_STEP_2D4 - ppm / 2.4;
 2107              		.loc 1 1276 6 is_stmt 1 view .LVU527
1276:Device/Src/rtc.c **** 						number = CAP_STEP_2D4 - ppm / 2.4;
 2108              		.loc 1 1276 9 is_stmt 0 view .LVU528
 2109 011a DFED1F7A 		vldr.32	s15, .L163+64
 2110 011e B4EEE78A 		vcmpe.f32	s16, s15
 2111 0122 F1EE10FA 		vmrs	APSR_nzcv, FPSCR
 2112 0126 12D5     		bpl	.L161
1277:Device/Src/rtc.c **** 					} else {
 2113              		.loc 1 1277 7 is_stmt 1 view .LVU529
1277:Device/Src/rtc.c **** 					} else {
 2114              		.loc 1 1277 35 is_stmt 0 view .LVU530
 2115 0128 18EE100A 		vmov	r0, s16
 2116              	.LVL171:
1277:Device/Src/rtc.c **** 					} else {
 2117              		.loc 1 1277 35 view .LVU531
 2118 012c FFF7FEFF 		bl	__aeabi_f2d
 2119              	.LVL172:
1277:Device/Src/rtc.c **** 					} else {
 2120              		.loc 1 1277 35 view .LVU532
 2121 0130 11A3     		adr	r3, .L163+32
 2122 0132 D3E90023 		ldrd	r2, [r3]
 2123 0136 FFF7FEFF 		bl	__aeabi_ddiv
 2124              	.LVL173:
 2125 013a 0246     		mov	r2, r0
 2126 013c 0B46     		mov	r3, r1
1277:Device/Src/rtc.c **** 					} else {
 2127              		.loc 1 1277 29 view .LVU533
 2128 013e 0020     		movs	r0, #0
 2129 0140 1649     		ldr	r1, .L163+68
 2130 0142 FFF7FEFF 		bl	__aeabi_dsub
 2131              	.LVL174:
1277:Device/Src/rtc.c **** 					} else {
 2132              		.loc 1 1277 14 view .LVU534
 2133 0146 FFF7FEFF 		bl	__aeabi_d2uiz
 2134              	.LVL175:
 2135 014a 80B2     		uxth	r0, r0
 2136              	.LVL176:
1277:Device/Src/rtc.c **** 					} else {
 2137              		.loc 1 1277 14 view .LVU535
 2138 014c 84E7     		b	.L143
 2139              	.LVL177:
 2140              	.L161:
1279:Device/Src/rtc.c **** 					}
 2141              		.loc 1 1279 14 view .LVU536
 2142 014e 0120     		movs	r0, #1
 2143              	.LVL178:
1279:Device/Src/rtc.c **** 					}
 2144              		.loc 1 1279 14 view .LVU537
 2145 0150 82E7     		b	.L143
 2146              	.L164:
ARM GAS  C:\Users\86158\AppData\Local\Temp\cc1OFnJc.s 			page 63


 2147 0152 00BFAFF3 		.align	3
 2147      0080
 2148              	.L163:
 2149 0158 33333333 		.word	858993459
 2150 015c 3333E33F 		.word	1071854387
 2151 0160 00000000 		.word	0
 2152 0164 00C07140 		.word	1081196544
 2153 0168 9A999999 		.word	-1717986918
 2154 016c 9999E93F 		.word	1072273817
 2155 0170 00000000 		.word	0
 2156 0174 00E06740 		.word	1080549376
 2157 0178 33333333 		.word	858993459
 2158 017c 33330340 		.word	1073951539
 2159 0180 00000440 		.word	1074003968
 2160 0184 33335F42 		.word	1113535283
 2161 0188 00005042 		.word	1112539136
 2162 018c 3333F742 		.word	1123496755
 2163 0190 3333F33F 		.word	1072902963
 2164 0194 00805F40 		.word	1080000512
 2165 0198 CDCC5C42 		.word	1113377997
 2166 019c 00003740 		.word	1077346304
 2167 01a0 9A999999 		.word	-1717986918
 2168 01a4 9999D93F 		.word	1071225241
 2169              		.cfi_endproc
 2170              	.LFE257:
 2172              		.section	.text.digtal_adj_convert,"ax",%progbits
 2173              		.align	1
 2174              		.global	digtal_adj_convert
 2175              		.syntax unified
 2176              		.thumb
 2177              		.thumb_func
 2179              	digtal_adj_convert:
 2180              	.LVL179:
 2181              	.LFB258:
1287:Device/Src/rtc.c **** 
1288:Device/Src/rtc.c **** int digtal_adj_convert(uint16_t start, float ppm)
1289:Device/Src/rtc.c **** {
 2182              		.loc 1 1289 1 is_stmt 1 view -0
 2183              		.cfi_startproc
 2184              		@ args = 0, pretend = 0, frame = 0
 2185              		@ frame_needed = 0, uses_anonymous_args = 0
 2186              		.loc 1 1289 1 is_stmt 0 view .LVU539
 2187 0000 08B5     		push	{r3, lr}
 2188              	.LCFI48:
 2189              		.cfi_def_cfa_offset 8
 2190              		.cfi_offset 3, -8
 2191              		.cfi_offset 14, -4
 2192 0002 2DED028B 		vpush.64	{d8}
 2193              	.LCFI49:
 2194              		.cfi_def_cfa_offset 16
 2195              		.cfi_offset 80, -16
 2196              		.cfi_offset 81, -12
 2197 0006 B0EE408A 		vmov.f32	s16, s0
1290:Device/Src/rtc.c **** 	float sum;
 2198              		.loc 1 1290 2 is_stmt 1 view .LVU540
1291:Device/Src/rtc.c **** 	int digtal = 0;
 2199              		.loc 1 1291 2 view .LVU541
ARM GAS  C:\Users\86158\AppData\Local\Temp\cc1OFnJc.s 			page 64


 2200              	.LVL180:
1292:Device/Src/rtc.c **** 	
1293:Device/Src/rtc.c **** 	sum = 2.4 * (CAP_STEP_2D4 - 1) + 1.2 * (CAP_STEP_1D2 - CAP_STEP_2D4) + 0.8 * (CAP_STEP_0D8 - CAP_S
 2201              		.loc 1 1293 2 view .LVU542
1294:Device/Src/rtc.c **** 			+ 0.6 * (CAP_STEP_0D6 - CAP_STEP_0D8) + 0.4 * (start - CAP_STEP_0D6);
 2202              		.loc 1 1294 48 is_stmt 0 view .LVU543
 2203 000a A0F58E70 		sub	r0, r0, #284
 2204              	.LVL181:
 2205              		.loc 1 1294 48 view .LVU544
 2206 000e FFF7FEFF 		bl	__aeabi_i2d
 2207              	.LVL182:
 2208              		.loc 1 1294 48 view .LVU545
 2209 0012 11A3     		adr	r3, .L171
 2210 0014 D3E90023 		ldrd	r2, [r3]
 2211 0018 FFF7FEFF 		bl	__aeabi_dmul
 2212              	.LVL183:
 2213              		.loc 1 1294 42 view .LVU546
 2214 001c 10A3     		adr	r3, .L171+8
 2215 001e D3E90023 		ldrd	r2, [r3]
 2216 0022 FFF7FEFF 		bl	__aeabi_dadd
 2217              	.LVL184:
1293:Device/Src/rtc.c **** 			+ 0.6 * (CAP_STEP_0D6 - CAP_STEP_0D8) + 0.4 * (start - CAP_STEP_0D6);
 2218              		.loc 1 1293 6 view .LVU547
 2219 0026 FFF7FEFF 		bl	__aeabi_d2f
 2220              	.LVL185:
 2221 002a 07EE900A 		vmov	s15, r0
 2222              	.LVL186:
1295:Device/Src/rtc.c **** 	if (ppm < sum) {
 2223              		.loc 1 1295 2 is_stmt 1 view .LVU548
 2224              		.loc 1 1295 5 is_stmt 0 view .LVU549
 2225 002e F4EEC87A 		vcmpe.f32	s15, s16
 2226 0032 F1EE10FA 		vmrs	APSR_nzcv, FPSCR
 2227 0036 0BDC     		bgt	.L168
1296:Device/Src/rtc.c **** 		return 0;
1297:Device/Src/rtc.c **** 	} else {
1298:Device/Src/rtc.c **** 		digtal = sum - ppm;
 2228              		.loc 1 1298 3 is_stmt 1 view .LVU550
 2229              		.loc 1 1298 16 is_stmt 0 view .LVU551
 2230 0038 77EEC87A 		vsub.f32	s15, s15, s16
 2231              		.loc 1 1298 10 view .LVU552
 2232 003c FDEEE77A 		vcvt.s32.f32	s15, s15
 2233 0040 17EE900A 		vmov	r0, s15	@ int
 2234              	.LVL187:
1299:Device/Src/rtc.c **** 		if (digtal < -189) {//йЩвж╡╧Ё╔ж╩сп6bitё╛вН╢Сж╣н╙63ё╛╤тс╕╣дйЩн╙-189
 2235              		.loc 1 1299 3 is_stmt 1 view .LVU553
 2236              		.loc 1 1299 6 is_stmt 0 view .LVU554
 2237 0044 10F1BD0F 		cmn	r0, #189
 2238 0048 03DA     		bge	.L165
1300:Device/Src/rtc.c **** 			digtal = -189;
 2239              		.loc 1 1300 11 view .LVU555
 2240 004a 6FF0BC00 		mvn	r0, #188
 2241              	.LVL188:
1301:Device/Src/rtc.c **** 		}
1302:Device/Src/rtc.c **** 		return digtal;
 2242              		.loc 1 1302 3 is_stmt 1 view .LVU556
 2243              		.loc 1 1302 10 is_stmt 0 view .LVU557
 2244 004e 00E0     		b	.L165
ARM GAS  C:\Users\86158\AppData\Local\Temp\cc1OFnJc.s 			page 65


 2245              	.LVL189:
 2246              	.L168:
1296:Device/Src/rtc.c **** 	} else {
 2247              		.loc 1 1296 10 view .LVU558
 2248 0050 0020     		movs	r0, #0
 2249              	.LVL190:
 2250              	.L165:
1303:Device/Src/rtc.c **** 	}
1304:Device/Src/rtc.c **** }
 2251              		.loc 1 1304 1 view .LVU559
 2252 0052 BDEC028B 		vldm	sp!, {d8}
 2253              	.LCFI50:
 2254              		.cfi_restore 80
 2255              		.cfi_restore 81
 2256              		.cfi_def_cfa_offset 8
 2257              	.LVL191:
 2258              		.loc 1 1304 1 view .LVU560
 2259 0056 08BD     		pop	{r3, pc}
 2260              	.L172:
 2261              		.align	3
 2262              	.L171:
 2263 0058 9A999999 		.word	-1717986918
 2264 005c 9999D93F 		.word	1071225241
 2265 0060 33333333 		.word	858993459
 2266 0064 33C37140 		.word	1081197363
 2267              		.cfi_endproc
 2268              	.LFE258:
 2270              		.section	.text.wave1006_read_temp_adc,"ax",%progbits
 2271              		.align	1
 2272              		.global	wave1006_read_temp_adc
 2273              		.syntax unified
 2274              		.thumb
 2275              		.thumb_func
 2277              	wave1006_read_temp_adc:
 2278              	.LVL192:
 2279              	.LFB259:
1305:Device/Src/rtc.c **** 
1306:Device/Src/rtc.c **** uint8_t wave1006_read_temp_adc(uint16_t* temp)
1307:Device/Src/rtc.c **** {
 2280              		.loc 1 1307 1 is_stmt 1 view -0
 2281              		.cfi_startproc
 2282              		@ args = 0, pretend = 0, frame = 8
 2283              		@ frame_needed = 0, uses_anonymous_args = 0
 2284              		.loc 1 1307 1 is_stmt 0 view .LVU562
 2285 0000 30B5     		push	{r4, r5, lr}
 2286              	.LCFI51:
 2287              		.cfi_def_cfa_offset 12
 2288              		.cfi_offset 4, -12
 2289              		.cfi_offset 5, -8
 2290              		.cfi_offset 14, -4
 2291 0002 83B0     		sub	sp, sp, #12
 2292              	.LCFI52:
 2293              		.cfi_def_cfa_offset 24
 2294 0004 0546     		mov	r5, r0
1308:Device/Src/rtc.c **** 	uint8_t buffer[2] = {0};
 2295              		.loc 1 1308 2 is_stmt 1 view .LVU563
 2296              		.loc 1 1308 10 is_stmt 0 view .LVU564
ARM GAS  C:\Users\86158\AppData\Local\Temp\cc1OFnJc.s 			page 66


 2297 0006 0020     		movs	r0, #0
 2298              	.LVL193:
 2299              		.loc 1 1308 10 view .LVU565
 2300 0008 ADF80400 		strh	r0, [sp, #4]	@ movhi
1309:Device/Src/rtc.c **** 	buffer[0] = 0x10;
 2301              		.loc 1 1309 2 is_stmt 1 view .LVU566
 2302              		.loc 1 1309 12 is_stmt 0 view .LVU567
 2303 000c 1023     		movs	r3, #16
 2304 000e 8DF80430 		strb	r3, [sp, #4]
1310:Device/Src/rtc.c **** 	uint8_t i;
 2305              		.loc 1 1310 2 is_stmt 1 view .LVU568
1311:Device/Src/rtc.c **** 	if (drv_wave1006_write_reg(DEV_SD3068, 0x17, 1, &buffer[0]) != WAVE1006_EXIT_OK) {
 2306              		.loc 1 1311 2 view .LVU569
 2307              		.loc 1 1311 6 is_stmt 0 view .LVU570
 2308 0012 01AB     		add	r3, sp, #4
 2309 0014 0122     		movs	r2, #1
 2310 0016 1721     		movs	r1, #23
 2311 0018 FFF7FEFF 		bl	drv_wave1006_write_reg
 2312              	.LVL194:
 2313              		.loc 1 1311 5 view .LVU571
 2314 001c 58BB     		cbnz	r0, .L178
1312:Device/Src/rtc.c **** 		return 0;
1313:Device/Src/rtc.c **** 	}
1314:Device/Src/rtc.c **** 	for (i = 0; i < 10; i++) {
 2315              		.loc 1 1314 9 view .LVU572
 2316 001e 0024     		movs	r4, #0
 2317 0020 01E0     		b	.L175
 2318              	.LVL195:
 2319              	.L183:
 2320              		.loc 1 1314 22 is_stmt 1 discriminator 2 view .LVU573
 2321              		.loc 1 1314 23 is_stmt 0 discriminator 2 view .LVU574
 2322 0022 0134     		adds	r4, r4, #1
 2323              	.LVL196:
 2324              		.loc 1 1314 23 discriminator 2 view .LVU575
 2325 0024 E4B2     		uxtb	r4, r4
 2326              	.LVL197:
 2327              	.L175:
 2328              		.loc 1 1314 14 is_stmt 1 discriminator 1 view .LVU576
 2329              		.loc 1 1314 2 is_stmt 0 discriminator 1 view .LVU577
 2330 0026 092C     		cmp	r4, #9
 2331 0028 0DD8     		bhi	.L176
1315:Device/Src/rtc.c **** 		HAL_Delay(1);
 2332              		.loc 1 1315 3 is_stmt 1 view .LVU578
 2333 002a 0120     		movs	r0, #1
 2334 002c FFF7FEFF 		bl	HAL_Delay
 2335              	.LVL198:
1316:Device/Src/rtc.c **** 		drv_wave1006_read_reg(DEV_SD3068, 0x17, 1, buffer);
 2336              		.loc 1 1316 3 view .LVU579
 2337 0030 01AB     		add	r3, sp, #4
 2338 0032 0122     		movs	r2, #1
 2339 0034 1721     		movs	r1, #23
 2340 0036 0020     		movs	r0, #0
 2341 0038 FFF7FEFF 		bl	drv_wave1006_read_reg
 2342              	.LVL199:
1317:Device/Src/rtc.c **** 		if ((buffer[0] & 0x30) == 0) {
 2343              		.loc 1 1317 3 view .LVU580
 2344              		.loc 1 1317 14 is_stmt 0 view .LVU581
ARM GAS  C:\Users\86158\AppData\Local\Temp\cc1OFnJc.s 			page 67


 2345 003c 9DF80430 		ldrb	r3, [sp, #4]	@ zero_extendqisi2
 2346              		.loc 1 1317 6 view .LVU582
 2347 0040 13F0300F 		tst	r3, #48
 2348 0044 EDD1     		bne	.L183
 2349              	.L176:
1318:Device/Src/rtc.c **** 			break;
1319:Device/Src/rtc.c **** 		}
1320:Device/Src/rtc.c **** 	}
1321:Device/Src/rtc.c **** 	if (i >= 10) {return 0;}
 2350              		.loc 1 1321 2 is_stmt 1 view .LVU583
 2351              		.loc 1 1321 5 is_stmt 0 view .LVU584
 2352 0046 092C     		cmp	r4, #9
 2353 0048 01D9     		bls	.L184
 2354              		.loc 1 1321 23 view .LVU585
 2355 004a 0020     		movs	r0, #0
 2356 004c 14E0     		b	.L174
 2357              	.L184:
1322:Device/Src/rtc.c **** 	if (drv_wave1006_read_reg(DEV_SD3068, WAVE1006_REG_USER_RAM_START + 26, 2, buffer) != WAVE1006_EXI
 2358              		.loc 1 1322 2 is_stmt 1 view .LVU586
 2359              		.loc 1 1322 6 is_stmt 0 view .LVU587
 2360 004e 01AB     		add	r3, sp, #4
 2361 0050 0222     		movs	r2, #2
 2362 0052 4621     		movs	r1, #70
 2363 0054 0020     		movs	r0, #0
 2364 0056 FFF7FEFF 		bl	drv_wave1006_read_reg
 2365              	.LVL200:
 2366              		.loc 1 1322 5 view .LVU588
 2367 005a 78B9     		cbnz	r0, .L180
1323:Device/Src/rtc.c **** 	{
1324:Device/Src/rtc.c **** 		return 0;
1325:Device/Src/rtc.c **** 	}
1326:Device/Src/rtc.c **** 	*temp = buffer[0];
 2368              		.loc 1 1326 2 is_stmt 1 view .LVU589
 2369              		.loc 1 1326 16 is_stmt 0 view .LVU590
 2370 005c 9DF80430 		ldrb	r3, [sp, #4]	@ zero_extendqisi2
 2371              		.loc 1 1326 8 view .LVU591
 2372 0060 2B80     		strh	r3, [r5]	@ movhi
1327:Device/Src/rtc.c **** 	if (buffer[1] & 0x40) {
 2373              		.loc 1 1327 2 is_stmt 1 view .LVU592
 2374              		.loc 1 1327 12 is_stmt 0 view .LVU593
 2375 0062 9DF80520 		ldrb	r2, [sp, #5]	@ zero_extendqisi2
 2376              		.loc 1 1327 5 view .LVU594
 2377 0066 12F0400F 		tst	r2, #64
 2378 006a 09D0     		beq	.L181
1328:Device/Src/rtc.c **** 		*temp += 256;
 2379              		.loc 1 1328 3 is_stmt 1 view .LVU595
 2380              		.loc 1 1328 9 is_stmt 0 view .LVU596
 2381 006c 03F58073 		add	r3, r3, #256
 2382 0070 2B80     		strh	r3, [r5]	@ movhi
1329:Device/Src/rtc.c **** 	}
1330:Device/Src/rtc.c **** 	return 1;
 2383              		.loc 1 1330 9 view .LVU597
 2384 0072 0120     		movs	r0, #1
 2385 0074 00E0     		b	.L174
 2386              	.LVL201:
 2387              	.L178:
1312:Device/Src/rtc.c **** 	}
ARM GAS  C:\Users\86158\AppData\Local\Temp\cc1OFnJc.s 			page 68


 2388              		.loc 1 1312 10 view .LVU598
 2389 0076 0020     		movs	r0, #0
 2390              	.L174:
1331:Device/Src/rtc.c **** }
 2391              		.loc 1 1331 1 view .LVU599
 2392 0078 03B0     		add	sp, sp, #12
 2393              	.LCFI53:
 2394              		.cfi_remember_state
 2395              		.cfi_def_cfa_offset 12
 2396              		@ sp needed
 2397 007a 30BD     		pop	{r4, r5, pc}
 2398              	.LVL202:
 2399              	.L180:
 2400              	.LCFI54:
 2401              		.cfi_restore_state
1324:Device/Src/rtc.c **** 	}
 2402              		.loc 1 1324 10 view .LVU600
 2403 007c 0020     		movs	r0, #0
 2404 007e FBE7     		b	.L174
 2405              	.L181:
1330:Device/Src/rtc.c **** }
 2406              		.loc 1 1330 9 view .LVU601
 2407 0080 0120     		movs	r0, #1
 2408 0082 F9E7     		b	.L174
 2409              		.cfi_endproc
 2410              	.LFE259:
 2412              		.section	.text.system_get_rtc_temp,"ax",%progbits
 2413              		.align	1
 2414              		.global	system_get_rtc_temp
 2415              		.syntax unified
 2416              		.thumb
 2417              		.thumb_func
 2419              	system_get_rtc_temp:
 2420              	.LFB237:
 895:Device/Src/rtc.c **** 	float tempSum = 0;
 2421              		.loc 1 895 1 is_stmt 1 view -0
 2422              		.cfi_startproc
 2423              		@ args = 0, pretend = 0, frame = 8
 2424              		@ frame_needed = 0, uses_anonymous_args = 0
 2425 0000 30B5     		push	{r4, r5, lr}
 2426              	.LCFI55:
 2427              		.cfi_def_cfa_offset 12
 2428              		.cfi_offset 4, -12
 2429              		.cfi_offset 5, -8
 2430              		.cfi_offset 14, -4
 2431 0002 2DED028B 		vpush.64	{d8}
 2432              	.LCFI56:
 2433              		.cfi_def_cfa_offset 20
 2434              		.cfi_offset 80, -20
 2435              		.cfi_offset 81, -16
 2436 0006 83B0     		sub	sp, sp, #12
 2437              	.LCFI57:
 2438              		.cfi_def_cfa_offset 32
 896:Device/Src/rtc.c **** 	uint8_t count = 0;
 2439              		.loc 1 896 2 view .LVU603
 2440              	.LVL203:
 897:Device/Src/rtc.c **** 	uint16_t readTemp;
ARM GAS  C:\Users\86158\AppData\Local\Temp\cc1OFnJc.s 			page 69


 2441              		.loc 1 897 2 view .LVU604
 898:Device/Src/rtc.c **** 	int quick;
 2442              		.loc 1 898 2 view .LVU605
 899:Device/Src/rtc.c **** 	int i;
 2443              		.loc 1 899 2 view .LVU606
 900:Device/Src/rtc.c **** 
 2444              		.loc 1 900 2 view .LVU607
 902:Device/Src/rtc.c **** 		if (wave1006_read_temp_adc(&readTemp) > 0) {
 2445              		.loc 1 902 2 view .LVU608
 902:Device/Src/rtc.c **** 		if (wave1006_read_temp_adc(&readTemp) > 0) {
 2446              		.loc 1 902 9 is_stmt 0 view .LVU609
 2447 0008 0024     		movs	r4, #0
 897:Device/Src/rtc.c **** 	uint16_t readTemp;
 2448              		.loc 1 897 10 view .LVU610
 2449 000a 2546     		mov	r5, r4
 896:Device/Src/rtc.c **** 	uint8_t count = 0;
 2450              		.loc 1 896 8 view .LVU611
 2451 000c 9FED138A 		vldr.32	s16, .L193
 902:Device/Src/rtc.c **** 		if (wave1006_read_temp_adc(&readTemp) > 0) {
 2452              		.loc 1 902 2 view .LVU612
 2453 0010 03E0     		b	.L186
 2454              	.LVL204:
 2455              	.L187:
 911:Device/Src/rtc.c **** 	}
 2456              		.loc 1 911 3 is_stmt 1 discriminator 2 view .LVU613
 2457 0012 0520     		movs	r0, #5
 2458 0014 FFF7FEFF 		bl	HAL_Delay
 2459              	.LVL205:
 902:Device/Src/rtc.c **** 		if (wave1006_read_temp_adc(&readTemp) > 0) {
 2460              		.loc 1 902 21 discriminator 2 view .LVU614
 902:Device/Src/rtc.c **** 		if (wave1006_read_temp_adc(&readTemp) > 0) {
 2461              		.loc 1 902 22 is_stmt 0 discriminator 2 view .LVU615
 2462 0018 0134     		adds	r4, r4, #1
 2463              	.LVL206:
 2464              	.L186:
 902:Device/Src/rtc.c **** 		if (wave1006_read_temp_adc(&readTemp) > 0) {
 2465              		.loc 1 902 14 is_stmt 1 discriminator 1 view .LVU616
 902:Device/Src/rtc.c **** 		if (wave1006_read_temp_adc(&readTemp) > 0) {
 2466              		.loc 1 902 2 is_stmt 0 discriminator 1 view .LVU617
 2467 001a 042C     		cmp	r4, #4
 2468 001c 10DC     		bgt	.L192
 903:Device/Src/rtc.c **** 			quick = readTemp;
 2469              		.loc 1 903 3 is_stmt 1 view .LVU618
 903:Device/Src/rtc.c **** 			quick = readTemp;
 2470              		.loc 1 903 7 is_stmt 0 view .LVU619
 2471 001e 0DF10600 		add	r0, sp, #6
 2472 0022 FFF7FEFF 		bl	wave1006_read_temp_adc
 2473              	.LVL207:
 903:Device/Src/rtc.c **** 			quick = readTemp;
 2474              		.loc 1 903 6 view .LVU620
 2475 0026 0028     		cmp	r0, #0
 2476 0028 F3D0     		beq	.L187
 904:Device/Src/rtc.c **** 			// if (quick > 160) {
 2477              		.loc 1 904 4 is_stmt 1 view .LVU621
 904:Device/Src/rtc.c **** 			// if (quick > 160) {
 2478              		.loc 1 904 10 is_stmt 0 view .LVU622
 2479 002a BDF80630 		ldrh	r3, [sp, #6]
ARM GAS  C:\Users\86158\AppData\Local\Temp\cc1OFnJc.s 			page 70


 2480 002e 07EE903A 		vmov	s15, r3	@ int
 2481              	.LVL208:
 908:Device/Src/rtc.c **** 			tempSum += quick;
 2482              		.loc 1 908 4 is_stmt 1 view .LVU623
 908:Device/Src/rtc.c **** 			tempSum += quick;
 2483              		.loc 1 908 9 is_stmt 0 view .LVU624
 2484 0032 0135     		adds	r5, r5, #1
 2485              	.LVL209:
 908:Device/Src/rtc.c **** 			tempSum += quick;
 2486              		.loc 1 908 9 view .LVU625
 2487 0034 EDB2     		uxtb	r5, r5
 2488              	.LVL210:
 909:Device/Src/rtc.c **** 		}
 2489              		.loc 1 909 4 is_stmt 1 view .LVU626
 909:Device/Src/rtc.c **** 		}
 2490              		.loc 1 909 12 is_stmt 0 view .LVU627
 2491 0036 F8EEE77A 		vcvt.f32.s32	s15, s15
 2492 003a 38EE278A 		vadd.f32	s16, s16, s15
 2493              	.LVL211:
 909:Device/Src/rtc.c **** 		}
 2494              		.loc 1 909 12 view .LVU628
 2495 003e E8E7     		b	.L187
 2496              	.LVL212:
 2497              	.L192:
 913:Device/Src/rtc.c **** 		tempSum = -300;
 2498              		.loc 1 913 2 is_stmt 1 view .LVU629
 913:Device/Src/rtc.c **** 		tempSum = -300;
 2499              		.loc 1 913 5 is_stmt 0 view .LVU630
 2500 0040 4DB1     		cbz	r5, .L190
 916:Device/Src/rtc.c **** 	}
 2501              		.loc 1 916 3 is_stmt 1 view .LVU631
 916:Device/Src/rtc.c **** 	}
 2502              		.loc 1 916 21 is_stmt 0 view .LVU632
 2503 0042 07EE905A 		vmov	s15, r5	@ int
 2504 0046 F8EEE77A 		vcvt.f32.s32	s15, s15
 916:Device/Src/rtc.c **** 	}
 2505              		.loc 1 916 11 view .LVU633
 2506 004a 88EE270A 		vdiv.f32	s0, s16, s15
 2507              	.LVL213:
 2508              	.L185:
 919:Device/Src/rtc.c **** 
 2509              		.loc 1 919 1 view .LVU634
 2510 004e 03B0     		add	sp, sp, #12
 2511              	.LCFI58:
 2512              		.cfi_remember_state
 2513              		.cfi_def_cfa_offset 20
 2514              		@ sp needed
 2515 0050 BDEC028B 		vldm	sp!, {d8}
 2516              	.LCFI59:
 2517              		.cfi_restore 80
 2518              		.cfi_restore 81
 2519              		.cfi_def_cfa_offset 12
 2520 0054 30BD     		pop	{r4, r5, pc}
 2521              	.LVL214:
 2522              	.L190:
 2523              	.LCFI60:
 2524              		.cfi_restore_state
ARM GAS  C:\Users\86158\AppData\Local\Temp\cc1OFnJc.s 			page 71


 914:Device/Src/rtc.c **** 	} else {
 2525              		.loc 1 914 11 view .LVU635
 2526 0056 9FED020A 		vldr.32	s0, .L193+4
 2527              	.LVL215:
 918:Device/Src/rtc.c **** }
 2528              		.loc 1 918 2 is_stmt 1 view .LVU636
 918:Device/Src/rtc.c **** }
 2529              		.loc 1 918 9 is_stmt 0 view .LVU637
 2530 005a F8E7     		b	.L185
 2531              	.L194:
 2532              		.align	2
 2533              	.L193:
 2534 005c 00000000 		.word	0
 2535 0060 000096C3 		.word	-1013579776
 2536              		.cfi_endproc
 2537              	.LFE237:
 2539              		.global	g_capList
 2540              		.global	g_otpBuffer
 2541              		.section	.rodata
 2542              		.align	2
 2543              		.set	.LANCHOR0,. + 0
 2544              	.LC6:
 2545 0000 BCEBFFFF 		.ascii	"\274\353\377\377/\377\377\376\"\377\000\000\377\002"
 2545      2FFFFFFE 
 2545      22FF0000 
 2545      FF02
 2546 000e DC4A     		.ascii	"\334J"
 2547              		.section	.data.g_capList,"aw"
 2548              		.align	2
 2549              		.set	.LANCHOR1,. + 0
 2552              	g_capList:
 2553 0000 1000     		.ascii	"\020\000"
 2554 0002 1002     		.ascii	"\020\002"
 2555 0004 1003     		.ascii	"\020\003"
 2556 0006 1004     		.ascii	"\020\004"
 2557 0008 1010     		.ascii	"\020\020"
 2558 000a 1007     		.ascii	"\020\007"
 2559 000c 1012     		.ascii	"\020\022"
 2560 000e 100E     		.ascii	"\020\016"
 2561 0010 100F     		.ascii	"\020\017"
 2562 0012 1022     		.ascii	"\020\""
 2563 0014 1028     		.ascii	"\020("
 2564 0016 1029     		.ascii	"\020)"
 2565 0018 1026     		.ascii	"\020&"
 2566 001a 102C     		.ascii	"\020,"
 2567 001c 102D     		.ascii	"\020-"
 2568 001e 1039     		.ascii	"\0209"
 2569 0020 1036     		.ascii	"\0206"
 2570 0022 1037     		.ascii	"\0207"
 2571 0024 103D     		.ascii	"\020="
 2572 0026 1040     		.ascii	"\020@"
 2573 0028 1041     		.ascii	"\020A"
 2574 002a 1042     		.ascii	"\020B"
 2575 002c 1044     		.ascii	"\020D"
 2576 002e 1046     		.ascii	"\020F"
 2577 0030 104B     		.ascii	"\020K"
 2578 0032 1052     		.ascii	"\020R"
ARM GAS  C:\Users\86158\AppData\Local\Temp\cc1OFnJc.s 			page 72


 2579 0034 104D     		.ascii	"\020M"
 2580 0036 1060     		.ascii	"\020`"
 2581 0038 1059     		.ascii	"\020Y"
 2582 003a 1055     		.ascii	"\020U"
 2583 003c 1056     		.ascii	"\020V"
 2584 003e 105B     		.ascii	"\020["
 2585 0040 105C     		.ascii	"\020\\"
 2586 0042 1064     		.ascii	"\020d"
 2587 0044 1069     		.ascii	"\020i"
 2588 0046 106A     		.ascii	"\020j"
 2589 0048 1071     		.ascii	"\020q"
 2590 004a 106C     		.ascii	"\020l"
 2591 004c 1078     		.ascii	"\020x"
 2592 004e 106D     		.ascii	"\020m"
 2593 0050 106E     		.ascii	"\020n"
 2594 0052 1079     		.ascii	"\020y"
 2595 0054 106F     		.ascii	"\020o"
 2596 0056 1076     		.ascii	"\020v"
 2597 0058 107C     		.ascii	"\020|"
 2598 005a 1080     		.ascii	"\020\200"
 2599 005c 107D     		.ascii	"\020}"
 2600 005e 107E     		.ascii	"\020~"
 2601 0060 1082     		.ascii	"\020\202"
 2602 0062 107F     		.ascii	"\020\177"
 2603 0064 1084     		.ascii	"\020\204"
 2604 0066 1089     		.ascii	"\020\211"
 2605 0068 1090     		.ascii	"\020\220"
 2606 006a 1086     		.ascii	"\020\206"
 2607 006c 1091     		.ascii	"\020\221"
 2608 006e 1092     		.ascii	"\020\222"
 2609 0070 1098     		.ascii	"\020\230"
 2610 0072 1094     		.ascii	"\020\224"
 2611 0074 1099     		.ascii	"\020\231"
 2612 0076 109A     		.ascii	"\020\232"
 2613 0078 10A2     		.ascii	"\020\242"
 2614 007a 10A8     		.ascii	"\020\250"
 2615 007c 10A4     		.ascii	"\020\244"
 2616 007e 10A9     		.ascii	"\020\251"
 2617 0080 109E     		.ascii	"\020\236"
 2618 0082 10B1     		.ascii	"\020\261"
 2619 0084 10AB     		.ascii	"\020\253"
 2620 0086 10B8     		.ascii	"\020\270"
 2621 0088 10B3     		.ascii	"\020\263"
 2622 008a 10AE     		.ascii	"\020\256"
 2623 008c 10B5     		.ascii	"\020\265"
 2624 008e 10B6     		.ascii	"\020\266"
 2625 0090 10BB     		.ascii	"\020\273"
 2626 0092 10B7     		.ascii	"\020\267"
 2627 0094 10BD     		.ascii	"\020\275"
 2628 0096 10BE     		.ascii	"\020\276"
 2629 0098 10C0     		.ascii	"\020\300"
 2630 009a 10C1     		.ascii	"\020\301"
 2631 009c 10C2     		.ascii	"\020\302"
 2632 009e 10C8     		.ascii	"\020\310"
 2633 00a0 10C4     		.ascii	"\020\304"
 2634 00a2 10C9     		.ascii	"\020\311"
 2635 00a4 10CA     		.ascii	"\020\312"
ARM GAS  C:\Users\86158\AppData\Local\Temp\cc1OFnJc.s 			page 73


 2636 00a6 10D1     		.ascii	"\020\321"
 2637 00a8 10CC     		.ascii	"\020\314"
 2638 00aa 10D8     		.ascii	"\020\330"
 2639 00ac 10D4     		.ascii	"\020\324"
 2640 00ae 10D9     		.ascii	"\020\331"
 2641 00b0 10DA     		.ascii	"\020\332"
 2642 00b2 10D6     		.ascii	"\020\326"
 2643 00b4 10E3     		.ascii	"\020\343"
 2644 00b6 10E9     		.ascii	"\020\351"
 2645 00b8 10E5     		.ascii	"\020\345"
 2646 00ba 10F1     		.ascii	"\020\361"
 2647 00bc 10EC     		.ascii	"\020\354"
 2648 00be 10F8     		.ascii	"\020\370"
 2649 00c0 10F4     		.ascii	"\020\364"
 2650 00c2 10F9     		.ascii	"\020\371"
 2651 00c4 10EF     		.ascii	"\020\357"
 2652 00c6 10FB     		.ascii	"\020\373"
 2653 00c8 10F7     		.ascii	"\020\367"
 2654 00ca 10FD     		.ascii	"\020\375"
 2655 00cc 10FE     		.ascii	"\020\376"
 2656 00ce 1104     		.ascii	"\021\004"
 2657 00d0 1109     		.ascii	"\021\011"
 2658 00d2 110A     		.ascii	"\021\012"
 2659 00d4 1111     		.ascii	"\021\021"
 2660 00d6 1112     		.ascii	"\021\022"
 2661 00d8 110D     		.ascii	"\021\015"
 2662 00da 110E     		.ascii	"\021\016"
 2663 00dc 1121     		.ascii	"\021!"
 2664 00de 1116     		.ascii	"\021\026"
 2665 00e0 111C     		.ascii	"\021\034"
 2666 00e2 1129     		.ascii	"\021)"
 2667 00e4 1125     		.ascii	"\021%"
 2668 00e6 1131     		.ascii	"\0211"
 2669 00e8 1132     		.ascii	"\0212"
 2670 00ea 112D     		.ascii	"\021-"
 2671 00ec 1134     		.ascii	"\0214"
 2672 00ee 113A     		.ascii	"\021:"
 2673 00f0 1136     		.ascii	"\0216"
 2674 00f2 113C     		.ascii	"\021<"
 2675 00f4 1137     		.ascii	"\0217"
 2676 00f6 113E     		.ascii	"\021>"
 2677 00f8 1140     		.ascii	"\021@"
 2678 00fa 113F     		.ascii	"\021?"
 2679 00fc 1142     		.ascii	"\021B"
 2680 00fe 1148     		.ascii	"\021H"
 2681 0100 1144     		.ascii	"\021D"
 2682 0102 1149     		.ascii	"\021I"
 2683 0104 1145     		.ascii	"\021E"
 2684 0106 114A     		.ascii	"\021J"
 2685 0108 1151     		.ascii	"\021Q"
 2686 010a 114C     		.ascii	"\021L"
 2687 010c 1158     		.ascii	"\021X"
 2688 010e 114D     		.ascii	"\021M"
 2689 0110 114E     		.ascii	"\021N"
 2690 0112 1161     		.ascii	"\021a"
 2691 0114 114F     		.ascii	"\021O"
 2692 0116 1156     		.ascii	"\021V"
ARM GAS  C:\Users\86158\AppData\Local\Temp\cc1OFnJc.s 			page 74


 2693 0118 115B     		.ascii	"\021["
 2694 011a 1157     		.ascii	"\021W"
 2695 011c 115D     		.ascii	"\021]"
 2696 011e 116A     		.ascii	"\021j"
 2697 0120 1171     		.ascii	"\021q"
 2698 0122 116B     		.ascii	"\021k"
 2699 0124 1167     		.ascii	"\021g"
 2700 0126 1173     		.ascii	"\021s"
 2701 0128 1179     		.ascii	"\021y"
 2702 012a 116E     		.ascii	"\021n"
 2703 012c 1175     		.ascii	"\021u"
 2704 012e 1176     		.ascii	"\021v"
 2705 0130 117C     		.ascii	"\021|"
 2706 0132 1177     		.ascii	"\021w"
 2707 0134 117D     		.ascii	"\021}"
 2708 0136 1181     		.ascii	"\021\201"
 2709 0138 1182     		.ascii	"\021\202"
 2710 013a 117F     		.ascii	"\021\177"
 2711 013c 1183     		.ascii	"\021\203"
 2712 013e 1184     		.ascii	"\021\204"
 2713 0140 1190     		.ascii	"\021\220"
 2714 0142 118A     		.ascii	"\021\212"
 2715 0144 1191     		.ascii	"\021\221"
 2716 0146 118C     		.ascii	"\021\214"
 2717 0148 11A0     		.ascii	"\021\240"
 2718 014a 1193     		.ascii	"\021\223"
 2719 014c 1199     		.ascii	"\021\231"
 2720 014e 119A     		.ascii	"\021\232"
 2721 0150 118F     		.ascii	"\021\217"
 2722 0152 119B     		.ascii	"\021\233"
 2723 0154 11A4     		.ascii	"\021\244"
 2724 0156 11A9     		.ascii	"\021\251"
 2725 0158 11A5     		.ascii	"\021\245"
 2726 015a 11B1     		.ascii	"\021\261"
 2727 015c 11B2     		.ascii	"\021\262"
 2728 015e 11A7     		.ascii	"\021\247"
 2729 0160 11B3     		.ascii	"\021\263"
 2730 0162 11AE     		.ascii	"\021\256"
 2731 0164 11BA     		.ascii	"\021\272"
 2732 0166 11AF     		.ascii	"\021\257"
 2733 0168 11BB     		.ascii	"\021\273"
 2734 016a 11BC     		.ascii	"\021\274"
 2735 016c 11B7     		.ascii	"\021\267"
 2736 016e 11BE     		.ascii	"\021\276"
 2737 0170 11C0     		.ascii	"\021\300"
 2738 0172 11BF     		.ascii	"\021\277"
 2739 0174 11C1     		.ascii	"\021\301"
 2740 0176 11C2     		.ascii	"\021\302"
 2741 0178 11C8     		.ascii	"\021\310"
 2742 017a 11C4     		.ascii	"\021\304"
 2743 017c 11D0     		.ascii	"\021\320"
 2744 017e 11CA     		.ascii	"\021\312"
 2745 0180 11D1     		.ascii	"\021\321"
 2746 0182 11CB     		.ascii	"\021\313"
 2747 0184 11D8     		.ascii	"\021\330"
 2748 0186 11E0     		.ascii	"\021\340"
 2749 0188 11D4     		.ascii	"\021\324"
ARM GAS  C:\Users\86158\AppData\Local\Temp\cc1OFnJc.s 			page 75


 2750 018a 11D9     		.ascii	"\021\331"
 2751 018c 11DA     		.ascii	"\021\332"
 2752 018e 11E2     		.ascii	"\021\342"
 2753 0190 11D6     		.ascii	"\021\326"
 2754 0192 11DC     		.ascii	"\021\334"
 2755 0194 11F0     		.ascii	"\021\360"
 2756 0196 11DD     		.ascii	"\021\335"
 2757 0198 11E5     		.ascii	"\021\345"
 2758 019a 11F1     		.ascii	"\021\361"
 2759 019c 11EB     		.ascii	"\021\353"
 2760 019e 11F8     		.ascii	"\021\370"
 2761 01a0 11E7     		.ascii	"\021\347"
 2762 01a2 11F4     		.ascii	"\021\364"
 2763 01a4 11EE     		.ascii	"\021\356"
 2764 01a6 11FA     		.ascii	"\021\372"
 2765 01a8 11F5     		.ascii	"\021\365"
 2766 01aa 11EF     		.ascii	"\021\357"
 2767 01ac 11FC     		.ascii	"\021\374"
 2768 01ae 1202     		.ascii	"\022\002"
 2769 01b0 1208     		.ascii	"\022\010"
 2770 01b2 1203     		.ascii	"\022\003"
 2771 01b4 1204     		.ascii	"\022\004"
 2772 01b6 1210     		.ascii	"\022\020"
 2773 01b8 120A     		.ascii	"\022\012"
 2774 01ba 1211     		.ascii	"\022\021"
 2775 01bc 1206     		.ascii	"\022\006"
 2776 01be 1212     		.ascii	"\022\022"
 2777 01c0 1207     		.ascii	"\022\007"
 2778 01c2 120D     		.ascii	"\022\015"
 2779 01c4 1219     		.ascii	"\022\031"
 2780 01c6 121A     		.ascii	"\022\032"
 2781 01c8 1215     		.ascii	"\022\025"
 2782 01ca 120F     		.ascii	"\022\017"
 2783 01cc 121C     		.ascii	"\022\034"
 2784 01ce 1223     		.ascii	"\022#"
 2785 01d0 1217     		.ascii	"\022\027"
 2786 01d2 122A     		.ascii	"\022*"
 2787 01d4 121E     		.ascii	"\022\036"
 2788 01d6 1226     		.ascii	"\022&"
 2789 01d8 121F     		.ascii	"\022\037"
 2790 01da 1227     		.ascii	"\022'"
 2791 01dc 1239     		.ascii	"\0229"
 2792 01de 122E     		.ascii	"\022."
 2793 01e0 123A     		.ascii	"\022:"
 2794 01e2 1235     		.ascii	"\0225"
 2795 01e4 123B     		.ascii	"\022;"
 2796 01e6 123C     		.ascii	"\022<"
 2797 01e8 1237     		.ascii	"\0227"
 2798 01ea 123D     		.ascii	"\022="
 2799 01ec 123E     		.ascii	"\022>"
 2800 01ee 1240     		.ascii	"\022@"
 2801 01f0 123F     		.ascii	"\022?"
 2802 01f2 123F     		.ascii	"\022?"
 2803 01f4 1241     		.ascii	"\022A"
 2804 01f6 1242     		.ascii	"\022B"
 2805 01f8 1248     		.ascii	"\022H"
 2806 01fa 1243     		.ascii	"\022C"
ARM GAS  C:\Users\86158\AppData\Local\Temp\cc1OFnJc.s 			page 76


 2807 01fc 1249     		.ascii	"\022I"
 2808 01fe 124A     		.ascii	"\022J"
 2809 0200 1245     		.ascii	"\022E"
 2810 0202 1246     		.ascii	"\022F"
 2811 0204 124C     		.ascii	"\022L"
 2812 0206 1247     		.ascii	"\022G"
 2813 0208 1253     		.ascii	"\022S"
 2814 020a 1261     		.ascii	"\022a"
 2815 020c 125A     		.ascii	"\022Z"
 2816 020e 1268     		.ascii	"\022h"
 2817 0210 1256     		.ascii	"\022V"
 2818 0212 1263     		.ascii	"\022c"
 2819 0214 1257     		.ascii	"\022W"
 2820 0216 126A     		.ascii	"\022j"
 2821 0218 125E     		.ascii	"\022^"
 2822 021a 1278     		.ascii	"\022x"
 2823 021c 125F     		.ascii	"\022_"
 2824 021e 1273     		.ascii	"\022s"
 2825 0220 126D     		.ascii	"\022m"
 2826 0222 126E     		.ascii	"\022n"
 2827 0224 1275     		.ascii	"\022u"
 2828 0226 127B     		.ascii	"\022{"
 2829 0228 127C     		.ascii	"\022|"
 2830 022a 1277     		.ascii	"\022w"
 2831 022c 127D     		.ascii	"\022}"
 2832 022e 127E     		.ascii	"\022~"
 2833 0230 1281     		.ascii	"\022\201"
 2834 0232 127F     		.ascii	"\022\177"
 2835 0234 1288     		.ascii	"\022\210"
 2836 0236 1284     		.ascii	"\022\204"
 2837 0238 1290     		.ascii	"\022\220"
 2838 023a 128A     		.ascii	"\022\212"
 2839 023c 1285     		.ascii	"\022\205"
 2840 023e 1286     		.ascii	"\022\206"
 2841 0240 128B     		.ascii	"\022\213"
 2842 0242 128C     		.ascii	"\022\214"
 2843 0244 1287     		.ascii	"\022\207"
 2844 0246 1293     		.ascii	"\022\223"
 2845 0248 1299     		.ascii	"\022\231"
 2846 024a 12A1     		.ascii	"\022\241"
 2847 024c 129A     		.ascii	"\022\232"
 2848 024e 1295     		.ascii	"\022\225"
 2849 0250 128F     		.ascii	"\022\217"
 2850 0252 1296     		.ascii	"\022\226"
 2851 0254 12A3     		.ascii	"\022\243"
 2852 0256 12A9     		.ascii	"\022\251"
 2853 0258 1297     		.ascii	"\022\227"
 2854 025a 12AA     		.ascii	"\022\252"
 2855 025c 12A5     		.ascii	"\022\245"
 2856 025e 129E     		.ascii	"\022\236"
 2857 0260 12B8     		.ascii	"\022\270"
 2858 0262 12AC     		.ascii	"\022\254"
 2859 0264 129F     		.ascii	"\022\237"
 2860 0266 12B3     		.ascii	"\022\263"
 2861 0268 12AD     		.ascii	"\022\255"
 2862 026a 12BA     		.ascii	"\022\272"
 2863 026c 12AE     		.ascii	"\022\256"
ARM GAS  C:\Users\86158\AppData\Local\Temp\cc1OFnJc.s 			page 77


 2864 026e 12B5     		.ascii	"\022\265"
 2865 0270 12AF     		.ascii	"\022\257"
 2866 0272 12BC     		.ascii	"\022\274"
 2867 0274 12BC     		.ascii	"\022\274"
 2868 0276 12B7     		.ascii	"\022\267"
 2869 0278 12B7     		.ascii	"\022\267"
 2870 027a 12BD     		.ascii	"\022\275"
 2871 027c 12BE     		.ascii	"\022\276"
 2872 027e 12C0     		.ascii	"\022\300"
 2873 0280 12BF     		.ascii	"\022\277"
 2874 0282 12BF     		.ascii	"\022\277"
 2875 0284 12C1     		.ascii	"\022\301"
 2876 0286 12C1     		.ascii	"\022\301"
 2877 0288 12C2     		.ascii	"\022\302"
 2878 028a 12C8     		.ascii	"\022\310"
 2879 028c 12C3     		.ascii	"\022\303"
 2880 028e 12C3     		.ascii	"\022\303"
 2881 0290 12C9     		.ascii	"\022\311"
 2882 0292 12CA     		.ascii	"\022\312"
 2883 0294 12CA     		.ascii	"\022\312"
 2884 0296 12D1     		.ascii	"\022\321"
 2885 0298 12C6     		.ascii	"\022\306"
 2886 029a 12D8     		.ascii	"\022\330"
 2887 029c 12E0     		.ascii	"\022\340"
 2888 029e 12C7     		.ascii	"\022\307"
 2889 02a0 12D4     		.ascii	"\022\324"
 2890 02a2 12E1     		.ascii	"\022\341"
 2891 02a4 12DA     		.ascii	"\022\332"
 2892 02a6 12E8     		.ascii	"\022\350"
 2893 02a8 12CF     		.ascii	"\022\317"
 2894 02aa 12D6     		.ascii	"\022\326"
 2895 02ac 12E4     		.ascii	"\022\344"
 2896 02ae 12D7     		.ascii	"\022\327"
 2897 02b0 12EA     		.ascii	"\022\352"
 2898 02b2 12F1     		.ascii	"\022\361"
 2899 02b4 12DE     		.ascii	"\022\336"
 2900 02b6 12EB     		.ascii	"\022\353"
 2901 02b8 12EC     		.ascii	"\022\354"
 2902 02ba 12DF     		.ascii	"\022\337"
 2903 02bc 12F9     		.ascii	"\022\371"
 2904 02be 12F4     		.ascii	"\022\364"
 2905 02c0 12EE     		.ascii	"\022\356"
 2906 02c2 12F5     		.ascii	"\022\365"
 2907 02c4 12FB     		.ascii	"\022\373"
 2908 02c6 12FC     		.ascii	"\022\374"
 2909 02c8 1301     		.ascii	"\023\001"
 2910 02ca 1301     		.ascii	"\023\001"
 2911 02cc 12FD     		.ascii	"\022\375"
 2912 02ce 1308     		.ascii	"\023\010"
 2913 02d0 12FE     		.ascii	"\022\376"
 2914 02d2 1303     		.ascii	"\023\003"
 2915 02d4 1310     		.ascii	"\023\020"
 2916 02d6 12FF     		.ascii	"\022\377"
 2917 02d8 130A     		.ascii	"\023\012"
 2918 02da 1311     		.ascii	"\023\021"
 2919 02dc 1306     		.ascii	"\023\006"
 2920 02de 130C     		.ascii	"\023\014"
ARM GAS  C:\Users\86158\AppData\Local\Temp\cc1OFnJc.s 			page 78


 2921 02e0 1320     		.ascii	"\023 "
 2922 02e2 1307     		.ascii	"\023\007"
 2923 02e4 130D     		.ascii	"\023\015"
 2924 02e6 131A     		.ascii	"\023\032"
 2925 02e8 1322     		.ascii	"\023\""
 2926 02ea 1315     		.ascii	"\023\025"
 2927 02ec 131B     		.ascii	"\023\033"
 2928 02ee 1323     		.ascii	"\023#"
 2929 02f0 1324     		.ascii	"\023$"
 2930 02f2 132A     		.ascii	"\023*"
 2931 02f4 1331     		.ascii	"\0231"
 2932 02f6 131E     		.ascii	"\023\036"
 2933 02f8 1326     		.ascii	"\023&"
 2934 02fa 132C     		.ascii	"\023,"
 2935 02fc 131F     		.ascii	"\023\037"
 2936 02fe 1334     		.ascii	"\0234"
 2937 0300 133A     		.ascii	"\023:"
 2938 0302 132E     		.ascii	"\023."
 2939 0304 1335     		.ascii	"\0235"
 2940 0306 133B     		.ascii	"\023;"
 2941 0308 132F     		.ascii	"\023/"
 2942 030a 132F     		.ascii	"\023/"
 2943 030c 1337     		.ascii	"\0237"
 2944 030e 133D     		.ascii	"\023="
 2945 0310 133E     		.ascii	"\023>"
 2946 0312 133E     		.ascii	"\023>"
 2947 0314 1340     		.ascii	"\023@"
 2948 0316 133F     		.ascii	"\023?"
 2949 0318 133F     		.ascii	"\023?"
 2950 031a 1341     		.ascii	"\023A"
 2951 031c 1342     		.ascii	"\023B"
 2952 031e 1348     		.ascii	"\023H"
 2953 0320 1348     		.ascii	"\023H"
 2954 0322 1350     		.ascii	"\023P"
 2955 0324 1344     		.ascii	"\023D"
 2956 0326 134A     		.ascii	"\023J"
 2957 0328 1351     		.ascii	"\023Q"
 2958 032a 1346     		.ascii	"\023F"
 2959 032c 1352     		.ascii	"\023R"
 2960 032e 1360     		.ascii	"\023`"
 2961 0330 1347     		.ascii	"\023G"
 2962 0332 1361     		.ascii	"\023a"
 2963 0334 135A     		.ascii	"\023Z"
 2964 0336 1362     		.ascii	"\023b"
 2965 0338 1355     		.ascii	"\023U"
 2966 033a 1356     		.ascii	"\023V"
 2967 033c 1369     		.ascii	"\023i"
 2968 033e 136A     		.ascii	"\023j"
 2969 0340 135D     		.ascii	"\023]"
 2970 0342 1365     		.ascii	"\023e"
 2971 0344 136B     		.ascii	"\023k"
 2972 0346 136C     		.ascii	"\023l"
 2973 0348 135F     		.ascii	"\023_"
 2974 034a 1367     		.ascii	"\023g"
 2975 034c 137A     		.ascii	"\023z"
 2976 034e 136E     		.ascii	"\023n"
 2977 0350 1375     		.ascii	"\023u"
ARM GAS  C:\Users\86158\AppData\Local\Temp\cc1OFnJc.s 			page 79


 2978 0352 137C     		.ascii	"\023|"
 2979 0354 136F     		.ascii	"\023o"
 2980 0356 1380     		.ascii	"\023\200"
 2981 0358 137D     		.ascii	"\023}"
 2982 035a 137D     		.ascii	"\023}"
 2983 035c 1381     		.ascii	"\023\201"
 2984 035e 1381     		.ascii	"\023\201"
 2985 0360 1388     		.ascii	"\023\210"
 2986 0362 1388     		.ascii	"\023\210"
 2987 0364 1383     		.ascii	"\023\203"
 2988 0366 1389     		.ascii	"\023\211"
 2989 0368 138A     		.ascii	"\023\212"
 2990 036a 1391     		.ascii	"\023\221"
 2991 036c 1385     		.ascii	"\023\205"
 2992 036e 1398     		.ascii	"\023\230"
 2993 0370 13A0     		.ascii	"\023\240"
 2994 0372 1393     		.ascii	"\023\223"
 2995 0374 138D     		.ascii	"\023\215"
 2996 0376 138E     		.ascii	"\023\216"
 2997 0378 13A8     		.ascii	"\023\250"
 2998 037a 139B     		.ascii	"\023\233"
 2999 037c 139C     		.ascii	"\023\234"
 3000 037e 13A4     		.ascii	"\023\244"
 3001 0380 13AA     		.ascii	"\023\252"
 3002 0382 13A5     		.ascii	"\023\245"
 3003 0384 139E     		.ascii	"\023\236"
 3004 0386 13AC     		.ascii	"\023\254"
 3005 0388 13B9     		.ascii	"\023\271"
 3006 038a 13B4     		.ascii	"\023\264"
 3007 038c 13BA     		.ascii	"\023\272"
 3008 038e 13AE     		.ascii	"\023\256"
 3009 0390 13B5     		.ascii	"\023\265"
 3010 0392 13BB     		.ascii	"\023\273"
 3011 0394 13AF     		.ascii	"\023\257"
 3012 0396 13B7     		.ascii	"\023\267"
 3013 0398 13BD     		.ascii	"\023\275"
 3014 039a 13BE     		.ascii	"\023\276"
 3015 039c 13C0     		.ascii	"\023\300"
 3016 039e 13C0     		.ascii	"\023\300"
 3017 03a0 13BF     		.ascii	"\023\277"
 3018 03a2 13C1     		.ascii	"\023\301"
 3019 03a4 13C8     		.ascii	"\023\310"
 3020 03a6 13C2     		.ascii	"\023\302"
 3021 03a8 13D0     		.ascii	"\023\320"
 3022 03aa 13C9     		.ascii	"\023\311"
 3023 03ac 13CA     		.ascii	"\023\312"
 3024 03ae 13D1     		.ascii	"\023\321"
 3025 03b0 13D8     		.ascii	"\023\330"
 3026 03b2 13CB     		.ascii	"\023\313"
 3027 03b4 13CC     		.ascii	"\023\314"
 3028 03b6 13C7     		.ascii	"\023\307"
 3029 03b8 13D4     		.ascii	"\023\324"
 3030 03ba 13E8     		.ascii	"\023\350"
 3031 03bc 13D5     		.ascii	"\023\325"
 3032 03be 13F0     		.ascii	"\023\360"
 3033 03c0 13E4     		.ascii	"\023\344"
 3034 03c2 13EA     		.ascii	"\023\352"
ARM GAS  C:\Users\86158\AppData\Local\Temp\cc1OFnJc.s 			page 80


 3035 03c4 13DD     		.ascii	"\023\335"
 3036 03c6 13F2     		.ascii	"\023\362"
 3037 03c8 13EC     		.ascii	"\023\354"
 3038 03ca 13F9     		.ascii	"\023\371"
 3039 03cc 13F4     		.ascii	"\023\364"
 3040 03ce 13FA     		.ascii	"\023\372"
 3041 03d0 13EE     		.ascii	"\023\356"
 3042 03d2 13F5     		.ascii	"\023\365"
 3043 03d4 1409     		.ascii	"\024\011"
 3044 03d6 140A     		.ascii	"\024\012"
 3045 03d8 13F7     		.ascii	"\023\367"
 3046 03da 1405     		.ascii	"\024\005"
 3047 03dc 1420     		.ascii	"\024 "
 3048 03de 140C     		.ascii	"\024\014"
 3049 03e0 1413     		.ascii	"\024\023"
 3050 03e2 140D     		.ascii	"\024\015"
 3051 03e4 1422     		.ascii	"\024\""
 3052 03e6 1415     		.ascii	"\024\025"
 3053 03e8 1430     		.ascii	"\0240"
 3054 03ea 1424     		.ascii	"\024$"
 3055 03ec 1431     		.ascii	"\0241"
 3056 03ee 141D     		.ascii	"\024\035"
 3057 03f0 1432     		.ascii	"\0242"
 3058 03f2 142C     		.ascii	"\024,"
 3059 03f4 1439     		.ascii	"\0249"
 3060 03f6 143A     		.ascii	"\024:"
 3061 03f8 142E     		.ascii	"\024."
 3062 03fa 1435     		.ascii	"\0245"
 3063 03fc 143B     		.ascii	"\024;"
 3064 03fe 142F     		.ascii	"\024/"
 3065 0400 143D     		.ascii	"\024="
 3066 0402 143D     		.ascii	"\024="
 3067 0404 143E     		.ascii	"\024>"
 3068 0406 143E     		.ascii	"\024>"
 3069 0408 1440     		.ascii	"\024@"
 3070 040a 143F     		.ascii	"\024?"
 3071 040c 1441     		.ascii	"\024A"
 3072 040e 1448     		.ascii	"\024H"
 3073 0410 1448     		.ascii	"\024H"
 3074 0412 1450     		.ascii	"\024P"
 3075 0414 1449     		.ascii	"\024I"
 3076 0416 144A     		.ascii	"\024J"
 3077 0418 1451     		.ascii	"\024Q"
 3078 041a 1460     		.ascii	"\024`"
 3079 041c 1446     		.ascii	"\024F"
 3080 041e 1459     		.ascii	"\024Y"
 3081 0420 1447     		.ascii	"\024G"
 3082 0422 1462     		.ascii	"\024b"
 3083 0424 1455     		.ascii	"\024U"
 3084 0426 1470     		.ascii	"\024p"
 3085 0428 1464     		.ascii	"\024d"
 3086 042a 146A     		.ascii	"\024j"
 3087 042c 1478     		.ascii	"\024x"
 3088 042e 145E     		.ascii	"\024^"
 3089 0430 1466     		.ascii	"\024f"
 3090 0432 145F     		.ascii	"\024_"
 3091 0434 147A     		.ascii	"\024z"
ARM GAS  C:\Users\86158\AppData\Local\Temp\cc1OFnJc.s 			page 81


 3092 0436 146E     		.ascii	"\024n"
 3093 0438 147B     		.ascii	"\024{"
 3094 043a 1476     		.ascii	"\024v"
 3095 043c 146F     		.ascii	"\024o"
 3096 043e 147D     		.ascii	"\024}"
 3097 0440 147E     		.ascii	"\024~"
 3098 0442 1481     		.ascii	"\024\201"
 3099 0444 147F     		.ascii	"\024\177"
 3100 0446 1482     		.ascii	"\024\202"
 3101 0448 1490     		.ascii	"\024\220"
 3102 044a 1489     		.ascii	"\024\211"
 3103 044c 148A     		.ascii	"\024\212"
 3104 044e 1491     		.ascii	"\024\221"
 3105 0450 14A0     		.ascii	"\024\240"
 3106 0452 148C     		.ascii	"\024\214"
 3107 0454 1499     		.ascii	"\024\231"
 3108 0456 1487     		.ascii	"\024\207"
 3109 0458 14A8     		.ascii	"\024\250"
 3110 045a 1495     		.ascii	"\024\225"
 3111 045c 14A9     		.ascii	"\024\251"
 3112 045e 14AA     		.ascii	"\024\252"
 3113 0460 14B1     		.ascii	"\024\261"
 3114 0462 14A5     		.ascii	"\024\245"
 3115 0464 14AC     		.ascii	"\024\254"
 3116 0466 14B9     		.ascii	"\024\271"
 3117 0468 14BA     		.ascii	"\024\272"
 3118 046a 14AE     		.ascii	"\024\256"
 3119 046c 14B5     		.ascii	"\024\265"
 3120 046e 14B6     		.ascii	"\024\266"
 3121 0470 14AF     		.ascii	"\024\257"
 3122 0472 14BD     		.ascii	"\024\275"
 3123 0474 14B7     		.ascii	"\024\267"
 3124 0476 14C0     		.ascii	"\024\300"
 3125 0478 14BF     		.ascii	"\024\277"
 3126 047a 14C1     		.ascii	"\024\301"
 3127 047c 14C8     		.ascii	"\024\310"
 3128 047e 14C2     		.ascii	"\024\302"
 3129 0480 14D0     		.ascii	"\024\320"
 3130 0482 14C9     		.ascii	"\024\311"
 3131 0484 14CA     		.ascii	"\024\312"
 3132 0486 14D8     		.ascii	"\024\330"
 3133 0488 14CB     		.ascii	"\024\313"
 3134 048a 14CC     		.ascii	"\024\314"
 3135 048c 14E1     		.ascii	"\024\341"
 3136 048e 14DA     		.ascii	"\024\332"
 3137 0490 14CE     		.ascii	"\024\316"
 3138 0492 14DB     		.ascii	"\024\333"
 3139 0494 14E4     		.ascii	"\024\344"
 3140 0496 14F1     		.ascii	"\024\361"
 3141 0498 14F2     		.ascii	"\024\362"
 3142 049a 14EC     		.ascii	"\024\354"
 3143 049c 14F9     		.ascii	"\024\371"
 3144 049e 14ED     		.ascii	"\024\355"
 3145 04a0 14EE     		.ascii	"\024\356"
 3146 04a2 14FB     		.ascii	"\024\373"
 3147 04a4 14FC     		.ascii	"\024\374"
 3148 04a6 14EF     		.ascii	"\024\357"
ARM GAS  C:\Users\86158\AppData\Local\Temp\cc1OFnJc.s 			page 82


 3149 04a8 1501     		.ascii	"\025\001"
 3150 04aa 14FE     		.ascii	"\024\376"
 3151 04ac 1508     		.ascii	"\025\010"
 3152 04ae 1510     		.ascii	"\025\020"
 3153 04b0 1504     		.ascii	"\025\004"
 3154 04b2 1511     		.ascii	"\025\021"
 3155 04b4 1520     		.ascii	"\025 "
 3156 04b6 150C     		.ascii	"\025\014"
 3157 04b8 1521     		.ascii	"\025!"
 3158 04ba 151A     		.ascii	"\025\032"
 3159 04bc 150E     		.ascii	"\025\016"
 3160 04be 151B     		.ascii	"\025\033"
 3161 04c0 1524     		.ascii	"\025$"
 3162 04c2 1531     		.ascii	"\0251"
 3163 04c4 1517     		.ascii	"\025\027"
 3164 04c6 152C     		.ascii	"\025,"
 3165 04c8 1539     		.ascii	"\0259"
 3166 04ca 151F     		.ascii	"\025\037"
 3167 04cc 1527     		.ascii	"\025'"
 3168 04ce 153B     		.ascii	"\025;"
 3169 04d0 1536     		.ascii	"\0256"
 3170 04d2 153D     		.ascii	"\025="
 3171 04d4 1537     		.ascii	"\0257"
 3172 04d6 153E     		.ascii	"\025>"
 3173 04d8 1540     		.ascii	"\025@"
 3174 04da 153F     		.ascii	"\025?"
 3175 04dc 1541     		.ascii	"\025A"
 3176 04de 1542     		.ascii	"\025B"
 3177 04e0 1550     		.ascii	"\025P"
 3178 04e2 1549     		.ascii	"\025I"
 3179 04e4 154A     		.ascii	"\025J"
 3180 04e6 1558     		.ascii	"\025X"
 3181 04e8 154C     		.ascii	"\025L"
 3182 04ea 1559     		.ascii	"\025Y"
 3183 04ec 1568     		.ascii	"\025h"
 3184 04ee 154E     		.ascii	"\025N"
 3185 04f0 155B     		.ascii	"\025["
 3186 04f2 154F     		.ascii	"\025O"
 3187 04f4 1571     		.ascii	"\025q"
 3188 04f6 1572     		.ascii	"\025r"
 3189 04f8 156C     		.ascii	"\025l"
 3190 04fa 1573     		.ascii	"\025s"
 3191 04fc 1567     		.ascii	"\025g"
 3192 04fe 156E     		.ascii	"\025n"
 3193 0500 1576     		.ascii	"\025v"
 3194 0502 156F     		.ascii	"\025o"
 3195 0504 157D     		.ascii	"\025}"
 3196 0506 157E     		.ascii	"\025~"
 3197 0508 1581     		.ascii	"\025\201"
 3198 050a 1582     		.ascii	"\025\202"
 3199 050c 1590     		.ascii	"\025\220"
 3200 050e 1584     		.ascii	"\025\204"
 3201 0510 1591     		.ascii	"\025\221"
 3202 0512 15A0     		.ascii	"\025\240"
 3203 0514 1586     		.ascii	"\025\206"
 3204 0516 1593     		.ascii	"\025\223"
 3205 0518 159A     		.ascii	"\025\232"
ARM GAS  C:\Users\86158\AppData\Local\Temp\cc1OFnJc.s 			page 83


 3206 051a 15B0     		.ascii	"\025\260"
 3207 051c 15A3     		.ascii	"\025\243"
 3208 051e 15B1     		.ascii	"\025\261"
 3209 0520 1597     		.ascii	"\025\227"
 3210 0522 15AC     		.ascii	"\025\254"
 3211 0524 15B3     		.ascii	"\025\263"
 3212 0526 15AD     		.ascii	"\025\255"
 3213 0528 15AE     		.ascii	"\025\256"
 3214 052a 15BC     		.ascii	"\025\274"
 3215 052c 15AF     		.ascii	"\025\257"
 3216 052e 15BD     		.ascii	"\025\275"
 3217 0530 15BE     		.ascii	"\025\276"
 3218 0532 15C0     		.ascii	"\025\300"
 3219 0534 15BF     		.ascii	"\025\277"
 3220 0536 15C1     		.ascii	"\025\301"
 3221 0538 15C2     		.ascii	"\025\302"
 3222 053a 15C9     		.ascii	"\025\311"
 3223 053c 15C4     		.ascii	"\025\304"
 3224 053e 15D8     		.ascii	"\025\330"
 3225 0540 15CB     		.ascii	"\025\313"
 3226 0542 15D9     		.ascii	"\025\331"
 3227 0544 15E8     		.ascii	"\025\350"
 3228 0546 15CE     		.ascii	"\025\316"
 3229 0548 15E9     		.ascii	"\025\351"
 3230 054a 15EA     		.ascii	"\025\352"
 3231 054c 15DD     		.ascii	"\025\335"
 3232 054e 15EC     		.ascii	"\025\354"
 3233 0550 15F3     		.ascii	"\025\363"
 3234 0552 15ED     		.ascii	"\025\355"
 3235 0554 15F5     		.ascii	"\025\365"
 3236 0556 15F6     		.ascii	"\025\366"
 3237 0558 15EF     		.ascii	"\025\357"
 3238 055a 15F7     		.ascii	"\025\367"
 3239 055c 1604     		.ascii	"\026\004"
 3240 055e 1618     		.ascii	"\026\030"
 3241 0560 160C     		.ascii	"\026\014"
 3242 0562 1621     		.ascii	"\026!"
 3243 0564 160D     		.ascii	"\026\015"
 3244 0566 1630     		.ascii	"\0260"
 3245 0568 1623     		.ascii	"\026#"
 3246 056a 160F     		.ascii	"\026\017"
 3247 056c 1617     		.ascii	"\026\027"
 3248 056e 1626     		.ascii	"\026&"
 3249 0570 1633     		.ascii	"\0263"
 3250 0572 1627     		.ascii	"\026'"
 3251 0574 163B     		.ascii	"\026;"
 3252 0576 1636     		.ascii	"\0266"
 3253 0578 163D     		.ascii	"\026="
 3254 057a 1637     		.ascii	"\0267"
 3255 057c 1640     		.ascii	"\026@"
 3256 057e 163F     		.ascii	"\026?"
 3257 0580 1641     		.ascii	"\026A"
 3258 0582 1642     		.ascii	"\026B"
 3259 0584 1650     		.ascii	"\026P"
 3260 0586 1644     		.ascii	"\026D"
 3261 0588 1651     		.ascii	"\026Q"
 3262 058a 1645     		.ascii	"\026E"
ARM GAS  C:\Users\86158\AppData\Local\Temp\cc1OFnJc.s 			page 84


 3263 058c 1659     		.ascii	"\026Y"
 3264 058e 1668     		.ascii	"\026h"
 3265 0590 164E     		.ascii	"\026N"
 3266 0592 165C     		.ascii	"\026\\"
 3267 0594 1678     		.ascii	"\026x"
 3268 0596 1672     		.ascii	"\026r"
 3269 0598 1679     		.ascii	"\026y"
 3270 059a 167A     		.ascii	"\026z"
 3271 059c 166E     		.ascii	"\026n"
 3272 059e 167C     		.ascii	"\026|"
 3273 05a0 166F     		.ascii	"\026o"
 3274 05a2 1680     		.ascii	"\026\200"
 3275 05a4 167E     		.ascii	"\026~"
 3276 05a6 167F     		.ascii	"\026\177"
 3277 05a8 1690     		.ascii	"\026\220"
 3278 05aa 1683     		.ascii	"\026\203"
 3279 05ac 1691     		.ascii	"\026\221"
 3280 05ae 1685     		.ascii	"\026\205"
 3281 05b0 1686     		.ascii	"\026\206"
 3282 05b2 1694     		.ascii	"\026\224"
 3283 05b4 1687     		.ascii	"\026\207"
 3284 05b6 169B     		.ascii	"\026\233"
 3285 05b8 16AA     		.ascii	"\026\252"
 3286 05ba 169D     		.ascii	"\026\235"
 3287 05bc 16B9     		.ascii	"\026\271"
 3288 05be 16B4     		.ascii	"\026\264"
 3289 05c0 16A7     		.ascii	"\026\247"
 3290 05c2 16BB     		.ascii	"\026\273"
 3291 05c4 16AF     		.ascii	"\026\257"
 3292 05c6 16BD     		.ascii	"\026\275"
 3293 05c8 16C0     		.ascii	"\026\300"
 3294 05ca 16BF     		.ascii	"\026\277"
 3295 05cc 16C1     		.ascii	"\026\301"
 3296 05ce 16C2     		.ascii	"\026\302"
 3297 05d0 16C9     		.ascii	"\026\311"
 3298 05d2 16C4     		.ascii	"\026\304"
 3299 05d4 16E0     		.ascii	"\026\340"
 3300 05d6 16CC     		.ascii	"\026\314"
 3301 05d8 16D3     		.ascii	"\026\323"
 3302 05da 16CE     		.ascii	"\026\316"
 3303 05dc 16E9     		.ascii	"\026\351"
 3304 05de 16CF     		.ascii	"\026\317"
 3305 05e0 16F2     		.ascii	"\026\362"
 3306 05e2 16E6     		.ascii	"\026\346"
 3307 05e4 16FA     		.ascii	"\026\372"
 3308 05e6 16EE     		.ascii	"\026\356"
 3309 05e8 1700     		.ascii	"\027\000"
 3310 05ea 1701     		.ascii	"\027\001"
 3311 05ec 1702     		.ascii	"\027\002"
 3312 05ee 1710     		.ascii	"\027\020"
 3313 05f0 1704     		.ascii	"\027\004"
 3314 05f2 1718     		.ascii	"\027\030"
 3315 05f4 170C     		.ascii	"\027\014"
 3316 05f6 1713     		.ascii	"\027\023"
 3317 05f8 1707     		.ascii	"\027\007"
 3318 05fa 171C     		.ascii	"\027\034"
 3319 05fc 170F     		.ascii	"\027\017"
ARM GAS  C:\Users\86158\AppData\Local\Temp\cc1OFnJc.s 			page 85


 3320 05fe 1717     		.ascii	"\027\027"
 3321 0600 1726     		.ascii	"\027&"
 3322 0602 172D     		.ascii	"\027-"
 3323 0604 173B     		.ascii	"\027;"
 3324 0606 1736     		.ascii	"\0276"
 3325 0608 173D     		.ascii	"\027="
 3326 060a 173E     		.ascii	"\027>"
 3327 060c 173F     		.ascii	"\027?"
 3328 060e 1741     		.ascii	"\027A"
 3329 0610 1742     		.ascii	"\027B"
 3330 0612 1750     		.ascii	"\027P"
 3331 0614 174A     		.ascii	"\027J"
 3332 0616 1752     		.ascii	"\027R"
 3333 0618 1746     		.ascii	"\027F"
 3334 061a 1754     		.ascii	"\027T"
 3335 061c 174E     		.ascii	"\027N"
 3336 061e 175C     		.ascii	"\027\\"
 3337 0620 175D     		.ascii	"\027]"
 3338 0622 175E     		.ascii	"\027^"
 3339 0624 1774     		.ascii	"\027t"
 3340 0626 1767     		.ascii	"\027g"
 3341 0628 177C     		.ascii	"\027|"
 3342 062a 176F     		.ascii	"\027o"
 3343 062c 177E     		.ascii	"\027~"
 3344 062e 1788     		.ascii	"\027\210"
 3345 0630 1782     		.ascii	"\027\202"
 3346 0632 1783     		.ascii	"\027\203"
 3347 0634 178A     		.ascii	"\027\212"
 3348 0636 178B     		.ascii	"\027\213"
 3349 0638 17A1     		.ascii	"\027\241"
 3350 063a 1787     		.ascii	"\027\207"
 3351 063c 179C     		.ascii	"\027\234"
 3352 063e 17B8     		.ascii	"\027\270"
 3353 0640 17A5     		.ascii	"\027\245"
 3354 0642 17B3     		.ascii	"\027\263"
 3355 0644 17A7     		.ascii	"\027\247"
 3356 0646 17BC     		.ascii	"\027\274"
 3357 0648 17AF     		.ascii	"\027\257"
 3358 064a 17B7     		.ascii	"\027\267"
 3359 064c 17C0     		.ascii	"\027\300"
 3360 064e 17C1     		.ascii	"\027\301"
 3361 0650 17C2     		.ascii	"\027\302"
 3362 0652 17C9     		.ascii	"\027\311"
 3363 0654 17CA     		.ascii	"\027\312"
 3364 0656 17D2     		.ascii	"\027\322"
 3365 0658 17C6     		.ascii	"\027\306"
 3366 065a 17E2     		.ascii	"\027\342"
 3367 065c 17E9     		.ascii	"\027\351"
 3368 065e 17F8     		.ascii	"\027\370"
 3369 0660 17EB     		.ascii	"\027\353"
 3370 0662 17F3     		.ascii	"\027\363"
 3371 0664 17E7     		.ascii	"\027\347"
 3372 0666 17FC     		.ascii	"\027\374"
 3373 0668 17EF     		.ascii	"\027\357"
 3374 066a 17FE     		.ascii	"\027\376"
 3375 066c 17FF     		.ascii	"\027\377"
 3376              		.section	.data.g_otpBuffer,"aw"
ARM GAS  C:\Users\86158\AppData\Local\Temp\cc1OFnJc.s 			page 86


 3377              		.align	2
 3380              	g_otpBuffer:
 3381 0000 FF00     		.ascii	"\377\000"
 3382 0002 00000000 		.space	1022
 3382      00000000 
 3382      00000000 
 3382      00000000 
 3382      00000000 
 3383              		.text
 3384              	.Letext0:
 3385              		.file 2 "e:\\stm32-gcc\\gcc-arm-none-eabi-10.3-2021.10\\arm-none-eabi\\include\\machine\\_default_
 3386              		.file 3 "e:\\stm32-gcc\\gcc-arm-none-eabi-10.3-2021.10\\arm-none-eabi\\include\\sys\\_stdint.h"
 3387              		.file 4 "Core/Inc/main.h"
 3388              		.file 5 "Drivers/User_Driver/Inc/soft_i2c.h"
 3389              		.file 6 "Drivers/User_Driver/Inc/rtc_i2c.h"
 3390              		.file 7 "Device/Inc/drv_wave1006.h"
 3391              		.file 8 "Drivers/STM32F4xx_HAL_Driver/Inc/stm32f4xx_hal.h"
 3392              		.file 9 "Device/Inc/rtc.h"
ARM GAS  C:\Users\86158\AppData\Local\Temp\cc1OFnJc.s 			page 87

