ARM GAS  C:\Users\86158\AppData\Local\Temp\cck4kAYW.s 			page 1


   1              		.cpu cortex-m4
   2              		.arch armv7e-m
   3              		.fpu fpv4-sp-d16
   4              		.eabi_attribute 27, 1
   5              		.eabi_attribute 28, 1
   6              		.eabi_attribute 20, 1
   7              		.eabi_attribute 21, 1
   8              		.eabi_attribute 23, 3
   9              		.eabi_attribute 24, 1
  10              		.eabi_attribute 25, 1
  11              		.eabi_attribute 26, 1
  12              		.eabi_attribute 30, 1
  13              		.eabi_attribute 34, 1
  14              		.eabi_attribute 18, 4
  15              		.file	"task.c"
  16              		.text
  17              	.Ltext0:
  18              		.cfi_sections	.debug_frame
  19              		.section	.text.system_time_update,"ax",%progbits
  20              		.align	1
  21              		.global	system_time_update
  22              		.syntax unified
  23              		.thumb
  24              		.thumb_func
  26              	system_time_update:
  27              	.LFB235:
  28              		.file 1 "App/Src/task.c"
   1:App/Src/task.c **** #include "main.h"
   2:App/Src/task.c **** #include "task.h"
   3:App/Src/task.c **** #include "manager.h"
   4:App/Src/task.c **** #include "rtc.h"
   5:App/Src/task.c **** #include "temp.h"
   6:App/Src/task.c **** #include "math.h"
   7:App/Src/task.c **** #include "power.h"
   8:App/Src/task.c **** #include "current.h"
   9:App/Src/task.c **** #include "flash.h"
  10:App/Src/task.c **** #include "calculate.h"
  11:App/Src/task.c **** #include "drv_wave1006.h"
  12:App/Src/task.c **** 
  13:App/Src/task.c **** RealTime g_realTime = {0};
  14:App/Src/task.c **** FrequencyData g_lastFreq = {0};
  15:App/Src/task.c **** extern CapAdjust g_capAdjust;
  16:App/Src/task.c **** TestResult g_machineTest = {0};
  17:App/Src/task.c **** uint8_t g_intState = 0;
  18:App/Src/task.c **** uint8_t g_intStart = 0;
  19:App/Src/task.c **** uint8_t g_intEnd = 0;
  20:App/Src/task.c **** void Aecq100Sample(void);
  21:App/Src/task.c **** 
  22:App/Src/task.c **** void command_int_test(uint8_t init);
  23:App/Src/task.c **** 
  24:App/Src/task.c **** 
  25:App/Src/task.c **** void system_time_update(void)
  26:App/Src/task.c **** {
  29              		.loc 1 26 1 view -0
  30              		.cfi_startproc
  31              		@ args = 0, pretend = 0, frame = 0
  32              		@ frame_needed = 0, uses_anonymous_args = 0
ARM GAS  C:\Users\86158\AppData\Local\Temp\cck4kAYW.s 			page 2


  33 0000 38B5     		push	{r3, r4, r5, lr}
  34              	.LCFI0:
  35              		.cfi_def_cfa_offset 16
  36              		.cfi_offset 3, -16
  37              		.cfi_offset 4, -12
  38              		.cfi_offset 5, -8
  39              		.cfi_offset 14, -4
  27:App/Src/task.c ****     static uint32_t lastTick = 0;
  40              		.loc 1 27 5 view .LVU1
  28:App/Src/task.c **** 
  29:App/Src/task.c ****     g_realTime.tick += HAL_GetTick() - lastTick;
  41              		.loc 1 29 5 view .LVU2
  42              		.loc 1 29 24 is_stmt 0 view .LVU3
  43 0002 FFF7FEFF 		bl	HAL_GetTick
  44              	.LVL0:
  45              		.loc 1 29 38 view .LVU4
  46 0006 264D     		ldr	r5, .L9
  47 0008 2B68     		ldr	r3, [r5]
  48 000a C01A     		subs	r0, r0, r3
  49              		.loc 1 29 21 view .LVU5
  50 000c 254C     		ldr	r4, .L9+4
  51 000e E388     		ldrh	r3, [r4, #6]
  52 0010 1844     		add	r0, r0, r3
  53 0012 E080     		strh	r0, [r4, #6]	@ movhi
  30:App/Src/task.c ****     lastTick = HAL_GetTick();
  54              		.loc 1 30 5 is_stmt 1 view .LVU6
  55              		.loc 1 30 16 is_stmt 0 view .LVU7
  56 0014 FFF7FEFF 		bl	HAL_GetTick
  57              	.LVL1:
  58              		.loc 1 30 14 view .LVU8
  59 0018 2860     		str	r0, [r5]
  31:App/Src/task.c ****     if (g_realTime.tick < 1000) {
  60              		.loc 1 31 5 is_stmt 1 view .LVU9
  61              		.loc 1 31 19 is_stmt 0 view .LVU10
  62 001a E388     		ldrh	r3, [r4, #6]
  63              		.loc 1 31 8 view .LVU11
  64 001c B3F57A7F 		cmp	r3, #1000
  65 0020 3AD3     		bcc	.L1
  32:App/Src/task.c ****         return;
  33:App/Src/task.c ****     }
  34:App/Src/task.c ****     g_realTime.tick -= 1000;
  66              		.loc 1 34 5 is_stmt 1 view .LVU12
  67              		.loc 1 34 21 is_stmt 0 view .LVU13
  68 0022 A3F57A73 		sub	r3, r3, #1000
  69 0026 E380     		strh	r3, [r4, #6]	@ movhi
  35:App/Src/task.c ****     g_realTime.sec++;
  70              		.loc 1 35 5 is_stmt 1 view .LVU14
  71              		.loc 1 35 15 is_stmt 0 view .LVU15
  72 0028 6379     		ldrb	r3, [r4, #5]	@ zero_extendqisi2
  73              		.loc 1 35 19 view .LVU16
  74 002a 0133     		adds	r3, r3, #1
  75 002c DBB2     		uxtb	r3, r3
  76 002e 6371     		strb	r3, [r4, #5]
  36:App/Src/task.c ****     if (g_realTime.sec >= 60) {
  77              		.loc 1 36 5 is_stmt 1 view .LVU17
  78              		.loc 1 36 8 is_stmt 0 view .LVU18
  79 0030 3B2B     		cmp	r3, #59
ARM GAS  C:\Users\86158\AppData\Local\Temp\cck4kAYW.s 			page 3


  80 0032 31D9     		bls	.L1
  37:App/Src/task.c ****         g_realTime.sec = 0;
  81              		.loc 1 37 9 is_stmt 1 view .LVU19
  82              		.loc 1 37 24 is_stmt 0 view .LVU20
  83 0034 0023     		movs	r3, #0
  84 0036 6371     		strb	r3, [r4, #5]
  38:App/Src/task.c ****         g_realTime.min++;
  85              		.loc 1 38 9 is_stmt 1 view .LVU21
  86              		.loc 1 38 19 is_stmt 0 view .LVU22
  87 0038 2379     		ldrb	r3, [r4, #4]	@ zero_extendqisi2
  88              		.loc 1 38 23 view .LVU23
  89 003a 0133     		adds	r3, r3, #1
  90 003c DBB2     		uxtb	r3, r3
  91 003e 2371     		strb	r3, [r4, #4]
  39:App/Src/task.c ****         if (g_realTime.min >= 60) {
  92              		.loc 1 39 9 is_stmt 1 view .LVU24
  93              		.loc 1 39 12 is_stmt 0 view .LVU25
  94 0040 3B2B     		cmp	r3, #59
  95 0042 29D9     		bls	.L1
  40:App/Src/task.c ****             g_realTime.min = 0;
  96              		.loc 1 40 13 is_stmt 1 view .LVU26
  97              		.loc 1 40 28 is_stmt 0 view .LVU27
  98 0044 0023     		movs	r3, #0
  99 0046 2371     		strb	r3, [r4, #4]
  41:App/Src/task.c ****             g_realTime.hour++;
 100              		.loc 1 41 13 is_stmt 1 view .LVU28
 101              		.loc 1 41 23 is_stmt 0 view .LVU29
 102 0048 E378     		ldrb	r3, [r4, #3]	@ zero_extendqisi2
 103              		.loc 1 41 28 view .LVU30
 104 004a 0133     		adds	r3, r3, #1
 105 004c DBB2     		uxtb	r3, r3
 106 004e E370     		strb	r3, [r4, #3]
  42:App/Src/task.c ****             if (g_realTime.hour >= 24) {
 107              		.loc 1 42 13 is_stmt 1 view .LVU31
 108              		.loc 1 42 16 is_stmt 0 view .LVU32
 109 0050 172B     		cmp	r3, #23
 110 0052 21D9     		bls	.L1
  43:App/Src/task.c ****                 g_realTime.hour = 0;
 111              		.loc 1 43 17 is_stmt 1 view .LVU33
 112              		.loc 1 43 33 is_stmt 0 view .LVU34
 113 0054 0022     		movs	r2, #0
 114 0056 E270     		strb	r2, [r4, #3]
  44:App/Src/task.c ****                 g_realTime.day++;
 115              		.loc 1 44 17 is_stmt 1 view .LVU35
 116              		.loc 1 44 27 is_stmt 0 view .LVU36
 117 0058 A278     		ldrb	r2, [r4, #2]	@ zero_extendqisi2
 118              		.loc 1 44 31 view .LVU37
 119 005a 0132     		adds	r2, r2, #1
 120 005c D2B2     		uxtb	r2, r2
 121 005e A270     		strb	r2, [r4, #2]
  45:App/Src/task.c ****                 if ((g_realTime.mon == 2 && g_realTime.day >= 29) || 
 122              		.loc 1 45 17 is_stmt 1 view .LVU38
 123              		.loc 1 45 32 is_stmt 0 view .LVU39
 124 0060 6378     		ldrb	r3, [r4, #1]	@ zero_extendqisi2
 125              		.loc 1 45 20 view .LVU40
 126 0062 022B     		cmp	r3, #2
 127 0064 19D0     		beq	.L8
ARM GAS  C:\Users\86158\AppData\Local\Temp\cck4kAYW.s 			page 4


 128              	.L3:
 129              		.loc 1 45 67 discriminator 3 view .LVU41
 130 0066 042B     		cmp	r3, #4
 131 0068 05D0     		beq	.L5
  46:App/Src/task.c ****                     ((g_realTime.mon == 4 || g_realTime.mon == 6 || g_realTime.mon == 9 || g_realTi
 132              		.loc 1 46 43 view .LVU42
 133 006a 062B     		cmp	r3, #6
 134 006c 03D0     		beq	.L5
 135              		.loc 1 46 66 discriminator 2 view .LVU43
 136 006e 092B     		cmp	r3, #9
 137 0070 01D0     		beq	.L5
 138              		.loc 1 46 89 discriminator 4 view .LVU44
 139 0072 0B2B     		cmp	r3, #11
 140 0074 01D1     		bne	.L6
 141              	.L5:
 142              		.loc 1 46 114 discriminator 5 view .LVU45
 143 0076 1E2A     		cmp	r2, #30
 144 0078 01D8     		bhi	.L4
 145              	.L6:
  47:App/Src/task.c ****                     || g_realTime.day >= 32) {//不考虑闰年了，每小时会有信息校正过来
 146              		.loc 1 47 21 view .LVU46
 147 007a 1F2A     		cmp	r2, #31
 148 007c 0CD9     		bls	.L1
 149              	.L4:
  48:App/Src/task.c ****                     g_realTime.mon++;
 150              		.loc 1 48 21 is_stmt 1 view .LVU47
 151              		.loc 1 48 35 is_stmt 0 view .LVU48
 152 007e 0133     		adds	r3, r3, #1
 153 0080 DBB2     		uxtb	r3, r3
 154 0082 084A     		ldr	r2, .L9+4
 155 0084 5370     		strb	r3, [r2, #1]
  49:App/Src/task.c ****                     g_realTime.day = 1;
 156              		.loc 1 49 21 is_stmt 1 view .LVU49
 157              		.loc 1 49 36 is_stmt 0 view .LVU50
 158 0086 0121     		movs	r1, #1
 159 0088 9170     		strb	r1, [r2, #2]
  50:App/Src/task.c ****                     if (g_realTime.mon >= 13) {
 160              		.loc 1 50 21 is_stmt 1 view .LVU51
 161              		.loc 1 50 24 is_stmt 0 view .LVU52
 162 008a 0C2B     		cmp	r3, #12
 163 008c 04D9     		bls	.L1
  51:App/Src/task.c ****                         g_realTime.mon = 1;
 164              		.loc 1 51 25 is_stmt 1 view .LVU53
 165              		.loc 1 51 40 is_stmt 0 view .LVU54
 166 008e 1346     		mov	r3, r2
 167 0090 5170     		strb	r1, [r2, #1]
  52:App/Src/task.c ****                         g_realTime.year++;
 168              		.loc 1 52 25 is_stmt 1 view .LVU55
 169              		.loc 1 52 35 is_stmt 0 view .LVU56
 170 0092 1278     		ldrb	r2, [r2]	@ zero_extendqisi2
 171              		.loc 1 52 40 view .LVU57
 172 0094 0A44     		add	r2, r2, r1
 173 0096 1A70     		strb	r2, [r3]
 174              	.L1:
  53:App/Src/task.c ****                     }
  54:App/Src/task.c ****                 }
  55:App/Src/task.c ****             }
ARM GAS  C:\Users\86158\AppData\Local\Temp\cck4kAYW.s 			page 5


  56:App/Src/task.c ****         }
  57:App/Src/task.c ****     }
  58:App/Src/task.c **** }
 175              		.loc 1 58 1 view .LVU58
 176 0098 38BD     		pop	{r3, r4, r5, pc}
 177              	.L8:
  45:App/Src/task.c ****                     ((g_realTime.mon == 4 || g_realTime.mon == 6 || g_realTime.mon == 9 || g_realTi
 178              		.loc 1 45 42 discriminator 1 view .LVU59
 179 009a 1C2A     		cmp	r2, #28
 180 009c EFD8     		bhi	.L4
 181 009e E2E7     		b	.L3
 182              	.L10:
 183              		.align	2
 184              	.L9:
 185 00a0 00000000 		.word	.LANCHOR0
 186 00a4 00000000 		.word	.LANCHOR1
 187              		.cfi_endproc
 188              	.LFE235:
 190              		.section	.rodata.system_set_real_time.str1.4,"aMS",%progbits,1
 191              		.align	2
 192              	.LC1:
 193 0000 0A636F6D 		.ascii	"\012command set time, 20%d/%d/%d %d:%d:%d\012\000"
 193      6D616E64 
 193      20736574 
 193      2074696D 
 193      652C2032 
 194              		.section	.text.system_set_real_time,"ax",%progbits
 195              		.align	1
 196              		.global	system_set_real_time
 197              		.syntax unified
 198              		.thumb
 199              		.thumb_func
 201              	system_set_real_time:
 202              	.LFB236:
  59:App/Src/task.c **** 
  60:App/Src/task.c **** void system_set_real_time(RealTime time)
  61:App/Src/task.c **** {
 203              		.loc 1 61 1 is_stmt 1 view -0
 204              		.cfi_startproc
 205              		@ args = 0, pretend = 0, frame = 8
 206              		@ frame_needed = 0, uses_anonymous_args = 0
 207 0000 70B5     		push	{r4, r5, r6, lr}
 208              	.LCFI1:
 209              		.cfi_def_cfa_offset 16
 210              		.cfi_offset 4, -16
 211              		.cfi_offset 5, -12
 212              		.cfi_offset 6, -8
 213              		.cfi_offset 14, -4
 214 0002 86B0     		sub	sp, sp, #24
 215              	.LCFI2:
 216              		.cfi_def_cfa_offset 40
 217 0004 06AB     		add	r3, sp, #24
 218 0006 03E90300 		stmdb	r3, {r0, r1}
  62:App/Src/task.c ****     g_realTime.tick = 0;
 219              		.loc 1 62 5 view .LVU61
 220              		.loc 1 62 21 is_stmt 0 view .LVU62
 221 000a 0E48     		ldr	r0, .L13
ARM GAS  C:\Users\86158\AppData\Local\Temp\cck4kAYW.s 			page 6


 222 000c 0023     		movs	r3, #0
 223 000e C380     		strh	r3, [r0, #6]	@ movhi
  63:App/Src/task.c ****     g_realTime.sec = time.sec;
 224              		.loc 1 63 5 is_stmt 1 view .LVU63
 225              		.loc 1 63 26 is_stmt 0 view .LVU64
 226 0010 9DF81560 		ldrb	r6, [sp, #21]	@ zero_extendqisi2
 227              		.loc 1 63 20 view .LVU65
 228 0014 4671     		strb	r6, [r0, #5]
  64:App/Src/task.c ****     g_realTime.min = time.min;
 229              		.loc 1 64 5 is_stmt 1 view .LVU66
 230              		.loc 1 64 26 is_stmt 0 view .LVU67
 231 0016 9DF81450 		ldrb	r5, [sp, #20]	@ zero_extendqisi2
 232              		.loc 1 64 20 view .LVU68
 233 001a 0571     		strb	r5, [r0, #4]
  65:App/Src/task.c ****     g_realTime.hour = time.hour;
 234              		.loc 1 65 5 is_stmt 1 view .LVU69
 235              		.loc 1 65 27 is_stmt 0 view .LVU70
 236 001c 9DF81340 		ldrb	r4, [sp, #19]	@ zero_extendqisi2
 237              		.loc 1 65 21 view .LVU71
 238 0020 C470     		strb	r4, [r0, #3]
  66:App/Src/task.c ****     g_realTime.day = time.day;
 239              		.loc 1 66 5 is_stmt 1 view .LVU72
 240              		.loc 1 66 26 is_stmt 0 view .LVU73
 241 0022 9DF81230 		ldrb	r3, [sp, #18]	@ zero_extendqisi2
 242              		.loc 1 66 20 view .LVU74
 243 0026 8370     		strb	r3, [r0, #2]
  67:App/Src/task.c ****     g_realTime.mon = time.mon;
 244              		.loc 1 67 5 is_stmt 1 view .LVU75
 245              		.loc 1 67 26 is_stmt 0 view .LVU76
 246 0028 9DF81120 		ldrb	r2, [sp, #17]	@ zero_extendqisi2
 247              		.loc 1 67 20 view .LVU77
 248 002c 4270     		strb	r2, [r0, #1]
  68:App/Src/task.c ****     g_realTime.year = time.year;
 249              		.loc 1 68 5 is_stmt 1 view .LVU78
 250              		.loc 1 68 27 is_stmt 0 view .LVU79
 251 002e 9DF81010 		ldrb	r1, [sp, #16]	@ zero_extendqisi2
 252              		.loc 1 68 21 view .LVU80
 253 0032 0170     		strb	r1, [r0]
  69:App/Src/task.c **** 	log_printf("\ncommand set time, 20%d/%d/%d %d:%d:%d\n", 
 254              		.loc 1 69 2 is_stmt 1 view .LVU81
 255 0034 0296     		str	r6, [sp, #8]
 256 0036 0195     		str	r5, [sp, #4]
 257 0038 0094     		str	r4, [sp]
 258 003a 0348     		ldr	r0, .L13+4
 259 003c FFF7FEFF 		bl	log_printf
 260              	.LVL2:
  70:App/Src/task.c ****     g_realTime.year, g_realTime.mon, g_realTime.day, g_realTime.hour, g_realTime.min, g_realTime.se
  71:App/Src/task.c **** }
 261              		.loc 1 71 1 is_stmt 0 view .LVU82
 262 0040 06B0     		add	sp, sp, #24
 263              	.LCFI3:
 264              		.cfi_def_cfa_offset 16
 265              		@ sp needed
 266 0042 70BD     		pop	{r4, r5, r6, pc}
 267              	.L14:
 268              		.align	2
 269              	.L13:
ARM GAS  C:\Users\86158\AppData\Local\Temp\cck4kAYW.s 			page 7


 270 0044 00000000 		.word	.LANCHOR1
 271 0048 00000000 		.word	.LC1
 272              		.cfi_endproc
 273              	.LFE236:
 275              		.section	.text.system_get_real_time,"ax",%progbits
 276              		.align	1
 277              		.global	system_get_real_time
 278              		.syntax unified
 279              		.thumb
 280              		.thumb_func
 282              	system_get_real_time:
 283              	.LVL3:
 284              	.LFB237:
  72:App/Src/task.c **** 
  73:App/Src/task.c **** void system_get_real_time(RealTime* time)
  74:App/Src/task.c **** {
 285              		.loc 1 74 1 is_stmt 1 view -0
 286              		.cfi_startproc
 287              		@ args = 0, pretend = 0, frame = 0
 288              		@ frame_needed = 0, uses_anonymous_args = 0
 289              		@ link register save eliminated.
  75:App/Src/task.c ****     time->sec = g_realTime.sec;
 290              		.loc 1 75 5 view .LVU84
 291              		.loc 1 75 27 is_stmt 0 view .LVU85
 292 0000 064B     		ldr	r3, .L16
 293 0002 5A79     		ldrb	r2, [r3, #5]	@ zero_extendqisi2
 294              		.loc 1 75 15 view .LVU86
 295 0004 4271     		strb	r2, [r0, #5]
  76:App/Src/task.c ****     time->min = g_realTime.min;
 296              		.loc 1 76 5 is_stmt 1 view .LVU87
 297              		.loc 1 76 27 is_stmt 0 view .LVU88
 298 0006 1A79     		ldrb	r2, [r3, #4]	@ zero_extendqisi2
 299              		.loc 1 76 15 view .LVU89
 300 0008 0271     		strb	r2, [r0, #4]
  77:App/Src/task.c ****     time->hour = g_realTime.hour;
 301              		.loc 1 77 5 is_stmt 1 view .LVU90
 302              		.loc 1 77 28 is_stmt 0 view .LVU91
 303 000a DA78     		ldrb	r2, [r3, #3]	@ zero_extendqisi2
 304              		.loc 1 77 16 view .LVU92
 305 000c C270     		strb	r2, [r0, #3]
  78:App/Src/task.c ****     time->day = g_realTime.day;
 306              		.loc 1 78 5 is_stmt 1 view .LVU93
 307              		.loc 1 78 27 is_stmt 0 view .LVU94
 308 000e 9A78     		ldrb	r2, [r3, #2]	@ zero_extendqisi2
 309              		.loc 1 78 15 view .LVU95
 310 0010 8270     		strb	r2, [r0, #2]
  79:App/Src/task.c ****     time->mon = g_realTime.mon;
 311              		.loc 1 79 5 is_stmt 1 view .LVU96
 312              		.loc 1 79 27 is_stmt 0 view .LVU97
 313 0012 5A78     		ldrb	r2, [r3, #1]	@ zero_extendqisi2
 314              		.loc 1 79 15 view .LVU98
 315 0014 4270     		strb	r2, [r0, #1]
  80:App/Src/task.c ****     time->year = g_realTime.year;
 316              		.loc 1 80 5 is_stmt 1 view .LVU99
 317              		.loc 1 80 28 is_stmt 0 view .LVU100
 318 0016 1B78     		ldrb	r3, [r3]	@ zero_extendqisi2
 319              		.loc 1 80 16 view .LVU101
ARM GAS  C:\Users\86158\AppData\Local\Temp\cck4kAYW.s 			page 8


 320 0018 0370     		strb	r3, [r0]
  81:App/Src/task.c **** }
 321              		.loc 1 81 1 view .LVU102
 322 001a 7047     		bx	lr
 323              	.L17:
 324              		.align	2
 325              	.L16:
 326 001c 00000000 		.word	.LANCHOR1
 327              		.cfi_endproc
 328              	.LFE237:
 330              		.section	.rodata.command_int_test.str1.4,"aMS",%progbits,1
 331              		.align	2
 332              	.LC2:
 333 0000 63686970 		.ascii	"chip%d test 64Hz\012\000"
 333      25642074 
 333      65737420 
 333      3634487A 
 333      0A00
 334 0012 0000     		.align	2
 335              	.LC3:
 336 0014 63686970 		.ascii	"chip%d i2c error\012\000"
 336      25642069 
 336      32632065 
 336      72726F72 
 336      0A00
 337              		.global	__aeabi_f2d
 338 0026 0000     		.align	2
 339              	.LC4:
 340 0028 63686970 		.ascii	"chip%d temp:%.0f, system temp = %.1fC\012\000"
 340      25642074 
 340      656D703A 
 340      252E3066 
 340      2C207379 
 341 004f 00       		.align	2
 342              	.LC5:
 343 0050 3A4D4541 		.ascii	":MEAS?\012\000"
 343      533F0A00 
 344              		.align	2
 345              	.LC6:
 346 0058 77616974 		.ascii	"waiting counter test \012\000"
 346      696E6720 
 346      636F756E 
 346      74657220 
 346      74657374 
 347              		.global	__aeabi_dmul
 348              		.global	__aeabi_dsub
 349              		.global	__aeabi_d2f
 350 006f 00       		.align	2
 351              	.LC7:
 352 0070 66726571 		.ascii	"freq:%fHz,ppm:%.2f\012\000"
 352      3A256648 
 352      7A2C7070 
 352      6D3A252E 
 352      32660A00 
 353              		.align	2
 354              	.LC8:
 355 0084 64657669 		.ascii	"device no respose!\012\000"
ARM GAS  C:\Users\86158\AppData\Local\Temp\cck4kAYW.s 			page 9


 355      6365206E 
 355      6F207265 
 355      73706F73 
 355      65210A00 
 356              		.section	.text.command_int_test,"ax",%progbits
 357              		.align	1
 358              		.global	command_int_test
 359              		.syntax unified
 360              		.thumb
 361              		.thumb_func
 363              	command_int_test:
 364              	.LVL4:
 365              	.LFB240:
  82:App/Src/task.c **** 
  83:App/Src/task.c **** void system_manage(void)
  84:App/Src/task.c **** {
  85:App/Src/task.c ****     static uint32_t systemTick = 0;
  86:App/Src/task.c **** 
  87:App/Src/task.c ****     systemTick++;
  88:App/Src/task.c ****     if (systemTick % 100 == 0) {
  89:App/Src/task.c ****         rtc_freq_test(FREQ_TEST_DEFAULT);
  90:App/Src/task.c ****     }
  91:App/Src/task.c ****     if (systemTick % 20 == 0) {
  92:App/Src/task.c ****         system_manage_test_mode();
  93:App/Src/task.c ****     }
  94:App/Src/task.c ****     if (systemTick % 200 == 0) {//系统本地走时
  95:App/Src/task.c ****         system_time_update();
  96:App/Src/task.c ****     }
  97:App/Src/task.c ****     if (systemTick % 50 == 0) {//临时命令
  98:App/Src/task.c ****         Aecq100Sample();
  99:App/Src/task.c ****     }
 100:App/Src/task.c ****     if (systemTick % 4000 == 0) {//系统本地走时
 101:App/Src/task.c ****         ControlPrintf("system temp:%.1f connect OK\n", temp_read_value(1));
 102:App/Src/task.c ****     }
 103:App/Src/task.c **** }
 104:App/Src/task.c **** 
 105:App/Src/task.c **** void set_int_test(uint8_t state, uint8_t start, uint8_t end)
 106:App/Src/task.c **** {
 107:App/Src/task.c ****     if (state == 0) {
 108:App/Src/task.c ****         g_intState = 0;
 109:App/Src/task.c ****         g_intStart = 0;
 110:App/Src/task.c ****         g_intEnd = 0;
 111:App/Src/task.c ****         command_int_test(0);
 112:App/Src/task.c ****     } else {
 113:App/Src/task.c ****         if (start <= end) {
 114:App/Src/task.c ****             g_intState = 1;
 115:App/Src/task.c ****             g_intStart = start;
 116:App/Src/task.c ****             g_intEnd = end;
 117:App/Src/task.c ****             command_int_test(0);
 118:App/Src/task.c ****         }
 119:App/Src/task.c ****     }
 120:App/Src/task.c **** }
 121:App/Src/task.c **** 
 122:App/Src/task.c **** void command_int_test(uint8_t init)
 123:App/Src/task.c **** {
 366              		.loc 1 123 1 is_stmt 1 view -0
 367              		.cfi_startproc
ARM GAS  C:\Users\86158\AppData\Local\Temp\cck4kAYW.s 			page 10


 368              		@ args = 0, pretend = 0, frame = 8
 369              		@ frame_needed = 0, uses_anonymous_args = 0
 370              		.loc 1 123 1 is_stmt 0 view .LVU104
 371 0000 F0B5     		push	{r4, r5, r6, r7, lr}
 372              	.LCFI4:
 373              		.cfi_def_cfa_offset 20
 374              		.cfi_offset 4, -20
 375              		.cfi_offset 5, -16
 376              		.cfi_offset 6, -12
 377              		.cfi_offset 7, -8
 378              		.cfi_offset 14, -4
 379 0002 2DED028B 		vpush.64	{d8}
 380              	.LCFI5:
 381              		.cfi_def_cfa_offset 28
 382              		.cfi_offset 80, -28
 383              		.cfi_offset 81, -24
 384 0006 85B0     		sub	sp, sp, #20
 385              	.LCFI6:
 386              		.cfi_def_cfa_offset 48
 124:App/Src/task.c ****     static uint8_t testStep = 0;
 387              		.loc 1 124 5 is_stmt 1 view .LVU105
 125:App/Src/task.c ****     static uint8_t testNumber = 0;
 388              		.loc 1 125 5 view .LVU106
 126:App/Src/task.c ****     uint8_t buf, result;
 389              		.loc 1 126 5 view .LVU107
 127:App/Src/task.c ****     static uint32_t lastTick = 0;
 390              		.loc 1 127 5 view .LVU108
 128:App/Src/task.c ****     float ppm;
 391              		.loc 1 128 5 view .LVU109
 129:App/Src/task.c ****     float temp;
 392              		.loc 1 129 5 view .LVU110
 130:App/Src/task.c **** 
 131:App/Src/task.c ****     if (init == 0) {
 393              		.loc 1 131 5 view .LVU111
 394              		.loc 1 131 8 is_stmt 0 view .LVU112
 395 0008 40B1     		cbz	r0, .L35
 132:App/Src/task.c ****         testStep = 0;
 133:App/Src/task.c ****         buf = 0x04;
 134:App/Src/task.c ****         rtc_write_multi_bytes(RTC_8931_ADDRESS, 0x0E, &buf, 1);//关闭之前开启频率输出
 135:App/Src/task.c ****         return;
 136:App/Src/task.c ****     }
 137:App/Src/task.c **** 
 138:App/Src/task.c ****     switch (testStep) {
 396              		.loc 1 138 5 is_stmt 1 view .LVU113
 397 000a 734B     		ldr	r3, .L37+8
 398 000c 1B78     		ldrb	r3, [r3]	@ zero_extendqisi2
 399 000e 052B     		cmp	r3, #5
 400 0010 11D8     		bhi	.L18
 401 0012 DFE803F0 		tbb	[pc, r3]
 402              	.L23:
 403 0016 14       		.byte	(.L28-.L23)/2
 404 0017 1B       		.byte	(.L27-.L23)/2
 405 0018 3D       		.byte	(.L26-.L23)/2
 406 0019 58       		.byte	(.L25-.L23)/2
 407 001a 8A       		.byte	(.L24-.L23)/2
 408 001b A1       		.byte	(.L22-.L23)/2
 409              		.p2align 1
ARM GAS  C:\Users\86158\AppData\Local\Temp\cck4kAYW.s 			page 11


 410              	.L35:
 132:App/Src/task.c ****         testStep = 0;
 411              		.loc 1 132 9 view .LVU114
 132:App/Src/task.c ****         testStep = 0;
 412              		.loc 1 132 18 is_stmt 0 view .LVU115
 413 001c 6E4B     		ldr	r3, .L37+8
 414 001e 0022     		movs	r2, #0
 415 0020 1A70     		strb	r2, [r3]
 133:App/Src/task.c ****         rtc_write_multi_bytes(RTC_8931_ADDRESS, 0x0E, &buf, 1);//关闭之前开启频率输出
 416              		.loc 1 133 9 is_stmt 1 view .LVU116
 133:App/Src/task.c ****         rtc_write_multi_bytes(RTC_8931_ADDRESS, 0x0E, &buf, 1);//关闭之前开启频率输出
 417              		.loc 1 133 13 is_stmt 0 view .LVU117
 418 0022 0423     		movs	r3, #4
 419 0024 8DF80F30 		strb	r3, [sp, #15]
 134:App/Src/task.c ****         return;
 420              		.loc 1 134 9 is_stmt 1 view .LVU118
 421 0028 0123     		movs	r3, #1
 422 002a 0DF10F02 		add	r2, sp, #15
 423 002e 0E21     		movs	r1, #14
 424 0030 D020     		movs	r0, #208
 425              	.LVL5:
 134:App/Src/task.c ****         return;
 426              		.loc 1 134 9 is_stmt 0 view .LVU119
 427 0032 FFF7FEFF 		bl	rtc_write_multi_bytes
 428              	.LVL6:
 135:App/Src/task.c ****     }
 429              		.loc 1 135 9 is_stmt 1 view .LVU120
 430              	.L18:
 139:App/Src/task.c ****         case 0:
 140:App/Src/task.c ****             testNumber = 0;
 141:App/Src/task.c ****             testStep++;
 142:App/Src/task.c ****         break;
 143:App/Src/task.c ****         case 1:
 144:App/Src/task.c ****             if (testNumber < g_intStart || testNumber >= g_intEnd) {//配置测试的芯片编号
 145:App/Src/task.c ****                 testNumber = g_intStart;
 146:App/Src/task.c ****             } else {
 147:App/Src/task.c ****                 testNumber++;
 148:App/Src/task.c ****             }
 149:App/Src/task.c **** 			UsbPrintf("chip%d test 64Hz\n", testNumber);
 150:App/Src/task.c **** 			rtc_group_power(testNumber, POWER_I2C);
 151:App/Src/task.c **** 			rtc_set_channel(testNumber, RTC_SD3078B);
 152:App/Src/task.c ****             testStep++;
 153:App/Src/task.c ****         break;
 154:App/Src/task.c ****         case 2:
 155:App/Src/task.c **** 			result = rtc_write_lock_on();
 156:App/Src/task.c **** 			if (result !=  I2C_OK) {
 157:App/Src/task.c **** 				UsbPrintf("chip%d i2c error\n", testNumber);
 158:App/Src/task.c ****                 testStep = 1;//该芯片的后续测试跳过
 159:App/Src/task.c ****                 break;
 160:App/Src/task.c **** 			}
 161:App/Src/task.c **** 			buf = 0x10;
 162:App/Src/task.c **** 			rtc_write_multi_bytes(RTC_3078_ADDRESS, 0x17, &buf, 1);
 163:App/Src/task.c ****             testStep++;
 164:App/Src/task.c ****         break;
 165:App/Src/task.c ****         case 3:
 166:App/Src/task.c **** 			rtc_read_multi_bytes(RTC_3078_ADDRESS, 0x16, &buf, 1);
 167:App/Src/task.c **** 			temp = buf;
ARM GAS  C:\Users\86158\AppData\Local\Temp\cck4kAYW.s 			page 12


 168:App/Src/task.c **** 			UsbPrintf("chip%d temp:%.0f, system temp = %.1fC\n", testNumber, temp, temp_read_value(1));
 169:App/Src/task.c ****             rtc_out_4096();//开启输出
 170:App/Src/task.c **** 			rtc_sda_l();//3078模式下需要解除锁定int
 171:App/Src/task.c ****             lastTick = HAL_GetTick();
 172:App/Src/task.c ****             testStep++;
 173:App/Src/task.c ****         break;
 174:App/Src/task.c ****         case 4:
 175:App/Src/task.c ****             if (HAL_GetTick() > lastTick + 100) {
 176:App/Src/task.c **** 			    DevicePrintf(":MEAS?\n");
 177:App/Src/task.c **** 			    UsbPrintf("waiting counter test \n");
 178:App/Src/task.c ****                 lastTick = HAL_GetTick();
 179:App/Src/task.c ****                 testStep++;
 180:App/Src/task.c ****             }
 181:App/Src/task.c ****         break;
 182:App/Src/task.c ****         case 5:
 183:App/Src/task.c ****             if (g_lastFreq.recordTime > lastTick) {
 184:App/Src/task.c ****                 ppm = (g_lastFreq.freq / 64.0 - 1.0) * 1000000;
 185:App/Src/task.c ****                 UsbPrintf("freq:%fHz,ppm:%.2f\n", g_lastFreq.freq , ppm);
 186:App/Src/task.c **** 			    rtc_disable_int();
 187:App/Src/task.c ****                 testStep = 1;
 188:App/Src/task.c ****             }
 189:App/Src/task.c **** 			if (HAL_GetTick() >= lastTick + 3000) {
 190:App/Src/task.c **** 				UsbPrintf("device no respose!\n");
 191:App/Src/task.c ****                 rtc_disable_int();
 192:App/Src/task.c ****                 testStep = 1;
 193:App/Src/task.c **** 			}
 194:App/Src/task.c ****         break;
 195:App/Src/task.c ****         default:break;
 196:App/Src/task.c ****     }
 197:App/Src/task.c **** }
 431              		.loc 1 197 1 is_stmt 0 view .LVU121
 432 0036 05B0     		add	sp, sp, #20
 433              	.LCFI7:
 434              		.cfi_remember_state
 435              		.cfi_def_cfa_offset 28
 436              		@ sp needed
 437 0038 BDEC028B 		vldm	sp!, {d8}
 438              	.LCFI8:
 439              		.cfi_restore 80
 440              		.cfi_restore 81
 441              		.cfi_def_cfa_offset 20
 442 003c F0BD     		pop	{r4, r5, r6, r7, pc}
 443              	.LVL7:
 444              	.L28:
 445              	.LCFI9:
 446              		.cfi_restore_state
 140:App/Src/task.c ****             testStep++;
 447              		.loc 1 140 13 is_stmt 1 view .LVU122
 140:App/Src/task.c ****             testStep++;
 448              		.loc 1 140 24 is_stmt 0 view .LVU123
 449 003e 674A     		ldr	r2, .L37+12
 450 0040 0021     		movs	r1, #0
 451 0042 1170     		strb	r1, [r2]
 141:App/Src/task.c ****         break;
 452              		.loc 1 141 13 is_stmt 1 view .LVU124
 141:App/Src/task.c ****         break;
 453              		.loc 1 141 21 is_stmt 0 view .LVU125
ARM GAS  C:\Users\86158\AppData\Local\Temp\cck4kAYW.s 			page 13


 454 0044 0133     		adds	r3, r3, #1
 455 0046 644A     		ldr	r2, .L37+8
 456 0048 1370     		strb	r3, [r2]
 142:App/Src/task.c ****         case 1:
 457              		.loc 1 142 9 is_stmt 1 view .LVU126
 458 004a F4E7     		b	.L18
 459              	.L27:
 144:App/Src/task.c ****                 testNumber = g_intStart;
 460              		.loc 1 144 13 view .LVU127
 144:App/Src/task.c ****                 testNumber = g_intStart;
 461              		.loc 1 144 28 is_stmt 0 view .LVU128
 462 004c 634B     		ldr	r3, .L37+12
 463 004e 1B78     		ldrb	r3, [r3]	@ zero_extendqisi2
 464 0050 634A     		ldr	r2, .L37+16
 465 0052 1278     		ldrb	r2, [r2]	@ zero_extendqisi2
 144:App/Src/task.c ****                 testNumber = g_intStart;
 466              		.loc 1 144 16 view .LVU129
 467 0054 9342     		cmp	r3, r2
 468 0056 03D3     		bcc	.L29
 144:App/Src/task.c ****                 testNumber = g_intStart;
 469              		.loc 1 144 55 discriminator 1 view .LVU130
 470 0058 6249     		ldr	r1, .L37+20
 471 005a 0978     		ldrb	r1, [r1]	@ zero_extendqisi2
 144:App/Src/task.c ****                 testNumber = g_intStart;
 472              		.loc 1 144 41 discriminator 1 view .LVU131
 473 005c 8B42     		cmp	r3, r1
 474 005e 13D3     		bcc	.L30
 475              	.L29:
 145:App/Src/task.c ****             } else {
 476              		.loc 1 145 17 is_stmt 1 view .LVU132
 145:App/Src/task.c ****             } else {
 477              		.loc 1 145 28 is_stmt 0 view .LVU133
 478 0060 5E4B     		ldr	r3, .L37+12
 479 0062 1A70     		strb	r2, [r3]
 480              	.L31:
 149:App/Src/task.c **** 			rtc_group_power(testNumber, POWER_I2C);
 481              		.loc 1 149 4 is_stmt 1 view .LVU134
 482 0064 5D4C     		ldr	r4, .L37+12
 483 0066 2178     		ldrb	r1, [r4]	@ zero_extendqisi2
 484 0068 5F48     		ldr	r0, .L37+24
 485              	.LVL8:
 149:App/Src/task.c **** 			rtc_group_power(testNumber, POWER_I2C);
 486              		.loc 1 149 4 is_stmt 0 view .LVU135
 487 006a FFF7FEFF 		bl	UsbPrintf
 488              	.LVL9:
 150:App/Src/task.c **** 			rtc_set_channel(testNumber, RTC_SD3078B);
 489              		.loc 1 150 4 is_stmt 1 view .LVU136
 490 006e 0121     		movs	r1, #1
 491 0070 2078     		ldrb	r0, [r4]	@ zero_extendqisi2
 492 0072 FFF7FEFF 		bl	rtc_group_power
 493              	.LVL10:
 151:App/Src/task.c ****             testStep++;
 494              		.loc 1 151 4 view .LVU137
 495 0076 0521     		movs	r1, #5
 496 0078 2078     		ldrb	r0, [r4]	@ zero_extendqisi2
 497 007a FFF7FEFF 		bl	rtc_set_channel
 498              	.LVL11:
ARM GAS  C:\Users\86158\AppData\Local\Temp\cck4kAYW.s 			page 14


 152:App/Src/task.c ****         break;
 499              		.loc 1 152 13 view .LVU138
 152:App/Src/task.c ****         break;
 500              		.loc 1 152 21 is_stmt 0 view .LVU139
 501 007e 564A     		ldr	r2, .L37+8
 502 0080 1378     		ldrb	r3, [r2]	@ zero_extendqisi2
 503 0082 0133     		adds	r3, r3, #1
 504 0084 1370     		strb	r3, [r2]
 153:App/Src/task.c ****         case 2:
 505              		.loc 1 153 9 is_stmt 1 view .LVU140
 506 0086 D6E7     		b	.L18
 507              	.LVL12:
 508              	.L30:
 147:App/Src/task.c ****             }
 509              		.loc 1 147 17 view .LVU141
 147:App/Src/task.c ****             }
 510              		.loc 1 147 27 is_stmt 0 view .LVU142
 511 0088 0133     		adds	r3, r3, #1
 512 008a 544A     		ldr	r2, .L37+12
 513 008c 1370     		strb	r3, [r2]
 514 008e E9E7     		b	.L31
 515              	.L26:
 155:App/Src/task.c **** 			if (result !=  I2C_OK) {
 516              		.loc 1 155 4 is_stmt 1 view .LVU143
 155:App/Src/task.c **** 			if (result !=  I2C_OK) {
 517              		.loc 1 155 13 is_stmt 0 view .LVU144
 518 0090 FFF7FEFF 		bl	rtc_write_lock_on
 519              	.LVL13:
 156:App/Src/task.c **** 				UsbPrintf("chip%d i2c error\n", testNumber);
 520              		.loc 1 156 4 is_stmt 1 view .LVU145
 156:App/Src/task.c **** 				UsbPrintf("chip%d i2c error\n", testNumber);
 521              		.loc 1 156 7 is_stmt 0 view .LVU146
 522 0094 40B1     		cbz	r0, .L32
 157:App/Src/task.c ****                 testStep = 1;//该芯片的后续测试跳过
 523              		.loc 1 157 5 is_stmt 1 view .LVU147
 524 0096 514B     		ldr	r3, .L37+12
 525 0098 1978     		ldrb	r1, [r3]	@ zero_extendqisi2
 526 009a 5448     		ldr	r0, .L37+28
 527              	.LVL14:
 157:App/Src/task.c ****                 testStep = 1;//该芯片的后续测试跳过
 528              		.loc 1 157 5 is_stmt 0 view .LVU148
 529 009c FFF7FEFF 		bl	UsbPrintf
 530              	.LVL15:
 158:App/Src/task.c ****                 break;
 531              		.loc 1 158 17 is_stmt 1 view .LVU149
 158:App/Src/task.c ****                 break;
 532              		.loc 1 158 26 is_stmt 0 view .LVU150
 533 00a0 4D4B     		ldr	r3, .L37+8
 534 00a2 0122     		movs	r2, #1
 535 00a4 1A70     		strb	r2, [r3]
 159:App/Src/task.c **** 			}
 536              		.loc 1 159 17 is_stmt 1 view .LVU151
 537 00a6 C6E7     		b	.L18
 538              	.LVL16:
 539              	.L32:
 161:App/Src/task.c **** 			rtc_write_multi_bytes(RTC_3078_ADDRESS, 0x17, &buf, 1);
 540              		.loc 1 161 4 view .LVU152
ARM GAS  C:\Users\86158\AppData\Local\Temp\cck4kAYW.s 			page 15


 161:App/Src/task.c **** 			rtc_write_multi_bytes(RTC_3078_ADDRESS, 0x17, &buf, 1);
 541              		.loc 1 161 8 is_stmt 0 view .LVU153
 542 00a8 1023     		movs	r3, #16
 543 00aa 8DF80F30 		strb	r3, [sp, #15]
 162:App/Src/task.c ****             testStep++;
 544              		.loc 1 162 4 is_stmt 1 view .LVU154
 545 00ae 0123     		movs	r3, #1
 546 00b0 0DF10F02 		add	r2, sp, #15
 547 00b4 1721     		movs	r1, #23
 548 00b6 6420     		movs	r0, #100
 549              	.LVL17:
 162:App/Src/task.c ****             testStep++;
 550              		.loc 1 162 4 is_stmt 0 view .LVU155
 551 00b8 FFF7FEFF 		bl	rtc_write_multi_bytes
 552              	.LVL18:
 163:App/Src/task.c ****         break;
 553              		.loc 1 163 13 is_stmt 1 view .LVU156
 163:App/Src/task.c ****         break;
 554              		.loc 1 163 21 is_stmt 0 view .LVU157
 555 00bc 464A     		ldr	r2, .L37+8
 556 00be 1378     		ldrb	r3, [r2]	@ zero_extendqisi2
 557 00c0 0133     		adds	r3, r3, #1
 558 00c2 1370     		strb	r3, [r2]
 164:App/Src/task.c ****         case 3:
 559              		.loc 1 164 9 is_stmt 1 view .LVU158
 560 00c4 B7E7     		b	.L18
 561              	.LVL19:
 562              	.L25:
 166:App/Src/task.c **** 			temp = buf;
 563              		.loc 1 166 4 view .LVU159
 564 00c6 0123     		movs	r3, #1
 565 00c8 0DF10F02 		add	r2, sp, #15
 566 00cc 1621     		movs	r1, #22
 567 00ce 6420     		movs	r0, #100
 568              	.LVL20:
 166:App/Src/task.c **** 			temp = buf;
 569              		.loc 1 166 4 is_stmt 0 view .LVU160
 570 00d0 FFF7FEFF 		bl	rtc_read_multi_bytes
 571              	.LVL21:
 167:App/Src/task.c **** 			UsbPrintf("chip%d temp:%.0f, system temp = %.1fC\n", testNumber, temp, temp_read_value(1));
 572              		.loc 1 167 4 is_stmt 1 view .LVU161
 167:App/Src/task.c **** 			UsbPrintf("chip%d temp:%.0f, system temp = %.1fC\n", testNumber, temp, temp_read_value(1));
 573              		.loc 1 167 9 is_stmt 0 view .LVU162
 574 00d4 9DF80F30 		ldrb	r3, [sp, #15]	@ zero_extendqisi2
 575 00d8 08EE103A 		vmov	s16, r3	@ int
 576 00dc B8EE488A 		vcvt.f32.u32	s16, s16
 577              	.LVL22:
 168:App/Src/task.c ****             rtc_out_4096();//开启输出
 578              		.loc 1 168 4 is_stmt 1 view .LVU163
 579 00e0 3E4B     		ldr	r3, .L37+12
 580 00e2 1F78     		ldrb	r7, [r3]	@ zero_extendqisi2
 168:App/Src/task.c ****             rtc_out_4096();//开启输出
 581              		.loc 1 168 75 is_stmt 0 view .LVU164
 582 00e4 0120     		movs	r0, #1
 583 00e6 FFF7FEFF 		bl	temp_read_value
 584              	.LVL23:
 585 00ea 10EE106A 		vmov	r6, s0
ARM GAS  C:\Users\86158\AppData\Local\Temp\cck4kAYW.s 			page 16


 168:App/Src/task.c ****             rtc_out_4096();//开启输出
 586              		.loc 1 168 4 view .LVU165
 587 00ee 18EE100A 		vmov	r0, s16
 588 00f2 FFF7FEFF 		bl	__aeabi_f2d
 589              	.LVL24:
 590 00f6 0446     		mov	r4, r0
 591 00f8 0D46     		mov	r5, r1
 592 00fa 3046     		mov	r0, r6	@ float
 593 00fc FFF7FEFF 		bl	__aeabi_f2d
 594              	.LVL25:
 595 0100 CDE90001 		strd	r0, [sp]
 596 0104 2246     		mov	r2, r4
 597 0106 2B46     		mov	r3, r5
 598 0108 3946     		mov	r1, r7
 599 010a 3948     		ldr	r0, .L37+32
 600 010c FFF7FEFF 		bl	UsbPrintf
 601              	.LVL26:
 169:App/Src/task.c **** 			rtc_sda_l();//3078模式下需要解除锁定int
 602              		.loc 1 169 13 is_stmt 1 view .LVU166
 603 0110 FFF7FEFF 		bl	rtc_out_4096
 604              	.LVL27:
 170:App/Src/task.c ****             lastTick = HAL_GetTick();
 605              		.loc 1 170 4 view .LVU167
 606 0114 FFF7FEFF 		bl	rtc_sda_l
 607              	.LVL28:
 171:App/Src/task.c ****             testStep++;
 608              		.loc 1 171 13 view .LVU168
 171:App/Src/task.c ****             testStep++;
 609              		.loc 1 171 24 is_stmt 0 view .LVU169
 610 0118 FFF7FEFF 		bl	HAL_GetTick
 611              	.LVL29:
 171:App/Src/task.c ****             testStep++;
 612              		.loc 1 171 22 view .LVU170
 613 011c 354B     		ldr	r3, .L37+36
 614 011e 1860     		str	r0, [r3]
 172:App/Src/task.c ****         break;
 615              		.loc 1 172 13 is_stmt 1 view .LVU171
 172:App/Src/task.c ****         break;
 616              		.loc 1 172 21 is_stmt 0 view .LVU172
 617 0120 2D4A     		ldr	r2, .L37+8
 618 0122 1378     		ldrb	r3, [r2]	@ zero_extendqisi2
 619 0124 0133     		adds	r3, r3, #1
 620 0126 1370     		strb	r3, [r2]
 173:App/Src/task.c ****         case 4:
 621              		.loc 1 173 9 is_stmt 1 view .LVU173
 622 0128 85E7     		b	.L18
 623              	.LVL30:
 624              	.L24:
 175:App/Src/task.c **** 			    DevicePrintf(":MEAS?\n");
 625              		.loc 1 175 13 view .LVU174
 175:App/Src/task.c **** 			    DevicePrintf(":MEAS?\n");
 626              		.loc 1 175 17 is_stmt 0 view .LVU175
 627 012a FFF7FEFF 		bl	HAL_GetTick
 628              	.LVL31:
 175:App/Src/task.c **** 			    DevicePrintf(":MEAS?\n");
 629              		.loc 1 175 42 view .LVU176
 630 012e 314B     		ldr	r3, .L37+36
ARM GAS  C:\Users\86158\AppData\Local\Temp\cck4kAYW.s 			page 17


 631 0130 1B68     		ldr	r3, [r3]
 632 0132 6433     		adds	r3, r3, #100
 175:App/Src/task.c **** 			    DevicePrintf(":MEAS?\n");
 633              		.loc 1 175 16 view .LVU177
 634 0134 9842     		cmp	r0, r3
 635 0136 7FF67EAF 		bls	.L18
 176:App/Src/task.c **** 			    UsbPrintf("waiting counter test \n");
 636              		.loc 1 176 8 is_stmt 1 view .LVU178
 637 013a 2F48     		ldr	r0, .L37+40
 638 013c FFF7FEFF 		bl	DevicePrintf
 639              	.LVL32:
 177:App/Src/task.c ****                 lastTick = HAL_GetTick();
 640              		.loc 1 177 8 view .LVU179
 641 0140 2E48     		ldr	r0, .L37+44
 642 0142 FFF7FEFF 		bl	UsbPrintf
 643              	.LVL33:
 178:App/Src/task.c ****                 testStep++;
 644              		.loc 1 178 17 view .LVU180
 178:App/Src/task.c ****                 testStep++;
 645              		.loc 1 178 28 is_stmt 0 view .LVU181
 646 0146 FFF7FEFF 		bl	HAL_GetTick
 647              	.LVL34:
 178:App/Src/task.c ****                 testStep++;
 648              		.loc 1 178 26 view .LVU182
 649 014a 2A4B     		ldr	r3, .L37+36
 650 014c 1860     		str	r0, [r3]
 179:App/Src/task.c ****             }
 651              		.loc 1 179 17 is_stmt 1 view .LVU183
 179:App/Src/task.c ****             }
 652              		.loc 1 179 25 is_stmt 0 view .LVU184
 653 014e 224A     		ldr	r2, .L37+8
 654 0150 1378     		ldrb	r3, [r2]	@ zero_extendqisi2
 655 0152 0133     		adds	r3, r3, #1
 656 0154 1370     		strb	r3, [r2]
 657 0156 6EE7     		b	.L18
 658              	.LVL35:
 659              	.L22:
 183:App/Src/task.c ****                 ppm = (g_lastFreq.freq / 64.0 - 1.0) * 1000000;
 660              		.loc 1 183 13 is_stmt 1 view .LVU185
 183:App/Src/task.c ****                 ppm = (g_lastFreq.freq / 64.0 - 1.0) * 1000000;
 661              		.loc 1 183 27 is_stmt 0 view .LVU186
 662 0158 294B     		ldr	r3, .L37+48
 663 015a 1A68     		ldr	r2, [r3]
 183:App/Src/task.c ****                 ppm = (g_lastFreq.freq / 64.0 - 1.0) * 1000000;
 664              		.loc 1 183 39 view .LVU187
 665 015c 254B     		ldr	r3, .L37+36
 666 015e 1B68     		ldr	r3, [r3]
 183:App/Src/task.c ****                 ppm = (g_lastFreq.freq / 64.0 - 1.0) * 1000000;
 667              		.loc 1 183 16 view .LVU188
 668 0160 9A42     		cmp	r2, r3
 669 0162 11D8     		bhi	.L36
 670              	.LVL36:
 671              	.L33:
 189:App/Src/task.c **** 				UsbPrintf("device no respose!\n");
 672              		.loc 1 189 4 is_stmt 1 view .LVU189
 189:App/Src/task.c **** 				UsbPrintf("device no respose!\n");
 673              		.loc 1 189 8 is_stmt 0 view .LVU190
ARM GAS  C:\Users\86158\AppData\Local\Temp\cck4kAYW.s 			page 18


 674 0164 FFF7FEFF 		bl	HAL_GetTick
 675              	.LVL37:
 189:App/Src/task.c **** 				UsbPrintf("device no respose!\n");
 676              		.loc 1 189 34 view .LVU191
 677 0168 224B     		ldr	r3, .L37+36
 678 016a 1B68     		ldr	r3, [r3]
 679 016c 03F6B833 		addw	r3, r3, #3000
 189:App/Src/task.c **** 				UsbPrintf("device no respose!\n");
 680              		.loc 1 189 7 view .LVU192
 681 0170 9842     		cmp	r0, r3
 682 0172 FFF460AF 		bcc	.L18
 190:App/Src/task.c ****                 rtc_disable_int();
 683              		.loc 1 190 5 is_stmt 1 view .LVU193
 684 0176 2348     		ldr	r0, .L37+52
 685 0178 FFF7FEFF 		bl	UsbPrintf
 686              	.LVL38:
 191:App/Src/task.c ****                 testStep = 1;
 687              		.loc 1 191 17 view .LVU194
 688 017c FFF7FEFF 		bl	rtc_disable_int
 689              	.LVL39:
 192:App/Src/task.c **** 			}
 690              		.loc 1 192 17 view .LVU195
 192:App/Src/task.c **** 			}
 691              		.loc 1 192 26 is_stmt 0 view .LVU196
 692 0180 154B     		ldr	r3, .L37+8
 693 0182 0122     		movs	r2, #1
 694 0184 1A70     		strb	r2, [r3]
 695 0186 56E7     		b	.L18
 696              	.LVL40:
 697              	.L36:
 184:App/Src/task.c ****                 UsbPrintf("freq:%fHz,ppm:%.2f\n", g_lastFreq.freq , ppm);
 698              		.loc 1 184 17 is_stmt 1 view .LVU197
 184:App/Src/task.c ****                 UsbPrintf("freq:%fHz,ppm:%.2f\n", g_lastFreq.freq , ppm);
 699              		.loc 1 184 34 is_stmt 0 view .LVU198
 700 0188 1D4B     		ldr	r3, .L37+48
 701 018a 5868     		ldr	r0, [r3, #4]	@ float
 702              	.LVL41:
 184:App/Src/task.c ****                 UsbPrintf("freq:%fHz,ppm:%.2f\n", g_lastFreq.freq , ppm);
 703              		.loc 1 184 34 view .LVU199
 704 018c FFF7FEFF 		bl	__aeabi_f2d
 705              	.LVL42:
 706 0190 0446     		mov	r4, r0
 707 0192 0D46     		mov	r5, r1
 184:App/Src/task.c ****                 UsbPrintf("freq:%fHz,ppm:%.2f\n", g_lastFreq.freq , ppm);
 708              		.loc 1 184 40 view .LVU200
 709 0194 0022     		movs	r2, #0
 710 0196 1C4B     		ldr	r3, .L37+56
 711 0198 FFF7FEFF 		bl	__aeabi_dmul
 712              	.LVL43:
 184:App/Src/task.c ****                 UsbPrintf("freq:%fHz,ppm:%.2f\n", g_lastFreq.freq , ppm);
 713              		.loc 1 184 47 view .LVU201
 714 019c 0022     		movs	r2, #0
 715 019e 1B4B     		ldr	r3, .L37+60
 716 01a0 FFF7FEFF 		bl	__aeabi_dsub
 717              	.LVL44:
 184:App/Src/task.c ****                 UsbPrintf("freq:%fHz,ppm:%.2f\n", g_lastFreq.freq , ppm);
 718              		.loc 1 184 54 view .LVU202
ARM GAS  C:\Users\86158\AppData\Local\Temp\cck4kAYW.s 			page 19


 719 01a4 0AA3     		adr	r3, .L37
 720 01a6 D3E90023 		ldrd	r2, [r3]
 721 01aa FFF7FEFF 		bl	__aeabi_dmul
 722              	.LVL45:
 184:App/Src/task.c ****                 UsbPrintf("freq:%fHz,ppm:%.2f\n", g_lastFreq.freq , ppm);
 723              		.loc 1 184 21 view .LVU203
 724 01ae FFF7FEFF 		bl	__aeabi_d2f
 725              	.LVL46:
 185:App/Src/task.c **** 			    rtc_disable_int();
 726              		.loc 1 185 17 is_stmt 1 view .LVU204
 727 01b2 FFF7FEFF 		bl	__aeabi_f2d
 728              	.LVL47:
 185:App/Src/task.c **** 			    rtc_disable_int();
 729              		.loc 1 185 17 is_stmt 0 view .LVU205
 730 01b6 CDE90001 		strd	r0, [sp]
 731 01ba 2246     		mov	r2, r4
 732 01bc 2B46     		mov	r3, r5
 733 01be 1448     		ldr	r0, .L37+64
 734 01c0 FFF7FEFF 		bl	UsbPrintf
 735              	.LVL48:
 186:App/Src/task.c ****                 testStep = 1;
 736              		.loc 1 186 8 is_stmt 1 view .LVU206
 737 01c4 FFF7FEFF 		bl	rtc_disable_int
 738              	.LVL49:
 187:App/Src/task.c ****             }
 739              		.loc 1 187 17 view .LVU207
 187:App/Src/task.c ****             }
 740              		.loc 1 187 26 is_stmt 0 view .LVU208
 741 01c8 034B     		ldr	r3, .L37+8
 742 01ca 0122     		movs	r2, #1
 743 01cc 1A70     		strb	r2, [r3]
 744 01ce C9E7     		b	.L33
 745              	.L38:
 746              		.align	3
 747              	.L37:
 748 01d0 00000000 		.word	0
 749 01d4 80842E41 		.word	1093567616
 750 01d8 00000000 		.word	.LANCHOR2
 751 01dc 00000000 		.word	.LANCHOR3
 752 01e0 00000000 		.word	.LANCHOR4
 753 01e4 00000000 		.word	.LANCHOR5
 754 01e8 00000000 		.word	.LC2
 755 01ec 14000000 		.word	.LC3
 756 01f0 28000000 		.word	.LC4
 757 01f4 00000000 		.word	.LANCHOR6
 758 01f8 50000000 		.word	.LC5
 759 01fc 58000000 		.word	.LC6
 760 0200 00000000 		.word	.LANCHOR7
 761 0204 84000000 		.word	.LC8
 762 0208 0000903F 		.word	1066401792
 763 020c 0000F03F 		.word	1072693248
 764 0210 70000000 		.word	.LC7
 765              		.cfi_endproc
 766              	.LFE240:
 768              		.section	.text.set_int_test,"ax",%progbits
 769              		.align	1
 770              		.global	set_int_test
ARM GAS  C:\Users\86158\AppData\Local\Temp\cck4kAYW.s 			page 20


 771              		.syntax unified
 772              		.thumb
 773              		.thumb_func
 775              	set_int_test:
 776              	.LVL50:
 777              	.LFB239:
 106:App/Src/task.c ****     if (state == 0) {
 778              		.loc 1 106 1 is_stmt 1 view -0
 779              		.cfi_startproc
 780              		@ args = 0, pretend = 0, frame = 0
 781              		@ frame_needed = 0, uses_anonymous_args = 0
 106:App/Src/task.c ****     if (state == 0) {
 782              		.loc 1 106 1 is_stmt 0 view .LVU210
 783 0000 08B5     		push	{r3, lr}
 784              	.LCFI10:
 785              		.cfi_def_cfa_offset 8
 786              		.cfi_offset 3, -8
 787              		.cfi_offset 14, -4
 107:App/Src/task.c ****         g_intState = 0;
 788              		.loc 1 107 5 is_stmt 1 view .LVU211
 107:App/Src/task.c ****         g_intState = 0;
 789              		.loc 1 107 8 is_stmt 0 view .LVU212
 790 0002 10B1     		cbz	r0, .L43
 113:App/Src/task.c ****             g_intState = 1;
 791              		.loc 1 113 9 is_stmt 1 view .LVU213
 113:App/Src/task.c ****             g_intState = 1;
 792              		.loc 1 113 12 is_stmt 0 view .LVU214
 793 0004 9142     		cmp	r1, r2
 794 0006 09D9     		bls	.L44
 795              	.LVL51:
 796              	.L39:
 120:App/Src/task.c **** 
 797              		.loc 1 120 1 view .LVU215
 798 0008 08BD     		pop	{r3, pc}
 799              	.LVL52:
 800              	.L43:
 108:App/Src/task.c ****         g_intStart = 0;
 801              		.loc 1 108 9 is_stmt 1 view .LVU216
 108:App/Src/task.c ****         g_intStart = 0;
 802              		.loc 1 108 20 is_stmt 0 view .LVU217
 803 000a 0A4B     		ldr	r3, .L45
 804 000c 1870     		strb	r0, [r3]
 109:App/Src/task.c ****         g_intEnd = 0;
 805              		.loc 1 109 9 is_stmt 1 view .LVU218
 109:App/Src/task.c ****         g_intEnd = 0;
 806              		.loc 1 109 20 is_stmt 0 view .LVU219
 807 000e 0A4B     		ldr	r3, .L45+4
 808 0010 1870     		strb	r0, [r3]
 110:App/Src/task.c ****         command_int_test(0);
 809              		.loc 1 110 9 is_stmt 1 view .LVU220
 110:App/Src/task.c ****         command_int_test(0);
 810              		.loc 1 110 18 is_stmt 0 view .LVU221
 811 0012 0A4B     		ldr	r3, .L45+8
 812 0014 1870     		strb	r0, [r3]
 111:App/Src/task.c ****     } else {
 813              		.loc 1 111 9 is_stmt 1 view .LVU222
 814 0016 FFF7FEFF 		bl	command_int_test
ARM GAS  C:\Users\86158\AppData\Local\Temp\cck4kAYW.s 			page 21


 815              	.LVL53:
 111:App/Src/task.c ****     } else {
 816              		.loc 1 111 9 is_stmt 0 view .LVU223
 817 001a F5E7     		b	.L39
 818              	.LVL54:
 819              	.L44:
 114:App/Src/task.c ****             g_intStart = start;
 820              		.loc 1 114 13 is_stmt 1 view .LVU224
 114:App/Src/task.c ****             g_intStart = start;
 821              		.loc 1 114 24 is_stmt 0 view .LVU225
 822 001c 054B     		ldr	r3, .L45
 823 001e 0120     		movs	r0, #1
 824              	.LVL55:
 114:App/Src/task.c ****             g_intStart = start;
 825              		.loc 1 114 24 view .LVU226
 826 0020 1870     		strb	r0, [r3]
 115:App/Src/task.c ****             g_intEnd = end;
 827              		.loc 1 115 13 is_stmt 1 view .LVU227
 115:App/Src/task.c ****             g_intEnd = end;
 828              		.loc 1 115 24 is_stmt 0 view .LVU228
 829 0022 054B     		ldr	r3, .L45+4
 830 0024 1970     		strb	r1, [r3]
 116:App/Src/task.c ****             command_int_test(0);
 831              		.loc 1 116 13 is_stmt 1 view .LVU229
 116:App/Src/task.c ****             command_int_test(0);
 832              		.loc 1 116 22 is_stmt 0 view .LVU230
 833 0026 054B     		ldr	r3, .L45+8
 834 0028 1A70     		strb	r2, [r3]
 117:App/Src/task.c ****         }
 835              		.loc 1 117 13 is_stmt 1 view .LVU231
 836 002a 0020     		movs	r0, #0
 837 002c FFF7FEFF 		bl	command_int_test
 838              	.LVL56:
 120:App/Src/task.c **** 
 839              		.loc 1 120 1 is_stmt 0 view .LVU232
 840 0030 EAE7     		b	.L39
 841              	.L46:
 842 0032 00BF     		.align	2
 843              	.L45:
 844 0034 00000000 		.word	.LANCHOR8
 845 0038 00000000 		.word	.LANCHOR4
 846 003c 00000000 		.word	.LANCHOR5
 847              		.cfi_endproc
 848              	.LFE239:
 850              		.global	__aeabi_dcmpgt
 851              		.global	__aeabi_dcmplt
 852              		.global	__aeabi_dadd
 853              		.section	.rodata.rtc_freq_save.str1.4,"aMS",%progbits,1
 854              		.align	2
 855              	.LC9:
 856 0000 73756363 		.ascii	"success, temp:%.2f, best cap:%.2f, min ppm %.2f\012"
 856      6573732C 
 856      2074656D 
 856      703A252E 
 856      32662C20 
 857 0030 00       		.ascii	"\000"
 858 0031 000000   		.align	2
ARM GAS  C:\Users\86158\AppData\Local\Temp\cck4kAYW.s 			page 22


 859              	.LC10:
 860 0034 63686563 		.ascii	"check rtc temp error, temp:%.2f\012\000"
 860      6B207274 
 860      63207465 
 860      6D702065 
 860      72726F72 
 861 0055 000000   		.align	2
 862              	.LC11:
 863 0058 6572726F 		.ascii	"error and stop, temp:%.2f, best cap:%.2f, min ppm %"
 863      7220616E 
 863      64207374 
 863      6F702C20 
 863      74656D70 
 864 008b 2E32660A 		.ascii	".2f\012\000"
 864      00
 865              		.section	.text.rtc_freq_save,"ax",%progbits
 866              		.align	1
 867              		.global	rtc_freq_save
 868              		.syntax unified
 869              		.thumb
 870              		.thumb_func
 872              	rtc_freq_save:
 873              	.LVL57:
 874              	.LFB241:
 198:App/Src/task.c **** 
 199:App/Src/task.c **** void rtc_freq_save(uint8_t mode,  float cap, float ppm)
 200:App/Src/task.c **** {
 875              		.loc 1 200 1 is_stmt 1 view -0
 876              		.cfi_startproc
 877              		@ args = 0, pretend = 0, frame = 8
 878              		@ frame_needed = 0, uses_anonymous_args = 0
 879              		.loc 1 200 1 is_stmt 0 view .LVU234
 880 0000 2DE9F04F 		push	{r4, r5, r6, r7, r8, r9, r10, fp, lr}
 881              	.LCFI11:
 882              		.cfi_def_cfa_offset 36
 883              		.cfi_offset 4, -36
 884              		.cfi_offset 5, -32
 885              		.cfi_offset 6, -28
 886              		.cfi_offset 7, -24
 887              		.cfi_offset 8, -20
 888              		.cfi_offset 9, -16
 889              		.cfi_offset 10, -12
 890              		.cfi_offset 11, -8
 891              		.cfi_offset 14, -4
 892 0004 2DED028B 		vpush.64	{d8}
 893              	.LCFI12:
 894              		.cfi_def_cfa_offset 44
 895              		.cfi_offset 80, -44
 896              		.cfi_offset 81, -40
 897 0008 87B0     		sub	sp, sp, #28
 898              	.LCFI13:
 899              		.cfi_def_cfa_offset 72
 900 000a 0446     		mov	r4, r0
 901 000c 10EE105A 		vmov	r5, s0
 902 0010 10EE90AA 		vmov	r10, s1
 201:App/Src/task.c ****     float temp, rtcTemp = 0, centerTemp;
 903              		.loc 1 201 5 is_stmt 1 view .LVU235
ARM GAS  C:\Users\86158\AppData\Local\Temp\cck4kAYW.s 			page 23


 904              	.LVL58:
 202:App/Src/task.c ****     uint32_t address;
 905              		.loc 1 202 5 view .LVU236
 203:App/Src/task.c ****     uint8_t buffer[4] = {0};
 906              		.loc 1 203 5 view .LVU237
 907              		.loc 1 203 13 is_stmt 0 view .LVU238
 908 0014 0023     		movs	r3, #0
 909 0016 0493     		str	r3, [sp, #16]
 204:App/Src/task.c ****     uint8_t check = 0;
 910              		.loc 1 204 5 is_stmt 1 view .LVU239
 911              	.LVL59:
 205:App/Src/task.c **** 
 206:App/Src/task.c ****     address = TEST_RESULT_START_ADDR + (g_capAdjust.count - 1) * TEST_RESULT_ONE_SIZE + TEST_DOT_TE
 912              		.loc 1 206 5 view .LVU240
 913              		.loc 1 206 52 is_stmt 0 view .LVU241
 914 0018 814B     		ldr	r3, .L65
 915 001a 1B7C     		ldrb	r3, [r3, #16]	@ zero_extendqisi2
 916              		.loc 1 206 38 view .LVU242
 917 001c 0733     		adds	r3, r3, #7
 918 001e 5B02     		lsls	r3, r3, #9
 919              	.LVL60:
 207:App/Src/task.c ****     flash_read_data(address, buffer, 4);//根据地址调用flash函数读取4byte数据
 920              		.loc 1 207 5 is_stmt 1 view .LVU243
 921 0020 0422     		movs	r2, #4
 922 0022 04A9     		add	r1, sp, #16
 923 0024 03F11000 		add	r0, r3, #16
 924              	.LVL61:
 925              		.loc 1 207 5 is_stmt 0 view .LVU244
 926 0028 FFF7FEFF 		bl	flash_read_data
 927              	.LVL62:
 208:App/Src/task.c ****     uint8_to_float(&centerTemp, buffer);//类型转换为float
 928              		.loc 1 208 5 is_stmt 1 view .LVU245
 929 002c 04A9     		add	r1, sp, #16
 930 002e 05A8     		add	r0, sp, #20
 931 0030 FFF7FEFF 		bl	uint8_to_float
 932              	.LVL63:
 209:App/Src/task.c ****     if (mode == CAP_ADJUST_SUCCESS) {
 933              		.loc 1 209 5 view .LVU246
 934              		.loc 1 209 8 is_stmt 0 view .LVU247
 935 0034 022C     		cmp	r4, #2
 936 0036 07D0     		beq	.L63
 937              	.LVL64:
 938              	.L48:
 210:App/Src/task.c ****         temp = temp_read_value(1);// read system temp
 211:App/Src/task.c ****         rtcTemp = g_capAdjust.temp;
 212:App/Src/task.c ****     
 213:App/Src/task.c ****         if (temp < 35 && temp > 15) {
 214:App/Src/task.c ****             if ((rtcTemp * 0.5 - temp) > 70 && (rtcTemp * 0.5 - temp) < 130) {                
 215:App/Src/task.c ****                 check = 1;
 216:App/Src/task.c ****             } 
 217:App/Src/task.c ****         } else {
 218:App/Src/task.c ****             if ((centerTemp - rtcTemp) * 0.5 > (25.0 - temp - 8) && (centerTemp - rtcTemp) * 0.5 < 
 219:App/Src/task.c ****                 check = 1;
 220:App/Src/task.c ****             } 
 221:App/Src/task.c ****         }
 222:App/Src/task.c ****         if (check == 1) {
 223:App/Src/task.c ****         // g_capAdjust.flag = CAP_ADJUST_SUCCESS;  等待中心温度点计算
ARM GAS  C:\Users\86158\AppData\Local\Temp\cck4kAYW.s 			page 24


 224:App/Src/task.c ****             g_capAdjust.cap = cap;
 225:App/Src/task.c ****             g_capAdjust.ppm = ppm;
 226:App/Src/task.c ****             UsbPrintf("success, temp:%.2f, best cap:%.2f, min ppm %.2f\n", g_capAdjust.temp, g_capA
 227:App/Src/task.c ****             log_printf("success, temp:%.2f, best cap:%.2f, min ppm %.2f\n", g_capAdjust.temp, g_cap
 228:App/Src/task.c ****         } else {
 229:App/Src/task.c ****             g_capAdjust.flag = CAP_ADJUST_ERROR;
 230:App/Src/task.c ****             g_capAdjust.cap = 0;
 231:App/Src/task.c ****             g_capAdjust.ppm = 1000;
 232:App/Src/task.c ****             UsbPrintf("check rtc temp error, temp:%.2f\n", rtcTemp);
 233:App/Src/task.c ****             log_printf("check rtc temp error, temp:%.2f\n", rtcTemp);
 234:App/Src/task.c ****         }
 235:App/Src/task.c ****     } 
 236:App/Src/task.c **** 
 237:App/Src/task.c ****     if (mode == CAP_ADJUST_ERROR) {
 939              		.loc 1 237 5 is_stmt 1 view .LVU248
 940              		.loc 1 237 8 is_stmt 0 view .LVU249
 941 0038 012C     		cmp	r4, #1
 942 003a 00F0C180 		beq	.L64
 943              	.L47:
 238:App/Src/task.c ****         g_capAdjust.flag = CAP_ADJUST_ERROR;
 239:App/Src/task.c ****         g_capAdjust.cap = 0;
 240:App/Src/task.c ****         g_capAdjust.ppm = 1000;
 241:App/Src/task.c ****         UsbPrintf("error and stop, temp:%.2f, best cap:%.2f, min ppm %.2f\n", g_capAdjust.temp, g_c
 242:App/Src/task.c ****         log_printf("error and stop, temp:%.2f, best cap:%.2f, min ppm %.2f\n", g_capAdjust.temp, g_
 243:App/Src/task.c ****     }
 244:App/Src/task.c **** }
 944              		.loc 1 244 1 view .LVU250
 945 003e 07B0     		add	sp, sp, #28
 946              	.LCFI14:
 947              		.cfi_remember_state
 948              		.cfi_def_cfa_offset 44
 949              		@ sp needed
 950 0040 BDEC028B 		vldm	sp!, {d8}
 951              	.LCFI15:
 952              		.cfi_restore 80
 953              		.cfi_restore 81
 954              		.cfi_def_cfa_offset 36
 955 0044 BDE8F08F 		pop	{r4, r5, r6, r7, r8, r9, r10, fp, pc}
 956              	.LVL65:
 957              	.L63:
 958              	.LCFI16:
 959              		.cfi_restore_state
 210:App/Src/task.c ****         temp = temp_read_value(1);// read system temp
 960              		.loc 1 210 9 is_stmt 1 view .LVU251
 210:App/Src/task.c ****         temp = temp_read_value(1);// read system temp
 961              		.loc 1 210 16 is_stmt 0 view .LVU252
 962 0048 0120     		movs	r0, #1
 963 004a FFF7FEFF 		bl	temp_read_value
 964              	.LVL66:
 965 004e B0EE408A 		vmov.f32	s16, s0
 966              	.LVL67:
 211:App/Src/task.c ****     
 967              		.loc 1 211 9 is_stmt 1 view .LVU253
 211:App/Src/task.c ****     
 968              		.loc 1 211 17 is_stmt 0 view .LVU254
 969 0052 734B     		ldr	r3, .L65
 970 0054 D3F808B0 		ldr	fp, [r3, #8]	@ float
ARM GAS  C:\Users\86158\AppData\Local\Temp\cck4kAYW.s 			page 25


 971              	.LVL68:
 213:App/Src/task.c ****             if ((rtcTemp * 0.5 - temp) > 70 && (rtcTemp * 0.5 - temp) < 130) {                
 972              		.loc 1 213 9 is_stmt 1 view .LVU255
 213:App/Src/task.c ****             if ((rtcTemp * 0.5 - temp) > 70 && (rtcTemp * 0.5 - temp) < 130) {                
 973              		.loc 1 213 12 is_stmt 0 view .LVU256
 974 0058 DFED727A 		vldr.32	s15, .L65+4
 975 005c B4EEE70A 		vcmpe.f32	s0, s15
 976 0060 F1EE10FA 		vmrs	APSR_nzcv, FPSCR
 977 0064 40D5     		bpl	.L49
 213:App/Src/task.c ****             if ((rtcTemp * 0.5 - temp) > 70 && (rtcTemp * 0.5 - temp) < 130) {                
 978              		.loc 1 213 23 discriminator 1 view .LVU257
 979 0066 F2EE0E7A 		vmov.f32	s15, #1.5e+1
 980 006a B4EEE70A 		vcmpe.f32	s0, s15
 981 006e F1EE10FA 		vmrs	APSR_nzcv, FPSCR
 982 0072 39DD     		ble	.L49
 214:App/Src/task.c ****                 check = 1;
 983              		.loc 1 214 13 is_stmt 1 view .LVU258
 214:App/Src/task.c ****                 check = 1;
 984              		.loc 1 214 26 is_stmt 0 view .LVU259
 985 0074 5846     		mov	r0, fp	@ float
 986 0076 FFF7FEFF 		bl	__aeabi_f2d
 987              	.LVL69:
 214:App/Src/task.c ****                 check = 1;
 988              		.loc 1 214 26 view .LVU260
 989 007a 0022     		movs	r2, #0
 990 007c 6A4B     		ldr	r3, .L65+8
 991 007e FFF7FEFF 		bl	__aeabi_dmul
 992              	.LVL70:
 993 0082 0646     		mov	r6, r0
 994 0084 0F46     		mov	r7, r1
 214:App/Src/task.c ****                 check = 1;
 995              		.loc 1 214 32 view .LVU261
 996 0086 18EE100A 		vmov	r0, s16
 997 008a FFF7FEFF 		bl	__aeabi_f2d
 998              	.LVL71:
 999 008e 0246     		mov	r2, r0
 1000 0090 0B46     		mov	r3, r1
 1001 0092 3046     		mov	r0, r6
 1002 0094 3946     		mov	r1, r7
 1003 0096 FFF7FEFF 		bl	__aeabi_dsub
 1004              	.LVL72:
 1005 009a 0646     		mov	r6, r0
 1006 009c 0F46     		mov	r7, r1
 214:App/Src/task.c ****                 check = 1;
 1007              		.loc 1 214 16 view .LVU262
 1008 009e 0022     		movs	r2, #0
 1009 00a0 624B     		ldr	r3, .L65+12
 1010 00a2 FFF7FEFF 		bl	__aeabi_dcmpgt
 1011              	.LVL73:
 1012 00a6 38B1     		cbz	r0, .L52
 214:App/Src/task.c ****                 check = 1;
 1013              		.loc 1 214 45 discriminator 1 view .LVU263
 1014 00a8 0022     		movs	r2, #0
 1015 00aa 614B     		ldr	r3, .L65+16
 1016 00ac 3046     		mov	r0, r6
 1017 00ae 3946     		mov	r1, r7
 1018 00b0 FFF7FEFF 		bl	__aeabi_dcmplt
ARM GAS  C:\Users\86158\AppData\Local\Temp\cck4kAYW.s 			page 26


 1019              	.LVL74:
 1020 00b4 0028     		cmp	r0, #0
 1021 00b6 4DD1     		bne	.L54
 1022              	.L52:
 1023              	.LVL75:
 229:App/Src/task.c ****             g_capAdjust.cap = 0;
 1024              		.loc 1 229 13 is_stmt 1 view .LVU264
 229:App/Src/task.c ****             g_capAdjust.cap = 0;
 1025              		.loc 1 229 30 is_stmt 0 view .LVU265
 1026 00b8 594B     		ldr	r3, .L65
 1027 00ba 0122     		movs	r2, #1
 1028 00bc 1A70     		strb	r2, [r3]
 230:App/Src/task.c ****             g_capAdjust.ppm = 1000;
 1029              		.loc 1 230 13 is_stmt 1 view .LVU266
 230:App/Src/task.c ****             g_capAdjust.ppm = 1000;
 1030              		.loc 1 230 29 is_stmt 0 view .LVU267
 1031 00be 0022     		movs	r2, #0
 1032 00c0 5A60     		str	r2, [r3, #4]	@ float
 231:App/Src/task.c ****             UsbPrintf("check rtc temp error, temp:%.2f\n", rtcTemp);
 1033              		.loc 1 231 13 is_stmt 1 view .LVU268
 231:App/Src/task.c ****             UsbPrintf("check rtc temp error, temp:%.2f\n", rtcTemp);
 1034              		.loc 1 231 29 is_stmt 0 view .LVU269
 1035 00c2 5C4A     		ldr	r2, .L65+20
 1036 00c4 DA60     		str	r2, [r3, #12]	@ float
 232:App/Src/task.c ****             log_printf("check rtc temp error, temp:%.2f\n", rtcTemp);
 1037              		.loc 1 232 13 is_stmt 1 view .LVU270
 1038 00c6 5846     		mov	r0, fp	@ float
 1039 00c8 FFF7FEFF 		bl	__aeabi_f2d
 1040              	.LVL76:
 1041 00cc 0646     		mov	r6, r0
 1042 00ce 0F46     		mov	r7, r1
 1043 00d0 594D     		ldr	r5, .L65+24
 1044              	.LVL77:
 232:App/Src/task.c ****             log_printf("check rtc temp error, temp:%.2f\n", rtcTemp);
 1045              		.loc 1 232 13 is_stmt 0 view .LVU271
 1046 00d2 0246     		mov	r2, r0
 1047 00d4 0B46     		mov	r3, r1
 1048 00d6 2846     		mov	r0, r5
 1049 00d8 FFF7FEFF 		bl	UsbPrintf
 1050              	.LVL78:
 233:App/Src/task.c ****         }
 1051              		.loc 1 233 13 is_stmt 1 view .LVU272
 1052 00dc 3246     		mov	r2, r6
 1053 00de 3B46     		mov	r3, r7
 1054 00e0 2846     		mov	r0, r5
 1055 00e2 FFF7FEFF 		bl	log_printf
 1056              	.LVL79:
 1057 00e6 A7E7     		b	.L48
 1058              	.LVL80:
 1059              	.L49:
 218:App/Src/task.c ****                 check = 1;
 1060              		.loc 1 218 13 view .LVU273
 218:App/Src/task.c ****                 check = 1;
 1061              		.loc 1 218 29 is_stmt 0 view .LVU274
 1062 00e8 DDED057A 		vldr.32	s15, [sp, #20]
 1063 00ec 07EE10BA 		vmov	s14, fp
 1064 00f0 77EEC77A 		vsub.f32	s15, s15, s14
ARM GAS  C:\Users\86158\AppData\Local\Temp\cck4kAYW.s 			page 27


 1065 00f4 17EE900A 		vmov	r0, s15
 1066 00f8 FFF7FEFF 		bl	__aeabi_f2d
 1067              	.LVL81:
 218:App/Src/task.c ****                 check = 1;
 1068              		.loc 1 218 40 view .LVU275
 1069 00fc 0022     		movs	r2, #0
 1070 00fe 4A4B     		ldr	r3, .L65+8
 1071 0100 FFF7FEFF 		bl	__aeabi_dmul
 1072              	.LVL82:
 1073 0104 0646     		mov	r6, r0
 1074 0106 0F46     		mov	r7, r1
 218:App/Src/task.c ****                 check = 1;
 1075              		.loc 1 218 54 view .LVU276
 1076 0108 18EE100A 		vmov	r0, s16
 1077 010c FFF7FEFF 		bl	__aeabi_f2d
 1078              	.LVL83:
 1079 0110 0246     		mov	r2, r0
 1080 0112 0B46     		mov	r3, r1
 1081 0114 0020     		movs	r0, #0
 1082 0116 4949     		ldr	r1, .L65+28
 1083 0118 FFF7FEFF 		bl	__aeabi_dsub
 1084              	.LVL84:
 1085 011c 8046     		mov	r8, r0
 1086 011e 8946     		mov	r9, r1
 218:App/Src/task.c ****                 check = 1;
 1087              		.loc 1 218 61 view .LVU277
 1088 0120 0022     		movs	r2, #0
 1089 0122 474B     		ldr	r3, .L65+32
 1090 0124 FFF7FEFF 		bl	__aeabi_dsub
 1091              	.LVL85:
 1092 0128 0246     		mov	r2, r0
 1093 012a 0B46     		mov	r3, r1
 218:App/Src/task.c ****                 check = 1;
 1094              		.loc 1 218 16 view .LVU278
 1095 012c 3046     		mov	r0, r6
 1096 012e 3946     		mov	r1, r7
 1097 0130 FFF7FEFF 		bl	__aeabi_dcmpgt
 1098              	.LVL86:
 1099 0134 0028     		cmp	r0, #0
 1100 0136 BFD0     		beq	.L52
 218:App/Src/task.c ****                 check = 1;
 1101              		.loc 1 218 113 discriminator 1 view .LVU279
 1102 0138 0022     		movs	r2, #0
 1103 013a 414B     		ldr	r3, .L65+32
 1104 013c 4046     		mov	r0, r8
 1105 013e 4946     		mov	r1, r9
 1106 0140 FFF7FEFF 		bl	__aeabi_dadd
 1107              	.LVL87:
 1108 0144 0246     		mov	r2, r0
 1109 0146 0B46     		mov	r3, r1
 218:App/Src/task.c ****                 check = 1;
 1110              		.loc 1 218 66 discriminator 1 view .LVU280
 1111 0148 3046     		mov	r0, r6
 1112 014a 3946     		mov	r1, r7
 1113 014c FFF7FEFF 		bl	__aeabi_dcmplt
 1114              	.LVL88:
 1115 0150 0028     		cmp	r0, #0
ARM GAS  C:\Users\86158\AppData\Local\Temp\cck4kAYW.s 			page 28


 1116 0152 B1D0     		beq	.L52
 1117              	.L54:
 1118              	.LVL89:
 224:App/Src/task.c ****             g_capAdjust.ppm = ppm;
 1119              		.loc 1 224 13 is_stmt 1 view .LVU281
 224:App/Src/task.c ****             g_capAdjust.ppm = ppm;
 1120              		.loc 1 224 29 is_stmt 0 view .LVU282
 1121 0154 DFF8C880 		ldr	r8, .L65
 1122 0158 C8F80450 		str	r5, [r8, #4]	@ float
 225:App/Src/task.c ****             UsbPrintf("success, temp:%.2f, best cap:%.2f, min ppm %.2f\n", g_capAdjust.temp, g_capA
 1123              		.loc 1 225 13 is_stmt 1 view .LVU283
 225:App/Src/task.c ****             UsbPrintf("success, temp:%.2f, best cap:%.2f, min ppm %.2f\n", g_capAdjust.temp, g_capA
 1124              		.loc 1 225 29 is_stmt 0 view .LVU284
 1125 015c C8F80CA0 		str	r10, [r8, #12]	@ float
 226:App/Src/task.c ****             log_printf("success, temp:%.2f, best cap:%.2f, min ppm %.2f\n", g_capAdjust.temp, g_cap
 1126              		.loc 1 226 13 is_stmt 1 view .LVU285
 1127 0160 5846     		mov	r0, fp	@ float
 1128 0162 FFF7FEFF 		bl	__aeabi_f2d
 1129              	.LVL90:
 1130 0166 0646     		mov	r6, r0
 1131 0168 0F46     		mov	r7, r1
 1132 016a DFF8E090 		ldr	r9, .L65+44
 1133 016e 5046     		mov	r0, r10	@ float
 1134 0170 FFF7FEFF 		bl	__aeabi_f2d
 1135              	.LVL91:
 1136 0174 CDE90201 		strd	r0, [sp, #8]
 1137 0178 2846     		mov	r0, r5	@ float
 1138 017a FFF7FEFF 		bl	__aeabi_f2d
 1139              	.LVL92:
 1140 017e CDE90001 		strd	r0, [sp]
 1141 0182 3246     		mov	r2, r6
 1142 0184 3B46     		mov	r3, r7
 1143 0186 4846     		mov	r0, r9
 1144 0188 FFF7FEFF 		bl	UsbPrintf
 1145              	.LVL93:
 227:App/Src/task.c ****         } else {
 1146              		.loc 1 227 13 view .LVU286
 227:App/Src/task.c ****         } else {
 1147              		.loc 1 227 106 is_stmt 0 view .LVU287
 1148 018c D8F80450 		ldr	r5, [r8, #4]	@ float
 1149              	.LVL94:
 227:App/Src/task.c ****         } else {
 1150              		.loc 1 227 124 view .LVU288
 1151 0190 D8F80CA0 		ldr	r10, [r8, #12]	@ float
 1152              	.LVL95:
 227:App/Src/task.c ****         } else {
 1153              		.loc 1 227 13 view .LVU289
 1154 0194 D8F80800 		ldr	r0, [r8, #8]	@ float
 1155 0198 FFF7FEFF 		bl	__aeabi_f2d
 1156              	.LVL96:
 1157 019c 0646     		mov	r6, r0
 1158 019e 0F46     		mov	r7, r1
 1159 01a0 5046     		mov	r0, r10	@ float
 1160 01a2 FFF7FEFF 		bl	__aeabi_f2d
 1161              	.LVL97:
 1162 01a6 CDE90201 		strd	r0, [sp, #8]
 1163 01aa 2846     		mov	r0, r5	@ float
ARM GAS  C:\Users\86158\AppData\Local\Temp\cck4kAYW.s 			page 29


 1164 01ac FFF7FEFF 		bl	__aeabi_f2d
 1165              	.LVL98:
 1166 01b0 CDE90001 		strd	r0, [sp]
 1167 01b4 3246     		mov	r2, r6
 1168 01b6 3B46     		mov	r3, r7
 1169 01b8 4846     		mov	r0, r9
 1170 01ba FFF7FEFF 		bl	log_printf
 1171              	.LVL99:
 1172 01be 3BE7     		b	.L48
 1173              	.LVL100:
 1174              	.L64:
 238:App/Src/task.c ****         g_capAdjust.cap = 0;
 1175              		.loc 1 238 9 is_stmt 1 view .LVU290
 238:App/Src/task.c ****         g_capAdjust.cap = 0;
 1176              		.loc 1 238 26 is_stmt 0 view .LVU291
 1177 01c0 174C     		ldr	r4, .L65
 1178 01c2 0123     		movs	r3, #1
 1179 01c4 2370     		strb	r3, [r4]
 239:App/Src/task.c ****         g_capAdjust.ppm = 1000;
 1180              		.loc 1 239 9 is_stmt 1 view .LVU292
 239:App/Src/task.c ****         g_capAdjust.ppm = 1000;
 1181              		.loc 1 239 25 is_stmt 0 view .LVU293
 1182 01c6 0023     		movs	r3, #0
 1183 01c8 6360     		str	r3, [r4, #4]	@ float
 240:App/Src/task.c ****         UsbPrintf("error and stop, temp:%.2f, best cap:%.2f, min ppm %.2f\n", g_capAdjust.temp, g_c
 1184              		.loc 1 240 9 is_stmt 1 view .LVU294
 240:App/Src/task.c ****         UsbPrintf("error and stop, temp:%.2f, best cap:%.2f, min ppm %.2f\n", g_capAdjust.temp, g_c
 1185              		.loc 1 240 25 is_stmt 0 view .LVU295
 1186 01ca 1A4B     		ldr	r3, .L65+20
 1187 01cc E360     		str	r3, [r4, #12]	@ float
 241:App/Src/task.c ****         log_printf("error and stop, temp:%.2f, best cap:%.2f, min ppm %.2f\n", g_capAdjust.temp, g_
 1188              		.loc 1 241 9 is_stmt 1 view .LVU296
 1189 01ce A068     		ldr	r0, [r4, #8]	@ float
 1190 01d0 FFF7FEFF 		bl	__aeabi_f2d
 1191              	.LVL101:
 1192 01d4 0246     		mov	r2, r0
 1193 01d6 0B46     		mov	r3, r1
 1194 01d8 1A4E     		ldr	r6, .L65+36
 1195 01da 0020     		movs	r0, #0
 1196 01dc 1A49     		ldr	r1, .L65+40
 1197 01de CDE90201 		strd	r0, [sp, #8]
 1198 01e2 0020     		movs	r0, #0
 1199 01e4 0021     		movs	r1, #0
 1200 01e6 CDE90001 		strd	r0, [sp]
 1201 01ea 3046     		mov	r0, r6
 1202 01ec FFF7FEFF 		bl	UsbPrintf
 1203              	.LVL102:
 242:App/Src/task.c ****     }
 1204              		.loc 1 242 9 view .LVU297
 242:App/Src/task.c ****     }
 1205              		.loc 1 242 109 is_stmt 0 view .LVU298
 1206 01f0 6768     		ldr	r7, [r4, #4]	@ float
 242:App/Src/task.c ****     }
 1207              		.loc 1 242 127 view .LVU299
 1208 01f2 D4F80C80 		ldr	r8, [r4, #12]	@ float
 242:App/Src/task.c ****     }
 1209              		.loc 1 242 9 view .LVU300
ARM GAS  C:\Users\86158\AppData\Local\Temp\cck4kAYW.s 			page 30


 1210 01f6 A068     		ldr	r0, [r4, #8]	@ float
 1211 01f8 FFF7FEFF 		bl	__aeabi_f2d
 1212              	.LVL103:
 1213 01fc 0446     		mov	r4, r0
 1214 01fe 0D46     		mov	r5, r1
 1215 0200 4046     		mov	r0, r8	@ float
 1216 0202 FFF7FEFF 		bl	__aeabi_f2d
 1217              	.LVL104:
 1218 0206 CDE90201 		strd	r0, [sp, #8]
 1219 020a 3846     		mov	r0, r7	@ float
 1220 020c FFF7FEFF 		bl	__aeabi_f2d
 1221              	.LVL105:
 1222 0210 CDE90001 		strd	r0, [sp]
 1223 0214 2246     		mov	r2, r4
 1224 0216 2B46     		mov	r3, r5
 1225 0218 3046     		mov	r0, r6
 1226 021a FFF7FEFF 		bl	log_printf
 1227              	.LVL106:
 1228              		.loc 1 244 1 view .LVU301
 1229 021e 0EE7     		b	.L47
 1230              	.L66:
 1231              		.align	2
 1232              	.L65:
 1233 0220 00000000 		.word	g_capAdjust
 1234 0224 00000C42 		.word	1108082688
 1235 0228 0000E03F 		.word	1071644672
 1236 022c 00805140 		.word	1079083008
 1237 0230 00406040 		.word	1080049664
 1238 0234 00007A44 		.word	1148846080
 1239 0238 34000000 		.word	.LC10
 1240 023c 00003940 		.word	1077477376
 1241 0240 00002040 		.word	1075838976
 1242 0244 58000000 		.word	.LC11
 1243 0248 00408F40 		.word	1083129856
 1244 024c 00000000 		.word	.LC9
 1245              		.cfi_endproc
 1246              	.LFE241:
 1248              		.section	.rodata.rtc_freq_test.str1.4,"aMS",%progbits,1
 1249              		.align	2
 1250              	.LC12:
 1251 0000 73797374 		.ascii	"system temp:%.1f set init cap %.0f, adjust start..."
 1251      656D2074 
 1251      656D703A 
 1251      252E3166 
 1251      20736574 
 1252 0033 0A00     		.ascii	"\012\000"
 1253 0035 000000   		.align	2
 1254              	.LC13:
 1255 0038 63617020 		.ascii	"cap adjust fail, i2c error\012\000"
 1255      61646A75 
 1255      73742066 
 1255      61696C2C 
 1255      20693263 
 1256              		.align	2
 1257              	.LC14:
 1258 0054 6361705B 		.ascii	"cap[%.1f], %fHz, %.2fppm\012\000"
 1258      252E3166 
ARM GAS  C:\Users\86158\AppData\Local\Temp\cck4kAYW.s 			page 31


 1258      5D2C2025 
 1258      66487A2C 
 1258      20252E32 
 1259 006e 0000     		.align	2
 1260              	.LC15:
 1261 0070 64657669 		.ascii	"device no response\012\000"
 1261      6365206E 
 1261      6F207265 
 1261      73706F6E 
 1261      73650A00 
 1262              		.align	2
 1263              	.LC16:
 1264 0084 63656E74 		.ascii	"center cap in %.1f : %.2fppm\012\000"
 1264      65722063 
 1264      61702069 
 1264      6E20252E 
 1264      3166203A 
 1265              		.section	.text.rtc_freq_test,"ax",%progbits
 1266              		.align	1
 1267              		.global	rtc_freq_test
 1268              		.syntax unified
 1269              		.thumb
 1270              		.thumb_func
 1272              	rtc_freq_test:
 1273              	.LVL107:
 1274              	.LFB242:
 245:App/Src/task.c ****  
 246:App/Src/task.c **** void rtc_freq_test(int mode)
 247:App/Src/task.c **** {
 1275              		.loc 1 247 1 is_stmt 1 view -0
 1276              		.cfi_startproc
 1277              		@ args = 0, pretend = 0, frame = 16
 1278              		@ frame_needed = 0, uses_anonymous_args = 0
 1279              		.loc 1 247 1 is_stmt 0 view .LVU303
 1280 0000 F0B5     		push	{r4, r5, r6, r7, lr}
 1281              	.LCFI17:
 1282              		.cfi_def_cfa_offset 20
 1283              		.cfi_offset 4, -20
 1284              		.cfi_offset 5, -16
 1285              		.cfi_offset 6, -12
 1286              		.cfi_offset 7, -8
 1287              		.cfi_offset 14, -4
 1288 0002 2DED028B 		vpush.64	{d8}
 1289              	.LCFI18:
 1290              		.cfi_def_cfa_offset 28
 1291              		.cfi_offset 80, -28
 1292              		.cfi_offset 81, -24
 1293 0006 89B0     		sub	sp, sp, #36
 1294              	.LCFI19:
 1295              		.cfi_def_cfa_offset 64
 248:App/Src/task.c ****     static int testState = 0;
 1296              		.loc 1 248 5 is_stmt 1 view .LVU304
 249:App/Src/task.c ****     static uint8_t responseCount = 0;
 1297              		.loc 1 249 5 view .LVU305
 250:App/Src/task.c ****     static uint32_t lastTestTime = 0;
 1298              		.loc 1 250 5 view .LVU306
 251:App/Src/task.c ****     float temp, ppm;
ARM GAS  C:\Users\86158\AppData\Local\Temp\cck4kAYW.s 			page 32


 1299              		.loc 1 251 5 view .LVU307
 252:App/Src/task.c **** 	uint8_t cap[2] = {0};
 1300              		.loc 1 252 2 view .LVU308
 1301              		.loc 1 252 10 is_stmt 0 view .LVU309
 1302 0008 0023     		movs	r3, #0
 1303 000a ADF81830 		strh	r3, [sp, #24]	@ movhi
 253:App/Src/task.c ****     static float lastCap = 11;
 1304              		.loc 1 253 5 is_stmt 1 view .LVU310
 254:App/Src/task.c ****     static float minPpm = 1000;
 1305              		.loc 1 254 5 view .LVU311
 255:App/Src/task.c ****     static float minCap = 0;
 1306              		.loc 1 255 5 view .LVU312
 256:App/Src/task.c ****     static uint8_t adjustCount = 0;
 1307              		.loc 1 256 5 view .LVU313
 257:App/Src/task.c ****     uint32_t address;
 1308              		.loc 1 257 5 view .LVU314
 258:App/Src/task.c ****     uint8_t buffer[4] = {0xff};
 1309              		.loc 1 258 5 view .LVU315
 1310              		.loc 1 258 13 is_stmt 0 view .LVU316
 1311 000e FF23     		movs	r3, #255
 1312 0010 0593     		str	r3, [sp, #20]
 259:App/Src/task.c **** 
 260:App/Src/task.c ****     if (mode == FREQ_TEST_STARTING) {
 1313              		.loc 1 260 5 is_stmt 1 view .LVU317
 1314              		.loc 1 260 8 is_stmt 0 view .LVU318
 1315 0012 0128     		cmp	r0, #1
 1316 0014 0CD0     		beq	.L137
 261:App/Src/task.c ****         testState = 1;
 262:App/Src/task.c ****         return;
 263:App/Src/task.c ****     }
 264:App/Src/task.c **** 
 265:App/Src/task.c ****     switch (testState) {
 1317              		.loc 1 265 5 is_stmt 1 view .LVU319
 1318 0016 B84B     		ldr	r3, .L143+8
 1319 0018 1B68     		ldr	r3, [r3]
 1320 001a 013B     		subs	r3, r3, #1
 1321 001c 052B     		cmp	r3, #5
 1322 001e 0AD8     		bhi	.L67
 1323 0020 DFE813F0 		tbh	[pc, r3, lsl #1]
 1324              	.L72:
 1325 0024 0D00     		.2byte	(.L77-.L72)/2
 1326 0026 4A00     		.2byte	(.L76-.L72)/2
 1327 0028 5A00     		.2byte	(.L75-.L72)/2
 1328 002a D401     		.2byte	(.L74-.L72)/2
 1329 002c 2802     		.2byte	(.L73-.L72)/2
 1330 002e 3902     		.2byte	(.L71-.L72)/2
 1331              		.p2align 1
 1332              	.L137:
 261:App/Src/task.c ****         testState = 1;
 1333              		.loc 1 261 9 view .LVU320
 261:App/Src/task.c ****         testState = 1;
 1334              		.loc 1 261 19 is_stmt 0 view .LVU321
 1335 0030 B14B     		ldr	r3, .L143+8
 1336 0032 0122     		movs	r2, #1
 1337 0034 1A60     		str	r2, [r3]
 262:App/Src/task.c ****     }
 1338              		.loc 1 262 9 is_stmt 1 view .LVU322
ARM GAS  C:\Users\86158\AppData\Local\Temp\cck4kAYW.s 			page 33


 1339              	.LVL108:
 1340              	.L67:
 266:App/Src/task.c ****         case 0:  break;
 267:App/Src/task.c ****         case 1:
 268:App/Src/task.c ****             temp = temp_read_value(1);// read system temp
 269:App/Src/task.c ****             lastCap = rtc_init_test_cap(temp);
 270:App/Src/task.c ****             cap_list_to_uint(lastCap, cap);
 271:App/Src/task.c ****             if (rtc_set_testcap(cap) == I2C_OK) {
 272:App/Src/task.c ****                 UsbPrintf("system temp:%.1f set init cap %.0f, adjust start...\n", temp, lastCap);
 273:App/Src/task.c ****                 minPpm = 1000;
 274:App/Src/task.c ****                 testState = 2;
 275:App/Src/task.c ****                 adjustCount = 1;
 276:App/Src/task.c ****             } else {
 277:App/Src/task.c ****                 UsbPrintf("cap adjust fail, i2c error\n");
 278:App/Src/task.c ****                 log_printf("cap adjust fail, i2c error\n");
 279:App/Src/task.c ****                 g_capAdjust.flag = CAP_ADJUST_ERROR;
 280:App/Src/task.c ****                 testState = 0;
 281:App/Src/task.c ****             }
 282:App/Src/task.c ****         break;
 283:App/Src/task.c ****         case 2:
 284:App/Src/task.c ****             lastTestTime = HAL_GetTick();
 285:App/Src/task.c ****             g_lastFreq.recordTime = lastTestTime;
 286:App/Src/task.c ****             DevicePrintf(":MEAS?\n");
 287:App/Src/task.c ****             responseCount = 0;
 288:App/Src/task.c ****             testState = 3;
 289:App/Src/task.c ****         break;
 290:App/Src/task.c ****         case 3:
 291:App/Src/task.c ****             if (g_lastFreq.recordTime > lastTestTime) {
 292:App/Src/task.c ****                 ppm = (g_lastFreq.freq / 64.0 - 1) * 1000000;
 293:App/Src/task.c ****                 UsbPrintf("cap[%.1f], %fHz, %.2fppm\n", lastCap, g_lastFreq.freq, ppm);
 294:App/Src/task.c ****                 if (fabs(ppm) <= 0.5) {
 295:App/Src/task.c ****                     testState = 4;
 296:App/Src/task.c ****                     rtc_freq_save(CAP_ADJUST_SUCCESS, lastCap, ppm);
 297:App/Src/task.c ****                     break;
 298:App/Src/task.c ****                 } else if (fabs(ppm) < 3) {
 299:App/Src/task.c ****                     if (fabs(ppm) < fabs(minPpm)) {
 300:App/Src/task.c ****                         minPpm = ppm;
 301:App/Src/task.c ****                         minCap = lastCap;
 302:App/Src/task.c ****                     }
 303:App/Src/task.c ****                     if ((ppm > 0 && minPpm < 0) || (ppm < 0 && minPpm > 0)) {
 304:App/Src/task.c ****                         testState = 4;
 305:App/Src/task.c ****                         rtc_freq_save(CAP_ADJUST_SUCCESS, minCap, minPpm);
 306:App/Src/task.c ****                         break;
 307:App/Src/task.c ****                     }
 308:App/Src/task.c ****                 } else {
 309:App/Src/task.c ****                     if ((lastCap >= SD8800_CAP_LIST_MAX && ppm >= 2) || (lastCap <= SD8800_CAP_LIST
 310:App/Src/task.c ****                         rtc_freq_save(CAP_ADJUST_ERROR, lastCap, minPpm);
 311:App/Src/task.c ****                         testState = 0;
 312:App/Src/task.c ****                         break;
 313:App/Src/task.c ****                     } 
 314:App/Src/task.c ****                 }
 315:App/Src/task.c ****                 if (fabs(ppm) < fabs(minPpm)) {
 316:App/Src/task.c ****                     minPpm = ppm;
 317:App/Src/task.c ****                     minCap = lastCap;
 318:App/Src/task.c ****                 }
 319:App/Src/task.c ****                 //---------------异常次数限制，避免卡死在该环节-----------------------
 320:App/Src/task.c ****                 adjustCount++;
ARM GAS  C:\Users\86158\AppData\Local\Temp\cck4kAYW.s 			page 34


 321:App/Src/task.c ****                 if (adjustCount > 10) { 
 322:App/Src/task.c ****                     rtc_freq_save(CAP_ADJUST_ERROR, minCap, minPpm); 
 323:App/Src/task.c ****                     testState = 0;
 324:App/Src/task.c ****                     break;
 325:App/Src/task.c ****                 }//---------------------------------------------------------
 326:App/Src/task.c ****                 if (0 < ppm && ppm < 1) {
 327:App/Src/task.c ****                     lastCap += 1;
 328:App/Src/task.c ****                 } else if (-1 < ppm && ppm < 0) {
 329:App/Src/task.c ****                     lastCap -= 1;
 330:App/Src/task.c ****                 } else {
 331:App/Src/task.c ****                     lastCap = lastCap + ppm * 2.5;
 332:App/Src/task.c ****                 }
 333:App/Src/task.c ****                 cap_list_to_uint(lastCap, cap);
 334:App/Src/task.c ****                 rtc_set_testcap(cap);
 335:App/Src/task.c ****                 testState = 2;
 336:App/Src/task.c ****             } else if (lastTestTime + 1200 < HAL_GetTick()) {
 337:App/Src/task.c ****                 UsbPrintf("device no response\n");
 338:App/Src/task.c ****                 log_printf("device no response\n");             
 339:App/Src/task.c ****                 responseCount++;
 340:App/Src/task.c ****                 if (responseCount >= 3) {//stop test
 341:App/Src/task.c ****                     testState = 0;
 342:App/Src/task.c ****                     rtc_freq_save(CAP_ADJUST_ERROR, 0, 1000);
 343:App/Src/task.c ****                 } else {
 344:App/Src/task.c ****                     lastTestTime = HAL_GetTick();
 345:App/Src/task.c ****                 }
 346:App/Src/task.c ****             }
 347:App/Src/task.c ****         break;
 348:App/Src/task.c ****         case 4:
 349:App/Src/task.c ****             temp = temp_read_value(1);
 350:App/Src/task.c ****             if ((temp < -5 && temp > -15) || (temp < 65 && temp > 55)) {
 351:App/Src/task.c ****                 address = TEST_RESULT_START_ADDR + (g_capAdjust.count - 1) * TEST_RESULT_ONE_SIZE +
 352:App/Src/task.c ****                 flash_read_data(address, buffer, 4);//根据地址调用flash函数读取4byte数据
 353:App/Src/task.c ****                 uint8_to_float(&lastCap, buffer);//类型转换为float
 354:App/Src/task.c ****                 cap_list_to_uint(lastCap, cap);//查表转换为实际电容
 355:App/Src/task.c ****                 if (rtc_set_testcap(cap) == I2C_OK) {//IIC写入rtc
 356:App/Src/task.c ****                     testState++;
 357:App/Src/task.c ****                 } else {
 358:App/Src/task.c ****                     rtc_freq_save(CAP_ADJUST_ERROR, lastCap, minPpm);
 359:App/Src/task.c ****                     testState = 0;
 360:App/Src/task.c ****                 }
 361:App/Src/task.c ****             } else {//不是-10和60度的点，调试正常退出
 362:App/Src/task.c ****                 g_capAdjust.flag = CAP_ADJUST_SUCCESS;
 363:App/Src/task.c ****                 testState = 0;
 364:App/Src/task.c ****             }
 365:App/Src/task.c ****         break;
 366:App/Src/task.c ****         case 5:
 367:App/Src/task.c ****             lastTestTime = HAL_GetTick();
 368:App/Src/task.c ****             g_lastFreq.recordTime = lastTestTime;
 369:App/Src/task.c ****             DevicePrintf(":MEAS?\n");
 370:App/Src/task.c ****             responseCount = 0;
 371:App/Src/task.c ****             testState++;
 372:App/Src/task.c ****         break;
 373:App/Src/task.c ****         case 6:
 374:App/Src/task.c ****             if (g_lastFreq.recordTime > lastTestTime) {
 375:App/Src/task.c ****                 ppm = (g_lastFreq.freq / 64.0 - 1) * 1000000;
 376:App/Src/task.c ****                 address = TEST_RESULT_START_ADDR + (g_capAdjust.count - 1) * TEST_RESULT_ONE_SIZE +
 377:App/Src/task.c ****                 temp = temp_read_value(1);
ARM GAS  C:\Users\86158\AppData\Local\Temp\cck4kAYW.s 			page 35


 378:App/Src/task.c ****                 if (temp > 55) { address += 4;}
 379:App/Src/task.c ****                 float_to_uint8(buffer, &ppm);
 380:App/Src/task.c ****                 flash_write_data(address, buffer, 4);
 381:App/Src/task.c ****                 UsbPrintf("center cap in %.1f : %.2fppm\n", temp, ppm);
 382:App/Src/task.c ****                 log_printf("center cap in %.1f : %.2fppm\n", temp, ppm);
 383:App/Src/task.c ****                 g_capAdjust.flag = CAP_ADJUST_SUCCESS;
 384:App/Src/task.c ****                 testState = 0;
 385:App/Src/task.c ****             } else if (lastTestTime + 1200 < HAL_GetTick()) {
 386:App/Src/task.c ****                 UsbPrintf("device no response\n");
 387:App/Src/task.c ****                 log_printf("device no response\n");             
 388:App/Src/task.c ****                 responseCount++;
 389:App/Src/task.c ****                 if (responseCount >= 3) {//stop test
 390:App/Src/task.c ****                     testState = 0;
 391:App/Src/task.c ****                     rtc_freq_save(CAP_ADJUST_ERROR, 0, 1000);
 392:App/Src/task.c ****                 } else {
 393:App/Src/task.c ****                     lastTestTime = HAL_GetTick();
 394:App/Src/task.c ****                 }
 395:App/Src/task.c ****             }
 396:App/Src/task.c ****         break;
 397:App/Src/task.c ****         default:  break;
 398:App/Src/task.c ****     }
 399:App/Src/task.c **** }
 1341              		.loc 1 399 1 is_stmt 0 view .LVU323
 1342 0036 09B0     		add	sp, sp, #36
 1343              	.LCFI20:
 1344              		.cfi_remember_state
 1345              		.cfi_def_cfa_offset 28
 1346              		@ sp needed
 1347 0038 BDEC028B 		vldm	sp!, {d8}
 1348              	.LCFI21:
 1349              		.cfi_restore 80
 1350              		.cfi_restore 81
 1351              		.cfi_def_cfa_offset 20
 1352 003c F0BD     		pop	{r4, r5, r6, r7, pc}
 1353              	.LVL109:
 1354              	.L77:
 1355              	.LCFI22:
 1356              		.cfi_restore_state
 268:App/Src/task.c ****             lastCap = rtc_init_test_cap(temp);
 1357              		.loc 1 268 13 is_stmt 1 view .LVU324
 268:App/Src/task.c ****             lastCap = rtc_init_test_cap(temp);
 1358              		.loc 1 268 20 is_stmt 0 view .LVU325
 1359 003e 0120     		movs	r0, #1
 1360              	.LVL110:
 268:App/Src/task.c ****             lastCap = rtc_init_test_cap(temp);
 1361              		.loc 1 268 20 view .LVU326
 1362 0040 FFF7FEFF 		bl	temp_read_value
 1363              	.LVL111:
 1364 0044 10EE104A 		vmov	r4, s0
 1365              	.LVL112:
 269:App/Src/task.c ****             cap_list_to_uint(lastCap, cap);
 1366              		.loc 1 269 13 is_stmt 1 view .LVU327
 269:App/Src/task.c ****             cap_list_to_uint(lastCap, cap);
 1367              		.loc 1 269 23 is_stmt 0 view .LVU328
 1368 0048 FFF7FEFF 		bl	rtc_init_test_cap
 1369              	.LVL113:
 1370 004c 07EE900A 		vmov	s15, r0	@ int
ARM GAS  C:\Users\86158\AppData\Local\Temp\cck4kAYW.s 			page 36


 269:App/Src/task.c ****             cap_list_to_uint(lastCap, cap);
 1371              		.loc 1 269 21 view .LVU329
 1372 0050 F8EE677A 		vcvt.f32.u32	s15, s15
 1373 0054 A94B     		ldr	r3, .L143+12
 1374 0056 C3ED007A 		vstr.32	s15, [r3]
 270:App/Src/task.c ****             if (rtc_set_testcap(cap) == I2C_OK) {
 1375              		.loc 1 270 13 is_stmt 1 view .LVU330
 1376 005a 06A9     		add	r1, sp, #24
 1377 005c FFF7FEFF 		bl	cap_list_to_uint
 1378              	.LVL114:
 271:App/Src/task.c ****                 UsbPrintf("system temp:%.1f set init cap %.0f, adjust start...\n", temp, lastCap);
 1379              		.loc 1 271 13 view .LVU331
 271:App/Src/task.c ****                 UsbPrintf("system temp:%.1f set init cap %.0f, adjust start...\n", temp, lastCap);
 1380              		.loc 1 271 17 is_stmt 0 view .LVU332
 1381 0060 06A8     		add	r0, sp, #24
 1382 0062 FFF7FEFF 		bl	rtc_set_testcap
 1383              	.LVL115:
 271:App/Src/task.c ****                 UsbPrintf("system temp:%.1f set init cap %.0f, adjust start...\n", temp, lastCap);
 1384              		.loc 1 271 16 view .LVU333
 1385 0066 C8B9     		cbnz	r0, .L78
 272:App/Src/task.c ****                 minPpm = 1000;
 1386              		.loc 1 272 17 is_stmt 1 view .LVU334
 1387 0068 2046     		mov	r0, r4	@ float
 1388 006a FFF7FEFF 		bl	__aeabi_f2d
 1389              	.LVL116:
 1390 006e 0446     		mov	r4, r0
 1391              	.LVL117:
 272:App/Src/task.c ****                 minPpm = 1000;
 1392              		.loc 1 272 17 is_stmt 0 view .LVU335
 1393 0070 0D46     		mov	r5, r1
 1394 0072 A24B     		ldr	r3, .L143+12
 1395 0074 1868     		ldr	r0, [r3]	@ float
 1396 0076 FFF7FEFF 		bl	__aeabi_f2d
 1397              	.LVL118:
 1398 007a CDE90001 		strd	r0, [sp]
 1399 007e 2246     		mov	r2, r4
 1400 0080 2B46     		mov	r3, r5
 1401 0082 9F48     		ldr	r0, .L143+16
 1402 0084 FFF7FEFF 		bl	UsbPrintf
 1403              	.LVL119:
 273:App/Src/task.c ****                 testState = 2;
 1404              		.loc 1 273 17 is_stmt 1 view .LVU336
 273:App/Src/task.c ****                 testState = 2;
 1405              		.loc 1 273 24 is_stmt 0 view .LVU337
 1406 0088 9E4B     		ldr	r3, .L143+20
 1407 008a 9F4A     		ldr	r2, .L143+24
 1408 008c 1A60     		str	r2, [r3]	@ float
 274:App/Src/task.c ****                 adjustCount = 1;
 1409              		.loc 1 274 17 is_stmt 1 view .LVU338
 274:App/Src/task.c ****                 adjustCount = 1;
 1410              		.loc 1 274 27 is_stmt 0 view .LVU339
 1411 008e 9A4B     		ldr	r3, .L143+8
 1412 0090 0222     		movs	r2, #2
 1413 0092 1A60     		str	r2, [r3]
 275:App/Src/task.c ****             } else {
 1414              		.loc 1 275 17 is_stmt 1 view .LVU340
 275:App/Src/task.c ****             } else {
ARM GAS  C:\Users\86158\AppData\Local\Temp\cck4kAYW.s 			page 37


 1415              		.loc 1 275 29 is_stmt 0 view .LVU341
 1416 0094 9D4B     		ldr	r3, .L143+28
 1417 0096 0122     		movs	r2, #1
 1418 0098 1A70     		strb	r2, [r3]
 1419 009a CCE7     		b	.L67
 1420              	.LVL120:
 1421              	.L78:
 277:App/Src/task.c ****                 log_printf("cap adjust fail, i2c error\n");
 1422              		.loc 1 277 17 is_stmt 1 view .LVU342
 1423 009c 9C4C     		ldr	r4, .L143+32
 1424              	.LVL121:
 277:App/Src/task.c ****                 log_printf("cap adjust fail, i2c error\n");
 1425              		.loc 1 277 17 is_stmt 0 view .LVU343
 1426 009e 2046     		mov	r0, r4
 1427 00a0 FFF7FEFF 		bl	UsbPrintf
 1428              	.LVL122:
 278:App/Src/task.c ****                 g_capAdjust.flag = CAP_ADJUST_ERROR;
 1429              		.loc 1 278 17 is_stmt 1 view .LVU344
 1430 00a4 2046     		mov	r0, r4
 1431 00a6 FFF7FEFF 		bl	log_printf
 1432              	.LVL123:
 279:App/Src/task.c ****                 testState = 0;
 1433              		.loc 1 279 17 view .LVU345
 279:App/Src/task.c ****                 testState = 0;
 1434              		.loc 1 279 34 is_stmt 0 view .LVU346
 1435 00aa 9A4B     		ldr	r3, .L143+36
 1436 00ac 0122     		movs	r2, #1
 1437 00ae 1A70     		strb	r2, [r3]
 280:App/Src/task.c ****             }
 1438              		.loc 1 280 17 is_stmt 1 view .LVU347
 280:App/Src/task.c ****             }
 1439              		.loc 1 280 27 is_stmt 0 view .LVU348
 1440 00b0 914B     		ldr	r3, .L143+8
 1441 00b2 0022     		movs	r2, #0
 1442 00b4 1A60     		str	r2, [r3]
 1443 00b6 BEE7     		b	.L67
 1444              	.LVL124:
 1445              	.L76:
 284:App/Src/task.c ****             g_lastFreq.recordTime = lastTestTime;
 1446              		.loc 1 284 13 is_stmt 1 view .LVU349
 284:App/Src/task.c ****             g_lastFreq.recordTime = lastTestTime;
 1447              		.loc 1 284 28 is_stmt 0 view .LVU350
 1448 00b8 FFF7FEFF 		bl	HAL_GetTick
 1449              	.LVL125:
 284:App/Src/task.c ****             g_lastFreq.recordTime = lastTestTime;
 1450              		.loc 1 284 26 view .LVU351
 1451 00bc 964B     		ldr	r3, .L143+40
 1452 00be 1860     		str	r0, [r3]
 285:App/Src/task.c ****             DevicePrintf(":MEAS?\n");
 1453              		.loc 1 285 13 is_stmt 1 view .LVU352
 285:App/Src/task.c ****             DevicePrintf(":MEAS?\n");
 1454              		.loc 1 285 35 is_stmt 0 view .LVU353
 1455 00c0 964B     		ldr	r3, .L143+44
 1456 00c2 1860     		str	r0, [r3]
 286:App/Src/task.c ****             responseCount = 0;
 1457              		.loc 1 286 13 is_stmt 1 view .LVU354
 1458 00c4 9648     		ldr	r0, .L143+48
ARM GAS  C:\Users\86158\AppData\Local\Temp\cck4kAYW.s 			page 38


 1459 00c6 FFF7FEFF 		bl	DevicePrintf
 1460              	.LVL126:
 287:App/Src/task.c ****             testState = 3;
 1461              		.loc 1 287 13 view .LVU355
 287:App/Src/task.c ****             testState = 3;
 1462              		.loc 1 287 27 is_stmt 0 view .LVU356
 1463 00ca 964B     		ldr	r3, .L143+52
 1464 00cc 0022     		movs	r2, #0
 1465 00ce 1A70     		strb	r2, [r3]
 288:App/Src/task.c ****         break;
 1466              		.loc 1 288 13 is_stmt 1 view .LVU357
 288:App/Src/task.c ****         break;
 1467              		.loc 1 288 23 is_stmt 0 view .LVU358
 1468 00d0 894B     		ldr	r3, .L143+8
 1469 00d2 0322     		movs	r2, #3
 1470 00d4 1A60     		str	r2, [r3]
 289:App/Src/task.c ****         case 3:
 1471              		.loc 1 289 9 is_stmt 1 view .LVU359
 1472 00d6 AEE7     		b	.L67
 1473              	.LVL127:
 1474              	.L75:
 291:App/Src/task.c ****                 ppm = (g_lastFreq.freq / 64.0 - 1) * 1000000;
 1475              		.loc 1 291 13 view .LVU360
 291:App/Src/task.c ****                 ppm = (g_lastFreq.freq / 64.0 - 1) * 1000000;
 1476              		.loc 1 291 27 is_stmt 0 view .LVU361
 1477 00d8 904B     		ldr	r3, .L143+44
 1478 00da 1A68     		ldr	r2, [r3]
 291:App/Src/task.c ****                 ppm = (g_lastFreq.freq / 64.0 - 1) * 1000000;
 1479              		.loc 1 291 39 view .LVU362
 1480 00dc 8E4B     		ldr	r3, .L143+40
 1481 00de 1C68     		ldr	r4, [r3]
 291:App/Src/task.c ****                 ppm = (g_lastFreq.freq / 64.0 - 1) * 1000000;
 1482              		.loc 1 291 16 view .LVU363
 1483 00e0 A242     		cmp	r2, r4
 1484 00e2 40F24E81 		bls	.L79
 292:App/Src/task.c ****                 UsbPrintf("cap[%.1f], %fHz, %.2fppm\n", lastCap, g_lastFreq.freq, ppm);
 1485              		.loc 1 292 17 is_stmt 1 view .LVU364
 292:App/Src/task.c ****                 UsbPrintf("cap[%.1f], %fHz, %.2fppm\n", lastCap, g_lastFreq.freq, ppm);
 1486              		.loc 1 292 34 is_stmt 0 view .LVU365
 1487 00e6 8D4B     		ldr	r3, .L143+44
 1488 00e8 5868     		ldr	r0, [r3, #4]	@ float
 1489              	.LVL128:
 292:App/Src/task.c ****                 UsbPrintf("cap[%.1f], %fHz, %.2fppm\n", lastCap, g_lastFreq.freq, ppm);
 1490              		.loc 1 292 34 view .LVU366
 1491 00ea FFF7FEFF 		bl	__aeabi_f2d
 1492              	.LVL129:
 1493 00ee 0246     		mov	r2, r0
 1494 00f0 0B46     		mov	r3, r1
 1495 00f2 43EC182B 		vmov	d8, r2, r3
 292:App/Src/task.c ****                 UsbPrintf("cap[%.1f], %fHz, %.2fppm\n", lastCap, g_lastFreq.freq, ppm);
 1496              		.loc 1 292 40 view .LVU367
 1497 00f6 0022     		movs	r2, #0
 1498 00f8 8B4B     		ldr	r3, .L143+56
 1499 00fa FFF7FEFF 		bl	__aeabi_dmul
 1500              	.LVL130:
 292:App/Src/task.c ****                 UsbPrintf("cap[%.1f], %fHz, %.2fppm\n", lastCap, g_lastFreq.freq, ppm);
 1501              		.loc 1 292 47 view .LVU368
ARM GAS  C:\Users\86158\AppData\Local\Temp\cck4kAYW.s 			page 39


 1502 00fe 0022     		movs	r2, #0
 1503 0100 8A4B     		ldr	r3, .L143+60
 1504 0102 FFF7FEFF 		bl	__aeabi_dsub
 1505              	.LVL131:
 292:App/Src/task.c ****                 UsbPrintf("cap[%.1f], %fHz, %.2fppm\n", lastCap, g_lastFreq.freq, ppm);
 1506              		.loc 1 292 52 view .LVU369
 1507 0106 7AA3     		adr	r3, .L143
 1508 0108 D3E90023 		ldrd	r2, [r3]
 1509 010c FFF7FEFF 		bl	__aeabi_dmul
 1510              	.LVL132:
 1511 0110 FFF7FEFF 		bl	__aeabi_d2f
 1512              	.LVL133:
 1513 0114 0446     		mov	r4, r0	@ float
 292:App/Src/task.c ****                 UsbPrintf("cap[%.1f], %fHz, %.2fppm\n", lastCap, g_lastFreq.freq, ppm);
 1514              		.loc 1 292 21 view .LVU370
 1515 0116 0790     		str	r0, [sp, #28]	@ float
 293:App/Src/task.c ****                 if (fabs(ppm) <= 0.5) {
 1516              		.loc 1 293 17 is_stmt 1 view .LVU371
 1517 0118 784B     		ldr	r3, .L143+12
 1518 011a 1868     		ldr	r0, [r3]	@ float
 1519 011c FFF7FEFF 		bl	__aeabi_f2d
 1520              	.LVL134:
 1521 0120 0646     		mov	r6, r0
 1522 0122 0F46     		mov	r7, r1
 1523 0124 2046     		mov	r0, r4	@ float
 1524 0126 FFF7FEFF 		bl	__aeabi_f2d
 1525              	.LVL135:
 1526 012a CDE90201 		strd	r0, [sp, #8]
 1527 012e 8DED008B 		vstr.64	d8, [sp]
 1528 0132 3246     		mov	r2, r6
 1529 0134 3B46     		mov	r3, r7
 1530 0136 7E48     		ldr	r0, .L143+64
 1531 0138 FFF7FEFF 		bl	UsbPrintf
 1532              	.LVL136:
 294:App/Src/task.c ****                     testState = 4;
 1533              		.loc 1 294 17 view .LVU372
 294:App/Src/task.c ****                     testState = 4;
 1534              		.loc 1 294 21 is_stmt 0 view .LVU373
 1535 013c DDED070A 		vldr.32	s1, [sp, #28]
 1536 0140 F0EEE07A 		vabs.f32	s15, s1
 294:App/Src/task.c ****                     testState = 4;
 1537              		.loc 1 294 20 view .LVU374
 1538 0144 B6EE007A 		vmov.f32	s14, #5.0e-1
 1539 0148 F4EEC77A 		vcmpe.f32	s15, s14
 1540 014c F1EE10FA 		vmrs	APSR_nzcv, FPSCR
 1541 0150 40F28380 		bls	.L138
 298:App/Src/task.c ****                     if (fabs(ppm) < fabs(minPpm)) {
 1542              		.loc 1 298 24 is_stmt 1 view .LVU375
 298:App/Src/task.c ****                     if (fabs(ppm) < fabs(minPpm)) {
 1543              		.loc 1 298 27 is_stmt 0 view .LVU376
 1544 0154 B0EE087A 		vmov.f32	s14, #3.0e+0
 1545 0158 F4EEC77A 		vcmpe.f32	s15, s14
 1546 015c F1EE10FA 		vmrs	APSR_nzcv, FPSCR
 1547 0160 40F19A80 		bpl	.L135
 299:App/Src/task.c ****                         minPpm = ppm;
 1548              		.loc 1 299 21 is_stmt 1 view .LVU377
 299:App/Src/task.c ****                         minPpm = ppm;
ARM GAS  C:\Users\86158\AppData\Local\Temp\cck4kAYW.s 			page 40


 1549              		.loc 1 299 37 is_stmt 0 view .LVU378
 1550 0164 674B     		ldr	r3, .L143+20
 1551 0166 93ED007A 		vldr.32	s14, [r3]
 1552 016a B0EEC77A 		vabs.f32	s14, s14
 299:App/Src/task.c ****                         minPpm = ppm;
 1553              		.loc 1 299 24 view .LVU379
 1554 016e F4EEC77A 		vcmpe.f32	s15, s14
 1555 0172 F1EE10FA 		vmrs	APSR_nzcv, FPSCR
 1556 0176 05D5     		bpl	.L84
 300:App/Src/task.c ****                         minCap = lastCap;
 1557              		.loc 1 300 25 is_stmt 1 view .LVU380
 300:App/Src/task.c ****                         minCap = lastCap;
 1558              		.loc 1 300 32 is_stmt 0 view .LVU381
 1559 0178 C3ED000A 		vstr.32	s1, [r3]
 301:App/Src/task.c ****                     }
 1560              		.loc 1 301 25 is_stmt 1 view .LVU382
 301:App/Src/task.c ****                     }
 1561              		.loc 1 301 32 is_stmt 0 view .LVU383
 1562 017c 5F4B     		ldr	r3, .L143+12
 1563 017e 1A68     		ldr	r2, [r3]	@ float
 1564 0180 6C4B     		ldr	r3, .L143+68
 1565 0182 1A60     		str	r2, [r3]	@ float
 1566              	.L84:
 303:App/Src/task.c ****                         testState = 4;
 1567              		.loc 1 303 21 is_stmt 1 view .LVU384
 303:App/Src/task.c ****                         testState = 4;
 1568              		.loc 1 303 24 is_stmt 0 view .LVU385
 1569 0184 F5EEC00A 		vcmpe.f32	s1, #0
 1570 0188 F1EE10FA 		vmrs	APSR_nzcv, FPSCR
 1571 018c 07DD     		ble	.L86
 303:App/Src/task.c ****                         testState = 4;
 1572              		.loc 1 303 44 discriminator 1 view .LVU386
 1573 018e 5D4B     		ldr	r3, .L143+20
 1574 0190 93ED007A 		vldr.32	s14, [r3]
 303:App/Src/task.c ****                         testState = 4;
 1575              		.loc 1 303 34 discriminator 1 view .LVU387
 1576 0194 B5EEC07A 		vcmpe.f32	s14, #0
 1577 0198 F1EE10FA 		vmrs	APSR_nzcv, FPSCR
 1578 019c 6FD4     		bmi	.L88
 1579              	.L86:
 303:App/Src/task.c ****                         testState = 4;
 1580              		.loc 1 303 49 discriminator 3 view .LVU388
 1581 019e F5EEC00A 		vcmpe.f32	s1, #0
 1582 01a2 F1EE10FA 		vmrs	APSR_nzcv, FPSCR
 1583 01a6 62D4     		bmi	.L139
 1584              	.L89:
 315:App/Src/task.c ****                     minPpm = ppm;
 1585              		.loc 1 315 17 is_stmt 1 view .LVU389
 315:App/Src/task.c ****                     minPpm = ppm;
 1586              		.loc 1 315 33 is_stmt 0 view .LVU390
 1587 01a8 564B     		ldr	r3, .L143+20
 1588 01aa 93ED007A 		vldr.32	s14, [r3]
 1589 01ae B0EEC77A 		vabs.f32	s14, s14
 315:App/Src/task.c ****                     minPpm = ppm;
 1590              		.loc 1 315 20 view .LVU391
 1591 01b2 F4EEC77A 		vcmpe.f32	s15, s14
 1592 01b6 F1EE10FA 		vmrs	APSR_nzcv, FPSCR
ARM GAS  C:\Users\86158\AppData\Local\Temp\cck4kAYW.s 			page 41


 1593 01ba 05D5     		bpl	.L97
 316:App/Src/task.c ****                     minCap = lastCap;
 1594              		.loc 1 316 21 is_stmt 1 view .LVU392
 316:App/Src/task.c ****                     minCap = lastCap;
 1595              		.loc 1 316 28 is_stmt 0 view .LVU393
 1596 01bc C3ED000A 		vstr.32	s1, [r3]
 317:App/Src/task.c ****                 }
 1597              		.loc 1 317 21 is_stmt 1 view .LVU394
 317:App/Src/task.c ****                 }
 1598              		.loc 1 317 28 is_stmt 0 view .LVU395
 1599 01c0 4E4B     		ldr	r3, .L143+12
 1600 01c2 1A68     		ldr	r2, [r3]	@ float
 1601 01c4 5B4B     		ldr	r3, .L143+68
 1602 01c6 1A60     		str	r2, [r3]	@ float
 1603              	.L97:
 320:App/Src/task.c ****                 if (adjustCount > 10) { 
 1604              		.loc 1 320 17 is_stmt 1 view .LVU396
 320:App/Src/task.c ****                 if (adjustCount > 10) { 
 1605              		.loc 1 320 28 is_stmt 0 view .LVU397
 1606 01c8 504A     		ldr	r2, .L143+28
 1607 01ca 1378     		ldrb	r3, [r2]	@ zero_extendqisi2
 1608 01cc 0133     		adds	r3, r3, #1
 1609 01ce DBB2     		uxtb	r3, r3
 1610 01d0 1370     		strb	r3, [r2]
 321:App/Src/task.c ****                     rtc_freq_save(CAP_ADJUST_ERROR, minCap, minPpm); 
 1611              		.loc 1 321 17 is_stmt 1 view .LVU398
 321:App/Src/task.c ****                     rtc_freq_save(CAP_ADJUST_ERROR, minCap, minPpm); 
 1612              		.loc 1 321 20 is_stmt 0 view .LVU399
 1613 01d2 0A2B     		cmp	r3, #10
 1614 01d4 00F2B480 		bhi	.L140
 326:App/Src/task.c ****                     lastCap += 1;
 1615              		.loc 1 326 17 is_stmt 1 view .LVU400
 326:App/Src/task.c ****                     lastCap += 1;
 1616              		.loc 1 326 20 is_stmt 0 view .LVU401
 1617 01d8 F5EEC00A 		vcmpe.f32	s1, #0
 1618 01dc F1EE10FA 		vmrs	APSR_nzcv, FPSCR
 1619 01e0 07DD     		ble	.L100
 326:App/Src/task.c ****                     lastCap += 1;
 1620              		.loc 1 326 29 discriminator 1 view .LVU402
 1621 01e2 F7EE007A 		vmov.f32	s15, #1.0e+0
 1622 01e6 F4EEE70A 		vcmpe.f32	s1, s15
 1623 01ea F1EE10FA 		vmrs	APSR_nzcv, FPSCR
 1624 01ee 00F1B480 		bmi	.L141
 1625              	.L100:
 328:App/Src/task.c ****                     lastCap -= 1;
 1626              		.loc 1 328 24 is_stmt 1 view .LVU403
 328:App/Src/task.c ****                     lastCap -= 1;
 1627              		.loc 1 328 27 is_stmt 0 view .LVU404
 1628 01f2 FFEE007A 		vmov.f32	s15, #-1.0e+0
 1629 01f6 F4EEE70A 		vcmpe.f32	s1, s15
 1630 01fa F1EE10FA 		vmrs	APSR_nzcv, FPSCR
 1631 01fe 05DD     		ble	.L104
 328:App/Src/task.c ****                     lastCap -= 1;
 1632              		.loc 1 328 37 discriminator 1 view .LVU405
 1633 0200 F5EEC00A 		vcmpe.f32	s1, #0
 1634 0204 F1EE10FA 		vmrs	APSR_nzcv, FPSCR
 1635 0208 00F1B180 		bmi	.L142
ARM GAS  C:\Users\86158\AppData\Local\Temp\cck4kAYW.s 			page 42


 1636              	.L104:
 331:App/Src/task.c ****                 }
 1637              		.loc 1 331 21 is_stmt 1 view .LVU406
 331:App/Src/task.c ****                 }
 1638              		.loc 1 331 45 is_stmt 0 view .LVU407
 1639 020c 10EE900A 		vmov	r0, s1
 1640 0210 FFF7FEFF 		bl	__aeabi_f2d
 1641              	.LVL137:
 1642 0214 0022     		movs	r2, #0
 1643 0216 484B     		ldr	r3, .L143+72
 1644 0218 FFF7FEFF 		bl	__aeabi_dmul
 1645              	.LVL138:
 1646 021c 0446     		mov	r4, r0
 1647 021e 0D46     		mov	r5, r1
 331:App/Src/task.c ****                 }
 1648              		.loc 1 331 39 view .LVU408
 1649 0220 364E     		ldr	r6, .L143+12
 1650 0222 3068     		ldr	r0, [r6]	@ float
 1651 0224 FFF7FEFF 		bl	__aeabi_f2d
 1652              	.LVL139:
 1653 0228 2246     		mov	r2, r4
 1654 022a 2B46     		mov	r3, r5
 1655 022c FFF7FEFF 		bl	__aeabi_dadd
 1656              	.LVL140:
 1657 0230 FFF7FEFF 		bl	__aeabi_d2f
 1658              	.LVL141:
 331:App/Src/task.c ****                 }
 1659              		.loc 1 331 29 view .LVU409
 1660 0234 3060     		str	r0, [r6]	@ float
 1661              	.L103:
 333:App/Src/task.c ****                 rtc_set_testcap(cap);
 1662              		.loc 1 333 17 is_stmt 1 view .LVU410
 1663 0236 314B     		ldr	r3, .L143+12
 1664 0238 D3ED007A 		vldr.32	s15, [r3]
 1665 023c FCEEE77A 		vcvt.u32.f32	s15, s15
 1666 0240 06A9     		add	r1, sp, #24
 1667 0242 17EE903A 		vmov	r3, s15	@ int
 1668 0246 98B2     		uxth	r0, r3
 1669 0248 FFF7FEFF 		bl	cap_list_to_uint
 1670              	.LVL142:
 334:App/Src/task.c ****                 testState = 2;
 1671              		.loc 1 334 17 view .LVU411
 1672 024c 06A8     		add	r0, sp, #24
 1673 024e FFF7FEFF 		bl	rtc_set_testcap
 1674              	.LVL143:
 335:App/Src/task.c ****             } else if (lastTestTime + 1200 < HAL_GetTick()) {
 1675              		.loc 1 335 17 view .LVU412
 335:App/Src/task.c ****             } else if (lastTestTime + 1200 < HAL_GetTick()) {
 1676              		.loc 1 335 27 is_stmt 0 view .LVU413
 1677 0252 294B     		ldr	r3, .L143+8
 1678 0254 0222     		movs	r2, #2
 1679 0256 1A60     		str	r2, [r3]
 1680 0258 EDE6     		b	.L67
 1681              	.L138:
 295:App/Src/task.c ****                     rtc_freq_save(CAP_ADJUST_SUCCESS, lastCap, ppm);
 1682              		.loc 1 295 21 is_stmt 1 view .LVU414
 295:App/Src/task.c ****                     rtc_freq_save(CAP_ADJUST_SUCCESS, lastCap, ppm);
ARM GAS  C:\Users\86158\AppData\Local\Temp\cck4kAYW.s 			page 43


 1683              		.loc 1 295 31 is_stmt 0 view .LVU415
 1684 025a 274B     		ldr	r3, .L143+8
 1685 025c 0422     		movs	r2, #4
 1686 025e 1A60     		str	r2, [r3]
 296:App/Src/task.c ****                     break;
 1687              		.loc 1 296 21 is_stmt 1 view .LVU416
 1688 0260 264B     		ldr	r3, .L143+12
 1689 0262 93ED000A 		vldr.32	s0, [r3]
 1690 0266 0220     		movs	r0, #2
 1691 0268 FFF7FEFF 		bl	rtc_freq_save
 1692              	.LVL144:
 297:App/Src/task.c ****                 } else if (fabs(ppm) < 3) {
 1693              		.loc 1 297 21 view .LVU417
 1694 026c E3E6     		b	.L67
 1695              	.L139:
 303:App/Src/task.c ****                         testState = 4;
 1696              		.loc 1 303 71 is_stmt 0 discriminator 4 view .LVU418
 1697 026e 254B     		ldr	r3, .L143+20
 1698 0270 93ED007A 		vldr.32	s14, [r3]
 303:App/Src/task.c ****                         testState = 4;
 1699              		.loc 1 303 61 discriminator 4 view .LVU419
 1700 0274 B5EEC07A 		vcmpe.f32	s14, #0
 1701 0278 F1EE10FA 		vmrs	APSR_nzcv, FPSCR
 1702 027c 94DD     		ble	.L89
 1703              	.L88:
 304:App/Src/task.c ****                         rtc_freq_save(CAP_ADJUST_SUCCESS, minCap, minPpm);
 1704              		.loc 1 304 25 is_stmt 1 view .LVU420
 304:App/Src/task.c ****                         rtc_freq_save(CAP_ADJUST_SUCCESS, minCap, minPpm);
 1705              		.loc 1 304 35 is_stmt 0 view .LVU421
 1706 027e 1E4B     		ldr	r3, .L143+8
 1707 0280 0422     		movs	r2, #4
 1708 0282 1A60     		str	r2, [r3]
 305:App/Src/task.c ****                         break;
 1709              		.loc 1 305 25 is_stmt 1 view .LVU422
 1710 0284 1F4B     		ldr	r3, .L143+20
 1711 0286 D3ED000A 		vldr.32	s1, [r3]
 1712 028a 2A4B     		ldr	r3, .L143+68
 1713 028c 93ED000A 		vldr.32	s0, [r3]
 1714 0290 0220     		movs	r0, #2
 1715 0292 FFF7FEFF 		bl	rtc_freq_save
 1716              	.LVL145:
 306:App/Src/task.c ****                     }
 1717              		.loc 1 306 25 view .LVU423
 1718 0296 CEE6     		b	.L67
 1719              	.L135:
 309:App/Src/task.c ****                         rtc_freq_save(CAP_ADJUST_ERROR, lastCap, minPpm);
 1720              		.loc 1 309 21 view .LVU424
 309:App/Src/task.c ****                         rtc_freq_save(CAP_ADJUST_ERROR, lastCap, minPpm);
 1721              		.loc 1 309 34 is_stmt 0 view .LVU425
 1722 0298 184B     		ldr	r3, .L143+12
 1723 029a 93ED000A 		vldr.32	s0, [r3]
 309:App/Src/task.c ****                         rtc_freq_save(CAP_ADJUST_ERROR, lastCap, minPpm);
 1724              		.loc 1 309 24 view .LVU426
 1725 029e 9FED277A 		vldr.32	s14, .L143+76
 1726 02a2 B4EEC70A 		vcmpe.f32	s0, s14
 1727 02a6 F1EE10FA 		vmrs	APSR_nzcv, FPSCR
 1728 02aa 06DB     		blt	.L92
ARM GAS  C:\Users\86158\AppData\Local\Temp\cck4kAYW.s 			page 44


 309:App/Src/task.c ****                         rtc_freq_save(CAP_ADJUST_ERROR, lastCap, minPpm);
 1729              		.loc 1 309 57 discriminator 1 view .LVU427
 1730 02ac B0EE007A 		vmov.f32	s14, #2.0e+0
 1731 02b0 F4EEC70A 		vcmpe.f32	s1, s14
 1732 02b4 F1EE10FA 		vmrs	APSR_nzcv, FPSCR
 1733 02b8 0FDA     		bge	.L94
 1734              	.L92:
 309:App/Src/task.c ****                         rtc_freq_save(CAP_ADJUST_ERROR, lastCap, minPpm);
 1735              		.loc 1 309 70 discriminator 3 view .LVU428
 1736 02ba B7EE007A 		vmov.f32	s14, #1.0e+0
 1737 02be B4EEC70A 		vcmpe.f32	s0, s14
 1738 02c2 F1EE10FA 		vmrs	APSR_nzcv, FPSCR
 1739 02c6 3FF66FAF 		bhi	.L89
 309:App/Src/task.c ****                         rtc_freq_save(CAP_ADJUST_ERROR, lastCap, minPpm);
 1740              		.loc 1 309 106 discriminator 4 view .LVU429
 1741 02ca B8EE007A 		vmov.f32	s14, #-2.0e+0
 1742 02ce F4EEC70A 		vcmpe.f32	s1, s14
 1743 02d2 F1EE10FA 		vmrs	APSR_nzcv, FPSCR
 1744 02d6 3FF667AF 		bhi	.L89
 1745              	.L94:
 310:App/Src/task.c ****                         testState = 0;
 1746              		.loc 1 310 25 is_stmt 1 view .LVU430
 1747 02da 0A4B     		ldr	r3, .L143+20
 1748 02dc D3ED000A 		vldr.32	s1, [r3]
 1749 02e0 0120     		movs	r0, #1
 1750 02e2 FFF7FEFF 		bl	rtc_freq_save
 1751              	.LVL146:
 311:App/Src/task.c ****                         break;
 1752              		.loc 1 311 25 view .LVU431
 311:App/Src/task.c ****                         break;
 1753              		.loc 1 311 35 is_stmt 0 view .LVU432
 1754 02e6 044B     		ldr	r3, .L143+8
 1755 02e8 0022     		movs	r2, #0
 1756 02ea 1A60     		str	r2, [r3]
 312:App/Src/task.c ****                     } 
 1757              		.loc 1 312 25 is_stmt 1 view .LVU433
 1758 02ec A3E6     		b	.L67
 1759              	.L144:
 1760 02ee 00BF     		.align	3
 1761              	.L143:
 1762 02f0 00000000 		.word	0
 1763 02f4 80842E41 		.word	1093567616
 1764 02f8 00000000 		.word	.LANCHOR9
 1765 02fc 00000000 		.word	.LANCHOR10
 1766 0300 00000000 		.word	.LC12
 1767 0304 00000000 		.word	.LANCHOR11
 1768 0308 00007A44 		.word	1148846080
 1769 030c 00000000 		.word	.LANCHOR12
 1770 0310 38000000 		.word	.LC13
 1771 0314 00000000 		.word	g_capAdjust
 1772 0318 00000000 		.word	.LANCHOR13
 1773 031c 00000000 		.word	.LANCHOR7
 1774 0320 50000000 		.word	.LC5
 1775 0324 00000000 		.word	.LANCHOR14
 1776 0328 0000903F 		.word	1066401792
 1777 032c 0000F03F 		.word	1072693248
 1778 0330 54000000 		.word	.LC14
ARM GAS  C:\Users\86158\AppData\Local\Temp\cck4kAYW.s 			page 45


 1779 0334 00000000 		.word	.LANCHOR15
 1780 0338 00000440 		.word	1074003968
 1781 033c 00804D44 		.word	1145929728
 1782              	.L140:
 322:App/Src/task.c ****                     testState = 0;
 1783              		.loc 1 322 21 view .LVU434
 1784 0340 974B     		ldr	r3, .L145+8
 1785 0342 D3ED000A 		vldr.32	s1, [r3]
 1786 0346 974B     		ldr	r3, .L145+12
 1787 0348 93ED000A 		vldr.32	s0, [r3]
 1788 034c 0120     		movs	r0, #1
 1789 034e FFF7FEFF 		bl	rtc_freq_save
 1790              	.LVL147:
 323:App/Src/task.c ****                     break;
 1791              		.loc 1 323 21 view .LVU435
 323:App/Src/task.c ****                     break;
 1792              		.loc 1 323 31 is_stmt 0 view .LVU436
 1793 0352 954B     		ldr	r3, .L145+16
 1794 0354 0022     		movs	r2, #0
 1795 0356 1A60     		str	r2, [r3]
 324:App/Src/task.c ****                 }//---------------------------------------------------------
 1796              		.loc 1 324 21 is_stmt 1 view .LVU437
 1797 0358 6DE6     		b	.L67
 1798              	.L141:
 327:App/Src/task.c ****                 } else if (-1 < ppm && ppm < 0) {
 1799              		.loc 1 327 21 view .LVU438
 327:App/Src/task.c ****                 } else if (-1 < ppm && ppm < 0) {
 1800              		.loc 1 327 29 is_stmt 0 view .LVU439
 1801 035a 944B     		ldr	r3, .L145+20
 1802 035c D3ED007A 		vldr.32	s15, [r3]
 1803 0360 B7EE007A 		vmov.f32	s14, #1.0e+0
 1804 0364 77EE877A 		vadd.f32	s15, s15, s14
 1805 0368 C3ED007A 		vstr.32	s15, [r3]
 1806 036c 63E7     		b	.L103
 1807              	.L142:
 329:App/Src/task.c ****                 } else {
 1808              		.loc 1 329 21 is_stmt 1 view .LVU440
 329:App/Src/task.c ****                 } else {
 1809              		.loc 1 329 29 is_stmt 0 view .LVU441
 1810 036e 8F4B     		ldr	r3, .L145+20
 1811 0370 D3ED007A 		vldr.32	s15, [r3]
 1812 0374 B7EE007A 		vmov.f32	s14, #1.0e+0
 1813 0378 77EEC77A 		vsub.f32	s15, s15, s14
 1814 037c C3ED007A 		vstr.32	s15, [r3]
 1815 0380 59E7     		b	.L103
 1816              	.LVL148:
 1817              	.L79:
 336:App/Src/task.c ****                 UsbPrintf("device no response\n");
 1818              		.loc 1 336 20 is_stmt 1 view .LVU442
 336:App/Src/task.c ****                 UsbPrintf("device no response\n");
 1819              		.loc 1 336 37 is_stmt 0 view .LVU443
 1820 0382 04F59664 		add	r4, r4, #1200
 336:App/Src/task.c ****                 UsbPrintf("device no response\n");
 1821              		.loc 1 336 46 view .LVU444
 1822 0386 FFF7FEFF 		bl	HAL_GetTick
 1823              	.LVL149:
 336:App/Src/task.c ****                 UsbPrintf("device no response\n");
ARM GAS  C:\Users\86158\AppData\Local\Temp\cck4kAYW.s 			page 46


 1824              		.loc 1 336 23 view .LVU445
 1825 038a 8442     		cmp	r4, r0
 1826 038c BFF453AE 		bcs	.L67
 337:App/Src/task.c ****                 log_printf("device no response\n");             
 1827              		.loc 1 337 17 is_stmt 1 view .LVU446
 1828 0390 874C     		ldr	r4, .L145+24
 1829 0392 2046     		mov	r0, r4
 1830 0394 FFF7FEFF 		bl	UsbPrintf
 1831              	.LVL150:
 338:App/Src/task.c ****                 responseCount++;
 1832              		.loc 1 338 17 view .LVU447
 1833 0398 2046     		mov	r0, r4
 1834 039a FFF7FEFF 		bl	log_printf
 1835              	.LVL151:
 339:App/Src/task.c ****                 if (responseCount >= 3) {//stop test
 1836              		.loc 1 339 17 view .LVU448
 339:App/Src/task.c ****                 if (responseCount >= 3) {//stop test
 1837              		.loc 1 339 30 is_stmt 0 view .LVU449
 1838 039e 854A     		ldr	r2, .L145+28
 1839 03a0 1378     		ldrb	r3, [r2]	@ zero_extendqisi2
 1840 03a2 0133     		adds	r3, r3, #1
 1841 03a4 DBB2     		uxtb	r3, r3
 1842 03a6 1370     		strb	r3, [r2]
 340:App/Src/task.c ****                     testState = 0;
 1843              		.loc 1 340 17 is_stmt 1 view .LVU450
 340:App/Src/task.c ****                     testState = 0;
 1844              		.loc 1 340 20 is_stmt 0 view .LVU451
 1845 03a8 022B     		cmp	r3, #2
 1846 03aa 0AD9     		bls	.L107
 341:App/Src/task.c ****                     rtc_freq_save(CAP_ADJUST_ERROR, 0, 1000);
 1847              		.loc 1 341 21 is_stmt 1 view .LVU452
 341:App/Src/task.c ****                     rtc_freq_save(CAP_ADJUST_ERROR, 0, 1000);
 1848              		.loc 1 341 31 is_stmt 0 view .LVU453
 1849 03ac 7E4B     		ldr	r3, .L145+16
 1850 03ae 0022     		movs	r2, #0
 1851 03b0 1A60     		str	r2, [r3]
 342:App/Src/task.c ****                 } else {
 1852              		.loc 1 342 21 is_stmt 1 view .LVU454
 1853 03b2 DFED810A 		vldr.32	s1, .L145+32
 1854 03b6 9FED810A 		vldr.32	s0, .L145+36
 1855 03ba 0120     		movs	r0, #1
 1856 03bc FFF7FEFF 		bl	rtc_freq_save
 1857              	.LVL152:
 1858 03c0 39E6     		b	.L67
 1859              	.L107:
 344:App/Src/task.c ****                 }
 1860              		.loc 1 344 21 view .LVU455
 344:App/Src/task.c ****                 }
 1861              		.loc 1 344 36 is_stmt 0 view .LVU456
 1862 03c2 FFF7FEFF 		bl	HAL_GetTick
 1863              	.LVL153:
 344:App/Src/task.c ****                 }
 1864              		.loc 1 344 34 view .LVU457
 1865 03c6 7E4B     		ldr	r3, .L145+40
 1866 03c8 1860     		str	r0, [r3]
 1867 03ca 34E6     		b	.L67
 1868              	.LVL154:
ARM GAS  C:\Users\86158\AppData\Local\Temp\cck4kAYW.s 			page 47


 1869              	.L74:
 349:App/Src/task.c ****             if ((temp < -5 && temp > -15) || (temp < 65 && temp > 55)) {
 1870              		.loc 1 349 13 is_stmt 1 view .LVU458
 349:App/Src/task.c ****             if ((temp < -5 && temp > -15) || (temp < 65 && temp > 55)) {
 1871              		.loc 1 349 20 is_stmt 0 view .LVU459
 1872 03cc 0120     		movs	r0, #1
 1873              	.LVL155:
 349:App/Src/task.c ****             if ((temp < -5 && temp > -15) || (temp < 65 && temp > 55)) {
 1874              		.loc 1 349 20 view .LVU460
 1875 03ce FFF7FEFF 		bl	temp_read_value
 1876              	.LVL156:
 350:App/Src/task.c ****                 address = TEST_RESULT_START_ADDR + (g_capAdjust.count - 1) * TEST_RESULT_ONE_SIZE +
 1877              		.loc 1 350 13 is_stmt 1 view .LVU461
 350:App/Src/task.c ****                 address = TEST_RESULT_START_ADDR + (g_capAdjust.count - 1) * TEST_RESULT_ONE_SIZE +
 1878              		.loc 1 350 16 is_stmt 0 view .LVU462
 1879 03d2 F9EE047A 		vmov.f32	s15, #-5.0e+0
 1880 03d6 B4EEE70A 		vcmpe.f32	s0, s15
 1881 03da F1EE10FA 		vmrs	APSR_nzcv, FPSCR
 1882 03de 06D5     		bpl	.L108
 350:App/Src/task.c ****                 address = TEST_RESULT_START_ADDR + (g_capAdjust.count - 1) * TEST_RESULT_ONE_SIZE +
 1883              		.loc 1 350 28 discriminator 1 view .LVU463
 1884 03e0 FAEE0E7A 		vmov.f32	s15, #-1.5e+1
 1885 03e4 B4EEE70A 		vcmpe.f32	s0, s15
 1886 03e8 F1EE10FA 		vmrs	APSR_nzcv, FPSCR
 1887 03ec 0DDC     		bgt	.L110
 1888              	.L108:
 350:App/Src/task.c ****                 address = TEST_RESULT_START_ADDR + (g_capAdjust.count - 1) * TEST_RESULT_ONE_SIZE +
 1889              		.loc 1 350 43 discriminator 3 view .LVU464
 1890 03ee DFED757A 		vldr.32	s15, .L145+44
 1891 03f2 B4EEE70A 		vcmpe.f32	s0, s15
 1892 03f6 F1EE10FA 		vmrs	APSR_nzcv, FPSCR
 1893 03fa 34D5     		bpl	.L111
 350:App/Src/task.c ****                 address = TEST_RESULT_START_ADDR + (g_capAdjust.count - 1) * TEST_RESULT_ONE_SIZE +
 1894              		.loc 1 350 57 discriminator 4 view .LVU465
 1895 03fc DFED727A 		vldr.32	s15, .L145+48
 1896 0400 B4EEE70A 		vcmpe.f32	s0, s15
 1897 0404 F1EE10FA 		vmrs	APSR_nzcv, FPSCR
 1898 0408 2DDD     		ble	.L111
 1899              	.L110:
 351:App/Src/task.c ****                 flash_read_data(address, buffer, 4);//根据地址调用flash函数读取4byte数据
 1900              		.loc 1 351 17 is_stmt 1 view .LVU466
 351:App/Src/task.c ****                 flash_read_data(address, buffer, 4);//根据地址调用flash函数读取4byte数据
 1901              		.loc 1 351 64 is_stmt 0 view .LVU467
 1902 040a 704B     		ldr	r3, .L145+52
 1903 040c 187C     		ldrb	r0, [r3, #16]	@ zero_extendqisi2
 351:App/Src/task.c ****                 flash_read_data(address, buffer, 4);//根据地址调用flash函数读取4byte数据
 1904              		.loc 1 351 50 view .LVU468
 1905 040e 0730     		adds	r0, r0, #7
 1906 0410 4002     		lsls	r0, r0, #9
 1907              	.LVL157:
 352:App/Src/task.c ****                 uint8_to_float(&lastCap, buffer);//类型转换为float
 1908              		.loc 1 352 17 is_stmt 1 view .LVU469
 1909 0412 0422     		movs	r2, #4
 1910 0414 05A9     		add	r1, sp, #20
 1911 0416 2430     		adds	r0, r0, #36
 1912              	.LVL158:
 352:App/Src/task.c ****                 uint8_to_float(&lastCap, buffer);//类型转换为float
ARM GAS  C:\Users\86158\AppData\Local\Temp\cck4kAYW.s 			page 48


 1913              		.loc 1 352 17 is_stmt 0 view .LVU470
 1914 0418 FFF7FEFF 		bl	flash_read_data
 1915              	.LVL159:
 353:App/Src/task.c ****                 cap_list_to_uint(lastCap, cap);//查表转换为实际电容
 1916              		.loc 1 353 17 is_stmt 1 view .LVU471
 1917 041c 634C     		ldr	r4, .L145+20
 1918 041e 05A9     		add	r1, sp, #20
 1919 0420 2046     		mov	r0, r4
 1920 0422 FFF7FEFF 		bl	uint8_to_float
 1921              	.LVL160:
 354:App/Src/task.c ****                 if (rtc_set_testcap(cap) == I2C_OK) {//IIC写入rtc
 1922              		.loc 1 354 17 view .LVU472
 1923 0426 D4ED007A 		vldr.32	s15, [r4]
 1924 042a FCEEE77A 		vcvt.u32.f32	s15, s15
 1925 042e 06A9     		add	r1, sp, #24
 1926 0430 17EE903A 		vmov	r3, s15	@ int
 1927 0434 98B2     		uxth	r0, r3
 1928 0436 FFF7FEFF 		bl	cap_list_to_uint
 1929              	.LVL161:
 355:App/Src/task.c ****                     testState++;
 1930              		.loc 1 355 17 view .LVU473
 355:App/Src/task.c ****                     testState++;
 1931              		.loc 1 355 21 is_stmt 0 view .LVU474
 1932 043a 06A8     		add	r0, sp, #24
 1933 043c FFF7FEFF 		bl	rtc_set_testcap
 1934              	.LVL162:
 355:App/Src/task.c ****                     testState++;
 1935              		.loc 1 355 20 view .LVU475
 1936 0440 20B9     		cbnz	r0, .L114
 356:App/Src/task.c ****                 } else {
 1937              		.loc 1 356 21 is_stmt 1 view .LVU476
 356:App/Src/task.c ****                 } else {
 1938              		.loc 1 356 30 is_stmt 0 view .LVU477
 1939 0442 594A     		ldr	r2, .L145+16
 1940 0444 1368     		ldr	r3, [r2]
 1941 0446 0133     		adds	r3, r3, #1
 1942 0448 1360     		str	r3, [r2]
 1943 044a F4E5     		b	.L67
 1944              	.L114:
 358:App/Src/task.c ****                     testState = 0;
 1945              		.loc 1 358 21 is_stmt 1 view .LVU478
 1946 044c 544B     		ldr	r3, .L145+8
 1947 044e D3ED000A 		vldr.32	s1, [r3]
 1948 0452 564B     		ldr	r3, .L145+20
 1949 0454 93ED000A 		vldr.32	s0, [r3]
 1950 0458 0120     		movs	r0, #1
 1951 045a FFF7FEFF 		bl	rtc_freq_save
 1952              	.LVL163:
 359:App/Src/task.c ****                 }
 1953              		.loc 1 359 21 view .LVU479
 359:App/Src/task.c ****                 }
 1954              		.loc 1 359 31 is_stmt 0 view .LVU480
 1955 045e 524B     		ldr	r3, .L145+16
 1956 0460 0022     		movs	r2, #0
 1957 0462 1A60     		str	r2, [r3]
 1958 0464 E7E5     		b	.L67
 1959              	.LVL164:
ARM GAS  C:\Users\86158\AppData\Local\Temp\cck4kAYW.s 			page 49


 1960              	.L111:
 362:App/Src/task.c ****                 testState = 0;
 1961              		.loc 1 362 17 is_stmt 1 view .LVU481
 362:App/Src/task.c ****                 testState = 0;
 1962              		.loc 1 362 34 is_stmt 0 view .LVU482
 1963 0466 594B     		ldr	r3, .L145+52
 1964 0468 0222     		movs	r2, #2
 1965 046a 1A70     		strb	r2, [r3]
 363:App/Src/task.c ****             }
 1966              		.loc 1 363 17 is_stmt 1 view .LVU483
 363:App/Src/task.c ****             }
 1967              		.loc 1 363 27 is_stmt 0 view .LVU484
 1968 046c 4E4B     		ldr	r3, .L145+16
 1969 046e 0022     		movs	r2, #0
 1970 0470 1A60     		str	r2, [r3]
 1971 0472 E0E5     		b	.L67
 1972              	.LVL165:
 1973              	.L73:
 367:App/Src/task.c ****             g_lastFreq.recordTime = lastTestTime;
 1974              		.loc 1 367 13 is_stmt 1 view .LVU485
 367:App/Src/task.c ****             g_lastFreq.recordTime = lastTestTime;
 1975              		.loc 1 367 28 is_stmt 0 view .LVU486
 1976 0474 FFF7FEFF 		bl	HAL_GetTick
 1977              	.LVL166:
 367:App/Src/task.c ****             g_lastFreq.recordTime = lastTestTime;
 1978              		.loc 1 367 26 view .LVU487
 1979 0478 514B     		ldr	r3, .L145+40
 1980 047a 1860     		str	r0, [r3]
 368:App/Src/task.c ****             DevicePrintf(":MEAS?\n");
 1981              		.loc 1 368 13 is_stmt 1 view .LVU488
 368:App/Src/task.c ****             DevicePrintf(":MEAS?\n");
 1982              		.loc 1 368 35 is_stmt 0 view .LVU489
 1983 047c 544B     		ldr	r3, .L145+56
 1984 047e 1860     		str	r0, [r3]
 369:App/Src/task.c ****             responseCount = 0;
 1985              		.loc 1 369 13 is_stmt 1 view .LVU490
 1986 0480 5448     		ldr	r0, .L145+60
 1987 0482 FFF7FEFF 		bl	DevicePrintf
 1988              	.LVL167:
 370:App/Src/task.c ****             testState++;
 1989              		.loc 1 370 13 view .LVU491
 370:App/Src/task.c ****             testState++;
 1990              		.loc 1 370 27 is_stmt 0 view .LVU492
 1991 0486 4B4B     		ldr	r3, .L145+28
 1992 0488 0022     		movs	r2, #0
 1993 048a 1A70     		strb	r2, [r3]
 371:App/Src/task.c ****         break;
 1994              		.loc 1 371 13 is_stmt 1 view .LVU493
 371:App/Src/task.c ****         break;
 1995              		.loc 1 371 22 is_stmt 0 view .LVU494
 1996 048c 464A     		ldr	r2, .L145+16
 1997 048e 1368     		ldr	r3, [r2]
 1998 0490 0133     		adds	r3, r3, #1
 1999 0492 1360     		str	r3, [r2]
 372:App/Src/task.c ****         case 6:
 2000              		.loc 1 372 9 is_stmt 1 view .LVU495
 2001 0494 CFE5     		b	.L67
ARM GAS  C:\Users\86158\AppData\Local\Temp\cck4kAYW.s 			page 50


 2002              	.LVL168:
 2003              	.L71:
 374:App/Src/task.c ****                 ppm = (g_lastFreq.freq / 64.0 - 1) * 1000000;
 2004              		.loc 1 374 13 view .LVU496
 374:App/Src/task.c ****                 ppm = (g_lastFreq.freq / 64.0 - 1) * 1000000;
 2005              		.loc 1 374 27 is_stmt 0 view .LVU497
 2006 0496 4E4B     		ldr	r3, .L145+56
 2007 0498 1A68     		ldr	r2, [r3]
 374:App/Src/task.c ****                 ppm = (g_lastFreq.freq / 64.0 - 1) * 1000000;
 2008              		.loc 1 374 39 view .LVU498
 2009 049a 494B     		ldr	r3, .L145+40
 2010 049c 1C68     		ldr	r4, [r3]
 374:App/Src/task.c ****                 ppm = (g_lastFreq.freq / 64.0 - 1) * 1000000;
 2011              		.loc 1 374 16 view .LVU499
 2012 049e A242     		cmp	r2, r4
 2013 04a0 52D9     		bls	.L115
 375:App/Src/task.c ****                 address = TEST_RESULT_START_ADDR + (g_capAdjust.count - 1) * TEST_RESULT_ONE_SIZE +
 2014              		.loc 1 375 17 is_stmt 1 view .LVU500
 375:App/Src/task.c ****                 address = TEST_RESULT_START_ADDR + (g_capAdjust.count - 1) * TEST_RESULT_ONE_SIZE +
 2015              		.loc 1 375 34 is_stmt 0 view .LVU501
 2016 04a2 4B4B     		ldr	r3, .L145+56
 2017 04a4 5868     		ldr	r0, [r3, #4]	@ float
 2018              	.LVL169:
 375:App/Src/task.c ****                 address = TEST_RESULT_START_ADDR + (g_capAdjust.count - 1) * TEST_RESULT_ONE_SIZE +
 2019              		.loc 1 375 34 view .LVU502
 2020 04a6 FFF7FEFF 		bl	__aeabi_f2d
 2021              	.LVL170:
 375:App/Src/task.c ****                 address = TEST_RESULT_START_ADDR + (g_capAdjust.count - 1) * TEST_RESULT_ONE_SIZE +
 2022              		.loc 1 375 40 view .LVU503
 2023 04aa 0022     		movs	r2, #0
 2024 04ac 4A4B     		ldr	r3, .L145+64
 2025 04ae FFF7FEFF 		bl	__aeabi_dmul
 2026              	.LVL171:
 375:App/Src/task.c ****                 address = TEST_RESULT_START_ADDR + (g_capAdjust.count - 1) * TEST_RESULT_ONE_SIZE +
 2027              		.loc 1 375 47 view .LVU504
 2028 04b2 0022     		movs	r2, #0
 2029 04b4 494B     		ldr	r3, .L145+68
 2030 04b6 FFF7FEFF 		bl	__aeabi_dsub
 2031              	.LVL172:
 375:App/Src/task.c ****                 address = TEST_RESULT_START_ADDR + (g_capAdjust.count - 1) * TEST_RESULT_ONE_SIZE +
 2032              		.loc 1 375 52 view .LVU505
 2033 04ba 37A3     		adr	r3, .L145
 2034 04bc D3E90023 		ldrd	r2, [r3]
 2035 04c0 FFF7FEFF 		bl	__aeabi_dmul
 2036              	.LVL173:
 2037 04c4 FFF7FEFF 		bl	__aeabi_d2f
 2038              	.LVL174:
 375:App/Src/task.c ****                 address = TEST_RESULT_START_ADDR + (g_capAdjust.count - 1) * TEST_RESULT_ONE_SIZE +
 2039              		.loc 1 375 21 view .LVU506
 2040 04c8 0790     		str	r0, [sp, #28]	@ float
 376:App/Src/task.c ****                 temp = temp_read_value(1);
 2041              		.loc 1 376 17 is_stmt 1 view .LVU507
 376:App/Src/task.c ****                 temp = temp_read_value(1);
 2042              		.loc 1 376 64 is_stmt 0 view .LVU508
 2043 04ca 404B     		ldr	r3, .L145+52
 2044 04cc 1C7C     		ldrb	r4, [r3, #16]	@ zero_extendqisi2
 376:App/Src/task.c ****                 temp = temp_read_value(1);
ARM GAS  C:\Users\86158\AppData\Local\Temp\cck4kAYW.s 			page 51


 2045              		.loc 1 376 50 view .LVU509
 2046 04ce 0734     		adds	r4, r4, #7
 2047 04d0 6402     		lsls	r4, r4, #9
 376:App/Src/task.c ****                 temp = temp_read_value(1);
 2048              		.loc 1 376 99 view .LVU510
 2049 04d2 04F13A05 		add	r5, r4, #58
 2050              	.LVL175:
 377:App/Src/task.c ****                 if (temp > 55) { address += 4;}
 2051              		.loc 1 377 17 is_stmt 1 view .LVU511
 377:App/Src/task.c ****                 if (temp > 55) { address += 4;}
 2052              		.loc 1 377 24 is_stmt 0 view .LVU512
 2053 04d6 0120     		movs	r0, #1
 2054 04d8 FFF7FEFF 		bl	temp_read_value
 2055              	.LVL176:
 2056 04dc B0EE408A 		vmov.f32	s16, s0
 2057              	.LVL177:
 378:App/Src/task.c ****                 float_to_uint8(buffer, &ppm);
 2058              		.loc 1 378 17 is_stmt 1 view .LVU513
 378:App/Src/task.c ****                 float_to_uint8(buffer, &ppm);
 2059              		.loc 1 378 20 is_stmt 0 view .LVU514
 2060 04e0 DFED397A 		vldr.32	s15, .L145+48
 2061 04e4 B4EEE70A 		vcmpe.f32	s0, s15
 2062 04e8 F1EE10FA 		vmrs	APSR_nzcv, FPSCR
 2063 04ec 01DD     		ble	.L116
 378:App/Src/task.c ****                 float_to_uint8(buffer, &ppm);
 2064              		.loc 1 378 34 is_stmt 1 discriminator 1 view .LVU515
 378:App/Src/task.c ****                 float_to_uint8(buffer, &ppm);
 2065              		.loc 1 378 42 is_stmt 0 discriminator 1 view .LVU516
 2066 04ee 04F13E05 		add	r5, r4, #62
 2067              	.LVL178:
 2068              	.L116:
 379:App/Src/task.c ****                 flash_write_data(address, buffer, 4);
 2069              		.loc 1 379 17 is_stmt 1 view .LVU517
 2070 04f2 07A9     		add	r1, sp, #28
 2071 04f4 05A8     		add	r0, sp, #20
 2072 04f6 FFF7FEFF 		bl	float_to_uint8
 2073              	.LVL179:
 380:App/Src/task.c ****                 UsbPrintf("center cap in %.1f : %.2fppm\n", temp, ppm);
 2074              		.loc 1 380 17 view .LVU518
 2075 04fa 0422     		movs	r2, #4
 2076 04fc 05A9     		add	r1, sp, #20
 2077 04fe 2846     		mov	r0, r5
 2078 0500 FFF7FEFF 		bl	flash_write_data
 2079              	.LVL180:
 381:App/Src/task.c ****                 log_printf("center cap in %.1f : %.2fppm\n", temp, ppm);
 2080              		.loc 1 381 17 view .LVU519
 2081 0504 18EE100A 		vmov	r0, s16
 2082 0508 FFF7FEFF 		bl	__aeabi_f2d
 2083              	.LVL181:
 2084 050c 0446     		mov	r4, r0
 2085 050e 0D46     		mov	r5, r1
 2086              	.LVL182:
 381:App/Src/task.c ****                 log_printf("center cap in %.1f : %.2fppm\n", temp, ppm);
 2087              		.loc 1 381 17 is_stmt 0 view .LVU520
 2088 0510 334E     		ldr	r6, .L145+72
 2089 0512 0798     		ldr	r0, [sp, #28]	@ float
 2090 0514 FFF7FEFF 		bl	__aeabi_f2d
ARM GAS  C:\Users\86158\AppData\Local\Temp\cck4kAYW.s 			page 52


 2091              	.LVL183:
 2092 0518 CDE90001 		strd	r0, [sp]
 2093 051c 2246     		mov	r2, r4
 2094 051e 2B46     		mov	r3, r5
 2095 0520 3046     		mov	r0, r6
 2096 0522 FFF7FEFF 		bl	UsbPrintf
 2097              	.LVL184:
 382:App/Src/task.c ****                 g_capAdjust.flag = CAP_ADJUST_SUCCESS;
 2098              		.loc 1 382 17 is_stmt 1 view .LVU521
 2099 0526 0798     		ldr	r0, [sp, #28]	@ float
 2100 0528 FFF7FEFF 		bl	__aeabi_f2d
 2101              	.LVL185:
 2102 052c CDE90001 		strd	r0, [sp]
 2103 0530 2246     		mov	r2, r4
 2104 0532 2B46     		mov	r3, r5
 2105 0534 3046     		mov	r0, r6
 2106 0536 FFF7FEFF 		bl	log_printf
 2107              	.LVL186:
 383:App/Src/task.c ****                 testState = 0;
 2108              		.loc 1 383 17 view .LVU522
 383:App/Src/task.c ****                 testState = 0;
 2109              		.loc 1 383 34 is_stmt 0 view .LVU523
 2110 053a 244B     		ldr	r3, .L145+52
 2111 053c 0222     		movs	r2, #2
 2112 053e 1A70     		strb	r2, [r3]
 384:App/Src/task.c ****             } else if (lastTestTime + 1200 < HAL_GetTick()) {
 2113              		.loc 1 384 17 is_stmt 1 view .LVU524
 384:App/Src/task.c ****             } else if (lastTestTime + 1200 < HAL_GetTick()) {
 2114              		.loc 1 384 27 is_stmt 0 view .LVU525
 2115 0540 194B     		ldr	r3, .L145+16
 2116 0542 0022     		movs	r2, #0
 2117 0544 1A60     		str	r2, [r3]
 2118 0546 76E5     		b	.L67
 2119              	.LVL187:
 2120              	.L115:
 385:App/Src/task.c ****                 UsbPrintf("device no response\n");
 2121              		.loc 1 385 20 is_stmt 1 view .LVU526
 385:App/Src/task.c ****                 UsbPrintf("device no response\n");
 2122              		.loc 1 385 37 is_stmt 0 view .LVU527
 2123 0548 04F59664 		add	r4, r4, #1200
 385:App/Src/task.c ****                 UsbPrintf("device no response\n");
 2124              		.loc 1 385 46 view .LVU528
 2125 054c FFF7FEFF 		bl	HAL_GetTick
 2126              	.LVL188:
 385:App/Src/task.c ****                 UsbPrintf("device no response\n");
 2127              		.loc 1 385 23 view .LVU529
 2128 0550 8442     		cmp	r4, r0
 2129 0552 BFF470AD 		bcs	.L67
 386:App/Src/task.c ****                 log_printf("device no response\n");             
 2130              		.loc 1 386 17 is_stmt 1 view .LVU530
 2131 0556 164C     		ldr	r4, .L145+24
 2132 0558 2046     		mov	r0, r4
 2133 055a FFF7FEFF 		bl	UsbPrintf
 2134              	.LVL189:
 387:App/Src/task.c ****                 responseCount++;
 2135              		.loc 1 387 17 view .LVU531
 2136 055e 2046     		mov	r0, r4
ARM GAS  C:\Users\86158\AppData\Local\Temp\cck4kAYW.s 			page 53


 2137 0560 FFF7FEFF 		bl	log_printf
 2138              	.LVL190:
 388:App/Src/task.c ****                 if (responseCount >= 3) {//stop test
 2139              		.loc 1 388 17 view .LVU532
 388:App/Src/task.c ****                 if (responseCount >= 3) {//stop test
 2140              		.loc 1 388 30 is_stmt 0 view .LVU533
 2141 0564 134A     		ldr	r2, .L145+28
 2142 0566 1378     		ldrb	r3, [r2]	@ zero_extendqisi2
 2143 0568 0133     		adds	r3, r3, #1
 2144 056a DBB2     		uxtb	r3, r3
 2145 056c 1370     		strb	r3, [r2]
 389:App/Src/task.c ****                     testState = 0;
 2146              		.loc 1 389 17 is_stmt 1 view .LVU534
 389:App/Src/task.c ****                     testState = 0;
 2147              		.loc 1 389 20 is_stmt 0 view .LVU535
 2148 056e 022B     		cmp	r3, #2
 2149 0570 0AD9     		bls	.L118
 390:App/Src/task.c ****                     rtc_freq_save(CAP_ADJUST_ERROR, 0, 1000);
 2150              		.loc 1 390 21 is_stmt 1 view .LVU536
 390:App/Src/task.c ****                     rtc_freq_save(CAP_ADJUST_ERROR, 0, 1000);
 2151              		.loc 1 390 31 is_stmt 0 view .LVU537
 2152 0572 0D4B     		ldr	r3, .L145+16
 2153 0574 0022     		movs	r2, #0
 2154 0576 1A60     		str	r2, [r3]
 391:App/Src/task.c ****                 } else {
 2155              		.loc 1 391 21 is_stmt 1 view .LVU538
 2156 0578 DFED0F0A 		vldr.32	s1, .L145+32
 2157 057c 9FED0F0A 		vldr.32	s0, .L145+36
 2158 0580 0120     		movs	r0, #1
 2159 0582 FFF7FEFF 		bl	rtc_freq_save
 2160              	.LVL191:
 2161 0586 56E5     		b	.L67
 2162              	.L118:
 393:App/Src/task.c ****                 }
 2163              		.loc 1 393 21 view .LVU539
 393:App/Src/task.c ****                 }
 2164              		.loc 1 393 36 is_stmt 0 view .LVU540
 2165 0588 FFF7FEFF 		bl	HAL_GetTick
 2166              	.LVL192:
 393:App/Src/task.c ****                 }
 2167              		.loc 1 393 34 view .LVU541
 2168 058c 0C4B     		ldr	r3, .L145+40
 2169 058e 1860     		str	r0, [r3]
 2170 0590 51E5     		b	.L67
 2171              	.L146:
 2172 0592 00BFAFF3 		.align	3
 2172      0080
 2173              	.L145:
 2174 0598 00000000 		.word	0
 2175 059c 80842E41 		.word	1093567616
 2176 05a0 00000000 		.word	.LANCHOR11
 2177 05a4 00000000 		.word	.LANCHOR15
 2178 05a8 00000000 		.word	.LANCHOR9
 2179 05ac 00000000 		.word	.LANCHOR10
 2180 05b0 70000000 		.word	.LC15
 2181 05b4 00000000 		.word	.LANCHOR14
 2182 05b8 00007A44 		.word	1148846080
ARM GAS  C:\Users\86158\AppData\Local\Temp\cck4kAYW.s 			page 54


 2183 05bc 00000000 		.word	0
 2184 05c0 00000000 		.word	.LANCHOR13
 2185 05c4 00008242 		.word	1115815936
 2186 05c8 00005C42 		.word	1113325568
 2187 05cc 00000000 		.word	g_capAdjust
 2188 05d0 00000000 		.word	.LANCHOR7
 2189 05d4 50000000 		.word	.LC5
 2190 05d8 0000903F 		.word	1066401792
 2191 05dc 0000F03F 		.word	1072693248
 2192 05e0 84000000 		.word	.LC16
 2193              		.cfi_endproc
 2194              	.LFE242:
 2196              		.section	.rodata.system_machine_test_one.str1.4,"aMS",%progbits,1
 2197              		.align	2
 2198              	.LC17:
 2199 0000 6D616368 		.ascii	"machine test chip:%d\012\000"
 2199      696E6520 
 2199      74657374 
 2199      20636869 
 2199      703A2564 
 2200              		.global	__aeabi_ddiv
 2201 0016 0000     		.align	2
 2202              	.LC18:
 2203 0018 25662C20 		.ascii	"%f, ppm:%.2f\012\000"
 2203      70706D3A 
 2203      252E3266 
 2203      0A00
 2204 0026 0000     		.align	2
 2205              	.LC19:
 2206 0028 76626174 		.ascii	"vbat = %dmV\012\000"
 2206      203D2025 
 2206      646D560A 
 2206      00
 2207 0035 000000   		.align	2
 2208              	.LC20:
 2209 0038 63686172 		.ascii	"charge = %dmV\012\000"
 2209      6765203D 
 2209      2025646D 
 2209      560A00
 2210 0047 00       		.align	2
 2211              	.LC21:
 2212 0048 7664643A 		.ascii	"vdd:%dnA\012\000"
 2212      25646E41 
 2212      0A00
 2213 0052 0000     		.align	2
 2214              	.LC22:
 2215 0054 6261743A 		.ascii	"bat:%dnA\012\000"
 2215      25646E41 
 2215      0A00
 2216 005e 0000     		.align	2
 2217              	.LC23:
 2218 0060 74657374 		.ascii	"test all end, chip %d NG\012\000"
 2218      20616C6C 
 2218      20656E64 
 2218      2C206368 
 2218      69702025 
 2219 007a 0000     		.align	2
ARM GAS  C:\Users\86158\AppData\Local\Temp\cck4kAYW.s 			page 55


 2220              	.LC24:
 2221 007c 74657374 		.ascii	"test all end, chip %d OK\012\000"
 2221      20616C6C 
 2221      20656E64 
 2221      2C206368 
 2221      69702025 
 2222              		.section	.text.system_machine_test_one,"ax",%progbits
 2223              		.align	1
 2224              		.global	system_machine_test_one
 2225              		.syntax unified
 2226              		.thumb
 2227              		.thumb_func
 2229              	system_machine_test_one:
 2230              	.LVL193:
 2231              	.LFB243:
 400:App/Src/task.c **** 
 401:App/Src/task.c **** //---------------------------------------------
 402:App/Src/task.c **** //system_machine_test_one函数，机台测试一个芯片
 403:App/Src/task.c **** //number选定芯片序号，mode分为启动模式和运转模式
 404:App/Src/task.c **** //配置温度config9才会测试温度误差
 405:App/Src/task.c **** //配置电池configC才会测试电池
 406:App/Src/task.c **** //除非是I2C不通，否则不管什么状态的芯片都会测试电流
 407:App/Src/task.c **** //---------------------------------------------
 408:App/Src/task.c **** int system_machine_test_one(uint8_t number, uint8_t mode)
 409:App/Src/task.c **** {
 2232              		.loc 1 409 1 is_stmt 1 view -0
 2233              		.cfi_startproc
 2234              		@ args = 0, pretend = 0, frame = 8
 2235              		@ frame_needed = 0, uses_anonymous_args = 0
 2236              		.loc 1 409 1 is_stmt 0 view .LVU543
 2237 0000 2DE9F043 		push	{r4, r5, r6, r7, r8, r9, lr}
 2238              	.LCFI23:
 2239              		.cfi_def_cfa_offset 28
 2240              		.cfi_offset 4, -28
 2241              		.cfi_offset 5, -24
 2242              		.cfi_offset 6, -20
 2243              		.cfi_offset 7, -16
 2244              		.cfi_offset 8, -12
 2245              		.cfi_offset 9, -8
 2246              		.cfi_offset 14, -4
 2247 0004 2DED028B 		vpush.64	{d8}
 2248              	.LCFI24:
 2249              		.cfi_def_cfa_offset 36
 2250              		.cfi_offset 80, -36
 2251              		.cfi_offset 81, -32
 2252 0008 85B0     		sub	sp, sp, #20
 2253              	.LCFI25:
 2254              		.cfi_def_cfa_offset 56
 410:App/Src/task.c **** 	float ppm4096, cur;
 2255              		.loc 1 410 2 is_stmt 1 view .LVU544
 411:App/Src/task.c **** 	// uint8_t buffer[16] = {0};
 412:App/Src/task.c **** 	int vbat = 0;
 2256              		.loc 1 412 2 view .LVU545
 2257              		.loc 1 412 6 is_stmt 0 view .LVU546
 2258 000a 0023     		movs	r3, #0
 2259 000c 0393     		str	r3, [sp, #12]
 413:App/Src/task.c **** 	// uint8_t i2c_result;
ARM GAS  C:\Users\86158\AppData\Local\Temp\cck4kAYW.s 			page 56


 414:App/Src/task.c **** 	static uint8_t result = 1;
 2260              		.loc 1 414 2 is_stmt 1 view .LVU547
 415:App/Src/task.c ****     static uint8_t state = 0;
 2261              		.loc 1 415 5 view .LVU548
 416:App/Src/task.c ****     static uint32_t timeout;
 2262              		.loc 1 416 5 view .LVU549
 417:App/Src/task.c ****     static uint8_t testNumber = 0;
 2263              		.loc 1 417 5 view .LVU550
 418:App/Src/task.c ****     static uint32_t startTime;
 2264              		.loc 1 418 5 view .LVU551
 419:App/Src/task.c **** 
 420:App/Src/task.c ****     if (mode == 1) {//在设置开始时就设定测试序号，后续不能变更
 2265              		.loc 1 420 5 view .LVU552
 2266              		.loc 1 420 8 is_stmt 0 view .LVU553
 2267 000e 0129     		cmp	r1, #1
 2268 0010 11D0     		beq	.L180
 2269              	.LVL194:
 2270              	.L148:
 421:App/Src/task.c ****         state = 1;
 422:App/Src/task.c ****         testNumber = number;
 423:App/Src/task.c ****         g_machineTest.machine.Ivdd = 0;
 424:App/Src/task.c ****         g_machineTest.machine.Ivbat = 0;
 425:App/Src/task.c ****         g_machineTest.machine.config9 = 0xff;
 426:App/Src/task.c ****         g_machineTest.machine.configC = 0xff;
 427:App/Src/task.c ****         g_machineTest.machine.sysTemp = 0;
 428:App/Src/task.c ****         g_machineTest.machine.rtcTemp = 0;
 429:App/Src/task.c ****         g_machineTest.machine.testFreq = 0;
 430:App/Src/task.c ****         g_machineTest.machine.vbat_2V5 = 0;
 431:App/Src/task.c ****         g_machineTest.machine.charge = 0;
 432:App/Src/task.c ****         startTime = HAL_GetTick();
 433:App/Src/task.c ****         UsbPrintf("machine test chip:%d\n", number);
 434:App/Src/task.c ****         log_printf("machine test chip:%d\n", number);
 435:App/Src/task.c ****     }
 436:App/Src/task.c **** 
 437:App/Src/task.c ****     switch (state) {
 2271              		.loc 1 437 5 is_stmt 1 view .LVU554
 2272 0012 B54B     		ldr	r3, .L184+16
 2273 0014 1B78     		ldrb	r3, [r3]	@ zero_extendqisi2
 2274 0016 013B     		subs	r3, r3, #1
 2275 0018 0A2B     		cmp	r3, #10
 2276 001a 45D8     		bhi	.L149
 2277 001c DFE813F0 		tbh	[pc, r3, lsl #1]
 2278              	.L151:
 2279 0020 3400     		.2byte	(.L160-.L151)/2
 2280 0022 4400     		.2byte	(.L149-.L151)/2
 2281 0024 5A00     		.2byte	(.L159-.L151)/2
 2282 0026 6900     		.2byte	(.L158-.L151)/2
 2283 0028 7E00     		.2byte	(.L157-.L151)/2
 2284 002a E900     		.2byte	(.L156-.L151)/2
 2285 002c 3201     		.2byte	(.L155-.L151)/2
 2286 002e 8401     		.2byte	(.L154-.L151)/2
 2287 0030 9401     		.2byte	(.L153-.L151)/2
 2288 0032 CF01     		.2byte	(.L152-.L151)/2
 2289 0034 0602     		.2byte	(.L150-.L151)/2
 2290              	.LVL195:
 2291              		.p2align 1
 2292              	.L180:
ARM GAS  C:\Users\86158\AppData\Local\Temp\cck4kAYW.s 			page 57


 2293              		.loc 1 437 5 is_stmt 0 view .LVU555
 2294 0036 0446     		mov	r4, r0
 421:App/Src/task.c ****         state = 1;
 2295              		.loc 1 421 9 is_stmt 1 view .LVU556
 421:App/Src/task.c ****         state = 1;
 2296              		.loc 1 421 15 is_stmt 0 view .LVU557
 2297 0038 AB4B     		ldr	r3, .L184+16
 2298 003a 0122     		movs	r2, #1
 2299 003c 1A70     		strb	r2, [r3]
 422:App/Src/task.c ****         g_machineTest.machine.Ivdd = 0;
 2300              		.loc 1 422 9 is_stmt 1 view .LVU558
 422:App/Src/task.c ****         g_machineTest.machine.Ivdd = 0;
 2301              		.loc 1 422 20 is_stmt 0 view .LVU559
 2302 003e AB4B     		ldr	r3, .L184+20
 2303 0040 1870     		strb	r0, [r3]
 423:App/Src/task.c ****         g_machineTest.machine.Ivbat = 0;
 2304              		.loc 1 423 9 is_stmt 1 view .LVU560
 423:App/Src/task.c ****         g_machineTest.machine.Ivbat = 0;
 2305              		.loc 1 423 36 is_stmt 0 view .LVU561
 2306 0042 AB4B     		ldr	r3, .L184+24
 2307 0044 0022     		movs	r2, #0
 2308 0046 A3F84420 		strh	r2, [r3, #68]	@ movhi
 424:App/Src/task.c ****         g_machineTest.machine.config9 = 0xff;
 2309              		.loc 1 424 9 is_stmt 1 view .LVU562
 424:App/Src/task.c ****         g_machineTest.machine.config9 = 0xff;
 2310              		.loc 1 424 37 is_stmt 0 view .LVU563
 2311 004a A3F84620 		strh	r2, [r3, #70]	@ movhi
 425:App/Src/task.c ****         g_machineTest.machine.configC = 0xff;
 2312              		.loc 1 425 9 is_stmt 1 view .LVU564
 425:App/Src/task.c ****         g_machineTest.machine.configC = 0xff;
 2313              		.loc 1 425 39 is_stmt 0 view .LVU565
 2314 004e FF21     		movs	r1, #255
 2315              	.LVL196:
 425:App/Src/task.c ****         g_machineTest.machine.configC = 0xff;
 2316              		.loc 1 425 39 view .LVU566
 2317 0050 83F84810 		strb	r1, [r3, #72]
 426:App/Src/task.c ****         g_machineTest.machine.sysTemp = 0;
 2318              		.loc 1 426 9 is_stmt 1 view .LVU567
 426:App/Src/task.c ****         g_machineTest.machine.sysTemp = 0;
 2319              		.loc 1 426 39 is_stmt 0 view .LVU568
 2320 0054 83F84910 		strb	r1, [r3, #73]
 427:App/Src/task.c ****         g_machineTest.machine.rtcTemp = 0;
 2321              		.loc 1 427 9 is_stmt 1 view .LVU569
 427:App/Src/task.c ****         g_machineTest.machine.rtcTemp = 0;
 2322              		.loc 1 427 39 is_stmt 0 view .LVU570
 2323 0058 83F84A20 		strb	r2, [r3, #74]
 428:App/Src/task.c ****         g_machineTest.machine.testFreq = 0;
 2324              		.loc 1 428 9 is_stmt 1 view .LVU571
 428:App/Src/task.c ****         g_machineTest.machine.testFreq = 0;
 2325              		.loc 1 428 39 is_stmt 0 view .LVU572
 2326 005c 83F84B20 		strb	r2, [r3, #75]
 429:App/Src/task.c ****         g_machineTest.machine.vbat_2V5 = 0;
 2327              		.loc 1 429 9 is_stmt 1 view .LVU573
 429:App/Src/task.c ****         g_machineTest.machine.vbat_2V5 = 0;
 2328              		.loc 1 429 40 is_stmt 0 view .LVU574
 2329 0060 0021     		movs	r1, #0
 2330 0062 D964     		str	r1, [r3, #76]	@ float
ARM GAS  C:\Users\86158\AppData\Local\Temp\cck4kAYW.s 			page 58


 430:App/Src/task.c ****         g_machineTest.machine.charge = 0;
 2331              		.loc 1 430 9 is_stmt 1 view .LVU575
 430:App/Src/task.c ****         g_machineTest.machine.charge = 0;
 2332              		.loc 1 430 40 is_stmt 0 view .LVU576
 2333 0064 A3F85020 		strh	r2, [r3, #80]	@ movhi
 431:App/Src/task.c ****         startTime = HAL_GetTick();
 2334              		.loc 1 431 9 is_stmt 1 view .LVU577
 431:App/Src/task.c ****         startTime = HAL_GetTick();
 2335              		.loc 1 431 38 is_stmt 0 view .LVU578
 2336 0068 A3F85220 		strh	r2, [r3, #82]	@ movhi
 432:App/Src/task.c ****         UsbPrintf("machine test chip:%d\n", number);
 2337              		.loc 1 432 9 is_stmt 1 view .LVU579
 432:App/Src/task.c ****         UsbPrintf("machine test chip:%d\n", number);
 2338              		.loc 1 432 21 is_stmt 0 view .LVU580
 2339 006c FFF7FEFF 		bl	HAL_GetTick
 2340              	.LVL197:
 432:App/Src/task.c ****         UsbPrintf("machine test chip:%d\n", number);
 2341              		.loc 1 432 19 view .LVU581
 2342 0070 A04B     		ldr	r3, .L184+28
 2343 0072 1860     		str	r0, [r3]
 433:App/Src/task.c ****         log_printf("machine test chip:%d\n", number);
 2344              		.loc 1 433 9 is_stmt 1 view .LVU582
 2345 0074 A04D     		ldr	r5, .L184+32
 2346 0076 2146     		mov	r1, r4
 2347 0078 2846     		mov	r0, r5
 2348 007a FFF7FEFF 		bl	UsbPrintf
 2349              	.LVL198:
 434:App/Src/task.c ****     }
 2350              		.loc 1 434 9 view .LVU583
 2351 007e 2146     		mov	r1, r4
 2352 0080 2846     		mov	r0, r5
 2353 0082 FFF7FEFF 		bl	log_printf
 2354              	.LVL199:
 2355 0086 C4E7     		b	.L148
 2356              	.L160:
 438:App/Src/task.c ****         case 1:
 439:App/Src/task.c **** 	        rtc_group_power(testNumber, POWER_I2C);
 2357              		.loc 1 439 10 view .LVU584
 2358 0088 0121     		movs	r1, #1
 2359 008a 984B     		ldr	r3, .L184+20
 2360 008c 1878     		ldrb	r0, [r3]	@ zero_extendqisi2
 2361 008e FFF7FEFF 		bl	rtc_group_power
 2362              	.LVL200:
 440:App/Src/task.c ****             result = 1; 
 2363              		.loc 1 440 13 view .LVU585
 2364              		.loc 1 440 20 is_stmt 0 view .LVU586
 2365 0092 9A4B     		ldr	r3, .L184+36
 2366 0094 0122     		movs	r2, #1
 2367 0096 1A70     		strb	r2, [r3]
 441:App/Src/task.c ****             timeout = HAL_GetTick();
 2368              		.loc 1 441 13 is_stmt 1 view .LVU587
 2369              		.loc 1 441 23 is_stmt 0 view .LVU588
 2370 0098 FFF7FEFF 		bl	HAL_GetTick
 2371              	.LVL201:
 2372              		.loc 1 441 21 view .LVU589
 2373 009c 984B     		ldr	r3, .L184+40
 2374 009e 1860     		str	r0, [r3]
ARM GAS  C:\Users\86158\AppData\Local\Temp\cck4kAYW.s 			page 59


 442:App/Src/task.c ****             state++;
 2375              		.loc 1 442 13 is_stmt 1 view .LVU590
 2376              		.loc 1 442 18 is_stmt 0 view .LVU591
 2377 00a0 914A     		ldr	r2, .L184+16
 2378 00a2 1378     		ldrb	r3, [r2]	@ zero_extendqisi2
 2379 00a4 0133     		adds	r3, r3, #1
 2380 00a6 1370     		strb	r3, [r2]
 443:App/Src/task.c ****         break;
 2381              		.loc 1 443 9 is_stmt 1 view .LVU592
 2382              	.L149:
 444:App/Src/task.c ****         case 2:
 445:App/Src/task.c ****             // if (HAL_GetTick() < (timeout + 800)) {
 446:App/Src/task.c ****             //     break;
 447:App/Src/task.c ****             // }
 448:App/Src/task.c ****             // i2c_result = rtc_read_otp_data(buffer, SD3900_CONFIG0_ADDR, 16);
 449:App/Src/task.c ****             // if (i2c_result != I2C_OK) {
 450:App/Src/task.c ****             //     UsbPrintf("chip%d i2c error, test end!\n", testNumber);
 451:App/Src/task.c ****             //     log_printf("chip%d i2c error!\n", testNumber);
 452:App/Src/task.c ****             //     return -1;
 453:App/Src/task.c ****             // }
 454:App/Src/task.c ****             // g_machineTest.machine.config9 = buffer[9];
 455:App/Src/task.c ****             // g_machineTest.machine.configC = buffer[0xC];
 456:App/Src/task.c ****             // UsbPrintf("config9:0x%02X, configC:0x%02X\n", g_machineTest.machine.config9, g_machi
 457:App/Src/task.c ****             // log_printf("config9:0x%02X, configC:0x%02X\n", g_machineTest.machine.config9, g_mach
 458:App/Src/task.c ****             // rtc_set_testmode();
 459:App/Src/task.c ****             // if (g_machineTest.machine.config9 != 0xff) {//温度计配置了，测试温度
 460:App/Src/task.c ****             //     g_machineTest.machine.sysTemp = (int)temp_read_value(1);
 461:App/Src/task.c ****             //     UsbPrintf("system temp:%d, ", g_machineTest.machine.sysTemp);
 462:App/Src/task.c ****             //     rtc_read_temp(&g_machineTest.machine.rtcTemp);
 463:App/Src/task.c ****             //     UsbPrintf("temp:%d\n", g_machineTest.machine.rtcTemp);
 464:App/Src/task.c ****             //     log_printf("temp:%d\n", g_machineTest.machine.rtcTemp);
 465:App/Src/task.c ****             //     if (g_machineTest.machine.rtcTemp > (g_machineTest.machine.sysTemp + 5) 
 466:App/Src/task.c ****             //         || g_machineTest.machine.rtcTemp < (g_machineTest.machine.sysTemp - 5)) {
 467:App/Src/task.c ****             //         result = 0;
 468:App/Src/task.c ****             //     }
 469:App/Src/task.c ****             //     state++;
 470:App/Src/task.c ****             // } else {//如果温度计没有配置，就不必测试频率误差了
 471:App/Src/task.c ****             //     if (g_machineTest.machine.configC != 0xff) {//没有配置configC就不测试电池
 472:App/Src/task.c ****             //         state = 6;
 473:App/Src/task.c ****             //     } else {
 474:App/Src/task.c ****             //         state = 8;
 475:App/Src/task.c ****             //         result = 0;
 476:App/Src/task.c ****             //     }
 477:App/Src/task.c ****             // }
 478:App/Src/task.c ****         break;
 479:App/Src/task.c **** //-----------------------------测试频率------------------------------------------
 480:App/Src/task.c ****         case 3:	
 481:App/Src/task.c ****             rtc_set_int_channel(testNumber);
 482:App/Src/task.c **** 	        rtc_out_4096();            
 483:App/Src/task.c ****             timeout = HAL_GetTick();
 484:App/Src/task.c ****             state++;
 485:App/Src/task.c ****         break;
 486:App/Src/task.c ****         case 4:
 487:App/Src/task.c ****             if (HAL_GetTick() > timeout + 100) {
 488:App/Src/task.c **** 	            DevicePrintf(":MEAS?\n");
 489:App/Src/task.c ****                 timeout = HAL_GetTick();
 490:App/Src/task.c ****                 g_lastFreq.recordTime = timeout;
ARM GAS  C:\Users\86158\AppData\Local\Temp\cck4kAYW.s 			page 60


 491:App/Src/task.c ****                 state++;
 492:App/Src/task.c ****             }
 493:App/Src/task.c ****         break;
 494:App/Src/task.c ****         case 5:
 495:App/Src/task.c ****             if (g_lastFreq.recordTime > timeout) {//有新的数据更新，计算误差
 496:App/Src/task.c ****                 g_machineTest.machine.testFreq = g_lastFreq.freq;
 497:App/Src/task.c ****                 ppm4096 = (g_machineTest.machine.testFreq / 4.096 - 1) * 1000000;
 498:App/Src/task.c ****                 UsbPrintf("%f, ppm:%.2f\n", g_machineTest.machine.testFreq, ppm4096);
 499:App/Src/task.c ****                 log_printf("%f, ppm:%.2f\n", g_machineTest.machine.testFreq, ppm4096);
 500:App/Src/task.c ****                 if (ppm4096 < -3 || ppm4096 > 3) {
 501:App/Src/task.c ****                     result = 0;
 502:App/Src/task.c ****                 }
 503:App/Src/task.c **** 	            rtc_disable_int();
 504:App/Src/task.c ****                 state++;
 505:App/Src/task.c ****             }
 506:App/Src/task.c ****             if (HAL_GetTick() > timeout + 1500) {//1.5s超时
 507:App/Src/task.c ****                 UsbPrintf("device no respose!\n");
 508:App/Src/task.c ****                 log_printf("device no respose!\n");
 509:App/Src/task.c ****                 result = 0;
 510:App/Src/task.c **** 	            rtc_disable_int();
 511:App/Src/task.c ****                 state++;
 512:App/Src/task.c ****             }
 513:App/Src/task.c ****         break;
 514:App/Src/task.c **** //---------------------------测试电池--------------------------------------------------
 515:App/Src/task.c ****         case 6://测试电池功能，电池电压
 516:App/Src/task.c ****             HAL_GPIO_WritePin(GPIOB, GPIO_PIN_2 << ((testNumber - 1) / 14), GPIO_PIN_RESET);
 517:App/Src/task.c ****             HAL_Delay(5);
 518:App/Src/task.c ****             rtc_read_vbat(&vbat);
 519:App/Src/task.c ****             g_machineTest.machine.vbat_2V5 = vbat * 10;
 520:App/Src/task.c ****             UsbPrintf("vbat = %dmV\n", g_machineTest.machine.vbat_2V5);
 521:App/Src/task.c ****             log_printf("vbat = %dmV\n", g_machineTest.machine.vbat_2V5);
 522:App/Src/task.c ****             if (g_machineTest.machine.vbat_2V5 < 2300 || g_machineTest.machine.vbat_2V5 > 2700) {
 523:App/Src/task.c ****                 result = 0;
 524:App/Src/task.c ****             }
 525:App/Src/task.c ****             HAL_GPIO_WritePin(GPIOB, GPIO_PIN_2 << ((testNumber - 1) / 14), GPIO_PIN_SET);
 526:App/Src/task.c ****             state++;
 527:App/Src/task.c ****         break;
 528:App/Src/task.c ****         case 7://充电电压
 529:App/Src/task.c ****             rtc_set_bat_charge(1);
 530:App/Src/task.c ****             HAL_Delay(5);
 531:App/Src/task.c ****             rtc_read_vbat(&vbat);
 532:App/Src/task.c ****             g_machineTest.machine.charge = vbat * 10;
 533:App/Src/task.c ****             UsbPrintf("charge = %dmV\n", g_machineTest.machine.charge);
 534:App/Src/task.c ****             if (g_machineTest.machine.charge < 2800 || g_machineTest.machine.charge > 3500) {//检查
 535:App/Src/task.c ****                 result = 0;
 536:App/Src/task.c ****             }
 537:App/Src/task.c ****             rtc_set_bat_charge(0);//关闭充电功能
 538:App/Src/task.c ****             state++;
 539:App/Src/task.c ****         break;
 540:App/Src/task.c **** //----------------------------测试电流----------------------------------------------------
 541:App/Src/task.c ****         case 8:	
 542:App/Src/task.c ****             rtc_set_testmode();
 543:App/Src/task.c ****             rtc_group_power(testNumber, POWER_VDD_I);
 544:App/Src/task.c ****             timeout = HAL_GetTick();
 545:App/Src/task.c ****             state++;
 546:App/Src/task.c ****         break;
 547:App/Src/task.c ****         case 9:	
ARM GAS  C:\Users\86158\AppData\Local\Temp\cck4kAYW.s 			page 61


 548:App/Src/task.c ****             if (HAL_GetTick() > (timeout + 1000)) {
 549:App/Src/task.c ****                 cur = CS1237Current();
 550:App/Src/task.c ****                 if (cur < 0) {cur = 0;}
 551:App/Src/task.c ****                 g_machineTest.machine.Ivdd = (int)cur;
 552:App/Src/task.c ****                 UsbPrintf("vdd:%dnA\n", g_machineTest.machine.Ivdd);
 553:App/Src/task.c ****                 log_printf("vdd:%dnA\n", g_machineTest.machine.Ivdd);
 554:App/Src/task.c ****                 if (g_machineTest.machine.Ivdd > 1500) {
 555:App/Src/task.c ****                     result = 0;
 556:App/Src/task.c ****                 }
 557:App/Src/task.c ****                 rtc_group_power(testNumber, POWER_BAT_I);
 558:App/Src/task.c ****                 timeout = HAL_GetTick();
 559:App/Src/task.c ****                 state++;
 560:App/Src/task.c ****             }
 561:App/Src/task.c ****         break;
 562:App/Src/task.c ****         case 10:
 563:App/Src/task.c ****             if (HAL_GetTick() > (timeout + 1000)) {
 564:App/Src/task.c ****                 cur = CS1237Current();
 565:App/Src/task.c ****                 if (cur < 0) {cur = 0;}
 566:App/Src/task.c ****                 g_machineTest.machine.Ivbat =(int)cur;
 567:App/Src/task.c ****                 UsbPrintf("bat:%dnA\n", g_machineTest.machine.Ivbat);
 568:App/Src/task.c ****                 log_printf("bat:%dnA\n", g_machineTest.machine.Ivbat);
 569:App/Src/task.c ****                 if (g_machineTest.machine.Ivbat > 1500) {
 570:App/Src/task.c ****                     result = 0;
 571:App/Src/task.c ****                 }
 572:App/Src/task.c ****                 rtc_group_power(testNumber, POWER_I2C);
 573:App/Src/task.c ****                 // rtc_exit_testmode();
 574:App/Src/task.c ****                 state++;
 575:App/Src/task.c ****             }
 576:App/Src/task.c ****         break;
 577:App/Src/task.c ****         case 11:
 578:App/Src/task.c ****             //-----------------------------测试结束------------------------------------------------
 579:App/Src/task.c ****             if (result == 0) {
 580:App/Src/task.c ****                 UsbPrintf("test all end, chip %d NG\n", testNumber);
 581:App/Src/task.c ****                 log_printf("test all end, chip %d NG\n", testNumber);
 582:App/Src/task.c ****             } else {
 583:App/Src/task.c ****                 UsbPrintf("test all end, chip %d OK\n", testNumber);
 584:App/Src/task.c ****                 log_printf("test all end, chip %d OK\n", testNumber);
 585:App/Src/task.c ****             }
 586:App/Src/task.c ****             state = 0;
 587:App/Src/task.c ****         break;
 588:App/Src/task.c ****         default:  break;
 589:App/Src/task.c ****     }
 590:App/Src/task.c ****     if (HAL_GetTick() > startTime + 20000) { return -1; }//单个芯片测试时间超过20s时，强制判定ng；
 2383              		.loc 1 590 5 view .LVU593
 2384              		.loc 1 590 9 is_stmt 0 view .LVU594
 2385 00a8 FFF7FEFF 		bl	HAL_GetTick
 2386              	.LVL202:
 2387              		.loc 1 590 35 view .LVU595
 2388 00ac 914B     		ldr	r3, .L184+28
 2389 00ae 1B68     		ldr	r3, [r3]
 2390 00b0 03F59C43 		add	r3, r3, #19968
 2391 00b4 2033     		adds	r3, r3, #32
 2392              		.loc 1 590 8 view .LVU596
 2393 00b6 9842     		cmp	r0, r3
 2394 00b8 00F2D481 		bhi	.L176
 591:App/Src/task.c ****     if (state == 0) {
 2395              		.loc 1 591 5 is_stmt 1 view .LVU597
ARM GAS  C:\Users\86158\AppData\Local\Temp\cck4kAYW.s 			page 62


 2396              		.loc 1 591 15 is_stmt 0 view .LVU598
 2397 00bc 8A4B     		ldr	r3, .L184+16
 2398 00be 1B78     		ldrb	r3, [r3]	@ zero_extendqisi2
 2399              		.loc 1 591 8 view .LVU599
 2400 00c0 002B     		cmp	r3, #0
 2401 00c2 40F0D681 		bne	.L177
 592:App/Src/task.c ****         if (result != 0) {
 2402              		.loc 1 592 9 is_stmt 1 view .LVU600
 2403              		.loc 1 592 20 is_stmt 0 view .LVU601
 2404 00c6 8D4B     		ldr	r3, .L184+36
 2405 00c8 1B78     		ldrb	r3, [r3]	@ zero_extendqisi2
 2406              		.loc 1 592 12 view .LVU602
 2407 00ca 002B     		cmp	r3, #0
 2408 00cc 00F0D381 		beq	.L178
 593:App/Src/task.c ****             return 1;
 2409              		.loc 1 593 20 view .LVU603
 2410 00d0 0120     		movs	r0, #1
 2411 00d2 C9E1     		b	.L147
 2412              	.L159:
 481:App/Src/task.c **** 	        rtc_out_4096();            
 2413              		.loc 1 481 13 is_stmt 1 view .LVU604
 2414 00d4 854B     		ldr	r3, .L184+20
 2415 00d6 1878     		ldrb	r0, [r3]	@ zero_extendqisi2
 2416 00d8 FFF7FEFF 		bl	rtc_set_int_channel
 2417              	.LVL203:
 482:App/Src/task.c ****             timeout = HAL_GetTick();
 2418              		.loc 1 482 10 view .LVU605
 2419 00dc FFF7FEFF 		bl	rtc_out_4096
 2420              	.LVL204:
 483:App/Src/task.c ****             state++;
 2421              		.loc 1 483 13 view .LVU606
 483:App/Src/task.c ****             state++;
 2422              		.loc 1 483 23 is_stmt 0 view .LVU607
 2423 00e0 FFF7FEFF 		bl	HAL_GetTick
 2424              	.LVL205:
 483:App/Src/task.c ****             state++;
 2425              		.loc 1 483 21 view .LVU608
 2426 00e4 864B     		ldr	r3, .L184+40
 2427 00e6 1860     		str	r0, [r3]
 484:App/Src/task.c ****         break;
 2428              		.loc 1 484 13 is_stmt 1 view .LVU609
 484:App/Src/task.c ****         break;
 2429              		.loc 1 484 18 is_stmt 0 view .LVU610
 2430 00e8 7F4A     		ldr	r2, .L184+16
 2431 00ea 1378     		ldrb	r3, [r2]	@ zero_extendqisi2
 2432 00ec 0133     		adds	r3, r3, #1
 2433 00ee 1370     		strb	r3, [r2]
 485:App/Src/task.c ****         case 4:
 2434              		.loc 1 485 9 is_stmt 1 view .LVU611
 2435 00f0 DAE7     		b	.L149
 2436              	.L158:
 487:App/Src/task.c **** 	            DevicePrintf(":MEAS?\n");
 2437              		.loc 1 487 13 view .LVU612
 487:App/Src/task.c **** 	            DevicePrintf(":MEAS?\n");
 2438              		.loc 1 487 17 is_stmt 0 view .LVU613
 2439 00f2 FFF7FEFF 		bl	HAL_GetTick
 2440              	.LVL206:
ARM GAS  C:\Users\86158\AppData\Local\Temp\cck4kAYW.s 			page 63


 487:App/Src/task.c **** 	            DevicePrintf(":MEAS?\n");
 2441              		.loc 1 487 41 view .LVU614
 2442 00f6 824B     		ldr	r3, .L184+40
 2443 00f8 1B68     		ldr	r3, [r3]
 2444 00fa 6433     		adds	r3, r3, #100
 487:App/Src/task.c **** 	            DevicePrintf(":MEAS?\n");
 2445              		.loc 1 487 16 view .LVU615
 2446 00fc 9842     		cmp	r0, r3
 2447 00fe D3D9     		bls	.L149
 488:App/Src/task.c ****                 timeout = HAL_GetTick();
 2448              		.loc 1 488 14 is_stmt 1 view .LVU616
 2449 0100 8048     		ldr	r0, .L184+44
 2450 0102 FFF7FEFF 		bl	DevicePrintf
 2451              	.LVL207:
 489:App/Src/task.c ****                 g_lastFreq.recordTime = timeout;
 2452              		.loc 1 489 17 view .LVU617
 489:App/Src/task.c ****                 g_lastFreq.recordTime = timeout;
 2453              		.loc 1 489 27 is_stmt 0 view .LVU618
 2454 0106 FFF7FEFF 		bl	HAL_GetTick
 2455              	.LVL208:
 489:App/Src/task.c ****                 g_lastFreq.recordTime = timeout;
 2456              		.loc 1 489 25 view .LVU619
 2457 010a 7D4B     		ldr	r3, .L184+40
 2458 010c 1860     		str	r0, [r3]
 490:App/Src/task.c ****                 state++;
 2459              		.loc 1 490 17 is_stmt 1 view .LVU620
 490:App/Src/task.c ****                 state++;
 2460              		.loc 1 490 39 is_stmt 0 view .LVU621
 2461 010e 7E4B     		ldr	r3, .L184+48
 2462 0110 1860     		str	r0, [r3]
 491:App/Src/task.c ****             }
 2463              		.loc 1 491 17 is_stmt 1 view .LVU622
 491:App/Src/task.c ****             }
 2464              		.loc 1 491 22 is_stmt 0 view .LVU623
 2465 0112 754A     		ldr	r2, .L184+16
 2466 0114 1378     		ldrb	r3, [r2]	@ zero_extendqisi2
 2467 0116 0133     		adds	r3, r3, #1
 2468 0118 1370     		strb	r3, [r2]
 2469 011a C5E7     		b	.L149
 2470              	.L157:
 495:App/Src/task.c ****                 g_machineTest.machine.testFreq = g_lastFreq.freq;
 2471              		.loc 1 495 13 is_stmt 1 view .LVU624
 495:App/Src/task.c ****                 g_machineTest.machine.testFreq = g_lastFreq.freq;
 2472              		.loc 1 495 27 is_stmt 0 view .LVU625
 2473 011c 7A4B     		ldr	r3, .L184+48
 2474 011e 1A68     		ldr	r2, [r3]
 495:App/Src/task.c ****                 g_machineTest.machine.testFreq = g_lastFreq.freq;
 2475              		.loc 1 495 39 view .LVU626
 2476 0120 774B     		ldr	r3, .L184+40
 2477 0122 1B68     		ldr	r3, [r3]
 495:App/Src/task.c ****                 g_machineTest.machine.testFreq = g_lastFreq.freq;
 2478              		.loc 1 495 16 view .LVU627
 2479 0124 9A42     		cmp	r2, r3
 2480 0126 18D8     		bhi	.L181
 2481              	.L161:
 506:App/Src/task.c ****                 UsbPrintf("device no respose!\n");
 2482              		.loc 1 506 13 is_stmt 1 view .LVU628
ARM GAS  C:\Users\86158\AppData\Local\Temp\cck4kAYW.s 			page 64


 506:App/Src/task.c ****                 UsbPrintf("device no respose!\n");
 2483              		.loc 1 506 17 is_stmt 0 view .LVU629
 2484 0128 FFF7FEFF 		bl	HAL_GetTick
 2485              	.LVL209:
 506:App/Src/task.c ****                 UsbPrintf("device no respose!\n");
 2486              		.loc 1 506 41 view .LVU630
 2487 012c 744B     		ldr	r3, .L184+40
 2488 012e 1B68     		ldr	r3, [r3]
 2489 0130 03F2DC53 		addw	r3, r3, #1500
 506:App/Src/task.c ****                 UsbPrintf("device no respose!\n");
 2490              		.loc 1 506 16 view .LVU631
 2491 0134 9842     		cmp	r0, r3
 2492 0136 B7D9     		bls	.L149
 507:App/Src/task.c ****                 log_printf("device no respose!\n");
 2493              		.loc 1 507 17 is_stmt 1 view .LVU632
 2494 0138 744C     		ldr	r4, .L184+52
 2495 013a 2046     		mov	r0, r4
 2496 013c FFF7FEFF 		bl	UsbPrintf
 2497              	.LVL210:
 508:App/Src/task.c ****                 result = 0;
 2498              		.loc 1 508 17 view .LVU633
 2499 0140 2046     		mov	r0, r4
 2500 0142 FFF7FEFF 		bl	log_printf
 2501              	.LVL211:
 509:App/Src/task.c **** 	            rtc_disable_int();
 2502              		.loc 1 509 17 view .LVU634
 509:App/Src/task.c **** 	            rtc_disable_int();
 2503              		.loc 1 509 24 is_stmt 0 view .LVU635
 2504 0146 6D4B     		ldr	r3, .L184+36
 2505 0148 0022     		movs	r2, #0
 2506 014a 1A70     		strb	r2, [r3]
 510:App/Src/task.c ****                 state++;
 2507              		.loc 1 510 14 is_stmt 1 view .LVU636
 2508 014c FFF7FEFF 		bl	rtc_disable_int
 2509              	.LVL212:
 511:App/Src/task.c ****             }
 2510              		.loc 1 511 17 view .LVU637
 511:App/Src/task.c ****             }
 2511              		.loc 1 511 22 is_stmt 0 view .LVU638
 2512 0150 654A     		ldr	r2, .L184+16
 2513 0152 1378     		ldrb	r3, [r2]	@ zero_extendqisi2
 2514 0154 0133     		adds	r3, r3, #1
 2515 0156 1370     		strb	r3, [r2]
 2516 0158 A6E7     		b	.L149
 2517              	.L181:
 496:App/Src/task.c ****                 ppm4096 = (g_machineTest.machine.testFreq / 4.096 - 1) * 1000000;
 2518              		.loc 1 496 17 is_stmt 1 view .LVU639
 496:App/Src/task.c ****                 ppm4096 = (g_machineTest.machine.testFreq / 4.096 - 1) * 1000000;
 2519              		.loc 1 496 60 is_stmt 0 view .LVU640
 2520 015a 6B4B     		ldr	r3, .L184+48
 2521 015c 5868     		ldr	r0, [r3, #4]	@ float
 496:App/Src/task.c ****                 ppm4096 = (g_machineTest.machine.testFreq / 4.096 - 1) * 1000000;
 2522              		.loc 1 496 48 view .LVU641
 2523 015e DFF89081 		ldr	r8, .L184+24
 2524 0162 C8F84C00 		str	r0, [r8, #76]	@ float
 497:App/Src/task.c ****                 UsbPrintf("%f, ppm:%.2f\n", g_machineTest.machine.testFreq, ppm4096);
 2525              		.loc 1 497 17 is_stmt 1 view .LVU642
ARM GAS  C:\Users\86158\AppData\Local\Temp\cck4kAYW.s 			page 65


 497:App/Src/task.c ****                 UsbPrintf("%f, ppm:%.2f\n", g_machineTest.machine.testFreq, ppm4096);
 2526              		.loc 1 497 49 is_stmt 0 view .LVU643
 2527 0166 FFF7FEFF 		bl	__aeabi_f2d
 2528              	.LVL213:
 2529 016a 0646     		mov	r6, r0
 2530 016c 0F46     		mov	r7, r1
 497:App/Src/task.c ****                 UsbPrintf("%f, ppm:%.2f\n", g_machineTest.machine.testFreq, ppm4096);
 2531              		.loc 1 497 59 view .LVU644
 2532 016e 5AA3     		adr	r3, .L184
 2533 0170 D3E90023 		ldrd	r2, [r3]
 2534 0174 FFF7FEFF 		bl	__aeabi_ddiv
 2535              	.LVL214:
 497:App/Src/task.c ****                 UsbPrintf("%f, ppm:%.2f\n", g_machineTest.machine.testFreq, ppm4096);
 2536              		.loc 1 497 67 view .LVU645
 2537 0178 0022     		movs	r2, #0
 2538 017a 654B     		ldr	r3, .L184+56
 2539 017c FFF7FEFF 		bl	__aeabi_dsub
 2540              	.LVL215:
 497:App/Src/task.c ****                 UsbPrintf("%f, ppm:%.2f\n", g_machineTest.machine.testFreq, ppm4096);
 2541              		.loc 1 497 72 view .LVU646
 2542 0180 57A3     		adr	r3, .L184+8
 2543 0182 D3E90023 		ldrd	r2, [r3]
 2544 0186 FFF7FEFF 		bl	__aeabi_dmul
 2545              	.LVL216:
 497:App/Src/task.c ****                 UsbPrintf("%f, ppm:%.2f\n", g_machineTest.machine.testFreq, ppm4096);
 2546              		.loc 1 497 25 view .LVU647
 2547 018a FFF7FEFF 		bl	__aeabi_d2f
 2548              	.LVL217:
 2549 018e 08EE100A 		vmov	s16, r0
 2550              	.LVL218:
 498:App/Src/task.c ****                 log_printf("%f, ppm:%.2f\n", g_machineTest.machine.testFreq, ppm4096);
 2551              		.loc 1 498 17 is_stmt 1 view .LVU648
 2552 0192 FFF7FEFF 		bl	__aeabi_f2d
 2553              	.LVL219:
 498:App/Src/task.c ****                 log_printf("%f, ppm:%.2f\n", g_machineTest.machine.testFreq, ppm4096);
 2554              		.loc 1 498 17 is_stmt 0 view .LVU649
 2555 0196 0446     		mov	r4, r0
 2556 0198 0D46     		mov	r5, r1
 2557 019a DFF88891 		ldr	r9, .L184+76
 2558 019e CDE90045 		strd	r4, [sp]
 2559 01a2 3246     		mov	r2, r6
 2560 01a4 3B46     		mov	r3, r7
 2561 01a6 4846     		mov	r0, r9
 2562 01a8 FFF7FEFF 		bl	UsbPrintf
 2563              	.LVL220:
 499:App/Src/task.c ****                 if (ppm4096 < -3 || ppm4096 > 3) {
 2564              		.loc 1 499 17 is_stmt 1 view .LVU650
 2565 01ac D8F84C00 		ldr	r0, [r8, #76]	@ float
 2566 01b0 FFF7FEFF 		bl	__aeabi_f2d
 2567              	.LVL221:
 2568 01b4 0246     		mov	r2, r0
 2569 01b6 0B46     		mov	r3, r1
 2570 01b8 CDE90045 		strd	r4, [sp]
 2571 01bc 4846     		mov	r0, r9
 2572 01be FFF7FEFF 		bl	log_printf
 2573              	.LVL222:
 500:App/Src/task.c ****                     result = 0;
ARM GAS  C:\Users\86158\AppData\Local\Temp\cck4kAYW.s 			page 66


 2574              		.loc 1 500 17 view .LVU651
 500:App/Src/task.c ****                     result = 0;
 2575              		.loc 1 500 20 is_stmt 0 view .LVU652
 2576 01c2 F8EE087A 		vmov.f32	s15, #-3.0e+0
 2577 01c6 B4EEE78A 		vcmpe.f32	s16, s15
 2578 01ca F1EE10FA 		vmrs	APSR_nzcv, FPSCR
 2579 01ce 06D4     		bmi	.L162
 500:App/Src/task.c ****                     result = 0;
 2580              		.loc 1 500 34 discriminator 1 view .LVU653
 2581 01d0 F0EE087A 		vmov.f32	s15, #3.0e+0
 2582 01d4 B4EEE78A 		vcmpe.f32	s16, s15
 2583 01d8 F1EE10FA 		vmrs	APSR_nzcv, FPSCR
 2584 01dc 02DD     		ble	.L163
 2585              	.L162:
 501:App/Src/task.c ****                 }
 2586              		.loc 1 501 21 is_stmt 1 view .LVU654
 501:App/Src/task.c ****                 }
 2587              		.loc 1 501 28 is_stmt 0 view .LVU655
 2588 01de 474B     		ldr	r3, .L184+36
 2589 01e0 0022     		movs	r2, #0
 2590 01e2 1A70     		strb	r2, [r3]
 2591              	.L163:
 503:App/Src/task.c ****                 state++;
 2592              		.loc 1 503 14 is_stmt 1 view .LVU656
 2593 01e4 FFF7FEFF 		bl	rtc_disable_int
 2594              	.LVL223:
 504:App/Src/task.c ****             }
 2595              		.loc 1 504 17 view .LVU657
 504:App/Src/task.c ****             }
 2596              		.loc 1 504 22 is_stmt 0 view .LVU658
 2597 01e8 3F4A     		ldr	r2, .L184+16
 2598 01ea 1378     		ldrb	r3, [r2]	@ zero_extendqisi2
 2599 01ec 0133     		adds	r3, r3, #1
 2600 01ee 1370     		strb	r3, [r2]
 2601 01f0 9AE7     		b	.L161
 2602              	.LVL224:
 2603              	.L156:
 516:App/Src/task.c ****             HAL_Delay(5);
 2604              		.loc 1 516 13 is_stmt 1 view .LVU659
 516:App/Src/task.c ****             HAL_Delay(5);
 2605              		.loc 1 516 65 is_stmt 0 view .LVU660
 2606 01f2 3E4B     		ldr	r3, .L184+20
 2607 01f4 1B78     		ldrb	r3, [r3]	@ zero_extendqisi2
 2608 01f6 013B     		subs	r3, r3, #1
 516:App/Src/task.c ****             HAL_Delay(5);
 2609              		.loc 1 516 70 view .LVU661
 2610 01f8 4649     		ldr	r1, .L184+60
 2611 01fa 81FB0321 		smull	r2, r1, r1, r3
 2612 01fe 1944     		add	r1, r1, r3
 2613 0200 DB17     		asrs	r3, r3, #31
 2614 0202 C3EBE103 		rsb	r3, r3, r1, asr #3
 516:App/Src/task.c ****             HAL_Delay(5);
 2615              		.loc 1 516 49 view .LVU662
 2616 0206 0421     		movs	r1, #4
 2617 0208 9940     		lsls	r1, r1, r3
 516:App/Src/task.c ****             HAL_Delay(5);
 2618              		.loc 1 516 13 view .LVU663
ARM GAS  C:\Users\86158\AppData\Local\Temp\cck4kAYW.s 			page 67


 2619 020a 0022     		movs	r2, #0
 2620 020c 89B2     		uxth	r1, r1
 2621 020e 4248     		ldr	r0, .L184+64
 2622 0210 FFF7FEFF 		bl	HAL_GPIO_WritePin
 2623              	.LVL225:
 517:App/Src/task.c ****             rtc_read_vbat(&vbat);
 2624              		.loc 1 517 13 is_stmt 1 view .LVU664
 2625 0214 0520     		movs	r0, #5
 2626 0216 FFF7FEFF 		bl	HAL_Delay
 2627              	.LVL226:
 518:App/Src/task.c ****             g_machineTest.machine.vbat_2V5 = vbat * 10;
 2628              		.loc 1 518 13 view .LVU665
 2629 021a 03A8     		add	r0, sp, #12
 2630 021c FFF7FEFF 		bl	rtc_read_vbat
 2631              	.LVL227:
 519:App/Src/task.c ****             UsbPrintf("vbat = %dmV\n", g_machineTest.machine.vbat_2V5);
 2632              		.loc 1 519 13 view .LVU666
 519:App/Src/task.c ****             UsbPrintf("vbat = %dmV\n", g_machineTest.machine.vbat_2V5);
 2633              		.loc 1 519 44 is_stmt 0 view .LVU667
 2634 0220 0399     		ldr	r1, [sp, #12]
 2635 0222 01EB8101 		add	r1, r1, r1, lsl #2
 2636 0226 4900     		lsls	r1, r1, #1
 2637 0228 89B2     		uxth	r1, r1
 2638 022a 314C     		ldr	r4, .L184+24
 2639 022c A4F85010 		strh	r1, [r4, #80]	@ movhi
 520:App/Src/task.c ****             log_printf("vbat = %dmV\n", g_machineTest.machine.vbat_2V5);
 2640              		.loc 1 520 13 is_stmt 1 view .LVU668
 2641 0230 3A4D     		ldr	r5, .L184+68
 2642 0232 2846     		mov	r0, r5
 2643 0234 FFF7FEFF 		bl	UsbPrintf
 2644              	.LVL228:
 521:App/Src/task.c ****             if (g_machineTest.machine.vbat_2V5 < 2300 || g_machineTest.machine.vbat_2V5 > 2700) {
 2645              		.loc 1 521 13 view .LVU669
 2646 0238 B4F85010 		ldrh	r1, [r4, #80]
 2647 023c 2846     		mov	r0, r5
 2648 023e FFF7FEFF 		bl	log_printf
 2649              	.LVL229:
 522:App/Src/task.c ****                 result = 0;
 2650              		.loc 1 522 13 view .LVU670
 522:App/Src/task.c ****                 result = 0;
 2651              		.loc 1 522 38 is_stmt 0 view .LVU671
 2652 0242 B4F85030 		ldrh	r3, [r4, #80]
 522:App/Src/task.c ****                 result = 0;
 2653              		.loc 1 522 55 view .LVU672
 2654 0246 A3F6FC03 		subw	r3, r3, #2300
 2655 024a 9BB2     		uxth	r3, r3
 522:App/Src/task.c ****                 result = 0;
 2656              		.loc 1 522 16 view .LVU673
 2657 024c B3F5C87F 		cmp	r3, #400
 2658 0250 02D9     		bls	.L165
 523:App/Src/task.c ****             }
 2659              		.loc 1 523 17 is_stmt 1 view .LVU674
 523:App/Src/task.c ****             }
 2660              		.loc 1 523 24 is_stmt 0 view .LVU675
 2661 0252 2A4B     		ldr	r3, .L184+36
 2662 0254 0022     		movs	r2, #0
 2663 0256 1A70     		strb	r2, [r3]
ARM GAS  C:\Users\86158\AppData\Local\Temp\cck4kAYW.s 			page 68


 2664              	.L165:
 525:App/Src/task.c ****             state++;
 2665              		.loc 1 525 13 is_stmt 1 view .LVU676
 525:App/Src/task.c ****             state++;
 2666              		.loc 1 525 65 is_stmt 0 view .LVU677
 2667 0258 244B     		ldr	r3, .L184+20
 2668 025a 1B78     		ldrb	r3, [r3]	@ zero_extendqisi2
 2669 025c 013B     		subs	r3, r3, #1
 525:App/Src/task.c ****             state++;
 2670              		.loc 1 525 70 view .LVU678
 2671 025e 2D49     		ldr	r1, .L184+60
 2672 0260 81FB0321 		smull	r2, r1, r1, r3
 2673 0264 1944     		add	r1, r1, r3
 2674 0266 DB17     		asrs	r3, r3, #31
 2675 0268 C3EBE103 		rsb	r3, r3, r1, asr #3
 525:App/Src/task.c ****             state++;
 2676              		.loc 1 525 49 view .LVU679
 2677 026c 0421     		movs	r1, #4
 2678 026e 9940     		lsls	r1, r1, r3
 525:App/Src/task.c ****             state++;
 2679              		.loc 1 525 13 view .LVU680
 2680 0270 0122     		movs	r2, #1
 2681 0272 89B2     		uxth	r1, r1
 2682 0274 2848     		ldr	r0, .L184+64
 2683 0276 FFF7FEFF 		bl	HAL_GPIO_WritePin
 2684              	.LVL230:
 526:App/Src/task.c ****         break;
 2685              		.loc 1 526 13 is_stmt 1 view .LVU681
 526:App/Src/task.c ****         break;
 2686              		.loc 1 526 18 is_stmt 0 view .LVU682
 2687 027a 1B4A     		ldr	r2, .L184+16
 2688 027c 1378     		ldrb	r3, [r2]	@ zero_extendqisi2
 2689 027e 0133     		adds	r3, r3, #1
 2690 0280 1370     		strb	r3, [r2]
 527:App/Src/task.c ****         case 7://充电电压
 2691              		.loc 1 527 9 is_stmt 1 view .LVU683
 2692 0282 11E7     		b	.L149
 2693              	.L155:
 529:App/Src/task.c ****             HAL_Delay(5);
 2694              		.loc 1 529 13 view .LVU684
 2695 0284 0120     		movs	r0, #1
 2696 0286 FFF7FEFF 		bl	rtc_set_bat_charge
 2697              	.LVL231:
 530:App/Src/task.c ****             rtc_read_vbat(&vbat);
 2698              		.loc 1 530 13 view .LVU685
 2699 028a 0520     		movs	r0, #5
 2700 028c FFF7FEFF 		bl	HAL_Delay
 2701              	.LVL232:
 531:App/Src/task.c ****             g_machineTest.machine.charge = vbat * 10;
 2702              		.loc 1 531 13 view .LVU686
 2703 0290 03A8     		add	r0, sp, #12
 2704 0292 FFF7FEFF 		bl	rtc_read_vbat
 2705              	.LVL233:
 532:App/Src/task.c ****             UsbPrintf("charge = %dmV\n", g_machineTest.machine.charge);
 2706              		.loc 1 532 13 view .LVU687
 532:App/Src/task.c ****             UsbPrintf("charge = %dmV\n", g_machineTest.machine.charge);
 2707              		.loc 1 532 42 is_stmt 0 view .LVU688
ARM GAS  C:\Users\86158\AppData\Local\Temp\cck4kAYW.s 			page 69


 2708 0296 0399     		ldr	r1, [sp, #12]
 2709 0298 01EB8101 		add	r1, r1, r1, lsl #2
 2710 029c 4900     		lsls	r1, r1, #1
 2711 029e 89B2     		uxth	r1, r1
 2712 02a0 134C     		ldr	r4, .L184+24
 2713 02a2 A4F85210 		strh	r1, [r4, #82]	@ movhi
 533:App/Src/task.c ****             if (g_machineTest.machine.charge < 2800 || g_machineTest.machine.charge > 3500) {//检查
 2714              		.loc 1 533 13 is_stmt 1 view .LVU689
 2715 02a6 1E48     		ldr	r0, .L184+72
 2716 02a8 FFF7FEFF 		bl	UsbPrintf
 2717              	.LVL234:
 534:App/Src/task.c ****                 result = 0;
 2718              		.loc 1 534 13 view .LVU690
 534:App/Src/task.c ****                 result = 0;
 2719              		.loc 1 534 38 is_stmt 0 view .LVU691
 2720 02ac B4F85230 		ldrh	r3, [r4, #82]
 534:App/Src/task.c ****                 result = 0;
 2721              		.loc 1 534 53 view .LVU692
 2722 02b0 A3F52F63 		sub	r3, r3, #2800
 2723 02b4 9BB2     		uxth	r3, r3
 534:App/Src/task.c ****                 result = 0;
 2724              		.loc 1 534 16 view .LVU693
 2725 02b6 B3F52F7F 		cmp	r3, #700
 2726 02ba 02D9     		bls	.L166
 535:App/Src/task.c ****             }
 2727              		.loc 1 535 17 is_stmt 1 view .LVU694
 535:App/Src/task.c ****             }
 2728              		.loc 1 535 24 is_stmt 0 view .LVU695
 2729 02bc 0F4B     		ldr	r3, .L184+36
 2730 02be 0022     		movs	r2, #0
 2731 02c0 1A70     		strb	r2, [r3]
 2732              	.L166:
 537:App/Src/task.c ****             state++;
 2733              		.loc 1 537 13 is_stmt 1 view .LVU696
 2734 02c2 0020     		movs	r0, #0
 2735 02c4 FFF7FEFF 		bl	rtc_set_bat_charge
 2736              	.LVL235:
 538:App/Src/task.c ****         break;
 2737              		.loc 1 538 13 view .LVU697
 538:App/Src/task.c ****         break;
 2738              		.loc 1 538 18 is_stmt 0 view .LVU698
 2739 02c8 074A     		ldr	r2, .L184+16
 2740 02ca 1378     		ldrb	r3, [r2]	@ zero_extendqisi2
 2741 02cc 0133     		adds	r3, r3, #1
 2742 02ce 1370     		strb	r3, [r2]
 539:App/Src/task.c **** //----------------------------测试电流----------------------------------------------------
 2743              		.loc 1 539 9 is_stmt 1 view .LVU699
 2744 02d0 EAE6     		b	.L149
 2745              	.L185:
 2746 02d2 00BFAFF3 		.align	3
 2746      0080
 2747              	.L184:
 2748 02d8 FCA9F1D2 		.word	-755914244
 2749 02dc 4D621040 		.word	1074815565
 2750 02e0 00000000 		.word	0
 2751 02e4 80842E41 		.word	1093567616
 2752 02e8 00000000 		.word	.LANCHOR16
ARM GAS  C:\Users\86158\AppData\Local\Temp\cck4kAYW.s 			page 70


 2753 02ec 00000000 		.word	.LANCHOR17
 2754 02f0 00000000 		.word	.LANCHOR18
 2755 02f4 00000000 		.word	.LANCHOR19
 2756 02f8 00000000 		.word	.LC17
 2757 02fc 00000000 		.word	.LANCHOR20
 2758 0300 00000000 		.word	.LANCHOR21
 2759 0304 50000000 		.word	.LC5
 2760 0308 00000000 		.word	.LANCHOR7
 2761 030c 84000000 		.word	.LC8
 2762 0310 0000F03F 		.word	1072693248
 2763 0314 93244992 		.word	-1840700269
 2764 0318 00040240 		.word	1073873920
 2765 031c 28000000 		.word	.LC19
 2766 0320 38000000 		.word	.LC20
 2767 0324 18000000 		.word	.LC18
 2768              	.L154:
 542:App/Src/task.c ****             rtc_group_power(testNumber, POWER_VDD_I);
 2769              		.loc 1 542 13 view .LVU700
 2770 0328 FFF7FEFF 		bl	rtc_set_testmode
 2771              	.LVL236:
 543:App/Src/task.c ****             timeout = HAL_GetTick();
 2772              		.loc 1 543 13 view .LVU701
 2773 032c 0321     		movs	r1, #3
 2774 032e 534B     		ldr	r3, .L186
 2775 0330 1878     		ldrb	r0, [r3]	@ zero_extendqisi2
 2776 0332 FFF7FEFF 		bl	rtc_group_power
 2777              	.LVL237:
 544:App/Src/task.c ****             state++;
 2778              		.loc 1 544 13 view .LVU702
 544:App/Src/task.c ****             state++;
 2779              		.loc 1 544 23 is_stmt 0 view .LVU703
 2780 0336 FFF7FEFF 		bl	HAL_GetTick
 2781              	.LVL238:
 544:App/Src/task.c ****             state++;
 2782              		.loc 1 544 21 view .LVU704
 2783 033a 514B     		ldr	r3, .L186+4
 2784 033c 1860     		str	r0, [r3]
 545:App/Src/task.c ****         break;
 2785              		.loc 1 545 13 is_stmt 1 view .LVU705
 545:App/Src/task.c ****         break;
 2786              		.loc 1 545 18 is_stmt 0 view .LVU706
 2787 033e 514A     		ldr	r2, .L186+8
 2788 0340 1378     		ldrb	r3, [r2]	@ zero_extendqisi2
 2789 0342 0133     		adds	r3, r3, #1
 2790 0344 1370     		strb	r3, [r2]
 546:App/Src/task.c ****         case 9:	
 2791              		.loc 1 546 9 is_stmt 1 view .LVU707
 2792 0346 AFE6     		b	.L149
 2793              	.L153:
 548:App/Src/task.c ****                 cur = CS1237Current();
 2794              		.loc 1 548 13 view .LVU708
 548:App/Src/task.c ****                 cur = CS1237Current();
 2795              		.loc 1 548 17 is_stmt 0 view .LVU709
 2796 0348 FFF7FEFF 		bl	HAL_GetTick
 2797              	.LVL239:
 548:App/Src/task.c ****                 cur = CS1237Current();
 2798              		.loc 1 548 42 view .LVU710
ARM GAS  C:\Users\86158\AppData\Local\Temp\cck4kAYW.s 			page 71


 2799 034c 4C4B     		ldr	r3, .L186+4
 2800 034e 1B68     		ldr	r3, [r3]
 2801 0350 03F57A73 		add	r3, r3, #1000
 548:App/Src/task.c ****                 cur = CS1237Current();
 2802              		.loc 1 548 16 view .LVU711
 2803 0354 9842     		cmp	r0, r3
 2804 0356 7FF6A7AE 		bls	.L149
 549:App/Src/task.c ****                 if (cur < 0) {cur = 0;}
 2805              		.loc 1 549 17 is_stmt 1 view .LVU712
 549:App/Src/task.c ****                 if (cur < 0) {cur = 0;}
 2806              		.loc 1 549 23 is_stmt 0 view .LVU713
 2807 035a FFF7FEFF 		bl	CS1237Current
 2808              	.LVL240:
 550:App/Src/task.c ****                 g_machineTest.machine.Ivdd = (int)cur;
 2809              		.loc 1 550 17 is_stmt 1 view .LVU714
 550:App/Src/task.c ****                 g_machineTest.machine.Ivdd = (int)cur;
 2810              		.loc 1 550 20 is_stmt 0 view .LVU715
 2811 035e B5EEC00A 		vcmpe.f32	s0, #0
 2812 0362 F1EE10FA 		vmrs	APSR_nzcv, FPSCR
 2813 0366 27D4     		bmi	.L182
 2814              	.LVL241:
 2815              	.L167:
 551:App/Src/task.c ****                 UsbPrintf("vdd:%dnA\n", g_machineTest.machine.Ivdd);
 2816              		.loc 1 551 17 is_stmt 1 view .LVU716
 551:App/Src/task.c ****                 UsbPrintf("vdd:%dnA\n", g_machineTest.machine.Ivdd);
 2817              		.loc 1 551 46 is_stmt 0 view .LVU717
 2818 0368 BDEEC00A 		vcvt.s32.f32	s0, s0
 2819              	.LVL242:
 551:App/Src/task.c ****                 UsbPrintf("vdd:%dnA\n", g_machineTest.machine.Ivdd);
 2820              		.loc 1 551 44 view .LVU718
 2821 036c 10EE103A 		vmov	r3, s0	@ int
 2822 0370 99B2     		uxth	r1, r3
 2823 0372 454C     		ldr	r4, .L186+12
 2824 0374 A4F84410 		strh	r1, [r4, #68]	@ movhi
 552:App/Src/task.c ****                 log_printf("vdd:%dnA\n", g_machineTest.machine.Ivdd);
 2825              		.loc 1 552 17 is_stmt 1 view .LVU719
 2826 0378 444D     		ldr	r5, .L186+16
 2827 037a 2846     		mov	r0, r5
 2828 037c FFF7FEFF 		bl	UsbPrintf
 2829              	.LVL243:
 553:App/Src/task.c ****                 if (g_machineTest.machine.Ivdd > 1500) {
 2830              		.loc 1 553 17 view .LVU720
 2831 0380 B4F84410 		ldrh	r1, [r4, #68]
 2832 0384 2846     		mov	r0, r5
 2833 0386 FFF7FEFF 		bl	log_printf
 2834              	.LVL244:
 554:App/Src/task.c ****                     result = 0;
 2835              		.loc 1 554 17 view .LVU721
 554:App/Src/task.c ****                     result = 0;
 2836              		.loc 1 554 42 is_stmt 0 view .LVU722
 2837 038a B4F84420 		ldrh	r2, [r4, #68]
 554:App/Src/task.c ****                     result = 0;
 2838              		.loc 1 554 20 view .LVU723
 2839 038e 40F2DC53 		movw	r3, #1500
 2840 0392 9A42     		cmp	r2, r3
 2841 0394 02D9     		bls	.L168
 555:App/Src/task.c ****                 }
ARM GAS  C:\Users\86158\AppData\Local\Temp\cck4kAYW.s 			page 72


 2842              		.loc 1 555 21 is_stmt 1 view .LVU724
 555:App/Src/task.c ****                 }
 2843              		.loc 1 555 28 is_stmt 0 view .LVU725
 2844 0396 3E4B     		ldr	r3, .L186+20
 2845 0398 0022     		movs	r2, #0
 2846 039a 1A70     		strb	r2, [r3]
 2847              	.L168:
 557:App/Src/task.c ****                 timeout = HAL_GetTick();
 2848              		.loc 1 557 17 is_stmt 1 view .LVU726
 2849 039c 0221     		movs	r1, #2
 2850 039e 374B     		ldr	r3, .L186
 2851 03a0 1878     		ldrb	r0, [r3]	@ zero_extendqisi2
 2852 03a2 FFF7FEFF 		bl	rtc_group_power
 2853              	.LVL245:
 558:App/Src/task.c ****                 state++;
 2854              		.loc 1 558 17 view .LVU727
 558:App/Src/task.c ****                 state++;
 2855              		.loc 1 558 27 is_stmt 0 view .LVU728
 2856 03a6 FFF7FEFF 		bl	HAL_GetTick
 2857              	.LVL246:
 558:App/Src/task.c ****                 state++;
 2858              		.loc 1 558 25 view .LVU729
 2859 03aa 354B     		ldr	r3, .L186+4
 2860 03ac 1860     		str	r0, [r3]
 559:App/Src/task.c ****             }
 2861              		.loc 1 559 17 is_stmt 1 view .LVU730
 559:App/Src/task.c ****             }
 2862              		.loc 1 559 22 is_stmt 0 view .LVU731
 2863 03ae 354A     		ldr	r2, .L186+8
 2864 03b0 1378     		ldrb	r3, [r2]	@ zero_extendqisi2
 2865 03b2 0133     		adds	r3, r3, #1
 2866 03b4 1370     		strb	r3, [r2]
 2867 03b6 77E6     		b	.L149
 2868              	.LVL247:
 2869              	.L182:
 550:App/Src/task.c ****                 g_machineTest.machine.Ivdd = (int)cur;
 2870              		.loc 1 550 35 view .LVU732
 2871 03b8 9FED360A 		vldr.32	s0, .L186+24
 2872              	.LVL248:
 550:App/Src/task.c ****                 g_machineTest.machine.Ivdd = (int)cur;
 2873              		.loc 1 550 35 view .LVU733
 2874 03bc D4E7     		b	.L167
 2875              	.L152:
 563:App/Src/task.c ****                 cur = CS1237Current();
 2876              		.loc 1 563 13 is_stmt 1 view .LVU734
 563:App/Src/task.c ****                 cur = CS1237Current();
 2877              		.loc 1 563 17 is_stmt 0 view .LVU735
 2878 03be FFF7FEFF 		bl	HAL_GetTick
 2879              	.LVL249:
 563:App/Src/task.c ****                 cur = CS1237Current();
 2880              		.loc 1 563 42 view .LVU736
 2881 03c2 2F4B     		ldr	r3, .L186+4
 2882 03c4 1B68     		ldr	r3, [r3]
 2883 03c6 03F57A73 		add	r3, r3, #1000
 563:App/Src/task.c ****                 cur = CS1237Current();
 2884              		.loc 1 563 16 view .LVU737
 2885 03ca 9842     		cmp	r0, r3
ARM GAS  C:\Users\86158\AppData\Local\Temp\cck4kAYW.s 			page 73


 2886 03cc 7FF66CAE 		bls	.L149
 564:App/Src/task.c ****                 if (cur < 0) {cur = 0;}
 2887              		.loc 1 564 17 is_stmt 1 view .LVU738
 564:App/Src/task.c ****                 if (cur < 0) {cur = 0;}
 2888              		.loc 1 564 23 is_stmt 0 view .LVU739
 2889 03d0 FFF7FEFF 		bl	CS1237Current
 2890              	.LVL250:
 565:App/Src/task.c ****                 g_machineTest.machine.Ivbat =(int)cur;
 2891              		.loc 1 565 17 is_stmt 1 view .LVU740
 565:App/Src/task.c ****                 g_machineTest.machine.Ivbat =(int)cur;
 2892              		.loc 1 565 20 is_stmt 0 view .LVU741
 2893 03d4 B5EEC00A 		vcmpe.f32	s0, #0
 2894 03d8 F1EE10FA 		vmrs	APSR_nzcv, FPSCR
 2895 03dc 23D4     		bmi	.L183
 2896              	.LVL251:
 2897              	.L169:
 566:App/Src/task.c ****                 UsbPrintf("bat:%dnA\n", g_machineTest.machine.Ivbat);
 2898              		.loc 1 566 17 is_stmt 1 view .LVU742
 566:App/Src/task.c ****                 UsbPrintf("bat:%dnA\n", g_machineTest.machine.Ivbat);
 2899              		.loc 1 566 46 is_stmt 0 view .LVU743
 2900 03de BDEEC00A 		vcvt.s32.f32	s0, s0
 2901              	.LVL252:
 566:App/Src/task.c ****                 UsbPrintf("bat:%dnA\n", g_machineTest.machine.Ivbat);
 2902              		.loc 1 566 45 view .LVU744
 2903 03e2 10EE103A 		vmov	r3, s0	@ int
 2904 03e6 99B2     		uxth	r1, r3
 2905 03e8 274C     		ldr	r4, .L186+12
 2906 03ea A4F84610 		strh	r1, [r4, #70]	@ movhi
 567:App/Src/task.c ****                 log_printf("bat:%dnA\n", g_machineTest.machine.Ivbat);
 2907              		.loc 1 567 17 is_stmt 1 view .LVU745
 2908 03ee 2A4D     		ldr	r5, .L186+28
 2909 03f0 2846     		mov	r0, r5
 2910 03f2 FFF7FEFF 		bl	UsbPrintf
 2911              	.LVL253:
 568:App/Src/task.c ****                 if (g_machineTest.machine.Ivbat > 1500) {
 2912              		.loc 1 568 17 view .LVU746
 2913 03f6 B4F84610 		ldrh	r1, [r4, #70]
 2914 03fa 2846     		mov	r0, r5
 2915 03fc FFF7FEFF 		bl	log_printf
 2916              	.LVL254:
 569:App/Src/task.c ****                     result = 0;
 2917              		.loc 1 569 17 view .LVU747
 569:App/Src/task.c ****                     result = 0;
 2918              		.loc 1 569 42 is_stmt 0 view .LVU748
 2919 0400 B4F84620 		ldrh	r2, [r4, #70]
 569:App/Src/task.c ****                     result = 0;
 2920              		.loc 1 569 20 view .LVU749
 2921 0404 40F2DC53 		movw	r3, #1500
 2922 0408 9A42     		cmp	r2, r3
 2923 040a 02D9     		bls	.L170
 570:App/Src/task.c ****                 }
 2924              		.loc 1 570 21 is_stmt 1 view .LVU750
 570:App/Src/task.c ****                 }
 2925              		.loc 1 570 28 is_stmt 0 view .LVU751
 2926 040c 204B     		ldr	r3, .L186+20
 2927 040e 0022     		movs	r2, #0
 2928 0410 1A70     		strb	r2, [r3]
ARM GAS  C:\Users\86158\AppData\Local\Temp\cck4kAYW.s 			page 74


 2929              	.L170:
 572:App/Src/task.c ****                 // rtc_exit_testmode();
 2930              		.loc 1 572 17 is_stmt 1 view .LVU752
 2931 0412 0121     		movs	r1, #1
 2932 0414 194B     		ldr	r3, .L186
 2933 0416 1878     		ldrb	r0, [r3]	@ zero_extendqisi2
 2934 0418 FFF7FEFF 		bl	rtc_group_power
 2935              	.LVL255:
 574:App/Src/task.c ****             }
 2936              		.loc 1 574 17 view .LVU753
 574:App/Src/task.c ****             }
 2937              		.loc 1 574 22 is_stmt 0 view .LVU754
 2938 041c 194A     		ldr	r2, .L186+8
 2939 041e 1378     		ldrb	r3, [r2]	@ zero_extendqisi2
 2940 0420 0133     		adds	r3, r3, #1
 2941 0422 1370     		strb	r3, [r2]
 2942 0424 40E6     		b	.L149
 2943              	.LVL256:
 2944              	.L183:
 565:App/Src/task.c ****                 g_machineTest.machine.Ivbat =(int)cur;
 2945              		.loc 1 565 35 view .LVU755
 2946 0426 9FED1B0A 		vldr.32	s0, .L186+24
 2947              	.LVL257:
 565:App/Src/task.c ****                 g_machineTest.machine.Ivbat =(int)cur;
 2948              		.loc 1 565 35 view .LVU756
 2949 042a D8E7     		b	.L169
 2950              	.L150:
 579:App/Src/task.c ****                 UsbPrintf("test all end, chip %d NG\n", testNumber);
 2951              		.loc 1 579 13 is_stmt 1 view .LVU757
 579:App/Src/task.c ****                 UsbPrintf("test all end, chip %d NG\n", testNumber);
 2952              		.loc 1 579 24 is_stmt 0 view .LVU758
 2953 042c 184B     		ldr	r3, .L186+20
 2954 042e 1B78     		ldrb	r3, [r3]	@ zero_extendqisi2
 579:App/Src/task.c ****                 UsbPrintf("test all end, chip %d NG\n", testNumber);
 2955              		.loc 1 579 16 view .LVU759
 2956 0430 6BB9     		cbnz	r3, .L171
 580:App/Src/task.c ****                 log_printf("test all end, chip %d NG\n", testNumber);
 2957              		.loc 1 580 17 is_stmt 1 view .LVU760
 2958 0432 124D     		ldr	r5, .L186
 2959 0434 194C     		ldr	r4, .L186+32
 2960 0436 2978     		ldrb	r1, [r5]	@ zero_extendqisi2
 2961 0438 2046     		mov	r0, r4
 2962 043a FFF7FEFF 		bl	UsbPrintf
 2963              	.LVL258:
 581:App/Src/task.c ****             } else {
 2964              		.loc 1 581 17 view .LVU761
 2965 043e 2978     		ldrb	r1, [r5]	@ zero_extendqisi2
 2966 0440 2046     		mov	r0, r4
 2967 0442 FFF7FEFF 		bl	log_printf
 2968              	.LVL259:
 2969              	.L172:
 586:App/Src/task.c ****         break;
 2970              		.loc 1 586 13 view .LVU762
 586:App/Src/task.c ****         break;
 2971              		.loc 1 586 19 is_stmt 0 view .LVU763
 2972 0446 0F4B     		ldr	r3, .L186+8
 2973 0448 0022     		movs	r2, #0
ARM GAS  C:\Users\86158\AppData\Local\Temp\cck4kAYW.s 			page 75


 2974 044a 1A70     		strb	r2, [r3]
 587:App/Src/task.c ****         default:  break;
 2975              		.loc 1 587 9 is_stmt 1 view .LVU764
 2976 044c 2CE6     		b	.L149
 2977              	.L171:
 583:App/Src/task.c ****                 log_printf("test all end, chip %d OK\n", testNumber);
 2978              		.loc 1 583 17 view .LVU765
 2979 044e 0B4D     		ldr	r5, .L186
 2980 0450 134C     		ldr	r4, .L186+36
 2981 0452 2978     		ldrb	r1, [r5]	@ zero_extendqisi2
 2982 0454 2046     		mov	r0, r4
 2983 0456 FFF7FEFF 		bl	UsbPrintf
 2984              	.LVL260:
 584:App/Src/task.c ****             }
 2985              		.loc 1 584 17 view .LVU766
 2986 045a 2978     		ldrb	r1, [r5]	@ zero_extendqisi2
 2987 045c 2046     		mov	r0, r4
 2988 045e FFF7FEFF 		bl	log_printf
 2989              	.LVL261:
 2990 0462 F0E7     		b	.L172
 2991              	.L176:
 590:App/Src/task.c ****     if (state == 0) {
 2992              		.loc 1 590 53 is_stmt 0 view .LVU767
 2993 0464 4FF0FF30 		mov	r0, #-1
 2994              	.L147:
 594:App/Src/task.c ****         } else {
 595:App/Src/task.c ****             return -1;
 596:App/Src/task.c ****         }
 597:App/Src/task.c ****     } else {
 598:App/Src/task.c ****         return 0;
 599:App/Src/task.c ****     }
 600:App/Src/task.c **** }
 2995              		.loc 1 600 1 view .LVU768
 2996 0468 05B0     		add	sp, sp, #20
 2997              	.LCFI26:
 2998              		.cfi_remember_state
 2999              		.cfi_def_cfa_offset 36
 3000              		@ sp needed
 3001 046a BDEC028B 		vldm	sp!, {d8}
 3002              	.LCFI27:
 3003              		.cfi_restore 80
 3004              		.cfi_restore 81
 3005              		.cfi_def_cfa_offset 28
 3006 046e BDE8F083 		pop	{r4, r5, r6, r7, r8, r9, pc}
 3007              	.L177:
 3008              	.LCFI28:
 3009              		.cfi_restore_state
 598:App/Src/task.c ****     }
 3010              		.loc 1 598 16 view .LVU769
 3011 0472 0020     		movs	r0, #0
 3012 0474 F8E7     		b	.L147
 3013              	.L178:
 595:App/Src/task.c ****         }
 3014              		.loc 1 595 20 view .LVU770
 3015 0476 4FF0FF30 		mov	r0, #-1
 3016 047a F5E7     		b	.L147
 3017              	.L187:
ARM GAS  C:\Users\86158\AppData\Local\Temp\cck4kAYW.s 			page 76


 3018              		.align	2
 3019              	.L186:
 3020 047c 00000000 		.word	.LANCHOR17
 3021 0480 00000000 		.word	.LANCHOR21
 3022 0484 00000000 		.word	.LANCHOR16
 3023 0488 00000000 		.word	.LANCHOR18
 3024 048c 48000000 		.word	.LC21
 3025 0490 00000000 		.word	.LANCHOR20
 3026 0494 00000000 		.word	0
 3027 0498 54000000 		.word	.LC22
 3028 049c 60000000 		.word	.LC23
 3029 04a0 7C000000 		.word	.LC24
 3030              		.cfi_endproc
 3031              	.LFE243:
 3033              		.section	.text.make_chip_ID,"ax",%progbits
 3034              		.align	1
 3035              		.global	make_chip_ID
 3036              		.syntax unified
 3037              		.thumb
 3038              		.thumb_func
 3040              	make_chip_ID:
 3041              	.LVL262:
 3042              	.LFB244:
 601:App/Src/task.c **** 
 602:App/Src/task.c **** void make_chip_ID(uint8_t* buffer, uint8_t number)
 603:App/Src/task.c **** {
 3043              		.loc 1 603 1 is_stmt 1 view -0
 3044              		.cfi_startproc
 3045              		@ args = 0, pretend = 0, frame = 0
 3046              		@ frame_needed = 0, uses_anonymous_args = 0
 3047              		@ link register save eliminated.
 604:App/Src/task.c ****     buffer[0] = 0x23;
 3048              		.loc 1 604 5 view .LVU772
 3049              		.loc 1 604 15 is_stmt 0 view .LVU773
 3050 0000 2322     		movs	r2, #35
 3051 0002 0270     		strb	r2, [r0]
 605:App/Src/task.c ****     buffer[1] = 0x10;
 3052              		.loc 1 605 5 is_stmt 1 view .LVU774
 3053              		.loc 1 605 15 is_stmt 0 view .LVU775
 3054 0004 1023     		movs	r3, #16
 3055 0006 4370     		strb	r3, [r0, #1]
 606:App/Src/task.c ****     buffer[2] = 0x09;
 3056              		.loc 1 606 5 is_stmt 1 view .LVU776
 3057              		.loc 1 606 15 is_stmt 0 view .LVU777
 3058 0008 0923     		movs	r3, #9
 3059 000a 8370     		strb	r3, [r0, #2]
 607:App/Src/task.c ****     buffer[3] = 0x00;
 3060              		.loc 1 607 5 is_stmt 1 view .LVU778
 3061              		.loc 1 607 15 is_stmt 0 view .LVU779
 3062 000c 0023     		movs	r3, #0
 3063 000e C370     		strb	r3, [r0, #3]
 608:App/Src/task.c ****     buffer[4] = 0x23;
 3064              		.loc 1 608 5 is_stmt 1 view .LVU780
 3065              		.loc 1 608 15 is_stmt 0 view .LVU781
 3066 0010 0271     		strb	r2, [r0, #4]
 609:App/Src/task.c ****     buffer[5] = 0x41;
 3067              		.loc 1 609 5 is_stmt 1 view .LVU782
ARM GAS  C:\Users\86158\AppData\Local\Temp\cck4kAYW.s 			page 77


 3068              		.loc 1 609 15 is_stmt 0 view .LVU783
 3069 0012 4122     		movs	r2, #65
 3070 0014 4271     		strb	r2, [r0, #5]
 610:App/Src/task.c ****     buffer[6] = 0x00;
 3071              		.loc 1 610 5 is_stmt 1 view .LVU784
 3072              		.loc 1 610 15 is_stmt 0 view .LVU785
 3073 0016 8371     		strb	r3, [r0, #6]
 611:App/Src/task.c ****     buffer[7] = ((number / 10) * 16) + (number % 10);
 3074              		.loc 1 611 5 is_stmt 1 view .LVU786
 3075              		.loc 1 611 38 is_stmt 0 view .LVU787
 3076 0018 A3F13333 		sub	r3, r3, #858993459
 3077 001c A3FB0123 		umull	r2, r3, r3, r1
 3078 0020 DB08     		lsrs	r3, r3, #3
 3079 0022 03EB8302 		add	r2, r3, r3, lsl #2
 3080 0026 A1EB4201 		sub	r1, r1, r2, lsl #1
 3081              	.LVL263:
 3082              		.loc 1 611 38 view .LVU788
 3083 002a 01EB0311 		add	r1, r1, r3, lsl #4
 3084              		.loc 1 611 15 view .LVU789
 3085 002e C171     		strb	r1, [r0, #7]
 612:App/Src/task.c **** }
 3086              		.loc 1 612 1 view .LVU790
 3087 0030 7047     		bx	lr
 3088              		.cfi_endproc
 3089              	.LFE244:
 3091              		.section	.rodata.system_machine_write_one.str1.4,"aMS",%progbits,1
 3092              		.align	2
 3093              	.LC25:
 3094 0000 6D616368 		.ascii	"machine test chip:%d start\012\000"
 3094      696E6520 
 3094      74657374 
 3094      20636869 
 3094      703A2564 
 3095              		.align	2
 3096              	.LC26:
 3097 001c 636F6E66 		.ascii	"config9:0x%02X, configC:0x%02X\012\000"
 3097      6967393A 
 3097      30782530 
 3097      32582C20 
 3097      636F6E66 
 3098              		.align	2
 3099              	.LC27:
 3100 003c 63686970 		.ascii	"chip%d config9 not set, test end!\012\000"
 3100      25642063 
 3100      6F6E6669 
 3100      6739206E 
 3100      6F742073 
 3101 005f 00       		.align	2
 3102              	.LC28:
 3103 0060 73797374 		.ascii	"system temp:%d, \000"
 3103      656D2074 
 3103      656D703A 
 3103      25642C20 
 3103      00
 3104 0071 000000   		.align	2
 3105              	.LC29:
 3106 0074 72746320 		.ascii	"rtc temp:%d\012\000"
ARM GAS  C:\Users\86158\AppData\Local\Temp\cck4kAYW.s 			page 78


 3106      74656D70 
 3106      3A25640A 
 3106      00
 3107 0081 000000   		.align	2
 3108              	.LC30:
 3109 0084 63616C63 		.ascii	"calculate configC:0x%02x\012\000"
 3109      756C6174 
 3109      6520636F 
 3109      6E666967 
 3109      433A3078 
 3110 009e 0000     		.align	2
 3111              	.LC31:
 3112 00a0 6F747020 		.ascii	"otp lock!\012\000"
 3112      6C6F636B 
 3112      210A00
 3113 00ab 00       		.align	2
 3114              	.LC32:
 3115 00ac 63686970 		.ascii	"chip %d otp download error, i2c[%d], config[0x%02x]"
 3115      20256420 
 3115      6F747020 
 3115      646F776E 
 3115      6C6F6164 
 3116 00df 0A00     		.ascii	"\012\000"
 3117 00e1 000000   		.align	2
 3118              	.LC33:
 3119 00e4 63686970 		.ascii	"chip %d otp download error\012\000"
 3119      20256420 
 3119      6F747020 
 3119      646F776E 
 3119      6C6F6164 
 3120              		.align	2
 3121              	.LC34:
 3122 0100 63686970 		.ascii	"chip %d otp download success\012\000"
 3122      20256420 
 3122      6F747020 
 3122      646F776E 
 3122      6C6F6164 
 3123 011e 0000     		.align	2
 3124              	.LC35:
 3125 0120 77616974 		.ascii	"waiting 1s for power off, then renew otp\012\000"
 3125      696E6720 
 3125      31732066 
 3125      6F722070 
 3125      6F776572 
 3126              		.section	.text.system_machine_write_one,"ax",%progbits
 3127              		.align	1
 3128              		.global	system_machine_write_one
 3129              		.syntax unified
 3130              		.thumb
 3131              		.thumb_func
 3133              	system_machine_write_one:
 3134              	.LVL264:
 3135              	.LFB245:
 613:App/Src/task.c **** 
 614:App/Src/task.c **** 
 615:App/Src/task.c **** 
 616:App/Src/task.c **** //-------------------检烧模式-----------------------------------------------
ARM GAS  C:\Users\86158\AppData\Local\Temp\cck4kAYW.s 			page 79


 617:App/Src/task.c **** //即若configc为空，需要烧录otp
 618:App/Src/task.c **** #define TASK_MCHAINE_TEST_END   20
 619:App/Src/task.c **** int system_machine_write_one(uint8_t number, uint8_t mode)
 620:App/Src/task.c **** {
 3136              		.loc 1 620 1 is_stmt 1 view -0
 3137              		.cfi_startproc
 3138              		@ args = 0, pretend = 0, frame = 32
 3139              		@ frame_needed = 0, uses_anonymous_args = 0
 3140              		.loc 1 620 1 is_stmt 0 view .LVU792
 3141 0000 2DE9F043 		push	{r4, r5, r6, r7, r8, r9, lr}
 3142              	.LCFI29:
 3143              		.cfi_def_cfa_offset 28
 3144              		.cfi_offset 4, -28
 3145              		.cfi_offset 5, -24
 3146              		.cfi_offset 6, -20
 3147              		.cfi_offset 7, -16
 3148              		.cfi_offset 8, -12
 3149              		.cfi_offset 9, -8
 3150              		.cfi_offset 14, -4
 3151 0004 2DED028B 		vpush.64	{d8}
 3152              	.LCFI30:
 3153              		.cfi_def_cfa_offset 36
 3154              		.cfi_offset 80, -36
 3155              		.cfi_offset 81, -32
 3156 0008 8BB0     		sub	sp, sp, #44
 3157              	.LCFI31:
 3158              		.cfi_def_cfa_offset 80
 3159 000a 0446     		mov	r4, r0
 621:App/Src/task.c **** 	float ppm4096, cur;
 3160              		.loc 1 621 2 is_stmt 1 view .LVU793
 622:App/Src/task.c **** 	uint8_t buffer[16] = {0};
 3161              		.loc 1 622 2 view .LVU794
 3162              		.loc 1 622 10 is_stmt 0 view .LVU795
 3163 000c 0023     		movs	r3, #0
 3164 000e 0693     		str	r3, [sp, #24]
 3165 0010 0793     		str	r3, [sp, #28]
 3166 0012 0893     		str	r3, [sp, #32]
 3167 0014 0993     		str	r3, [sp, #36]
 623:App/Src/task.c **** 	int vbat = 0;
 3168              		.loc 1 623 2 is_stmt 1 view .LVU796
 3169              		.loc 1 623 6 is_stmt 0 view .LVU797
 3170 0016 0593     		str	r3, [sp, #20]
 624:App/Src/task.c **** 	uint8_t i2c_result;
 3171              		.loc 1 624 2 is_stmt 1 view .LVU798
 625:App/Src/task.c ****     static uint8_t testConfigC = 0;
 3172              		.loc 1 625 5 view .LVU799
 626:App/Src/task.c **** 	static uint8_t result = 1;
 3173              		.loc 1 626 2 view .LVU800
 627:App/Src/task.c ****     static uint8_t state = 0;
 3174              		.loc 1 627 5 view .LVU801
 628:App/Src/task.c ****     static uint32_t timeout;
 3175              		.loc 1 628 5 view .LVU802
 629:App/Src/task.c ****     uint32_t address;	
 3176              		.loc 1 629 5 view .LVU803
 630:App/Src/task.c ****     static uint8_t testNumber = 0;
 3177              		.loc 1 630 5 view .LVU804
 631:App/Src/task.c ****     uint8_t readConfig = 0;
ARM GAS  C:\Users\86158\AppData\Local\Temp\cck4kAYW.s 			page 80


 3178              		.loc 1 631 5 view .LVU805
 3179              	.LVL265:
 632:App/Src/task.c ****     static uint32_t startTime;
 3180              		.loc 1 632 5 view .LVU806
 633:App/Src/task.c **** 
 634:App/Src/task.c ****     if (mode == 1) {//在设置开始时就设定测试序号，后续不能变更
 3181              		.loc 1 634 5 view .LVU807
 3182              		.loc 1 634 8 is_stmt 0 view .LVU808
 3183 0018 0129     		cmp	r1, #1
 3184 001a 1AD0     		beq	.L238
 3185              	.LVL266:
 3186              	.L190:
 635:App/Src/task.c ****         address = TEST_RESULT_START_ADDR + (number - 1) * TEST_RESULT_ONE_SIZE + MACHINE_TEST_ALL +
 636:App/Src/task.c ****         flash_read_data(address, buffer, 4);
 637:App/Src/task.c ****         if (buffer[0] != 0xff || buffer[1] != 0xff || buffer[2] != 0xff || buffer[3] != 0xff) { 
 638:App/Src/task.c ****             state = 0;
 639:App/Src/task.c ****             return 1;
 640:App/Src/task.c ****         }//先读取flash数据，若有数据，表示已测试成功，不会覆盖；
 641:App/Src/task.c ****         state = 1;
 642:App/Src/task.c ****         testNumber = number;
 643:App/Src/task.c ****         g_machineTest.machine.Ivdd = 0;
 644:App/Src/task.c ****         g_machineTest.machine.Ivbat = 0;
 645:App/Src/task.c ****         g_machineTest.machine.config9 = 0xff;
 646:App/Src/task.c ****         g_machineTest.machine.configC = 0xff;
 647:App/Src/task.c ****         g_machineTest.machine.sysTemp = 0;
 648:App/Src/task.c ****         g_machineTest.machine.rtcTemp = 0;
 649:App/Src/task.c ****         g_machineTest.machine.testFreq = 0;
 650:App/Src/task.c ****         g_machineTest.machine.vbat_2V5 = 0;
 651:App/Src/task.c ****         g_machineTest.machine.charge = 0;
 652:App/Src/task.c ****         testConfigC = 0;
 653:App/Src/task.c ****         startTime = HAL_GetTick();
 654:App/Src/task.c ****         UsbPrintf("machine test chip:%d start\n", number);
 655:App/Src/task.c ****         log_printf("machine test chip:%d start\n", number);
 656:App/Src/task.c ****     }
 657:App/Src/task.c **** 
 658:App/Src/task.c ****     switch (state) {
 3187              		.loc 1 658 5 is_stmt 1 view .LVU809
 3188 001c B64B     		ldr	r3, .L243+16
 3189 001e 1A78     		ldrb	r2, [r3]	@ zero_extendqisi2
 3190 0020 531E     		subs	r3, r2, #1
 3191 0022 132B     		cmp	r3, #19
 3192 0024 6BD8     		bhi	.L194
 3193 0026 DFE813F0 		tbh	[pc, r3, lsl #1]
 3194              	.L196:
 3195 002a 5A00     		.2byte	(.L209-.L196)/2
 3196 002c 8000     		.2byte	(.L208-.L196)/2
 3197 002e E600     		.2byte	(.L207-.L196)/2
 3198 0030 F500     		.2byte	(.L206-.L196)/2
 3199 0032 0B01     		.2byte	(.L205-.L196)/2
 3200 0034 A401     		.2byte	(.L204-.L196)/2
 3201 0036 0902     		.2byte	(.L203-.L196)/2
 3202 0038 4E02     		.2byte	(.L202-.L196)/2
 3203 003a 7502     		.2byte	(.L201-.L196)/2
 3204 003c CD02     		.2byte	(.L200-.L196)/2
 3205 003e 2103     		.2byte	(.L199-.L196)/2
 3206 0040 3103     		.2byte	(.L198-.L196)/2
 3207 0042 6C03     		.2byte	(.L197-.L196)/2
ARM GAS  C:\Users\86158\AppData\Local\Temp\cck4kAYW.s 			page 81


 3208 0044 6A00     		.2byte	(.L194-.L196)/2
 3209 0046 6A00     		.2byte	(.L194-.L196)/2
 3210 0048 6A00     		.2byte	(.L194-.L196)/2
 3211 004a 6A00     		.2byte	(.L194-.L196)/2
 3212 004c 6A00     		.2byte	(.L194-.L196)/2
 3213 004e 6A00     		.2byte	(.L194-.L196)/2
 3214 0050 A503     		.2byte	(.L195-.L196)/2
 3215              	.LVL267:
 3216              		.p2align 1
 3217              	.L238:
 635:App/Src/task.c ****         address = TEST_RESULT_START_ADDR + (number - 1) * TEST_RESULT_ONE_SIZE + MACHINE_TEST_ALL +
 3218              		.loc 1 635 9 view .LVU810
 635:App/Src/task.c ****         address = TEST_RESULT_START_ADDR + (number - 1) * TEST_RESULT_ONE_SIZE + MACHINE_TEST_ALL +
 3219              		.loc 1 635 42 is_stmt 0 view .LVU811
 3220 0052 0730     		adds	r0, r0, #7
 3221              	.LVL268:
 635:App/Src/task.c ****         address = TEST_RESULT_START_ADDR + (number - 1) * TEST_RESULT_ONE_SIZE + MACHINE_TEST_ALL +
 3222              		.loc 1 635 42 view .LVU812
 3223 0054 4002     		lsls	r0, r0, #9
 3224              	.LVL269:
 636:App/Src/task.c ****         if (buffer[0] != 0xff || buffer[1] != 0xff || buffer[2] != 0xff || buffer[3] != 0xff) { 
 3225              		.loc 1 636 9 is_stmt 1 view .LVU813
 3226 0056 0422     		movs	r2, #4
 3227 0058 06A9     		add	r1, sp, #24
 3228              	.LVL270:
 636:App/Src/task.c ****         if (buffer[0] != 0xff || buffer[1] != 0xff || buffer[2] != 0xff || buffer[3] != 0xff) { 
 3229              		.loc 1 636 9 is_stmt 0 view .LVU814
 3230 005a 4230     		adds	r0, r0, #66
 3231              	.LVL271:
 636:App/Src/task.c ****         if (buffer[0] != 0xff || buffer[1] != 0xff || buffer[2] != 0xff || buffer[3] != 0xff) { 
 3232              		.loc 1 636 9 view .LVU815
 3233 005c FFF7FEFF 		bl	flash_read_data
 3234              	.LVL272:
 637:App/Src/task.c ****             state = 0;
 3235              		.loc 1 637 9 is_stmt 1 view .LVU816
 637:App/Src/task.c ****             state = 0;
 3236              		.loc 1 637 19 is_stmt 0 view .LVU817
 3237 0060 9DF81830 		ldrb	r3, [sp, #24]	@ zero_extendqisi2
 637:App/Src/task.c ****             state = 0;
 3238              		.loc 1 637 12 view .LVU818
 3239 0064 FF2B     		cmp	r3, #255
 3240 0066 0BD1     		bne	.L191
 637:App/Src/task.c ****             state = 0;
 3241              		.loc 1 637 40 discriminator 1 view .LVU819
 3242 0068 9DF81930 		ldrb	r3, [sp, #25]	@ zero_extendqisi2
 637:App/Src/task.c ****             state = 0;
 3243              		.loc 1 637 31 discriminator 1 view .LVU820
 3244 006c FF2B     		cmp	r3, #255
 3245 006e 07D1     		bne	.L191
 637:App/Src/task.c ****             state = 0;
 3246              		.loc 1 637 61 discriminator 2 view .LVU821
 3247 0070 9DF81A30 		ldrb	r3, [sp, #26]	@ zero_extendqisi2
 637:App/Src/task.c ****             state = 0;
 3248              		.loc 1 637 52 discriminator 2 view .LVU822
 3249 0074 FF2B     		cmp	r3, #255
 3250 0076 03D1     		bne	.L191
 637:App/Src/task.c ****             state = 0;
ARM GAS  C:\Users\86158\AppData\Local\Temp\cck4kAYW.s 			page 82


 3251              		.loc 1 637 82 discriminator 3 view .LVU823
 3252 0078 9DF81B30 		ldrb	r3, [sp, #27]	@ zero_extendqisi2
 637:App/Src/task.c ****             state = 0;
 3253              		.loc 1 637 73 discriminator 3 view .LVU824
 3254 007c FF2B     		cmp	r3, #255
 3255 007e 04D0     		beq	.L192
 3256              	.L191:
 638:App/Src/task.c ****             return 1;
 3257              		.loc 1 638 13 is_stmt 1 view .LVU825
 638:App/Src/task.c ****             return 1;
 3258              		.loc 1 638 19 is_stmt 0 view .LVU826
 3259 0080 9D4B     		ldr	r3, .L243+16
 3260 0082 0022     		movs	r2, #0
 3261 0084 1A70     		strb	r2, [r3]
 639:App/Src/task.c ****         }//先读取flash数据，若有数据，表示已测试成功，不会覆盖；
 3262              		.loc 1 639 13 is_stmt 1 view .LVU827
 639:App/Src/task.c ****         }//先读取flash数据，若有数据，表示已测试成功，不会覆盖；
 3263              		.loc 1 639 20 is_stmt 0 view .LVU828
 3264 0086 0120     		movs	r0, #1
 3265 0088 97E3     		b	.L189
 3266              	.L192:
 641:App/Src/task.c ****         testNumber = number;
 3267              		.loc 1 641 9 is_stmt 1 view .LVU829
 641:App/Src/task.c ****         testNumber = number;
 3268              		.loc 1 641 15 is_stmt 0 view .LVU830
 3269 008a 9B4B     		ldr	r3, .L243+16
 3270 008c 0122     		movs	r2, #1
 3271 008e 1A70     		strb	r2, [r3]
 642:App/Src/task.c ****         g_machineTest.machine.Ivdd = 0;
 3272              		.loc 1 642 9 is_stmt 1 view .LVU831
 642:App/Src/task.c ****         g_machineTest.machine.Ivdd = 0;
 3273              		.loc 1 642 20 is_stmt 0 view .LVU832
 3274 0090 9A4B     		ldr	r3, .L243+20
 3275 0092 1C70     		strb	r4, [r3]
 643:App/Src/task.c ****         g_machineTest.machine.Ivbat = 0;
 3276              		.loc 1 643 9 is_stmt 1 view .LVU833
 643:App/Src/task.c ****         g_machineTest.machine.Ivbat = 0;
 3277              		.loc 1 643 36 is_stmt 0 view .LVU834
 3278 0094 9A4B     		ldr	r3, .L243+24
 3279 0096 0022     		movs	r2, #0
 3280 0098 A3F84420 		strh	r2, [r3, #68]	@ movhi
 644:App/Src/task.c ****         g_machineTest.machine.config9 = 0xff;
 3281              		.loc 1 644 9 is_stmt 1 view .LVU835
 644:App/Src/task.c ****         g_machineTest.machine.config9 = 0xff;
 3282              		.loc 1 644 37 is_stmt 0 view .LVU836
 3283 009c A3F84620 		strh	r2, [r3, #70]	@ movhi
 645:App/Src/task.c ****         g_machineTest.machine.configC = 0xff;
 3284              		.loc 1 645 9 is_stmt 1 view .LVU837
 645:App/Src/task.c ****         g_machineTest.machine.configC = 0xff;
 3285              		.loc 1 645 39 is_stmt 0 view .LVU838
 3286 00a0 FF21     		movs	r1, #255
 3287 00a2 83F84810 		strb	r1, [r3, #72]
 646:App/Src/task.c ****         g_machineTest.machine.sysTemp = 0;
 3288              		.loc 1 646 9 is_stmt 1 view .LVU839
 646:App/Src/task.c ****         g_machineTest.machine.sysTemp = 0;
 3289              		.loc 1 646 39 is_stmt 0 view .LVU840
 3290 00a6 83F84910 		strb	r1, [r3, #73]
ARM GAS  C:\Users\86158\AppData\Local\Temp\cck4kAYW.s 			page 83


 647:App/Src/task.c ****         g_machineTest.machine.rtcTemp = 0;
 3291              		.loc 1 647 9 is_stmt 1 view .LVU841
 647:App/Src/task.c ****         g_machineTest.machine.rtcTemp = 0;
 3292              		.loc 1 647 39 is_stmt 0 view .LVU842
 3293 00aa 83F84A20 		strb	r2, [r3, #74]
 648:App/Src/task.c ****         g_machineTest.machine.testFreq = 0;
 3294              		.loc 1 648 9 is_stmt 1 view .LVU843
 648:App/Src/task.c ****         g_machineTest.machine.testFreq = 0;
 3295              		.loc 1 648 39 is_stmt 0 view .LVU844
 3296 00ae 83F84B20 		strb	r2, [r3, #75]
 649:App/Src/task.c ****         g_machineTest.machine.vbat_2V5 = 0;
 3297              		.loc 1 649 9 is_stmt 1 view .LVU845
 649:App/Src/task.c ****         g_machineTest.machine.vbat_2V5 = 0;
 3298              		.loc 1 649 40 is_stmt 0 view .LVU846
 3299 00b2 0021     		movs	r1, #0
 3300 00b4 D964     		str	r1, [r3, #76]	@ float
 650:App/Src/task.c ****         g_machineTest.machine.charge = 0;
 3301              		.loc 1 650 9 is_stmt 1 view .LVU847
 650:App/Src/task.c ****         g_machineTest.machine.charge = 0;
 3302              		.loc 1 650 40 is_stmt 0 view .LVU848
 3303 00b6 A3F85020 		strh	r2, [r3, #80]	@ movhi
 651:App/Src/task.c ****         testConfigC = 0;
 3304              		.loc 1 651 9 is_stmt 1 view .LVU849
 651:App/Src/task.c ****         testConfigC = 0;
 3305              		.loc 1 651 38 is_stmt 0 view .LVU850
 3306 00ba A3F85220 		strh	r2, [r3, #82]	@ movhi
 652:App/Src/task.c ****         startTime = HAL_GetTick();
 3307              		.loc 1 652 9 is_stmt 1 view .LVU851
 652:App/Src/task.c ****         startTime = HAL_GetTick();
 3308              		.loc 1 652 21 is_stmt 0 view .LVU852
 3309 00be 914B     		ldr	r3, .L243+28
 3310 00c0 1A70     		strb	r2, [r3]
 653:App/Src/task.c ****         UsbPrintf("machine test chip:%d start\n", number);
 3311              		.loc 1 653 9 is_stmt 1 view .LVU853
 653:App/Src/task.c ****         UsbPrintf("machine test chip:%d start\n", number);
 3312              		.loc 1 653 21 is_stmt 0 view .LVU854
 3313 00c2 FFF7FEFF 		bl	HAL_GetTick
 3314              	.LVL273:
 653:App/Src/task.c ****         UsbPrintf("machine test chip:%d start\n", number);
 3315              		.loc 1 653 19 view .LVU855
 3316 00c6 904B     		ldr	r3, .L243+32
 3317 00c8 1860     		str	r0, [r3]
 654:App/Src/task.c ****         log_printf("machine test chip:%d start\n", number);
 3318              		.loc 1 654 9 is_stmt 1 view .LVU856
 3319 00ca 904D     		ldr	r5, .L243+36
 3320 00cc 2146     		mov	r1, r4
 3321 00ce 2846     		mov	r0, r5
 3322 00d0 FFF7FEFF 		bl	UsbPrintf
 3323              	.LVL274:
 655:App/Src/task.c ****     }
 3324              		.loc 1 655 9 view .LVU857
 3325 00d4 2146     		mov	r1, r4
 3326 00d6 2846     		mov	r0, r5
 3327 00d8 FFF7FEFF 		bl	log_printf
 3328              	.LVL275:
 3329 00dc 9EE7     		b	.L190
 3330              	.LVL276:
ARM GAS  C:\Users\86158\AppData\Local\Temp\cck4kAYW.s 			page 84


 3331              	.L209:
 659:App/Src/task.c ****         case 1:
 660:App/Src/task.c **** 	        rtc_group_power(testNumber, POWER_I2C);
 3332              		.loc 1 660 10 view .LVU858
 3333 00de 0121     		movs	r1, #1
 3334 00e0 864B     		ldr	r3, .L243+20
 3335 00e2 1878     		ldrb	r0, [r3]	@ zero_extendqisi2
 3336 00e4 FFF7FEFF 		bl	rtc_group_power
 3337              	.LVL277:
 661:App/Src/task.c ****             result = 1;
 3338              		.loc 1 661 13 view .LVU859
 3339              		.loc 1 661 20 is_stmt 0 view .LVU860
 3340 00e8 894B     		ldr	r3, .L243+40
 3341 00ea 0122     		movs	r2, #1
 3342 00ec 1A70     		strb	r2, [r3]
 662:App/Src/task.c ****             timeout = HAL_GetTick();
 3343              		.loc 1 662 13 is_stmt 1 view .LVU861
 3344              		.loc 1 662 23 is_stmt 0 view .LVU862
 3345 00ee FFF7FEFF 		bl	HAL_GetTick
 3346              	.LVL278:
 3347              		.loc 1 662 21 view .LVU863
 3348 00f2 884B     		ldr	r3, .L243+44
 3349 00f4 1860     		str	r0, [r3]
 663:App/Src/task.c ****             state++;
 3350              		.loc 1 663 13 is_stmt 1 view .LVU864
 3351              		.loc 1 663 18 is_stmt 0 view .LVU865
 3352 00f6 804A     		ldr	r2, .L243+16
 3353 00f8 1378     		ldrb	r3, [r2]	@ zero_extendqisi2
 3354 00fa 0133     		adds	r3, r3, #1
 3355 00fc 1370     		strb	r3, [r2]
 664:App/Src/task.c ****         break;
 3356              		.loc 1 664 9 is_stmt 1 view .LVU866
 3357              	.LVL279:
 3358              	.L194:
 665:App/Src/task.c ****         case 2:
 666:App/Src/task.c ****             if (HAL_GetTick() < (timeout + 800)) {
 667:App/Src/task.c ****                 break;
 668:App/Src/task.c ****             }
 669:App/Src/task.c ****             // i2c_result = rtc_read_otp_data(buffer, SD3900_CONFIG0_ADDR, 16);
 670:App/Src/task.c ****             // if (i2c_result != I2C_OK) {
 671:App/Src/task.c ****             //     HAL_Delay(5);
 672:App/Src/task.c ****             //     i2c_result = rtc_read_otp_data(buffer, SD3900_CONFIG0_ADDR, 16);
 673:App/Src/task.c ****             // }
 674:App/Src/task.c ****             // if (i2c_result != I2C_OK) {
 675:App/Src/task.c ****             //     state = TASK_MCHAINE_TEST_END;//直接结束了，通信不成功
 676:App/Src/task.c ****             //     UsbPrintf("chip%d i2c error, test end!\n", number);
 677:App/Src/task.c ****             //     log_printf("chip%d i2c error!\n", number);
 678:App/Src/task.c ****             //     result = 0;
 679:App/Src/task.c ****             //     break;
 680:App/Src/task.c ****             // }
 681:App/Src/task.c ****             g_machineTest.machine.config9 = buffer[9];
 682:App/Src/task.c ****             g_machineTest.machine.configC = buffer[0xC];
 683:App/Src/task.c ****             UsbPrintf("config9:0x%02X, configC:0x%02X\n", g_machineTest.machine.config9, g_machineT
 684:App/Src/task.c ****             log_printf("config9:0x%02X, configC:0x%02X\n", g_machineTest.machine.config9, g_machine
 685:App/Src/task.c ****             if (g_machineTest.machine.config9 == 0xff) {
 686:App/Src/task.c ****                 state = TASK_MCHAINE_TEST_END;//直接结束了，通信不成功
 687:App/Src/task.c ****                 UsbPrintf("chip%d config9 not set, test end!\n", number);
ARM GAS  C:\Users\86158\AppData\Local\Temp\cck4kAYW.s 			page 85


 688:App/Src/task.c ****                 log_printf("chip%d config9 not set, test end!\n", number);
 689:App/Src/task.c ****                 result = 0;
 690:App/Src/task.c ****                 break;
 691:App/Src/task.c ****             }
 692:App/Src/task.c ****             rtc_set_testmode();
 693:App/Src/task.c ****             g_machineTest.machine.sysTemp = (int)temp_read_value(1);
 694:App/Src/task.c ****             UsbPrintf("system temp:%d, ", g_machineTest.machine.sysTemp);
 695:App/Src/task.c ****             rtc_read_temp(&g_machineTest.machine.rtcTemp);
 696:App/Src/task.c ****             UsbPrintf("rtc temp:%d\n", g_machineTest.machine.rtcTemp);
 697:App/Src/task.c ****             log_printf("rtc temp:%d\n", g_machineTest.machine.rtcTemp);
 698:App/Src/task.c ****             if (g_machineTest.machine.rtcTemp > (g_machineTest.machine.sysTemp + 5) 
 699:App/Src/task.c ****                 || g_machineTest.machine.rtcTemp < (g_machineTest.machine.sysTemp - 5)) {
 700:App/Src/task.c ****                 result = 0;
 701:App/Src/task.c ****                 state = TASK_MCHAINE_TEST_END;//直接结束了
 702:App/Src/task.c ****                 break;
 703:App/Src/task.c ****             }
 704:App/Src/task.c ****             state++;
 705:App/Src/task.c ****         break;
 706:App/Src/task.c **** //-----------------------------测试频率------------------------------------------
 707:App/Src/task.c ****         case 3:	
 708:App/Src/task.c ****             rtc_set_int_channel(testNumber);
 709:App/Src/task.c **** 	        rtc_out_4096();            
 710:App/Src/task.c ****             timeout = HAL_GetTick();
 711:App/Src/task.c ****             state++;
 712:App/Src/task.c ****         break;
 713:App/Src/task.c ****         case 4:
 714:App/Src/task.c ****             if (HAL_GetTick() > timeout + 100) {
 715:App/Src/task.c **** 	            DevicePrintf(":MEAS?\n");
 716:App/Src/task.c ****                 timeout = HAL_GetTick();
 717:App/Src/task.c ****                 g_lastFreq.recordTime = timeout;
 718:App/Src/task.c ****                 state++;
 719:App/Src/task.c ****             }
 720:App/Src/task.c ****         break;
 721:App/Src/task.c ****         case 5:
 722:App/Src/task.c ****             if (g_lastFreq.recordTime > timeout) {//有新的数据更新，计算误差
 723:App/Src/task.c ****                 g_machineTest.machine.testFreq = g_lastFreq.freq;
 724:App/Src/task.c ****                 ppm4096 = (g_machineTest.machine.testFreq / 4.096 - 1) * 1000000;
 725:App/Src/task.c ****                 UsbPrintf("%f, ppm:%.2f\n", g_machineTest.machine.testFreq, ppm4096);
 726:App/Src/task.c ****                 log_printf("%f, ppm:%.2f\n", g_machineTest.machine.testFreq, ppm4096);
 727:App/Src/task.c **** 	            rtc_disable_int();
 728:App/Src/task.c ****                 if (ppm4096 < -3 || ppm4096 > 3) {
 729:App/Src/task.c ****                     result = 0;
 730:App/Src/task.c ****                     state = TASK_MCHAINE_TEST_END;//直接结束了
 731:App/Src/task.c ****                     break;
 732:App/Src/task.c ****                 }
 733:App/Src/task.c ****                 state++;
 734:App/Src/task.c ****             }
 735:App/Src/task.c ****             if (HAL_GetTick() > timeout + 1500) {//1.5s超时
 736:App/Src/task.c ****                 UsbPrintf("device no respose!\n");
 737:App/Src/task.c ****                 log_printf("device no respose!\n");
 738:App/Src/task.c ****                 result = 0;
 739:App/Src/task.c **** 	            rtc_disable_int();
 740:App/Src/task.c ****                 state = TASK_MCHAINE_TEST_END;//直接结束了
 741:App/Src/task.c ****                 break;
 742:App/Src/task.c ****             }
 743:App/Src/task.c ****         break;
 744:App/Src/task.c **** //---------------------------测试电池--------------------------------------------------
ARM GAS  C:\Users\86158\AppData\Local\Temp\cck4kAYW.s 			page 86


 745:App/Src/task.c ****         case 6://------------------检查电池电压数值并写入configc------------------
 746:App/Src/task.c ****             // rtc_read_otp_data(buffer, SD3900_CONFIG0_ADDR, 16);
 747:App/Src/task.c ****             if (buffer[0x0C] != 0xff) {//configC存在数据，跳过烧录阶段
 748:App/Src/task.c ****                 state += 3;
 749:App/Src/task.c ****             } else {//configc为空，需要设置，再烧录otp
 750:App/Src/task.c ****                 if (buffer[0] & 0x80) {//未被锁死，可以正常烧录
 751:App/Src/task.c ****                     HAL_GPIO_WritePin(GPIOB, GPIO_PIN_2 << ((testNumber - 1) / 14), GPIO_PIN_RESET)
 752:App/Src/task.c ****                     HAL_Delay(10);
 753:App/Src/task.c ****                     rtc_read_vbat(&vbat);
 754:App/Src/task.c ****                     testConfigC = vbat - 250;
 755:App/Src/task.c ****                     UsbPrintf("calculate configC:0x%02x\n", testConfigC);
 756:App/Src/task.c ****                     log_printf("calculate configC:0x%02x\n", testConfigC);
 757:App/Src/task.c ****                     HAL_GPIO_WritePin(GPIOB, GPIO_PIN_2 << ((testNumber - 1) / 14), GPIO_PIN_SET);
 758:App/Src/task.c ****                     if (testConfigC < 0x40 || testConfigC > 0x70) {
 759:App/Src/task.c ****                         result = 0;
 760:App/Src/task.c ****                         state = TASK_MCHAINE_TEST_END;
 761:App/Src/task.c ****                         break;
 762:App/Src/task.c ****                     }
 763:App/Src/task.c ****                     // rtc_group_power(testNumber, POWER_DOWNLOAD);
 764:App/Src/task.c ****                     state++;
 765:App/Src/task.c ****                 } else {
 766:App/Src/task.c ****                     result = 0;
 767:App/Src/task.c ****                     UsbPrintf("otp lock!\n");
 768:App/Src/task.c ****                     log_printf("otp lock!\n");
 769:App/Src/task.c ****                     state = TASK_MCHAINE_TEST_END;
 770:App/Src/task.c ****                 }
 771:App/Src/task.c ****             }
 772:App/Src/task.c ****         break;
 773:App/Src/task.c ****         case 7://写otp的configC数据
 774:App/Src/task.c ****             i2c_result = rtc_download_otp_data(&testConfigC, SD3900_CONFIGC_ADDR, 1);//write config
 775:App/Src/task.c ****             readConfig = 0xff;
 776:App/Src/task.c ****             // rtc_read_otp_data(&readConfig, SD3900_CONFIGC_ADDR, 1);
 777:App/Src/task.c ****             if (i2c_result != I2C_OK || readConfig != testConfigC) {
 778:App/Src/task.c ****                 UsbPrintf("chip %d otp download error, i2c[%d], config[0x%02x]\n", testNumber, i2c_
 779:App/Src/task.c ****                 log_printf("chip %d otp download error\n", testNumber);
 780:App/Src/task.c ****                 result = 0; 
 781:App/Src/task.c ****                 state = TASK_MCHAINE_TEST_END;
 782:App/Src/task.c ****             } else {
 783:App/Src/task.c ****                 UsbPrintf("chip %d otp download success\n", testNumber);
 784:App/Src/task.c ****             }
 785:App/Src/task.c ****             make_chip_ID(buffer, testNumber);
 786:App/Src/task.c ****             rtc_download_otp_data(buffer, SD3900_ID_ADDR, 8);//write id
 787:App/Src/task.c ****             buffer[0] = 0x7f;
 788:App/Src/task.c ****             rtc_download_otp_data(&buffer[0], SD3900_CONFIG0_ADDR, 1);//lock otp
 789:App/Src/task.c ****             rtc_group_power(0, POWER_OFF);
 790:App/Src/task.c ****             UsbPrintf("waiting 1s for power off, then renew otp\n");
 791:App/Src/task.c ****             timeout = HAL_GetTick();
 792:App/Src/task.c ****             state++;
 793:App/Src/task.c ****         break;
 794:App/Src/task.c ****         case 8:
 795:App/Src/task.c ****             if (HAL_GetTick() > timeout + 1000) {
 796:App/Src/task.c ****                 rtc_group_power(testNumber, POWER_I2C);
 797:App/Src/task.c ****                 HAL_GPIO_WritePin(GPIOB, GPIO_PIN_2 << ((testNumber - 1) / 14), GPIO_PIN_RESET);
 798:App/Src/task.c ****                 timeout = HAL_GetTick();
 799:App/Src/task.c ****                 state++;
 800:App/Src/task.c ****             }
 801:App/Src/task.c ****         break;
ARM GAS  C:\Users\86158\AppData\Local\Temp\cck4kAYW.s 			page 87


 802:App/Src/task.c ****         case 9://测试电池功能，电池电压
 803:App/Src/task.c ****             if (HAL_GetTick() < timeout + 800) {
 804:App/Src/task.c ****                 break;
 805:App/Src/task.c ****             }
 806:App/Src/task.c ****             HAL_GPIO_WritePin(GPIOB, GPIO_PIN_2 << ((testNumber - 1) / 14), GPIO_PIN_RESET);
 807:App/Src/task.c ****             HAL_Delay(10);
 808:App/Src/task.c ****             rtc_read_vbat(&vbat);
 809:App/Src/task.c ****             g_machineTest.machine.vbat_2V5 = vbat * 10;
 810:App/Src/task.c ****             UsbPrintf("vbat = %dmV\n", g_machineTest.machine.vbat_2V5);
 811:App/Src/task.c ****             log_printf("vbat = %dmV\n", g_machineTest.machine.vbat_2V5);
 812:App/Src/task.c ****             HAL_GPIO_WritePin(GPIOB, GPIO_PIN_2 << ((testNumber - 1) / 14), GPIO_PIN_SET);
 813:App/Src/task.c ****             if (g_machineTest.machine.vbat_2V5 < 2300 || g_machineTest.machine.vbat_2V5 > 2700) {//
 814:App/Src/task.c ****                 result = 0;
 815:App/Src/task.c ****                 state = TASK_MCHAINE_TEST_END;
 816:App/Src/task.c ****                 break;
 817:App/Src/task.c ****             }
 818:App/Src/task.c ****             state++;
 819:App/Src/task.c ****         break;
 820:App/Src/task.c ****         case 10://充电电压
 821:App/Src/task.c ****             rtc_set_bat_charge(1);
 822:App/Src/task.c ****             HAL_Delay(5);
 823:App/Src/task.c ****             rtc_read_vbat(&vbat);
 824:App/Src/task.c ****             g_machineTest.machine.charge = vbat * 10;
 825:App/Src/task.c ****             UsbPrintf("charge = %dmV\n", g_machineTest.machine.charge);
 826:App/Src/task.c ****             log_printf("charge = %dmV\n", g_machineTest.machine.charge);
 827:App/Src/task.c ****             rtc_set_bat_charge(0);//关闭充电功能
 828:App/Src/task.c ****             if (g_machineTest.machine.charge < 2800 || g_machineTest.machine.charge > 3500) {//检查
 829:App/Src/task.c ****                 result = 0;
 830:App/Src/task.c ****                 state = TASK_MCHAINE_TEST_END;//直接结束了
 831:App/Src/task.c ****                 break;
 832:App/Src/task.c ****             }
 833:App/Src/task.c ****             state++;
 834:App/Src/task.c ****         break;
 835:App/Src/task.c **** //----------------------------测试电流----------------------------------------------------
 836:App/Src/task.c ****         case 11:	
 837:App/Src/task.c ****             rtc_set_testmode();
 838:App/Src/task.c ****             rtc_group_power(testNumber, POWER_VDD_I);
 839:App/Src/task.c ****             timeout = HAL_GetTick();
 840:App/Src/task.c ****             state++;
 841:App/Src/task.c ****         break;
 842:App/Src/task.c ****         case 12:	
 843:App/Src/task.c ****             if (HAL_GetTick() > (timeout + 1000)) {
 844:App/Src/task.c ****                 cur = CS1237Current();
 845:App/Src/task.c ****                 if (cur < 0) {cur = 0;}
 846:App/Src/task.c ****                 g_machineTest.machine.Ivdd = cur;
 847:App/Src/task.c ****                 UsbPrintf("vdd:%dnA\n", g_machineTest.machine.Ivdd);
 848:App/Src/task.c ****                 log_printf("vdd:%dnA\n", g_machineTest.machine.Ivdd);
 849:App/Src/task.c ****                 if (g_machineTest.machine.Ivdd > 1500) {
 850:App/Src/task.c ****                     result = 0;
 851:App/Src/task.c ****                 }
 852:App/Src/task.c ****                 rtc_group_power(testNumber, POWER_BAT_I);
 853:App/Src/task.c ****                 timeout = HAL_GetTick();
 854:App/Src/task.c ****                 state++;
 855:App/Src/task.c ****             }
 856:App/Src/task.c ****         break;
 857:App/Src/task.c ****         case 13:
 858:App/Src/task.c ****             if (HAL_GetTick() > (timeout + 1000)) {
ARM GAS  C:\Users\86158\AppData\Local\Temp\cck4kAYW.s 			page 88


 859:App/Src/task.c ****                 cur = CS1237Current();
 860:App/Src/task.c ****                 if (cur < 0) {cur = 0;}
 861:App/Src/task.c ****                 g_machineTest.machine.Ivbat = cur;
 862:App/Src/task.c ****                 UsbPrintf("bat:%dnA\n", g_machineTest.machine.Ivbat);
 863:App/Src/task.c ****                 log_printf("bat:%dnA\n", g_machineTest.machine.Ivbat);
 864:App/Src/task.c ****                 if (g_machineTest.machine.Ivbat > 1500) {
 865:App/Src/task.c ****                     result = 0;
 866:App/Src/task.c ****                 }
 867:App/Src/task.c ****                 rtc_group_power(testNumber, POWER_I2C);
 868:App/Src/task.c ****                 HAL_Delay(5);
 869:App/Src/task.c ****                 // rtc_exit_testmode();
 870:App/Src/task.c ****                 state = TASK_MCHAINE_TEST_END;
 871:App/Src/task.c ****             }
 872:App/Src/task.c ****         break;
 873:App/Src/task.c ****         case TASK_MCHAINE_TEST_END:
 874:App/Src/task.c ****             //-----------------------------测试结束------------------------------------------------
 875:App/Src/task.c ****             if (result == 0) {
 876:App/Src/task.c ****                 UsbPrintf("test all end, chip %d NG\n", testNumber);
 877:App/Src/task.c ****                 log_printf("test all end, chip %d NG\n", testNumber);
 878:App/Src/task.c ****             } else {
 879:App/Src/task.c ****                 UsbPrintf("test all end, chip %d OK\n", testNumber);
 880:App/Src/task.c ****                 log_printf("test all end, chip %d OK\n", testNumber);
 881:App/Src/task.c ****                 flash_test_data_write_add(&g_machineTest, testNumber, MACHINE_TEST_ALL);
 882:App/Src/task.c ****             }
 883:App/Src/task.c ****             state = 0;
 884:App/Src/task.c ****         break;
 885:App/Src/task.c ****         default:  break;
 886:App/Src/task.c ****     }
 887:App/Src/task.c ****     if (HAL_GetTick() > startTime + 20000) { return -1; }//单个芯片测试时间超过20s时，强制判定ng；
 3359              		.loc 1 887 5 view .LVU867
 3360              		.loc 1 887 9 is_stmt 0 view .LVU868
 3361 00fe FFF7FEFF 		bl	HAL_GetTick
 3362              	.LVL280:
 3363              		.loc 1 887 35 view .LVU869
 3364 0102 814B     		ldr	r3, .L243+32
 3365 0104 1B68     		ldr	r3, [r3]
 3366 0106 03F59C43 		add	r3, r3, #19968
 3367 010a 2033     		adds	r3, r3, #32
 3368              		.loc 1 887 8 view .LVU870
 3369 010c 9842     		cmp	r0, r3
 3370 010e 00F25283 		bhi	.L233
 888:App/Src/task.c ****     if (state == 0) {
 3371              		.loc 1 888 5 is_stmt 1 view .LVU871
 3372              		.loc 1 888 15 is_stmt 0 view .LVU872
 3373 0112 794B     		ldr	r3, .L243+16
 3374 0114 1B78     		ldrb	r3, [r3]	@ zero_extendqisi2
 3375              		.loc 1 888 8 view .LVU873
 3376 0116 002B     		cmp	r3, #0
 3377 0118 40F05483 		bne	.L234
 889:App/Src/task.c ****         if (result != 0) {
 3378              		.loc 1 889 9 is_stmt 1 view .LVU874
 3379              		.loc 1 889 20 is_stmt 0 view .LVU875
 3380 011c 7C4B     		ldr	r3, .L243+40
 3381 011e 1B78     		ldrb	r3, [r3]	@ zero_extendqisi2
 3382              		.loc 1 889 12 view .LVU876
 3383 0120 002B     		cmp	r3, #0
 3384 0122 00F05183 		beq	.L235
ARM GAS  C:\Users\86158\AppData\Local\Temp\cck4kAYW.s 			page 89


 890:App/Src/task.c ****             return 1;
 3385              		.loc 1 890 20 view .LVU877
 3386 0126 0120     		movs	r0, #1
 3387 0128 47E3     		b	.L189
 3388              	.LVL281:
 3389              	.L208:
 666:App/Src/task.c ****                 break;
 3390              		.loc 1 666 13 is_stmt 1 view .LVU878
 666:App/Src/task.c ****                 break;
 3391              		.loc 1 666 17 is_stmt 0 view .LVU879
 3392 012a FFF7FEFF 		bl	HAL_GetTick
 3393              	.LVL282:
 666:App/Src/task.c ****                 break;
 3394              		.loc 1 666 42 view .LVU880
 3395 012e 794B     		ldr	r3, .L243+44
 3396 0130 1B68     		ldr	r3, [r3]
 3397 0132 03F54873 		add	r3, r3, #800
 666:App/Src/task.c ****                 break;
 3398              		.loc 1 666 16 view .LVU881
 3399 0136 9842     		cmp	r0, r3
 3400 0138 E1D3     		bcc	.L194
 681:App/Src/task.c ****             g_machineTest.machine.configC = buffer[0xC];
 3401              		.loc 1 681 13 is_stmt 1 view .LVU882
 681:App/Src/task.c ****             g_machineTest.machine.configC = buffer[0xC];
 3402              		.loc 1 681 51 is_stmt 0 view .LVU883
 3403 013a 9DF82110 		ldrb	r1, [sp, #33]	@ zero_extendqisi2
 681:App/Src/task.c ****             g_machineTest.machine.configC = buffer[0xC];
 3404              		.loc 1 681 43 view .LVU884
 3405 013e 704D     		ldr	r5, .L243+24
 3406 0140 85F84810 		strb	r1, [r5, #72]
 682:App/Src/task.c ****             UsbPrintf("config9:0x%02X, configC:0x%02X\n", g_machineTest.machine.config9, g_machineT
 3407              		.loc 1 682 13 is_stmt 1 view .LVU885
 682:App/Src/task.c ****             UsbPrintf("config9:0x%02X, configC:0x%02X\n", g_machineTest.machine.config9, g_machineT
 3408              		.loc 1 682 51 is_stmt 0 view .LVU886
 3409 0144 9DF82420 		ldrb	r2, [sp, #36]	@ zero_extendqisi2
 682:App/Src/task.c ****             UsbPrintf("config9:0x%02X, configC:0x%02X\n", g_machineTest.machine.config9, g_machineT
 3410              		.loc 1 682 43 view .LVU887
 3411 0148 85F84920 		strb	r2, [r5, #73]
 683:App/Src/task.c ****             log_printf("config9:0x%02X, configC:0x%02X\n", g_machineTest.machine.config9, g_machine
 3412              		.loc 1 683 13 is_stmt 1 view .LVU888
 3413 014c 724E     		ldr	r6, .L243+48
 3414 014e 3046     		mov	r0, r6
 3415 0150 FFF7FEFF 		bl	UsbPrintf
 3416              	.LVL283:
 684:App/Src/task.c ****             if (g_machineTest.machine.config9 == 0xff) {
 3417              		.loc 1 684 13 view .LVU889
 3418 0154 95F84920 		ldrb	r2, [r5, #73]	@ zero_extendqisi2
 3419 0158 95F84810 		ldrb	r1, [r5, #72]	@ zero_extendqisi2
 3420 015c 3046     		mov	r0, r6
 3421 015e FFF7FEFF 		bl	log_printf
 3422              	.LVL284:
 685:App/Src/task.c ****                 state = TASK_MCHAINE_TEST_END;//直接结束了，通信不成功
 3423              		.loc 1 685 13 view .LVU890
 685:App/Src/task.c ****                 state = TASK_MCHAINE_TEST_END;//直接结束了，通信不成功
 3424              		.loc 1 685 38 is_stmt 0 view .LVU891
 3425 0162 95F84830 		ldrb	r3, [r5, #72]	@ zero_extendqisi2
 685:App/Src/task.c ****                 state = TASK_MCHAINE_TEST_END;//直接结束了，通信不成功
ARM GAS  C:\Users\86158\AppData\Local\Temp\cck4kAYW.s 			page 90


 3426              		.loc 1 685 16 view .LVU892
 3427 0166 FF2B     		cmp	r3, #255
 3428 0168 30D0     		beq	.L239
 692:App/Src/task.c ****             g_machineTest.machine.sysTemp = (int)temp_read_value(1);
 3429              		.loc 1 692 13 is_stmt 1 view .LVU893
 3430 016a FFF7FEFF 		bl	rtc_set_testmode
 3431              	.LVL285:
 693:App/Src/task.c ****             UsbPrintf("system temp:%d, ", g_machineTest.machine.sysTemp);
 3432              		.loc 1 693 13 view .LVU894
 693:App/Src/task.c ****             UsbPrintf("system temp:%d, ", g_machineTest.machine.sysTemp);
 3433              		.loc 1 693 50 is_stmt 0 view .LVU895
 3434 016e 0120     		movs	r0, #1
 3435 0170 FFF7FEFF 		bl	temp_read_value
 3436              	.LVL286:
 693:App/Src/task.c ****             UsbPrintf("system temp:%d, ", g_machineTest.machine.sysTemp);
 3437              		.loc 1 693 45 view .LVU896
 3438 0174 FDEEC07A 		vcvt.s32.f32	s15, s0
 3439 0178 CDED037A 		vstr.32	s15, [sp, #12]	@ int
 693:App/Src/task.c ****             UsbPrintf("system temp:%d, ", g_machineTest.machine.sysTemp);
 3440              		.loc 1 693 43 view .LVU897
 3441 017c 9DF80C10 		ldrb	r1, [sp, #12]	@ zero_extendqisi2
 3442 0180 5F4C     		ldr	r4, .L243+24
 3443 0182 84F84A10 		strb	r1, [r4, #74]
 694:App/Src/task.c ****             rtc_read_temp(&g_machineTest.machine.rtcTemp);
 3444              		.loc 1 694 13 is_stmt 1 view .LVU898
 3445 0186 6548     		ldr	r0, .L243+52
 3446 0188 FFF7FEFF 		bl	UsbPrintf
 3447              	.LVL287:
 695:App/Src/task.c ****             UsbPrintf("rtc temp:%d\n", g_machineTest.machine.rtcTemp);
 3448              		.loc 1 695 13 view .LVU899
 3449 018c 04F14B00 		add	r0, r4, #75
 3450 0190 FFF7FEFF 		bl	rtc_read_temp
 3451              	.LVL288:
 696:App/Src/task.c ****             log_printf("rtc temp:%d\n", g_machineTest.machine.rtcTemp);
 3452              		.loc 1 696 13 view .LVU900
 3453 0194 624D     		ldr	r5, .L243+56
 3454 0196 94F84B10 		ldrb	r1, [r4, #75]	@ zero_extendqisi2
 3455 019a 2846     		mov	r0, r5
 3456 019c FFF7FEFF 		bl	UsbPrintf
 3457              	.LVL289:
 697:App/Src/task.c ****             if (g_machineTest.machine.rtcTemp > (g_machineTest.machine.sysTemp + 5) 
 3458              		.loc 1 697 13 view .LVU901
