ARM GAS  C:\Users\84759\AppData\Local\Temp\ccH2BMdw.s 			page 1


   1              		.cpu cortex-m3
   2              		.arch armv7-m
   3              		.fpu softvfp
   4              		.eabi_attribute 20, 1
   5              		.eabi_attribute 21, 1
   6              		.eabi_attribute 23, 3
   7              		.eabi_attribute 24, 1
   8              		.eabi_attribute 25, 1
   9              		.eabi_attribute 26, 1
  10              		.eabi_attribute 30, 1
  11              		.eabi_attribute 34, 1
  12              		.eabi_attribute 18, 4
  13              		.file	"flash.c"
  14              		.text
  15              	.Ltext0:
  16              		.cfi_sections	.debug_frame
  17              		.section	.text.SPI1_ReadWriteByte,"ax",%progbits
  18              		.align	1
  19              		.syntax unified
  20              		.thumb
  21              		.thumb_func
  23              	SPI1_ReadWriteByte:
  24              	.LVL0:
  25              	.LFB68:
  26              		.file 1 "User/Src/flash.c"
   1:User/Src/flash.c **** #include "flash.h"
   2:User/Src/flash.c **** #include "main.h"
   3:User/Src/flash.c **** #include "spi.h"
   4:User/Src/flash.c **** #include "usart.h"
   5:User/Src/flash.c **** 
   6:User/Src/flash.c **** // 全局SPI句柄（对接HAL库）
   7:User/Src/flash.c **** extern SPI_HandleTypeDef hspi1;
   8:User/Src/flash.c **** 
   9:User/Src/flash.c **** /************************ SPI底层通信函数 ************************/
  10:User/Src/flash.c **** static uint8_t SPI1_ReadWriteByte(uint8_t TxData)
  11:User/Src/flash.c **** {
  27              		.loc 1 11 1 view -0
  28              		.cfi_startproc
  29              		@ args = 0, pretend = 0, frame = 16
  30              		@ frame_needed = 0, uses_anonymous_args = 0
  31              		.loc 1 11 1 is_stmt 0 view .LVU1
  32 0000 00B5     		push	{lr}
  33              	.LCFI0:
  34              		.cfi_def_cfa_offset 4
  35              		.cfi_offset 14, -4
  36 0002 87B0     		sub	sp, sp, #28
  37              	.LCFI1:
  38              		.cfi_def_cfa_offset 32
  39 0004 8DF80F00 		strb	r0, [sp, #15]
  12:User/Src/flash.c ****     uint8_t RxData = 0;
  40              		.loc 1 12 5 is_stmt 1 view .LVU2
  41              		.loc 1 12 13 is_stmt 0 view .LVU3
  42 0008 0023     		movs	r3, #0
  43 000a 8DF81730 		strb	r3, [sp, #23]
  13:User/Src/flash.c ****     HAL_SPI_TransmitReceive(&hspi1, &TxData, &RxData, 1, 100);
  44              		.loc 1 13 5 is_stmt 1 view .LVU4
  45 000e 6423     		movs	r3, #100
ARM GAS  C:\Users\84759\AppData\Local\Temp\ccH2BMdw.s 			page 2


  46 0010 0093     		str	r3, [sp]
  47 0012 0123     		movs	r3, #1
  48 0014 0DF11702 		add	r2, sp, #23
  49 0018 0DF10F01 		add	r1, sp, #15
  50 001c 0348     		ldr	r0, .L3
  51              	.LVL1:
  52              		.loc 1 13 5 is_stmt 0 view .LVU5
  53 001e FFF7FEFF 		bl	HAL_SPI_TransmitReceive
  54              	.LVL2:
  14:User/Src/flash.c ****     return RxData;
  55              		.loc 1 14 5 is_stmt 1 view .LVU6
  15:User/Src/flash.c **** }
  56              		.loc 1 15 1 is_stmt 0 view .LVU7
  57 0022 9DF81700 		ldrb	r0, [sp, #23]	@ zero_extendqisi2
  58 0026 07B0     		add	sp, sp, #28
  59              	.LCFI2:
  60              		.cfi_def_cfa_offset 4
  61              		@ sp needed
  62 0028 5DF804FB 		ldr	pc, [sp], #4
  63              	.L4:
  64              		.align	2
  65              	.L3:
  66 002c 00000000 		.word	hspi1
  67              		.cfi_endproc
  68              	.LFE68:
  70              		.section	.text.W25Qxx_WriteEnable,"ax",%progbits
  71              		.align	1
  72              		.syntax unified
  73              		.thumb
  74              		.thumb_func
  76              	W25Qxx_WriteEnable:
  77              	.LFB70:
  16:User/Src/flash.c **** 
  17:User/Src/flash.c **** /************************ W25Q64基础操作函数 ************************/
  18:User/Src/flash.c **** // 等待Flash忙状态结束
  19:User/Src/flash.c **** uint8_t CheckBusy(void)
  20:User/Src/flash.c **** {
  21:User/Src/flash.c ****     uint8_t status = 0xFF;
  22:User/Src/flash.c ****     uint8_t cmd = W25Q_ReadStatusReg1; // 定义uint8_t类型的指令变量
  23:User/Src/flash.c ****     CS_LOW;
  24:User/Src/flash.c ****     // 传入uint8_t变量的地址，匹配const uint8_t*类型要求
  25:User/Src/flash.c ****     HAL_SPI_Transmit(&hspi1, &cmd, 1, HAL_MAX_DELAY); 
  26:User/Src/flash.c ****     HAL_SPI_Receive(&hspi1, &status, 1, HAL_MAX_DELAY);
  27:User/Src/flash.c ****     CS_HIGH;
  28:User/Src/flash.c ****     return status;
  29:User/Src/flash.c **** }
  30:User/Src/flash.c **** 
  31:User/Src/flash.c **** 
  32:User/Src/flash.c **** 
  33:User/Src/flash.c **** // 写使能
  34:User/Src/flash.c **** static void W25Qxx_WriteEnable(void)
  35:User/Src/flash.c **** {
  78              		.loc 1 35 1 is_stmt 1 view -0
  79              		.cfi_startproc
  80              		@ args = 0, pretend = 0, frame = 0
  81              		@ frame_needed = 0, uses_anonymous_args = 0
  82 0000 10B5     		push	{r4, lr}
ARM GAS  C:\Users\84759\AppData\Local\Temp\ccH2BMdw.s 			page 3


  83              	.LCFI3:
  84              		.cfi_def_cfa_offset 8
  85              		.cfi_offset 4, -8
  86              		.cfi_offset 14, -4
  36:User/Src/flash.c ****     CS_LOW;
  87              		.loc 1 36 5 view .LVU9
  88 0002 094C     		ldr	r4, .L7
  89 0004 0022     		movs	r2, #0
  90 0006 1021     		movs	r1, #16
  91 0008 2046     		mov	r0, r4
  92 000a FFF7FEFF 		bl	HAL_GPIO_WritePin
  93              	.LVL3:
  37:User/Src/flash.c ****     SPI1_ReadWriteByte(W25Q_WriteEnable);
  94              		.loc 1 37 5 view .LVU10
  95 000e 0620     		movs	r0, #6
  96 0010 FFF7FEFF 		bl	SPI1_ReadWriteByte
  97              	.LVL4:
  38:User/Src/flash.c ****     CS_HIGH;
  98              		.loc 1 38 5 view .LVU11
  99 0014 0122     		movs	r2, #1
 100 0016 1021     		movs	r1, #16
 101 0018 2046     		mov	r0, r4
 102 001a FFF7FEFF 		bl	HAL_GPIO_WritePin
 103              	.LVL5:
  39:User/Src/flash.c ****     HAL_Delay(1); // 确保写使能指令生效
 104              		.loc 1 39 5 view .LVU12
 105 001e 0120     		movs	r0, #1
 106 0020 FFF7FEFF 		bl	HAL_Delay
 107              	.LVL6:
  40:User/Src/flash.c **** }
 108              		.loc 1 40 1 is_stmt 0 view .LVU13
 109 0024 10BD     		pop	{r4, pc}
 110              	.L8:
 111 0026 00BF     		.align	2
 112              	.L7:
 113 0028 00080140 		.word	1073809408
 114              		.cfi_endproc
 115              	.LFE70:
 117              		.section	.text.CheckBusy,"ax",%progbits
 118              		.align	1
 119              		.global	CheckBusy
 120              		.syntax unified
 121              		.thumb
 122              		.thumb_func
 124              	CheckBusy:
 125              	.LFB69:
  20:User/Src/flash.c ****     uint8_t status = 0xFF;
 126              		.loc 1 20 1 is_stmt 1 view -0
 127              		.cfi_startproc
 128              		@ args = 0, pretend = 0, frame = 8
 129              		@ frame_needed = 0, uses_anonymous_args = 0
 130 0000 30B5     		push	{r4, r5, lr}
 131              	.LCFI4:
 132              		.cfi_def_cfa_offset 12
 133              		.cfi_offset 4, -12
 134              		.cfi_offset 5, -8
 135              		.cfi_offset 14, -4
ARM GAS  C:\Users\84759\AppData\Local\Temp\ccH2BMdw.s 			page 4


 136 0002 83B0     		sub	sp, sp, #12
 137              	.LCFI5:
 138              		.cfi_def_cfa_offset 24
  21:User/Src/flash.c ****     uint8_t cmd = W25Q_ReadStatusReg1; // 定义uint8_t类型的指令变量
 139              		.loc 1 21 5 view .LVU15
  21:User/Src/flash.c ****     uint8_t cmd = W25Q_ReadStatusReg1; // 定义uint8_t类型的指令变量
 140              		.loc 1 21 13 is_stmt 0 view .LVU16
 141 0004 FF23     		movs	r3, #255
 142 0006 8DF80730 		strb	r3, [sp, #7]
  22:User/Src/flash.c ****     CS_LOW;
 143              		.loc 1 22 5 is_stmt 1 view .LVU17
  22:User/Src/flash.c ****     CS_LOW;
 144              		.loc 1 22 13 is_stmt 0 view .LVU18
 145 000a 0523     		movs	r3, #5
 146 000c 8DF80630 		strb	r3, [sp, #6]
  23:User/Src/flash.c ****     // 传入uint8_t变量的地址，匹配const uint8_t*类型要求
 147              		.loc 1 23 5 is_stmt 1 view .LVU19
 148 0010 0F4C     		ldr	r4, .L11
 149 0012 0022     		movs	r2, #0
 150 0014 1021     		movs	r1, #16
 151 0016 2046     		mov	r0, r4
 152 0018 FFF7FEFF 		bl	HAL_GPIO_WritePin
 153              	.LVL7:
  25:User/Src/flash.c ****     HAL_SPI_Receive(&hspi1, &status, 1, HAL_MAX_DELAY);
 154              		.loc 1 25 5 view .LVU20
 155 001c 0D4D     		ldr	r5, .L11+4
 156 001e 4FF0FF33 		mov	r3, #-1
 157 0022 0122     		movs	r2, #1
 158 0024 0DF10601 		add	r1, sp, #6
 159 0028 2846     		mov	r0, r5
 160 002a FFF7FEFF 		bl	HAL_SPI_Transmit
 161              	.LVL8:
  26:User/Src/flash.c ****     CS_HIGH;
 162              		.loc 1 26 5 view .LVU21
 163 002e 4FF0FF33 		mov	r3, #-1
 164 0032 0122     		movs	r2, #1
 165 0034 0DF10701 		add	r1, sp, #7
 166 0038 2846     		mov	r0, r5
 167 003a FFF7FEFF 		bl	HAL_SPI_Receive
 168              	.LVL9:
  27:User/Src/flash.c ****     return status;
 169              		.loc 1 27 5 view .LVU22
 170 003e 0122     		movs	r2, #1
 171 0040 1021     		movs	r1, #16
 172 0042 2046     		mov	r0, r4
 173 0044 FFF7FEFF 		bl	HAL_GPIO_WritePin
 174              	.LVL10:
  28:User/Src/flash.c **** }
 175              		.loc 1 28 5 view .LVU23
  29:User/Src/flash.c **** 
 176              		.loc 1 29 1 is_stmt 0 view .LVU24
 177 0048 9DF80700 		ldrb	r0, [sp, #7]	@ zero_extendqisi2
 178 004c 03B0     		add	sp, sp, #12
 179              	.LCFI6:
 180              		.cfi_def_cfa_offset 12
 181              		@ sp needed
 182 004e 30BD     		pop	{r4, r5, pc}
ARM GAS  C:\Users\84759\AppData\Local\Temp\ccH2BMdw.s 			page 5


 183              	.L12:
 184              		.align	2
 185              	.L11:
 186 0050 00080140 		.word	1073809408
 187 0054 00000000 		.word	hspi1
 188              		.cfi_endproc
 189              	.LFE69:
 191              		.section	.text.flash_device_id,"ax",%progbits
 192              		.align	1
 193              		.global	flash_device_id
 194              		.syntax unified
 195              		.thumb
 196              		.thumb_func
 198              	flash_device_id:
 199              	.LFB71:
  41:User/Src/flash.c **** 
  42:User/Src/flash.c **** // 读取W25Q64设备ID
  43:User/Src/flash.c **** uint32_t flash_device_id(void)
  44:User/Src/flash.c **** {
 200              		.loc 1 44 1 is_stmt 1 view -0
 201              		.cfi_startproc
 202              		@ args = 0, pretend = 0, frame = 0
 203              		@ frame_needed = 0, uses_anonymous_args = 0
 204 0000 38B5     		push	{r3, r4, r5, lr}
 205              	.LCFI7:
 206              		.cfi_def_cfa_offset 16
 207              		.cfi_offset 3, -16
 208              		.cfi_offset 4, -12
 209              		.cfi_offset 5, -8
 210              		.cfi_offset 14, -4
  45:User/Src/flash.c ****     uint32_t id = 0;
 211              		.loc 1 45 5 view .LVU26
 212              	.LVL11:
  46:User/Src/flash.c ****     CS_LOW;
 213              		.loc 1 46 5 view .LVU27
 214 0002 0E4D     		ldr	r5, .L15
 215 0004 0022     		movs	r2, #0
 216 0006 1021     		movs	r1, #16
 217 0008 2846     		mov	r0, r5
 218 000a FFF7FEFF 		bl	HAL_GPIO_WritePin
 219              	.LVL12:
  47:User/Src/flash.c ****     SPI1_ReadWriteByte(W25Q_ReadID);
 220              		.loc 1 47 5 view .LVU28
 221 000e 9F20     		movs	r0, #159
 222 0010 FFF7FEFF 		bl	SPI1_ReadWriteByte
 223              	.LVL13:
  48:User/Src/flash.c ****     id |= (uint16_t)SPI1_ReadWriteByte(0xFF) << 16; // 厂家ID 0xEF
 224              		.loc 1 48 5 view .LVU29
 225              		.loc 1 48 21 is_stmt 0 view .LVU30
 226 0014 FF20     		movs	r0, #255
 227 0016 FFF7FEFF 		bl	SPI1_ReadWriteByte
 228              	.LVL14:
 229              		.loc 1 48 46 view .LVU31
 230 001a 0404     		lsls	r4, r0, #16
 231              	.LVL15:
  49:User/Src/flash.c ****     id |= (uint16_t)SPI1_ReadWriteByte(0xFF) << 8;  // 厂家ID 0x40
 232              		.loc 1 49 5 is_stmt 1 view .LVU32
ARM GAS  C:\Users\84759\AppData\Local\Temp\ccH2BMdw.s 			page 6


 233              		.loc 1 49 21 is_stmt 0 view .LVU33
 234 001c FF20     		movs	r0, #255
 235 001e FFF7FEFF 		bl	SPI1_ReadWriteByte
 236              	.LVL16:
 237              		.loc 1 49 8 view .LVU34
 238 0022 44EA0024 		orr	r4, r4, r0, lsl #8
 239              	.LVL17:
  50:User/Src/flash.c ****     id |= (uint16_t)SPI1_ReadWriteByte(0xFF);       // 设备ID 0x17
 240              		.loc 1 50 5 is_stmt 1 view .LVU35
 241              		.loc 1 50 21 is_stmt 0 view .LVU36
 242 0026 FF20     		movs	r0, #255
 243 0028 FFF7FEFF 		bl	SPI1_ReadWriteByte
 244              	.LVL18:
 245              		.loc 1 50 8 view .LVU37
 246 002c 0443     		orrs	r4, r4, r0
 247              	.LVL19:
  51:User/Src/flash.c ****     CS_HIGH;
 248              		.loc 1 51 5 is_stmt 1 view .LVU38
 249 002e 0122     		movs	r2, #1
 250 0030 1021     		movs	r1, #16
 251 0032 2846     		mov	r0, r5
 252 0034 FFF7FEFF 		bl	HAL_GPIO_WritePin
 253              	.LVL20:
  52:User/Src/flash.c ****     return id;
 254              		.loc 1 52 5 view .LVU39
  53:User/Src/flash.c **** }
 255              		.loc 1 53 1 is_stmt 0 view .LVU40
 256 0038 2046     		mov	r0, r4
 257 003a 38BD     		pop	{r3, r4, r5, pc}
 258              	.LVL21:
 259              	.L16:
 260              		.loc 1 53 1 view .LVU41
 261              		.align	2
 262              	.L15:
 263 003c 00080140 		.word	1073809408
 264              		.cfi_endproc
 265              	.LFE71:
 267              		.section	.text.flash_erase_sector,"ax",%progbits
 268              		.align	1
 269              		.global	flash_erase_sector
 270              		.syntax unified
 271              		.thumb
 272              		.thumb_func
 274              	flash_erase_sector:
 275              	.LVL22:
 276              	.LFB72:
  54:User/Src/flash.c **** 
  55:User/Src/flash.c **** 
  56:User/Src/flash.c **** // 硬件页编程（单次最大256字节，必须256字节对齐）
  57:User/Src/flash.c **** // 扇区擦除，addr：扇区起始地址（必须是4KB整数倍），返回1=成功，0=失败
  58:User/Src/flash.c **** uint8_t flash_erase_sector(uint32_t addr)
  59:User/Src/flash.c **** {
 277              		.loc 1 59 1 is_stmt 1 view -0
 278              		.cfi_startproc
 279              		@ args = 0, pretend = 0, frame = 8
 280              		@ frame_needed = 0, uses_anonymous_args = 0
  60:User/Src/flash.c ****     if(addr % W25Q_SECTOR_SIZE != 0) // 地址必须对齐
ARM GAS  C:\Users\84759\AppData\Local\Temp\ccH2BMdw.s 			page 7


 281              		.loc 1 60 5 view .LVU43
 282              		.loc 1 60 13 is_stmt 0 view .LVU44
 283 0000 C0F30B03 		ubfx	r3, r0, #0, #12
 284              		.loc 1 60 7 view .LVU45
 285 0004 0BB1     		cbz	r3, .L25
  61:User/Src/flash.c ****         return 0;
 286              		.loc 1 61 16 view .LVU46
 287 0006 0020     		movs	r0, #0
 288              	.LVL23:
  62:User/Src/flash.c ****     W25Qxx_WriteEnable(); // 擦除前必须写使能
  63:User/Src/flash.c ****     CS_LOW;
  64:User/Src/flash.c ****     // 发送擦除指令+3字节地址
  65:User/Src/flash.c ****     uint8_t cmd[4] = {W25Q_CMD_SECTOR_ER, (addr>>16)&0xFF, (addr>>8)&0xFF, addr&0xFF};
  66:User/Src/flash.c ****     HAL_SPI_Transmit(&hspi1, cmd, 4, 200);
  67:User/Src/flash.c ****     CS_HIGH;
  68:User/Src/flash.c ****     while(CheckBusy() & 0x01); // 等待擦除完成（擦除耗时约0.5s）
  69:User/Src/flash.c ****     return 1;
  70:User/Src/flash.c **** }
 289              		.loc 1 70 1 view .LVU47
 290 0008 7047     		bx	lr
 291              	.LVL24:
 292              	.L25:
  59:User/Src/flash.c ****     if(addr % W25Q_SECTOR_SIZE != 0) // 地址必须对齐
 293              		.loc 1 59 1 view .LVU48
 294 000a 30B5     		push	{r4, r5, lr}
 295              	.LCFI8:
 296              		.cfi_def_cfa_offset 12
 297              		.cfi_offset 4, -12
 298              		.cfi_offset 5, -8
 299              		.cfi_offset 14, -4
 300 000c 83B0     		sub	sp, sp, #12
 301              	.LCFI9:
 302              		.cfi_def_cfa_offset 24
 303 000e 0446     		mov	r4, r0
  62:User/Src/flash.c ****     W25Qxx_WriteEnable(); // 擦除前必须写使能
 304              		.loc 1 62 5 is_stmt 1 view .LVU49
 305 0010 FFF7FEFF 		bl	W25Qxx_WriteEnable
 306              	.LVL25:
  63:User/Src/flash.c ****     // 发送擦除指令+3字节地址
 307              		.loc 1 63 5 view .LVU50
 308 0014 124D     		ldr	r5, .L26
 309 0016 0022     		movs	r2, #0
 310 0018 1021     		movs	r1, #16
 311 001a 2846     		mov	r0, r5
 312 001c FFF7FEFF 		bl	HAL_GPIO_WritePin
 313              	.LVL26:
  65:User/Src/flash.c ****     HAL_SPI_Transmit(&hspi1, cmd, 4, 200);
 314              		.loc 1 65 5 view .LVU51
  65:User/Src/flash.c ****     HAL_SPI_Transmit(&hspi1, cmd, 4, 200);
 315              		.loc 1 65 13 is_stmt 0 view .LVU52
 316 0020 2023     		movs	r3, #32
 317 0022 8DF80430 		strb	r3, [sp, #4]
  65:User/Src/flash.c ****     HAL_SPI_Transmit(&hspi1, cmd, 4, 200);
 318              		.loc 1 65 48 view .LVU53
 319 0026 230C     		lsrs	r3, r4, #16
  65:User/Src/flash.c ****     HAL_SPI_Transmit(&hspi1, cmd, 4, 200);
 320              		.loc 1 65 13 view .LVU54
ARM GAS  C:\Users\84759\AppData\Local\Temp\ccH2BMdw.s 			page 8


 321 0028 8DF80530 		strb	r3, [sp, #5]
  65:User/Src/flash.c ****     HAL_SPI_Transmit(&hspi1, cmd, 4, 200);
 322              		.loc 1 65 65 view .LVU55
 323 002c 230A     		lsrs	r3, r4, #8
  65:User/Src/flash.c ****     HAL_SPI_Transmit(&hspi1, cmd, 4, 200);
 324              		.loc 1 65 13 view .LVU56
 325 002e 8DF80630 		strb	r3, [sp, #6]
 326 0032 8DF80740 		strb	r4, [sp, #7]
  66:User/Src/flash.c ****     CS_HIGH;
 327              		.loc 1 66 5 is_stmt 1 view .LVU57
 328 0036 C823     		movs	r3, #200
 329 0038 0422     		movs	r2, #4
 330 003a 0DEB0201 		add	r1, sp, r2
 331 003e 0948     		ldr	r0, .L26+4
 332 0040 FFF7FEFF 		bl	HAL_SPI_Transmit
 333              	.LVL27:
  67:User/Src/flash.c ****     while(CheckBusy() & 0x01); // 等待擦除完成（擦除耗时约0.5s）
 334              		.loc 1 67 5 view .LVU58
 335 0044 0122     		movs	r2, #1
 336 0046 1021     		movs	r1, #16
 337 0048 2846     		mov	r0, r5
 338 004a FFF7FEFF 		bl	HAL_GPIO_WritePin
 339              	.LVL28:
  68:User/Src/flash.c ****     return 1;
 340              		.loc 1 68 5 view .LVU59
 341              	.L19:
  68:User/Src/flash.c ****     return 1;
 342              		.loc 1 68 30 discriminator 1 view .LVU60
  68:User/Src/flash.c ****     return 1;
 343              		.loc 1 68 10 discriminator 1 view .LVU61
  68:User/Src/flash.c ****     return 1;
 344              		.loc 1 68 11 is_stmt 0 discriminator 1 view .LVU62
 345 004e FFF7FEFF 		bl	CheckBusy
 346              	.LVL29:
  68:User/Src/flash.c ****     return 1;
 347              		.loc 1 68 10 discriminator 1 view .LVU63
 348 0052 10F0010F 		tst	r0, #1
 349 0056 FAD1     		bne	.L19
  69:User/Src/flash.c **** }
 350              		.loc 1 69 12 view .LVU64
 351 0058 0120     		movs	r0, #1
 352              		.loc 1 70 1 view .LVU65
 353 005a 03B0     		add	sp, sp, #12
 354              	.LCFI10:
 355              		.cfi_def_cfa_offset 12
 356              		@ sp needed
 357 005c 30BD     		pop	{r4, r5, pc}
 358              	.LVL30:
 359              	.L27:
 360              		.loc 1 70 1 view .LVU66
 361 005e 00BF     		.align	2
 362              	.L26:
 363 0060 00080140 		.word	1073809408
 364 0064 00000000 		.word	hspi1
 365              		.cfi_endproc
 366              	.LFE72:
 368              		.section	.text.flash_read_data,"ax",%progbits
ARM GAS  C:\Users\84759\AppData\Local\Temp\ccH2BMdw.s 			page 9


 369              		.align	1
 370              		.global	flash_read_data
 371              		.syntax unified
 372              		.thumb
 373              		.thumb_func
 375              	flash_read_data:
 376              	.LVL31:
 377              	.LFB73:
  71:User/Src/flash.c **** 
  72:User/Src/flash.c **** // 通用读数据（支持任意长度、任意地址，硬件自动地址自增）
  73:User/Src/flash.c **** // 读数据，addr：起始地址，buf：数据缓冲区，len：读取长度，返回1=成功
  74:User/Src/flash.c **** uint8_t flash_read_data(uint32_t addr, uint8_t* buf, uint32_t len)
  75:User/Src/flash.c **** {
 378              		.loc 1 75 1 is_stmt 1 view -0
 379              		.cfi_startproc
 380              		@ args = 0, pretend = 0, frame = 8
 381              		@ frame_needed = 0, uses_anonymous_args = 0
  76:User/Src/flash.c ****     if(buf == NULL || len == 0)
 382              		.loc 1 76 5 view .LVU68
 383              		.loc 1 76 7 is_stmt 0 view .LVU69
 384 0000 81B3     		cbz	r1, .L30
  75:User/Src/flash.c ****     if(buf == NULL || len == 0)
 385              		.loc 1 75 1 discriminator 1 view .LVU70
 386 0002 F0B5     		push	{r4, r5, r6, r7, lr}
 387              	.LCFI11:
 388              		.cfi_def_cfa_offset 20
 389              		.cfi_offset 4, -20
 390              		.cfi_offset 5, -16
 391              		.cfi_offset 6, -12
 392              		.cfi_offset 7, -8
 393              		.cfi_offset 14, -4
 394 0004 83B0     		sub	sp, sp, #12
 395              	.LCFI12:
 396              		.cfi_def_cfa_offset 32
 397 0006 0546     		mov	r5, r0
 398 0008 1446     		mov	r4, r2
 399 000a 0E46     		mov	r6, r1
 400              		.loc 1 76 20 discriminator 1 view .LVU71
 401 000c 12B9     		cbnz	r2, .L36
  77:User/Src/flash.c ****         return 0;
 402              		.loc 1 77 16 view .LVU72
 403 000e 0020     		movs	r0, #0
 404              	.LVL32:
 405              	.L29:
  78:User/Src/flash.c ****     CS_LOW;
  79:User/Src/flash.c ****     // 发送读指令+3字节地址
  80:User/Src/flash.c ****     uint8_t cmd[4] = {W25Q_CMD_READ, (addr>>16)&0xFF, (addr>>8)&0xFF, addr&0xFF};
  81:User/Src/flash.c ****     HAL_SPI_Transmit(&hspi1, cmd, 4, 100);
  82:User/Src/flash.c ****     // 连续读取数据（硬件自增，支持跨页/跨扇区）
  83:User/Src/flash.c ****     HAL_SPI_Receive(&hspi1, buf, len, len*10); // 超时随长度调整
  84:User/Src/flash.c ****     CS_HIGH;
  85:User/Src/flash.c ****     return 1;
  86:User/Src/flash.c **** }
 406              		.loc 1 86 1 view .LVU73
 407 0010 03B0     		add	sp, sp, #12
 408              	.LCFI13:
 409              		.cfi_remember_state
ARM GAS  C:\Users\84759\AppData\Local\Temp\ccH2BMdw.s 			page 10


 410              		.cfi_def_cfa_offset 20
 411              		@ sp needed
 412 0012 F0BD     		pop	{r4, r5, r6, r7, pc}
 413              	.LVL33:
 414              	.L36:
 415              	.LCFI14:
 416              		.cfi_restore_state
  78:User/Src/flash.c ****     CS_LOW;
 417              		.loc 1 78 5 is_stmt 1 view .LVU74
 418 0014 144F     		ldr	r7, .L37
 419 0016 0022     		movs	r2, #0
 420              	.LVL34:
  78:User/Src/flash.c ****     CS_LOW;
 421              		.loc 1 78 5 is_stmt 0 view .LVU75
 422 0018 1021     		movs	r1, #16
 423              	.LVL35:
  78:User/Src/flash.c ****     CS_LOW;
 424              		.loc 1 78 5 view .LVU76
 425 001a 3846     		mov	r0, r7
 426              	.LVL36:
  78:User/Src/flash.c ****     CS_LOW;
 427              		.loc 1 78 5 view .LVU77
 428 001c FFF7FEFF 		bl	HAL_GPIO_WritePin
 429              	.LVL37:
  80:User/Src/flash.c ****     HAL_SPI_Transmit(&hspi1, cmd, 4, 100);
 430              		.loc 1 80 5 is_stmt 1 view .LVU78
  80:User/Src/flash.c ****     HAL_SPI_Transmit(&hspi1, cmd, 4, 100);
 431              		.loc 1 80 13 is_stmt 0 view .LVU79
 432 0020 0323     		movs	r3, #3
 433 0022 8DF80430 		strb	r3, [sp, #4]
  80:User/Src/flash.c ****     HAL_SPI_Transmit(&hspi1, cmd, 4, 100);
 434              		.loc 1 80 43 view .LVU80
 435 0026 2B0C     		lsrs	r3, r5, #16
  80:User/Src/flash.c ****     HAL_SPI_Transmit(&hspi1, cmd, 4, 100);
 436              		.loc 1 80 13 view .LVU81
 437 0028 8DF80530 		strb	r3, [sp, #5]
  80:User/Src/flash.c ****     HAL_SPI_Transmit(&hspi1, cmd, 4, 100);
 438              		.loc 1 80 60 view .LVU82
 439 002c 2B0A     		lsrs	r3, r5, #8
  80:User/Src/flash.c ****     HAL_SPI_Transmit(&hspi1, cmd, 4, 100);
 440              		.loc 1 80 13 view .LVU83
 441 002e 8DF80630 		strb	r3, [sp, #6]
 442 0032 8DF80750 		strb	r5, [sp, #7]
  81:User/Src/flash.c ****     // 连续读取数据（硬件自增，支持跨页/跨扇区）
 443              		.loc 1 81 5 is_stmt 1 view .LVU84
 444 0036 0D4D     		ldr	r5, .L37+4
 445              	.LVL38:
  81:User/Src/flash.c ****     // 连续读取数据（硬件自增，支持跨页/跨扇区）
 446              		.loc 1 81 5 is_stmt 0 view .LVU85
 447 0038 6423     		movs	r3, #100
 448 003a 0422     		movs	r2, #4
 449 003c 0DEB0201 		add	r1, sp, r2
 450 0040 2846     		mov	r0, r5
 451 0042 FFF7FEFF 		bl	HAL_SPI_Transmit
 452              	.LVL39:
  83:User/Src/flash.c ****     CS_HIGH;
 453              		.loc 1 83 5 is_stmt 1 view .LVU86
ARM GAS  C:\Users\84759\AppData\Local\Temp\ccH2BMdw.s 			page 11


 454 0046 04EB8403 		add	r3, r4, r4, lsl #2
 455 004a 5B00     		lsls	r3, r3, #1
 456 004c A2B2     		uxth	r2, r4
 457 004e 3146     		mov	r1, r6
 458 0050 2846     		mov	r0, r5
 459 0052 FFF7FEFF 		bl	HAL_SPI_Receive
 460              	.LVL40:
  84:User/Src/flash.c ****     return 1;
 461              		.loc 1 84 5 view .LVU87
 462 0056 0122     		movs	r2, #1
 463 0058 1021     		movs	r1, #16
 464 005a 3846     		mov	r0, r7
 465 005c FFF7FEFF 		bl	HAL_GPIO_WritePin
 466              	.LVL41:
  85:User/Src/flash.c **** }
 467              		.loc 1 85 5 view .LVU88
  85:User/Src/flash.c **** }
 468              		.loc 1 85 12 is_stmt 0 view .LVU89
 469 0060 0120     		movs	r0, #1
 470 0062 D5E7     		b	.L29
 471              	.LVL42:
 472              	.L30:
 473              	.LCFI15:
 474              		.cfi_def_cfa_offset 0
 475              		.cfi_restore 4
 476              		.cfi_restore 5
 477              		.cfi_restore 6
 478              		.cfi_restore 7
 479              		.cfi_restore 14
  77:User/Src/flash.c ****     CS_LOW;
 480              		.loc 1 77 16 view .LVU90
 481 0064 0020     		movs	r0, #0
 482              	.LVL43:
 483              		.loc 1 86 1 view .LVU91
 484 0066 7047     		bx	lr
 485              	.L38:
 486              		.align	2
 487              	.L37:
 488 0068 00080140 		.word	1073809408
 489 006c 00000000 		.word	hspi1
 490              		.cfi_endproc
 491              	.LFE73:
 493              		.section	.text.flash_write_data,"ax",%progbits
 494              		.align	1
 495              		.global	flash_write_data
 496              		.syntax unified
 497              		.thumb
 498              		.thumb_func
 500              	flash_write_data:
 501              	.LVL44:
 502              	.LFB74:
  87:User/Src/flash.c **** 
  88:User/Src/flash.c **** // 通用写数据（核心：自动分块，支持任意长度，跨页/跨扇区软件自增）
  89:User/Src/flash.c **** // 写数据，addr：起始地址，buf：待写入数据，len：写入长度，返回1=成功
  90:User/Src/flash.c **** // 1. Flash写函数中while循环修复
  91:User/Src/flash.c **** uint8_t flash_write_data(uint32_t addr, uint8_t* buf, uint32_t len)
  92:User/Src/flash.c **** {
ARM GAS  C:\Users\84759\AppData\Local\Temp\ccH2BMdw.s 			page 12


 503              		.loc 1 92 1 is_stmt 1 view -0
 504              		.cfi_startproc
 505              		@ args = 0, pretend = 0, frame = 8
 506              		@ frame_needed = 0, uses_anonymous_args = 0
  93:User/Src/flash.c ****     if(buf == NULL || len == 0)
 507              		.loc 1 93 5 view .LVU93
 508              		.loc 1 93 7 is_stmt 0 view .LVU94
 509 0000 0029     		cmp	r1, #0
 510 0002 49D0     		beq	.L44
  92:User/Src/flash.c ****     if(buf == NULL || len == 0)
 511              		.loc 1 92 1 discriminator 1 view .LVU95
 512 0004 2DE9F047 		push	{r4, r5, r6, r7, r8, r9, r10, lr}
 513              	.LCFI16:
 514              		.cfi_def_cfa_offset 32
 515              		.cfi_offset 4, -32
 516              		.cfi_offset 5, -28
 517              		.cfi_offset 6, -24
 518              		.cfi_offset 7, -20
 519              		.cfi_offset 8, -16
 520              		.cfi_offset 9, -12
 521              		.cfi_offset 10, -8
 522              		.cfi_offset 14, -4
 523 0008 82B0     		sub	sp, sp, #8
 524              	.LCFI17:
 525              		.cfi_def_cfa_offset 40
 526 000a 0746     		mov	r7, r0
 527 000c 1646     		mov	r6, r2
 528 000e 8846     		mov	r8, r1
 529              		.loc 1 93 20 discriminator 1 view .LVU96
 530 0010 002A     		cmp	r2, #0
 531 0012 43D0     		beq	.L45
  94:User/Src/flash.c ****         return 0;
  95:User/Src/flash.c ****     uint32_t write_addr = addr;
 532              		.loc 1 95 5 is_stmt 1 view .LVU97
 533              	.LVL45:
  96:User/Src/flash.c ****     uint32_t remain_len = len;
 534              		.loc 1 96 5 view .LVU98
  97:User/Src/flash.c ****     uint32_t page_left = W25Q_PAGE_SIZE - (write_addr % W25Q_PAGE_SIZE);
 535              		.loc 1 97 5 view .LVU99
 536              		.loc 1 97 55 is_stmt 0 view .LVU100
 537 0014 C4B2     		uxtb	r4, r0
 538              		.loc 1 97 14 view .LVU101
 539 0016 C4F58074 		rsb	r4, r4, #256
 540              	.LVL46:
  98:User/Src/flash.c ****     
  99:User/Src/flash.c ****     while(remain_len > 0)
 541              		.loc 1 99 5 is_stmt 1 view .LVU102
  95:User/Src/flash.c ****     uint32_t remain_len = len;
 542              		.loc 1 95 14 is_stmt 0 view .LVU103
 543 001a 0546     		mov	r5, r0
 544              		.loc 1 99 10 view .LVU104
 545 001c 36E0     		b	.L41
 546              	.LVL47:
 547              	.L43:
 548              	.LBB2:
 100:User/Src/flash.c ****     {
 101:User/Src/flash.c ****         uint32_t write_len = remain_len > page_left ? page_left : remain_len;
ARM GAS  C:\Users\84759\AppData\Local\Temp\ccH2BMdw.s 			page 13


 549              		.loc 1 101 9 is_stmt 1 view .LVU105
 550              		.loc 1 101 18 is_stmt 0 view .LVU106
 551 001e B442     		cmp	r4, r6
 552 0020 28BF     		it	cs
 553 0022 3446     		movcs	r4, r6
 554              	.LVL48:
 102:User/Src/flash.c ****         W25Qxx_WriteEnable(); 
 555              		.loc 1 102 9 is_stmt 1 view .LVU107
 556 0024 FFF7FEFF 		bl	W25Qxx_WriteEnable
 557              	.LVL49:
 103:User/Src/flash.c ****         CS_LOW;
 558              		.loc 1 103 9 view .LVU108
 559 0028 DFF87490 		ldr	r9, .L50
 560 002c 0022     		movs	r2, #0
 561 002e 1021     		movs	r1, #16
 562 0030 4846     		mov	r0, r9
 563 0032 FFF7FEFF 		bl	HAL_GPIO_WritePin
 564              	.LVL50:
 104:User/Src/flash.c ****         uint8_t cmd[4] = {W25Q_CMD_PAGE_PROG, (write_addr>>16)&0xFF, (write_addr>>8)&0xFF, write_ad
 565              		.loc 1 104 9 view .LVU109
 566              		.loc 1 104 17 is_stmt 0 view .LVU110
 567 0036 0223     		movs	r3, #2
 568 0038 8DF80430 		strb	r3, [sp, #4]
 569              		.loc 1 104 58 view .LVU111
 570 003c 2B0C     		lsrs	r3, r5, #16
 571              		.loc 1 104 17 view .LVU112
 572 003e 8DF80530 		strb	r3, [sp, #5]
 573              		.loc 1 104 81 view .LVU113
 574 0042 2B0A     		lsrs	r3, r5, #8
 575              		.loc 1 104 17 view .LVU114
 576 0044 8DF80630 		strb	r3, [sp, #6]
 577 0048 8DF80750 		strb	r5, [sp, #7]
 105:User/Src/flash.c ****         HAL_SPI_Transmit(&hspi1, cmd, 4, 100);
 578              		.loc 1 105 9 is_stmt 1 view .LVU115
 579 004c DFF854A0 		ldr	r10, .L50+4
 580 0050 6423     		movs	r3, #100
 581 0052 0422     		movs	r2, #4
 582 0054 0DEB0201 		add	r1, sp, r2
 583 0058 5046     		mov	r0, r10
 584 005a FFF7FEFF 		bl	HAL_SPI_Transmit
 585              	.LVL51:
 106:User/Src/flash.c ****         HAL_SPI_Transmit(&hspi1, buf + (write_addr - addr), write_len, write_len*10);
 586              		.loc 1 106 9 view .LVU116
 587              		.loc 1 106 52 is_stmt 0 view .LVU117
 588 005e E91B     		subs	r1, r5, r7
 589              		.loc 1 106 9 view .LVU118
 590 0060 04EB8403 		add	r3, r4, r4, lsl #2
 591 0064 5B00     		lsls	r3, r3, #1
 592 0066 A2B2     		uxth	r2, r4
 593 0068 4144     		add	r1, r1, r8
 594 006a 5046     		mov	r0, r10
 595 006c FFF7FEFF 		bl	HAL_SPI_Transmit
 596              	.LVL52:
 107:User/Src/flash.c ****         CS_HIGH;
 597              		.loc 1 107 9 is_stmt 1 view .LVU119
 598 0070 0122     		movs	r2, #1
 599 0072 1021     		movs	r1, #16
ARM GAS  C:\Users\84759\AppData\Local\Temp\ccH2BMdw.s 			page 14


 600 0074 4846     		mov	r0, r9
 601 0076 FFF7FEFF 		bl	HAL_GPIO_WritePin
 602              	.LVL53:
 108:User/Src/flash.c ****         
 109:User/Src/flash.c ****         // 修复：移除分号，添加显式空大括号
 110:User/Src/flash.c ****         while(CheckBusy() & 0x01) { } 
 603              		.loc 1 110 9 view .LVU120
 604              	.L42:
 605              		.loc 1 110 37 discriminator 1 view .LVU121
 606              		.loc 1 110 14 discriminator 1 view .LVU122
 607              		.loc 1 110 15 is_stmt 0 discriminator 1 view .LVU123
 608 007a FFF7FEFF 		bl	CheckBusy
 609              	.LVL54:
 610              		.loc 1 110 14 discriminator 1 view .LVU124
 611 007e 10F0010F 		tst	r0, #1
 612 0082 FAD1     		bne	.L42
 111:User/Src/flash.c ****         
 112:User/Src/flash.c ****         remain_len -= write_len;
 613              		.loc 1 112 9 is_stmt 1 view .LVU125
 614              		.loc 1 112 20 is_stmt 0 view .LVU126
 615 0084 361B     		subs	r6, r6, r4
 616              	.LVL55:
 113:User/Src/flash.c ****         write_addr += write_len;
 617              		.loc 1 113 9 is_stmt 1 view .LVU127
 618              		.loc 1 113 20 is_stmt 0 view .LVU128
 619 0086 2544     		add	r5, r5, r4
 620              	.LVL56:
 114:User/Src/flash.c ****         page_left = W25Q_PAGE_SIZE;
 621              		.loc 1 114 9 is_stmt 1 view .LVU129
 622              		.loc 1 114 19 is_stmt 0 view .LVU130
 623 0088 4FF48074 		mov	r4, #256
 624              	.LVL57:
 625              	.L41:
 626              		.loc 1 114 19 view .LVU131
 627              	.LBE2:
  99:User/Src/flash.c ****     {
 628              		.loc 1 99 10 is_stmt 1 view .LVU132
 629 008c 002E     		cmp	r6, #0
 630 008e C6D1     		bne	.L43
 115:User/Src/flash.c ****     }
 116:User/Src/flash.c ****     return 1;
 631              		.loc 1 116 12 is_stmt 0 view .LVU133
 632 0090 0120     		movs	r0, #1
 633              	.LVL58:
 634              	.L40:
 117:User/Src/flash.c **** }
 635              		.loc 1 117 1 view .LVU134
 636 0092 02B0     		add	sp, sp, #8
 637              	.LCFI18:
 638              		.cfi_def_cfa_offset 32
 639              		@ sp needed
 640 0094 BDE8F087 		pop	{r4, r5, r6, r7, r8, r9, r10, pc}
 641              	.LVL59:
 642              	.L44:
 643              	.LCFI19:
 644              		.cfi_def_cfa_offset 0
 645              		.cfi_restore 4
ARM GAS  C:\Users\84759\AppData\Local\Temp\ccH2BMdw.s 			page 15


 646              		.cfi_restore 5
 647              		.cfi_restore 6
 648              		.cfi_restore 7
 649              		.cfi_restore 8
 650              		.cfi_restore 9
 651              		.cfi_restore 10
 652              		.cfi_restore 14
  94:User/Src/flash.c ****     uint32_t write_addr = addr;
 653              		.loc 1 94 16 view .LVU135
 654 0098 0020     		movs	r0, #0
 655              	.LVL60:
 656              		.loc 1 117 1 view .LVU136
 657 009a 7047     		bx	lr
 658              	.LVL61:
 659              	.L45:
 660              	.LCFI20:
 661              		.cfi_def_cfa_offset 40
 662              		.cfi_offset 4, -32
 663              		.cfi_offset 5, -28
 664              		.cfi_offset 6, -24
 665              		.cfi_offset 7, -20
 666              		.cfi_offset 8, -16
 667              		.cfi_offset 9, -12
 668              		.cfi_offset 10, -8
 669              		.cfi_offset 14, -4
  94:User/Src/flash.c ****     uint32_t write_addr = addr;
 670              		.loc 1 94 16 view .LVU137
 671 009c 0020     		movs	r0, #0
 672              	.LVL62:
  94:User/Src/flash.c ****     uint32_t write_addr = addr;
 673              		.loc 1 94 16 view .LVU138
 674 009e F8E7     		b	.L40
 675              	.L51:
 676              		.align	2
 677              	.L50:
 678 00a0 00080140 		.word	1073809408
 679 00a4 00000000 		.word	hspi1
 680              		.cfi_endproc
 681              	.LFE74:
 683              		.text
 684              	.Letext0:
 685              		.file 2 "d:\\mingw\\gcc-arm-none-eabi-10.3-2021.10-win32\\gcc-arm-none-eabi-10.3-2021.10\\arm-none
 686              		.file 3 "d:\\mingw\\gcc-arm-none-eabi-10.3-2021.10-win32\\gcc-arm-none-eabi-10.3-2021.10\\arm-none
 687              		.file 4 "Drivers/CMSIS/Device/ST/STM32F1xx/Include/stm32f103xe.h"
 688              		.file 5 "Drivers/STM32F1xx_HAL_Driver/Inc/stm32f1xx_hal_def.h"
 689              		.file 6 "Drivers/STM32F1xx_HAL_Driver/Inc/stm32f1xx_hal_gpio.h"
 690              		.file 7 "Drivers/STM32F1xx_HAL_Driver/Inc/stm32f1xx_hal_dma.h"
 691              		.file 8 "Drivers/STM32F1xx_HAL_Driver/Inc/stm32f1xx_hal_spi.h"
 692              		.file 9 "Core/Inc/spi.h"
 693              		.file 10 "Drivers/STM32F1xx_HAL_Driver/Inc/stm32f1xx_hal.h"
ARM GAS  C:\Users\84759\AppData\Local\Temp\ccH2BMdw.s 			page 16

