ARM GAS  C:\Users\84759\AppData\Local\Temp\ccSniW1b.s 			page 1


   1              		.cpu cortex-m4
   2              		.arch armv7e-m
   3              		.fpu fpv4-sp-d16
   4              		.eabi_attribute 27, 1
   5              		.eabi_attribute 28, 1
   6              		.eabi_attribute 20, 1
   7              		.eabi_attribute 21, 1
   8              		.eabi_attribute 23, 3
   9              		.eabi_attribute 24, 1
  10              		.eabi_attribute 25, 1
  11              		.eabi_attribute 26, 1
  12              		.eabi_attribute 30, 1
  13              		.eabi_attribute 34, 1
  14              		.eabi_attribute 18, 4
  15              		.file	"main.c"
  16              		.text
  17              	.Ltext0:
  18              		.cfi_sections	.debug_frame
  19              		.section	.text.Error_Handler,"ax",%progbits
  20              		.align	1
  21              		.global	Error_Handler
  22              		.syntax unified
  23              		.thumb
  24              		.thumb_func
  26              	Error_Handler:
  27              	.LFB135:
  28              		.file 1 "Core/Src/main.c"
   1:Core/Src/main.c **** /* USER CODE BEGIN Header */
   2:Core/Src/main.c **** /**
   3:Core/Src/main.c ****   ******************************************************************************
   4:Core/Src/main.c ****   * @file           : main.c
   5:Core/Src/main.c ****   * @brief          : Main program body
   6:Core/Src/main.c ****   ******************************************************************************
   7:Core/Src/main.c ****   * @attention
   8:Core/Src/main.c ****   *
   9:Core/Src/main.c ****   * Copyright (c) 2024 STMicroelectronics.
  10:Core/Src/main.c ****   * All rights reserved.
  11:Core/Src/main.c ****   *
  12:Core/Src/main.c ****   * This software is licensed under terms that can be found in the LICENSE file
  13:Core/Src/main.c ****   * in the root directory of this software component.
  14:Core/Src/main.c ****   * If no LICENSE file comes with this software, it is provided AS-IS.
  15:Core/Src/main.c ****   *
  16:Core/Src/main.c ****   ******************************************************************************
  17:Core/Src/main.c ****   */
  18:Core/Src/main.c **** /* USER CODE END Header */
  19:Core/Src/main.c **** /* Includes ------------------------------------------------------------------*/
  20:Core/Src/main.c **** #include "main.h"
  21:Core/Src/main.c **** #include "usart.h"
  22:Core/Src/main.c **** #include "gpio.h"
  23:Core/Src/main.c **** 
  24:Core/Src/main.c **** /* Private includes ----------------------------------------------------------*/
  25:Core/Src/main.c **** /* USER CODE BEGIN Includes */
  26:Core/Src/main.c **** #include "temp.h"
  27:Core/Src/main.c **** #include "iic_soft.h"
  28:Core/Src/main.c **** #include "spi_soft.h"
  29:Core/Src/main.c **** #include "command.h"
  30:Core/Src/main.c **** #include "manager.h"
ARM GAS  C:\Users\84759\AppData\Local\Temp\ccSniW1b.s 			page 2


  31:Core/Src/main.c **** 
  32:Core/Src/main.c **** /* USER CODE END Includes */
  33:Core/Src/main.c **** 
  34:Core/Src/main.c **** /* Private function prototypes -----------------------------------------------*/
  35:Core/Src/main.c **** void SystemClock_Config(void);
  36:Core/Src/main.c **** 
  37:Core/Src/main.c **** /* Private user code ---------------------------------------------------------*/
  38:Core/Src/main.c **** /* USER CODE BEGIN 0 */
  39:Core/Src/main.c **** 
  40:Core/Src/main.c **** /* USER CODE END 0 */
  41:Core/Src/main.c **** 
  42:Core/Src/main.c **** /**
  43:Core/Src/main.c ****   * @brief  The application entry point.
  44:Core/Src/main.c ****   * @retval int
  45:Core/Src/main.c ****   */
  46:Core/Src/main.c **** int main(void)
  47:Core/Src/main.c **** {
  48:Core/Src/main.c ****   /* USER CODE BEGIN 1 */
  49:Core/Src/main.c **** 
  50:Core/Src/main.c ****   /* USER CODE END 1 */
  51:Core/Src/main.c **** 
  52:Core/Src/main.c ****   /* MCU Configuration--------------------------------------------------------*/
  53:Core/Src/main.c **** 
  54:Core/Src/main.c ****   /* Reset of all peripherals, Initializes the Flash interface and the Systick. */
  55:Core/Src/main.c ****   HAL_Init();
  56:Core/Src/main.c **** 
  57:Core/Src/main.c ****   /* USER CODE BEGIN Init */
  58:Core/Src/main.c **** 
  59:Core/Src/main.c ****   /* USER CODE END Init */
  60:Core/Src/main.c **** 
  61:Core/Src/main.c ****   /* Configure the system clock */
  62:Core/Src/main.c ****   SystemClock_Config();
  63:Core/Src/main.c **** 
  64:Core/Src/main.c ****   /* USER CODE BEGIN SysInit */
  65:Core/Src/main.c **** 
  66:Core/Src/main.c ****   /* USER CODE END SysInit */
  67:Core/Src/main.c **** 
  68:Core/Src/main.c ****   /* Initialize all configured peripherals */
  69:Core/Src/main.c ****   MX_GPIO_Init();
  70:Core/Src/main.c ****   MX_USART1_UART_Init();
  71:Core/Src/main.c ****   MX_USART2_UART_Init();
  72:Core/Src/main.c ****   /* USER CODE BEGIN 2 */
  73:Core/Src/main.c **** 	HAL_UART_Receive_IT(&huart1, &usbRxBuf, 1);
  74:Core/Src/main.c ****   HAL_UART_Receive_IT(&huart2, &deviceRxBuf, 1);
  75:Core/Src/main.c **** 	UsbPrintf("Temperature Compensation Board V3.3 !\r\n");
  76:Core/Src/main.c **** 
  77:Core/Src/main.c ****   TEMP_GPIO_Init();
  78:Core/Src/main.c ****   Manager_Init();
  79:Core/Src/main.c ****     
  80:Core/Src/main.c ****   Close3077_FREQ();
  81:Core/Src/main.c ****   Close3178_FREQ();
  82:Core/Src/main.c ****   Close8825_FREQ();
  83:Core/Src/main.c ****   Close8931_FREQ();
  84:Core/Src/main.c ****   Close8800_FREQ();
  85:Core/Src/main.c ****   Close8801_FREQ();
  86:Core/Src/main.c ****   Close8810_FREQ(); 
  87:Core/Src/main.c ****   Close8840_FREQ();
ARM GAS  C:\Users\84759\AppData\Local\Temp\ccSniW1b.s 			page 3


  88:Core/Src/main.c ****   HAL_GPIO_WritePin(GPIOB, 0XFFFF, GPIO_PIN_RESET);
  89:Core/Src/main.c ****   HAL_GPIO_WritePin(GPIOC, 0XFFFF, GPIO_PIN_RESET);
  90:Core/Src/main.c ****   uint32_t systemTick = 0;
  91:Core/Src/main.c ****   
  92:Core/Src/main.c ****   /* USER CODE END 2 */
  93:Core/Src/main.c ****   
  94:Core/Src/main.c ****   /* Infinite loop */
  95:Core/Src/main.c ****   /* USER CODE BEGIN WHILE */
  96:Core/Src/main.c ****   while (1)
  97:Core/Src/main.c ****   {
  98:Core/Src/main.c ****     /* USER CODE END WHILE */
  99:Core/Src/main.c ****     /* USER CODE BEGIN 3 */
 100:Core/Src/main.c ****     if (systemTick != HAL_GetTick()) 
 101:Core/Src/main.c ****     {
 102:Core/Src/main.c ****       CheckCommandList();       
 103:Core/Src/main.c ****       DeviceMassage();
 104:Core/Src/main.c ****     
 105:Core/Src/main.c ****       if (systemTick % 1000 == 0)
 106:Core/Src/main.c ****       {
 107:Core/Src/main.c ****         LED();
 108:Core/Src/main.c ****       }
 109:Core/Src/main.c ****       if (systemTick % 500 == 0)
 110:Core/Src/main.c ****       {
 111:Core/Src/main.c ****          
 112:Core/Src/main.c ****       }
 113:Core/Src/main.c ****       systemTick = HAL_GetTick();
 114:Core/Src/main.c ****     }
 115:Core/Src/main.c **** 
 116:Core/Src/main.c **** 
 117:Core/Src/main.c ****   }
 118:Core/Src/main.c ****   /* USER CODE END 3 */
 119:Core/Src/main.c **** }
 120:Core/Src/main.c **** 
 121:Core/Src/main.c **** /**
 122:Core/Src/main.c ****   * @brief System Clock Configuration
 123:Core/Src/main.c ****   * @retval None
 124:Core/Src/main.c ****   */
 125:Core/Src/main.c **** void SystemClock_Config(void)
 126:Core/Src/main.c **** {
 127:Core/Src/main.c ****   RCC_OscInitTypeDef RCC_OscInitStruct = {0};
 128:Core/Src/main.c ****   RCC_ClkInitTypeDef RCC_ClkInitStruct = {0};
 129:Core/Src/main.c **** 
 130:Core/Src/main.c ****   /** Configure the main internal regulator output voltage
 131:Core/Src/main.c ****   */
 132:Core/Src/main.c ****   __HAL_RCC_PWR_CLK_ENABLE();
 133:Core/Src/main.c ****   __HAL_PWR_VOLTAGESCALING_CONFIG(PWR_REGULATOR_VOLTAGE_SCALE1);
 134:Core/Src/main.c **** 
 135:Core/Src/main.c ****   /** Initializes the RCC Oscillators according to the specified parameters
 136:Core/Src/main.c ****   * in the RCC_OscInitTypeDef structure.
 137:Core/Src/main.c ****   */
 138:Core/Src/main.c ****   RCC_OscInitStruct.OscillatorType = RCC_OSCILLATORTYPE_HSE;
 139:Core/Src/main.c ****   RCC_OscInitStruct.HSEState = RCC_HSE_ON;
 140:Core/Src/main.c ****   RCC_OscInitStruct.PLL.PLLState = RCC_PLL_ON;
 141:Core/Src/main.c ****   RCC_OscInitStruct.PLL.PLLSource = RCC_PLLSOURCE_HSE;
 142:Core/Src/main.c ****   RCC_OscInitStruct.PLL.PLLM = 6;
 143:Core/Src/main.c ****   RCC_OscInitStruct.PLL.PLLN = 168;
 144:Core/Src/main.c ****   RCC_OscInitStruct.PLL.PLLP = RCC_PLLP_DIV2;
ARM GAS  C:\Users\84759\AppData\Local\Temp\ccSniW1b.s 			page 4


 145:Core/Src/main.c ****   RCC_OscInitStruct.PLL.PLLQ = 4;
 146:Core/Src/main.c ****   if (HAL_RCC_OscConfig(&RCC_OscInitStruct) != HAL_OK)
 147:Core/Src/main.c ****   {
 148:Core/Src/main.c ****     Error_Handler();
 149:Core/Src/main.c ****   }
 150:Core/Src/main.c **** 
 151:Core/Src/main.c ****   /** Initializes the CPU, AHB and APB buses clocks
 152:Core/Src/main.c ****   */
 153:Core/Src/main.c ****   RCC_ClkInitStruct.ClockType = RCC_CLOCKTYPE_HCLK|RCC_CLOCKTYPE_SYSCLK
 154:Core/Src/main.c ****                               |RCC_CLOCKTYPE_PCLK1|RCC_CLOCKTYPE_PCLK2;
 155:Core/Src/main.c ****   RCC_ClkInitStruct.SYSCLKSource = RCC_SYSCLKSOURCE_PLLCLK;
 156:Core/Src/main.c ****   RCC_ClkInitStruct.AHBCLKDivider = RCC_SYSCLK_DIV1;
 157:Core/Src/main.c ****   RCC_ClkInitStruct.APB1CLKDivider = RCC_HCLK_DIV4;
 158:Core/Src/main.c ****   RCC_ClkInitStruct.APB2CLKDivider = RCC_HCLK_DIV2;
 159:Core/Src/main.c **** 
 160:Core/Src/main.c ****   if (HAL_RCC_ClockConfig(&RCC_ClkInitStruct, FLASH_LATENCY_5) != HAL_OK)
 161:Core/Src/main.c ****   {
 162:Core/Src/main.c ****     Error_Handler();
 163:Core/Src/main.c ****   }
 164:Core/Src/main.c **** }
 165:Core/Src/main.c **** 
 166:Core/Src/main.c **** /* USER CODE BEGIN 4 */
 167:Core/Src/main.c **** 
 168:Core/Src/main.c **** /* USER CODE END 4 */
 169:Core/Src/main.c **** 
 170:Core/Src/main.c **** /**
 171:Core/Src/main.c ****   * @brief  This function is executed in case of error occurrence.
 172:Core/Src/main.c ****   * @retval None
 173:Core/Src/main.c ****   */
 174:Core/Src/main.c **** void Error_Handler(void)
 175:Core/Src/main.c **** {
  29              		.loc 1 175 1 view -0
  30              		.cfi_startproc
  31              		@ Volatile: function does not return.
  32              		@ args = 0, pretend = 0, frame = 0
  33              		@ frame_needed = 0, uses_anonymous_args = 0
  34              		@ link register save eliminated.
 176:Core/Src/main.c ****   /* USER CODE BEGIN Error_Handler_Debug */
 177:Core/Src/main.c ****   /* User can add his own implementation to report the HAL error return state */
 178:Core/Src/main.c ****   __disable_irq();
  35              		.loc 1 178 3 view .LVU1
  36              	.LBB4:
  37              	.LBI4:
  38              		.file 2 "Drivers/CMSIS/Include/cmsis_gcc.h"
   1:Drivers/CMSIS/Include/cmsis_gcc.h **** /**************************************************************************//**
   2:Drivers/CMSIS/Include/cmsis_gcc.h ****  * @file     cmsis_gcc.h
   3:Drivers/CMSIS/Include/cmsis_gcc.h ****  * @brief    CMSIS compiler GCC header file
   4:Drivers/CMSIS/Include/cmsis_gcc.h ****  * @version  V5.0.4
   5:Drivers/CMSIS/Include/cmsis_gcc.h ****  * @date     09. April 2018
   6:Drivers/CMSIS/Include/cmsis_gcc.h ****  ******************************************************************************/
   7:Drivers/CMSIS/Include/cmsis_gcc.h **** /*
   8:Drivers/CMSIS/Include/cmsis_gcc.h ****  * Copyright (c) 2009-2018 Arm Limited. All rights reserved.
   9:Drivers/CMSIS/Include/cmsis_gcc.h ****  *
  10:Drivers/CMSIS/Include/cmsis_gcc.h ****  * SPDX-License-Identifier: Apache-2.0
  11:Drivers/CMSIS/Include/cmsis_gcc.h ****  *
  12:Drivers/CMSIS/Include/cmsis_gcc.h ****  * Licensed under the Apache License, Version 2.0 (the License); you may
  13:Drivers/CMSIS/Include/cmsis_gcc.h ****  * not use this file except in compliance with the License.
ARM GAS  C:\Users\84759\AppData\Local\Temp\ccSniW1b.s 			page 5


  14:Drivers/CMSIS/Include/cmsis_gcc.h ****  * You may obtain a copy of the License at
  15:Drivers/CMSIS/Include/cmsis_gcc.h ****  *
  16:Drivers/CMSIS/Include/cmsis_gcc.h ****  * www.apache.org/licenses/LICENSE-2.0
  17:Drivers/CMSIS/Include/cmsis_gcc.h ****  *
  18:Drivers/CMSIS/Include/cmsis_gcc.h ****  * Unless required by applicable law or agreed to in writing, software
  19:Drivers/CMSIS/Include/cmsis_gcc.h ****  * distributed under the License is distributed on an AS IS BASIS, WITHOUT
  20:Drivers/CMSIS/Include/cmsis_gcc.h ****  * WARRANTIES OR CONDITIONS OF ANY KIND, either express or implied.
  21:Drivers/CMSIS/Include/cmsis_gcc.h ****  * See the License for the specific language governing permissions and
  22:Drivers/CMSIS/Include/cmsis_gcc.h ****  * limitations under the License.
  23:Drivers/CMSIS/Include/cmsis_gcc.h ****  */
  24:Drivers/CMSIS/Include/cmsis_gcc.h **** 
  25:Drivers/CMSIS/Include/cmsis_gcc.h **** #ifndef __CMSIS_GCC_H
  26:Drivers/CMSIS/Include/cmsis_gcc.h **** #define __CMSIS_GCC_H
  27:Drivers/CMSIS/Include/cmsis_gcc.h **** 
  28:Drivers/CMSIS/Include/cmsis_gcc.h **** /* ignore some GCC warnings */
  29:Drivers/CMSIS/Include/cmsis_gcc.h **** #pragma GCC diagnostic push
  30:Drivers/CMSIS/Include/cmsis_gcc.h **** #pragma GCC diagnostic ignored "-Wsign-conversion"
  31:Drivers/CMSIS/Include/cmsis_gcc.h **** #pragma GCC diagnostic ignored "-Wconversion"
  32:Drivers/CMSIS/Include/cmsis_gcc.h **** #pragma GCC diagnostic ignored "-Wunused-parameter"
  33:Drivers/CMSIS/Include/cmsis_gcc.h **** 
  34:Drivers/CMSIS/Include/cmsis_gcc.h **** /* Fallback for __has_builtin */
  35:Drivers/CMSIS/Include/cmsis_gcc.h **** #ifndef __has_builtin
  36:Drivers/CMSIS/Include/cmsis_gcc.h ****   #define __has_builtin(x) (0)
  37:Drivers/CMSIS/Include/cmsis_gcc.h **** #endif
  38:Drivers/CMSIS/Include/cmsis_gcc.h **** 
  39:Drivers/CMSIS/Include/cmsis_gcc.h **** /* CMSIS compiler specific defines */
  40:Drivers/CMSIS/Include/cmsis_gcc.h **** #ifndef   __ASM
  41:Drivers/CMSIS/Include/cmsis_gcc.h ****   #define __ASM                                  __asm
  42:Drivers/CMSIS/Include/cmsis_gcc.h **** #endif
  43:Drivers/CMSIS/Include/cmsis_gcc.h **** #ifndef   __INLINE
  44:Drivers/CMSIS/Include/cmsis_gcc.h ****   #define __INLINE                               inline
  45:Drivers/CMSIS/Include/cmsis_gcc.h **** #endif
  46:Drivers/CMSIS/Include/cmsis_gcc.h **** #ifndef   __STATIC_INLINE
  47:Drivers/CMSIS/Include/cmsis_gcc.h ****   #define __STATIC_INLINE                        static inline
  48:Drivers/CMSIS/Include/cmsis_gcc.h **** #endif
  49:Drivers/CMSIS/Include/cmsis_gcc.h **** #ifndef   __STATIC_FORCEINLINE                 
  50:Drivers/CMSIS/Include/cmsis_gcc.h ****   #define __STATIC_FORCEINLINE                   __attribute__((always_inline)) static inline
  51:Drivers/CMSIS/Include/cmsis_gcc.h **** #endif                                           
  52:Drivers/CMSIS/Include/cmsis_gcc.h **** #ifndef   __NO_RETURN
  53:Drivers/CMSIS/Include/cmsis_gcc.h ****   #define __NO_RETURN                            __attribute__((__noreturn__))
  54:Drivers/CMSIS/Include/cmsis_gcc.h **** #endif
  55:Drivers/CMSIS/Include/cmsis_gcc.h **** #ifndef   __USED
  56:Drivers/CMSIS/Include/cmsis_gcc.h ****   #define __USED                                 __attribute__((used))
  57:Drivers/CMSIS/Include/cmsis_gcc.h **** #endif
  58:Drivers/CMSIS/Include/cmsis_gcc.h **** #ifndef   __WEAK
  59:Drivers/CMSIS/Include/cmsis_gcc.h ****   #define __WEAK                                 __attribute__((weak))
  60:Drivers/CMSIS/Include/cmsis_gcc.h **** #endif
  61:Drivers/CMSIS/Include/cmsis_gcc.h **** #ifndef   __PACKED
  62:Drivers/CMSIS/Include/cmsis_gcc.h ****   #define __PACKED                               __attribute__((packed, aligned(1)))
  63:Drivers/CMSIS/Include/cmsis_gcc.h **** #endif
  64:Drivers/CMSIS/Include/cmsis_gcc.h **** #ifndef   __PACKED_STRUCT
  65:Drivers/CMSIS/Include/cmsis_gcc.h ****   #define __PACKED_STRUCT                        struct __attribute__((packed, aligned(1)))
  66:Drivers/CMSIS/Include/cmsis_gcc.h **** #endif
  67:Drivers/CMSIS/Include/cmsis_gcc.h **** #ifndef   __PACKED_UNION
  68:Drivers/CMSIS/Include/cmsis_gcc.h ****   #define __PACKED_UNION                         union __attribute__((packed, aligned(1)))
  69:Drivers/CMSIS/Include/cmsis_gcc.h **** #endif
  70:Drivers/CMSIS/Include/cmsis_gcc.h **** #ifndef   __UNALIGNED_UINT32        /* deprecated */
ARM GAS  C:\Users\84759\AppData\Local\Temp\ccSniW1b.s 			page 6


  71:Drivers/CMSIS/Include/cmsis_gcc.h ****   #pragma GCC diagnostic push
  72:Drivers/CMSIS/Include/cmsis_gcc.h ****   #pragma GCC diagnostic ignored "-Wpacked"
  73:Drivers/CMSIS/Include/cmsis_gcc.h ****   #pragma GCC diagnostic ignored "-Wattributes"
  74:Drivers/CMSIS/Include/cmsis_gcc.h ****   struct __attribute__((packed)) T_UINT32 { uint32_t v; };
  75:Drivers/CMSIS/Include/cmsis_gcc.h ****   #pragma GCC diagnostic pop
  76:Drivers/CMSIS/Include/cmsis_gcc.h ****   #define __UNALIGNED_UINT32(x)                  (((struct T_UINT32 *)(x))->v)
  77:Drivers/CMSIS/Include/cmsis_gcc.h **** #endif
  78:Drivers/CMSIS/Include/cmsis_gcc.h **** #ifndef   __UNALIGNED_UINT16_WRITE
  79:Drivers/CMSIS/Include/cmsis_gcc.h ****   #pragma GCC diagnostic push
  80:Drivers/CMSIS/Include/cmsis_gcc.h ****   #pragma GCC diagnostic ignored "-Wpacked"
  81:Drivers/CMSIS/Include/cmsis_gcc.h ****   #pragma GCC diagnostic ignored "-Wattributes"
  82:Drivers/CMSIS/Include/cmsis_gcc.h ****   __PACKED_STRUCT T_UINT16_WRITE { uint16_t v; };
  83:Drivers/CMSIS/Include/cmsis_gcc.h ****   #pragma GCC diagnostic pop
  84:Drivers/CMSIS/Include/cmsis_gcc.h ****   #define __UNALIGNED_UINT16_WRITE(addr, val)    (void)((((struct T_UINT16_WRITE *)(void *)(addr))-
  85:Drivers/CMSIS/Include/cmsis_gcc.h **** #endif
  86:Drivers/CMSIS/Include/cmsis_gcc.h **** #ifndef   __UNALIGNED_UINT16_READ
  87:Drivers/CMSIS/Include/cmsis_gcc.h ****   #pragma GCC diagnostic push
  88:Drivers/CMSIS/Include/cmsis_gcc.h ****   #pragma GCC diagnostic ignored "-Wpacked"
  89:Drivers/CMSIS/Include/cmsis_gcc.h ****   #pragma GCC diagnostic ignored "-Wattributes"
  90:Drivers/CMSIS/Include/cmsis_gcc.h ****   __PACKED_STRUCT T_UINT16_READ { uint16_t v; };
  91:Drivers/CMSIS/Include/cmsis_gcc.h ****   #pragma GCC diagnostic pop
  92:Drivers/CMSIS/Include/cmsis_gcc.h ****   #define __UNALIGNED_UINT16_READ(addr)          (((const struct T_UINT16_READ *)(const void *)(add
  93:Drivers/CMSIS/Include/cmsis_gcc.h **** #endif
  94:Drivers/CMSIS/Include/cmsis_gcc.h **** #ifndef   __UNALIGNED_UINT32_WRITE
  95:Drivers/CMSIS/Include/cmsis_gcc.h ****   #pragma GCC diagnostic push
  96:Drivers/CMSIS/Include/cmsis_gcc.h ****   #pragma GCC diagnostic ignored "-Wpacked"
  97:Drivers/CMSIS/Include/cmsis_gcc.h ****   #pragma GCC diagnostic ignored "-Wattributes"
  98:Drivers/CMSIS/Include/cmsis_gcc.h ****   __PACKED_STRUCT T_UINT32_WRITE { uint32_t v; };
  99:Drivers/CMSIS/Include/cmsis_gcc.h ****   #pragma GCC diagnostic pop
 100:Drivers/CMSIS/Include/cmsis_gcc.h ****   #define __UNALIGNED_UINT32_WRITE(addr, val)    (void)((((struct T_UINT32_WRITE *)(void *)(addr))-
 101:Drivers/CMSIS/Include/cmsis_gcc.h **** #endif
 102:Drivers/CMSIS/Include/cmsis_gcc.h **** #ifndef   __UNALIGNED_UINT32_READ
 103:Drivers/CMSIS/Include/cmsis_gcc.h ****   #pragma GCC diagnostic push
 104:Drivers/CMSIS/Include/cmsis_gcc.h ****   #pragma GCC diagnostic ignored "-Wpacked"
 105:Drivers/CMSIS/Include/cmsis_gcc.h ****   #pragma GCC diagnostic ignored "-Wattributes"
 106:Drivers/CMSIS/Include/cmsis_gcc.h ****   __PACKED_STRUCT T_UINT32_READ { uint32_t v; };
 107:Drivers/CMSIS/Include/cmsis_gcc.h ****   #pragma GCC diagnostic pop
 108:Drivers/CMSIS/Include/cmsis_gcc.h ****   #define __UNALIGNED_UINT32_READ(addr)          (((const struct T_UINT32_READ *)(const void *)(add
 109:Drivers/CMSIS/Include/cmsis_gcc.h **** #endif
 110:Drivers/CMSIS/Include/cmsis_gcc.h **** #ifndef   __ALIGNED
 111:Drivers/CMSIS/Include/cmsis_gcc.h ****   #define __ALIGNED(x)                           __attribute__((aligned(x)))
 112:Drivers/CMSIS/Include/cmsis_gcc.h **** #endif
 113:Drivers/CMSIS/Include/cmsis_gcc.h **** #ifndef   __RESTRICT
 114:Drivers/CMSIS/Include/cmsis_gcc.h ****   #define __RESTRICT                             __restrict
 115:Drivers/CMSIS/Include/cmsis_gcc.h **** #endif
 116:Drivers/CMSIS/Include/cmsis_gcc.h **** 
 117:Drivers/CMSIS/Include/cmsis_gcc.h **** 
 118:Drivers/CMSIS/Include/cmsis_gcc.h **** /* ###########################  Core Function Access  ########################### */
 119:Drivers/CMSIS/Include/cmsis_gcc.h **** /** \ingroup  CMSIS_Core_FunctionInterface
 120:Drivers/CMSIS/Include/cmsis_gcc.h ****     \defgroup CMSIS_Core_RegAccFunctions CMSIS Core Register Access Functions
 121:Drivers/CMSIS/Include/cmsis_gcc.h ****   @{
 122:Drivers/CMSIS/Include/cmsis_gcc.h ****  */
 123:Drivers/CMSIS/Include/cmsis_gcc.h **** 
 124:Drivers/CMSIS/Include/cmsis_gcc.h **** /**
 125:Drivers/CMSIS/Include/cmsis_gcc.h ****   \brief   Enable IRQ Interrupts
 126:Drivers/CMSIS/Include/cmsis_gcc.h ****   \details Enables IRQ interrupts by clearing the I-bit in the CPSR.
 127:Drivers/CMSIS/Include/cmsis_gcc.h ****            Can only be executed in Privileged modes.
ARM GAS  C:\Users\84759\AppData\Local\Temp\ccSniW1b.s 			page 7


 128:Drivers/CMSIS/Include/cmsis_gcc.h ****  */
 129:Drivers/CMSIS/Include/cmsis_gcc.h **** __STATIC_FORCEINLINE void __enable_irq(void)
 130:Drivers/CMSIS/Include/cmsis_gcc.h **** {
 131:Drivers/CMSIS/Include/cmsis_gcc.h ****   __ASM volatile ("cpsie i" : : : "memory");
 132:Drivers/CMSIS/Include/cmsis_gcc.h **** }
 133:Drivers/CMSIS/Include/cmsis_gcc.h **** 
 134:Drivers/CMSIS/Include/cmsis_gcc.h **** 
 135:Drivers/CMSIS/Include/cmsis_gcc.h **** /**
 136:Drivers/CMSIS/Include/cmsis_gcc.h ****   \brief   Disable IRQ Interrupts
 137:Drivers/CMSIS/Include/cmsis_gcc.h ****   \details Disables IRQ interrupts by setting the I-bit in the CPSR.
 138:Drivers/CMSIS/Include/cmsis_gcc.h ****            Can only be executed in Privileged modes.
 139:Drivers/CMSIS/Include/cmsis_gcc.h ****  */
 140:Drivers/CMSIS/Include/cmsis_gcc.h **** __STATIC_FORCEINLINE void __disable_irq(void)
  39              		.loc 2 140 27 view .LVU2
  40              	.LBB5:
 141:Drivers/CMSIS/Include/cmsis_gcc.h **** {
 142:Drivers/CMSIS/Include/cmsis_gcc.h ****   __ASM volatile ("cpsid i" : : : "memory");
  41              		.loc 2 142 3 view .LVU3
  42              		.syntax unified
  43              	@ 142 "Drivers/CMSIS/Include/cmsis_gcc.h" 1
  44 0000 72B6     		cpsid i
  45              	@ 0 "" 2
  46              		.thumb
  47              		.syntax unified
  48              	.L2:
  49              	.LBE5:
  50              	.LBE4:
 179:Core/Src/main.c ****   while (1)
  51              		.loc 1 179 3 discriminator 1 view .LVU4
 180:Core/Src/main.c ****   {
 181:Core/Src/main.c ****   }
  52              		.loc 1 181 3 discriminator 1 view .LVU5
 179:Core/Src/main.c ****   while (1)
  53              		.loc 1 179 9 discriminator 1 view .LVU6
  54 0002 FEE7     		b	.L2
  55              		.cfi_endproc
  56              	.LFE135:
  58              		.section	.text.SystemClock_Config,"ax",%progbits
  59              		.align	1
  60              		.global	SystemClock_Config
  61              		.syntax unified
  62              		.thumb
  63              		.thumb_func
  65              	SystemClock_Config:
  66              	.LFB134:
 126:Core/Src/main.c ****   RCC_OscInitTypeDef RCC_OscInitStruct = {0};
  67              		.loc 1 126 1 view -0
  68              		.cfi_startproc
  69              		@ args = 0, pretend = 0, frame = 80
  70              		@ frame_needed = 0, uses_anonymous_args = 0
  71 0000 00B5     		push	{lr}
  72              	.LCFI0:
  73              		.cfi_def_cfa_offset 4
  74              		.cfi_offset 14, -4
  75 0002 95B0     		sub	sp, sp, #84
  76              	.LCFI1:
  77              		.cfi_def_cfa_offset 88
ARM GAS  C:\Users\84759\AppData\Local\Temp\ccSniW1b.s 			page 8


 127:Core/Src/main.c ****   RCC_ClkInitTypeDef RCC_ClkInitStruct = {0};
  78              		.loc 1 127 3 view .LVU8
 127:Core/Src/main.c ****   RCC_ClkInitTypeDef RCC_ClkInitStruct = {0};
  79              		.loc 1 127 22 is_stmt 0 view .LVU9
  80 0004 3022     		movs	r2, #48
  81 0006 0021     		movs	r1, #0
  82 0008 08A8     		add	r0, sp, #32
  83 000a FFF7FEFF 		bl	memset
  84              	.LVL0:
 128:Core/Src/main.c **** 
  85              		.loc 1 128 3 is_stmt 1 view .LVU10
 128:Core/Src/main.c **** 
  86              		.loc 1 128 22 is_stmt 0 view .LVU11
  87 000e 0023     		movs	r3, #0
  88 0010 0393     		str	r3, [sp, #12]
  89 0012 0493     		str	r3, [sp, #16]
  90 0014 0593     		str	r3, [sp, #20]
  91 0016 0693     		str	r3, [sp, #24]
  92 0018 0793     		str	r3, [sp, #28]
 132:Core/Src/main.c ****   __HAL_PWR_VOLTAGESCALING_CONFIG(PWR_REGULATOR_VOLTAGE_SCALE1);
  93              		.loc 1 132 3 is_stmt 1 view .LVU12
  94              	.LBB6:
 132:Core/Src/main.c ****   __HAL_PWR_VOLTAGESCALING_CONFIG(PWR_REGULATOR_VOLTAGE_SCALE1);
  95              		.loc 1 132 3 view .LVU13
  96 001a 0193     		str	r3, [sp, #4]
 132:Core/Src/main.c ****   __HAL_PWR_VOLTAGESCALING_CONFIG(PWR_REGULATOR_VOLTAGE_SCALE1);
  97              		.loc 1 132 3 view .LVU14
  98 001c 204A     		ldr	r2, .L9
  99 001e 116C     		ldr	r1, [r2, #64]
 100 0020 41F08051 		orr	r1, r1, #268435456
 101 0024 1164     		str	r1, [r2, #64]
 132:Core/Src/main.c ****   __HAL_PWR_VOLTAGESCALING_CONFIG(PWR_REGULATOR_VOLTAGE_SCALE1);
 102              		.loc 1 132 3 view .LVU15
 103 0026 126C     		ldr	r2, [r2, #64]
 104 0028 02F08052 		and	r2, r2, #268435456
 105 002c 0192     		str	r2, [sp, #4]
 132:Core/Src/main.c ****   __HAL_PWR_VOLTAGESCALING_CONFIG(PWR_REGULATOR_VOLTAGE_SCALE1);
 106              		.loc 1 132 3 view .LVU16
 107 002e 019A     		ldr	r2, [sp, #4]
 108              	.LBE6:
 132:Core/Src/main.c ****   __HAL_PWR_VOLTAGESCALING_CONFIG(PWR_REGULATOR_VOLTAGE_SCALE1);
 109              		.loc 1 132 3 view .LVU17
 133:Core/Src/main.c **** 
 110              		.loc 1 133 3 view .LVU18
 111              	.LBB7:
 133:Core/Src/main.c **** 
 112              		.loc 1 133 3 view .LVU19
 113 0030 0293     		str	r3, [sp, #8]
 133:Core/Src/main.c **** 
 114              		.loc 1 133 3 view .LVU20
 115 0032 1C4B     		ldr	r3, .L9+4
 116 0034 1A68     		ldr	r2, [r3]
 117 0036 42F48042 		orr	r2, r2, #16384
 118 003a 1A60     		str	r2, [r3]
 133:Core/Src/main.c **** 
 119              		.loc 1 133 3 view .LVU21
 120 003c 1B68     		ldr	r3, [r3]
ARM GAS  C:\Users\84759\AppData\Local\Temp\ccSniW1b.s 			page 9


 121 003e 03F48043 		and	r3, r3, #16384
 122 0042 0293     		str	r3, [sp, #8]
 133:Core/Src/main.c **** 
 123              		.loc 1 133 3 view .LVU22
 124 0044 029B     		ldr	r3, [sp, #8]
 125              	.LBE7:
 133:Core/Src/main.c **** 
 126              		.loc 1 133 3 view .LVU23
 138:Core/Src/main.c ****   RCC_OscInitStruct.HSEState = RCC_HSE_ON;
 127              		.loc 1 138 3 view .LVU24
 138:Core/Src/main.c ****   RCC_OscInitStruct.HSEState = RCC_HSE_ON;
 128              		.loc 1 138 36 is_stmt 0 view .LVU25
 129 0046 0123     		movs	r3, #1
 130 0048 0893     		str	r3, [sp, #32]
 139:Core/Src/main.c ****   RCC_OscInitStruct.PLL.PLLState = RCC_PLL_ON;
 131              		.loc 1 139 3 is_stmt 1 view .LVU26
 139:Core/Src/main.c ****   RCC_OscInitStruct.PLL.PLLState = RCC_PLL_ON;
 132              		.loc 1 139 30 is_stmt 0 view .LVU27
 133 004a 4FF48033 		mov	r3, #65536
 134 004e 0993     		str	r3, [sp, #36]
 140:Core/Src/main.c ****   RCC_OscInitStruct.PLL.PLLSource = RCC_PLLSOURCE_HSE;
 135              		.loc 1 140 3 is_stmt 1 view .LVU28
 140:Core/Src/main.c ****   RCC_OscInitStruct.PLL.PLLSource = RCC_PLLSOURCE_HSE;
 136              		.loc 1 140 34 is_stmt 0 view .LVU29
 137 0050 0223     		movs	r3, #2
 138 0052 0E93     		str	r3, [sp, #56]
 141:Core/Src/main.c ****   RCC_OscInitStruct.PLL.PLLM = 6;
 139              		.loc 1 141 3 is_stmt 1 view .LVU30
 141:Core/Src/main.c ****   RCC_OscInitStruct.PLL.PLLM = 6;
 140              		.loc 1 141 35 is_stmt 0 view .LVU31
 141 0054 4FF48002 		mov	r2, #4194304
 142 0058 0F92     		str	r2, [sp, #60]
 142:Core/Src/main.c ****   RCC_OscInitStruct.PLL.PLLN = 168;
 143              		.loc 1 142 3 is_stmt 1 view .LVU32
 142:Core/Src/main.c ****   RCC_OscInitStruct.PLL.PLLN = 168;
 144              		.loc 1 142 30 is_stmt 0 view .LVU33
 145 005a 0622     		movs	r2, #6
 146 005c 1092     		str	r2, [sp, #64]
 143:Core/Src/main.c ****   RCC_OscInitStruct.PLL.PLLP = RCC_PLLP_DIV2;
 147              		.loc 1 143 3 is_stmt 1 view .LVU34
 143:Core/Src/main.c ****   RCC_OscInitStruct.PLL.PLLP = RCC_PLLP_DIV2;
 148              		.loc 1 143 30 is_stmt 0 view .LVU35
 149 005e A822     		movs	r2, #168
 150 0060 1192     		str	r2, [sp, #68]
 144:Core/Src/main.c ****   RCC_OscInitStruct.PLL.PLLQ = 4;
 151              		.loc 1 144 3 is_stmt 1 view .LVU36
 144:Core/Src/main.c ****   RCC_OscInitStruct.PLL.PLLQ = 4;
 152              		.loc 1 144 30 is_stmt 0 view .LVU37
 153 0062 1293     		str	r3, [sp, #72]
 145:Core/Src/main.c ****   if (HAL_RCC_OscConfig(&RCC_OscInitStruct) != HAL_OK)
 154              		.loc 1 145 3 is_stmt 1 view .LVU38
 145:Core/Src/main.c ****   if (HAL_RCC_OscConfig(&RCC_OscInitStruct) != HAL_OK)
 155              		.loc 1 145 30 is_stmt 0 view .LVU39
 156 0064 0423     		movs	r3, #4
 157 0066 1393     		str	r3, [sp, #76]
 146:Core/Src/main.c ****   {
 158              		.loc 1 146 3 is_stmt 1 view .LVU40
ARM GAS  C:\Users\84759\AppData\Local\Temp\ccSniW1b.s 			page 10


 146:Core/Src/main.c ****   {
 159              		.loc 1 146 7 is_stmt 0 view .LVU41
 160 0068 08A8     		add	r0, sp, #32
 161 006a FFF7FEFF 		bl	HAL_RCC_OscConfig
 162              	.LVL1:
 146:Core/Src/main.c ****   {
 163              		.loc 1 146 6 view .LVU42
 164 006e 98B9     		cbnz	r0, .L7
 153:Core/Src/main.c ****                               |RCC_CLOCKTYPE_PCLK1|RCC_CLOCKTYPE_PCLK2;
 165              		.loc 1 153 3 is_stmt 1 view .LVU43
 153:Core/Src/main.c ****                               |RCC_CLOCKTYPE_PCLK1|RCC_CLOCKTYPE_PCLK2;
 166              		.loc 1 153 31 is_stmt 0 view .LVU44
 167 0070 0F23     		movs	r3, #15
 168 0072 0393     		str	r3, [sp, #12]
 155:Core/Src/main.c ****   RCC_ClkInitStruct.AHBCLKDivider = RCC_SYSCLK_DIV1;
 169              		.loc 1 155 3 is_stmt 1 view .LVU45
 155:Core/Src/main.c ****   RCC_ClkInitStruct.AHBCLKDivider = RCC_SYSCLK_DIV1;
 170              		.loc 1 155 34 is_stmt 0 view .LVU46
 171 0074 0223     		movs	r3, #2
 172 0076 0493     		str	r3, [sp, #16]
 156:Core/Src/main.c ****   RCC_ClkInitStruct.APB1CLKDivider = RCC_HCLK_DIV4;
 173              		.loc 1 156 3 is_stmt 1 view .LVU47
 156:Core/Src/main.c ****   RCC_ClkInitStruct.APB1CLKDivider = RCC_HCLK_DIV4;
 174              		.loc 1 156 35 is_stmt 0 view .LVU48
 175 0078 0023     		movs	r3, #0
 176 007a 0593     		str	r3, [sp, #20]
 157:Core/Src/main.c ****   RCC_ClkInitStruct.APB2CLKDivider = RCC_HCLK_DIV2;
 177              		.loc 1 157 3 is_stmt 1 view .LVU49
 157:Core/Src/main.c ****   RCC_ClkInitStruct.APB2CLKDivider = RCC_HCLK_DIV2;
 178              		.loc 1 157 36 is_stmt 0 view .LVU50
 179 007c 4FF4A053 		mov	r3, #5120
 180 0080 0693     		str	r3, [sp, #24]
 158:Core/Src/main.c **** 
 181              		.loc 1 158 3 is_stmt 1 view .LVU51
 158:Core/Src/main.c **** 
 182              		.loc 1 158 36 is_stmt 0 view .LVU52
 183 0082 4FF48053 		mov	r3, #4096
 184 0086 0793     		str	r3, [sp, #28]
 160:Core/Src/main.c ****   {
 185              		.loc 1 160 3 is_stmt 1 view .LVU53
 160:Core/Src/main.c ****   {
 186              		.loc 1 160 7 is_stmt 0 view .LVU54
 187 0088 0521     		movs	r1, #5
 188 008a 03A8     		add	r0, sp, #12
 189 008c FFF7FEFF 		bl	HAL_RCC_ClockConfig
 190              	.LVL2:
 160:Core/Src/main.c ****   {
 191              		.loc 1 160 6 view .LVU55
 192 0090 20B9     		cbnz	r0, .L8
 164:Core/Src/main.c **** 
 193              		.loc 1 164 1 view .LVU56
 194 0092 15B0     		add	sp, sp, #84
 195              	.LCFI2:
 196              		.cfi_remember_state
 197              		.cfi_def_cfa_offset 4
 198              		@ sp needed
 199 0094 5DF804FB 		ldr	pc, [sp], #4
ARM GAS  C:\Users\84759\AppData\Local\Temp\ccSniW1b.s 			page 11


 200              	.L7:
 201              	.LCFI3:
 202              		.cfi_restore_state
 148:Core/Src/main.c ****   }
 203              		.loc 1 148 5 is_stmt 1 view .LVU57
 204 0098 FFF7FEFF 		bl	Error_Handler
 205              	.LVL3:
 206              	.L8:
 162:Core/Src/main.c ****   }
 207              		.loc 1 162 5 view .LVU58
 208 009c FFF7FEFF 		bl	Error_Handler
 209              	.LVL4:
 210              	.L10:
 211              		.align	2
 212              	.L9:
 213 00a0 00380240 		.word	1073887232
 214 00a4 00700040 		.word	1073770496
 215              		.cfi_endproc
 216              	.LFE134:
 218              		.section	.rodata.main.str1.4,"aMS",%progbits,1
 219              		.align	2
 220              	.LC0:
 221 0000 54656D70 		.ascii	"Temperature Compensation Board V3.3 !\015\012\000"
 221      65726174 
 221      75726520 
 221      436F6D70 
 221      656E7361 
 222              		.section	.text.main,"ax",%progbits
 223              		.align	1
 224              		.global	main
 225              		.syntax unified
 226              		.thumb
 227              		.thumb_func
 229              	main:
 230              	.LFB133:
  47:Core/Src/main.c ****   /* USER CODE BEGIN 1 */
 231              		.loc 1 47 1 view -0
 232              		.cfi_startproc
 233              		@ args = 0, pretend = 0, frame = 0
 234              		@ frame_needed = 0, uses_anonymous_args = 0
 235 0000 10B5     		push	{r4, lr}
 236              	.LCFI4:
 237              		.cfi_def_cfa_offset 8
 238              		.cfi_offset 4, -8
 239              		.cfi_offset 14, -4
  55:Core/Src/main.c **** 
 240              		.loc 1 55 3 view .LVU60
 241 0002 FFF7FEFF 		bl	HAL_Init
 242              	.LVL5:
  62:Core/Src/main.c **** 
 243              		.loc 1 62 3 view .LVU61
 244 0006 FFF7FEFF 		bl	SystemClock_Config
 245              	.LVL6:
  69:Core/Src/main.c ****   MX_USART1_UART_Init();
 246              		.loc 1 69 3 view .LVU62
 247 000a FFF7FEFF 		bl	MX_GPIO_Init
 248              	.LVL7:
ARM GAS  C:\Users\84759\AppData\Local\Temp\ccSniW1b.s 			page 12


  70:Core/Src/main.c ****   MX_USART2_UART_Init();
 249              		.loc 1 70 3 view .LVU63
 250 000e FFF7FEFF 		bl	MX_USART1_UART_Init
 251              	.LVL8:
  71:Core/Src/main.c ****   /* USER CODE BEGIN 2 */
 252              		.loc 1 71 3 view .LVU64
 253 0012 FFF7FEFF 		bl	MX_USART2_UART_Init
 254              	.LVL9:
  73:Core/Src/main.c ****   HAL_UART_Receive_IT(&huart2, &deviceRxBuf, 1);
 255              		.loc 1 73 2 view .LVU65
 256 0016 0122     		movs	r2, #1
 257 0018 2249     		ldr	r1, .L16
 258 001a 2348     		ldr	r0, .L16+4
 259 001c FFF7FEFF 		bl	HAL_UART_Receive_IT
 260              	.LVL10:
  74:Core/Src/main.c **** 	UsbPrintf("Temperature Compensation Board V3.3 !\r\n");
 261              		.loc 1 74 3 view .LVU66
 262 0020 0122     		movs	r2, #1
 263 0022 2249     		ldr	r1, .L16+8
 264 0024 2248     		ldr	r0, .L16+12
 265 0026 FFF7FEFF 		bl	HAL_UART_Receive_IT
 266              	.LVL11:
  75:Core/Src/main.c **** 
 267              		.loc 1 75 2 view .LVU67
 268 002a 2248     		ldr	r0, .L16+16
 269 002c FFF7FEFF 		bl	UsbPrintf
 270              	.LVL12:
  77:Core/Src/main.c ****   Manager_Init();
 271              		.loc 1 77 3 view .LVU68
 272 0030 FFF7FEFF 		bl	TEMP_GPIO_Init
 273              	.LVL13:
  78:Core/Src/main.c ****     
 274              		.loc 1 78 3 view .LVU69
 275 0034 FFF7FEFF 		bl	Manager_Init
 276              	.LVL14:
  80:Core/Src/main.c ****   Close3178_FREQ();
 277              		.loc 1 80 3 view .LVU70
 278 0038 FFF7FEFF 		bl	Close3077_FREQ
 279              	.LVL15:
  81:Core/Src/main.c ****   Close8825_FREQ();
 280              		.loc 1 81 3 view .LVU71
 281 003c FFF7FEFF 		bl	Close3178_FREQ
 282              	.LVL16:
  82:Core/Src/main.c ****   Close8931_FREQ();
 283              		.loc 1 82 3 view .LVU72
 284 0040 FFF7FEFF 		bl	Close8825_FREQ
 285              	.LVL17:
  83:Core/Src/main.c ****   Close8800_FREQ();
 286              		.loc 1 83 3 view .LVU73
 287 0044 FFF7FEFF 		bl	Close8931_FREQ
 288              	.LVL18:
  84:Core/Src/main.c ****   Close8801_FREQ();
 289              		.loc 1 84 3 view .LVU74
 290 0048 FFF7FEFF 		bl	Close8800_FREQ
 291              	.LVL19:
  85:Core/Src/main.c ****   Close8810_FREQ(); 
 292              		.loc 1 85 3 view .LVU75
ARM GAS  C:\Users\84759\AppData\Local\Temp\ccSniW1b.s 			page 13


 293 004c FFF7FEFF 		bl	Close8801_FREQ
 294              	.LVL20:
  86:Core/Src/main.c ****   Close8840_FREQ();
 295              		.loc 1 86 3 view .LVU76
 296 0050 FFF7FEFF 		bl	Close8810_FREQ
 297              	.LVL21:
  87:Core/Src/main.c ****   HAL_GPIO_WritePin(GPIOB, 0XFFFF, GPIO_PIN_RESET);
 298              		.loc 1 87 3 view .LVU77
 299 0054 FFF7FEFF 		bl	Close8840_FREQ
 300              	.LVL22:
  88:Core/Src/main.c ****   HAL_GPIO_WritePin(GPIOC, 0XFFFF, GPIO_PIN_RESET);
 301              		.loc 1 88 3 view .LVU78
 302 0058 0022     		movs	r2, #0
 303 005a 4FF6FF71 		movw	r1, #65535
 304 005e 1648     		ldr	r0, .L16+20
 305 0060 FFF7FEFF 		bl	HAL_GPIO_WritePin
 306              	.LVL23:
  89:Core/Src/main.c ****   uint32_t systemTick = 0;
 307              		.loc 1 89 3 view .LVU79
 308 0064 0022     		movs	r2, #0
 309 0066 4FF6FF71 		movw	r1, #65535
 310 006a 1448     		ldr	r0, .L16+24
 311 006c FFF7FEFF 		bl	HAL_GPIO_WritePin
 312              	.LVL24:
  90:Core/Src/main.c ****   
 313              		.loc 1 90 3 view .LVU80
  90:Core/Src/main.c ****   
 314              		.loc 1 90 12 is_stmt 0 view .LVU81
 315 0070 0024     		movs	r4, #0
 316 0072 02E0     		b	.L12
 317              	.LVL25:
 318              	.L13:
 109:Core/Src/main.c ****       {
 319              		.loc 1 109 7 is_stmt 1 view .LVU82
 112:Core/Src/main.c ****       systemTick = HAL_GetTick();
 320              		.loc 1 112 7 view .LVU83
 113:Core/Src/main.c ****     }
 321              		.loc 1 113 7 view .LVU84
 113:Core/Src/main.c ****     }
 322              		.loc 1 113 20 is_stmt 0 view .LVU85
 323 0074 FFF7FEFF 		bl	HAL_GetTick
 324              	.LVL26:
 325 0078 0446     		mov	r4, r0
 326              	.LVL27:
 327              	.L12:
  96:Core/Src/main.c ****   {
 328              		.loc 1 96 3 is_stmt 1 view .LVU86
 100:Core/Src/main.c ****     {
 329              		.loc 1 100 5 view .LVU87
 100:Core/Src/main.c ****     {
 330              		.loc 1 100 23 is_stmt 0 view .LVU88
 331 007a FFF7FEFF 		bl	HAL_GetTick
 332              	.LVL28:
 100:Core/Src/main.c ****     {
 333              		.loc 1 100 8 view .LVU89
 334 007e A042     		cmp	r0, r4
 335 0080 FBD0     		beq	.L12
ARM GAS  C:\Users\84759\AppData\Local\Temp\ccSniW1b.s 			page 14


 102:Core/Src/main.c ****       DeviceMassage();
 336              		.loc 1 102 7 is_stmt 1 view .LVU90
 337 0082 FFF7FEFF 		bl	CheckCommandList
 338              	.LVL29:
 103:Core/Src/main.c ****     
 339              		.loc 1 103 7 view .LVU91
 340 0086 FFF7FEFF 		bl	DeviceMassage
 341              	.LVL30:
 105:Core/Src/main.c ****       {
 342              		.loc 1 105 7 view .LVU92
 105:Core/Src/main.c ****       {
 343              		.loc 1 105 22 is_stmt 0 view .LVU93
 344 008a 0D4B     		ldr	r3, .L16+28
 345 008c A3FB0423 		umull	r2, r3, r3, r4
 346 0090 9B09     		lsrs	r3, r3, #6
 347 0092 4FF47A72 		mov	r2, #1000
 348 0096 02FB1343 		mls	r3, r2, r3, r4
 105:Core/Src/main.c ****       {
 349              		.loc 1 105 10 view .LVU94
 350 009a 002B     		cmp	r3, #0
 351 009c EAD1     		bne	.L13
 107:Core/Src/main.c ****       }
 352              		.loc 1 107 9 is_stmt 1 view .LVU95
 353 009e FFF7FEFF 		bl	LED
 354              	.LVL31:
 355 00a2 E7E7     		b	.L13
 356              	.L17:
 357              		.align	2
 358              	.L16:
 359 00a4 00000000 		.word	usbRxBuf
 360 00a8 00000000 		.word	huart1
 361 00ac 00000000 		.word	deviceRxBuf
 362 00b0 00000000 		.word	huart2
 363 00b4 00000000 		.word	.LC0
 364 00b8 00040240 		.word	1073873920
 365 00bc 00080240 		.word	1073874944
 366 00c0 D34D6210 		.word	274877907
 367              		.cfi_endproc
 368              	.LFE133:
 370              		.text
 371              	.Letext0:
 372              		.file 3 "d:\\mingw\\gcc-arm-none-eabi-10.3-2021.10-win32\\gcc-arm-none-eabi-10.3-2021.10\\arm-none
 373              		.file 4 "d:\\mingw\\gcc-arm-none-eabi-10.3-2021.10-win32\\gcc-arm-none-eabi-10.3-2021.10\\arm-none
 374              		.file 5 "Drivers/CMSIS/Device/ST/STM32F4xx/Include/stm32f407xx.h"
 375              		.file 6 "Drivers/STM32F4xx_HAL_Driver/Inc/stm32f4xx_hal_def.h"
 376              		.file 7 "Drivers/STM32F4xx_HAL_Driver/Inc/stm32f4xx_hal_rcc_ex.h"
 377              		.file 8 "Drivers/STM32F4xx_HAL_Driver/Inc/stm32f4xx_hal_rcc.h"
 378              		.file 9 "Drivers/STM32F4xx_HAL_Driver/Inc/stm32f4xx_hal_gpio.h"
 379              		.file 10 "Drivers/STM32F4xx_HAL_Driver/Inc/stm32f4xx_hal_dma.h"
 380              		.file 11 "Drivers/STM32F4xx_HAL_Driver/Inc/stm32f4xx_hal_uart.h"
 381              		.file 12 "Core/Inc/usart.h"
 382              		.file 13 "USER/Inc/command.h"
 383              		.file 14 "Drivers/STM32F4xx_HAL_Driver/Inc/stm32f4xx_hal.h"
 384              		.file 15 "Core/Inc/gpio.h"
 385              		.file 16 "Core/Inc/main.h"
 386              		.file 17 "USER/Inc/temp.h"
 387              		.file 18 "USER/Inc/manager.h"
ARM GAS  C:\Users\84759\AppData\Local\Temp\ccSniW1b.s 			page 15


 388              		.file 19 "USER/Inc/iic_soft.h"
 389              		.file 20 "USER/Inc/spi_soft.h"
 390              		.file 21 "<built-in>"
ARM GAS  C:\Users\84759\AppData\Local\Temp\ccSniW1b.s 			page 16

