ARM GAS  C:\Users\86158\AppData\Local\Temp\ccFxKACN.s 			page 1


   1              		.cpu cortex-m4
   2              		.arch armv7e-m
   3              		.fpu fpv4-sp-d16
   4              		.eabi_attribute 27, 1
   5              		.eabi_attribute 28, 1
   6              		.eabi_attribute 20, 1
   7              		.eabi_attribute 21, 1
   8              		.eabi_attribute 23, 3
   9              		.eabi_attribute 24, 1
  10              		.eabi_attribute 25, 1
  11              		.eabi_attribute 26, 1
  12              		.eabi_attribute 30, 1
  13              		.eabi_attribute 34, 1
  14              		.eabi_attribute 18, 4
  15              		.file	"command.c"
  16              		.text
  17              	.Ltext0:
  18              		.cfi_sections	.debug_frame
  19              		.section	.text.AT_WRITECONFIG_Handle,"ax",%progbits
  20              		.align	1
  21              		.global	AT_WRITECONFIG_Handle
  22              		.syntax unified
  23              		.thumb
  24              		.thumb_func
  26              	AT_WRITECONFIG_Handle:
  27              	.LVL0:
  28              	.LFB266:
  29              		.file 1 "App/Src/command.c"
   1:App/Src/command.c **** #include "command.h"
   2:App/Src/command.c **** #include "main.h"
   3:App/Src/command.c **** #include <string.h>
   4:App/Src/command.c **** #include <stdio.h>
   5:App/Src/command.c **** #include <stdarg.h>
   6:App/Src/command.c **** #include "soft_i2c.h"
   7:App/Src/command.c **** #include "current.h"
   8:App/Src/command.c **** #include "rtc.h"
   9:App/Src/command.c **** #include "task.h"
  10:App/Src/command.c **** #include "temp.h"
  11:App/Src/command.c **** #include "rtc_i2c.h"
  12:App/Src/command.c **** #include "flash.h"
  13:App/Src/command.c **** #include "voltage.h"
  14:App/Src/command.c **** #include "log.h"
  15:App/Src/command.c **** #include "manager.h"
  16:App/Src/command.c **** #include "power.h"
  17:App/Src/command.c **** #include "calculate.h"
  18:App/Src/command.c **** #include "drv_wave1006.h"
  19:App/Src/command.c **** 
  20:App/Src/command.c **** #define UART_RECEIVE_BUFF_NUMBER    200
  21:App/Src/command.c **** #define UART_TRANSMIT_BUFF_NUMBER   300
  22:App/Src/command.c **** #define USB_UART_TICK_CLEAR         100//10ms
  23:App/Src/command.c **** extern FrequencyData g_lastFreq;
  24:App/Src/command.c **** 
  25:App/Src/command.c **** extern UART_HandleTypeDef huart1;
  26:App/Src/command.c **** static uint16_t usb_Rx_Cnt = 0;		//
  27:App/Src/command.c **** static uint8_t usbRxBuf;
  28:App/Src/command.c **** uint8_t g_UsbRxBuff[UART_RECEIVE_BUFF_NUMBER] = {0};
  29:App/Src/command.c **** uint8_t g_UsbTxBuff[UART_TRANSMIT_BUFF_NUMBER] = {0};
ARM GAS  C:\Users\86158\AppData\Local\Temp\ccFxKACN.s 			page 2


  30:App/Src/command.c **** uint8_t g_UsbATStatus = 0;
  31:App/Src/command.c **** 
  32:App/Src/command.c **** extern UART_HandleTypeDef huart2;
  33:App/Src/command.c **** static uint16_t device_Rx_Cnt = 0;		//
  34:App/Src/command.c **** static uint8_t deviceRxBuf;
  35:App/Src/command.c **** uint8_t g_DeviceRxBuff[UART_RECEIVE_BUFF_NUMBER] = {0};
  36:App/Src/command.c **** uint8_t g_DeviceTxBuff[UART_TRANSMIT_BUFF_NUMBER] = {0};
  37:App/Src/command.c **** uint8_t g_DeviceATStatus = 0;
  38:App/Src/command.c **** uint8_t g_rtcChanenel = 1;
  39:App/Src/command.c **** 
  40:App/Src/command.c **** #define MAX_COMMAND_NUMBER  40
  41:App/Src/command.c **** #define MAX_COMMAND_LENGTH  20
  42:App/Src/command.c **** static char CommandList[MAX_COMMAND_NUMBER][MAX_COMMAND_LENGTH] = {
  43:App/Src/command.c **** 	"AT^HELP",
  44:App/Src/command.c **** 	"AT^VERSION?",
  45:App/Src/command.c **** 	"AT^REALTIME?", 
  46:App/Src/command.c **** 	"AT^READDATA",
  47:App/Src/command.c **** 	"AT^SETTIME",
  48:App/Src/command.c **** 	"AT^RTCCURRENT?",
  49:App/Src/command.c **** 	"AT^RTCVBAT?",
  50:App/Src/command.c **** 	"AT^RTC4096",
  51:App/Src/command.c **** 	"AT^RTCOTP",
  52:App/Src/command.c **** 	"AT^RTCADJCAP",
  53:App/Src/command.c **** 	"AT^RTCMODE",
  54:App/Src/command.c **** 	"AT^FREQTEST",
  55:App/Src/command.c **** 	"AT^READGROUP",
  56:App/Src/command.c **** 	"AT^SYSTEMP?",
  57:App/Src/command.c **** 	"AT^WRITEFLASH",
  58:App/Src/command.c **** 	"AT^READFLASH",
  59:App/Src/command.c **** 	"AT^ERASEFLASH",
  60:App/Src/command.c **** 	"AT^SETCURRENT",
  61:App/Src/command.c **** 	"AT^SYSVOLTAGE",
  62:App/Src/command.c **** 	"AT^SYSTEST",
  63:App/Src/command.c **** 	"AT^TESTMODE?",
  64:App/Src/command.c **** 	"AT^RESULT?",
  65:App/Src/command.c **** 	"AT^WRITECONFIG",
  66:App/Src/command.c **** 	"AT^TESTFLAG",
  67:App/Src/command.c **** 	"AT^TESTDATA",
  68:App/Src/command.c **** 	"AT^ATTEST",
  69:App/Src/command.c **** 	"AT^MACHINE",
  70:App/Src/command.c **** 	"AT^1006TMODE",
  71:App/Src/command.c **** 	"AT^SD8840INT",
  72:App/Src/command.c **** 	"AT^RTCLOAD",
  73:App/Src/command.c **** 	"AT^HOTVOLTAGE",
  74:App/Src/command.c **** 	"AT^TEMPADC",
  75:App/Src/command.c **** 	"AT^AECQ100",
  76:App/Src/command.c **** };
  77:App/Src/command.c **** 
  78:App/Src/command.c **** void UsbPrintf(char* fmt,...)  
  79:App/Src/command.c **** {  
  80:App/Src/command.c **** 	va_list ap;//
  81:App/Src/command.c **** 	memset(g_UsbTxBuff, 0, UART_TRANSMIT_BUFF_NUMBER);
  82:App/Src/command.c **** 	va_start(ap, fmt);//
  83:App/Src/command.c **** 	vsnprintf((char*)g_UsbTxBuff, UART_TRANSMIT_BUFF_NUMBER, fmt, ap);//
  84:App/Src/command.c **** 	va_end(ap);
  85:App/Src/command.c **** 	HAL_UART_Transmit(&huart1, g_UsbTxBuff, strlen((char*)g_UsbTxBuff), 1000);
  86:App/Src/command.c **** }
ARM GAS  C:\Users\86158\AppData\Local\Temp\ccFxKACN.s 			page 3


  87:App/Src/command.c **** 
  88:App/Src/command.c **** void DevicePrintf(char* fmt,...)  
  89:App/Src/command.c **** {  
  90:App/Src/command.c **** 	va_list ap;//
  91:App/Src/command.c **** 	memset(g_DeviceTxBuff, 0, UART_TRANSMIT_BUFF_NUMBER);
  92:App/Src/command.c **** 	va_start(ap, fmt);//
  93:App/Src/command.c **** 	vsnprintf((char*)g_DeviceTxBuff, UART_TRANSMIT_BUFF_NUMBER, fmt, ap);//
  94:App/Src/command.c **** 	va_end(ap);
  95:App/Src/command.c **** 	HAL_UART_Transmit(&huart2, g_DeviceTxBuff, strlen((char*)g_DeviceTxBuff), 1000);
  96:App/Src/command.c **** }
  97:App/Src/command.c **** 
  98:App/Src/command.c **** void UsartInit(void)
  99:App/Src/command.c **** {
 100:App/Src/command.c **** 	HAL_UART_Receive_IT(&huart1, &usbRxBuf, 1);		
 101:App/Src/command.c ****     memset(g_UsbRxBuff, 0x00, sizeof(g_UsbRxBuff));
 102:App/Src/command.c **** 	memset(g_UsbTxBuff, 0x00, sizeof(g_UsbTxBuff));
 103:App/Src/command.c **** 	HAL_UART_Receive_IT(&huart2, &deviceRxBuf, 1);		
 104:App/Src/command.c ****     memset(g_DeviceRxBuff, 0x00, sizeof(g_DeviceRxBuff));
 105:App/Src/command.c **** 	memset(g_DeviceTxBuff, 0x00, sizeof(g_DeviceTxBuff));
 106:App/Src/command.c **** 	ControlInit();
 107:App/Src/command.c **** 
 108:App/Src/command.c ****     HAL_Delay(100);
 109:App/Src/command.c ****     UsbPrintf("usb usart init success......\n");
 110:App/Src/command.c **** 	HAL_GPIO_WritePin(GPIOD, GPIO_PIN_10, GPIO_PIN_RESET); 
 111:App/Src/command.c **** 	UsbPrintf("VDD is 3.3V\n");
 112:App/Src/command.c **** 	rtc_otp_power(0);//配置dac电压
 113:App/Src/command.c **** 	if (CS1237Init()) {
 114:App/Src/command.c ****     	UsbPrintf("CS1237 init success\n");
 115:App/Src/command.c **** 	} else {
 116:App/Src/command.c ****     	UsbPrintf("CS1237 init error\n");
 117:App/Src/command.c **** 	}
 118:App/Src/command.c **** 	DevicePrintf(":FUNC \"FREQ\"\n");
 119:App/Src/command.c ****     HAL_Delay(100);
 120:App/Src/command.c **** 	DevicePrintf(":FREQ:ARM 500mS\n");
 121:App/Src/command.c ****     HAL_Delay(100);
 122:App/Src/command.c **** 	DevicePrintf(":INP:FILT 1\n");
 123:App/Src/command.c ****     HAL_Delay(100);
 124:App/Src/command.c **** 	DevicePrintf(":EVEN:LEV +1.50V\n");
 125:App/Src/command.c ****     HAL_Delay(100);
 126:App/Src/command.c **** 	DevicePrintf(":SLOP NEG\n");
 127:App/Src/command.c ****     HAL_Delay(100);
 128:App/Src/command.c **** }
 129:App/Src/command.c **** 
 130:App/Src/command.c **** int strSearch(char* source, char* target)
 131:App/Src/command.c **** {
 132:App/Src/command.c **** 	int len_source = strlen(source);
 133:App/Src/command.c **** 	int len_target = strlen(target);
 134:App/Src/command.c **** 	int i, j;
 135:App/Src/command.c **** 	if (len_source < len_target) {
 136:App/Src/command.c **** 		return -1;
 137:App/Src/command.c **** 	}		
 138:App/Src/command.c **** 	for (i = 0; i <= len_source - len_target; i++) {
 139:App/Src/command.c **** 		for (j = 0; j < len_target; j++) {
 140:App/Src/command.c **** 			if (source[i + j] != target[j]) { break;}
 141:App/Src/command.c **** 		}
 142:App/Src/command.c **** 		if (j == len_target) { return i;}
 143:App/Src/command.c **** 	}
ARM GAS  C:\Users\86158\AppData\Local\Temp\ccFxKACN.s 			page 4


 144:App/Src/command.c **** 	return -1;	
 145:App/Src/command.c **** }
 146:App/Src/command.c **** 
 147:App/Src/command.c **** 
 148:App/Src/command.c **** uint8_t CharToInt(char* source, uint8_t start, int* number)
 149:App/Src/command.c **** {
 150:App/Src/command.c **** 	uint8_t length;
 151:App/Src/command.c **** 	uint8_t i;
 152:App/Src/command.c **** 	int sum = 0;
 153:App/Src/command.c **** 	int state = 0;
 154:App/Src/command.c **** 	uint8_t hex = 0;
 155:App/Src/command.c **** 	length = strlen(source);
 156:App/Src/command.c **** 	if (start >= length) {
 157:App/Src/command.c **** 		*number = 0;
 158:App/Src/command.c **** 		return 0;
 159:App/Src/command.c **** 	}
 160:App/Src/command.c **** 	
 161:App/Src/command.c **** 	if (source[start] == '-') {
 162:App/Src/command.c **** 		state = -1;
 163:App/Src/command.c **** 		start++;
 164:App/Src/command.c **** 	} else {
 165:App/Src/command.c **** 		state = 1;
 166:App/Src/command.c **** 		if (start + 1 < length ) {
 167:App/Src/command.c **** 			if (source[start] == '0' && (source[start + 1] == 'x' ||source[start + 1] == 'X')) {
 168:App/Src/command.c **** 				start += 2;
 169:App/Src/command.c **** 				hex = 1;
 170:App/Src/command.c **** 			}
 171:App/Src/command.c **** 		}
 172:App/Src/command.c **** 	}
 173:App/Src/command.c **** 	for (i = start; i < length; i++) {
 174:App/Src/command.c **** 		if (source[i] >= '0' && source[i] <= '9') {
 175:App/Src/command.c **** 			if (hex == 1) {
 176:App/Src/command.c **** 				sum = sum * 16 + source[i] - '0';
 177:App/Src/command.c **** 			} else {
 178:App/Src/command.c **** 				sum = sum * 10 + source[i] - '0';
 179:App/Src/command.c **** 			}
 180:App/Src/command.c **** 		} else if (source[i] >= 'a' && source[i] <= 'f') {
 181:App/Src/command.c **** 			if (hex == 1) {
 182:App/Src/command.c **** 				sum = sum * 16  + source[i] - 'a' + 10;
 183:App/Src/command.c **** 			} else {
 184:App/Src/command.c **** 				*number = 0;
 185:App/Src/command.c **** 				return 0;
 186:App/Src/command.c **** 			}
 187:App/Src/command.c **** 		}else if (source[i] >= 'A' && source[i] <= 'F') {
 188:App/Src/command.c **** 			if (hex == 1) {
 189:App/Src/command.c **** 				sum = sum * 16  + source[i] - 'A' + 10;
 190:App/Src/command.c **** 			} else {
 191:App/Src/command.c **** 				*number = 0;
 192:App/Src/command.c **** 				return 0;
 193:App/Src/command.c **** 			}
 194:App/Src/command.c **** 		} else if (source[i] == ' ' || source[i] == ',') {
 195:App/Src/command.c **** 			break;
 196:App/Src/command.c **** 		}
 197:App/Src/command.c **** 	}
 198:App/Src/command.c **** 	*number = state * sum;
 199:App/Src/command.c **** 	return 1;
 200:App/Src/command.c **** }
ARM GAS  C:\Users\86158\AppData\Local\Temp\ccFxKACN.s 			page 5


 201:App/Src/command.c **** 
 202:App/Src/command.c **** uint8_t CharToFloat(char* source, uint8_t start, float* number)
 203:App/Src/command.c **** {
 204:App/Src/command.c **** 		uint8_t length;
 205:App/Src/command.c **** 		uint8_t i;
 206:App/Src/command.c **** 		float sum = 0;
 207:App/Src/command.c **** 		int state = 1;
 208:App/Src/command.c **** 		float smallNumber = 0.1;
 209:App/Src/command.c **** 		length = strlen(source);
 210:App/Src/command.c **** 		if (length <= start) {
 211:App/Src/command.c **** 				*number = 0;
 212:App/Src/command.c **** 				return 0;
 213:App/Src/command.c **** 		}
 214:App/Src/command.c **** 		
 215:App/Src/command.c **** 		if (source[start] == '-') {
 216:App/Src/command.c **** 				state = -1;
 217:App/Src/command.c **** 				start++;
 218:App/Src/command.c **** 		}
 219:App/Src/command.c **** 		for (i = start; i < length; i++){
 220:App/Src/command.c **** 				if (source[i] >= '0' && source[i] <= '9') {
 221:App/Src/command.c **** 						sum = sum * 10 + source[i] - '0';
 222:App/Src/command.c **** 				} else if (source[i] == '.') {
 223:App/Src/command.c **** 						i++;
 224:App/Src/command.c **** 						break;
 225:App/Src/command.c **** 				} else if (source[i] == ' ' || source[i] == ',') {
 226:App/Src/command.c **** 						break;
 227:App/Src/command.c **** 				}	else {
 228:App/Src/command.c **** 						*number = 0;
 229:App/Src/command.c **** 						return 0;
 230:App/Src/command.c **** 				}					
 231:App/Src/command.c **** 		}
 232:App/Src/command.c **** 		for (; i < length; i++) {
 233:App/Src/command.c **** 				if (source[i] >= '0' && source[i] <= '9') {
 234:App/Src/command.c **** 						sum += smallNumber * (source[i] - '0');
 235:App/Src/command.c **** 						smallNumber = smallNumber * 0.1;
 236:App/Src/command.c **** 				} else if (source[i] == ' ' || source[i] == ',') {
 237:App/Src/command.c **** 						break;
 238:App/Src/command.c **** 				}	else {
 239:App/Src/command.c **** 						*number = 0;
 240:App/Src/command.c **** 						return 0;
 241:App/Src/command.c **** 				}	
 242:App/Src/command.c **** 		}
 243:App/Src/command.c **** 		*number = state * sum;
 244:App/Src/command.c **** 		return 1;
 245:App/Src/command.c **** }
 246:App/Src/command.c **** 
 247:App/Src/command.c **** void  AT_HELP_Handle(char* command)
 248:App/Src/command.c **** {
 249:App/Src/command.c ****     int i = 0, number = 0;
 250:App/Src/command.c ****     command = NULL;
 251:App/Src/command.c ****     for (i = 0; i < MAX_COMMAND_NUMBER; i++) {
 252:App/Src/command.c **** 		if (strlen(CommandList[i]) > 0) {
 253:App/Src/command.c ****         	UsbPrintf("%d. %s\n", number, CommandList[i]);
 254:App/Src/command.c **** 			number++;
 255:App/Src/command.c **** 		}
 256:App/Src/command.c ****     }
 257:App/Src/command.c **** 	UsbPrintf("command number: %d\n", number);
ARM GAS  C:\Users\86158\AppData\Local\Temp\ccFxKACN.s 			page 6


 258:App/Src/command.c **** }
 259:App/Src/command.c **** 
 260:App/Src/command.c **** void AT_VERSION_Handle(char* command)
 261:App/Src/command.c **** {
 262:App/Src/command.c **** 	UsbPrintf("soft version: V1.1\n");
 263:App/Src/command.c **** 	UsbPrintf("hard version: V1.0\n");
 264:App/Src/command.c **** 	UsbPrintf("compling time: %s %s\n", __DATE__, __TIME__);
 265:App/Src/command.c **** 	UsbPrintf("\nOK\n");
 266:App/Src/command.c **** }
 267:App/Src/command.c **** 
 268:App/Src/command.c **** void  AT_REALTIME_Handle(char* command)
 269:App/Src/command.c **** {
 270:App/Src/command.c **** 	RealTime rtc = {0};
 271:App/Src/command.c **** 	system_get_real_time(&rtc);
 272:App/Src/command.c **** 	UsbPrintf("\n20%d/%d/%d %d:%d:%d\n", rtc.year, rtc.mon, rtc.day, rtc.hour, rtc.min, rtc.sec);
 273:App/Src/command.c **** }
 274:App/Src/command.c **** 
 275:App/Src/command.c **** 
 276:App/Src/command.c **** void  AT_READDATA_Handle(char* command)
 277:App/Src/command.c **** {
 278:App/Src/command.c ****     int reg, address, num = 0;
 279:App/Src/command.c **** 	uint8_t result = 0;
 280:App/Src/command.c **** 	if (CharToInt(command, 12, &address) == 1) {
 281:App/Src/command.c **** 		num = strSearch(command, ",");
 282:App/Src/command.c **** 		if (num < 0 || address < 0) { UsbPrintf("input error\n"); return; }
 283:App/Src/command.c **** 		CharToInt(command, num + 1, &reg);
 284:App/Src/command.c **** 		i2c_read_multi_bytes(address, reg, &result, 1);
 285:App/Src/command.c **** 		UsbPrintf("reg[0x%x] = 0x%x\n", reg, result);
 286:App/Src/command.c **** 	}
 287:App/Src/command.c **** }
 288:App/Src/command.c **** 
 289:App/Src/command.c **** void  AT_SETTIME_Handle(char* command)
 290:App/Src/command.c **** {
 291:App/Src/command.c **** 	RealTime rtc = {0};
 292:App/Src/command.c **** 	int num = 0;
 293:App/Src/command.c **** 	int inNumber = 0;
 294:App/Src/command.c **** 
 295:App/Src/command.c **** 	system_get_real_time(&rtc);
 296:App/Src/command.c **** 	num = strSearch(command, "year:");
 297:App/Src/command.c **** 	if (num != -1) {
 298:App/Src/command.c **** 		num += strlen("year:");
 299:App/Src/command.c **** 		if (CharToInt(command, num, &inNumber) == 0 ) {	return; }
 300:App/Src/command.c **** 		rtc.year = inNumber % 100;
 301:App/Src/command.c **** 	}
 302:App/Src/command.c **** 	num = strSearch(command, "mon:");
 303:App/Src/command.c **** 	if (num != -1) {
 304:App/Src/command.c **** 		num += strlen("mon:");
 305:App/Src/command.c **** 		if (CharToInt(command, num, &inNumber) == 0 ) {	return; }
 306:App/Src/command.c **** 		rtc.mon = inNumber % 100;
 307:App/Src/command.c **** 	}	
 308:App/Src/command.c **** 	num = strSearch(command, "day:");
 309:App/Src/command.c **** 	if (num != -1) {
 310:App/Src/command.c **** 		num += strlen("day:");
 311:App/Src/command.c **** 		if (CharToInt(command, num, &inNumber) == 0 ) {	return; }
 312:App/Src/command.c **** 		rtc.day = inNumber % 100;
 313:App/Src/command.c **** 	}	
 314:App/Src/command.c **** 	num = strSearch(command, "hour:");
ARM GAS  C:\Users\86158\AppData\Local\Temp\ccFxKACN.s 			page 7


 315:App/Src/command.c **** 	if (num != -1) {
 316:App/Src/command.c **** 		num += strlen("hour:");
 317:App/Src/command.c **** 		if (CharToInt(command, num, &inNumber) == 0 ) {	return; }
 318:App/Src/command.c **** 		rtc.hour = inNumber % 100;
 319:App/Src/command.c **** 	}	
 320:App/Src/command.c **** 	num = strSearch(command, "min:");
 321:App/Src/command.c **** 	if (num != -1) {
 322:App/Src/command.c **** 		num += strlen("min:");
 323:App/Src/command.c **** 		if (CharToInt(command, num, &inNumber) == 0 ) {	return; }
 324:App/Src/command.c **** 		rtc.min = inNumber % 100;
 325:App/Src/command.c **** 	}	
 326:App/Src/command.c **** 	num = strSearch(command, "sec:");
 327:App/Src/command.c **** 	if (num != -1) {
 328:App/Src/command.c **** 		num += strlen("sec:");
 329:App/Src/command.c **** 		if (CharToInt(command, num, &inNumber) == 0 ) {	return; }
 330:App/Src/command.c **** 		rtc.sec = inNumber % 100;
 331:App/Src/command.c **** 	}
 332:App/Src/command.c **** 	system_set_real_time(rtc);
 333:App/Src/command.c **** 	UsbPrintf("date set success!\nOK!\r\n");
 334:App/Src/command.c **** }
 335:App/Src/command.c **** 
 336:App/Src/command.c **** void  AT_RTCCURRENT_Handle(char* command)
 337:App/Src/command.c **** {
 338:App/Src/command.c **** 	float cur;
 339:App/Src/command.c **** 	command = NULL;
 340:App/Src/command.c **** 	cur = CS1237Current();
 341:App/Src/command.c **** 	UsbPrintf("rtc current = %.1f nA\nOK\n", cur);
 342:App/Src/command.c **** }
 343:App/Src/command.c **** 
 344:App/Src/command.c **** void AT_RTCVBAT_Handle(char* command)
 345:App/Src/command.c **** {
 346:App/Src/command.c **** 	int vbat;
 347:App/Src/command.c **** 	if (rtc_read_vbat(&vbat) != I2C_OK) {
 348:App/Src/command.c **** 		UsbPrintf("i2c error\n");
 349:App/Src/command.c **** 	} else {
 350:App/Src/command.c **** 		UsbPrintf("vbat = %d0mV\n", vbat);
 351:App/Src/command.c **** 	}
 352:App/Src/command.c **** }
 353:App/Src/command.c **** 
 354:App/Src/command.c **** void AT_RTC4096_Handle(char* command)
 355:App/Src/command.c **** {
 356:App/Src/command.c **** 	int inNumber;
 357:App/Src/command.c **** 	uint8_t result;
 358:App/Src/command.c **** 	if (CharToInt(command, 11, &inNumber) == 0 ) {
 359:App/Src/command.c **** 		UsbPrintf("input error\n");
 360:App/Src/command.c **** 		return;
 361:App/Src/command.c **** 	}
 362:App/Src/command.c **** 	
 363:App/Src/command.c **** 	if (inNumber > 0) {
 364:App/Src/command.c **** 		result = rtc_out_4096();
 365:App/Src/command.c **** 	} else {
 366:App/Src/command.c **** 		result = rtc_disable_int();
 367:App/Src/command.c **** 	}
 368:App/Src/command.c **** 	if (result == I2C_OK) {
 369:App/Src/command.c **** 		UsbPrintf("\nOK\n");
 370:App/Src/command.c **** 	} else {
 371:App/Src/command.c **** 		UsbPrintf("\niic error\n");
ARM GAS  C:\Users\86158\AppData\Local\Temp\ccFxKACN.s 			page 8


 372:App/Src/command.c **** 	}
 373:App/Src/command.c **** }
 374:App/Src/command.c **** 
 375:App/Src/command.c **** void AT_RTCOTP_Handle(char* command)
 376:App/Src/command.c **** {
 377:App/Src/command.c **** 
 378:App/Src/command.c **** 	int inNumber = 0;
 379:App/Src/command.c **** 	CharToInt(command, strSearch(command, "=") + 1, &inNumber);
 380:App/Src/command.c **** 	if (inNumber <= 0) {
 381:App/Src/command.c **** 		HAL_GPIO_WritePin(GPIOE, GPIO_PIN_6, GPIO_PIN_RESET); //关闭8.5v的开关
 382:App/Src/command.c **** 	} else {
 383:App/Src/command.c **** 		HAL_GPIO_WritePin(GPIOE, GPIO_PIN_6, GPIO_PIN_SET); //打开8.5v的开关
 384:App/Src/command.c **** 	}
 385:App/Src/command.c **** 	UsbPrintf("\nOK\n");
 386:App/Src/command.c **** }
 387:App/Src/command.c **** 
 388:App/Src/command.c **** void AT_RTCADJCAP_Handle(char* command)
 389:App/Src/command.c **** {
 390:App/Src/command.c **** 	// uint8_t osc_buf[2] = {0};
 391:App/Src/command.c **** 	// int high, low;
 392:App/Src/command.c **** 	// if (CharToInt(command, 13, &high) == 0 ) {
 393:App/Src/command.c **** 	// 	UsbPrintf("input error\n");
 394:App/Src/command.c **** 	// 	return;
 395:App/Src/command.c **** 	// }
 396:App/Src/command.c **** 	// CharToInt(command, strSearch(command, ",") + 1, &low);		
 397:App/Src/command.c **** 	// osc_buf[0] = low;
 398:App/Src/command.c **** 	// osc_buf[1] = high;
 399:App/Src/command.c **** 	// if (rtc_set_testcap(osc_buf) != I2C_OK) { //写ram22、ram23 
 400:App/Src/command.c **** 	// 	UsbPrintf("adjust error\n");
 401:App/Src/command.c **** 	// 	return;
 402:App/Src/command.c **** 	// }	
 403:App/Src/command.c **** 
 404:App/Src/command.c **** 	// UsbPrintf("adjust success, write cap:0x%02X, 0x%02X\n", osc_buf[1], osc_buf[0]);
 405:App/Src/command.c **** 
 406:App/Src/command.c **** 	rtc_freq_test(FREQ_TEST_STARTING);//自动调节
 407:App/Src/command.c **** }
 408:App/Src/command.c **** 
 409:App/Src/command.c **** void AT_RTCMODE_Handle(char* command)
 410:App/Src/command.c **** {
 411:App/Src/command.c **** 	static uint8_t state = 1;
 412:App/Src/command.c **** 	state++;
 413:App/Src/command.c **** 
 414:App/Src/command.c **** 	if (state % 2) {
 415:App/Src/command.c **** 		UsbPrintf("VDD is 3.3V\n");
 416:App/Src/command.c **** 		HAL_GPIO_WritePin(GPIOE, GPIO_PIN_14, GPIO_PIN_RESET); 
 417:App/Src/command.c **** 	} else {
 418:App/Src/command.c **** 		UsbPrintf("VDD is 5V\n");
 419:App/Src/command.c **** 		HAL_GPIO_WritePin(GPIOE, GPIO_PIN_14, GPIO_PIN_SET); 
 420:App/Src/command.c **** 
 421:App/Src/command.c **** 	}
 422:App/Src/command.c **** 	UsbPrintf("OK\n");
 423:App/Src/command.c **** }
 424:App/Src/command.c **** 
 425:App/Src/command.c **** void AT_FREQTEST_Handle(char* command)
 426:App/Src/command.c **** {
 427:App/Src/command.c **** 	int i;
 428:App/Src/command.c **** 	DevicePrintf(":MEAS?\n");
ARM GAS  C:\Users\86158\AppData\Local\Temp\ccFxKACN.s 			page 9


 429:App/Src/command.c **** 	for (i = 0; i < 15; i++) {
 430:App/Src/command.c **** 		HAL_Delay(100);
 431:App/Src/command.c **** 		if (strSearch((char*)g_DeviceRxBuff, "Hz") > 0) {
 432:App/Src/command.c **** 			UsbPrintf("%s\n", (char*)g_DeviceRxBuff);
 433:App/Src/command.c **** 			break;
 434:App/Src/command.c **** 		}
 435:App/Src/command.c **** 	}
 436:App/Src/command.c **** 	if (i >= 15) {
 437:App/Src/command.c **** 		UsbPrintf("device no respose!\n");
 438:App/Src/command.c **** 	}
 439:App/Src/command.c **** 
 440:App/Src/command.c **** 	UsbPrintf("OK\n");
 441:App/Src/command.c **** }
 442:App/Src/command.c **** 
 443:App/Src/command.c **** void AT_READGROUP_Handle(char* command)
 444:App/Src/command.c **** {
 445:App/Src/command.c **** 	int channel;
 446:App/Src/command.c **** 	int i;
 447:App/Src/command.c ****     int reg, num = 0;
 448:App/Src/command.c **** 	uint8_t result[8] = {0};
 449:App/Src/command.c **** 	if (CharToInt(command, 13, &channel) == 1) {
 450:App/Src/command.c **** 		num = strSearch(command, ",");
 451:App/Src/command.c **** 		if (num < 0 || channel < 0) { UsbPrintf("input error\n"); return; }
 452:App/Src/command.c **** 		CharToInt(command, num + 1, &reg);
 453:App/Src/command.c **** 		rtc_group_power(channel, POWER_I2C);
 454:App/Src/command.c **** 		rtc_set_channel(channel, RTC_INIT_1006);
 455:App/Src/command.c **** 		g_rtcChanenel = channel;
 456:App/Src/command.c **** 		HAL_Delay(10);
 457:App/Src/command.c **** 		rtc_read_multi_bytes(0x64, reg, result, 8);
 458:App/Src/command.c **** 		UsbPrintf("read group[%d] reg[0x%x]:", channel, reg);
 459:App/Src/command.c **** 		for (i = 0; i < 8; i++) {
 460:App/Src/command.c **** 			UsbPrintf("0x%02x ", result[i]);
 461:App/Src/command.c **** 		}
 462:App/Src/command.c **** 	}
 463:App/Src/command.c **** 	UsbPrintf("\nOK\n");
 464:App/Src/command.c **** 
 465:App/Src/command.c **** }
 466:App/Src/command.c **** 
 467:App/Src/command.c **** void AT_SYSTEMP_Handle(char* command)
 468:App/Src/command.c **** {
 469:App/Src/command.c **** 	float temp;
 470:App/Src/command.c **** 	temp = temp_read_value(1);
 471:App/Src/command.c **** 	UsbPrintf("\nsystem temp = %.1fC:\n", temp);
 472:App/Src/command.c **** 	UsbPrintf("\nOK\n");
 473:App/Src/command.c **** }
 474:App/Src/command.c **** 
 475:App/Src/command.c **** 
 476:App/Src/command.c **** void AT_WRITEFLASH_Handle(char* command)
 477:App/Src/command.c **** {
 478:App/Src/command.c **** 	static uint8_t number = 0;
 479:App/Src/command.c **** 	command = NULL;
 480:App/Src/command.c **** 	number++;
 481:App/Src/command.c **** 	log_printf("2023.08.07 w25q128 flash log record test %03d\n", number);
 482:App/Src/command.c **** 	UsbPrintf("write OK\n");
 483:App/Src/command.c **** }
 484:App/Src/command.c **** 
 485:App/Src/command.c **** void AT_READFLASH_Handle(char* command)
ARM GAS  C:\Users\86158\AppData\Local\Temp\ccFxKACN.s 			page 10


 486:App/Src/command.c **** {
 487:App/Src/command.c **** 	int address;
 488:App/Src/command.c **** 	uint8_t str[256] = {0};
 489:App/Src/command.c **** 	int result;
 490:App/Src/command.c ****     int i;
 491:App/Src/command.c **** 	uint32_t pageCount;
 492:App/Src/command.c **** 
 493:App/Src/command.c **** 	if (strSearch(command, "=") > 0) {
 494:App/Src/command.c **** 		CharToInt(command, 13, &address);
 495:App/Src/command.c **** 		result = flash_read_data(address, str, 256);
 496:App/Src/command.c **** 		if (result == 1) {
 497:App/Src/command.c **** 			UsbPrintf("flash address[0x%x] print:\n%s\n", address, (char*)str);
 498:App/Src/command.c **** 		} else {
 499:App/Src/command.c **** 			UsbPrintf("read error %d\n", result);
 500:App/Src/command.c **** 		}
 501:App/Src/command.c **** 	} else {
 502:App/Src/command.c **** 		pageCount = get_log_record_pages();
 503:App/Src/command.c **** 		UsbPrintf("log use pages %d/%d:\n", pageCount, LOG_MAX_PAGE);
 504:App/Src/command.c **** 		for (i = 0; i < pageCount; i++) {
 505:App/Src/command.c **** 			flash_read_data(LOG_START_ADDR + i * PAGE_SIZE, str, PAGE_SIZE);
 506:App/Src/command.c **** 			UsbPrintf("%s\n", (char*)str);
 507:App/Src/command.c **** 		}
 508:App/Src/command.c **** 		UsbPrintf("all log print success\n"); 
 509:App/Src/command.c **** 	} 
 510:App/Src/command.c **** }
 511:App/Src/command.c **** void AT_ERASEFLASH_Handle(char* command)
 512:App/Src/command.c **** {
 513:App/Src/command.c **** 	int mode, address;
 514:App/Src/command.c **** 	int i = 0;
 515:App/Src/command.c **** 	if (CharToInt(command, 14, &mode) == 1) {
 516:App/Src/command.c **** 		CharToInt(command, strSearch(command, ",") + 1, &address);
 517:App/Src/command.c **** 		if (mode >= 0 && mode <= 2) {
 518:App/Src/command.c **** 			flash_erase(address, mode);
 519:App/Src/command.c **** 			UsbPrintf("earse full chip need 40s ~ 200s\n");
 520:App/Src/command.c **** 			if (mode == 0) { 
 521:App/Src/command.c **** 				for (i = 0; i < 100; i++) {
 522:App/Src/command.c **** 					HAL_Delay(2000);
 523:App/Src/command.c **** 					UsbPrintf("wait for %ds...\n", (i + 1) * 2);
 524:App/Src/command.c **** 					if (CheckBusy() == 1) {
 525:App/Src/command.c **** 						break;
 526:App/Src/command.c **** 					}
 527:App/Src/command.c **** 				}
 528:App/Src/command.c **** 				log_list_init(); 
 529:App/Src/command.c **** 			}
 530:App/Src/command.c **** 			UsbPrintf("OK\n");
 531:App/Src/command.c **** 		}
 532:App/Src/command.c **** 	} else {
 533:App/Src/command.c **** 		UsbPrintf("input error!\n");
 534:App/Src/command.c **** 	} 
 535:App/Src/command.c **** }
 536:App/Src/command.c **** 
 537:App/Src/command.c **** void AT_SETCURRENT_Handle(char* command)
 538:App/Src/command.c **** {
 539:App/Src/command.c **** 	int mode, number;
 540:App/Src/command.c **** 	if (CharToInt(command, 14, &mode) == 1) {
 541:App/Src/command.c **** 		CharToInt(command, strSearch(command, ",") + 1, &number);
 542:App/Src/command.c **** 		if (mode == 0) {
ARM GAS  C:\Users\86158\AppData\Local\Temp\ccFxKACN.s 			page 11


 543:App/Src/command.c **** 			rtc_group_power(number, POWER_OFF);
 544:App/Src/command.c **** 		} else if (mode == 1) {
 545:App/Src/command.c **** 			HAL_Delay(5);
 546:App/Src/command.c **** 			rtc_group_power(number, POWER_VDD_I);
 547:App/Src/command.c **** 		} else if (mode == 2) {
 548:App/Src/command.c **** 			HAL_Delay(5);
 549:App/Src/command.c **** 			rtc_group_power(number, POWER_BAT_I);
 550:App/Src/command.c **** 		}
 551:App/Src/command.c **** 		UsbPrintf("current setting :mode %d, channel %d \nOK!\n", mode, number);
 552:App/Src/command.c **** 	} else {
 553:App/Src/command.c **** 		UsbPrintf("input error!\n");
 554:App/Src/command.c **** 	} 
 555:App/Src/command.c **** }
 556:App/Src/command.c **** void AT_SYSVOLTAGE_Handle(char* command)
 557:App/Src/command.c **** {
 558:App/Src/command.c **** 	uint32_t voltage;
 559:App/Src/command.c **** 	voltage = ststem_voltage(0) * 3300 * 4.6 / 4096;
 560:App/Src/command.c **** 	UsbPrintf("\n3.3V\t: %dmV\n", voltage);
 561:App/Src/command.c **** 	voltage = ststem_voltage(1) * 3300 * 4.6 / 4096;
 562:App/Src/command.c **** 	UsbPrintf("VCE\t: %dmV\n", voltage);
 563:App/Src/command.c **** 	voltage = ststem_voltage(8) * 3300 * 4.6 / 4096;
 564:App/Src/command.c **** 	UsbPrintf("5V\t: %dmV\n", voltage);
 565:App/Src/command.c **** 	voltage = ststem_voltage(9) * 3300 * 4.6 / 4096;
 566:App/Src/command.c **** 	UsbPrintf("9V\t: %dmV\n", voltage);
 567:App/Src/command.c **** 	UsbPrintf("OK\n");
 568:App/Src/command.c **** }
 569:App/Src/command.c **** 
 570:App/Src/command.c **** void AT_SYSTEST_Handle(char* command)
 571:App/Src/command.c **** {
 572:App/Src/command.c **** 	int number;
 573:App/Src/command.c **** 	if (CharToInt(command, 11, &number) == 1) {
 574:App/Src/command.c **** 		if (number < FREE_MODE || number > MACHINE_WRITE) {
 575:App/Src/command.c **** 			UsbPrintf("no this test mode!\n");
 576:App/Src/command.c **** 			return;
 577:App/Src/command.c **** 		}
 578:App/Src/command.c **** 		manager_set_mode(number);
 579:App/Src/command.c **** 	}
 580:App/Src/command.c **** 	UsbPrintf("\nOK\n");
 581:App/Src/command.c **** }
 582:App/Src/command.c **** 
 583:App/Src/command.c **** void AT_TESTMODE_Handle(char* command)//取料机查询状态
 584:App/Src/command.c **** {
 585:App/Src/command.c **** 	DevicePrintf("mode:0\n");
 586:App/Src/command.c **** 	UsbPrintf("mode:0\n");
 587:App/Src/command.c **** }
 588:App/Src/command.c **** 
 589:App/Src/command.c **** 
 590:App/Src/command.c **** void AT_RESULT_Handle(char* command)//取料机查询信息
 591:App/Src/command.c **** {
 592:App/Src/command.c **** 	uint8_t g_result[MAX_CHIP_NUMBER] = {
 593:App/Src/command.c **** 	1, 1, 1, 1, 1, 1, 1, 1, 1, 1, 1, 1, 1, 1, 1, 1, 1, 1, 1, 1,
 594:App/Src/command.c **** 	1, 1, 1, 1, 1, 1, 1, 1, 1, 1, 1, 1, 1, 1, 1, 1, 1, 1, 1, 1,
 595:App/Src/command.c **** 	1, 1, 1, 1, 1, 1, 1, 1, 1, 1, 1, 1, 1, 1, 1, 1, 1, 1, 1, 1,
 596:App/Src/command.c **** 	1, 1, 1, 1, 1, 1, 1, 1, 1, 1, 1, 1, 1, 1, 1, 1, 1, 1, 1, 1,
 597:App/Src/command.c **** 	1, 1, 1, 1, 1, 1, 1, 1, 1, 1, 1, 1, 1, 1, 1, 1, 1, 1, 1, 1,
 598:App/Src/command.c **** 	};
 599:App/Src/command.c **** 	uint8_t input[MAX_CHIP_NUMBER] = {5};
ARM GAS  C:\Users\86158\AppData\Local\Temp\ccFxKACN.s 			page 12


 600:App/Src/command.c **** 	int i, j;
 601:App/Src/command.c **** 	uint8_t all = 0, ok = 0, ng = 0;
 602:App/Src/command.c **** 	uint8_t length;
 603:App/Src/command.c **** 	uint8_t getNumber = 0;
 604:App/Src/command.c **** 
 605:App/Src/command.c **** 
 606:App/Src/command.c **** 	if (strSearch((char*)g_DeviceRxBuff, "AT^RESULT?") == 0 || strSearch((char*)g_UsbRxBuff, "AT^RESUL
 607:App/Src/command.c **** 		for (i = 0; i < MAX_CHIP_NUMBER; i++) {
 608:App/Src/command.c **** 			if (g_result[i] < 2) {
 609:App/Src/command.c **** 				all++;
 610:App/Src/command.c **** 				if (g_result[i] == 0) {
 611:App/Src/command.c **** 					ng++;
 612:App/Src/command.c **** 				} else {
 613:App/Src/command.c **** 					ok++;
 614:App/Src/command.c **** 				}
 615:App/Src/command.c **** 			}
 616:App/Src/command.c **** 		}
 617:App/Src/command.c **** 		UsbPrintf("all:%d,ok:%d,ng:%d\n", all, ok, ng);
 618:App/Src/command.c **** 		DevicePrintf("all:%d,ok:%d,ng:%d", all, ok, ng);
 619:App/Src/command.c **** 		for(i = 0; i < MAX_CHIP_NUMBER; i++) {
 620:App/Src/command.c **** 			if (i % 10 == 0) {
 621:App/Src/command.c **** 				if (i > 0) {
 622:App/Src/command.c **** 					UsbPrintf("]\n");
 623:App/Src/command.c **** 					DevicePrintf("]");//\n是通信结束符
 624:App/Src/command.c **** 				}
 625:App/Src/command.c **** 				UsbPrintf("[");
 626:App/Src/command.c **** 				DevicePrintf("[");
 627:App/Src/command.c **** 			}
 628:App/Src/command.c **** 			UsbPrintf("%c", g_result[i] + '0');
 629:App/Src/command.c **** 			DevicePrintf("%c", g_result[i] + '0');
 630:App/Src/command.c **** 		}
 631:App/Src/command.c **** 		UsbPrintf("]\n");
 632:App/Src/command.c **** 		DevicePrintf("]\n");
 633:App/Src/command.c **** 	} else {
 634:App/Src/command.c **** 		length = strlen((char*)g_DeviceRxBuff);
 635:App/Src/command.c **** 		getNumber = 0;
 636:App/Src/command.c **** 		for (i = 0; i < length; i++) {
 637:App/Src/command.c **** 			if (g_DeviceRxBuff[i] == '[') {
 638:App/Src/command.c **** 				for (j = i; j < length; j++) {
 639:App/Src/command.c **** 					if (g_DeviceRxBuff[j] == '0' || g_DeviceRxBuff[j] == '1' || g_DeviceRxBuff[j] == 'N') {
 640:App/Src/command.c **** 						if (getNumber == MAX_CHIP_NUMBER) {//数量超范围了，肯定是错误数据	
 641:App/Src/command.c **** 							DevicePrintf("ERROR\n");
 642:App/Src/command.c **** 							return; 
 643:App/Src/command.c **** 						}
 644:App/Src/command.c **** 						input[getNumber] = g_DeviceRxBuff[j] - '0';
 645:App/Src/command.c **** 						getNumber++;
 646:App/Src/command.c **** 					} else if (g_DeviceRxBuff[j] == ']') {
 647:App/Src/command.c **** 						i = j;
 648:App/Src/command.c **** 						break;
 649:App/Src/command.c **** 					} else if (g_DeviceRxBuff[j] == '[') {
 650:App/Src/command.c **** 						continue;
 651:App/Src/command.c **** 					} else {//遇到异常字符
 652:App/Src/command.c **** 						DevicePrintf("ERROR\n");
 653:App/Src/command.c **** 						return; 
 654:App/Src/command.c **** 					}
 655:App/Src/command.c **** 				}
 656:App/Src/command.c **** 			}
ARM GAS  C:\Users\86158\AppData\Local\Temp\ccFxKACN.s 			page 13


 657:App/Src/command.c **** 			if (getNumber == MAX_CHIP_NUMBER) {	break; }
 658:App/Src/command.c **** 		}
 659:App/Src/command.c **** 		for (i = 0; i < MAX_CHIP_NUMBER; i++) {
 660:App/Src/command.c **** 			if (input[i] != g_result[i]) {
 661:App/Src/command.c **** 				DevicePrintf("ERROR\n");
 662:App/Src/command.c **** 				return; 
 663:App/Src/command.c **** 			}
 664:App/Src/command.c **** 		}
 665:App/Src/command.c **** 		DevicePrintf("OK\n");
 666:App/Src/command.c **** 	}
 667:App/Src/command.c **** }
 668:App/Src/command.c **** 
 669:App/Src/command.c **** 
 670:App/Src/command.c **** void AT_WRITECONFIG_Handle(char* command)//暂时调试使用20231109
 671:App/Src/command.c **** {
  30              		.loc 1 671 1 view -0
  31              		.cfi_startproc
  32              		@ args = 0, pretend = 0, frame = 0
  33              		@ frame_needed = 0, uses_anonymous_args = 0
  34              		@ link register save eliminated.
 672:App/Src/command.c **** 	// uint8_t i2c;
 673:App/Src/command.c **** 	// uint8_t buffer = 0x66;
 674:App/Src/command.c **** 	// rtc_group_power(1, POWER_DOWNLOAD);
 675:App/Src/command.c **** 	// HAL_Delay(100);
 676:App/Src/command.c **** 	// i2c = rtc_download_otp_data(&buffer, 0x82, 1);
 677:App/Src/command.c **** 	// // i2c = rtc_write_otp_config();
 678:App/Src/command.c **** 	// if (i2c == I2C_OK) {
 679:App/Src/command.c **** 	// 	UsbPrintf("OK\n");
 680:App/Src/command.c **** 	// } else {
 681:App/Src/command.c **** 	// 	UsbPrintf("i2c error\n");
 682:App/Src/command.c **** 	// }
 683:App/Src/command.c **** }
  35              		.loc 1 683 1 view .LVU1
  36 0000 7047     		bx	lr
  37              		.cfi_endproc
  38              	.LFE266:
  40              		.section	.text.AT_RTCADJCAP_Handle,"ax",%progbits
  41              		.align	1
  42              		.global	AT_RTCADJCAP_Handle
  43              		.syntax unified
  44              		.thumb
  45              		.thumb_func
  47              	AT_RTCADJCAP_Handle:
  48              	.LVL1:
  49              	.LFB253:
 389:App/Src/command.c **** 	// uint8_t osc_buf[2] = {0};
  50              		.loc 1 389 1 view -0
  51              		.cfi_startproc
  52              		@ args = 0, pretend = 0, frame = 0
  53              		@ frame_needed = 0, uses_anonymous_args = 0
 389:App/Src/command.c **** 	// uint8_t osc_buf[2] = {0};
  54              		.loc 1 389 1 is_stmt 0 view .LVU3
  55 0000 08B5     		push	{r3, lr}
  56              	.LCFI0:
  57              		.cfi_def_cfa_offset 8
  58              		.cfi_offset 3, -8
  59              		.cfi_offset 14, -4
ARM GAS  C:\Users\86158\AppData\Local\Temp\ccFxKACN.s 			page 14


 406:App/Src/command.c **** }
  60              		.loc 1 406 2 is_stmt 1 view .LVU4
  61 0002 0120     		movs	r0, #1
  62              	.LVL2:
 406:App/Src/command.c **** }
  63              		.loc 1 406 2 is_stmt 0 view .LVU5
  64 0004 FFF7FEFF 		bl	rtc_freq_test
  65              	.LVL3:
 407:App/Src/command.c **** 
  66              		.loc 1 407 1 view .LVU6
  67 0008 08BD     		pop	{r3, pc}
  68              		.cfi_endproc
  69              	.LFE253:
  71              		.section	.text.UsbPrintf,"ax",%progbits
  72              		.align	1
  73              		.global	UsbPrintf
  74              		.syntax unified
  75              		.thumb
  76              		.thumb_func
  78              	UsbPrintf:
  79              	.LVL4:
  80              	.LFB238:
  79:App/Src/command.c **** 	va_list ap;//
  81              		.loc 1 79 1 is_stmt 1 view -0
  82              		.cfi_startproc
  83              		@ args = 4, pretend = 16, frame = 8
  84              		@ frame_needed = 0, uses_anonymous_args = 1
  79:App/Src/command.c **** 	va_list ap;//
  85              		.loc 1 79 1 is_stmt 0 view .LVU8
  86 0000 0FB4     		push	{r0, r1, r2, r3}
  87              	.LCFI1:
  88              		.cfi_def_cfa_offset 16
  89              		.cfi_offset 0, -16
  90              		.cfi_offset 1, -12
  91              		.cfi_offset 2, -8
  92              		.cfi_offset 3, -4
  93 0002 F0B5     		push	{r4, r5, r6, r7, lr}
  94              	.LCFI2:
  95              		.cfi_def_cfa_offset 36
  96              		.cfi_offset 4, -36
  97              		.cfi_offset 5, -32
  98              		.cfi_offset 6, -28
  99              		.cfi_offset 7, -24
 100              		.cfi_offset 14, -20
 101 0004 83B0     		sub	sp, sp, #12
 102              	.LCFI3:
 103              		.cfi_def_cfa_offset 48
 104 0006 08AD     		add	r5, sp, #32
 105 0008 55F8047B 		ldr	r7, [r5], #4
  80:App/Src/command.c **** 	memset(g_UsbTxBuff, 0, UART_TRANSMIT_BUFF_NUMBER);
 106              		.loc 1 80 2 is_stmt 1 view .LVU9
  81:App/Src/command.c **** 	va_start(ap, fmt);//
 107              		.loc 1 81 2 view .LVU10
 108 000c 0E4C     		ldr	r4, .L6
 109 000e 4FF49676 		mov	r6, #300
 110 0012 3246     		mov	r2, r6
 111 0014 0021     		movs	r1, #0
ARM GAS  C:\Users\86158\AppData\Local\Temp\ccFxKACN.s 			page 15


 112 0016 2046     		mov	r0, r4
 113 0018 FFF7FEFF 		bl	memset
 114              	.LVL5:
  82:App/Src/command.c **** 	vsnprintf((char*)g_UsbTxBuff, UART_TRANSMIT_BUFF_NUMBER, fmt, ap);//
 115              		.loc 1 82 2 view .LVU11
 116 001c 0195     		str	r5, [sp, #4]
  83:App/Src/command.c **** 	va_end(ap);
 117              		.loc 1 83 2 view .LVU12
 118 001e 2B46     		mov	r3, r5
 119 0020 3A46     		mov	r2, r7
 120 0022 3146     		mov	r1, r6
 121 0024 2046     		mov	r0, r4
 122 0026 FFF7FEFF 		bl	vsnprintf
 123              	.LVL6:
  84:App/Src/command.c **** 	HAL_UART_Transmit(&huart1, g_UsbTxBuff, strlen((char*)g_UsbTxBuff), 1000);
 124              		.loc 1 84 2 view .LVU13
  85:App/Src/command.c **** }
 125              		.loc 1 85 2 view .LVU14
  85:App/Src/command.c **** }
 126              		.loc 1 85 42 is_stmt 0 view .LVU15
 127 002a 2046     		mov	r0, r4
 128 002c FFF7FEFF 		bl	strlen
 129              	.LVL7:
  85:App/Src/command.c **** }
 130              		.loc 1 85 2 view .LVU16
 131 0030 4FF47A73 		mov	r3, #1000
 132 0034 82B2     		uxth	r2, r0
 133 0036 2146     		mov	r1, r4
 134 0038 0448     		ldr	r0, .L6+4
 135 003a FFF7FEFF 		bl	HAL_UART_Transmit
 136              	.LVL8:
  86:App/Src/command.c **** 
 137              		.loc 1 86 1 view .LVU17
 138 003e 03B0     		add	sp, sp, #12
 139              	.LCFI4:
 140              		.cfi_def_cfa_offset 36
 141              		@ sp needed
 142 0040 BDE8F040 		pop	{r4, r5, r6, r7, lr}
 143              	.LCFI5:
 144              		.cfi_restore 14
 145              		.cfi_restore 7
 146              		.cfi_restore 6
 147              		.cfi_restore 5
 148              		.cfi_restore 4
 149              		.cfi_def_cfa_offset 16
 150 0044 04B0     		add	sp, sp, #16
 151              	.LCFI6:
 152              		.cfi_restore 3
 153              		.cfi_restore 2
 154              		.cfi_restore 1
 155              		.cfi_restore 0
 156              		.cfi_def_cfa_offset 0
 157 0046 7047     		bx	lr
 158              	.L7:
 159              		.align	2
 160              	.L6:
 161 0048 00000000 		.word	.LANCHOR0
ARM GAS  C:\Users\86158\AppData\Local\Temp\ccFxKACN.s 			page 16


 162 004c 00000000 		.word	huart1
 163              		.cfi_endproc
 164              	.LFE238:
 166              		.section	.rodata.AT_HELP_Handle.str1.4,"aMS",%progbits,1
 167              		.align	2
 168              	.LC0:
 169 0000 25642E20 		.ascii	"%d. %s\012\000"
 169      25730A00 
 170              		.align	2
 171              	.LC1:
 172 0008 636F6D6D 		.ascii	"command number: %d\012\000"
 172      616E6420 
 172      6E756D62 
 172      65723A20 
 172      25640A00 
 173              		.section	.text.AT_HELP_Handle,"ax",%progbits
 174              		.align	1
 175              		.global	AT_HELP_Handle
 176              		.syntax unified
 177              		.thumb
 178              		.thumb_func
 180              	AT_HELP_Handle:
 181              	.LVL9:
 182              	.LFB244:
 248:App/Src/command.c ****     int i = 0, number = 0;
 183              		.loc 1 248 1 is_stmt 1 view -0
 184              		.cfi_startproc
 185              		@ args = 0, pretend = 0, frame = 0
 186              		@ frame_needed = 0, uses_anonymous_args = 0
 248:App/Src/command.c ****     int i = 0, number = 0;
 187              		.loc 1 248 1 is_stmt 0 view .LVU19
 188 0000 38B5     		push	{r3, r4, r5, lr}
 189              	.LCFI7:
 190              		.cfi_def_cfa_offset 16
 191              		.cfi_offset 3, -16
 192              		.cfi_offset 4, -12
 193              		.cfi_offset 5, -8
 194              		.cfi_offset 14, -4
 249:App/Src/command.c ****     command = NULL;
 195              		.loc 1 249 5 is_stmt 1 view .LVU20
 196              	.LVL10:
 250:App/Src/command.c ****     for (i = 0; i < MAX_COMMAND_NUMBER; i++) {
 197              		.loc 1 250 5 view .LVU21
 251:App/Src/command.c **** 		if (strlen(CommandList[i]) > 0) {
 198              		.loc 1 251 5 view .LVU22
 249:App/Src/command.c ****     command = NULL;
 199              		.loc 1 249 16 is_stmt 0 view .LVU23
 200 0002 0025     		movs	r5, #0
 251:App/Src/command.c **** 		if (strlen(CommandList[i]) > 0) {
 201              		.loc 1 251 12 view .LVU24
 202 0004 2C46     		mov	r4, r5
 251:App/Src/command.c **** 		if (strlen(CommandList[i]) > 0) {
 203              		.loc 1 251 5 view .LVU25
 204 0006 00E0     		b	.L9
 205              	.LVL11:
 206              	.L10:
 251:App/Src/command.c **** 		if (strlen(CommandList[i]) > 0) {
ARM GAS  C:\Users\86158\AppData\Local\Temp\ccFxKACN.s 			page 17


 207              		.loc 1 251 41 is_stmt 1 discriminator 2 view .LVU26
 251:App/Src/command.c **** 		if (strlen(CommandList[i]) > 0) {
 208              		.loc 1 251 42 is_stmt 0 discriminator 2 view .LVU27
 209 0008 0134     		adds	r4, r4, #1
 210              	.LVL12:
 211              	.L9:
 251:App/Src/command.c **** 		if (strlen(CommandList[i]) > 0) {
 212              		.loc 1 251 17 is_stmt 1 discriminator 1 view .LVU28
 251:App/Src/command.c **** 		if (strlen(CommandList[i]) > 0) {
 213              		.loc 1 251 5 is_stmt 0 discriminator 1 view .LVU29
 214 000a 272C     		cmp	r4, #39
 215 000c 0DDC     		bgt	.L13
 252:App/Src/command.c ****         	UsbPrintf("%d. %s\n", number, CommandList[i]);
 216              		.loc 1 252 3 is_stmt 1 view .LVU30
 252:App/Src/command.c ****         	UsbPrintf("%d. %s\n", number, CommandList[i]);
 217              		.loc 1 252 25 is_stmt 0 view .LVU31
 218 000e 0949     		ldr	r1, .L14
 219 0010 04EB8402 		add	r2, r4, r4, lsl #2
 220 0014 9300     		lsls	r3, r2, #2
 221 0016 CA18     		adds	r2, r1, r3
 252:App/Src/command.c ****         	UsbPrintf("%d. %s\n", number, CommandList[i]);
 222              		.loc 1 252 30 view .LVU32
 223 0018 CB5C     		ldrb	r3, [r1, r3]	@ zero_extendqisi2
 252:App/Src/command.c ****         	UsbPrintf("%d. %s\n", number, CommandList[i]);
 224              		.loc 1 252 6 view .LVU33
 225 001a 002B     		cmp	r3, #0
 226 001c F4D0     		beq	.L10
 253:App/Src/command.c **** 			number++;
 227              		.loc 1 253 10 is_stmt 1 view .LVU34
 228 001e 2946     		mov	r1, r5
 229 0020 0548     		ldr	r0, .L14+4
 230 0022 FFF7FEFF 		bl	UsbPrintf
 231              	.LVL13:
 254:App/Src/command.c **** 		}
 232              		.loc 1 254 4 view .LVU35
 254:App/Src/command.c **** 		}
 233              		.loc 1 254 10 is_stmt 0 view .LVU36
 234 0026 0135     		adds	r5, r5, #1
 235              	.LVL14:
 254:App/Src/command.c **** 		}
 236              		.loc 1 254 10 view .LVU37
 237 0028 EEE7     		b	.L10
 238              	.L13:
 257:App/Src/command.c **** }
 239              		.loc 1 257 2 is_stmt 1 view .LVU38
 240 002a 2946     		mov	r1, r5
 241 002c 0348     		ldr	r0, .L14+8
 242 002e FFF7FEFF 		bl	UsbPrintf
 243              	.LVL15:
 258:App/Src/command.c **** 
 244              		.loc 1 258 1 is_stmt 0 view .LVU39
 245 0032 38BD     		pop	{r3, r4, r5, pc}
 246              	.LVL16:
 247              	.L15:
 258:App/Src/command.c **** 
 248              		.loc 1 258 1 view .LVU40
 249              		.align	2
ARM GAS  C:\Users\86158\AppData\Local\Temp\ccFxKACN.s 			page 18


 250              	.L14:
 251 0034 00000000 		.word	.LANCHOR1
 252 0038 00000000 		.word	.LC0
 253 003c 08000000 		.word	.LC1
 254              		.cfi_endproc
 255              	.LFE244:
 257              		.section	.rodata.AT_VERSION_Handle.str1.4,"aMS",%progbits,1
 258              		.align	2
 259              	.LC2:
 260 0000 736F6674 		.ascii	"soft version: V1.1\012\000"
 260      20766572 
 260      73696F6E 
 260      3A205631 
 260      2E310A00 
 261              		.align	2
 262              	.LC3:
 263 0014 68617264 		.ascii	"hard version: V1.0\012\000"
 263      20766572 
 263      73696F6E 
 263      3A205631 
 263      2E300A00 
 264              		.align	2
 265              	.LC4:
 266 0028 32303A35 		.ascii	"20:51:46\000"
 266      313A3436 
 266      00
 267 0031 000000   		.align	2
 268              	.LC5:
 269 0034 4A756C20 		.ascii	"Jul  2 2024\000"
 269      20322032 
 269      30323400 
 270              		.align	2
 271              	.LC6:
 272 0040 636F6D70 		.ascii	"compling time: %s %s\012\000"
 272      6C696E67 
 272      2074696D 
 272      653A2025 
 272      73202573 
 273 0056 0000     		.align	2
 274              	.LC7:
 275 0058 0A4F4B0A 		.ascii	"\012OK\012\000"
 275      00
 276              		.section	.text.AT_VERSION_Handle,"ax",%progbits
 277              		.align	1
 278              		.global	AT_VERSION_Handle
 279              		.syntax unified
 280              		.thumb
 281              		.thumb_func
 283              	AT_VERSION_Handle:
 284              	.LVL17:
 285              	.LFB245:
 261:App/Src/command.c **** 	UsbPrintf("soft version: V1.1\n");
 286              		.loc 1 261 1 is_stmt 1 view -0
 287              		.cfi_startproc
 288              		@ args = 0, pretend = 0, frame = 0
 289              		@ frame_needed = 0, uses_anonymous_args = 0
 261:App/Src/command.c **** 	UsbPrintf("soft version: V1.1\n");
ARM GAS  C:\Users\86158\AppData\Local\Temp\ccFxKACN.s 			page 19


 290              		.loc 1 261 1 is_stmt 0 view .LVU42
 291 0000 08B5     		push	{r3, lr}
 292              	.LCFI8:
 293              		.cfi_def_cfa_offset 8
 294              		.cfi_offset 3, -8
 295              		.cfi_offset 14, -4
 262:App/Src/command.c **** 	UsbPrintf("hard version: V1.0\n");
 296              		.loc 1 262 2 is_stmt 1 view .LVU43
 297 0002 0748     		ldr	r0, .L18
 298              	.LVL18:
 262:App/Src/command.c **** 	UsbPrintf("hard version: V1.0\n");
 299              		.loc 1 262 2 is_stmt 0 view .LVU44
 300 0004 FFF7FEFF 		bl	UsbPrintf
 301              	.LVL19:
 263:App/Src/command.c **** 	UsbPrintf("compling time: %s %s\n", __DATE__, __TIME__);
 302              		.loc 1 263 2 is_stmt 1 view .LVU45
 303 0008 0648     		ldr	r0, .L18+4
 304 000a FFF7FEFF 		bl	UsbPrintf
 305              	.LVL20:
 264:App/Src/command.c **** 	UsbPrintf("\nOK\n");
 306              		.loc 1 264 2 view .LVU46
 307 000e 064A     		ldr	r2, .L18+8
 308 0010 0649     		ldr	r1, .L18+12
 309 0012 0748     		ldr	r0, .L18+16
 310 0014 FFF7FEFF 		bl	UsbPrintf
 311              	.LVL21:
 265:App/Src/command.c **** }
 312              		.loc 1 265 2 view .LVU47
 313 0018 0648     		ldr	r0, .L18+20
 314 001a FFF7FEFF 		bl	UsbPrintf
 315              	.LVL22:
 266:App/Src/command.c **** 
 316              		.loc 1 266 1 is_stmt 0 view .LVU48
 317 001e 08BD     		pop	{r3, pc}
 318              	.L19:
 319              		.align	2
 320              	.L18:
 321 0020 00000000 		.word	.LC2
 322 0024 14000000 		.word	.LC3
 323 0028 28000000 		.word	.LC4
 324 002c 34000000 		.word	.LC5
 325 0030 40000000 		.word	.LC6
 326 0034 58000000 		.word	.LC7
 327              		.cfi_endproc
 328              	.LFE245:
 330              		.section	.rodata.AT_REALTIME_Handle.str1.4,"aMS",%progbits,1
 331              		.align	2
 332              	.LC8:
 333 0000 0A323025 		.ascii	"\01220%d/%d/%d %d:%d:%d\012\000"
 333      642F2564 
 333      2F256420 
 333      25643A25 
 333      643A2564 
 334              		.section	.text.AT_REALTIME_Handle,"ax",%progbits
 335              		.align	1
 336              		.global	AT_REALTIME_Handle
 337              		.syntax unified
ARM GAS  C:\Users\86158\AppData\Local\Temp\ccFxKACN.s 			page 20


 338              		.thumb
 339              		.thumb_func
 341              	AT_REALTIME_Handle:
 342              	.LVL23:
 343              	.LFB246:
 269:App/Src/command.c **** 	RealTime rtc = {0};
 344              		.loc 1 269 1 is_stmt 1 view -0
 345              		.cfi_startproc
 346              		@ args = 0, pretend = 0, frame = 8
 347              		@ frame_needed = 0, uses_anonymous_args = 0
 269:App/Src/command.c **** 	RealTime rtc = {0};
 348              		.loc 1 269 1 is_stmt 0 view .LVU50
 349 0000 00B5     		push	{lr}
 350              	.LCFI9:
 351              		.cfi_def_cfa_offset 4
 352              		.cfi_offset 14, -4
 353 0002 87B0     		sub	sp, sp, #28
 354              	.LCFI10:
 355              		.cfi_def_cfa_offset 32
 270:App/Src/command.c **** 	system_get_real_time(&rtc);
 356              		.loc 1 270 2 is_stmt 1 view .LVU51
 270:App/Src/command.c **** 	system_get_real_time(&rtc);
 357              		.loc 1 270 11 is_stmt 0 view .LVU52
 358 0004 0023     		movs	r3, #0
 359 0006 0493     		str	r3, [sp, #16]
 360 0008 0593     		str	r3, [sp, #20]
 271:App/Src/command.c **** 	UsbPrintf("\n20%d/%d/%d %d:%d:%d\n", rtc.year, rtc.mon, rtc.day, rtc.hour, rtc.min, rtc.sec);
 361              		.loc 1 271 2 is_stmt 1 view .LVU53
 362 000a 04A8     		add	r0, sp, #16
 363              	.LVL24:
 271:App/Src/command.c **** 	UsbPrintf("\n20%d/%d/%d %d:%d:%d\n", rtc.year, rtc.mon, rtc.day, rtc.hour, rtc.min, rtc.sec);
 364              		.loc 1 271 2 is_stmt 0 view .LVU54
 365 000c FFF7FEFF 		bl	system_get_real_time
 366              	.LVL25:
 272:App/Src/command.c **** }
 367              		.loc 1 272 2 is_stmt 1 view .LVU55
 272:App/Src/command.c **** }
 368              		.loc 1 272 70 is_stmt 0 view .LVU56
 369 0010 9DF81330 		ldrb	r3, [sp, #19]	@ zero_extendqisi2
 272:App/Src/command.c **** }
 370              		.loc 1 272 80 view .LVU57
 371 0014 9DF81420 		ldrb	r2, [sp, #20]	@ zero_extendqisi2
 272:App/Src/command.c **** }
 372              		.loc 1 272 89 view .LVU58
 373 0018 9DF81510 		ldrb	r1, [sp, #21]	@ zero_extendqisi2
 272:App/Src/command.c **** }
 374              		.loc 1 272 2 view .LVU59
 375 001c 0291     		str	r1, [sp, #8]
 376 001e 0192     		str	r2, [sp, #4]
 377 0020 0093     		str	r3, [sp]
 378 0022 9DF81230 		ldrb	r3, [sp, #18]	@ zero_extendqisi2
 379 0026 9DF81120 		ldrb	r2, [sp, #17]	@ zero_extendqisi2
 380 002a 9DF81010 		ldrb	r1, [sp, #16]	@ zero_extendqisi2
 381 002e 0348     		ldr	r0, .L22
 382 0030 FFF7FEFF 		bl	UsbPrintf
 383              	.LVL26:
 273:App/Src/command.c **** 
ARM GAS  C:\Users\86158\AppData\Local\Temp\ccFxKACN.s 			page 21


 384              		.loc 1 273 1 view .LVU60
 385 0034 07B0     		add	sp, sp, #28
 386              	.LCFI11:
 387              		.cfi_def_cfa_offset 4
 388              		@ sp needed
 389 0036 5DF804FB 		ldr	pc, [sp], #4
 390              	.L23:
 391 003a 00BF     		.align	2
 392              	.L22:
 393 003c 00000000 		.word	.LC8
 394              		.cfi_endproc
 395              	.LFE246:
 397              		.global	__aeabi_f2d
 398              		.section	.rodata.AT_RTCCURRENT_Handle.str1.4,"aMS",%progbits,1
 399              		.align	2
 400              	.LC9:
 401 0000 72746320 		.ascii	"rtc current = %.1f nA\012OK\012\000"
 401      63757272 
 401      656E7420 
 401      3D20252E 
 401      3166206E 
 402              		.section	.text.AT_RTCCURRENT_Handle,"ax",%progbits
 403              		.align	1
 404              		.global	AT_RTCCURRENT_Handle
 405              		.syntax unified
 406              		.thumb
 407              		.thumb_func
 409              	AT_RTCCURRENT_Handle:
 410              	.LVL27:
 411              	.LFB249:
 337:App/Src/command.c **** 	float cur;
 412              		.loc 1 337 1 is_stmt 1 view -0
 413              		.cfi_startproc
 414              		@ args = 0, pretend = 0, frame = 0
 415              		@ frame_needed = 0, uses_anonymous_args = 0
 337:App/Src/command.c **** 	float cur;
 416              		.loc 1 337 1 is_stmt 0 view .LVU62
 417 0000 08B5     		push	{r3, lr}
 418              	.LCFI12:
 419              		.cfi_def_cfa_offset 8
 420              		.cfi_offset 3, -8
 421              		.cfi_offset 14, -4
 338:App/Src/command.c **** 	command = NULL;
 422              		.loc 1 338 2 is_stmt 1 view .LVU63
 339:App/Src/command.c **** 	cur = CS1237Current();
 423              		.loc 1 339 2 view .LVU64
 424              	.LVL28:
 340:App/Src/command.c **** 	UsbPrintf("rtc current = %.1f nA\nOK\n", cur);
 425              		.loc 1 340 2 view .LVU65
 340:App/Src/command.c **** 	UsbPrintf("rtc current = %.1f nA\nOK\n", cur);
 426              		.loc 1 340 8 is_stmt 0 view .LVU66
 427 0002 FFF7FEFF 		bl	CS1237Current
 428              	.LVL29:
 429 0006 10EE100A 		vmov	r0, s0
 430              	.LVL30:
 341:App/Src/command.c **** }
 431              		.loc 1 341 2 is_stmt 1 view .LVU67
ARM GAS  C:\Users\86158\AppData\Local\Temp\ccFxKACN.s 			page 22


 432 000a FFF7FEFF 		bl	__aeabi_f2d
 433              	.LVL31:
 341:App/Src/command.c **** }
 434              		.loc 1 341 2 is_stmt 0 view .LVU68
 435 000e 0246     		mov	r2, r0
 436 0010 0B46     		mov	r3, r1
 437 0012 0248     		ldr	r0, .L26
 438 0014 FFF7FEFF 		bl	UsbPrintf
 439              	.LVL32:
 342:App/Src/command.c **** 
 440              		.loc 1 342 1 view .LVU69
 441 0018 08BD     		pop	{r3, pc}
 442              	.L27:
 443 001a 00BF     		.align	2
 444              	.L26:
 445 001c 00000000 		.word	.LC9
 446              		.cfi_endproc
 447              	.LFE249:
 449              		.section	.rodata.AT_RTCVBAT_Handle.str1.4,"aMS",%progbits,1
 450              		.align	2
 451              	.LC10:
 452 0000 69326320 		.ascii	"i2c error\012\000"
 452      6572726F 
 452      720A00
 453 000b 00       		.align	2
 454              	.LC11:
 455 000c 76626174 		.ascii	"vbat = %d0mV\012\000"
 455      203D2025 
 455      64306D56 
 455      0A00
 456              		.section	.text.AT_RTCVBAT_Handle,"ax",%progbits
 457              		.align	1
 458              		.global	AT_RTCVBAT_Handle
 459              		.syntax unified
 460              		.thumb
 461              		.thumb_func
 463              	AT_RTCVBAT_Handle:
 464              	.LVL33:
 465              	.LFB250:
 345:App/Src/command.c **** 	int vbat;
 466              		.loc 1 345 1 is_stmt 1 view -0
 467              		.cfi_startproc
 468              		@ args = 0, pretend = 0, frame = 8
 469              		@ frame_needed = 0, uses_anonymous_args = 0
 345:App/Src/command.c **** 	int vbat;
 470              		.loc 1 345 1 is_stmt 0 view .LVU71
 471 0000 00B5     		push	{lr}
 472              	.LCFI13:
 473              		.cfi_def_cfa_offset 4
 474              		.cfi_offset 14, -4
 475 0002 83B0     		sub	sp, sp, #12
 476              	.LCFI14:
 477              		.cfi_def_cfa_offset 16
 346:App/Src/command.c **** 	if (rtc_read_vbat(&vbat) != I2C_OK) {
 478              		.loc 1 346 2 is_stmt 1 view .LVU72
 347:App/Src/command.c **** 		UsbPrintf("i2c error\n");
 479              		.loc 1 347 2 view .LVU73
ARM GAS  C:\Users\86158\AppData\Local\Temp\ccFxKACN.s 			page 23


 347:App/Src/command.c **** 		UsbPrintf("i2c error\n");
 480              		.loc 1 347 6 is_stmt 0 view .LVU74
 481 0004 01A8     		add	r0, sp, #4
 482              	.LVL34:
 347:App/Src/command.c **** 		UsbPrintf("i2c error\n");
 483              		.loc 1 347 6 view .LVU75
 484 0006 FFF7FEFF 		bl	rtc_read_vbat
 485              	.LVL35:
 347:App/Src/command.c **** 		UsbPrintf("i2c error\n");
 486              		.loc 1 347 5 view .LVU76
 487 000a 28B1     		cbz	r0, .L29
 348:App/Src/command.c **** 	} else {
 488              		.loc 1 348 3 is_stmt 1 view .LVU77
 489 000c 0548     		ldr	r0, .L32
 490 000e FFF7FEFF 		bl	UsbPrintf
 491              	.LVL36:
 492              	.L28:
 352:App/Src/command.c **** 
 493              		.loc 1 352 1 is_stmt 0 view .LVU78
 494 0012 03B0     		add	sp, sp, #12
 495              	.LCFI15:
 496              		.cfi_remember_state
 497              		.cfi_def_cfa_offset 4
 498              		@ sp needed
 499 0014 5DF804FB 		ldr	pc, [sp], #4
 500              	.L29:
 501              	.LCFI16:
 502              		.cfi_restore_state
 350:App/Src/command.c **** 	}
 503              		.loc 1 350 3 is_stmt 1 view .LVU79
 504 0018 0199     		ldr	r1, [sp, #4]
 505 001a 0348     		ldr	r0, .L32+4
 506 001c FFF7FEFF 		bl	UsbPrintf
 507              	.LVL37:
 352:App/Src/command.c **** 
 508              		.loc 1 352 1 is_stmt 0 view .LVU80
 509 0020 F7E7     		b	.L28
 510              	.L33:
 511 0022 00BF     		.align	2
 512              	.L32:
 513 0024 00000000 		.word	.LC10
 514 0028 0C000000 		.word	.LC11
 515              		.cfi_endproc
 516              	.LFE250:
 518              		.section	.rodata.AT_RTCMODE_Handle.str1.4,"aMS",%progbits,1
 519              		.align	2
 520              	.LC12:
 521 0000 56444420 		.ascii	"VDD is 3.3V\012\000"
 521      69732033 
 521      2E33560A 
 521      00
 522 000d 000000   		.align	2
 523              	.LC13:
 524 0010 56444420 		.ascii	"VDD is 5V\012\000"
 524      69732035 
 524      560A00
 525 001b 00       		.align	2
ARM GAS  C:\Users\86158\AppData\Local\Temp\ccFxKACN.s 			page 24


 526              	.LC14:
 527 001c 4F4B0A00 		.ascii	"OK\012\000"
 528              		.section	.text.AT_RTCMODE_Handle,"ax",%progbits
 529              		.align	1
 530              		.global	AT_RTCMODE_Handle
 531              		.syntax unified
 532              		.thumb
 533              		.thumb_func
 535              	AT_RTCMODE_Handle:
 536              	.LVL38:
 537              	.LFB254:
 410:App/Src/command.c **** 	static uint8_t state = 1;
 538              		.loc 1 410 1 is_stmt 1 view -0
 539              		.cfi_startproc
 540              		@ args = 0, pretend = 0, frame = 0
 541              		@ frame_needed = 0, uses_anonymous_args = 0
 410:App/Src/command.c **** 	static uint8_t state = 1;
 542              		.loc 1 410 1 is_stmt 0 view .LVU82
 543 0000 08B5     		push	{r3, lr}
 544              	.LCFI17:
 545              		.cfi_def_cfa_offset 8
 546              		.cfi_offset 3, -8
 547              		.cfi_offset 14, -4
 411:App/Src/command.c **** 	state++;
 548              		.loc 1 411 2 is_stmt 1 view .LVU83
 412:App/Src/command.c **** 
 549              		.loc 1 412 2 view .LVU84
 412:App/Src/command.c **** 
 550              		.loc 1 412 7 is_stmt 0 view .LVU85
 551 0002 0F4A     		ldr	r2, .L38
 552 0004 1378     		ldrb	r3, [r2]	@ zero_extendqisi2
 553 0006 0133     		adds	r3, r3, #1
 554 0008 DBB2     		uxtb	r3, r3
 555 000a 1370     		strb	r3, [r2]
 414:App/Src/command.c **** 		UsbPrintf("VDD is 3.3V\n");
 556              		.loc 1 414 2 is_stmt 1 view .LVU86
 414:App/Src/command.c **** 		UsbPrintf("VDD is 3.3V\n");
 557              		.loc 1 414 5 is_stmt 0 view .LVU87
 558 000c 13F0010F 		tst	r3, #1
 559 0010 0CD0     		beq	.L35
 415:App/Src/command.c **** 		HAL_GPIO_WritePin(GPIOE, GPIO_PIN_14, GPIO_PIN_RESET); 
 560              		.loc 1 415 3 is_stmt 1 view .LVU88
 561 0012 0C48     		ldr	r0, .L38+4
 562              	.LVL39:
 415:App/Src/command.c **** 		HAL_GPIO_WritePin(GPIOE, GPIO_PIN_14, GPIO_PIN_RESET); 
 563              		.loc 1 415 3 is_stmt 0 view .LVU89
 564 0014 FFF7FEFF 		bl	UsbPrintf
 565              	.LVL40:
 416:App/Src/command.c **** 	} else {
 566              		.loc 1 416 3 is_stmt 1 view .LVU90
 567 0018 0022     		movs	r2, #0
 568 001a 4FF48041 		mov	r1, #16384
 569 001e 0A48     		ldr	r0, .L38+8
 570 0020 FFF7FEFF 		bl	HAL_GPIO_WritePin
 571              	.LVL41:
 572              	.L36:
 422:App/Src/command.c **** }
ARM GAS  C:\Users\86158\AppData\Local\Temp\ccFxKACN.s 			page 25


 573              		.loc 1 422 2 view .LVU91
 574 0024 0948     		ldr	r0, .L38+12
 575 0026 FFF7FEFF 		bl	UsbPrintf
 576              	.LVL42:
 423:App/Src/command.c **** 
 577              		.loc 1 423 1 is_stmt 0 view .LVU92
 578 002a 08BD     		pop	{r3, pc}
 579              	.LVL43:
 580              	.L35:
 418:App/Src/command.c **** 		HAL_GPIO_WritePin(GPIOE, GPIO_PIN_14, GPIO_PIN_SET); 
 581              		.loc 1 418 3 is_stmt 1 view .LVU93
 582 002c 0848     		ldr	r0, .L38+16
 583              	.LVL44:
 418:App/Src/command.c **** 		HAL_GPIO_WritePin(GPIOE, GPIO_PIN_14, GPIO_PIN_SET); 
 584              		.loc 1 418 3 is_stmt 0 view .LVU94
 585 002e FFF7FEFF 		bl	UsbPrintf
 586              	.LVL45:
 419:App/Src/command.c **** 
 587              		.loc 1 419 3 is_stmt 1 view .LVU95
 588 0032 0122     		movs	r2, #1
 589 0034 4FF48041 		mov	r1, #16384
 590 0038 0348     		ldr	r0, .L38+8
 591 003a FFF7FEFF 		bl	HAL_GPIO_WritePin
 592              	.LVL46:
 593 003e F1E7     		b	.L36
 594              	.L39:
 595              		.align	2
 596              	.L38:
 597 0040 00000000 		.word	.LANCHOR2
 598 0044 00000000 		.word	.LC12
 599 0048 00100240 		.word	1073876992
 600 004c 1C000000 		.word	.LC14
 601 0050 10000000 		.word	.LC13
 602              		.cfi_endproc
 603              	.LFE254:
 605              		.section	.rodata.AT_SYSTEMP_Handle.str1.4,"aMS",%progbits,1
 606              		.align	2
 607              	.LC15:
 608 0000 0A737973 		.ascii	"\012system temp = %.1fC:\012\000"
 608      74656D20 
 608      74656D70 
 608      203D2025 
 608      2E316643 
 609              		.section	.text.AT_SYSTEMP_Handle,"ax",%progbits
 610              		.align	1
 611              		.global	AT_SYSTEMP_Handle
 612              		.syntax unified
 613              		.thumb
 614              		.thumb_func
 616              	AT_SYSTEMP_Handle:
 617              	.LVL47:
 618              	.LFB257:
 468:App/Src/command.c **** 	float temp;
 619              		.loc 1 468 1 view -0
 620              		.cfi_startproc
 621              		@ args = 0, pretend = 0, frame = 0
 622              		@ frame_needed = 0, uses_anonymous_args = 0
ARM GAS  C:\Users\86158\AppData\Local\Temp\ccFxKACN.s 			page 26


 468:App/Src/command.c **** 	float temp;
 623              		.loc 1 468 1 is_stmt 0 view .LVU97
 624 0000 08B5     		push	{r3, lr}
 625              	.LCFI18:
 626              		.cfi_def_cfa_offset 8
 627              		.cfi_offset 3, -8
 628              		.cfi_offset 14, -4
 469:App/Src/command.c **** 	temp = temp_read_value(1);
 629              		.loc 1 469 2 is_stmt 1 view .LVU98
 470:App/Src/command.c **** 	UsbPrintf("\nsystem temp = %.1fC:\n", temp);
 630              		.loc 1 470 2 view .LVU99
 470:App/Src/command.c **** 	UsbPrintf("\nsystem temp = %.1fC:\n", temp);
 631              		.loc 1 470 9 is_stmt 0 view .LVU100
 632 0002 0120     		movs	r0, #1
 633              	.LVL48:
 470:App/Src/command.c **** 	UsbPrintf("\nsystem temp = %.1fC:\n", temp);
 634              		.loc 1 470 9 view .LVU101
 635 0004 FFF7FEFF 		bl	temp_read_value
 636              	.LVL49:
 637 0008 10EE100A 		vmov	r0, s0
 638              	.LVL50:
 471:App/Src/command.c **** 	UsbPrintf("\nOK\n");
 639              		.loc 1 471 2 is_stmt 1 view .LVU102
 640 000c FFF7FEFF 		bl	__aeabi_f2d
 641              	.LVL51:
 471:App/Src/command.c **** 	UsbPrintf("\nOK\n");
 642              		.loc 1 471 2 is_stmt 0 view .LVU103
 643 0010 0246     		mov	r2, r0
 644 0012 0B46     		mov	r3, r1
 645 0014 0348     		ldr	r0, .L42
 646 0016 FFF7FEFF 		bl	UsbPrintf
 647              	.LVL52:
 472:App/Src/command.c **** }
 648              		.loc 1 472 2 is_stmt 1 view .LVU104
 649 001a 0348     		ldr	r0, .L42+4
 650 001c FFF7FEFF 		bl	UsbPrintf
 651              	.LVL53:
 473:App/Src/command.c **** 
 652              		.loc 1 473 1 is_stmt 0 view .LVU105
 653 0020 08BD     		pop	{r3, pc}
 654              	.L43:
 655 0022 00BF     		.align	2
 656              	.L42:
 657 0024 00000000 		.word	.LC15
 658 0028 58000000 		.word	.LC7
 659              		.cfi_endproc
 660              	.LFE257:
 662              		.section	.rodata.AT_WRITEFLASH_Handle.str1.4,"aMS",%progbits,1
 663              		.align	2
 664              	.LC16:
 665 0000 32303233 		.ascii	"2023.08.07 w25q128 flash log record test %03d\012\000"
 665      2E30382E 
 665      30372077 
 665      32357131 
 665      32382066 
 666 002f 00       		.align	2
 667              	.LC17:
ARM GAS  C:\Users\86158\AppData\Local\Temp\ccFxKACN.s 			page 27


 668 0030 77726974 		.ascii	"write OK\012\000"
 668      65204F4B 
 668      0A00
 669              		.section	.text.AT_WRITEFLASH_Handle,"ax",%progbits
 670              		.align	1
 671              		.global	AT_WRITEFLASH_Handle
 672              		.syntax unified
 673              		.thumb
 674              		.thumb_func
 676              	AT_WRITEFLASH_Handle:
 677              	.LVL54:
 678              	.LFB258:
 477:App/Src/command.c **** 	static uint8_t number = 0;
 679              		.loc 1 477 1 is_stmt 1 view -0
 680              		.cfi_startproc
 681              		@ args = 0, pretend = 0, frame = 0
 682              		@ frame_needed = 0, uses_anonymous_args = 0
 477:App/Src/command.c **** 	static uint8_t number = 0;
 683              		.loc 1 477 1 is_stmt 0 view .LVU107
 684 0000 08B5     		push	{r3, lr}
 685              	.LCFI19:
 686              		.cfi_def_cfa_offset 8
 687              		.cfi_offset 3, -8
 688              		.cfi_offset 14, -4
 478:App/Src/command.c **** 	command = NULL;
 689              		.loc 1 478 2 is_stmt 1 view .LVU108
 479:App/Src/command.c **** 	number++;
 690              		.loc 1 479 2 view .LVU109
 691              	.LVL55:
 480:App/Src/command.c **** 	log_printf("2023.08.07 w25q128 flash log record test %03d\n", number);
 692              		.loc 1 480 2 view .LVU110
 480:App/Src/command.c **** 	log_printf("2023.08.07 w25q128 flash log record test %03d\n", number);
 693              		.loc 1 480 8 is_stmt 0 view .LVU111
 694 0002 064B     		ldr	r3, .L46
 695 0004 1978     		ldrb	r1, [r3]	@ zero_extendqisi2
 696 0006 0131     		adds	r1, r1, #1
 697 0008 C9B2     		uxtb	r1, r1
 698 000a 1970     		strb	r1, [r3]
 481:App/Src/command.c **** 	UsbPrintf("write OK\n");
 699              		.loc 1 481 2 is_stmt 1 view .LVU112
 700 000c 0448     		ldr	r0, .L46+4
 701 000e FFF7FEFF 		bl	log_printf
 702              	.LVL56:
 482:App/Src/command.c **** }
 703              		.loc 1 482 2 view .LVU113
 704 0012 0448     		ldr	r0, .L46+8
 705 0014 FFF7FEFF 		bl	UsbPrintf
 706              	.LVL57:
 483:App/Src/command.c **** 
 707              		.loc 1 483 1 is_stmt 0 view .LVU114
 708 0018 08BD     		pop	{r3, pc}
 709              	.L47:
 710 001a 00BF     		.align	2
 711              	.L46:
 712 001c 00000000 		.word	.LANCHOR3
 713 0020 00000000 		.word	.LC16
 714 0024 30000000 		.word	.LC17
ARM GAS  C:\Users\86158\AppData\Local\Temp\ccFxKACN.s 			page 28


 715              		.cfi_endproc
 716              	.LFE258:
 718              		.global	__aeabi_ui2d
 719              		.global	__aeabi_dmul
 720              		.global	__aeabi_d2uiz
 721              		.section	.rodata.AT_SYSVOLTAGE_Handle.str1.4,"aMS",%progbits,1
 722              		.align	2
 723              	.LC18:
 724 0000 0A332E33 		.ascii	"\0123.3V\011: %dmV\012\000"
 724      56093A20 
 724      25646D56 
 724      0A00
 725 000e 0000     		.align	2
 726              	.LC19:
 727 0010 56434509 		.ascii	"VCE\011: %dmV\012\000"
 727      3A202564 
 727      6D560A00 
 728              		.align	2
 729              	.LC20:
 730 001c 3556093A 		.ascii	"5V\011: %dmV\012\000"
 730      2025646D 
 730      560A00
 731 0027 00       		.align	2
 732              	.LC21:
 733 0028 3956093A 		.ascii	"9V\011: %dmV\012\000"
 733      2025646D 
 733      560A00
 734              		.section	.text.AT_SYSVOLTAGE_Handle,"ax",%progbits
 735              		.align	1
 736              		.global	AT_SYSVOLTAGE_Handle
 737              		.syntax unified
 738              		.thumb
 739              		.thumb_func
 741              	AT_SYSVOLTAGE_Handle:
 742              	.LVL58:
 743              	.LFB262:
 557:App/Src/command.c **** 	uint32_t voltage;
 744              		.loc 1 557 1 is_stmt 1 view -0
 745              		.cfi_startproc
 746              		@ args = 0, pretend = 0, frame = 0
 747              		@ frame_needed = 0, uses_anonymous_args = 0
 557:App/Src/command.c **** 	uint32_t voltage;
 748              		.loc 1 557 1 is_stmt 0 view .LVU116
 749 0000 10B5     		push	{r4, lr}
 750              	.LCFI20:
 751              		.cfi_def_cfa_offset 8
 752              		.cfi_offset 4, -8
 753              		.cfi_offset 14, -4
 558:App/Src/command.c **** 	voltage = ststem_voltage(0) * 3300 * 4.6 / 4096;
 754              		.loc 1 558 2 is_stmt 1 view .LVU117
 559:App/Src/command.c **** 	UsbPrintf("\n3.3V\t: %dmV\n", voltage);
 755              		.loc 1 559 2 view .LVU118
 559:App/Src/command.c **** 	UsbPrintf("\n3.3V\t: %dmV\n", voltage);
 756              		.loc 1 559 12 is_stmt 0 view .LVU119
 757 0002 0020     		movs	r0, #0
 758              	.LVL59:
 559:App/Src/command.c **** 	UsbPrintf("\n3.3V\t: %dmV\n", voltage);
ARM GAS  C:\Users\86158\AppData\Local\Temp\ccFxKACN.s 			page 29


 759              		.loc 1 559 12 view .LVU120
 760 0004 FFF7FEFF 		bl	ststem_voltage
 761              	.LVL60:
 559:App/Src/command.c **** 	UsbPrintf("\n3.3V\t: %dmV\n", voltage);
 762              		.loc 1 559 30 view .LVU121
 763 0008 40F6E444 		movw	r4, #3300
 559:App/Src/command.c **** 	UsbPrintf("\n3.3V\t: %dmV\n", voltage);
 764              		.loc 1 559 37 view .LVU122
 765 000c 04FB00F0 		mul	r0, r4, r0
 766 0010 FFF7FEFF 		bl	__aeabi_ui2d
 767              	.LVL61:
 768 0014 2AA3     		adr	r3, .L50
 769 0016 D3E90023 		ldrd	r2, [r3]
 770 001a FFF7FEFF 		bl	__aeabi_dmul
 771              	.LVL62:
 559:App/Src/command.c **** 	UsbPrintf("\n3.3V\t: %dmV\n", voltage);
 772              		.loc 1 559 43 view .LVU123
 773 001e 0022     		movs	r2, #0
 774 0020 294B     		ldr	r3, .L50+8
 775 0022 FFF7FEFF 		bl	__aeabi_dmul
 776              	.LVL63:
 559:App/Src/command.c **** 	UsbPrintf("\n3.3V\t: %dmV\n", voltage);
 777              		.loc 1 559 10 view .LVU124
 778 0026 FFF7FEFF 		bl	__aeabi_d2uiz
 779              	.LVL64:
 780 002a 0146     		mov	r1, r0
 781              	.LVL65:
 560:App/Src/command.c **** 	voltage = ststem_voltage(1) * 3300 * 4.6 / 4096;
 782              		.loc 1 560 2 is_stmt 1 view .LVU125
 783 002c 2748     		ldr	r0, .L50+12
 784              	.LVL66:
 560:App/Src/command.c **** 	voltage = ststem_voltage(1) * 3300 * 4.6 / 4096;
 785              		.loc 1 560 2 is_stmt 0 view .LVU126
 786 002e FFF7FEFF 		bl	UsbPrintf
 787              	.LVL67:
 561:App/Src/command.c **** 	UsbPrintf("VCE\t: %dmV\n", voltage);
 788              		.loc 1 561 2 is_stmt 1 view .LVU127
 561:App/Src/command.c **** 	UsbPrintf("VCE\t: %dmV\n", voltage);
 789              		.loc 1 561 12 is_stmt 0 view .LVU128
 790 0032 0120     		movs	r0, #1
 791 0034 FFF7FEFF 		bl	ststem_voltage
 792              	.LVL68:
 561:App/Src/command.c **** 	UsbPrintf("VCE\t: %dmV\n", voltage);
 793              		.loc 1 561 37 view .LVU129
 794 0038 04FB00F0 		mul	r0, r4, r0
 795 003c FFF7FEFF 		bl	__aeabi_ui2d
 796              	.LVL69:
 797 0040 1FA3     		adr	r3, .L50
 798 0042 D3E90023 		ldrd	r2, [r3]
 799 0046 FFF7FEFF 		bl	__aeabi_dmul
 800              	.LVL70:
 561:App/Src/command.c **** 	UsbPrintf("VCE\t: %dmV\n", voltage);
 801              		.loc 1 561 43 view .LVU130
 802 004a 0022     		movs	r2, #0
 803 004c 1E4B     		ldr	r3, .L50+8
 804 004e FFF7FEFF 		bl	__aeabi_dmul
 805              	.LVL71:
ARM GAS  C:\Users\86158\AppData\Local\Temp\ccFxKACN.s 			page 30


 561:App/Src/command.c **** 	UsbPrintf("VCE\t: %dmV\n", voltage);
 806              		.loc 1 561 10 view .LVU131
 807 0052 FFF7FEFF 		bl	__aeabi_d2uiz
 808              	.LVL72:
 809 0056 0146     		mov	r1, r0
 810              	.LVL73:
 562:App/Src/command.c **** 	voltage = ststem_voltage(8) * 3300 * 4.6 / 4096;
 811              		.loc 1 562 2 is_stmt 1 view .LVU132
 812 0058 1D48     		ldr	r0, .L50+16
 813              	.LVL74:
 562:App/Src/command.c **** 	voltage = ststem_voltage(8) * 3300 * 4.6 / 4096;
 814              		.loc 1 562 2 is_stmt 0 view .LVU133
 815 005a FFF7FEFF 		bl	UsbPrintf
 816              	.LVL75:
 563:App/Src/command.c **** 	UsbPrintf("5V\t: %dmV\n", voltage);
 817              		.loc 1 563 2 is_stmt 1 view .LVU134
 563:App/Src/command.c **** 	UsbPrintf("5V\t: %dmV\n", voltage);
 818              		.loc 1 563 12 is_stmt 0 view .LVU135
 819 005e 0820     		movs	r0, #8
 820 0060 FFF7FEFF 		bl	ststem_voltage
 821              	.LVL76:
 563:App/Src/command.c **** 	UsbPrintf("5V\t: %dmV\n", voltage);
 822              		.loc 1 563 37 view .LVU136
 823 0064 04FB00F0 		mul	r0, r4, r0
 824 0068 FFF7FEFF 		bl	__aeabi_ui2d
 825              	.LVL77:
 826 006c 14A3     		adr	r3, .L50
 827 006e D3E90023 		ldrd	r2, [r3]
 828 0072 FFF7FEFF 		bl	__aeabi_dmul
 829              	.LVL78:
 563:App/Src/command.c **** 	UsbPrintf("5V\t: %dmV\n", voltage);
 830              		.loc 1 563 43 view .LVU137
 831 0076 0022     		movs	r2, #0
 832 0078 134B     		ldr	r3, .L50+8
 833 007a FFF7FEFF 		bl	__aeabi_dmul
 834              	.LVL79:
 563:App/Src/command.c **** 	UsbPrintf("5V\t: %dmV\n", voltage);
 835              		.loc 1 563 10 view .LVU138
 836 007e FFF7FEFF 		bl	__aeabi_d2uiz
 837              	.LVL80:
 838 0082 0146     		mov	r1, r0
 839              	.LVL81:
 564:App/Src/command.c **** 	voltage = ststem_voltage(9) * 3300 * 4.6 / 4096;
 840              		.loc 1 564 2 is_stmt 1 view .LVU139
 841 0084 1348     		ldr	r0, .L50+20
 842              	.LVL82:
 564:App/Src/command.c **** 	voltage = ststem_voltage(9) * 3300 * 4.6 / 4096;
 843              		.loc 1 564 2 is_stmt 0 view .LVU140
 844 0086 FFF7FEFF 		bl	UsbPrintf
 845              	.LVL83:
 565:App/Src/command.c **** 	UsbPrintf("9V\t: %dmV\n", voltage);
 846              		.loc 1 565 2 is_stmt 1 view .LVU141
 565:App/Src/command.c **** 	UsbPrintf("9V\t: %dmV\n", voltage);
 847              		.loc 1 565 12 is_stmt 0 view .LVU142
 848 008a 0920     		movs	r0, #9
 849 008c FFF7FEFF 		bl	ststem_voltage
 850              	.LVL84:
ARM GAS  C:\Users\86158\AppData\Local\Temp\ccFxKACN.s 			page 31


 565:App/Src/command.c **** 	UsbPrintf("9V\t: %dmV\n", voltage);
 851              		.loc 1 565 37 view .LVU143
 852 0090 04FB00F0 		mul	r0, r4, r0
 853 0094 FFF7FEFF 		bl	__aeabi_ui2d
 854              	.LVL85:
 855 0098 09A3     		adr	r3, .L50
 856 009a D3E90023 		ldrd	r2, [r3]
 857 009e FFF7FEFF 		bl	__aeabi_dmul
 858              	.LVL86:
 565:App/Src/command.c **** 	UsbPrintf("9V\t: %dmV\n", voltage);
 859              		.loc 1 565 43 view .LVU144
 860 00a2 0022     		movs	r2, #0
 861 00a4 084B     		ldr	r3, .L50+8
 862 00a6 FFF7FEFF 		bl	__aeabi_dmul
 863              	.LVL87:
 565:App/Src/command.c **** 	UsbPrintf("9V\t: %dmV\n", voltage);
 864              		.loc 1 565 10 view .LVU145
 865 00aa FFF7FEFF 		bl	__aeabi_d2uiz
 866              	.LVL88:
 867 00ae 0146     		mov	r1, r0
 868              	.LVL89:
 566:App/Src/command.c **** 	UsbPrintf("OK\n");
 869              		.loc 1 566 2 is_stmt 1 view .LVU146
 870 00b0 0948     		ldr	r0, .L50+24
 871              	.LVL90:
 566:App/Src/command.c **** 	UsbPrintf("OK\n");
 872              		.loc 1 566 2 is_stmt 0 view .LVU147
 873 00b2 FFF7FEFF 		bl	UsbPrintf
 874              	.LVL91:
 567:App/Src/command.c **** }
 875              		.loc 1 567 2 is_stmt 1 view .LVU148
 876 00b6 0948     		ldr	r0, .L50+28
 877 00b8 FFF7FEFF 		bl	UsbPrintf
 878              	.LVL92:
 568:App/Src/command.c **** 
 879              		.loc 1 568 1 is_stmt 0 view .LVU149
 880 00bc 10BD     		pop	{r4, pc}
 881              	.L51:
 882 00be 00BF     		.align	3
 883              	.L50:
 884 00c0 66666666 		.word	1717986918
 885 00c4 66661240 		.word	1074947686
 886 00c8 0000303F 		.word	1060110336
 887 00cc 00000000 		.word	.LC18
 888 00d0 10000000 		.word	.LC19
 889 00d4 1C000000 		.word	.LC20
 890 00d8 28000000 		.word	.LC21
 891 00dc 1C000000 		.word	.LC14
 892              		.cfi_endproc
 893              	.LFE262:
 895              		.section	.rodata.AT_TESTFLAG_Handle.str1.4,"aMS",%progbits,1
 896              		.align	2
 897              	.LC22:
 898 0000 63686970 		.ascii	"chip group flag: config9, 5test, calculate, downloa"
 898      2067726F 
 898      75702066 
 898      6C61673A 
ARM GAS  C:\Users\86158\AppData\Local\Temp\ccFxKACN.s 			page 32


 898      20636F6E 
 899 0033 642C206D 		.ascii	"d, machine, takedown\012\000"
 899      61636869 
 899      6E652C20 
 899      74616B65 
 899      646F776E 
 900 0049 000000   		.align	2
 901              	.LC23:
 902 004c 0A5B2530 		.ascii	"\012[%02d]\000"
 902      32645D00 
 903              		.align	2
 904              	.LC24:
 905 0054 25303258 		.ascii	"%02X \000"
 905      2000
 906 005a 0000     		.align	2
 907              	.LC25:
 908 005c 312000   		.ascii	"1 \000"
 909 005f 00       		.align	2
 910              	.LC26:
 911 0060 0A20636F 		.ascii	"\012 count: %d\012\000"
 911      756E743A 
 911      2025640A 
 911      00
 912              		.section	.text.AT_TESTFLAG_Handle,"ax",%progbits
 913              		.align	1
 914              		.global	AT_TESTFLAG_Handle
 915              		.syntax unified
 916              		.thumb
 917              		.thumb_func
 919              	AT_TESTFLAG_Handle:
 920              	.LVL93:
 921              	.LFB267:
 684:App/Src/command.c **** 
 685:App/Src/command.c **** void AT_TESTFLAG_Handle(char* command)
 686:App/Src/command.c **** {
 922              		.loc 1 686 1 is_stmt 1 view -0
 923              		.cfi_startproc
 924              		@ args = 0, pretend = 0, frame = 104
 925              		@ frame_needed = 0, uses_anonymous_args = 0
 926              		.loc 1 686 1 is_stmt 0 view .LVU151
 927 0000 70B5     		push	{r4, r5, r6, lr}
 928              	.LCFI21:
 929              		.cfi_def_cfa_offset 16
 930              		.cfi_offset 4, -16
 931              		.cfi_offset 5, -12
 932              		.cfi_offset 6, -8
 933              		.cfi_offset 14, -4
 934 0002 9AB0     		sub	sp, sp, #104
 935              	.LCFI22:
 936              		.cfi_def_cfa_offset 120
 687:App/Src/command.c **** 	uint8_t buffer[MAX_CHIP_NUMBER] = {0xff};
 937              		.loc 1 687 2 is_stmt 1 view .LVU152
 938              		.loc 1 687 10 is_stmt 0 view .LVU153
 939 0004 FF23     		movs	r3, #255
 940 0006 0193     		str	r3, [sp, #4]
 941 0008 6022     		movs	r2, #96
 942 000a 0021     		movs	r1, #0
ARM GAS  C:\Users\86158\AppData\Local\Temp\ccFxKACN.s 			page 33


 943 000c 02A8     		add	r0, sp, #8
 944              	.LVL94:
 945              		.loc 1 687 10 view .LVU154
 946 000e FFF7FEFF 		bl	memset
 947              	.LVL95:
 688:App/Src/command.c **** 	uint32_t address;
 948              		.loc 1 688 2 is_stmt 1 view .LVU155
 689:App/Src/command.c **** 	uint8_t count;
 949              		.loc 1 689 2 view .LVU156
 690:App/Src/command.c **** 	int i, j;
 950              		.loc 1 690 2 view .LVU157
 691:App/Src/command.c **** 	UsbPrintf("chip group flag: config9, 5test, calculate, download, machine, takedown\n");
 951              		.loc 1 691 2 view .LVU158
 952 0012 2748     		ldr	r0, .L69
 953 0014 FFF7FEFF 		bl	UsbPrintf
 954              	.LVL96:
 692:App/Src/command.c **** 	for (j = 0; j < 6; j++) {
 955              		.loc 1 692 2 view .LVU159
 956              		.loc 1 692 9 is_stmt 0 view .LVU160
 957 0018 0026     		movs	r6, #0
 958              		.loc 1 692 2 view .LVU161
 959 001a 37E0     		b	.L53
 960              	.LVL97:
 961              	.L65:
 693:App/Src/command.c **** 		memset(buffer, 0xff, MAX_CHIP_NUMBER);
 694:App/Src/command.c **** 		address = TEST_FALG_START_ADDR + j * PAGE_SIZE;
 695:App/Src/command.c **** 		flash_read_data(address, buffer, MAX_CHIP_NUMBER);
 696:App/Src/command.c **** 		count = 0;
 697:App/Src/command.c **** 		for (i = 0; i < MAX_CHIP_NUMBER ; i++) {
 698:App/Src/command.c **** 			if (i % 10 == 0) {
 699:App/Src/command.c **** 				UsbPrintf("\n[%02d]", i + 1);
 962              		.loc 1 699 5 is_stmt 1 view .LVU162
 963 001c 611C     		adds	r1, r4, #1
 964 001e 2548     		ldr	r0, .L69+4
 965 0020 FFF7FEFF 		bl	UsbPrintf
 966              	.LVL98:
 967 0024 20E0     		b	.L55
 968              	.L66:
 700:App/Src/command.c **** 			}
 701:App/Src/command.c **** 			if (j == 1) {
 702:App/Src/command.c **** 				if (buffer[i] == 0xE0) {
 969              		.loc 1 702 5 view .LVU163
 970              		.loc 1 702 15 is_stmt 0 view .LVU164
 971 0026 04F16803 		add	r3, r4, #104
 972 002a 6B44     		add	r3, sp, r3
 973 002c 13F8641C 		ldrb	r1, [r3, #-100]	@ zero_extendqisi2
 974              		.loc 1 702 8 view .LVU165
 975 0030 E029     		cmp	r1, #224
 976 0032 03D0     		beq	.L63
 977              	.L57:
 703:App/Src/command.c **** 					count++;
 704:App/Src/command.c **** 				}
 705:App/Src/command.c **** 				UsbPrintf("%02X ", buffer[i]);
 978              		.loc 1 705 5 is_stmt 1 view .LVU166
 979 0034 2048     		ldr	r0, .L69+8
 980 0036 FFF7FEFF 		bl	UsbPrintf
 981              	.LVL99:
ARM GAS  C:\Users\86158\AppData\Local\Temp\ccFxKACN.s 			page 34


 982 003a 07E0     		b	.L58
 983              	.L63:
 703:App/Src/command.c **** 					count++;
 984              		.loc 1 703 6 view .LVU167
 703:App/Src/command.c **** 					count++;
 985              		.loc 1 703 11 is_stmt 0 view .LVU168
 986 003c 0135     		adds	r5, r5, #1
 987              	.LVL100:
 703:App/Src/command.c **** 					count++;
 988              		.loc 1 703 11 view .LVU169
 989 003e EDB2     		uxtb	r5, r5
 990              	.LVL101:
 703:App/Src/command.c **** 					count++;
 991              		.loc 1 703 11 view .LVU170
 992 0040 F8E7     		b	.L57
 993              	.L67:
 706:App/Src/command.c **** 			} else {
 707:App/Src/command.c **** 				if (buffer[i] == '1') {
 708:App/Src/command.c **** 					count++;
 994              		.loc 1 708 6 is_stmt 1 view .LVU171
 995              		.loc 1 708 11 is_stmt 0 view .LVU172
 996 0042 0135     		adds	r5, r5, #1
 997              	.LVL102:
 998              		.loc 1 708 11 view .LVU173
 999 0044 EDB2     		uxtb	r5, r5
 1000              	.LVL103:
 709:App/Src/command.c **** 					UsbPrintf("1 ");
 1001              		.loc 1 709 6 is_stmt 1 view .LVU174
 1002 0046 1D48     		ldr	r0, .L69+12
 1003 0048 FFF7FEFF 		bl	UsbPrintf
 1004              	.LVL104:
 1005              	.L58:
 697:App/Src/command.c **** 			if (i % 10 == 0) {
 1006              		.loc 1 697 37 discriminator 2 view .LVU175
 697:App/Src/command.c **** 			if (i % 10 == 0) {
 1007              		.loc 1 697 38 is_stmt 0 discriminator 2 view .LVU176
 1008 004c 0134     		adds	r4, r4, #1
 1009              	.LVL105:
 1010              	.L54:
 697:App/Src/command.c **** 			if (i % 10 == 0) {
 1011              		.loc 1 697 15 is_stmt 1 discriminator 1 view .LVU177
 697:App/Src/command.c **** 			if (i % 10 == 0) {
 1012              		.loc 1 697 3 is_stmt 0 discriminator 1 view .LVU178
 1013 004e 632C     		cmp	r4, #99
 1014 0050 17DC     		bgt	.L64
 698:App/Src/command.c **** 				UsbPrintf("\n[%02d]", i + 1);
 1015              		.loc 1 698 4 is_stmt 1 view .LVU179
 698:App/Src/command.c **** 				UsbPrintf("\n[%02d]", i + 1);
 1016              		.loc 1 698 10 is_stmt 0 view .LVU180
 1017 0052 1B4A     		ldr	r2, .L69+16
 1018 0054 82FB0432 		smull	r3, r2, r2, r4
 1019 0058 E317     		asrs	r3, r4, #31
 1020 005a C3EBA203 		rsb	r3, r3, r2, asr #2
 1021 005e 03EB8303 		add	r3, r3, r3, lsl #2
 1022 0062 5A00     		lsls	r2, r3, #1
 698:App/Src/command.c **** 				UsbPrintf("\n[%02d]", i + 1);
 1023              		.loc 1 698 7 view .LVU181
ARM GAS  C:\Users\86158\AppData\Local\Temp\ccFxKACN.s 			page 35


 1024 0064 9442     		cmp	r4, r2
 1025 0066 D9D0     		beq	.L65
 1026              	.L55:
 701:App/Src/command.c **** 				if (buffer[i] == 0xE0) {
 1027              		.loc 1 701 4 is_stmt 1 view .LVU182
 701:App/Src/command.c **** 				if (buffer[i] == 0xE0) {
 1028              		.loc 1 701 7 is_stmt 0 view .LVU183
 1029 0068 012E     		cmp	r6, #1
 1030 006a DCD0     		beq	.L66
 707:App/Src/command.c **** 					count++;
 1031              		.loc 1 707 5 is_stmt 1 view .LVU184
 707:App/Src/command.c **** 					count++;
 1032              		.loc 1 707 15 is_stmt 0 view .LVU185
 1033 006c 04F16803 		add	r3, r4, #104
 1034 0070 6B44     		add	r3, sp, r3
 1035 0072 13F8641C 		ldrb	r1, [r3, #-100]	@ zero_extendqisi2
 707:App/Src/command.c **** 					count++;
 1036              		.loc 1 707 8 view .LVU186
 1037 0076 3129     		cmp	r1, #49
 1038 0078 E3D0     		beq	.L67
 710:App/Src/command.c **** 				} else {
 711:App/Src/command.c **** 					UsbPrintf("%02X ", buffer[i]);
 1039              		.loc 1 711 6 is_stmt 1 view .LVU187
 1040 007a 0F48     		ldr	r0, .L69+8
 1041 007c FFF7FEFF 		bl	UsbPrintf
 1042              	.LVL106:
 1043 0080 E4E7     		b	.L58
 1044              	.L64:
 712:App/Src/command.c **** 				}
 713:App/Src/command.c **** 			}
 714:App/Src/command.c **** 		}
 715:App/Src/command.c **** 		UsbPrintf("\n count: %d\n", count);
 1045              		.loc 1 715 3 discriminator 2 view .LVU188
 1046 0082 2946     		mov	r1, r5
 1047 0084 0F48     		ldr	r0, .L69+20
 1048 0086 FFF7FEFF 		bl	UsbPrintf
 1049              	.LVL107:
 692:App/Src/command.c **** 		memset(buffer, 0xff, MAX_CHIP_NUMBER);
 1050              		.loc 1 692 21 discriminator 2 view .LVU189
 692:App/Src/command.c **** 		memset(buffer, 0xff, MAX_CHIP_NUMBER);
 1051              		.loc 1 692 22 is_stmt 0 discriminator 2 view .LVU190
 1052 008a 0136     		adds	r6, r6, #1
 1053              	.LVL108:
 1054              	.L53:
 692:App/Src/command.c **** 		memset(buffer, 0xff, MAX_CHIP_NUMBER);
 1055              		.loc 1 692 14 is_stmt 1 discriminator 1 view .LVU191
 692:App/Src/command.c **** 		memset(buffer, 0xff, MAX_CHIP_NUMBER);
 1056              		.loc 1 692 2 is_stmt 0 discriminator 1 view .LVU192
 1057 008c 052E     		cmp	r6, #5
 1058 008e 0CDC     		bgt	.L68
 693:App/Src/command.c **** 		address = TEST_FALG_START_ADDR + j * PAGE_SIZE;
 1059              		.loc 1 693 3 is_stmt 1 view .LVU193
 1060 0090 6422     		movs	r2, #100
 1061 0092 FF21     		movs	r1, #255
 1062 0094 01A8     		add	r0, sp, #4
 1063 0096 FFF7FEFF 		bl	memset
 1064              	.LVL109:
ARM GAS  C:\Users\86158\AppData\Local\Temp\ccFxKACN.s 			page 36


 694:App/Src/command.c **** 		flash_read_data(address, buffer, MAX_CHIP_NUMBER);
 1065              		.loc 1 694 3 view .LVU194
 695:App/Src/command.c **** 		count = 0;
 1066              		.loc 1 695 3 view .LVU195
 1067 009a 6422     		movs	r2, #100
 1068 009c 01A9     		add	r1, sp, #4
 1069 009e 3002     		lsls	r0, r6, #8
 1070              	.LVL110:
 695:App/Src/command.c **** 		count = 0;
 1071              		.loc 1 695 3 is_stmt 0 view .LVU196
 1072 00a0 FFF7FEFF 		bl	flash_read_data
 1073              	.LVL111:
 696:App/Src/command.c **** 		for (i = 0; i < MAX_CHIP_NUMBER ; i++) {
 1074              		.loc 1 696 3 is_stmt 1 view .LVU197
 697:App/Src/command.c **** 			if (i % 10 == 0) {
 1075              		.loc 1 697 3 view .LVU198
 697:App/Src/command.c **** 			if (i % 10 == 0) {
 1076              		.loc 1 697 10 is_stmt 0 view .LVU199
 1077 00a4 0024     		movs	r4, #0
 696:App/Src/command.c **** 		for (i = 0; i < MAX_CHIP_NUMBER ; i++) {
 1078              		.loc 1 696 9 view .LVU200
 1079 00a6 2546     		mov	r5, r4
 697:App/Src/command.c **** 			if (i % 10 == 0) {
 1080              		.loc 1 697 3 view .LVU201
 1081 00a8 D1E7     		b	.L54
 1082              	.LVL112:
 1083              	.L68:
 716:App/Src/command.c **** 	}
 717:App/Src/command.c **** }
 1084              		.loc 1 717 1 view .LVU202
 1085 00aa 1AB0     		add	sp, sp, #104
 1086              	.LCFI23:
 1087              		.cfi_def_cfa_offset 16
 1088              		@ sp needed
 1089 00ac 70BD     		pop	{r4, r5, r6, pc}
 1090              	.LVL113:
 1091              	.L70:
 1092              		.loc 1 717 1 view .LVU203
 1093 00ae 00BF     		.align	2
 1094              	.L69:
 1095 00b0 00000000 		.word	.LC22
 1096 00b4 4C000000 		.word	.LC23
 1097 00b8 54000000 		.word	.LC24
 1098 00bc 5C000000 		.word	.LC25
 1099 00c0 67666666 		.word	1717986919
 1100 00c4 60000000 		.word	.LC26
 1101              		.cfi_endproc
 1102              	.LFE267:
 1104              		.section	.rodata.AT_TEMPADC_Handle.str1.4,"aMS",%progbits,1
 1105              		.align	2
 1106              	.LC27:
 1107 0000 74656D70 		.ascii	"temp adc:%d, i2c[%d]\012\000"
 1107      20616463 
 1107      3A25642C 
 1107      20693263 
 1107      5B25645D 
 1108              		.section	.text.AT_TEMPADC_Handle,"ax",%progbits
ARM GAS  C:\Users\86158\AppData\Local\Temp\ccFxKACN.s 			page 37


 1109              		.align	1
 1110              		.global	AT_TEMPADC_Handle
 1111              		.syntax unified
 1112              		.thumb
 1113              		.thumb_func
 1115              	AT_TEMPADC_Handle:
 1116              	.LVL114:
 1117              	.LFB275:
 718:App/Src/command.c **** 
 719:App/Src/command.c **** void AT_TESTDATA_Handle(char* command)
 720:App/Src/command.c **** {
 721:App/Src/command.c **** 	int partNumber = 0;
 722:App/Src/command.c **** 	int chipNumber = 0;
 723:App/Src/command.c **** 	int num;
 724:App/Src/command.c **** 	int i;
 725:App/Src/command.c **** 	TestResult result = {0};
 726:App/Src/command.c **** 
 727:App/Src/command.c **** 	num = strSearch(command, "chip:");
 728:App/Src/command.c **** 	if (num != -1) {
 729:App/Src/command.c **** 		num += strlen("chip:");
 730:App/Src/command.c **** 		CharToInt(command, num, &chipNumber);
 731:App/Src/command.c **** 	}
 732:App/Src/command.c **** 	
 733:App/Src/command.c **** 	num = strSearch(command, "part:");
 734:App/Src/command.c **** 	if (num != -1) {
 735:App/Src/command.c **** 		num += strlen("part:");
 736:App/Src/command.c **** 		CharToInt(command, num, &partNumber);
 737:App/Src/command.c **** 	}
 738:App/Src/command.c **** 	if (chipNumber == 0) {//所有芯片的某一个参数
 739:App/Src/command.c **** 		for (i = 0; i < MAX_CHIP_NUMBER; i++) {
 740:App/Src/command.c **** 			UsbPrintf("chip%d ", i + 1);
 741:App/Src/command.c **** 			flash_test_data_read(&result, i + 1, TEST_DATA_ALL);
 742:App/Src/command.c **** 			test_data_printf(partNumber, result);
 743:App/Src/command.c **** 		}
 744:App/Src/command.c **** 	} else {//某一个芯片的所有参数
 745:App/Src/command.c **** 		if (chipNumber > MAX_CHIP_NUMBER) { chipNumber = MAX_CHIP_NUMBER;}
 746:App/Src/command.c **** 		if (chipNumber < 0) { chipNumber = 1; }
 747:App/Src/command.c **** 		flash_test_data_read(&result, chipNumber, TEST_DATA_ALL);
 748:App/Src/command.c **** 		test_data_printf(partNumber, result);
 749:App/Src/command.c **** 	}
 750:App/Src/command.c **** }
 751:App/Src/command.c **** 
 752:App/Src/command.c **** void AT_ATTEST_Handle(char* command)
 753:App/Src/command.c **** {
 754:App/Src/command.c **** 	int number = 0;
 755:App/Src/command.c **** 	uint16_t offset;
 756:App/Src/command.c **** 	float cap[420] = {0};
 757:App/Src/command.c **** 	int digtal[420] = {0};
 758:App/Src/command.c **** 	int i = 0;
 759:App/Src/command.c **** 	uint8_t count = 0;
 760:App/Src/command.c **** 	CharToInt(command, strSearch(command, "=") + 1, &number);
 761:App/Src/command.c **** 	if (number > 0) {
 762:App/Src/command.c **** 		calculate_wave1006_temp_cap(number, cap, digtal, &offset);
 763:App/Src/command.c **** 	} else {
 764:App/Src/command.c **** 		for (i = 0 ; i < MAX_CHIP_NUMBER; i++) {
 765:App/Src/command.c **** 			if(calculate_wave1006_temp_cap(i + 1, cap, digtal, &offset) > 0) {
 766:App/Src/command.c **** 				count++;
ARM GAS  C:\Users\86158\AppData\Local\Temp\ccFxKACN.s 			page 38


 767:App/Src/command.c **** 			}
 768:App/Src/command.c **** 		}
 769:App/Src/command.c **** 		UsbPrintf("\ncount : %d\n", count);
 770:App/Src/command.c **** 	}
 771:App/Src/command.c **** 	UsbPrintf("OK\n");
 772:App/Src/command.c **** 
 773:App/Src/command.c **** }
 774:App/Src/command.c **** 
 775:App/Src/command.c **** void AT_MACHINE_Handle(char* command)
 776:App/Src/command.c **** {	
 777:App/Src/command.c **** 	int number = 0;
 778:App/Src/command.c **** 	CharToInt(command, strSearch(command, "=") + 1, &number);
 779:App/Src/command.c **** 	if (number > 0) {
 780:App/Src/command.c **** 		CharToInt(command, strSearch(command, ",") + 1, &number);
 781:App/Src/command.c **** 		command_cap_list_test(1, number);
 782:App/Src/command.c **** 		UsbPrintf("cap list test start...\n");
 783:App/Src/command.c **** 	} else {
 784:App/Src/command.c **** 		command_cap_list_test(0, 0);
 785:App/Src/command.c **** 		UsbPrintf("cap list test end...\n");
 786:App/Src/command.c **** 	// UsbPrintf("OK\n");
 787:App/Src/command.c **** 	}
 788:App/Src/command.c **** 	UsbPrintf("OK\n");
 789:App/Src/command.c **** }
 790:App/Src/command.c **** 
 791:App/Src/command.c **** void AT_1006TMODE_Handle(char* command)
 792:App/Src/command.c **** {
 793:App/Src/command.c **** 	int mode = 0;
 794:App/Src/command.c **** 	uint8_t buf;
 795:App/Src/command.c **** 	uint8_t osc_buf[2] = {0};
 796:App/Src/command.c **** 	CharToInt(command, strSearch(command, "=") + 1, &mode);
 797:App/Src/command.c **** 	
 798:App/Src/command.c **** 	if (mode > 0) {
 799:App/Src/command.c **** 		buf = 0x40;
 800:App/Src/command.c **** 		if(drv_wave1006_write_reg(DEV_SD3068, WAVE1006_REG_CTR3, 1, &buf) != WAVE1006_EXIT_OK)   //如果是
 801:App/Src/command.c **** 		{
 802:App/Src/command.c **** 			return;
 803:App/Src/command.c **** 		}
 804:App/Src/command.c **** 		//选择为SD3302封装(必须在进测试模式之前选择，否则芯片pad改变)
 805:App/Src/command.c **** 		if (drv_wave1006_read_reg(DEV_SD3068, WAVE1006_REG_USER_RAM_START + 20, 1, &buf) != WAVE1006_EXIT
 806:App/Src/command.c **** 		{
 807:App/Src/command.c **** 			return;
 808:App/Src/command.c **** 		}
 809:App/Src/command.c **** 		buf &= ~0x0f;
 810:App/Src/command.c **** 		buf |= 0x0d;//根据pad配置表，编号13为3302
 811:App/Src/command.c **** 		if (drv_wave1006_write_reg(DEV_SD3068, WAVE1006_REG_USER_RAM_START + 20, 1, &buf) != WAVE1006_EXI
 812:App/Src/command.c **** 		{
 813:App/Src/command.c **** 			return;
 814:App/Src/command.c **** 		}
 815:App/Src/command.c **** 		if (wave1006_enter_test_mode(WAVE1006_TEST_PAD | WAVE1006_TEST_OSC | WAVE1006_TEST_ADC) != WAVE10
 816:App/Src/command.c **** 		{
 817:App/Src/command.c **** 			return;
 818:App/Src/command.c **** 		}
 819:App/Src/command.c **** 		UsbPrintf("pad change OK\n");
 820:App/Src/command.c **** 		HAL_Delay(5);
 821:App/Src/command.c **** 		rtc_set_channel(g_rtcChanenel, RTC_SD3302);
 822:App/Src/command.c **** 		if (drv_wave1006_read_reg(DEV_SD3068, WAVE1006_REG_USER_RAM_START + 19, 1, &buf) != WAVE1006_EXIT
 823:App/Src/command.c **** 		{
ARM GAS  C:\Users\86158\AppData\Local\Temp\ccFxKACN.s 			page 39


 824:App/Src/command.c **** 			return;
 825:App/Src/command.c **** 		}
 826:App/Src/command.c **** 		buf &= ~0x38;   //清0 RuleTempAdj[2:0]      //ADC尺子 暂选5
 827:App/Src/command.c **** 		buf |=  0x28;
 828:App/Src/command.c **** 		if (drv_wave1006_write_reg(DEV_SD3068, WAVE1006_REG_USER_RAM_START + 19, 1, &buf) != WAVE1006_EXI
 829:App/Src/command.c **** 		{
 830:App/Src/command.c **** 			return;
 831:App/Src/command.c **** 		}	
 832:App/Src/command.c **** 		if (drv_wave1006_read_reg(DEV_SD3068, WAVE1006_REG_USER_RAM_START + 24, 1, &osc_buf[1]) != WAVE10
 833:App/Src/command.c **** 		{
 834:App/Src/command.c **** 			return;
 835:App/Src/command.c **** 		}
 836:App/Src/command.c **** 		osc_buf[0]  = 0xf7;   //ram24
 837:App/Src/command.c **** 		osc_buf[1] &= ~0x1f;
 838:App/Src/command.c **** 		osc_buf[1] |= 0x19;		//ram25
 839:App/Src/command.c **** 		if (drv_wave1006_write_reg(DEV_SD3068, WAVE1006_REG_USER_RAM_START + 23, 2, osc_buf) != WAVE1006_
 840:App/Src/command.c **** 		{
 841:App/Src/command.c **** 			return;
 842:App/Src/command.c **** 		}
 843:App/Src/command.c **** 		UsbPrintf("i2c OK after pad change \n");
 844:App/Src/command.c **** 	} else {
 845:App/Src/command.c **** 		rtc_1006_exit_testmode(g_rtcChanenel);
 846:App/Src/command.c **** 	}
 847:App/Src/command.c **** }
 848:App/Src/command.c **** 
 849:App/Src/command.c **** void AT_SD8840INT_Handle(char* command)
 850:App/Src/command.c **** {
 851:App/Src/command.c **** 	int startNumber = 0;
 852:App/Src/command.c **** 	int endNumber = 0;
 853:App/Src/command.c **** 
 854:App/Src/command.c **** 	CharToInt(command, strSearch(command, "=") + 1, &startNumber);
 855:App/Src/command.c **** 	CharToInt(command, strSearch(command, ",") + 1, &endNumber);
 856:App/Src/command.c **** 	
 857:App/Src/command.c **** 	if (startNumber > 0) {
 858:App/Src/command.c **** 		set_int_test(1, startNumber, endNumber);
 859:App/Src/command.c **** 		UsbPrintf("start int test, start %d, end %d\n", startNumber, endNumber);
 860:App/Src/command.c **** 	} else {
 861:App/Src/command.c **** 		set_int_test(0, 0, 0);
 862:App/Src/command.c **** 		UsbPrintf("end int test\n");
 863:App/Src/command.c **** 	}
 864:App/Src/command.c **** 	UsbPrintf("OK\n");
 865:App/Src/command.c **** 
 866:App/Src/command.c **** }
 867:App/Src/command.c **** 
 868:App/Src/command.c **** 
 869:App/Src/command.c **** void AT_RTCLOAD_Handle(char* command)
 870:App/Src/command.c **** {
 871:App/Src/command.c **** 	int number = 0;
 872:App/Src/command.c **** 	int i;
 873:App/Src/command.c **** 	uint8_t result[MAX_CHIP_NUMBER] = {0};
 874:App/Src/command.c **** 	CharToInt(command, strSearch(command, "=") + 1, &number);
 875:App/Src/command.c **** 	if (number > 0) {
 876:App/Src/command.c **** 		sd8840_write_otp(number);
 877:App/Src/command.c **** 	} else {
 878:App/Src/command.c **** 		for (i = 1; i <= MAX_CHIP_NUMBER; i++) {
 879:App/Src/command.c **** 			result[i - 1] = sd8840_write_otp(i);
 880:App/Src/command.c **** 		}
ARM GAS  C:\Users\86158\AppData\Local\Temp\ccFxKACN.s 			page 40


 881:App/Src/command.c **** 		
 882:App/Src/command.c **** 		for (i = 1; i <= MAX_CHIP_NUMBER; i++) {
 883:App/Src/command.c **** 			UsbPrintf("%d\t", result[i - 1]);
 884:App/Src/command.c **** 			if (i % 10 == 0) {
 885:App/Src/command.c **** 				UsbPrintf("\n");
 886:App/Src/command.c **** 			}
 887:App/Src/command.c **** 		}
 888:App/Src/command.c **** 	}
 889:App/Src/command.c **** 	UsbPrintf("load end\n");
 890:App/Src/command.c **** }
 891:App/Src/command.c **** 
 892:App/Src/command.c **** void AT_HOTVOLTAGE_Handle(char* command)
 893:App/Src/command.c **** {
 894:App/Src/command.c **** 	float number;
 895:App/Src/command.c **** 	CharToFloat(command, strSearch(command, "=") + 1, &number);
 896:App/Src/command.c **** 	rtc_otp_power(number);//配置dac电压
 897:App/Src/command.c **** 	UsbPrintf("OK\n");
 898:App/Src/command.c **** }
 899:App/Src/command.c **** 
 900:App/Src/command.c **** void AT_TEMPADC_Handle(char* command)
 901:App/Src/command.c **** {
 1118              		.loc 1 901 1 is_stmt 1 view -0
 1119              		.cfi_startproc
 1120              		@ args = 0, pretend = 0, frame = 8
 1121              		@ frame_needed = 0, uses_anonymous_args = 0
 1122              		.loc 1 901 1 is_stmt 0 view .LVU205
 1123 0000 00B5     		push	{lr}
 1124              	.LCFI24:
 1125              		.cfi_def_cfa_offset 4
 1126              		.cfi_offset 14, -4
 1127 0002 83B0     		sub	sp, sp, #12
 1128              	.LCFI25:
 1129              		.cfi_def_cfa_offset 16
 902:App/Src/command.c **** 	uint16_t temp_adc = 0;
 1130              		.loc 1 902 2 is_stmt 1 view .LVU206
 1131              		.loc 1 902 11 is_stmt 0 view .LVU207
 1132 0004 0023     		movs	r3, #0
 1133 0006 ADF80630 		strh	r3, [sp, #6]	@ movhi
 903:App/Src/command.c **** 	uint8_t result;
 1134              		.loc 1 903 2 is_stmt 1 view .LVU208
 904:App/Src/command.c **** 	result = wave1006_read_temp_adc(&temp_adc);
 1135              		.loc 1 904 2 view .LVU209
 1136              		.loc 1 904 11 is_stmt 0 view .LVU210
 1137 000a 0DF10600 		add	r0, sp, #6
 1138              	.LVL115:
 1139              		.loc 1 904 11 view .LVU211
 1140 000e FFF7FEFF 		bl	wave1006_read_temp_adc
 1141              	.LVL116:
 1142 0012 0246     		mov	r2, r0
 1143              	.LVL117:
 905:App/Src/command.c **** 	UsbPrintf("temp adc:%d, i2c[%d]\n", temp_adc, result);
 1144              		.loc 1 905 2 is_stmt 1 view .LVU212
 1145 0014 BDF80610 		ldrh	r1, [sp, #6]
 1146 0018 0448     		ldr	r0, .L73
 1147 001a FFF7FEFF 		bl	UsbPrintf
 1148              	.LVL118:
 906:App/Src/command.c **** 	// uint8_t buf[8] = {0};
ARM GAS  C:\Users\86158\AppData\Local\Temp\ccFxKACN.s 			page 41


 907:App/Src/command.c **** 	// uint8_t i;
 908:App/Src/command.c **** 	// rtc_group_power(1, POWER_I2C);
 909:App/Src/command.c **** 	// rtc_set_channel(1, RTC_SD8840);
 910:App/Src/command.c **** 	// g_rtcChanenel = 1;
 911:App/Src/command.c **** 	// HAL_Delay(10);
 912:App/Src/command.c **** 	// spi_read_multi_bytes(0x00, buf, 8);
 913:App/Src/command.c **** 	// UsbPrintf("read group[%d] reg[0x%x]:", 1, 0);
 914:App/Src/command.c **** 	// for (i = 0; i < 8; i++) {
 915:App/Src/command.c **** 	// 	UsbPrintf("0x%02x ", buf[i]);
 916:App/Src/command.c **** 	// }
 917:App/Src/command.c **** 	UsbPrintf("\nOK\n");
 1149              		.loc 1 917 2 view .LVU213
 1150 001e 0448     		ldr	r0, .L73+4
 1151 0020 FFF7FEFF 		bl	UsbPrintf
 1152              	.LVL119:
 918:App/Src/command.c **** }
 1153              		.loc 1 918 1 is_stmt 0 view .LVU214
 1154 0024 03B0     		add	sp, sp, #12
 1155              	.LCFI26:
 1156              		.cfi_def_cfa_offset 4
 1157              		@ sp needed
 1158 0026 5DF804FB 		ldr	pc, [sp], #4
 1159              	.L74:
 1160 002a 00BF     		.align	2
 1161              	.L73:
 1162 002c 00000000 		.word	.LC27
 1163 0030 58000000 		.word	.LC7
 1164              		.cfi_endproc
 1165              	.LFE275:
 1167              		.section	.text.DevicePrintf,"ax",%progbits
 1168              		.align	1
 1169              		.global	DevicePrintf
 1170              		.syntax unified
 1171              		.thumb
 1172              		.thumb_func
 1174              	DevicePrintf:
 1175              	.LVL120:
 1176              	.LFB239:
  89:App/Src/command.c **** 	va_list ap;//
 1177              		.loc 1 89 1 is_stmt 1 view -0
 1178              		.cfi_startproc
 1179              		@ args = 4, pretend = 16, frame = 8
 1180              		@ frame_needed = 0, uses_anonymous_args = 1
  89:App/Src/command.c **** 	va_list ap;//
 1181              		.loc 1 89 1 is_stmt 0 view .LVU216
 1182 0000 0FB4     		push	{r0, r1, r2, r3}
 1183              	.LCFI27:
 1184              		.cfi_def_cfa_offset 16
 1185              		.cfi_offset 0, -16
 1186              		.cfi_offset 1, -12
 1187              		.cfi_offset 2, -8
 1188              		.cfi_offset 3, -4
 1189 0002 F0B5     		push	{r4, r5, r6, r7, lr}
 1190              	.LCFI28:
 1191              		.cfi_def_cfa_offset 36
 1192              		.cfi_offset 4, -36
 1193              		.cfi_offset 5, -32
ARM GAS  C:\Users\86158\AppData\Local\Temp\ccFxKACN.s 			page 42


 1194              		.cfi_offset 6, -28
 1195              		.cfi_offset 7, -24
 1196              		.cfi_offset 14, -20
 1197 0004 83B0     		sub	sp, sp, #12
 1198              	.LCFI29:
 1199              		.cfi_def_cfa_offset 48
 1200 0006 08AD     		add	r5, sp, #32
 1201 0008 55F8047B 		ldr	r7, [r5], #4
  90:App/Src/command.c **** 	memset(g_DeviceTxBuff, 0, UART_TRANSMIT_BUFF_NUMBER);
 1202              		.loc 1 90 2 is_stmt 1 view .LVU217
  91:App/Src/command.c **** 	va_start(ap, fmt);//
 1203              		.loc 1 91 2 view .LVU218
 1204 000c 0E4C     		ldr	r4, .L77
 1205 000e 4FF49676 		mov	r6, #300
 1206 0012 3246     		mov	r2, r6
 1207 0014 0021     		movs	r1, #0
 1208 0016 2046     		mov	r0, r4
 1209 0018 FFF7FEFF 		bl	memset
 1210              	.LVL121:
  92:App/Src/command.c **** 	vsnprintf((char*)g_DeviceTxBuff, UART_TRANSMIT_BUFF_NUMBER, fmt, ap);//
 1211              		.loc 1 92 2 view .LVU219
 1212 001c 0195     		str	r5, [sp, #4]
  93:App/Src/command.c **** 	va_end(ap);
 1213              		.loc 1 93 2 view .LVU220
 1214 001e 2B46     		mov	r3, r5
 1215 0020 3A46     		mov	r2, r7
 1216 0022 3146     		mov	r1, r6
 1217 0024 2046     		mov	r0, r4
 1218 0026 FFF7FEFF 		bl	vsnprintf
 1219              	.LVL122:
  94:App/Src/command.c **** 	HAL_UART_Transmit(&huart2, g_DeviceTxBuff, strlen((char*)g_DeviceTxBuff), 1000);
 1220              		.loc 1 94 2 view .LVU221
  95:App/Src/command.c **** }
 1221              		.loc 1 95 2 view .LVU222
  95:App/Src/command.c **** }
 1222              		.loc 1 95 45 is_stmt 0 view .LVU223
 1223 002a 2046     		mov	r0, r4
 1224 002c FFF7FEFF 		bl	strlen
 1225              	.LVL123:
  95:App/Src/command.c **** }
 1226              		.loc 1 95 2 view .LVU224
 1227 0030 4FF47A73 		mov	r3, #1000
 1228 0034 82B2     		uxth	r2, r0
 1229 0036 2146     		mov	r1, r4
 1230 0038 0448     		ldr	r0, .L77+4
 1231 003a FFF7FEFF 		bl	HAL_UART_Transmit
 1232              	.LVL124:
  96:App/Src/command.c **** 
 1233              		.loc 1 96 1 view .LVU225
 1234 003e 03B0     		add	sp, sp, #12
 1235              	.LCFI30:
 1236              		.cfi_def_cfa_offset 36
 1237              		@ sp needed
 1238 0040 BDE8F040 		pop	{r4, r5, r6, r7, lr}
 1239              	.LCFI31:
 1240              		.cfi_restore 14
 1241              		.cfi_restore 7
ARM GAS  C:\Users\86158\AppData\Local\Temp\ccFxKACN.s 			page 43


 1242              		.cfi_restore 6
 1243              		.cfi_restore 5
 1244              		.cfi_restore 4
 1245              		.cfi_def_cfa_offset 16
 1246 0044 04B0     		add	sp, sp, #16
 1247              	.LCFI32:
 1248              		.cfi_restore 3
 1249              		.cfi_restore 2
 1250              		.cfi_restore 1
 1251              		.cfi_restore 0
 1252              		.cfi_def_cfa_offset 0
 1253 0046 7047     		bx	lr
 1254              	.L78:
 1255              		.align	2
 1256              	.L77:
 1257 0048 00000000 		.word	.LANCHOR4
 1258 004c 00000000 		.word	huart2
 1259              		.cfi_endproc
 1260              	.LFE239:
 1262              		.section	.rodata.AT_TESTMODE_Handle.str1.4,"aMS",%progbits,1
 1263              		.align	2
 1264              	.LC28:
 1265 0000 6D6F6465 		.ascii	"mode:0\012\000"
 1265      3A300A00 
 1266              		.section	.text.AT_TESTMODE_Handle,"ax",%progbits
 1267              		.align	1
 1268              		.global	AT_TESTMODE_Handle
 1269              		.syntax unified
 1270              		.thumb
 1271              		.thumb_func
 1273              	AT_TESTMODE_Handle:
 1274              	.LVL125:
 1275              	.LFB264:
 584:App/Src/command.c **** 	DevicePrintf("mode:0\n");
 1276              		.loc 1 584 1 is_stmt 1 view -0
 1277              		.cfi_startproc
 1278              		@ args = 0, pretend = 0, frame = 0
 1279              		@ frame_needed = 0, uses_anonymous_args = 0
 584:App/Src/command.c **** 	DevicePrintf("mode:0\n");
 1280              		.loc 1 584 1 is_stmt 0 view .LVU227
 1281 0000 10B5     		push	{r4, lr}
 1282              	.LCFI33:
 1283              		.cfi_def_cfa_offset 8
 1284              		.cfi_offset 4, -8
 1285              		.cfi_offset 14, -4
 585:App/Src/command.c **** 	UsbPrintf("mode:0\n");
 1286              		.loc 1 585 2 is_stmt 1 view .LVU228
 1287 0002 044C     		ldr	r4, .L81
 1288 0004 2046     		mov	r0, r4
 1289              	.LVL126:
 585:App/Src/command.c **** 	UsbPrintf("mode:0\n");
 1290              		.loc 1 585 2 is_stmt 0 view .LVU229
 1291 0006 FFF7FEFF 		bl	DevicePrintf
 1292              	.LVL127:
 586:App/Src/command.c **** }
 1293              		.loc 1 586 2 is_stmt 1 view .LVU230
 1294 000a 2046     		mov	r0, r4
ARM GAS  C:\Users\86158\AppData\Local\Temp\ccFxKACN.s 			page 44


 1295 000c FFF7FEFF 		bl	UsbPrintf
 1296              	.LVL128:
 587:App/Src/command.c **** 
 1297              		.loc 1 587 1 is_stmt 0 view .LVU231
 1298 0010 10BD     		pop	{r4, pc}
 1299              	.L82:
 1300 0012 00BF     		.align	2
 1301              	.L81:
 1302 0014 00000000 		.word	.LC28
 1303              		.cfi_endproc
 1304              	.LFE264:
 1306              		.section	.rodata.UsartInit.str1.4,"aMS",%progbits,1
 1307              		.align	2
 1308              	.LC29:
 1309 0000 75736220 		.ascii	"usb usart init success......\012\000"
 1309      75736172 
 1309      7420696E 
 1309      69742073 
 1309      75636365 
 1310 001e 0000     		.align	2
 1311              	.LC30:
 1312 0020 43533132 		.ascii	"CS1237 init success\012\000"
 1312      33372069 
 1312      6E697420 
 1312      73756363 
 1312      6573730A 
 1313 0035 000000   		.align	2
 1314              	.LC31:
 1315 0038 43533132 		.ascii	"CS1237 init error\012\000"
 1315      33372069 
 1315      6E697420 
 1315      6572726F 
 1315      720A00
 1316 004b 00       		.align	2
 1317              	.LC32:
 1318 004c 3A46554E 		.ascii	":FUNC \"FREQ\"\012\000"
 1318      43202246 
 1318      52455122 
 1318      0A00
 1319 005a 0000     		.align	2
 1320              	.LC33:
 1321 005c 3A465245 		.ascii	":FREQ:ARM 500mS\012\000"
 1321      513A4152 
 1321      4D203530 
 1321      306D530A 
 1321      00
 1322 006d 000000   		.align	2
 1323              	.LC34:
 1324 0070 3A494E50 		.ascii	":INP:FILT 1\012\000"
 1324      3A46494C 
 1324      5420310A 
 1324      00
 1325 007d 000000   		.align	2
 1326              	.LC35:
 1327 0080 3A455645 		.ascii	":EVEN:LEV +1.50V\012\000"
 1327      4E3A4C45 
 1327      56202B31 
ARM GAS  C:\Users\86158\AppData\Local\Temp\ccFxKACN.s 			page 45


 1327      2E353056 
 1327      0A00
 1328 0092 0000     		.align	2
 1329              	.LC36:
 1330 0094 3A534C4F 		.ascii	":SLOP NEG\012\000"
 1330      50204E45 
 1330      470A00
 1331              		.section	.text.UsartInit,"ax",%progbits
 1332              		.align	1
 1333              		.global	UsartInit
 1334              		.syntax unified
 1335              		.thumb
 1336              		.thumb_func
 1338              	UsartInit:
 1339              	.LFB240:
  99:App/Src/command.c **** 	HAL_UART_Receive_IT(&huart1, &usbRxBuf, 1);		
 1340              		.loc 1 99 1 is_stmt 1 view -0
 1341              		.cfi_startproc
 1342              		@ args = 0, pretend = 0, frame = 0
 1343              		@ frame_needed = 0, uses_anonymous_args = 0
 1344 0000 38B5     		push	{r3, r4, r5, lr}
 1345              	.LCFI34:
 1346              		.cfi_def_cfa_offset 16
 1347              		.cfi_offset 3, -16
 1348              		.cfi_offset 4, -12
 1349              		.cfi_offset 5, -8
 1350              		.cfi_offset 14, -4
 100:App/Src/command.c ****     memset(g_UsbRxBuff, 0x00, sizeof(g_UsbRxBuff));
 1351              		.loc 1 100 2 view .LVU233
 1352 0002 0122     		movs	r2, #1
 1353 0004 2E49     		ldr	r1, .L87
 1354 0006 2F48     		ldr	r0, .L87+4
 1355 0008 FFF7FEFF 		bl	HAL_UART_Receive_IT
 1356              	.LVL129:
 101:App/Src/command.c **** 	memset(g_UsbTxBuff, 0x00, sizeof(g_UsbTxBuff));
 1357              		.loc 1 101 5 view .LVU234
 1358 000c C825     		movs	r5, #200
 1359 000e 2A46     		mov	r2, r5
 1360 0010 0021     		movs	r1, #0
 1361 0012 2D48     		ldr	r0, .L87+8
 1362 0014 FFF7FEFF 		bl	memset
 1363              	.LVL130:
 102:App/Src/command.c **** 	HAL_UART_Receive_IT(&huart2, &deviceRxBuf, 1);		
 1364              		.loc 1 102 2 view .LVU235
 1365 0018 4FF49674 		mov	r4, #300
 1366 001c 2246     		mov	r2, r4
 1367 001e 0021     		movs	r1, #0
 1368 0020 2A48     		ldr	r0, .L87+12
 1369 0022 FFF7FEFF 		bl	memset
 1370              	.LVL131:
 103:App/Src/command.c ****     memset(g_DeviceRxBuff, 0x00, sizeof(g_DeviceRxBuff));
 1371              		.loc 1 103 2 view .LVU236
 1372 0026 0122     		movs	r2, #1
 1373 0028 2949     		ldr	r1, .L87+16
 1374 002a 2A48     		ldr	r0, .L87+20
 1375 002c FFF7FEFF 		bl	HAL_UART_Receive_IT
 1376              	.LVL132:
ARM GAS  C:\Users\86158\AppData\Local\Temp\ccFxKACN.s 			page 46


 104:App/Src/command.c **** 	memset(g_DeviceTxBuff, 0x00, sizeof(g_DeviceTxBuff));
 1377              		.loc 1 104 5 view .LVU237
 1378 0030 2A46     		mov	r2, r5
 1379 0032 0021     		movs	r1, #0
 1380 0034 2848     		ldr	r0, .L87+24
 1381 0036 FFF7FEFF 		bl	memset
 1382              	.LVL133:
 105:App/Src/command.c **** 	ControlInit();
 1383              		.loc 1 105 2 view .LVU238
 1384 003a 2246     		mov	r2, r4
 1385 003c 0021     		movs	r1, #0
 1386 003e 2748     		ldr	r0, .L87+28
 1387 0040 FFF7FEFF 		bl	memset
 1388              	.LVL134:
 106:App/Src/command.c **** 
 1389              		.loc 1 106 2 view .LVU239
 1390 0044 FFF7FEFF 		bl	ControlInit
 1391              	.LVL135:
 108:App/Src/command.c ****     UsbPrintf("usb usart init success......\n");
 1392              		.loc 1 108 5 view .LVU240
 1393 0048 6420     		movs	r0, #100
 1394 004a FFF7FEFF 		bl	HAL_Delay
 1395              	.LVL136:
 109:App/Src/command.c **** 	HAL_GPIO_WritePin(GPIOD, GPIO_PIN_10, GPIO_PIN_RESET); 
 1396              		.loc 1 109 5 view .LVU241
 1397 004e 2448     		ldr	r0, .L87+32
 1398 0050 FFF7FEFF 		bl	UsbPrintf
 1399              	.LVL137:
 110:App/Src/command.c **** 	UsbPrintf("VDD is 3.3V\n");
 1400              		.loc 1 110 2 view .LVU242
 1401 0054 0022     		movs	r2, #0
 1402 0056 4FF48061 		mov	r1, #1024
 1403 005a 2248     		ldr	r0, .L87+36
 1404 005c FFF7FEFF 		bl	HAL_GPIO_WritePin
 1405              	.LVL138:
 111:App/Src/command.c **** 	rtc_otp_power(0);//配置dac电压
 1406              		.loc 1 111 2 view .LVU243
 1407 0060 2148     		ldr	r0, .L87+40
 1408 0062 FFF7FEFF 		bl	UsbPrintf
 1409              	.LVL139:
 112:App/Src/command.c **** 	if (CS1237Init()) {
 1410              		.loc 1 112 2 view .LVU244
 1411 0066 9FED210A 		vldr.32	s0, .L87+44
 1412 006a FFF7FEFF 		bl	rtc_otp_power
 1413              	.LVL140:
 113:App/Src/command.c ****     	UsbPrintf("CS1237 init success\n");
 1414              		.loc 1 113 2 view .LVU245
 113:App/Src/command.c ****     	UsbPrintf("CS1237 init success\n");
 1415              		.loc 1 113 6 is_stmt 0 view .LVU246
 1416 006e FFF7FEFF 		bl	CS1237Init
 1417              	.LVL141:
 113:App/Src/command.c ****     	UsbPrintf("CS1237 init success\n");
 1418              		.loc 1 113 5 view .LVU247
 1419 0072 08B3     		cbz	r0, .L84
 114:App/Src/command.c **** 	} else {
 1420              		.loc 1 114 6 is_stmt 1 view .LVU248
 1421 0074 1E48     		ldr	r0, .L87+48
ARM GAS  C:\Users\86158\AppData\Local\Temp\ccFxKACN.s 			page 47


 1422 0076 FFF7FEFF 		bl	UsbPrintf
 1423              	.LVL142:
 1424              	.L85:
 118:App/Src/command.c ****     HAL_Delay(100);
 1425              		.loc 1 118 2 view .LVU249
 1426 007a 1E48     		ldr	r0, .L87+52
 1427 007c FFF7FEFF 		bl	DevicePrintf
 1428              	.LVL143:
 119:App/Src/command.c **** 	DevicePrintf(":FREQ:ARM 500mS\n");
 1429              		.loc 1 119 5 view .LVU250
 1430 0080 6420     		movs	r0, #100
 1431 0082 FFF7FEFF 		bl	HAL_Delay
 1432              	.LVL144:
 120:App/Src/command.c ****     HAL_Delay(100);
 1433              		.loc 1 120 2 view .LVU251
 1434 0086 1C48     		ldr	r0, .L87+56
 1435 0088 FFF7FEFF 		bl	DevicePrintf
 1436              	.LVL145:
 121:App/Src/command.c **** 	DevicePrintf(":INP:FILT 1\n");
 1437              		.loc 1 121 5 view .LVU252
 1438 008c 6420     		movs	r0, #100
 1439 008e FFF7FEFF 		bl	HAL_Delay
 1440              	.LVL146:
 122:App/Src/command.c ****     HAL_Delay(100);
 1441              		.loc 1 122 2 view .LVU253
 1442 0092 1A48     		ldr	r0, .L87+60
 1443 0094 FFF7FEFF 		bl	DevicePrintf
 1444              	.LVL147:
 123:App/Src/command.c **** 	DevicePrintf(":EVEN:LEV +1.50V\n");
 1445              		.loc 1 123 5 view .LVU254
 1446 0098 6420     		movs	r0, #100
 1447 009a FFF7FEFF 		bl	HAL_Delay
 1448              	.LVL148:
 124:App/Src/command.c ****     HAL_Delay(100);
 1449              		.loc 1 124 2 view .LVU255
 1450 009e 1848     		ldr	r0, .L87+64
 1451 00a0 FFF7FEFF 		bl	DevicePrintf
 1452              	.LVL149:
 125:App/Src/command.c **** 	DevicePrintf(":SLOP NEG\n");
 1453              		.loc 1 125 5 view .LVU256
 1454 00a4 6420     		movs	r0, #100
 1455 00a6 FFF7FEFF 		bl	HAL_Delay
 1456              	.LVL150:
 126:App/Src/command.c ****     HAL_Delay(100);
 1457              		.loc 1 126 2 view .LVU257
 1458 00aa 1648     		ldr	r0, .L87+68
 1459 00ac FFF7FEFF 		bl	DevicePrintf
 1460              	.LVL151:
 127:App/Src/command.c **** }
 1461              		.loc 1 127 5 view .LVU258
 1462 00b0 6420     		movs	r0, #100
 1463 00b2 FFF7FEFF 		bl	HAL_Delay
 1464              	.LVL152:
 128:App/Src/command.c **** 
 1465              		.loc 1 128 1 is_stmt 0 view .LVU259
 1466 00b6 38BD     		pop	{r3, r4, r5, pc}
 1467              	.L84:
ARM GAS  C:\Users\86158\AppData\Local\Temp\ccFxKACN.s 			page 48


 116:App/Src/command.c **** 	}
 1468              		.loc 1 116 6 is_stmt 1 view .LVU260
 1469 00b8 1348     		ldr	r0, .L87+72
 1470 00ba FFF7FEFF 		bl	UsbPrintf
 1471              	.LVL153:
 1472 00be DCE7     		b	.L85
 1473              	.L88:
 1474              		.align	2
 1475              	.L87:
 1476 00c0 00000000 		.word	.LANCHOR5
 1477 00c4 00000000 		.word	huart1
 1478 00c8 00000000 		.word	.LANCHOR6
 1479 00cc 00000000 		.word	.LANCHOR0
 1480 00d0 00000000 		.word	.LANCHOR7
 1481 00d4 00000000 		.word	huart2
 1482 00d8 00000000 		.word	.LANCHOR8
 1483 00dc 00000000 		.word	.LANCHOR4
 1484 00e0 00000000 		.word	.LC29
 1485 00e4 000C0240 		.word	1073875968
 1486 00e8 00000000 		.word	.LC12
 1487 00ec 00000000 		.word	0
 1488 00f0 20000000 		.word	.LC30
 1489 00f4 4C000000 		.word	.LC32
 1490 00f8 5C000000 		.word	.LC33
 1491 00fc 70000000 		.word	.LC34
 1492 0100 80000000 		.word	.LC35
 1493 0104 94000000 		.word	.LC36
 1494 0108 38000000 		.word	.LC31
 1495              		.cfi_endproc
 1496              	.LFE240:
 1498              		.section	.text.strSearch,"ax",%progbits
 1499              		.align	1
 1500              		.global	strSearch
 1501              		.syntax unified
 1502              		.thumb
 1503              		.thumb_func
 1505              	strSearch:
 1506              	.LVL154:
 1507              	.LFB241:
 131:App/Src/command.c **** 	int len_source = strlen(source);
 1508              		.loc 1 131 1 view -0
 1509              		.cfi_startproc
 1510              		@ args = 0, pretend = 0, frame = 0
 1511              		@ frame_needed = 0, uses_anonymous_args = 0
 131:App/Src/command.c **** 	int len_source = strlen(source);
 1512              		.loc 1 131 1 is_stmt 0 view .LVU262
 1513 0000 70B5     		push	{r4, r5, r6, lr}
 1514              	.LCFI35:
 1515              		.cfi_def_cfa_offset 16
 1516              		.cfi_offset 4, -16
 1517              		.cfi_offset 5, -12
 1518              		.cfi_offset 6, -8
 1519              		.cfi_offset 14, -4
 1520 0002 0546     		mov	r5, r0
 1521 0004 0C46     		mov	r4, r1
 132:App/Src/command.c **** 	int len_target = strlen(target);
 1522              		.loc 1 132 2 is_stmt 1 view .LVU263
ARM GAS  C:\Users\86158\AppData\Local\Temp\ccFxKACN.s 			page 49


 132:App/Src/command.c **** 	int len_target = strlen(target);
 1523              		.loc 1 132 19 is_stmt 0 view .LVU264
 1524 0006 FFF7FEFF 		bl	strlen
 1525              	.LVL155:
 132:App/Src/command.c **** 	int len_target = strlen(target);
 1526              		.loc 1 132 19 view .LVU265
 1527 000a 0646     		mov	r6, r0
 1528              	.LVL156:
 133:App/Src/command.c **** 	int i, j;
 1529              		.loc 1 133 2 is_stmt 1 view .LVU266
 133:App/Src/command.c **** 	int i, j;
 1530              		.loc 1 133 19 is_stmt 0 view .LVU267
 1531 000c 2046     		mov	r0, r4
 1532              	.LVL157:
 133:App/Src/command.c **** 	int i, j;
 1533              		.loc 1 133 19 view .LVU268
 1534 000e FFF7FEFF 		bl	strlen
 1535              	.LVL158:
 134:App/Src/command.c **** 	if (len_source < len_target) {
 1536              		.loc 1 134 2 is_stmt 1 view .LVU269
 135:App/Src/command.c **** 		return -1;
 1537              		.loc 1 135 2 view .LVU270
 135:App/Src/command.c **** 		return -1;
 1538              		.loc 1 135 5 is_stmt 0 view .LVU271
 1539 0012 8642     		cmp	r6, r0
 1540 0014 16DB     		blt	.L95
 1541 0016 0146     		mov	r1, r0
 138:App/Src/command.c **** 		for (j = 0; j < len_target; j++) {
 1542              		.loc 1 138 9 view .LVU272
 1543 0018 0020     		movs	r0, #0
 1544              	.LVL159:
 138:App/Src/command.c **** 		for (j = 0; j < len_target; j++) {
 1545              		.loc 1 138 9 view .LVU273
 1546 001a 02E0     		b	.L91
 1547              	.LVL160:
 1548              	.L92:
 142:App/Src/command.c **** 	}
 1549              		.loc 1 142 3 is_stmt 1 view .LVU274
 142:App/Src/command.c **** 	}
 1550              		.loc 1 142 6 is_stmt 0 view .LVU275
 1551 001c 8B42     		cmp	r3, r1
 1552 001e 10D0     		beq	.L89
 138:App/Src/command.c **** 		for (j = 0; j < len_target; j++) {
 1553              		.loc 1 138 44 is_stmt 1 discriminator 2 view .LVU276
 138:App/Src/command.c **** 		for (j = 0; j < len_target; j++) {
 1554              		.loc 1 138 45 is_stmt 0 discriminator 2 view .LVU277
 1555 0020 0130     		adds	r0, r0, #1
 1556              	.LVL161:
 1557              	.L91:
 138:App/Src/command.c **** 		for (j = 0; j < len_target; j++) {
 1558              		.loc 1 138 14 is_stmt 1 discriminator 1 view .LVU278
 138:App/Src/command.c **** 		for (j = 0; j < len_target; j++) {
 1559              		.loc 1 138 30 is_stmt 0 discriminator 1 view .LVU279
 1560 0022 731A     		subs	r3, r6, r1
 138:App/Src/command.c **** 		for (j = 0; j < len_target; j++) {
 1561              		.loc 1 138 2 discriminator 1 view .LVU280
 1562 0024 8342     		cmp	r3, r0
ARM GAS  C:\Users\86158\AppData\Local\Temp\ccFxKACN.s 			page 50


 1563 0026 0ADB     		blt	.L98
 139:App/Src/command.c **** 			if (source[i + j] != target[j]) { break;}
 1564              		.loc 1 139 10 view .LVU281
 1565 0028 0023     		movs	r3, #0
 1566              	.L94:
 1567              	.LVL162:
 139:App/Src/command.c **** 			if (source[i + j] != target[j]) { break;}
 1568              		.loc 1 139 15 is_stmt 1 discriminator 1 view .LVU282
 139:App/Src/command.c **** 			if (source[i + j] != target[j]) { break;}
 1569              		.loc 1 139 3 is_stmt 0 discriminator 1 view .LVU283
 1570 002a 8B42     		cmp	r3, r1
 1571 002c F6DA     		bge	.L92
 140:App/Src/command.c **** 		}
 1572              		.loc 1 140 4 is_stmt 1 view .LVU284
 140:App/Src/command.c **** 		}
 1573              		.loc 1 140 17 is_stmt 0 view .LVU285
 1574 002e C218     		adds	r2, r0, r3
 140:App/Src/command.c **** 		}
 1575              		.loc 1 140 14 view .LVU286
 1576 0030 15F802C0 		ldrb	ip, [r5, r2]	@ zero_extendqisi2
 140:App/Src/command.c **** 		}
 1577              		.loc 1 140 31 view .LVU287
 1578 0034 E25C     		ldrb	r2, [r4, r3]	@ zero_extendqisi2
 140:App/Src/command.c **** 		}
 1579              		.loc 1 140 7 view .LVU288
 1580 0036 9445     		cmp	ip, r2
 1581 0038 F0D1     		bne	.L92
 139:App/Src/command.c **** 			if (source[i + j] != target[j]) { break;}
 1582              		.loc 1 139 31 is_stmt 1 discriminator 2 view .LVU289
 139:App/Src/command.c **** 			if (source[i + j] != target[j]) { break;}
 1583              		.loc 1 139 32 is_stmt 0 discriminator 2 view .LVU290
 1584 003a 0133     		adds	r3, r3, #1
 1585              	.LVL163:
 139:App/Src/command.c **** 			if (source[i + j] != target[j]) { break;}
 1586              		.loc 1 139 32 discriminator 2 view .LVU291
 1587 003c F5E7     		b	.L94
 1588              	.LVL164:
 1589              	.L98:
 144:App/Src/command.c **** }
 1590              		.loc 1 144 9 view .LVU292
 1591 003e 4FF0FF30 		mov	r0, #-1
 1592              	.LVL165:
 1593              	.L89:
 145:App/Src/command.c **** 
 1594              		.loc 1 145 1 view .LVU293
 1595 0042 70BD     		pop	{r4, r5, r6, pc}
 1596              	.LVL166:
 1597              	.L95:
 136:App/Src/command.c **** 	}		
 1598              		.loc 1 136 10 view .LVU294
 1599 0044 4FF0FF30 		mov	r0, #-1
 1600              	.LVL167:
 136:App/Src/command.c **** 	}		
 1601              		.loc 1 136 10 view .LVU295
 1602 0048 FBE7     		b	.L89
 1603              		.cfi_endproc
 1604              	.LFE241:
ARM GAS  C:\Users\86158\AppData\Local\Temp\ccFxKACN.s 			page 51


 1606              		.section	.rodata.AT_FREQTEST_Handle.str1.4,"aMS",%progbits,1
 1607              		.align	2
 1608              	.LC37:
 1609 0000 3A4D4541 		.ascii	":MEAS?\012\000"
 1609      533F0A00 
 1610              		.align	2
 1611              	.LC38:
 1612 0008 487A00   		.ascii	"Hz\000"
 1613 000b 00       		.align	2
 1614              	.LC39:
 1615 000c 25730A00 		.ascii	"%s\012\000"
 1616              		.align	2
 1617              	.LC40:
 1618 0010 64657669 		.ascii	"device no respose!\012\000"
 1618      6365206E 
 1618      6F207265 
 1618      73706F73 
 1618      65210A00 
 1619              		.section	.text.AT_FREQTEST_Handle,"ax",%progbits
 1620              		.align	1
 1621              		.global	AT_FREQTEST_Handle
 1622              		.syntax unified
 1623              		.thumb
 1624              		.thumb_func
 1626              	AT_FREQTEST_Handle:
 1627              	.LVL168:
 1628              	.LFB255:
 426:App/Src/command.c **** 	int i;
 1629              		.loc 1 426 1 is_stmt 1 view -0
 1630              		.cfi_startproc
 1631              		@ args = 0, pretend = 0, frame = 0
 1632              		@ frame_needed = 0, uses_anonymous_args = 0
 426:App/Src/command.c **** 	int i;
 1633              		.loc 1 426 1 is_stmt 0 view .LVU297
 1634 0000 10B5     		push	{r4, lr}
 1635              	.LCFI36:
 1636              		.cfi_def_cfa_offset 8
 1637              		.cfi_offset 4, -8
 1638              		.cfi_offset 14, -4
 427:App/Src/command.c **** 	DevicePrintf(":MEAS?\n");
 1639              		.loc 1 427 2 is_stmt 1 view .LVU298
 428:App/Src/command.c **** 	for (i = 0; i < 15; i++) {
 1640              		.loc 1 428 2 view .LVU299
 1641 0002 0F48     		ldr	r0, .L108
 1642              	.LVL169:
 428:App/Src/command.c **** 	for (i = 0; i < 15; i++) {
 1643              		.loc 1 428 2 is_stmt 0 view .LVU300
 1644 0004 FFF7FEFF 		bl	DevicePrintf
 1645              	.LVL170:
 429:App/Src/command.c **** 		HAL_Delay(100);
 1646              		.loc 1 429 2 is_stmt 1 view .LVU301
 429:App/Src/command.c **** 		HAL_Delay(100);
 1647              		.loc 1 429 9 is_stmt 0 view .LVU302
 1648 0008 0024     		movs	r4, #0
 1649              	.LVL171:
 1650              	.L100:
 429:App/Src/command.c **** 		HAL_Delay(100);
ARM GAS  C:\Users\86158\AppData\Local\Temp\ccFxKACN.s 			page 52


 1651              		.loc 1 429 14 is_stmt 1 discriminator 1 view .LVU303
 429:App/Src/command.c **** 		HAL_Delay(100);
 1652              		.loc 1 429 2 is_stmt 0 discriminator 1 view .LVU304
 1653 000a 0E2C     		cmp	r4, #14
 1654 000c 0EDC     		bgt	.L102
 430:App/Src/command.c **** 		if (strSearch((char*)g_DeviceRxBuff, "Hz") > 0) {
 1655              		.loc 1 430 3 is_stmt 1 view .LVU305
 1656 000e 6420     		movs	r0, #100
 1657 0010 FFF7FEFF 		bl	HAL_Delay
 1658              	.LVL172:
 431:App/Src/command.c **** 			UsbPrintf("%s\n", (char*)g_DeviceRxBuff);
 1659              		.loc 1 431 3 view .LVU306
 431:App/Src/command.c **** 			UsbPrintf("%s\n", (char*)g_DeviceRxBuff);
 1660              		.loc 1 431 7 is_stmt 0 view .LVU307
 1661 0014 0B49     		ldr	r1, .L108+4
 1662 0016 0C48     		ldr	r0, .L108+8
 1663 0018 FFF7FEFF 		bl	strSearch
 1664              	.LVL173:
 431:App/Src/command.c **** 			UsbPrintf("%s\n", (char*)g_DeviceRxBuff);
 1665              		.loc 1 431 6 view .LVU308
 1666 001c 0028     		cmp	r0, #0
 1667 001e 01DC     		bgt	.L106
 429:App/Src/command.c **** 		HAL_Delay(100);
 1668              		.loc 1 429 22 is_stmt 1 discriminator 2 view .LVU309
 429:App/Src/command.c **** 		HAL_Delay(100);
 1669              		.loc 1 429 23 is_stmt 0 discriminator 2 view .LVU310
 1670 0020 0134     		adds	r4, r4, #1
 1671              	.LVL174:
 429:App/Src/command.c **** 		HAL_Delay(100);
 1672              		.loc 1 429 23 discriminator 2 view .LVU311
 1673 0022 F2E7     		b	.L100
 1674              	.L106:
 432:App/Src/command.c **** 			break;
 1675              		.loc 1 432 4 is_stmt 1 view .LVU312
 1676 0024 0849     		ldr	r1, .L108+8
 1677 0026 0948     		ldr	r0, .L108+12
 1678 0028 FFF7FEFF 		bl	UsbPrintf
 1679              	.LVL175:
 433:App/Src/command.c **** 		}
 1680              		.loc 1 433 4 view .LVU313
 1681              	.L102:
 436:App/Src/command.c **** 		UsbPrintf("device no respose!\n");
 1682              		.loc 1 436 2 view .LVU314
 436:App/Src/command.c **** 		UsbPrintf("device no respose!\n");
 1683              		.loc 1 436 5 is_stmt 0 view .LVU315
 1684 002c 0E2C     		cmp	r4, #14
 1685 002e 03DC     		bgt	.L107
 1686              	.L104:
 440:App/Src/command.c **** }
 1687              		.loc 1 440 2 is_stmt 1 view .LVU316
 1688 0030 0748     		ldr	r0, .L108+16
 1689 0032 FFF7FEFF 		bl	UsbPrintf
 1690              	.LVL176:
 441:App/Src/command.c **** 
 1691              		.loc 1 441 1 is_stmt 0 view .LVU317
 1692 0036 10BD     		pop	{r4, pc}
 1693              	.LVL177:
ARM GAS  C:\Users\86158\AppData\Local\Temp\ccFxKACN.s 			page 53


 1694              	.L107:
 437:App/Src/command.c **** 	}
 1695              		.loc 1 437 3 is_stmt 1 view .LVU318
 1696 0038 0648     		ldr	r0, .L108+20
 1697 003a FFF7FEFF 		bl	UsbPrintf
 1698              	.LVL178:
 1699 003e F7E7     		b	.L104
 1700              	.L109:
 1701              		.align	2
 1702              	.L108:
 1703 0040 00000000 		.word	.LC37
 1704 0044 08000000 		.word	.LC38
 1705 0048 00000000 		.word	.LANCHOR8
 1706 004c 0C000000 		.word	.LC39
 1707 0050 1C000000 		.word	.LC14
 1708 0054 10000000 		.word	.LC40
 1709              		.cfi_endproc
 1710              	.LFE255:
 1712              		.section	.rodata.AT_RESULT_Handle.str1.4,"aMS",%progbits,1
 1713              		.align	2
 1714              	.LC42:
 1715 0000 41545E52 		.ascii	"AT^RESULT?\000"
 1715      4553554C 
 1715      543F00
 1716 000b 00       		.align	2
 1717              	.LC43:
 1718 000c 616C6C3A 		.ascii	"all:%d,ok:%d,ng:%d\012\000"
 1718      25642C6F 
 1718      6B3A2564 
 1718      2C6E673A 
 1718      25640A00 
 1719              		.align	2
 1720              	.LC44:
 1721 0020 616C6C3A 		.ascii	"all:%d,ok:%d,ng:%d\000"
 1721      25642C6F 
 1721      6B3A2564 
 1721      2C6E673A 
 1721      256400
 1722 0033 00       		.align	2
 1723              	.LC45:
 1724 0034 5D0A00   		.ascii	"]\012\000"
 1725 0037 00       		.align	2
 1726              	.LC46:
 1727 0038 5D00     		.ascii	"]\000"
 1728 003a 0000     		.align	2
 1729              	.LC47:
 1730 003c 5B00     		.ascii	"[\000"
 1731 003e 0000     		.align	2
 1732              	.LC48:
 1733 0040 256300   		.ascii	"%c\000"
 1734 0043 00       		.align	2
 1735              	.LC49:
 1736 0044 4552524F 		.ascii	"ERROR\012\000"
 1736      520A00
 1737 004b 00       		.align	2
 1738              	.LC41:
 1739 004c 01010101 		.ascii	"\001\001\001\001\001\001\001\001\001\001\001\001\001"
ARM GAS  C:\Users\86158\AppData\Local\Temp\ccFxKACN.s 			page 54


 1739      01010101 
 1739      01010101 
 1739      01
 1740 0059 01010101 		.ascii	"\001\001\001\001\001\001\001\001\001\001\001\001\001"
 1740      01010101 
 1740      01010101 
 1740      01
 1741 0066 01010101 		.ascii	"\001\001\001\001\001\001\001\001\001\001\001\001\001"
 1741      01010101 
 1741      01010101 
 1741      01
 1742 0073 01010101 		.ascii	"\001\001\001\001\001\001\001\001\001\001\001\001\001"
 1742      01010101 
 1742      01010101 
 1742      01
 1743 0080 01010101 		.ascii	"\001\001\001\001\001\001\001\001\001\001\001\001\001"
 1743      01010101 
 1743      01010101 
 1743      01
 1744 008d 01010101 		.ascii	"\001\001\001\001\001\001\001\001\001\001\001\001\001"
 1744      01010101 
 1744      01010101 
 1744      01
 1745 009a 01010101 		.ascii	"\001\001\001\001\001\001\001\001\001\001\001\001\001"
 1745      01010101 
 1745      01010101 
 1745      01
 1746 00a7 01010101 		.ascii	"\001\001\001\001\001\001\001\001\001\000"
 1746      01010101 
 1746      0100
 1747              		.section	.text.AT_RESULT_Handle,"ax",%progbits
 1748              		.align	1
 1749              		.global	AT_RESULT_Handle
 1750              		.syntax unified
 1751              		.thumb
 1752              		.thumb_func
 1754              	AT_RESULT_Handle:
 1755              	.LVL179:
 1756              	.LFB265:
 591:App/Src/command.c **** 	uint8_t g_result[MAX_CHIP_NUMBER] = {
 1757              		.loc 1 591 1 view -0
 1758              		.cfi_startproc
 1759              		@ args = 0, pretend = 0, frame = 200
 1760              		@ frame_needed = 0, uses_anonymous_args = 0
 591:App/Src/command.c **** 	uint8_t g_result[MAX_CHIP_NUMBER] = {
 1761              		.loc 1 591 1 is_stmt 0 view .LVU320
 1762 0000 F0B5     		push	{r4, r5, r6, r7, lr}
 1763              	.LCFI37:
 1764              		.cfi_def_cfa_offset 20
 1765              		.cfi_offset 4, -20
 1766              		.cfi_offset 5, -16
 1767              		.cfi_offset 6, -12
 1768              		.cfi_offset 7, -8
 1769              		.cfi_offset 14, -4
 1770 0002 B3B0     		sub	sp, sp, #204
 1771              	.LCFI38:
 1772              		.cfi_def_cfa_offset 224
ARM GAS  C:\Users\86158\AppData\Local\Temp\ccFxKACN.s 			page 55


 592:App/Src/command.c **** 	1, 1, 1, 1, 1, 1, 1, 1, 1, 1, 1, 1, 1, 1, 1, 1, 1, 1, 1, 1,
 1773              		.loc 1 592 2 is_stmt 1 view .LVU321
 592:App/Src/command.c **** 	1, 1, 1, 1, 1, 1, 1, 1, 1, 1, 1, 1, 1, 1, 1, 1, 1, 1, 1, 1,
 1774              		.loc 1 592 10 is_stmt 0 view .LVU322
 1775 0004 6422     		movs	r2, #100
 1776 0006 6049     		ldr	r1, .L148
 1777 0008 0DEB0200 		add	r0, sp, r2
 1778              	.LVL180:
 592:App/Src/command.c **** 	1, 1, 1, 1, 1, 1, 1, 1, 1, 1, 1, 1, 1, 1, 1, 1, 1, 1, 1, 1,
 1779              		.loc 1 592 10 view .LVU323
 1780 000c FFF7FEFF 		bl	memcpy
 1781              	.LVL181:
 599:App/Src/command.c **** 	int i, j;
 1782              		.loc 1 599 2 is_stmt 1 view .LVU324
 599:App/Src/command.c **** 	int i, j;
 1783              		.loc 1 599 10 is_stmt 0 view .LVU325
 1784 0010 0523     		movs	r3, #5
 1785 0012 0093     		str	r3, [sp]
 1786 0014 6022     		movs	r2, #96
 1787 0016 0021     		movs	r1, #0
 1788 0018 01A8     		add	r0, sp, #4
 1789 001a FFF7FEFF 		bl	memset
 1790              	.LVL182:
 600:App/Src/command.c **** 	uint8_t all = 0, ok = 0, ng = 0;
 1791              		.loc 1 600 2 is_stmt 1 view .LVU326
 601:App/Src/command.c **** 	uint8_t length;
 1792              		.loc 1 601 2 view .LVU327
 602:App/Src/command.c **** 	uint8_t getNumber = 0;
 1793              		.loc 1 602 2 view .LVU328
 603:App/Src/command.c **** 
 1794              		.loc 1 603 2 view .LVU329
 606:App/Src/command.c **** 		for (i = 0; i < MAX_CHIP_NUMBER; i++) {
 1795              		.loc 1 606 2 view .LVU330
 606:App/Src/command.c **** 		for (i = 0; i < MAX_CHIP_NUMBER; i++) {
 1796              		.loc 1 606 6 is_stmt 0 view .LVU331
 1797 001e 5B49     		ldr	r1, .L148+4
 1798 0020 5B48     		ldr	r0, .L148+8
 1799 0022 FFF7FEFF 		bl	strSearch
 1800              	.LVL183:
 606:App/Src/command.c **** 		for (i = 0; i < MAX_CHIP_NUMBER; i++) {
 1801              		.loc 1 606 5 view .LVU332
 1802 0026 F0B1     		cbz	r0, .L137
 606:App/Src/command.c **** 		for (i = 0; i < MAX_CHIP_NUMBER; i++) {
 1803              		.loc 1 606 61 discriminator 1 view .LVU333
 1804 0028 5849     		ldr	r1, .L148+4
 1805 002a 5A48     		ldr	r0, .L148+12
 1806 002c FFF7FEFF 		bl	strSearch
 1807              	.LVL184:
 606:App/Src/command.c **** 		for (i = 0; i < MAX_CHIP_NUMBER; i++) {
 1808              		.loc 1 606 58 discriminator 1 view .LVU334
 1809 0030 0446     		mov	r4, r0
 1810 0032 E8B1     		cbz	r0, .L138
 634:App/Src/command.c **** 		getNumber = 0;
 1811              		.loc 1 634 3 is_stmt 1 view .LVU335
 634:App/Src/command.c **** 		getNumber = 0;
 1812              		.loc 1 634 12 is_stmt 0 view .LVU336
 1813 0034 5648     		ldr	r0, .L148+8
ARM GAS  C:\Users\86158\AppData\Local\Temp\ccFxKACN.s 			page 56


 1814 0036 FFF7FEFF 		bl	strlen
 1815              	.LVL185:
 635:App/Src/command.c **** 		for (i = 0; i < length; i++) {
 1816              		.loc 1 635 3 is_stmt 1 view .LVU337
 636:App/Src/command.c **** 			if (g_DeviceRxBuff[i] == '[') {
 1817              		.loc 1 636 3 view .LVU338
 635:App/Src/command.c **** 		for (i = 0; i < length; i++) {
 1818              		.loc 1 635 13 is_stmt 0 view .LVU339
 1819 003a 0022     		movs	r2, #0
 636:App/Src/command.c **** 			if (g_DeviceRxBuff[i] == '[') {
 1820              		.loc 1 636 10 view .LVU340
 1821 003c 1346     		mov	r3, r2
 636:App/Src/command.c **** 			if (g_DeviceRxBuff[i] == '[') {
 1822              		.loc 1 636 3 view .LVU341
 1823 003e 84E0     		b	.L122
 1824              	.LVL186:
 1825              	.L114:
 613:App/Src/command.c **** 				}
 1826              		.loc 1 613 6 is_stmt 1 view .LVU342
 613:App/Src/command.c **** 				}
 1827              		.loc 1 613 8 is_stmt 0 view .LVU343
 1828 0040 0137     		adds	r7, r7, #1
 1829              	.LVL187:
 613:App/Src/command.c **** 				}
 1830              		.loc 1 613 8 view .LVU344
 1831 0042 FFB2     		uxtb	r7, r7
 1832              	.LVL188:
 1833              	.L113:
 607:App/Src/command.c **** 			if (g_result[i] < 2) {
 1834              		.loc 1 607 36 is_stmt 1 discriminator 2 view .LVU345
 607:App/Src/command.c **** 			if (g_result[i] < 2) {
 1835              		.loc 1 607 37 is_stmt 0 discriminator 2 view .LVU346
 1836 0044 0134     		adds	r4, r4, #1
 1837              	.LVL189:
 1838              	.L115:
 607:App/Src/command.c **** 			if (g_result[i] < 2) {
 1839              		.loc 1 607 15 is_stmt 1 discriminator 1 view .LVU347
 607:App/Src/command.c **** 			if (g_result[i] < 2) {
 1840              		.loc 1 607 3 is_stmt 0 discriminator 1 view .LVU348
 1841 0046 632C     		cmp	r4, #99
 1842 0048 16DC     		bgt	.L143
 608:App/Src/command.c **** 				all++;
 1843              		.loc 1 608 4 is_stmt 1 view .LVU349
 608:App/Src/command.c **** 				all++;
 1844              		.loc 1 608 16 is_stmt 0 view .LVU350
 1845 004a 04F1C803 		add	r3, r4, #200
 1846 004e 6B44     		add	r3, sp, r3
 1847 0050 13F8643C 		ldrb	r3, [r3, #-100]	@ zero_extendqisi2
 608:App/Src/command.c **** 				all++;
 1848              		.loc 1 608 7 view .LVU351
 1849 0054 012B     		cmp	r3, #1
 1850 0056 F5D8     		bhi	.L113
 609:App/Src/command.c **** 				if (g_result[i] == 0) {
 1851              		.loc 1 609 5 is_stmt 1 view .LVU352
 609:App/Src/command.c **** 				if (g_result[i] == 0) {
 1852              		.loc 1 609 8 is_stmt 0 view .LVU353
 1853 0058 0135     		adds	r5, r5, #1
ARM GAS  C:\Users\86158\AppData\Local\Temp\ccFxKACN.s 			page 57


 1854              	.LVL190:
 609:App/Src/command.c **** 				if (g_result[i] == 0) {
 1855              		.loc 1 609 8 view .LVU354
 1856 005a EDB2     		uxtb	r5, r5
 1857              	.LVL191:
 610:App/Src/command.c **** 					ng++;
 1858              		.loc 1 610 5 is_stmt 1 view .LVU355
 610:App/Src/command.c **** 					ng++;
 1859              		.loc 1 610 8 is_stmt 0 view .LVU356
 1860 005c 002B     		cmp	r3, #0
 1861 005e EFD1     		bne	.L114
 611:App/Src/command.c **** 				} else {
 1862              		.loc 1 611 6 is_stmt 1 view .LVU357
 611:App/Src/command.c **** 				} else {
 1863              		.loc 1 611 8 is_stmt 0 view .LVU358
 1864 0060 0136     		adds	r6, r6, #1
 1865              	.LVL192:
 611:App/Src/command.c **** 				} else {
 1866              		.loc 1 611 8 view .LVU359
 1867 0062 F6B2     		uxtb	r6, r6
 1868              	.LVL193:
 611:App/Src/command.c **** 				} else {
 1869              		.loc 1 611 8 view .LVU360
 1870 0064 EEE7     		b	.L113
 1871              	.LVL194:
 1872              	.L137:
 611:App/Src/command.c **** 				} else {
 1873              		.loc 1 611 8 view .LVU361
 1874 0066 0446     		mov	r4, r0
 1875 0068 0026     		movs	r6, #0
 1876 006a 3746     		mov	r7, r6
 1877 006c 3546     		mov	r5, r6
 1878 006e EAE7     		b	.L115
 1879              	.L138:
 1880 0070 0026     		movs	r6, #0
 1881 0072 3746     		mov	r7, r6
 1882 0074 3546     		mov	r5, r6
 1883 0076 E6E7     		b	.L115
 1884              	.LVL195:
 1885              	.L143:
 617:App/Src/command.c **** 		DevicePrintf("all:%d,ok:%d,ng:%d", all, ok, ng);
 1886              		.loc 1 617 3 is_stmt 1 view .LVU362
 1887 0078 3346     		mov	r3, r6
 1888 007a 3A46     		mov	r2, r7
 1889 007c 2946     		mov	r1, r5
 1890 007e 4648     		ldr	r0, .L148+16
 1891 0080 FFF7FEFF 		bl	UsbPrintf
 1892              	.LVL196:
 618:App/Src/command.c **** 		for(i = 0; i < MAX_CHIP_NUMBER; i++) {
 1893              		.loc 1 618 3 view .LVU363
 1894 0084 3346     		mov	r3, r6
 1895 0086 3A46     		mov	r2, r7
 1896 0088 2946     		mov	r1, r5
 1897 008a 4448     		ldr	r0, .L148+20
 1898 008c FFF7FEFF 		bl	DevicePrintf
 1899              	.LVL197:
 619:App/Src/command.c **** 			if (i % 10 == 0) {
ARM GAS  C:\Users\86158\AppData\Local\Temp\ccFxKACN.s 			page 58


 1900              		.loc 1 619 3 view .LVU364
 619:App/Src/command.c **** 			if (i % 10 == 0) {
 1901              		.loc 1 619 9 is_stmt 0 view .LVU365
 1902 0090 0024     		movs	r4, #0
 619:App/Src/command.c **** 			if (i % 10 == 0) {
 1903              		.loc 1 619 3 view .LVU366
 1904 0092 16E0     		b	.L117
 1905              	.LVL198:
 1906              	.L119:
 625:App/Src/command.c **** 				DevicePrintf("[");
 1907              		.loc 1 625 5 is_stmt 1 view .LVU367
 1908 0094 424D     		ldr	r5, .L148+24
 1909 0096 2846     		mov	r0, r5
 1910 0098 FFF7FEFF 		bl	UsbPrintf
 1911              	.LVL199:
 626:App/Src/command.c **** 			}
 1912              		.loc 1 626 5 view .LVU368
 1913 009c 2846     		mov	r0, r5
 1914 009e FFF7FEFF 		bl	DevicePrintf
 1915              	.LVL200:
 1916              	.L118:
 628:App/Src/command.c **** 			DevicePrintf("%c", g_result[i] + '0');
 1917              		.loc 1 628 4 discriminator 2 view .LVU369
 628:App/Src/command.c **** 			DevicePrintf("%c", g_result[i] + '0');
 1918              		.loc 1 628 28 is_stmt 0 discriminator 2 view .LVU370
 1919 00a2 04F1C803 		add	r3, r4, #200
 1920 00a6 6B44     		add	r3, sp, r3
 1921 00a8 13F8645C 		ldrb	r5, [r3, #-100]	@ zero_extendqisi2
 628:App/Src/command.c **** 			DevicePrintf("%c", g_result[i] + '0');
 1922              		.loc 1 628 4 discriminator 2 view .LVU371
 1923 00ac 3035     		adds	r5, r5, #48
 1924 00ae 3D4E     		ldr	r6, .L148+28
 1925 00b0 2946     		mov	r1, r5
 1926 00b2 3046     		mov	r0, r6
 1927 00b4 FFF7FEFF 		bl	UsbPrintf
 1928              	.LVL201:
 629:App/Src/command.c **** 		}
 1929              		.loc 1 629 4 is_stmt 1 discriminator 2 view .LVU372
 1930 00b8 2946     		mov	r1, r5
 1931 00ba 3046     		mov	r0, r6
 1932 00bc FFF7FEFF 		bl	DevicePrintf
 1933              	.LVL202:
 619:App/Src/command.c **** 			if (i % 10 == 0) {
 1934              		.loc 1 619 35 discriminator 2 view .LVU373
 619:App/Src/command.c **** 			if (i % 10 == 0) {
 1935              		.loc 1 619 36 is_stmt 0 discriminator 2 view .LVU374
 1936 00c0 0134     		adds	r4, r4, #1
 1937              	.LVL203:
 1938              	.L117:
 619:App/Src/command.c **** 			if (i % 10 == 0) {
 1939              		.loc 1 619 14 is_stmt 1 discriminator 1 view .LVU375
 619:App/Src/command.c **** 			if (i % 10 == 0) {
 1940              		.loc 1 619 3 is_stmt 0 discriminator 1 view .LVU376
 1941 00c2 632C     		cmp	r4, #99
 1942 00c4 13DC     		bgt	.L144
 620:App/Src/command.c **** 				if (i > 0) {
 1943              		.loc 1 620 4 is_stmt 1 view .LVU377
ARM GAS  C:\Users\86158\AppData\Local\Temp\ccFxKACN.s 			page 59


 620:App/Src/command.c **** 				if (i > 0) {
 1944              		.loc 1 620 10 is_stmt 0 view .LVU378
 1945 00c6 384A     		ldr	r2, .L148+32
 1946 00c8 82FB0432 		smull	r3, r2, r2, r4
 1947 00cc E317     		asrs	r3, r4, #31
 1948 00ce C3EBA203 		rsb	r3, r3, r2, asr #2
 1949 00d2 03EB8303 		add	r3, r3, r3, lsl #2
 620:App/Src/command.c **** 				if (i > 0) {
 1950              		.loc 1 620 7 view .LVU379
 1951 00d6 B4EB430F 		cmp	r4, r3, lsl #1
 1952 00da E2D1     		bne	.L118
 621:App/Src/command.c **** 					UsbPrintf("]\n");
 1953              		.loc 1 621 5 is_stmt 1 view .LVU380
 621:App/Src/command.c **** 					UsbPrintf("]\n");
 1954              		.loc 1 621 8 is_stmt 0 view .LVU381
 1955 00dc 002C     		cmp	r4, #0
 1956 00de D9DD     		ble	.L119
 622:App/Src/command.c **** 					DevicePrintf("]");//\n是通信结束符
 1957              		.loc 1 622 6 is_stmt 1 view .LVU382
 1958 00e0 3248     		ldr	r0, .L148+36
 1959 00e2 FFF7FEFF 		bl	UsbPrintf
 1960              	.LVL204:
 623:App/Src/command.c **** 				}
 1961              		.loc 1 623 6 view .LVU383
 1962 00e6 3248     		ldr	r0, .L148+40
 1963 00e8 FFF7FEFF 		bl	DevicePrintf
 1964              	.LVL205:
 1965 00ec D2E7     		b	.L119
 1966              	.L144:
 631:App/Src/command.c **** 		DevicePrintf("]\n");
 1967              		.loc 1 631 3 view .LVU384
 1968 00ee 2F4C     		ldr	r4, .L148+36
 1969              	.LVL206:
 631:App/Src/command.c **** 		DevicePrintf("]\n");
 1970              		.loc 1 631 3 is_stmt 0 view .LVU385
 1971 00f0 2046     		mov	r0, r4
 1972 00f2 FFF7FEFF 		bl	UsbPrintf
 1973              	.LVL207:
 632:App/Src/command.c **** 	} else {
 1974              		.loc 1 632 3 is_stmt 1 view .LVU386
 1975 00f6 2046     		mov	r0, r4
 1976 00f8 FFF7FEFF 		bl	DevicePrintf
 1977              	.LVL208:
 1978              	.L110:
 667:App/Src/command.c **** 
 1979              		.loc 1 667 1 is_stmt 0 view .LVU387
 1980 00fc 33B0     		add	sp, sp, #204
 1981              	.LCFI39:
 1982              		.cfi_remember_state
 1983              		.cfi_def_cfa_offset 20
 1984              		@ sp needed
 1985 00fe F0BD     		pop	{r4, r5, r6, r7, pc}
 1986              	.LVL209:
 1987              	.L125:
 1988              	.LCFI40:
 1989              		.cfi_restore_state
 640:App/Src/command.c **** 							DevicePrintf("ERROR\n");
ARM GAS  C:\Users\86158\AppData\Local\Temp\ccFxKACN.s 			page 60


 1990              		.loc 1 640 7 is_stmt 1 view .LVU388
 640:App/Src/command.c **** 							DevicePrintf("ERROR\n");
 1991              		.loc 1 640 10 is_stmt 0 view .LVU389
 1992 0100 642A     		cmp	r2, #100
 1993 0102 1AD0     		beq	.L145
 644:App/Src/command.c **** 						getNumber++;
 1994              		.loc 1 644 7 is_stmt 1 view .LVU390
 644:App/Src/command.c **** 						getNumber++;
 1995              		.loc 1 644 24 is_stmt 0 view .LVU391
 1996 0104 02F1C805 		add	r5, r2, #200
 1997 0108 6D44     		add	r5, sp, r5
 1998 010a 05F8C81C 		strb	r1, [r5, #-200]
 645:App/Src/command.c **** 					} else if (g_DeviceRxBuff[j] == ']') {
 1999              		.loc 1 645 7 is_stmt 1 view .LVU392
 645:App/Src/command.c **** 					} else if (g_DeviceRxBuff[j] == ']') {
 2000              		.loc 1 645 16 is_stmt 0 view .LVU393
 2001 010e 0132     		adds	r2, r2, #1
 2002              	.LVL210:
 645:App/Src/command.c **** 					} else if (g_DeviceRxBuff[j] == ']') {
 2003              		.loc 1 645 16 view .LVU394
 2004 0110 D2B2     		uxtb	r2, r2
 2005              	.LVL211:
 2006              	.L129:
 638:App/Src/command.c **** 					if (g_DeviceRxBuff[j] == '0' || g_DeviceRxBuff[j] == '1' || g_DeviceRxBuff[j] == 'N') {
 2007              		.loc 1 638 29 is_stmt 1 discriminator 2 view .LVU395
 638:App/Src/command.c **** 					if (g_DeviceRxBuff[j] == '0' || g_DeviceRxBuff[j] == '1' || g_DeviceRxBuff[j] == 'N') {
 2008              		.loc 1 638 30 is_stmt 0 discriminator 2 view .LVU396
 2009 0112 0134     		adds	r4, r4, #1
 2010              	.LVL212:
 2011              	.L123:
 638:App/Src/command.c **** 					if (g_DeviceRxBuff[j] == '0' || g_DeviceRxBuff[j] == '1' || g_DeviceRxBuff[j] == 'N') {
 2012              		.loc 1 638 17 is_stmt 1 discriminator 1 view .LVU397
 638:App/Src/command.c **** 					if (g_DeviceRxBuff[j] == '0' || g_DeviceRxBuff[j] == '1' || g_DeviceRxBuff[j] == 'N') {
 2013              		.loc 1 638 5 is_stmt 0 discriminator 1 view .LVU398
 2014 0114 A042     		cmp	r0, r4
 2015 0116 15DD     		ble	.L124
 639:App/Src/command.c **** 						if (getNumber == MAX_CHIP_NUMBER) {//数量超范围了，肯定是错误数据	
 2016              		.loc 1 639 6 is_stmt 1 view .LVU399
 639:App/Src/command.c **** 						if (getNumber == MAX_CHIP_NUMBER) {//数量超范围了，肯定是错误数据	
 2017              		.loc 1 639 24 is_stmt 0 view .LVU400
 2018 0118 1D49     		ldr	r1, .L148+8
 2019 011a 0D5D     		ldrb	r5, [r1, r4]	@ zero_extendqisi2
 639:App/Src/command.c **** 						if (getNumber == MAX_CHIP_NUMBER) {//数量超范围了，肯定是错误数据	
 2020              		.loc 1 639 35 view .LVU401
 2021 011c A5F13001 		sub	r1, r5, #48
 2022 0120 C9B2     		uxtb	r1, r1
 639:App/Src/command.c **** 						if (getNumber == MAX_CHIP_NUMBER) {//数量超范围了，肯定是错误数据	
 2023              		.loc 1 639 9 view .LVU402
 2024 0122 0129     		cmp	r1, #1
 2025 0124 ECD9     		bls	.L125
 639:App/Src/command.c **** 						if (getNumber == MAX_CHIP_NUMBER) {//数量超范围了，肯定是错误数据	
 2026              		.loc 1 639 63 discriminator 1 view .LVU403
 2027 0126 4E2D     		cmp	r5, #78
 2028 0128 EAD0     		beq	.L125
 646:App/Src/command.c **** 						i = j;
 2029              		.loc 1 646 13 is_stmt 1 view .LVU404
 646:App/Src/command.c **** 						i = j;
ARM GAS  C:\Users\86158\AppData\Local\Temp\ccFxKACN.s 			page 61


 2030              		.loc 1 646 16 is_stmt 0 view .LVU405
 2031 012a 5D2D     		cmp	r5, #93
 2032 012c 09D0     		beq	.L140
 649:App/Src/command.c **** 						continue;
 2033              		.loc 1 649 13 is_stmt 1 view .LVU406
 649:App/Src/command.c **** 						continue;
 2034              		.loc 1 649 16 is_stmt 0 view .LVU407
 2035 012e 5B2D     		cmp	r5, #91
 2036 0130 EFD0     		beq	.L129
 652:App/Src/command.c **** 						return; 
 2037              		.loc 1 652 7 is_stmt 1 view .LVU408
 2038 0132 2048     		ldr	r0, .L148+44
 2039              	.LVL213:
 652:App/Src/command.c **** 						return; 
 2040              		.loc 1 652 7 is_stmt 0 view .LVU409
 2041 0134 FFF7FEFF 		bl	DevicePrintf
 2042              	.LVL214:
 653:App/Src/command.c **** 					}
 2043              		.loc 1 653 7 is_stmt 1 view .LVU410
 2044 0138 E0E7     		b	.L110
 2045              	.LVL215:
 2046              	.L145:
 641:App/Src/command.c **** 							return; 
 2047              		.loc 1 641 8 view .LVU411
 2048 013a 1E48     		ldr	r0, .L148+44
 2049              	.LVL216:
 641:App/Src/command.c **** 							return; 
 2050              		.loc 1 641 8 is_stmt 0 view .LVU412
 2051 013c FFF7FEFF 		bl	DevicePrintf
 2052              	.LVL217:
 642:App/Src/command.c **** 						}
 2053              		.loc 1 642 8 is_stmt 1 view .LVU413
 2054 0140 DCE7     		b	.L110
 2055              	.LVL218:
 2056              	.L140:
 647:App/Src/command.c **** 						break;
 2057              		.loc 1 647 9 is_stmt 0 view .LVU414
 2058 0142 2346     		mov	r3, r4
 2059              	.LVL219:
 2060              	.L124:
 657:App/Src/command.c **** 		}
 2061              		.loc 1 657 4 is_stmt 1 view .LVU415
 657:App/Src/command.c **** 		}
 2062              		.loc 1 657 7 is_stmt 0 view .LVU416
 2063 0144 642A     		cmp	r2, #100
 2064 0146 08D0     		beq	.L131
 636:App/Src/command.c **** 			if (g_DeviceRxBuff[i] == '[') {
 2065              		.loc 1 636 27 is_stmt 1 discriminator 2 view .LVU417
 636:App/Src/command.c **** 			if (g_DeviceRxBuff[i] == '[') {
 2066              		.loc 1 636 28 is_stmt 0 discriminator 2 view .LVU418
 2067 0148 0133     		adds	r3, r3, #1
 2068              	.LVL220:
 2069              	.L122:
 636:App/Src/command.c **** 			if (g_DeviceRxBuff[i] == '[') {
 2070              		.loc 1 636 15 is_stmt 1 discriminator 1 view .LVU419
 636:App/Src/command.c **** 			if (g_DeviceRxBuff[i] == '[') {
 2071              		.loc 1 636 3 is_stmt 0 discriminator 1 view .LVU420
ARM GAS  C:\Users\86158\AppData\Local\Temp\ccFxKACN.s 			page 62


 2072 014a 9842     		cmp	r0, r3
 2073 014c 05DD     		ble	.L131
 637:App/Src/command.c **** 				for (j = i; j < length; j++) {
 2074              		.loc 1 637 4 is_stmt 1 view .LVU421
 637:App/Src/command.c **** 				for (j = i; j < length; j++) {
 2075              		.loc 1 637 22 is_stmt 0 view .LVU422
 2076 014e 1049     		ldr	r1, .L148+8
 2077 0150 C95C     		ldrb	r1, [r1, r3]	@ zero_extendqisi2
 637:App/Src/command.c **** 				for (j = i; j < length; j++) {
 2078              		.loc 1 637 7 view .LVU423
 2079 0152 5B29     		cmp	r1, #91
 2080 0154 F6D1     		bne	.L124
 638:App/Src/command.c **** 					if (g_DeviceRxBuff[j] == '0' || g_DeviceRxBuff[j] == '1' || g_DeviceRxBuff[j] == 'N') {
 2081              		.loc 1 638 12 view .LVU424
 2082 0156 1C46     		mov	r4, r3
 2083 0158 DCE7     		b	.L123
 2084              	.L131:
 659:App/Src/command.c **** 			if (input[i] != g_result[i]) {
 2085              		.loc 1 659 3 is_stmt 1 view .LVU425
 2086              	.LVL221:
 659:App/Src/command.c **** 			if (input[i] != g_result[i]) {
 2087              		.loc 1 659 10 is_stmt 0 view .LVU426
 2088 015a 0023     		movs	r3, #0
 2089              	.LVL222:
 2090              	.L133:
 659:App/Src/command.c **** 			if (input[i] != g_result[i]) {
 2091              		.loc 1 659 15 is_stmt 1 discriminator 1 view .LVU427
 659:App/Src/command.c **** 			if (input[i] != g_result[i]) {
 2092              		.loc 1 659 3 is_stmt 0 discriminator 1 view .LVU428
 2093 015c 632B     		cmp	r3, #99
 2094 015e 0EDC     		bgt	.L146
 660:App/Src/command.c **** 				DevicePrintf("ERROR\n");
 2095              		.loc 1 660 4 is_stmt 1 view .LVU429
 660:App/Src/command.c **** 				DevicePrintf("ERROR\n");
 2096              		.loc 1 660 13 is_stmt 0 view .LVU430
 2097 0160 03F1C802 		add	r2, r3, #200
 2098 0164 6A44     		add	r2, sp, r2
 2099 0166 12F8C81C 		ldrb	r1, [r2, #-200]	@ zero_extendqisi2
 660:App/Src/command.c **** 				DevicePrintf("ERROR\n");
 2100              		.loc 1 660 28 view .LVU431
 2101 016a 12F8642C 		ldrb	r2, [r2, #-100]	@ zero_extendqisi2
 660:App/Src/command.c **** 				DevicePrintf("ERROR\n");
 2102              		.loc 1 660 7 view .LVU432
 2103 016e 9142     		cmp	r1, r2
 2104 0170 01D1     		bne	.L147
 659:App/Src/command.c **** 			if (input[i] != g_result[i]) {
 2105              		.loc 1 659 36 is_stmt 1 discriminator 2 view .LVU433
 659:App/Src/command.c **** 			if (input[i] != g_result[i]) {
 2106              		.loc 1 659 37 is_stmt 0 discriminator 2 view .LVU434
 2107 0172 0133     		adds	r3, r3, #1
 2108              	.LVL223:
 659:App/Src/command.c **** 			if (input[i] != g_result[i]) {
 2109              		.loc 1 659 37 discriminator 2 view .LVU435
 2110 0174 F2E7     		b	.L133
 2111              	.L147:
 661:App/Src/command.c **** 				return; 
 2112              		.loc 1 661 5 is_stmt 1 view .LVU436
ARM GAS  C:\Users\86158\AppData\Local\Temp\ccFxKACN.s 			page 63


 2113 0176 0F48     		ldr	r0, .L148+44
 2114              	.LVL224:
 661:App/Src/command.c **** 				return; 
 2115              		.loc 1 661 5 is_stmt 0 view .LVU437
 2116 0178 FFF7FEFF 		bl	DevicePrintf
 2117              	.LVL225:
 662:App/Src/command.c **** 			}
 2118              		.loc 1 662 5 is_stmt 1 view .LVU438
 2119 017c BEE7     		b	.L110
 2120              	.LVL226:
 2121              	.L146:
 665:App/Src/command.c **** 	}
 2122              		.loc 1 665 3 view .LVU439
 2123 017e 0E48     		ldr	r0, .L148+48
 2124              	.LVL227:
 665:App/Src/command.c **** 	}
 2125              		.loc 1 665 3 is_stmt 0 view .LVU440
 2126 0180 FFF7FEFF 		bl	DevicePrintf
 2127              	.LVL228:
 665:App/Src/command.c **** 	}
 2128              		.loc 1 665 3 view .LVU441
 2129 0184 BAE7     		b	.L110
 2130              	.L149:
 2131 0186 00BF     		.align	2
 2132              	.L148:
 2133 0188 4C000000 		.word	.LC41
 2134 018c 00000000 		.word	.LC42
 2135 0190 00000000 		.word	.LANCHOR8
 2136 0194 00000000 		.word	.LANCHOR6
 2137 0198 0C000000 		.word	.LC43
 2138 019c 20000000 		.word	.LC44
 2139 01a0 3C000000 		.word	.LC47
 2140 01a4 40000000 		.word	.LC48
 2141 01a8 67666666 		.word	1717986919
 2142 01ac 34000000 		.word	.LC45
 2143 01b0 38000000 		.word	.LC46
 2144 01b4 44000000 		.word	.LC49
 2145 01b8 1C000000 		.word	.LC14
 2146              		.cfi_endproc
 2147              	.LFE265:
 2149              		.section	.text.CharToInt,"ax",%progbits
 2150              		.align	1
 2151              		.global	CharToInt
 2152              		.syntax unified
 2153              		.thumb
 2154              		.thumb_func
 2156              	CharToInt:
 2157              	.LVL229:
 2158              	.LFB242:
 149:App/Src/command.c **** 	uint8_t length;
 2159              		.loc 1 149 1 is_stmt 1 view -0
 2160              		.cfi_startproc
 2161              		@ args = 0, pretend = 0, frame = 0
 2162              		@ frame_needed = 0, uses_anonymous_args = 0
 149:App/Src/command.c **** 	uint8_t length;
 2163              		.loc 1 149 1 is_stmt 0 view .LVU443
 2164 0000 70B5     		push	{r4, r5, r6, lr}
ARM GAS  C:\Users\86158\AppData\Local\Temp\ccFxKACN.s 			page 64


 2165              	.LCFI41:
 2166              		.cfi_def_cfa_offset 16
 2167              		.cfi_offset 4, -16
 2168              		.cfi_offset 5, -12
 2169              		.cfi_offset 6, -8
 2170              		.cfi_offset 14, -4
 2171 0002 0646     		mov	r6, r0
 2172 0004 0C46     		mov	r4, r1
 2173 0006 1546     		mov	r5, r2
 150:App/Src/command.c **** 	uint8_t i;
 2174              		.loc 1 150 2 is_stmt 1 view .LVU444
 151:App/Src/command.c **** 	int sum = 0;
 2175              		.loc 1 151 2 view .LVU445
 152:App/Src/command.c **** 	int state = 0;
 2176              		.loc 1 152 2 view .LVU446
 2177              	.LVL230:
 153:App/Src/command.c **** 	uint8_t hex = 0;
 2178              		.loc 1 153 2 view .LVU447
 154:App/Src/command.c **** 	length = strlen(source);
 2179              		.loc 1 154 2 view .LVU448
 155:App/Src/command.c **** 	if (start >= length) {
 2180              		.loc 1 155 2 view .LVU449
 155:App/Src/command.c **** 	if (start >= length) {
 2181              		.loc 1 155 11 is_stmt 0 view .LVU450
 2182 0008 FFF7FEFF 		bl	strlen
 2183              	.LVL231:
 155:App/Src/command.c **** 	if (start >= length) {
 2184              		.loc 1 155 9 view .LVU451
 2185 000c C2B2     		uxtb	r2, r0
 2186              	.LVL232:
 156:App/Src/command.c **** 		*number = 0;
 2187              		.loc 1 156 2 is_stmt 1 view .LVU452
 156:App/Src/command.c **** 		*number = 0;
 2188              		.loc 1 156 5 is_stmt 0 view .LVU453
 2189 000e A242     		cmp	r2, r4
 2190 0010 15D9     		bls	.L170
 161:App/Src/command.c **** 		state = -1;
 2191              		.loc 1 161 2 is_stmt 1 view .LVU454
 161:App/Src/command.c **** 		state = -1;
 2192              		.loc 1 161 12 is_stmt 0 view .LVU455
 2193 0012 A446     		mov	ip, r4
 2194 0014 315D     		ldrb	r1, [r6, r4]	@ zero_extendqisi2
 161:App/Src/command.c **** 		state = -1;
 2195              		.loc 1 161 5 view .LVU456
 2196 0016 2D29     		cmp	r1, #45
 2197 0018 14D0     		beq	.L171
 165:App/Src/command.c **** 		if (start + 1 < length ) {
 2198              		.loc 1 165 3 is_stmt 1 view .LVU457
 2199              	.LVL233:
 166:App/Src/command.c **** 			if (source[start] == '0' && (source[start + 1] == 'x' ||source[start + 1] == 'X')) {
 2200              		.loc 1 166 3 view .LVU458
 166:App/Src/command.c **** 			if (source[start] == '0' && (source[start + 1] == 'x' ||source[start + 1] == 'X')) {
 2201              		.loc 1 166 13 is_stmt 0 view .LVU459
 2202 001a 631C     		adds	r3, r4, #1
 166:App/Src/command.c **** 			if (source[start] == '0' && (source[start + 1] == 'x' ||source[start + 1] == 'X')) {
 2203              		.loc 1 166 17 view .LVU460
 2204 001c C0B2     		uxtb	r0, r0
ARM GAS  C:\Users\86158\AppData\Local\Temp\ccFxKACN.s 			page 65


 166:App/Src/command.c **** 			if (source[start] == '0' && (source[start + 1] == 'x' ||source[start + 1] == 'X')) {
 2205              		.loc 1 166 6 view .LVU461
 2206 001e 8342     		cmp	r3, r0
 2207 0020 17DA     		bge	.L166
 167:App/Src/command.c **** 				start += 2;
 2208              		.loc 1 167 4 is_stmt 1 view .LVU462
 167:App/Src/command.c **** 				start += 2;
 2209              		.loc 1 167 7 is_stmt 0 view .LVU463
 2210 0022 3029     		cmp	r1, #48
 2211 0024 19D1     		bne	.L167
 167:App/Src/command.c **** 				start += 2;
 2212              		.loc 1 167 39 discriminator 1 view .LVU464
 2213 0026 B444     		add	ip, ip, r6
 2214 0028 9CF80130 		ldrb	r3, [ip, #1]	@ zero_extendqisi2
 167:App/Src/command.c **** 				start += 2;
 2215              		.loc 1 167 29 discriminator 1 view .LVU465
 2216 002c 782B     		cmp	r3, #120
 2217 002e 01D0     		beq	.L155
 167:App/Src/command.c **** 				start += 2;
 2218              		.loc 1 167 58 discriminator 2 view .LVU466
 2219 0030 582B     		cmp	r3, #88
 2220 0032 16D1     		bne	.L168
 2221              	.L155:
 168:App/Src/command.c **** 				hex = 1;
 2222              		.loc 1 168 5 is_stmt 1 view .LVU467
 168:App/Src/command.c **** 				hex = 1;
 2223              		.loc 1 168 11 is_stmt 0 view .LVU468
 2224 0034 0234     		adds	r4, r4, #2
 2225 0036 E4B2     		uxtb	r4, r4
 2226              	.LVL234:
 169:App/Src/command.c **** 			}
 2227              		.loc 1 169 5 is_stmt 1 view .LVU469
 169:App/Src/command.c **** 			}
 2228              		.loc 1 169 9 is_stmt 0 view .LVU470
 2229 0038 0120     		movs	r0, #1
 165:App/Src/command.c **** 		if (start + 1 < length ) {
 2230              		.loc 1 165 9 view .LVU471
 2231 003a 8446     		mov	ip, r0
 2232 003c 07E0     		b	.L154
 2233              	.LVL235:
 2234              	.L170:
 157:App/Src/command.c **** 		return 0;
 2235              		.loc 1 157 3 is_stmt 1 view .LVU472
 157:App/Src/command.c **** 		return 0;
 2236              		.loc 1 157 11 is_stmt 0 view .LVU473
 2237 003e 0020     		movs	r0, #0
 2238 0040 2860     		str	r0, [r5]
 158:App/Src/command.c **** 	}
 2239              		.loc 1 158 3 is_stmt 1 view .LVU474
 158:App/Src/command.c **** 	}
 2240              		.loc 1 158 10 is_stmt 0 view .LVU475
 2241 0042 4CE0     		b	.L152
 2242              	.L171:
 162:App/Src/command.c **** 		start++;
 2243              		.loc 1 162 3 is_stmt 1 view .LVU476
 2244              	.LVL236:
 163:App/Src/command.c **** 	} else {
ARM GAS  C:\Users\86158\AppData\Local\Temp\ccFxKACN.s 			page 66


 2245              		.loc 1 163 3 view .LVU477
 163:App/Src/command.c **** 	} else {
 2246              		.loc 1 163 8 is_stmt 0 view .LVU478
 2247 0044 0134     		adds	r4, r4, #1
 2248 0046 E4B2     		uxtb	r4, r4
 2249              	.LVL237:
 154:App/Src/command.c **** 	length = strlen(source);
 2250              		.loc 1 154 10 view .LVU479
 2251 0048 0020     		movs	r0, #0
 162:App/Src/command.c **** 		start++;
 2252              		.loc 1 162 9 view .LVU480
 2253 004a 4FF0FF3C 		mov	ip, #-1
 2254              	.LVL238:
 2255              	.L154:
 173:App/Src/command.c **** 		if (source[i] >= '0' && source[i] <= '9') {
 2256              		.loc 1 173 2 is_stmt 1 view .LVU481
 152:App/Src/command.c **** 	int state = 0;
 2257              		.loc 1 152 6 is_stmt 0 view .LVU482
 2258 004e 0023     		movs	r3, #0
 173:App/Src/command.c **** 		if (source[i] >= '0' && source[i] <= '9') {
 2259              		.loc 1 173 2 view .LVU483
 2260 0050 12E0     		b	.L156
 2261              	.LVL239:
 2262              	.L166:
 154:App/Src/command.c **** 	length = strlen(source);
 2263              		.loc 1 154 10 view .LVU484
 2264 0052 0020     		movs	r0, #0
 165:App/Src/command.c **** 		if (start + 1 < length ) {
 2265              		.loc 1 165 9 view .LVU485
 2266 0054 4FF0010C 		mov	ip, #1
 2267 0058 F9E7     		b	.L154
 2268              	.L167:
 154:App/Src/command.c **** 	length = strlen(source);
 2269              		.loc 1 154 10 view .LVU486
 2270 005a 0020     		movs	r0, #0
 165:App/Src/command.c **** 		if (start + 1 < length ) {
 2271              		.loc 1 165 9 view .LVU487
 2272 005c 4FF0010C 		mov	ip, #1
 2273 0060 F5E7     		b	.L154
 2274              	.L168:
 154:App/Src/command.c **** 	length = strlen(source);
 2275              		.loc 1 154 10 view .LVU488
 2276 0062 0020     		movs	r0, #0
 165:App/Src/command.c **** 		if (start + 1 < length ) {
 2277              		.loc 1 165 9 view .LVU489
 2278 0064 4FF0010C 		mov	ip, #1
 2279 0068 F1E7     		b	.L154
 2280              	.LVL240:
 2281              	.L158:
 178:App/Src/command.c **** 			}
 2282              		.loc 1 178 5 is_stmt 1 view .LVU490
 178:App/Src/command.c **** 			}
 2283              		.loc 1 178 15 is_stmt 0 view .LVU491
 2284 006a 03EB8303 		add	r3, r3, r3, lsl #2
 2285              	.LVL241:
 178:App/Src/command.c **** 			}
 2286              		.loc 1 178 20 view .LVU492
ARM GAS  C:\Users\86158\AppData\Local\Temp\ccFxKACN.s 			page 67


 2287 006e 0EEB4303 		add	r3, lr, r3, lsl #1
 178:App/Src/command.c **** 			}
 2288              		.loc 1 178 9 view .LVU493
 2289 0072 303B     		subs	r3, r3, #48
 2290              	.LVL242:
 2291              	.L159:
 173:App/Src/command.c **** 		if (source[i] >= '0' && source[i] <= '9') {
 2292              		.loc 1 173 30 is_stmt 1 discriminator 2 view .LVU494
 173:App/Src/command.c **** 		if (source[i] >= '0' && source[i] <= '9') {
 2293              		.loc 1 173 31 is_stmt 0 discriminator 2 view .LVU495
 2294 0074 0134     		adds	r4, r4, #1
 2295              	.LVL243:
 173:App/Src/command.c **** 		if (source[i] >= '0' && source[i] <= '9') {
 2296              		.loc 1 173 31 discriminator 2 view .LVU496
 2297 0076 E4B2     		uxtb	r4, r4
 2298              	.LVL244:
 2299              	.L156:
 173:App/Src/command.c **** 		if (source[i] >= '0' && source[i] <= '9') {
 2300              		.loc 1 173 18 is_stmt 1 discriminator 1 view .LVU497
 173:App/Src/command.c **** 		if (source[i] >= '0' && source[i] <= '9') {
 2301              		.loc 1 173 2 is_stmt 0 discriminator 1 view .LVU498
 2302 0078 9442     		cmp	r4, r2
 2303 007a 2CD2     		bcs	.L164
 174:App/Src/command.c **** 			if (hex == 1) {
 2304              		.loc 1 174 3 is_stmt 1 view .LVU499
 174:App/Src/command.c **** 			if (hex == 1) {
 2305              		.loc 1 174 13 is_stmt 0 view .LVU500
 2306 007c 16F804E0 		ldrb	lr, [r6, r4]	@ zero_extendqisi2
 174:App/Src/command.c **** 			if (hex == 1) {
 2307              		.loc 1 174 24 view .LVU501
 2308 0080 AEF13001 		sub	r1, lr, #48
 2309 0084 C9B2     		uxtb	r1, r1
 174:App/Src/command.c **** 			if (hex == 1) {
 2310              		.loc 1 174 6 view .LVU502
 2311 0086 0929     		cmp	r1, #9
 2312 0088 05D8     		bhi	.L157
 175:App/Src/command.c **** 				sum = sum * 16 + source[i] - '0';
 2313              		.loc 1 175 4 is_stmt 1 view .LVU503
 175:App/Src/command.c **** 				sum = sum * 16 + source[i] - '0';
 2314              		.loc 1 175 7 is_stmt 0 view .LVU504
 2315 008a 0028     		cmp	r0, #0
 2316 008c EDD0     		beq	.L158
 176:App/Src/command.c **** 			} else {
 2317              		.loc 1 176 5 is_stmt 1 view .LVU505
 176:App/Src/command.c **** 			} else {
 2318              		.loc 1 176 20 is_stmt 0 view .LVU506
 2319 008e 0EEB0313 		add	r3, lr, r3, lsl #4
 2320              	.LVL245:
 176:App/Src/command.c **** 			} else {
 2321              		.loc 1 176 9 view .LVU507
 2322 0092 303B     		subs	r3, r3, #48
 2323              	.LVL246:
 176:App/Src/command.c **** 			} else {
 2324              		.loc 1 176 9 view .LVU508
 2325 0094 EEE7     		b	.L159
 2326              	.L157:
 180:App/Src/command.c **** 			if (hex == 1) {
ARM GAS  C:\Users\86158\AppData\Local\Temp\ccFxKACN.s 			page 68


 2327              		.loc 1 180 10 is_stmt 1 view .LVU509
 180:App/Src/command.c **** 			if (hex == 1) {
 2328              		.loc 1 180 31 is_stmt 0 view .LVU510
 2329 0096 AEF16101 		sub	r1, lr, #97
 2330 009a C9B2     		uxtb	r1, r1
 180:App/Src/command.c **** 			if (hex == 1) {
 2331              		.loc 1 180 13 view .LVU511
 2332 009c 0529     		cmp	r1, #5
 2333 009e 07D8     		bhi	.L160
 181:App/Src/command.c **** 				sum = sum * 16  + source[i] - 'a' + 10;
 2334              		.loc 1 181 4 is_stmt 1 view .LVU512
 181:App/Src/command.c **** 				sum = sum * 16  + source[i] - 'a' + 10;
 2335              		.loc 1 181 7 is_stmt 0 view .LVU513
 2336 00a0 18B1     		cbz	r0, .L161
 182:App/Src/command.c **** 			} else {
 2337              		.loc 1 182 5 is_stmt 1 view .LVU514
 182:App/Src/command.c **** 			} else {
 2338              		.loc 1 182 21 is_stmt 0 view .LVU515
 2339 00a2 0EEB0313 		add	r3, lr, r3, lsl #4
 2340              	.LVL247:
 182:App/Src/command.c **** 			} else {
 2341              		.loc 1 182 9 view .LVU516
 2342 00a6 573B     		subs	r3, r3, #87
 2343              	.LVL248:
 182:App/Src/command.c **** 			} else {
 2344              		.loc 1 182 9 view .LVU517
 2345 00a8 E4E7     		b	.L159
 2346              	.L161:
 184:App/Src/command.c **** 				return 0;
 2347              		.loc 1 184 5 is_stmt 1 view .LVU518
 184:App/Src/command.c **** 				return 0;
 2348              		.loc 1 184 13 is_stmt 0 view .LVU519
 2349 00aa 0023     		movs	r3, #0
 2350              	.LVL249:
 184:App/Src/command.c **** 				return 0;
 2351              		.loc 1 184 13 view .LVU520
 2352 00ac 2B60     		str	r3, [r5]
 185:App/Src/command.c **** 			}
 2353              		.loc 1 185 5 is_stmt 1 view .LVU521
 185:App/Src/command.c **** 			}
 2354              		.loc 1 185 12 is_stmt 0 view .LVU522
 2355 00ae 16E0     		b	.L152
 2356              	.LVL250:
 2357              	.L160:
 187:App/Src/command.c **** 			if (hex == 1) {
 2358              		.loc 1 187 9 is_stmt 1 view .LVU523
 187:App/Src/command.c **** 			if (hex == 1) {
 2359              		.loc 1 187 30 is_stmt 0 view .LVU524
 2360 00b0 AEF14101 		sub	r1, lr, #65
 2361 00b4 C9B2     		uxtb	r1, r1
 187:App/Src/command.c **** 			if (hex == 1) {
 2362              		.loc 1 187 12 view .LVU525
 2363 00b6 0529     		cmp	r1, #5
 2364 00b8 07D8     		bhi	.L162
 188:App/Src/command.c **** 				sum = sum * 16  + source[i] - 'A' + 10;
 2365              		.loc 1 188 4 is_stmt 1 view .LVU526
 188:App/Src/command.c **** 				sum = sum * 16  + source[i] - 'A' + 10;
ARM GAS  C:\Users\86158\AppData\Local\Temp\ccFxKACN.s 			page 69


 2366              		.loc 1 188 7 is_stmt 0 view .LVU527
 2367 00ba 18B1     		cbz	r0, .L163
 189:App/Src/command.c **** 			} else {
 2368              		.loc 1 189 5 is_stmt 1 view .LVU528
 189:App/Src/command.c **** 			} else {
 2369              		.loc 1 189 21 is_stmt 0 view .LVU529
 2370 00bc 0EEB0313 		add	r3, lr, r3, lsl #4
 2371              	.LVL251:
 189:App/Src/command.c **** 			} else {
 2372              		.loc 1 189 9 view .LVU530
 2373 00c0 373B     		subs	r3, r3, #55
 2374              	.LVL252:
 189:App/Src/command.c **** 			} else {
 2375              		.loc 1 189 9 view .LVU531
 2376 00c2 D7E7     		b	.L159
 2377              	.L163:
 191:App/Src/command.c **** 				return 0;
 2378              		.loc 1 191 5 is_stmt 1 view .LVU532
 191:App/Src/command.c **** 				return 0;
 2379              		.loc 1 191 13 is_stmt 0 view .LVU533
 2380 00c4 0023     		movs	r3, #0
 2381              	.LVL253:
 191:App/Src/command.c **** 				return 0;
 2382              		.loc 1 191 13 view .LVU534
 2383 00c6 2B60     		str	r3, [r5]
 192:App/Src/command.c **** 			}
 2384              		.loc 1 192 5 is_stmt 1 view .LVU535
 192:App/Src/command.c **** 			}
 2385              		.loc 1 192 12 is_stmt 0 view .LVU536
 2386 00c8 09E0     		b	.L152
 2387              	.LVL254:
 2388              	.L162:
 194:App/Src/command.c **** 			break;
 2389              		.loc 1 194 10 is_stmt 1 view .LVU537
 194:App/Src/command.c **** 			break;
 2390              		.loc 1 194 13 is_stmt 0 view .LVU538
 2391 00ca BEF1200F 		cmp	lr, #32
 2392 00ce 02D0     		beq	.L164
 194:App/Src/command.c **** 			break;
 2393              		.loc 1 194 31 discriminator 1 view .LVU539
 2394 00d0 BEF12C0F 		cmp	lr, #44
 2395 00d4 CED1     		bne	.L159
 2396              	.L164:
 198:App/Src/command.c **** 	return 1;
 2397              		.loc 1 198 2 is_stmt 1 view .LVU540
 198:App/Src/command.c **** 	return 1;
 2398              		.loc 1 198 18 is_stmt 0 view .LVU541
 2399 00d6 0CFB03F3 		mul	r3, ip, r3
 2400              	.LVL255:
 198:App/Src/command.c **** 	return 1;
 2401              		.loc 1 198 10 view .LVU542
 2402 00da 2B60     		str	r3, [r5]
 199:App/Src/command.c **** }
 2403              		.loc 1 199 2 is_stmt 1 view .LVU543
 199:App/Src/command.c **** }
 2404              		.loc 1 199 9 is_stmt 0 view .LVU544
 2405 00dc 0120     		movs	r0, #1
ARM GAS  C:\Users\86158\AppData\Local\Temp\ccFxKACN.s 			page 70


 2406              	.LVL256:
 2407              	.L152:
 200:App/Src/command.c **** 
 2408              		.loc 1 200 1 view .LVU545
 2409 00de 70BD     		pop	{r4, r5, r6, pc}
 200:App/Src/command.c **** 
 2410              		.loc 1 200 1 view .LVU546
 2411              		.cfi_endproc
 2412              	.LFE242:
 2414              		.section	.rodata.AT_READDATA_Handle.str1.4,"aMS",%progbits,1
 2415              		.align	2
 2416              	.LC50:
 2417 0000 2C00     		.ascii	",\000"
 2418 0002 0000     		.align	2
 2419              	.LC51:
 2420 0004 696E7075 		.ascii	"input error\012\000"
 2420      74206572 
 2420      726F720A 
 2420      00
 2421 0011 000000   		.align	2
 2422              	.LC52:
 2423 0014 7265675B 		.ascii	"reg[0x%x] = 0x%x\012\000"
 2423      30782578 
 2423      5D203D20 
 2423      30782578 
 2423      0A00
 2424              		.section	.text.AT_READDATA_Handle,"ax",%progbits
 2425              		.align	1
 2426              		.global	AT_READDATA_Handle
 2427              		.syntax unified
 2428              		.thumb
 2429              		.thumb_func
 2431              	AT_READDATA_Handle:
 2432              	.LVL257:
 2433              	.LFB247:
 277:App/Src/command.c ****     int reg, address, num = 0;
 2434              		.loc 1 277 1 is_stmt 1 view -0
 2435              		.cfi_startproc
 2436              		@ args = 0, pretend = 0, frame = 16
 2437              		@ frame_needed = 0, uses_anonymous_args = 0
 277:App/Src/command.c ****     int reg, address, num = 0;
 2438              		.loc 1 277 1 is_stmt 0 view .LVU548
 2439 0000 10B5     		push	{r4, lr}
 2440              	.LCFI42:
 2441              		.cfi_def_cfa_offset 8
 2442              		.cfi_offset 4, -8
 2443              		.cfi_offset 14, -4
 2444 0002 84B0     		sub	sp, sp, #16
 2445              	.LCFI43:
 2446              		.cfi_def_cfa_offset 24
 2447 0004 0446     		mov	r4, r0
 278:App/Src/command.c **** 	uint8_t result = 0;
 2448              		.loc 1 278 5 is_stmt 1 view .LVU549
 2449              	.LVL258:
 279:App/Src/command.c **** 	if (CharToInt(command, 12, &address) == 1) {
 2450              		.loc 1 279 2 view .LVU550
 279:App/Src/command.c **** 	if (CharToInt(command, 12, &address) == 1) {
ARM GAS  C:\Users\86158\AppData\Local\Temp\ccFxKACN.s 			page 71


 2451              		.loc 1 279 10 is_stmt 0 view .LVU551
 2452 0006 0023     		movs	r3, #0
 2453 0008 8DF80730 		strb	r3, [sp, #7]
 280:App/Src/command.c **** 		num = strSearch(command, ",");
 2454              		.loc 1 280 2 is_stmt 1 view .LVU552
 280:App/Src/command.c **** 		num = strSearch(command, ",");
 2455              		.loc 1 280 6 is_stmt 0 view .LVU553
 2456 000c 02AA     		add	r2, sp, #8
 2457 000e 0C21     		movs	r1, #12
 2458 0010 FFF7FEFF 		bl	CharToInt
 2459              	.LVL259:
 280:App/Src/command.c **** 		num = strSearch(command, ",");
 2460              		.loc 1 280 5 view .LVU554
 2461 0014 0128     		cmp	r0, #1
 2462 0016 01D0     		beq	.L178
 2463              	.LVL260:
 2464              	.L172:
 287:App/Src/command.c **** 
 2465              		.loc 1 287 1 view .LVU555
 2466 0018 04B0     		add	sp, sp, #16
 2467              	.LCFI44:
 2468              		.cfi_remember_state
 2469              		.cfi_def_cfa_offset 8
 2470              		@ sp needed
 2471 001a 10BD     		pop	{r4, pc}
 2472              	.LVL261:
 2473              	.L178:
 2474              	.LCFI45:
 2475              		.cfi_restore_state
 281:App/Src/command.c **** 		if (num < 0 || address < 0) { UsbPrintf("input error\n"); return; }
 2476              		.loc 1 281 3 is_stmt 1 view .LVU556
 281:App/Src/command.c **** 		if (num < 0 || address < 0) { UsbPrintf("input error\n"); return; }
 2477              		.loc 1 281 9 is_stmt 0 view .LVU557
 2478 001c 1149     		ldr	r1, .L179
 2479 001e 2046     		mov	r0, r4
 2480 0020 FFF7FEFF 		bl	strSearch
 2481              	.LVL262:
 282:App/Src/command.c **** 		CharToInt(command, num + 1, &reg);
 2482              		.loc 1 282 3 is_stmt 1 view .LVU558
 282:App/Src/command.c **** 		CharToInt(command, num + 1, &reg);
 2483              		.loc 1 282 6 is_stmt 0 view .LVU559
 2484 0024 0028     		cmp	r0, #0
 282:App/Src/command.c **** 		CharToInt(command, num + 1, &reg);
 2485              		.loc 1 282 6 view .LVU560
 2486 0026 18DB     		blt	.L174
 282:App/Src/command.c **** 		CharToInt(command, num + 1, &reg);
 2487              		.loc 1 282 26 discriminator 2 view .LVU561
 2488 0028 029B     		ldr	r3, [sp, #8]
 282:App/Src/command.c **** 		CharToInt(command, num + 1, &reg);
 2489              		.loc 1 282 15 discriminator 2 view .LVU562
 2490 002a 002B     		cmp	r3, #0
 2491 002c 15DB     		blt	.L174
 283:App/Src/command.c **** 		i2c_read_multi_bytes(address, reg, &result, 1);
 2492              		.loc 1 283 3 is_stmt 1 view .LVU563
 2493 002e 0130     		adds	r0, r0, #1
 2494              	.LVL263:
 283:App/Src/command.c **** 		i2c_read_multi_bytes(address, reg, &result, 1);
ARM GAS  C:\Users\86158\AppData\Local\Temp\ccFxKACN.s 			page 72


 2495              		.loc 1 283 3 is_stmt 0 view .LVU564
 2496 0030 03AA     		add	r2, sp, #12
 2497 0032 C1B2     		uxtb	r1, r0
 2498 0034 2046     		mov	r0, r4
 2499              	.LVL264:
 283:App/Src/command.c **** 		i2c_read_multi_bytes(address, reg, &result, 1);
 2500              		.loc 1 283 3 view .LVU565
 2501 0036 FFF7FEFF 		bl	CharToInt
 2502              	.LVL265:
 284:App/Src/command.c **** 		UsbPrintf("reg[0x%x] = 0x%x\n", reg, result);
 2503              		.loc 1 284 3 is_stmt 1 view .LVU566
 2504 003a 0123     		movs	r3, #1
 2505 003c 0DF10702 		add	r2, sp, #7
 2506 0040 9DF80C10 		ldrb	r1, [sp, #12]	@ zero_extendqisi2
 2507 0044 9DF80800 		ldrb	r0, [sp, #8]	@ zero_extendqisi2
 2508 0048 FFF7FEFF 		bl	i2c_read_multi_bytes
 2509              	.LVL266:
 285:App/Src/command.c **** 	}
 2510              		.loc 1 285 3 view .LVU567
 2511 004c 9DF80720 		ldrb	r2, [sp, #7]	@ zero_extendqisi2
 2512 0050 0399     		ldr	r1, [sp, #12]
 2513 0052 0548     		ldr	r0, .L179+4
 2514 0054 FFF7FEFF 		bl	UsbPrintf
 2515              	.LVL267:
 2516 0058 DEE7     		b	.L172
 2517              	.LVL268:
 2518              	.L174:
 282:App/Src/command.c **** 		CharToInt(command, num + 1, &reg);
 2519              		.loc 1 282 33 discriminator 3 view .LVU568
 2520 005a 0448     		ldr	r0, .L179+8
 2521              	.LVL269:
 282:App/Src/command.c **** 		CharToInt(command, num + 1, &reg);
 2522              		.loc 1 282 33 is_stmt 0 discriminator 3 view .LVU569
 2523 005c FFF7FEFF 		bl	UsbPrintf
 2524              	.LVL270:
 282:App/Src/command.c **** 		CharToInt(command, num + 1, &reg);
 2525              		.loc 1 282 61 is_stmt 1 discriminator 3 view .LVU570
 2526 0060 DAE7     		b	.L172
 2527              	.L180:
 2528 0062 00BF     		.align	2
 2529              	.L179:
 2530 0064 00000000 		.word	.LC50
 2531 0068 14000000 		.word	.LC52
 2532 006c 04000000 		.word	.LC51
 2533              		.cfi_endproc
 2534              	.LFE247:
 2536              		.section	.rodata.AT_SETTIME_Handle.str1.4,"aMS",%progbits,1
 2537              		.align	2
 2538              	.LC53:
 2539 0000 79656172 		.ascii	"year:\000"
 2539      3A00
 2540 0006 0000     		.align	2
 2541              	.LC54:
 2542 0008 6D6F6E3A 		.ascii	"mon:\000"
 2542      00
 2543 000d 000000   		.align	2
 2544              	.LC55:
ARM GAS  C:\Users\86158\AppData\Local\Temp\ccFxKACN.s 			page 73


 2545 0010 6461793A 		.ascii	"day:\000"
 2545      00
 2546 0015 000000   		.align	2
 2547              	.LC56:
 2548 0018 686F7572 		.ascii	"hour:\000"
 2548      3A00
 2549 001e 0000     		.align	2
 2550              	.LC57:
 2551 0020 6D696E3A 		.ascii	"min:\000"
 2551      00
 2552 0025 000000   		.align	2
 2553              	.LC58:
 2554 0028 7365633A 		.ascii	"sec:\000"
 2554      00
 2555 002d 000000   		.align	2
 2556              	.LC59:
 2557 0030 64617465 		.ascii	"date set success!\012OK!\015\012\000"
 2557      20736574 
 2557      20737563 
 2557      63657373 
 2557      210A4F4B 
 2558              		.section	.text.AT_SETTIME_Handle,"ax",%progbits
 2559              		.align	1
 2560              		.global	AT_SETTIME_Handle
 2561              		.syntax unified
 2562              		.thumb
 2563              		.thumb_func
 2565              	AT_SETTIME_Handle:
 2566              	.LVL271:
 2567              	.LFB248:
 290:App/Src/command.c **** 	RealTime rtc = {0};
 2568              		.loc 1 290 1 view -0
 2569              		.cfi_startproc
 2570              		@ args = 0, pretend = 0, frame = 16
 2571              		@ frame_needed = 0, uses_anonymous_args = 0
 290:App/Src/command.c **** 	RealTime rtc = {0};
 2572              		.loc 1 290 1 is_stmt 0 view .LVU572
 2573 0000 10B5     		push	{r4, lr}
 2574              	.LCFI46:
 2575              		.cfi_def_cfa_offset 8
 2576              		.cfi_offset 4, -8
 2577              		.cfi_offset 14, -4
 2578 0002 84B0     		sub	sp, sp, #16
 2579              	.LCFI47:
 2580              		.cfi_def_cfa_offset 24
 2581 0004 0446     		mov	r4, r0
 291:App/Src/command.c **** 	int num = 0;
 2582              		.loc 1 291 2 is_stmt 1 view .LVU573
 291:App/Src/command.c **** 	int num = 0;
 2583              		.loc 1 291 11 is_stmt 0 view .LVU574
 2584 0006 0023     		movs	r3, #0
 2585 0008 0293     		str	r3, [sp, #8]
 2586 000a 0393     		str	r3, [sp, #12]
 292:App/Src/command.c **** 	int inNumber = 0;
 2587              		.loc 1 292 2 is_stmt 1 view .LVU575
 2588              	.LVL272:
 293:App/Src/command.c **** 
ARM GAS  C:\Users\86158\AppData\Local\Temp\ccFxKACN.s 			page 74


 2589              		.loc 1 293 2 view .LVU576
 293:App/Src/command.c **** 
 2590              		.loc 1 293 6 is_stmt 0 view .LVU577
 2591 000c 0193     		str	r3, [sp, #4]
 295:App/Src/command.c **** 	num = strSearch(command, "year:");
 2592              		.loc 1 295 2 is_stmt 1 view .LVU578
 2593 000e 02A8     		add	r0, sp, #8
 2594              	.LVL273:
 295:App/Src/command.c **** 	num = strSearch(command, "year:");
 2595              		.loc 1 295 2 is_stmt 0 view .LVU579
 2596 0010 FFF7FEFF 		bl	system_get_real_time
 2597              	.LVL274:
 296:App/Src/command.c **** 	if (num != -1) {
 2598              		.loc 1 296 2 is_stmt 1 view .LVU580
 296:App/Src/command.c **** 	if (num != -1) {
 2599              		.loc 1 296 8 is_stmt 0 view .LVU581
 2600 0014 5749     		ldr	r1, .L196
 2601 0016 2046     		mov	r0, r4
 2602 0018 FFF7FEFF 		bl	strSearch
 2603              	.LVL275:
 297:App/Src/command.c **** 		num += strlen("year:");
 2604              		.loc 1 297 2 is_stmt 1 view .LVU582
 297:App/Src/command.c **** 		num += strlen("year:");
 2605              		.loc 1 297 5 is_stmt 0 view .LVU583
 2606 001c B0F1FF3F 		cmp	r0, #-1
 2607 0020 3FD1     		bne	.L191
 2608              	.LVL276:
 2609              	.L182:
 302:App/Src/command.c **** 	if (num != -1) {
 2610              		.loc 1 302 2 is_stmt 1 view .LVU584
 302:App/Src/command.c **** 	if (num != -1) {
 2611              		.loc 1 302 8 is_stmt 0 view .LVU585
 2612 0022 5549     		ldr	r1, .L196+4
 2613 0024 2046     		mov	r0, r4
 2614 0026 FFF7FEFF 		bl	strSearch
 2615              	.LVL277:
 303:App/Src/command.c **** 		num += strlen("mon:");
 2616              		.loc 1 303 2 is_stmt 1 view .LVU586
 303:App/Src/command.c **** 		num += strlen("mon:");
 2617              		.loc 1 303 5 is_stmt 0 view .LVU587
 2618 002a B0F1FF3F 		cmp	r0, #-1
 2619 002e 4DD1     		bne	.L192
 2620              	.LVL278:
 2621              	.L184:
 308:App/Src/command.c **** 	if (num != -1) {
 2622              		.loc 1 308 2 is_stmt 1 view .LVU588
 308:App/Src/command.c **** 	if (num != -1) {
 2623              		.loc 1 308 8 is_stmt 0 view .LVU589
 2624 0030 5249     		ldr	r1, .L196+8
 2625 0032 2046     		mov	r0, r4
 2626 0034 FFF7FEFF 		bl	strSearch
 2627              	.LVL279:
 309:App/Src/command.c **** 		num += strlen("day:");
 2628              		.loc 1 309 2 is_stmt 1 view .LVU590
 309:App/Src/command.c **** 		num += strlen("day:");
 2629              		.loc 1 309 5 is_stmt 0 view .LVU591
 2630 0038 B0F1FF3F 		cmp	r0, #-1
ARM GAS  C:\Users\86158\AppData\Local\Temp\ccFxKACN.s 			page 75


 2631 003c 5BD1     		bne	.L193
 2632              	.LVL280:
 2633              	.L185:
 314:App/Src/command.c **** 	if (num != -1) {
 2634              		.loc 1 314 2 is_stmt 1 view .LVU592
 314:App/Src/command.c **** 	if (num != -1) {
 2635              		.loc 1 314 8 is_stmt 0 view .LVU593
 2636 003e 5049     		ldr	r1, .L196+12
 2637 0040 2046     		mov	r0, r4
 2638 0042 FFF7FEFF 		bl	strSearch
 2639              	.LVL281:
 315:App/Src/command.c **** 		num += strlen("hour:");
 2640              		.loc 1 315 2 is_stmt 1 view .LVU594
 315:App/Src/command.c **** 		num += strlen("hour:");
 2641              		.loc 1 315 5 is_stmt 0 view .LVU595
 2642 0046 B0F1FF3F 		cmp	r0, #-1
 2643 004a 69D1     		bne	.L194
 2644              	.LVL282:
 2645              	.L186:
 320:App/Src/command.c **** 	if (num != -1) {
 2646              		.loc 1 320 2 is_stmt 1 view .LVU596
 320:App/Src/command.c **** 	if (num != -1) {
 2647              		.loc 1 320 8 is_stmt 0 view .LVU597
 2648 004c 4D49     		ldr	r1, .L196+16
 2649 004e 2046     		mov	r0, r4
 2650 0050 FFF7FEFF 		bl	strSearch
 2651              	.LVL283:
 321:App/Src/command.c **** 		num += strlen("min:");
 2652              		.loc 1 321 2 is_stmt 1 view .LVU598
 321:App/Src/command.c **** 		num += strlen("min:");
 2653              		.loc 1 321 5 is_stmt 0 view .LVU599
 2654 0054 B0F1FF3F 		cmp	r0, #-1
 2655 0058 77D1     		bne	.L195
 2656              	.LVL284:
 2657              	.L187:
 326:App/Src/command.c **** 	if (num != -1) {
 2658              		.loc 1 326 2 is_stmt 1 view .LVU600
 326:App/Src/command.c **** 	if (num != -1) {
 2659              		.loc 1 326 8 is_stmt 0 view .LVU601
 2660 005a 4B49     		ldr	r1, .L196+20
 2661 005c 2046     		mov	r0, r4
 2662 005e FFF7FEFF 		bl	strSearch
 2663              	.LVL285:
 327:App/Src/command.c **** 		num += strlen("sec:");
 2664              		.loc 1 327 2 is_stmt 1 view .LVU602
 327:App/Src/command.c **** 		num += strlen("sec:");
 2665              		.loc 1 327 5 is_stmt 0 view .LVU603
 2666 0062 B0F1FF3F 		cmp	r0, #-1
 2667 0066 12D0     		beq	.L188
 328:App/Src/command.c **** 		if (CharToInt(command, num, &inNumber) == 0 ) {	return; }
 2668              		.loc 1 328 3 is_stmt 1 view .LVU604
 328:App/Src/command.c **** 		if (CharToInt(command, num, &inNumber) == 0 ) {	return; }
 2669              		.loc 1 328 7 is_stmt 0 view .LVU605
 2670 0068 0430     		adds	r0, r0, #4
 2671              	.LVL286:
 329:App/Src/command.c **** 		rtc.sec = inNumber % 100;
 2672              		.loc 1 329 3 is_stmt 1 view .LVU606
ARM GAS  C:\Users\86158\AppData\Local\Temp\ccFxKACN.s 			page 76


 329:App/Src/command.c **** 		rtc.sec = inNumber % 100;
 2673              		.loc 1 329 7 is_stmt 0 view .LVU607
 2674 006a 01AA     		add	r2, sp, #4
 2675 006c C1B2     		uxtb	r1, r0
 2676 006e 2046     		mov	r0, r4
 2677              	.LVL287:
 329:App/Src/command.c **** 		rtc.sec = inNumber % 100;
 2678              		.loc 1 329 7 view .LVU608
 2679 0070 FFF7FEFF 		bl	CharToInt
 2680              	.LVL288:
 329:App/Src/command.c **** 		rtc.sec = inNumber % 100;
 2681              		.loc 1 329 6 view .LVU609
 2682 0074 98B1     		cbz	r0, .L181
 330:App/Src/command.c **** 	}
 2683              		.loc 1 330 3 is_stmt 1 view .LVU610
 330:App/Src/command.c **** 	}
 2684              		.loc 1 330 22 is_stmt 0 view .LVU611
 2685 0076 019A     		ldr	r2, [sp, #4]
 2686 0078 4449     		ldr	r1, .L196+24
 2687 007a 81FB0231 		smull	r3, r1, r1, r2
 2688 007e D317     		asrs	r3, r2, #31
 2689 0080 C3EB6113 		rsb	r3, r3, r1, asr #5
 2690 0084 6421     		movs	r1, #100
 2691 0086 01FB1323 		mls	r3, r1, r3, r2
 330:App/Src/command.c **** 	}
 2692              		.loc 1 330 11 view .LVU612
 2693 008a 8DF80D30 		strb	r3, [sp, #13]
 2694              	.L188:
 332:App/Src/command.c **** 	UsbPrintf("date set success!\nOK!\r\n");
 2695              		.loc 1 332 2 is_stmt 1 view .LVU613
 2696 008e 04AB     		add	r3, sp, #16
 2697 0090 13E90300 		ldmdb	r3, {r0, r1}
 2698 0094 FFF7FEFF 		bl	system_set_real_time
 2699              	.LVL289:
 333:App/Src/command.c **** }
 2700              		.loc 1 333 2 view .LVU614
 2701 0098 3D48     		ldr	r0, .L196+28
 2702 009a FFF7FEFF 		bl	UsbPrintf
 2703              	.LVL290:
 2704              	.L181:
 334:App/Src/command.c **** 
 2705              		.loc 1 334 1 is_stmt 0 view .LVU615
 2706 009e 04B0     		add	sp, sp, #16
 2707              	.LCFI48:
 2708              		.cfi_remember_state
 2709              		.cfi_def_cfa_offset 8
 2710              		@ sp needed
 2711 00a0 10BD     		pop	{r4, pc}
 2712              	.LVL291:
 2713              	.L191:
 2714              	.LCFI49:
 2715              		.cfi_restore_state
 298:App/Src/command.c **** 		if (CharToInt(command, num, &inNumber) == 0 ) {	return; }
 2716              		.loc 1 298 3 is_stmt 1 view .LVU616
 298:App/Src/command.c **** 		if (CharToInt(command, num, &inNumber) == 0 ) {	return; }
 2717              		.loc 1 298 7 is_stmt 0 view .LVU617
 2718 00a2 0530     		adds	r0, r0, #5
ARM GAS  C:\Users\86158\AppData\Local\Temp\ccFxKACN.s 			page 77


 2719              	.LVL292:
 299:App/Src/command.c **** 		rtc.year = inNumber % 100;
 2720              		.loc 1 299 3 is_stmt 1 view .LVU618
 299:App/Src/command.c **** 		rtc.year = inNumber % 100;
 2721              		.loc 1 299 7 is_stmt 0 view .LVU619
 2722 00a4 01AA     		add	r2, sp, #4
 2723 00a6 C1B2     		uxtb	r1, r0
 2724 00a8 2046     		mov	r0, r4
 2725              	.LVL293:
 299:App/Src/command.c **** 		rtc.year = inNumber % 100;
 2726              		.loc 1 299 7 view .LVU620
 2727 00aa FFF7FEFF 		bl	CharToInt
 2728              	.LVL294:
 299:App/Src/command.c **** 		rtc.year = inNumber % 100;
 2729              		.loc 1 299 6 view .LVU621
 2730 00ae 0028     		cmp	r0, #0
 2731 00b0 F5D0     		beq	.L181
 300:App/Src/command.c **** 	}
 2732              		.loc 1 300 3 is_stmt 1 view .LVU622
 300:App/Src/command.c **** 	}
 2733              		.loc 1 300 23 is_stmt 0 view .LVU623
 2734 00b2 019A     		ldr	r2, [sp, #4]
 2735 00b4 3549     		ldr	r1, .L196+24
 2736 00b6 81FB0231 		smull	r3, r1, r1, r2
 2737 00ba D317     		asrs	r3, r2, #31
 2738 00bc C3EB6113 		rsb	r3, r3, r1, asr #5
 2739 00c0 6421     		movs	r1, #100
 2740 00c2 01FB1323 		mls	r3, r1, r3, r2
 300:App/Src/command.c **** 	}
 2741              		.loc 1 300 12 view .LVU624
 2742 00c6 8DF80830 		strb	r3, [sp, #8]
 2743 00ca AAE7     		b	.L182
 2744              	.LVL295:
 2745              	.L192:
 304:App/Src/command.c **** 		if (CharToInt(command, num, &inNumber) == 0 ) {	return; }
 2746              		.loc 1 304 3 is_stmt 1 view .LVU625
 304:App/Src/command.c **** 		if (CharToInt(command, num, &inNumber) == 0 ) {	return; }
 2747              		.loc 1 304 7 is_stmt 0 view .LVU626
 2748 00cc 0430     		adds	r0, r0, #4
 2749              	.LVL296:
 305:App/Src/command.c **** 		rtc.mon = inNumber % 100;
 2750              		.loc 1 305 3 is_stmt 1 view .LVU627
 305:App/Src/command.c **** 		rtc.mon = inNumber % 100;
 2751              		.loc 1 305 7 is_stmt 0 view .LVU628
 2752 00ce 01AA     		add	r2, sp, #4
 2753 00d0 C1B2     		uxtb	r1, r0
 2754 00d2 2046     		mov	r0, r4
 2755              	.LVL297:
 305:App/Src/command.c **** 		rtc.mon = inNumber % 100;
 2756              		.loc 1 305 7 view .LVU629
 2757 00d4 FFF7FEFF 		bl	CharToInt
 2758              	.LVL298:
 305:App/Src/command.c **** 		rtc.mon = inNumber % 100;
 2759              		.loc 1 305 6 view .LVU630
 2760 00d8 0028     		cmp	r0, #0
 2761 00da E0D0     		beq	.L181
 306:App/Src/command.c **** 	}	
ARM GAS  C:\Users\86158\AppData\Local\Temp\ccFxKACN.s 			page 78


 2762              		.loc 1 306 3 is_stmt 1 view .LVU631
 306:App/Src/command.c **** 	}	
 2763              		.loc 1 306 22 is_stmt 0 view .LVU632
 2764 00dc 019A     		ldr	r2, [sp, #4]
 2765 00de 2B49     		ldr	r1, .L196+24
 2766 00e0 81FB0231 		smull	r3, r1, r1, r2
 2767 00e4 D317     		asrs	r3, r2, #31
 2768 00e6 C3EB6113 		rsb	r3, r3, r1, asr #5
 2769 00ea 6421     		movs	r1, #100
 2770 00ec 01FB1323 		mls	r3, r1, r3, r2
 306:App/Src/command.c **** 	}	
 2771              		.loc 1 306 11 view .LVU633
 2772 00f0 8DF80930 		strb	r3, [sp, #9]
 2773 00f4 9CE7     		b	.L184
 2774              	.LVL299:
 2775              	.L193:
 310:App/Src/command.c **** 		if (CharToInt(command, num, &inNumber) == 0 ) {	return; }
 2776              		.loc 1 310 3 is_stmt 1 view .LVU634
 310:App/Src/command.c **** 		if (CharToInt(command, num, &inNumber) == 0 ) {	return; }
 2777              		.loc 1 310 7 is_stmt 0 view .LVU635
 2778 00f6 0430     		adds	r0, r0, #4
 2779              	.LVL300:
 311:App/Src/command.c **** 		rtc.day = inNumber % 100;
 2780              		.loc 1 311 3 is_stmt 1 view .LVU636
 311:App/Src/command.c **** 		rtc.day = inNumber % 100;
 2781              		.loc 1 311 7 is_stmt 0 view .LVU637
 2782 00f8 01AA     		add	r2, sp, #4
 2783 00fa C1B2     		uxtb	r1, r0
 2784 00fc 2046     		mov	r0, r4
 2785              	.LVL301:
 311:App/Src/command.c **** 		rtc.day = inNumber % 100;
 2786              		.loc 1 311 7 view .LVU638
 2787 00fe FFF7FEFF 		bl	CharToInt
 2788              	.LVL302:
 311:App/Src/command.c **** 		rtc.day = inNumber % 100;
 2789              		.loc 1 311 6 view .LVU639
 2790 0102 0028     		cmp	r0, #0
 2791 0104 CBD0     		beq	.L181
 312:App/Src/command.c **** 	}	
 2792              		.loc 1 312 3 is_stmt 1 view .LVU640
 312:App/Src/command.c **** 	}	
 2793              		.loc 1 312 22 is_stmt 0 view .LVU641
 2794 0106 019A     		ldr	r2, [sp, #4]
 2795 0108 2049     		ldr	r1, .L196+24
 2796 010a 81FB0231 		smull	r3, r1, r1, r2
 2797 010e D317     		asrs	r3, r2, #31
 2798 0110 C3EB6113 		rsb	r3, r3, r1, asr #5
 2799 0114 6421     		movs	r1, #100
 2800 0116 01FB1323 		mls	r3, r1, r3, r2
 312:App/Src/command.c **** 	}	
 2801              		.loc 1 312 11 view .LVU642
 2802 011a 8DF80A30 		strb	r3, [sp, #10]
 2803 011e 8EE7     		b	.L185
 2804              	.LVL303:
 2805              	.L194:
 316:App/Src/command.c **** 		if (CharToInt(command, num, &inNumber) == 0 ) {	return; }
 2806              		.loc 1 316 3 is_stmt 1 view .LVU643
ARM GAS  C:\Users\86158\AppData\Local\Temp\ccFxKACN.s 			page 79


 316:App/Src/command.c **** 		if (CharToInt(command, num, &inNumber) == 0 ) {	return; }
 2807              		.loc 1 316 7 is_stmt 0 view .LVU644
 2808 0120 0530     		adds	r0, r0, #5
 2809              	.LVL304:
 317:App/Src/command.c **** 		rtc.hour = inNumber % 100;
 2810              		.loc 1 317 3 is_stmt 1 view .LVU645
 317:App/Src/command.c **** 		rtc.hour = inNumber % 100;
 2811              		.loc 1 317 7 is_stmt 0 view .LVU646
 2812 0122 01AA     		add	r2, sp, #4
 2813 0124 C1B2     		uxtb	r1, r0
 2814 0126 2046     		mov	r0, r4
 2815              	.LVL305:
 317:App/Src/command.c **** 		rtc.hour = inNumber % 100;
 2816              		.loc 1 317 7 view .LVU647
 2817 0128 FFF7FEFF 		bl	CharToInt
 2818              	.LVL306:
 317:App/Src/command.c **** 		rtc.hour = inNumber % 100;
 2819              		.loc 1 317 6 view .LVU648
 2820 012c 0028     		cmp	r0, #0
 2821 012e B6D0     		beq	.L181
 318:App/Src/command.c **** 	}	
 2822              		.loc 1 318 3 is_stmt 1 view .LVU649
 318:App/Src/command.c **** 	}	
 2823              		.loc 1 318 23 is_stmt 0 view .LVU650
 2824 0130 019A     		ldr	r2, [sp, #4]
 2825 0132 1649     		ldr	r1, .L196+24
 2826 0134 81FB0231 		smull	r3, r1, r1, r2
 2827 0138 D317     		asrs	r3, r2, #31
 2828 013a C3EB6113 		rsb	r3, r3, r1, asr #5
 2829 013e 6421     		movs	r1, #100
 2830 0140 01FB1323 		mls	r3, r1, r3, r2
 318:App/Src/command.c **** 	}	
 2831              		.loc 1 318 12 view .LVU651
 2832 0144 8DF80B30 		strb	r3, [sp, #11]
 2833 0148 80E7     		b	.L186
 2834              	.LVL307:
 2835              	.L195:
 322:App/Src/command.c **** 		if (CharToInt(command, num, &inNumber) == 0 ) {	return; }
 2836              		.loc 1 322 3 is_stmt 1 view .LVU652
 322:App/Src/command.c **** 		if (CharToInt(command, num, &inNumber) == 0 ) {	return; }
 2837              		.loc 1 322 7 is_stmt 0 view .LVU653
 2838 014a 0430     		adds	r0, r0, #4
 2839              	.LVL308:
 323:App/Src/command.c **** 		rtc.min = inNumber % 100;
 2840              		.loc 1 323 3 is_stmt 1 view .LVU654
 323:App/Src/command.c **** 		rtc.min = inNumber % 100;
 2841              		.loc 1 323 7 is_stmt 0 view .LVU655
 2842 014c 01AA     		add	r2, sp, #4
 2843 014e C1B2     		uxtb	r1, r0
 2844 0150 2046     		mov	r0, r4
 2845              	.LVL309:
 323:App/Src/command.c **** 		rtc.min = inNumber % 100;
 2846              		.loc 1 323 7 view .LVU656
 2847 0152 FFF7FEFF 		bl	CharToInt
 2848              	.LVL310:
 323:App/Src/command.c **** 		rtc.min = inNumber % 100;
 2849              		.loc 1 323 6 view .LVU657
ARM GAS  C:\Users\86158\AppData\Local\Temp\ccFxKACN.s 			page 80


 2850 0156 0028     		cmp	r0, #0
 2851 0158 A1D0     		beq	.L181
 324:App/Src/command.c **** 	}	
 2852              		.loc 1 324 3 is_stmt 1 view .LVU658
 324:App/Src/command.c **** 	}	
 2853              		.loc 1 324 22 is_stmt 0 view .LVU659
 2854 015a 019A     		ldr	r2, [sp, #4]
 2855 015c 0B49     		ldr	r1, .L196+24
 2856 015e 81FB0231 		smull	r3, r1, r1, r2
 2857 0162 D317     		asrs	r3, r2, #31
 2858 0164 C3EB6113 		rsb	r3, r3, r1, asr #5
 2859 0168 6421     		movs	r1, #100
 2860 016a 01FB1323 		mls	r3, r1, r3, r2
 324:App/Src/command.c **** 	}	
 2861              		.loc 1 324 11 view .LVU660
 2862 016e 8DF80C30 		strb	r3, [sp, #12]
 2863 0172 72E7     		b	.L187
 2864              	.L197:
 2865              		.align	2
 2866              	.L196:
 2867 0174 00000000 		.word	.LC53
 2868 0178 08000000 		.word	.LC54
 2869 017c 10000000 		.word	.LC55
 2870 0180 18000000 		.word	.LC56
 2871 0184 20000000 		.word	.LC57
 2872 0188 28000000 		.word	.LC58
 2873 018c 1F85EB51 		.word	1374389535
 2874 0190 30000000 		.word	.LC59
 2875              		.cfi_endproc
 2876              	.LFE248:
 2878              		.section	.rodata.AT_RTC4096_Handle.str1.4,"aMS",%progbits,1
 2879              		.align	2
 2880              	.LC60:
 2881 0000 0A696963 		.ascii	"\012iic error\012\000"
 2881      20657272 
 2881      6F720A00 
 2882              		.section	.text.AT_RTC4096_Handle,"ax",%progbits
 2883              		.align	1
 2884              		.global	AT_RTC4096_Handle
 2885              		.syntax unified
 2886              		.thumb
 2887              		.thumb_func
 2889              	AT_RTC4096_Handle:
 2890              	.LVL311:
 2891              	.LFB251:
 355:App/Src/command.c **** 	int inNumber;
 2892              		.loc 1 355 1 is_stmt 1 view -0
 2893              		.cfi_startproc
 2894              		@ args = 0, pretend = 0, frame = 8
 2895              		@ frame_needed = 0, uses_anonymous_args = 0
 355:App/Src/command.c **** 	int inNumber;
 2896              		.loc 1 355 1 is_stmt 0 view .LVU662
 2897 0000 00B5     		push	{lr}
 2898              	.LCFI50:
 2899              		.cfi_def_cfa_offset 4
 2900              		.cfi_offset 14, -4
 2901 0002 83B0     		sub	sp, sp, #12
ARM GAS  C:\Users\86158\AppData\Local\Temp\ccFxKACN.s 			page 81


 2902              	.LCFI51:
 2903              		.cfi_def_cfa_offset 16
 356:App/Src/command.c **** 	uint8_t result;
 2904              		.loc 1 356 2 is_stmt 1 view .LVU663
 357:App/Src/command.c **** 	if (CharToInt(command, 11, &inNumber) == 0 ) {
 2905              		.loc 1 357 2 view .LVU664
 358:App/Src/command.c **** 		UsbPrintf("input error\n");
 2906              		.loc 1 358 2 view .LVU665
 358:App/Src/command.c **** 		UsbPrintf("input error\n");
 2907              		.loc 1 358 6 is_stmt 0 view .LVU666
 2908 0004 01AA     		add	r2, sp, #4
 2909 0006 0B21     		movs	r1, #11
 2910 0008 FFF7FEFF 		bl	CharToInt
 2911              	.LVL312:
 358:App/Src/command.c **** 		UsbPrintf("input error\n");
 2912              		.loc 1 358 5 view .LVU667
 2913 000c 58B1     		cbz	r0, .L206
 363:App/Src/command.c **** 		result = rtc_out_4096();
 2914              		.loc 1 363 2 is_stmt 1 view .LVU668
 363:App/Src/command.c **** 		result = rtc_out_4096();
 2915              		.loc 1 363 15 is_stmt 0 view .LVU669
 2916 000e 019B     		ldr	r3, [sp, #4]
 363:App/Src/command.c **** 		result = rtc_out_4096();
 2917              		.loc 1 363 5 view .LVU670
 2918 0010 002B     		cmp	r3, #0
 2919 0012 0CDD     		ble	.L201
 364:App/Src/command.c **** 	} else {
 2920              		.loc 1 364 3 is_stmt 1 view .LVU671
 364:App/Src/command.c **** 	} else {
 2921              		.loc 1 364 12 is_stmt 0 view .LVU672
 2922 0014 FFF7FEFF 		bl	rtc_out_4096
 2923              	.LVL313:
 2924              	.L202:
 368:App/Src/command.c **** 		UsbPrintf("\nOK\n");
 2925              		.loc 1 368 2 is_stmt 1 view .LVU673
 368:App/Src/command.c **** 		UsbPrintf("\nOK\n");
 2926              		.loc 1 368 5 is_stmt 0 view .LVU674
 2927 0018 60B9     		cbnz	r0, .L203
 369:App/Src/command.c **** 	} else {
 2928              		.loc 1 369 3 is_stmt 1 view .LVU675
 2929 001a 0848     		ldr	r0, .L207
 2930              	.LVL314:
 369:App/Src/command.c **** 	} else {
 2931              		.loc 1 369 3 is_stmt 0 view .LVU676
 2932 001c FFF7FEFF 		bl	UsbPrintf
 2933              	.LVL315:
 2934              	.L198:
 373:App/Src/command.c **** 
 2935              		.loc 1 373 1 view .LVU677
 2936 0020 03B0     		add	sp, sp, #12
 2937              	.LCFI52:
 2938              		.cfi_remember_state
 2939              		.cfi_def_cfa_offset 4
 2940              		@ sp needed
 2941 0022 5DF804FB 		ldr	pc, [sp], #4
 2942              	.L206:
 2943              	.LCFI53:
ARM GAS  C:\Users\86158\AppData\Local\Temp\ccFxKACN.s 			page 82


 2944              		.cfi_restore_state
 359:App/Src/command.c **** 		return;
 2945              		.loc 1 359 3 is_stmt 1 view .LVU678
 2946 0026 0648     		ldr	r0, .L207+4
 2947 0028 FFF7FEFF 		bl	UsbPrintf
 2948              	.LVL316:
 360:App/Src/command.c **** 	}
 2949              		.loc 1 360 3 view .LVU679
 2950 002c F8E7     		b	.L198
 2951              	.L201:
 366:App/Src/command.c **** 	}
 2952              		.loc 1 366 3 view .LVU680
 366:App/Src/command.c **** 	}
 2953              		.loc 1 366 12 is_stmt 0 view .LVU681
 2954 002e FFF7FEFF 		bl	rtc_disable_int
 2955              	.LVL317:
 366:App/Src/command.c **** 	}
 2956              		.loc 1 366 12 view .LVU682
 2957 0032 F1E7     		b	.L202
 2958              	.L203:
 371:App/Src/command.c **** 	}
 2959              		.loc 1 371 3 is_stmt 1 view .LVU683
 2960 0034 0348     		ldr	r0, .L207+8
 2961              	.LVL318:
 371:App/Src/command.c **** 	}
 2962              		.loc 1 371 3 is_stmt 0 view .LVU684
 2963 0036 FFF7FEFF 		bl	UsbPrintf
 2964              	.LVL319:
 2965 003a F1E7     		b	.L198
 2966              	.L208:
 2967              		.align	2
 2968              	.L207:
 2969 003c 58000000 		.word	.LC7
 2970 0040 04000000 		.word	.LC51
 2971 0044 00000000 		.word	.LC60
 2972              		.cfi_endproc
 2973              	.LFE251:
 2975              		.section	.rodata.AT_RTCOTP_Handle.str1.4,"aMS",%progbits,1
 2976              		.align	2
 2977              	.LC61:
 2978 0000 3D00     		.ascii	"=\000"
 2979              		.section	.text.AT_RTCOTP_Handle,"ax",%progbits
 2980              		.align	1
 2981              		.global	AT_RTCOTP_Handle
 2982              		.syntax unified
 2983              		.thumb
 2984              		.thumb_func
 2986              	AT_RTCOTP_Handle:
 2987              	.LVL320:
 2988              	.LFB252:
 376:App/Src/command.c **** 
 2989              		.loc 1 376 1 is_stmt 1 view -0
 2990              		.cfi_startproc
 2991              		@ args = 0, pretend = 0, frame = 8
 2992              		@ frame_needed = 0, uses_anonymous_args = 0
 376:App/Src/command.c **** 
 2993              		.loc 1 376 1 is_stmt 0 view .LVU686
ARM GAS  C:\Users\86158\AppData\Local\Temp\ccFxKACN.s 			page 83


 2994 0000 10B5     		push	{r4, lr}
 2995              	.LCFI54:
 2996              		.cfi_def_cfa_offset 8
 2997              		.cfi_offset 4, -8
 2998              		.cfi_offset 14, -4
 2999 0002 82B0     		sub	sp, sp, #8
 3000              	.LCFI55:
 3001              		.cfi_def_cfa_offset 16
 3002 0004 0446     		mov	r4, r0
 378:App/Src/command.c **** 	CharToInt(command, strSearch(command, "=") + 1, &inNumber);
 3003              		.loc 1 378 2 is_stmt 1 view .LVU687
 378:App/Src/command.c **** 	CharToInt(command, strSearch(command, "=") + 1, &inNumber);
 3004              		.loc 1 378 6 is_stmt 0 view .LVU688
 3005 0006 0023     		movs	r3, #0
 3006 0008 0193     		str	r3, [sp, #4]
 379:App/Src/command.c **** 	if (inNumber <= 0) {
 3007              		.loc 1 379 2 is_stmt 1 view .LVU689
 379:App/Src/command.c **** 	if (inNumber <= 0) {
 3008              		.loc 1 379 21 is_stmt 0 view .LVU690
 3009 000a 0E49     		ldr	r1, .L214
 3010 000c FFF7FEFF 		bl	strSearch
 3011              	.LVL321:
 379:App/Src/command.c **** 	if (inNumber <= 0) {
 3012              		.loc 1 379 2 view .LVU691
 3013 0010 411C     		adds	r1, r0, #1
 3014 0012 01AA     		add	r2, sp, #4
 3015 0014 C9B2     		uxtb	r1, r1
 3016 0016 2046     		mov	r0, r4
 3017 0018 FFF7FEFF 		bl	CharToInt
 3018              	.LVL322:
 380:App/Src/command.c **** 		HAL_GPIO_WritePin(GPIOE, GPIO_PIN_6, GPIO_PIN_RESET); //关闭8.5v的开关
 3019              		.loc 1 380 2 is_stmt 1 view .LVU692
 380:App/Src/command.c **** 		HAL_GPIO_WritePin(GPIOE, GPIO_PIN_6, GPIO_PIN_RESET); //关闭8.5v的开关
 3020              		.loc 1 380 15 is_stmt 0 view .LVU693
 3021 001c 019B     		ldr	r3, [sp, #4]
 380:App/Src/command.c **** 		HAL_GPIO_WritePin(GPIOE, GPIO_PIN_6, GPIO_PIN_RESET); //关闭8.5v的开关
 3022              		.loc 1 380 5 view .LVU694
 3023 001e 002B     		cmp	r3, #0
 3024 0020 09DD     		ble	.L213
 383:App/Src/command.c **** 	}
 3025              		.loc 1 383 3 is_stmt 1 view .LVU695
 3026 0022 0122     		movs	r2, #1
 3027 0024 4021     		movs	r1, #64
 3028 0026 0848     		ldr	r0, .L214+4
 3029 0028 FFF7FEFF 		bl	HAL_GPIO_WritePin
 3030              	.LVL323:
 3031              	.L211:
 385:App/Src/command.c **** }
 3032              		.loc 1 385 2 view .LVU696
 3033 002c 0748     		ldr	r0, .L214+8
 3034 002e FFF7FEFF 		bl	UsbPrintf
 3035              	.LVL324:
 386:App/Src/command.c **** 
 3036              		.loc 1 386 1 is_stmt 0 view .LVU697
 3037 0032 02B0     		add	sp, sp, #8
 3038              	.LCFI56:
 3039              		.cfi_remember_state
ARM GAS  C:\Users\86158\AppData\Local\Temp\ccFxKACN.s 			page 84


 3040              		.cfi_def_cfa_offset 8
 3041              		@ sp needed
 3042 0034 10BD     		pop	{r4, pc}
 3043              	.LVL325:
 3044              	.L213:
 3045              	.LCFI57:
 3046              		.cfi_restore_state
 381:App/Src/command.c **** 	} else {
 3047              		.loc 1 381 3 is_stmt 1 view .LVU698
 3048 0036 0022     		movs	r2, #0
 3049 0038 4021     		movs	r1, #64
 3050 003a 0348     		ldr	r0, .L214+4
 3051 003c FFF7FEFF 		bl	HAL_GPIO_WritePin
 3052              	.LVL326:
 3053 0040 F4E7     		b	.L211
 3054              	.L215:
 3055 0042 00BF     		.align	2
 3056              	.L214:
 3057 0044 00000000 		.word	.LC61
 3058 0048 00100240 		.word	1073876992
 3059 004c 58000000 		.word	.LC7
 3060              		.cfi_endproc
 3061              	.LFE252:
 3063              		.section	.rodata.AT_READGROUP_Handle.str1.4,"aMS",%progbits,1
 3064              		.align	2
 3065              	.LC62:
 3066 0000 72656164 		.ascii	"read group[%d] reg[0x%x]:\000"
 3066      2067726F 
 3066      75705B25 
 3066      645D2072 
 3066      65675B30 
 3067 001a 0000     		.align	2
 3068              	.LC63:
 3069 001c 30782530 		.ascii	"0x%02x \000"
 3069      32782000 
 3070              		.section	.text.AT_READGROUP_Handle,"ax",%progbits
 3071              		.align	1
 3072              		.global	AT_READGROUP_Handle
 3073              		.syntax unified
 3074              		.thumb
 3075              		.thumb_func
 3077              	AT_READGROUP_Handle:
 3078              	.LVL327:
 3079              	.LFB256:
 444:App/Src/command.c **** 	int channel;
 3080              		.loc 1 444 1 view -0
 3081              		.cfi_startproc
 3082              		@ args = 0, pretend = 0, frame = 16
 3083              		@ frame_needed = 0, uses_anonymous_args = 0
 444:App/Src/command.c **** 	int channel;
 3084              		.loc 1 444 1 is_stmt 0 view .LVU700
 3085 0000 10B5     		push	{r4, lr}
 3086              	.LCFI58:
 3087              		.cfi_def_cfa_offset 8
 3088              		.cfi_offset 4, -8
 3089              		.cfi_offset 14, -4
 3090 0002 84B0     		sub	sp, sp, #16
ARM GAS  C:\Users\86158\AppData\Local\Temp\ccFxKACN.s 			page 85


 3091              	.LCFI59:
 3092              		.cfi_def_cfa_offset 24
 3093 0004 0446     		mov	r4, r0
 445:App/Src/command.c **** 	int i;
 3094              		.loc 1 445 2 is_stmt 1 view .LVU701
 446:App/Src/command.c ****     int reg, num = 0;
 3095              		.loc 1 446 2 view .LVU702
 447:App/Src/command.c **** 	uint8_t result[8] = {0};
 3096              		.loc 1 447 5 view .LVU703
 3097              	.LVL328:
 448:App/Src/command.c **** 	if (CharToInt(command, 13, &channel) == 1) {
 3098              		.loc 1 448 2 view .LVU704
 448:App/Src/command.c **** 	if (CharToInt(command, 13, &channel) == 1) {
 3099              		.loc 1 448 10 is_stmt 0 view .LVU705
 3100 0006 0023     		movs	r3, #0
 3101 0008 0093     		str	r3, [sp]
 3102 000a 0193     		str	r3, [sp, #4]
 449:App/Src/command.c **** 		num = strSearch(command, ",");
 3103              		.loc 1 449 2 is_stmt 1 view .LVU706
 449:App/Src/command.c **** 		num = strSearch(command, ",");
 3104              		.loc 1 449 6 is_stmt 0 view .LVU707
 3105 000c 03AA     		add	r2, sp, #12
 3106 000e 0D21     		movs	r1, #13
 3107 0010 FFF7FEFF 		bl	CharToInt
 3108              	.LVL329:
 449:App/Src/command.c **** 		num = strSearch(command, ",");
 3109              		.loc 1 449 5 view .LVU708
 3110 0014 0128     		cmp	r0, #1
 3111 0016 3BD1     		bne	.L217
 450:App/Src/command.c **** 		if (num < 0 || channel < 0) { UsbPrintf("input error\n"); return; }
 3112              		.loc 1 450 3 is_stmt 1 view .LVU709
 450:App/Src/command.c **** 		if (num < 0 || channel < 0) { UsbPrintf("input error\n"); return; }
 3113              		.loc 1 450 9 is_stmt 0 view .LVU710
 3114 0018 2049     		ldr	r1, .L224
 3115 001a 2046     		mov	r0, r4
 3116 001c FFF7FEFF 		bl	strSearch
 3117              	.LVL330:
 451:App/Src/command.c **** 		CharToInt(command, num + 1, &reg);
 3118              		.loc 1 451 3 is_stmt 1 view .LVU711
 451:App/Src/command.c **** 		CharToInt(command, num + 1, &reg);
 3119              		.loc 1 451 6 is_stmt 0 view .LVU712
 3120 0020 0028     		cmp	r0, #0
 451:App/Src/command.c **** 		CharToInt(command, num + 1, &reg);
 3121              		.loc 1 451 6 view .LVU713
 3122 0022 26DB     		blt	.L218
 451:App/Src/command.c **** 		CharToInt(command, num + 1, &reg);
 3123              		.loc 1 451 26 discriminator 2 view .LVU714
 3124 0024 039B     		ldr	r3, [sp, #12]
 451:App/Src/command.c **** 		CharToInt(command, num + 1, &reg);
 3125              		.loc 1 451 15 discriminator 2 view .LVU715
 3126 0026 002B     		cmp	r3, #0
 3127 0028 23DB     		blt	.L218
 452:App/Src/command.c **** 		rtc_group_power(channel, POWER_I2C);
 3128              		.loc 1 452 3 is_stmt 1 view .LVU716
 3129 002a 0130     		adds	r0, r0, #1
 3130              	.LVL331:
 452:App/Src/command.c **** 		rtc_group_power(channel, POWER_I2C);
ARM GAS  C:\Users\86158\AppData\Local\Temp\ccFxKACN.s 			page 86


 3131              		.loc 1 452 3 is_stmt 0 view .LVU717
 3132 002c 02AA     		add	r2, sp, #8
 3133 002e C1B2     		uxtb	r1, r0
 3134 0030 2046     		mov	r0, r4
 3135              	.LVL332:
 452:App/Src/command.c **** 		rtc_group_power(channel, POWER_I2C);
 3136              		.loc 1 452 3 view .LVU718
 3137 0032 FFF7FEFF 		bl	CharToInt
 3138              	.LVL333:
 453:App/Src/command.c **** 		rtc_set_channel(channel, RTC_INIT_1006);
 3139              		.loc 1 453 3 is_stmt 1 view .LVU719
 3140 0036 0121     		movs	r1, #1
 3141 0038 9DF80C00 		ldrb	r0, [sp, #12]	@ zero_extendqisi2
 3142 003c FFF7FEFF 		bl	rtc_group_power
 3143              	.LVL334:
 454:App/Src/command.c **** 		g_rtcChanenel = channel;
 3144              		.loc 1 454 3 view .LVU720
 3145 0040 0121     		movs	r1, #1
 3146 0042 9DF80C00 		ldrb	r0, [sp, #12]	@ zero_extendqisi2
 3147 0046 FFF7FEFF 		bl	rtc_set_channel
 3148              	.LVL335:
 455:App/Src/command.c **** 		HAL_Delay(10);
 3149              		.loc 1 455 3 view .LVU721
 455:App/Src/command.c **** 		HAL_Delay(10);
 3150              		.loc 1 455 17 is_stmt 0 view .LVU722
 3151 004a 154B     		ldr	r3, .L224+4
 3152 004c 039A     		ldr	r2, [sp, #12]
 3153 004e 1A70     		strb	r2, [r3]
 456:App/Src/command.c **** 		rtc_read_multi_bytes(0x64, reg, result, 8);
 3154              		.loc 1 456 3 is_stmt 1 view .LVU723
 3155 0050 0A20     		movs	r0, #10
 3156 0052 FFF7FEFF 		bl	HAL_Delay
 3157              	.LVL336:
 457:App/Src/command.c **** 		UsbPrintf("read group[%d] reg[0x%x]:", channel, reg);
 3158              		.loc 1 457 3 view .LVU724
 3159 0056 0823     		movs	r3, #8
 3160 0058 6A46     		mov	r2, sp
 3161 005a 9DF80810 		ldrb	r1, [sp, #8]	@ zero_extendqisi2
 3162 005e 6420     		movs	r0, #100
 3163 0060 FFF7FEFF 		bl	rtc_read_multi_bytes
 3164              	.LVL337:
 458:App/Src/command.c **** 		for (i = 0; i < 8; i++) {
 3165              		.loc 1 458 3 view .LVU725
 3166 0064 029A     		ldr	r2, [sp, #8]
 3167 0066 0399     		ldr	r1, [sp, #12]
 3168 0068 0E48     		ldr	r0, .L224+8
 3169 006a FFF7FEFF 		bl	UsbPrintf
 3170              	.LVL338:
 459:App/Src/command.c **** 			UsbPrintf("0x%02x ", result[i]);
 3171              		.loc 1 459 3 view .LVU726
 459:App/Src/command.c **** 			UsbPrintf("0x%02x ", result[i]);
 3172              		.loc 1 459 10 is_stmt 0 view .LVU727
 3173 006e 0024     		movs	r4, #0
 3174              	.LVL339:
 459:App/Src/command.c **** 			UsbPrintf("0x%02x ", result[i]);
 3175              		.loc 1 459 3 view .LVU728
 3176 0070 0CE0     		b	.L221
ARM GAS  C:\Users\86158\AppData\Local\Temp\ccFxKACN.s 			page 87


 3177              	.LVL340:
 3178              	.L218:
 451:App/Src/command.c **** 		CharToInt(command, num + 1, &reg);
 3179              		.loc 1 451 33 is_stmt 1 discriminator 3 view .LVU729
 3180 0072 0D48     		ldr	r0, .L224+12
 3181              	.LVL341:
 451:App/Src/command.c **** 		CharToInt(command, num + 1, &reg);
 3182              		.loc 1 451 33 is_stmt 0 discriminator 3 view .LVU730
 3183 0074 FFF7FEFF 		bl	UsbPrintf
 3184              	.LVL342:
 451:App/Src/command.c **** 		CharToInt(command, num + 1, &reg);
 3185              		.loc 1 451 61 is_stmt 1 discriminator 3 view .LVU731
 3186 0078 0DE0     		b	.L216
 3187              	.LVL343:
 3188              	.L222:
 460:App/Src/command.c **** 		}
 3189              		.loc 1 460 4 discriminator 3 view .LVU732
 460:App/Src/command.c **** 		}
 3190              		.loc 1 460 31 is_stmt 0 discriminator 3 view .LVU733
 3191 007a 04F11003 		add	r3, r4, #16
 3192 007e 6B44     		add	r3, sp, r3
 460:App/Src/command.c **** 		}
 3193              		.loc 1 460 4 discriminator 3 view .LVU734
 3194 0080 13F8101C 		ldrb	r1, [r3, #-16]	@ zero_extendqisi2
 3195 0084 0948     		ldr	r0, .L224+16
 3196 0086 FFF7FEFF 		bl	UsbPrintf
 3197              	.LVL344:
 459:App/Src/command.c **** 			UsbPrintf("0x%02x ", result[i]);
 3198              		.loc 1 459 22 is_stmt 1 discriminator 3 view .LVU735
 459:App/Src/command.c **** 			UsbPrintf("0x%02x ", result[i]);
 3199              		.loc 1 459 23 is_stmt 0 discriminator 3 view .LVU736
 3200 008a 0134     		adds	r4, r4, #1
 3201              	.LVL345:
 3202              	.L221:
 459:App/Src/command.c **** 			UsbPrintf("0x%02x ", result[i]);
 3203              		.loc 1 459 15 is_stmt 1 discriminator 1 view .LVU737
 459:App/Src/command.c **** 			UsbPrintf("0x%02x ", result[i]);
 3204              		.loc 1 459 3 is_stmt 0 discriminator 1 view .LVU738
 3205 008c 072C     		cmp	r4, #7
 3206 008e F4DD     		ble	.L222
 3207              	.LVL346:
 3208              	.L217:
 463:App/Src/command.c **** 
 3209              		.loc 1 463 2 is_stmt 1 view .LVU739
 3210 0090 0748     		ldr	r0, .L224+20
 3211 0092 FFF7FEFF 		bl	UsbPrintf
 3212              	.LVL347:
 3213              	.L216:
 465:App/Src/command.c **** 
 3214              		.loc 1 465 1 is_stmt 0 view .LVU740
 3215 0096 04B0     		add	sp, sp, #16
 3216              	.LCFI60:
 3217              		.cfi_def_cfa_offset 8
 3218              		@ sp needed
 3219 0098 10BD     		pop	{r4, pc}
 3220              	.L225:
 3221 009a 00BF     		.align	2
ARM GAS  C:\Users\86158\AppData\Local\Temp\ccFxKACN.s 			page 88


 3222              	.L224:
 3223 009c 00000000 		.word	.LC50
 3224 00a0 00000000 		.word	.LANCHOR9
 3225 00a4 00000000 		.word	.LC62
 3226 00a8 04000000 		.word	.LC51
 3227 00ac 1C000000 		.word	.LC63
 3228 00b0 58000000 		.word	.LC7
 3229              		.cfi_endproc
 3230              	.LFE256:
 3232              		.section	.rodata.AT_READFLASH_Handle.str1.4,"aMS",%progbits,1
 3233              		.align	2
 3234              	.LC64:
 3235 0000 666C6173 		.ascii	"flash address[0x%x] print:\012%s\012\000"
 3235      68206164 
 3235      64726573 
 3235      735B3078 
 3235      25785D20 
 3236 001f 00       		.align	2
 3237              	.LC65:
 3238 0020 72656164 		.ascii	"read error %d\012\000"
 3238      20657272 
 3238      6F722025 
 3238      640A00
 3239 002f 00       		.align	2
 3240              	.LC66:
 3241 0030 6C6F6720 		.ascii	"log use pages %d/%d:\012\000"
 3241      75736520 
 3241      70616765 
 3241      73202564 
 3241      2F25643A 
 3242 0046 0000     		.align	2
 3243              	.LC67:
 3244 0048 616C6C20 		.ascii	"all log print success\012\000"
 3244      6C6F6720 
 3244      7072696E 
 3244      74207375 
 3244      63636573 
 3245              		.section	.text.AT_READFLASH_Handle,"ax",%progbits
 3246              		.align	1
 3247              		.global	AT_READFLASH_Handle
 3248              		.syntax unified
 3249              		.thumb
 3250              		.thumb_func
 3252              	AT_READFLASH_Handle:
 3253              	.LVL348:
 3254              	.LFB259:
 486:App/Src/command.c **** 	int address;
 3255              		.loc 1 486 1 is_stmt 1 view -0
 3256              		.cfi_startproc
 3257              		@ args = 0, pretend = 0, frame = 264
 3258              		@ frame_needed = 0, uses_anonymous_args = 0
 486:App/Src/command.c **** 	int address;
 3259              		.loc 1 486 1 is_stmt 0 view .LVU742
 3260 0000 30B5     		push	{r4, r5, lr}
 3261              	.LCFI61:
 3262              		.cfi_def_cfa_offset 12
 3263              		.cfi_offset 4, -12
ARM GAS  C:\Users\86158\AppData\Local\Temp\ccFxKACN.s 			page 89


 3264              		.cfi_offset 5, -8
 3265              		.cfi_offset 14, -4
 3266 0002 C3B0     		sub	sp, sp, #268
 3267              	.LCFI62:
 3268              		.cfi_def_cfa_offset 280
 3269 0004 0446     		mov	r4, r0
 487:App/Src/command.c **** 	uint8_t str[256] = {0};
 3270              		.loc 1 487 2 is_stmt 1 view .LVU743
 488:App/Src/command.c **** 	int result;
 3271              		.loc 1 488 2 view .LVU744
 488:App/Src/command.c **** 	int result;
 3272              		.loc 1 488 10 is_stmt 0 view .LVU745
 3273 0006 0021     		movs	r1, #0
 3274 0008 0191     		str	r1, [sp, #4]
 3275 000a FC22     		movs	r2, #252
 3276 000c 02A8     		add	r0, sp, #8
 3277              	.LVL349:
 488:App/Src/command.c **** 	int result;
 3278              		.loc 1 488 10 view .LVU746
 3279 000e FFF7FEFF 		bl	memset
 3280              	.LVL350:
 489:App/Src/command.c ****     int i;
 3281              		.loc 1 489 2 is_stmt 1 view .LVU747
 490:App/Src/command.c **** 	uint32_t pageCount;
 3282              		.loc 1 490 5 view .LVU748
 491:App/Src/command.c **** 
 3283              		.loc 1 491 2 view .LVU749
 493:App/Src/command.c **** 		CharToInt(command, 13, &address);
 3284              		.loc 1 493 2 view .LVU750
 493:App/Src/command.c **** 		CharToInt(command, 13, &address);
 3285              		.loc 1 493 6 is_stmt 0 view .LVU751
 3286 0012 1E49     		ldr	r1, .L234
 3287 0014 2046     		mov	r0, r4
 3288 0016 FFF7FEFF 		bl	strSearch
 3289              	.LVL351:
 493:App/Src/command.c **** 		CharToInt(command, 13, &address);
 3290              		.loc 1 493 5 view .LVU752
 3291 001a 0028     		cmp	r0, #0
 3292 001c 17DD     		ble	.L227
 494:App/Src/command.c **** 		result = flash_read_data(address, str, 256);
 3293              		.loc 1 494 3 is_stmt 1 view .LVU753
 3294 001e 41AA     		add	r2, sp, #260
 3295 0020 0D21     		movs	r1, #13
 3296 0022 2046     		mov	r0, r4
 3297 0024 FFF7FEFF 		bl	CharToInt
 3298              	.LVL352:
 495:App/Src/command.c **** 		if (result == 1) {
 3299              		.loc 1 495 3 view .LVU754
 495:App/Src/command.c **** 		if (result == 1) {
 3300              		.loc 1 495 12 is_stmt 0 view .LVU755
 3301 0028 4FF48072 		mov	r2, #256
 3302 002c 01A9     		add	r1, sp, #4
 3303 002e 4198     		ldr	r0, [sp, #260]
 3304 0030 FFF7FEFF 		bl	flash_read_data
 3305              	.LVL353:
 3306 0034 0146     		mov	r1, r0
 3307              	.LVL354:
ARM GAS  C:\Users\86158\AppData\Local\Temp\ccFxKACN.s 			page 90


 496:App/Src/command.c **** 			UsbPrintf("flash address[0x%x] print:\n%s\n", address, (char*)str);
 3308              		.loc 1 496 3 is_stmt 1 view .LVU756
 496:App/Src/command.c **** 			UsbPrintf("flash address[0x%x] print:\n%s\n", address, (char*)str);
 3309              		.loc 1 496 6 is_stmt 0 view .LVU757
 3310 0036 0128     		cmp	r0, #1
 3311 0038 03D0     		beq	.L233
 499:App/Src/command.c **** 		}
 3312              		.loc 1 499 4 is_stmt 1 view .LVU758
 3313 003a 1548     		ldr	r0, .L234+4
 3314              	.LVL355:
 499:App/Src/command.c **** 		}
 3315              		.loc 1 499 4 is_stmt 0 view .LVU759
 3316 003c FFF7FEFF 		bl	UsbPrintf
 3317              	.LVL356:
 499:App/Src/command.c **** 		}
 3318              		.loc 1 499 4 view .LVU760
 3319 0040 22E0     		b	.L226
 3320              	.LVL357:
 3321              	.L233:
 497:App/Src/command.c **** 		} else {
 3322              		.loc 1 497 4 is_stmt 1 view .LVU761
 3323 0042 01AA     		add	r2, sp, #4
 3324 0044 4199     		ldr	r1, [sp, #260]
 3325 0046 1348     		ldr	r0, .L234+8
 3326              	.LVL358:
 497:App/Src/command.c **** 		} else {
 3327              		.loc 1 497 4 is_stmt 0 view .LVU762
 3328 0048 FFF7FEFF 		bl	UsbPrintf
 3329              	.LVL359:
 3330 004c 1CE0     		b	.L226
 3331              	.L227:
 502:App/Src/command.c **** 		UsbPrintf("log use pages %d/%d:\n", pageCount, LOG_MAX_PAGE);
 3332              		.loc 1 502 3 is_stmt 1 view .LVU763
 502:App/Src/command.c **** 		UsbPrintf("log use pages %d/%d:\n", pageCount, LOG_MAX_PAGE);
 3333              		.loc 1 502 15 is_stmt 0 view .LVU764
 3334 004e FFF7FEFF 		bl	get_log_record_pages
 3335              	.LVL360:
 3336 0052 0546     		mov	r5, r0
 3337              	.LVL361:
 503:App/Src/command.c **** 		for (i = 0; i < pageCount; i++) {
 3338              		.loc 1 503 3 is_stmt 1 view .LVU765
 3339 0054 4FF47E42 		mov	r2, #65024
 3340 0058 0146     		mov	r1, r0
 3341 005a 0F48     		ldr	r0, .L234+12
 3342              	.LVL362:
 503:App/Src/command.c **** 		for (i = 0; i < pageCount; i++) {
 3343              		.loc 1 503 3 is_stmt 0 view .LVU766
 3344 005c FFF7FEFF 		bl	UsbPrintf
 3345              	.LVL363:
 504:App/Src/command.c **** 			flash_read_data(LOG_START_ADDR + i * PAGE_SIZE, str, PAGE_SIZE);
 3346              		.loc 1 504 3 is_stmt 1 view .LVU767
 504:App/Src/command.c **** 			flash_read_data(LOG_START_ADDR + i * PAGE_SIZE, str, PAGE_SIZE);
 3347              		.loc 1 504 10 is_stmt 0 view .LVU768
 3348 0060 0024     		movs	r4, #0
 3349              	.LVL364:
 504:App/Src/command.c **** 			flash_read_data(LOG_START_ADDR + i * PAGE_SIZE, str, PAGE_SIZE);
 3350              		.loc 1 504 3 view .LVU769
ARM GAS  C:\Users\86158\AppData\Local\Temp\ccFxKACN.s 			page 91


 3351 0062 0CE0     		b	.L230
 3352              	.LVL365:
 3353              	.L231:
 505:App/Src/command.c **** 			UsbPrintf("%s\n", (char*)str);
 3354              		.loc 1 505 4 is_stmt 1 discriminator 3 view .LVU770
 505:App/Src/command.c **** 			UsbPrintf("%s\n", (char*)str);
 3355              		.loc 1 505 35 is_stmt 0 discriminator 3 view .LVU771
 3356 0064 04F50070 		add	r0, r4, #512
 505:App/Src/command.c **** 			UsbPrintf("%s\n", (char*)str);
 3357              		.loc 1 505 4 discriminator 3 view .LVU772
 3358 0068 4FF48072 		mov	r2, #256
 3359 006c 01A9     		add	r1, sp, #4
 3360 006e 0002     		lsls	r0, r0, #8
 3361 0070 FFF7FEFF 		bl	flash_read_data
 3362              	.LVL366:
 506:App/Src/command.c **** 		}
 3363              		.loc 1 506 4 is_stmt 1 discriminator 3 view .LVU773
 3364 0074 01A9     		add	r1, sp, #4
 3365 0076 0948     		ldr	r0, .L234+16
 3366 0078 FFF7FEFF 		bl	UsbPrintf
 3367              	.LVL367:
 504:App/Src/command.c **** 			flash_read_data(LOG_START_ADDR + i * PAGE_SIZE, str, PAGE_SIZE);
 3368              		.loc 1 504 30 discriminator 3 view .LVU774
 504:App/Src/command.c **** 			flash_read_data(LOG_START_ADDR + i * PAGE_SIZE, str, PAGE_SIZE);
 3369              		.loc 1 504 31 is_stmt 0 discriminator 3 view .LVU775
 3370 007c 0134     		adds	r4, r4, #1
 3371              	.LVL368:
 3372              	.L230:
 504:App/Src/command.c **** 			flash_read_data(LOG_START_ADDR + i * PAGE_SIZE, str, PAGE_SIZE);
 3373              		.loc 1 504 15 is_stmt 1 discriminator 1 view .LVU776
 504:App/Src/command.c **** 			flash_read_data(LOG_START_ADDR + i * PAGE_SIZE, str, PAGE_SIZE);
 3374              		.loc 1 504 3 is_stmt 0 discriminator 1 view .LVU777
 3375 007e AC42     		cmp	r4, r5
 3376 0080 F0D3     		bcc	.L231
 508:App/Src/command.c **** 	} 
 3377              		.loc 1 508 3 is_stmt 1 view .LVU778
 3378 0082 0748     		ldr	r0, .L234+20
 3379 0084 FFF7FEFF 		bl	UsbPrintf
 3380              	.LVL369:
 3381              	.L226:
 510:App/Src/command.c **** void AT_ERASEFLASH_Handle(char* command)
 3382              		.loc 1 510 1 is_stmt 0 view .LVU779
 3383 0088 43B0     		add	sp, sp, #268
 3384              	.LCFI63:
 3385              		.cfi_def_cfa_offset 12
 3386              		@ sp needed
 3387 008a 30BD     		pop	{r4, r5, pc}
 3388              	.L235:
 3389              		.align	2
 3390              	.L234:
 3391 008c 00000000 		.word	.LC61
 3392 0090 20000000 		.word	.LC65
 3393 0094 00000000 		.word	.LC64
 3394 0098 30000000 		.word	.LC66
 3395 009c 0C000000 		.word	.LC39
 3396 00a0 48000000 		.word	.LC67
 3397              		.cfi_endproc
ARM GAS  C:\Users\86158\AppData\Local\Temp\ccFxKACN.s 			page 92


 3398              	.LFE259:
 3400              		.section	.rodata.AT_ERASEFLASH_Handle.str1.4,"aMS",%progbits,1
 3401              		.align	2
 3402              	.LC68:
 3403 0000 65617273 		.ascii	"earse full chip need 40s ~ 200s\012\000"
 3403      65206675 
 3403      6C6C2063 
 3403      68697020 
 3403      6E656564 
 3404 0021 000000   		.align	2
 3405              	.LC69:
 3406 0024 77616974 		.ascii	"wait for %ds...\012\000"
 3406      20666F72 
 3406      20256473 
 3406      2E2E2E0A 
 3406      00
 3407 0035 000000   		.align	2
 3408              	.LC70:
 3409 0038 696E7075 		.ascii	"input error!\012\000"
 3409      74206572 
 3409      726F7221 
 3409      0A00
 3410              		.section	.text.AT_ERASEFLASH_Handle,"ax",%progbits
 3411              		.align	1
 3412              		.global	AT_ERASEFLASH_Handle
 3413              		.syntax unified
 3414              		.thumb
 3415              		.thumb_func
 3417              	AT_ERASEFLASH_Handle:
 3418              	.LVL370:
 3419              	.LFB260:
 512:App/Src/command.c **** 	int mode, address;
 3420              		.loc 1 512 1 is_stmt 1 view -0
 3421              		.cfi_startproc
 3422              		@ args = 0, pretend = 0, frame = 8
 3423              		@ frame_needed = 0, uses_anonymous_args = 0
 512:App/Src/command.c **** 	int mode, address;
 3424              		.loc 1 512 1 is_stmt 0 view .LVU781
 3425 0000 10B5     		push	{r4, lr}
 3426              	.LCFI64:
 3427              		.cfi_def_cfa_offset 8
 3428              		.cfi_offset 4, -8
 3429              		.cfi_offset 14, -4
 3430 0002 82B0     		sub	sp, sp, #8
 3431              	.LCFI65:
 3432              		.cfi_def_cfa_offset 16
 3433 0004 0446     		mov	r4, r0
 513:App/Src/command.c **** 	int i = 0;
 3434              		.loc 1 513 2 is_stmt 1 view .LVU782
 514:App/Src/command.c **** 	if (CharToInt(command, 14, &mode) == 1) {
 3435              		.loc 1 514 2 view .LVU783
 3436              	.LVL371:
 515:App/Src/command.c **** 		CharToInt(command, strSearch(command, ",") + 1, &address);
 3437              		.loc 1 515 2 view .LVU784
 515:App/Src/command.c **** 		CharToInt(command, strSearch(command, ",") + 1, &address);
 3438              		.loc 1 515 6 is_stmt 0 view .LVU785
 3439 0006 01AA     		add	r2, sp, #4
ARM GAS  C:\Users\86158\AppData\Local\Temp\ccFxKACN.s 			page 93


 3440 0008 0E21     		movs	r1, #14
 3441 000a FFF7FEFF 		bl	CharToInt
 3442              	.LVL372:
 515:App/Src/command.c **** 		CharToInt(command, strSearch(command, ",") + 1, &address);
 3443              		.loc 1 515 5 view .LVU786
 3444 000e 0128     		cmp	r0, #1
 3445 0010 04D0     		beq	.L244
 533:App/Src/command.c **** 	} 
 3446              		.loc 1 533 3 is_stmt 1 view .LVU787
 3447 0012 1848     		ldr	r0, .L245
 3448 0014 FFF7FEFF 		bl	UsbPrintf
 3449              	.LVL373:
 3450              	.L236:
 535:App/Src/command.c **** 
 3451              		.loc 1 535 1 is_stmt 0 view .LVU788
 3452 0018 02B0     		add	sp, sp, #8
 3453              	.LCFI66:
 3454              		.cfi_remember_state
 3455              		.cfi_def_cfa_offset 8
 3456              		@ sp needed
 3457 001a 10BD     		pop	{r4, pc}
 3458              	.LVL374:
 3459              	.L244:
 3460              	.LCFI67:
 3461              		.cfi_restore_state
 516:App/Src/command.c **** 		if (mode >= 0 && mode <= 2) {
 3462              		.loc 1 516 3 is_stmt 1 view .LVU789
 516:App/Src/command.c **** 		if (mode >= 0 && mode <= 2) {
 3463              		.loc 1 516 22 is_stmt 0 view .LVU790
 3464 001c 1649     		ldr	r1, .L245+4
 3465 001e 2046     		mov	r0, r4
 3466 0020 FFF7FEFF 		bl	strSearch
 3467              	.LVL375:
 516:App/Src/command.c **** 		if (mode >= 0 && mode <= 2) {
 3468              		.loc 1 516 3 view .LVU791
 3469 0024 411C     		adds	r1, r0, #1
 3470 0026 6A46     		mov	r2, sp
 3471 0028 C9B2     		uxtb	r1, r1
 3472 002a 2046     		mov	r0, r4
 3473 002c FFF7FEFF 		bl	CharToInt
 3474              	.LVL376:
 517:App/Src/command.c **** 			flash_erase(address, mode);
 3475              		.loc 1 517 3 is_stmt 1 view .LVU792
 517:App/Src/command.c **** 			flash_erase(address, mode);
 3476              		.loc 1 517 17 is_stmt 0 view .LVU793
 3477 0030 0199     		ldr	r1, [sp, #4]
 517:App/Src/command.c **** 			flash_erase(address, mode);
 3478              		.loc 1 517 6 view .LVU794
 3479 0032 0229     		cmp	r1, #2
 3480 0034 F0D8     		bhi	.L236
 518:App/Src/command.c **** 			UsbPrintf("earse full chip need 40s ~ 200s\n");
 3481              		.loc 1 518 4 is_stmt 1 view .LVU795
 3482 0036 C9B2     		uxtb	r1, r1
 3483 0038 0098     		ldr	r0, [sp]
 3484 003a FFF7FEFF 		bl	flash_erase
 3485              	.LVL377:
 519:App/Src/command.c **** 			if (mode == 0) { 
ARM GAS  C:\Users\86158\AppData\Local\Temp\ccFxKACN.s 			page 94


 3486              		.loc 1 519 4 view .LVU796
 3487 003e 0F48     		ldr	r0, .L245+8
 3488 0040 FFF7FEFF 		bl	UsbPrintf
 3489              	.LVL378:
 520:App/Src/command.c **** 				for (i = 0; i < 100; i++) {
 3490              		.loc 1 520 4 view .LVU797
 520:App/Src/command.c **** 				for (i = 0; i < 100; i++) {
 3491              		.loc 1 520 13 is_stmt 0 view .LVU798
 3492 0044 019C     		ldr	r4, [sp, #4]
 3493              	.LVL379:
 520:App/Src/command.c **** 				for (i = 0; i < 100; i++) {
 3494              		.loc 1 520 7 view .LVU799
 3495 0046 1CB1     		cbz	r4, .L239
 3496              	.LVL380:
 3497              	.L240:
 530:App/Src/command.c **** 		}
 3498              		.loc 1 530 4 is_stmt 1 view .LVU800
 3499 0048 0D48     		ldr	r0, .L245+12
 3500 004a FFF7FEFF 		bl	UsbPrintf
 3501              	.LVL381:
 3502 004e E3E7     		b	.L236
 3503              	.L239:
 3504              	.LVL382:
 521:App/Src/command.c **** 					HAL_Delay(2000);
 3505              		.loc 1 521 17 discriminator 1 view .LVU801
 521:App/Src/command.c **** 					HAL_Delay(2000);
 3506              		.loc 1 521 5 is_stmt 0 discriminator 1 view .LVU802
 3507 0050 632C     		cmp	r4, #99
 3508 0052 0CDC     		bgt	.L241
 522:App/Src/command.c **** 					UsbPrintf("wait for %ds...\n", (i + 1) * 2);
 3509              		.loc 1 522 6 is_stmt 1 view .LVU803
 3510 0054 4FF4FA60 		mov	r0, #2000
 3511 0058 FFF7FEFF 		bl	HAL_Delay
 3512              	.LVL383:
 523:App/Src/command.c **** 					if (CheckBusy() == 1) {
 3513              		.loc 1 523 6 view .LVU804
 523:App/Src/command.c **** 					if (CheckBusy() == 1) {
 3514              		.loc 1 523 40 is_stmt 0 view .LVU805
 3515 005c 0134     		adds	r4, r4, #1
 3516              	.LVL384:
 523:App/Src/command.c **** 					if (CheckBusy() == 1) {
 3517              		.loc 1 523 6 view .LVU806
 3518 005e 6100     		lsls	r1, r4, #1
 3519 0060 0848     		ldr	r0, .L245+16
 3520 0062 FFF7FEFF 		bl	UsbPrintf
 3521              	.LVL385:
 524:App/Src/command.c **** 						break;
 3522              		.loc 1 524 6 is_stmt 1 view .LVU807
 524:App/Src/command.c **** 						break;
 3523              		.loc 1 524 10 is_stmt 0 view .LVU808
 3524 0066 FFF7FEFF 		bl	CheckBusy
 3525              	.LVL386:
 524:App/Src/command.c **** 						break;
 3526              		.loc 1 524 9 view .LVU809
 3527 006a 0128     		cmp	r0, #1
 3528 006c F0D1     		bne	.L239
 3529              	.LVL387:
ARM GAS  C:\Users\86158\AppData\Local\Temp\ccFxKACN.s 			page 95


 3530              	.L241:
 528:App/Src/command.c **** 			}
 3531              		.loc 1 528 5 is_stmt 1 view .LVU810
 3532 006e FFF7FEFF 		bl	log_list_init
 3533              	.LVL388:
 3534 0072 E9E7     		b	.L240
 3535              	.L246:
 3536              		.align	2
 3537              	.L245:
 3538 0074 38000000 		.word	.LC70
 3539 0078 00000000 		.word	.LC50
 3540 007c 00000000 		.word	.LC68
 3541 0080 1C000000 		.word	.LC14
 3542 0084 24000000 		.word	.LC69
 3543              		.cfi_endproc
 3544              	.LFE260:
 3546              		.section	.rodata.AT_SETCURRENT_Handle.str1.4,"aMS",%progbits,1
 3547              		.align	2
 3548              	.LC71:
 3549 0000 63757272 		.ascii	"current setting :mode %d, channel %d \012OK!\012\000"
 3549      656E7420 
 3549      73657474 
 3549      696E6720 
 3549      3A6D6F64 
 3550              		.section	.text.AT_SETCURRENT_Handle,"ax",%progbits
 3551              		.align	1
 3552              		.global	AT_SETCURRENT_Handle
 3553              		.syntax unified
 3554              		.thumb
 3555              		.thumb_func
 3557              	AT_SETCURRENT_Handle:
 3558              	.LVL389:
 3559              	.LFB261:
 538:App/Src/command.c **** 	int mode, number;
 3560              		.loc 1 538 1 view -0
 3561              		.cfi_startproc
 3562              		@ args = 0, pretend = 0, frame = 8
 3563              		@ frame_needed = 0, uses_anonymous_args = 0
 538:App/Src/command.c **** 	int mode, number;
 3564              		.loc 1 538 1 is_stmt 0 view .LVU812
 3565 0000 10B5     		push	{r4, lr}
 3566              	.LCFI68:
 3567              		.cfi_def_cfa_offset 8
 3568              		.cfi_offset 4, -8
 3569              		.cfi_offset 14, -4
 3570 0002 82B0     		sub	sp, sp, #8
 3571              	.LCFI69:
 3572              		.cfi_def_cfa_offset 16
 3573 0004 0446     		mov	r4, r0
 539:App/Src/command.c **** 	if (CharToInt(command, 14, &mode) == 1) {
 3574              		.loc 1 539 2 is_stmt 1 view .LVU813
 540:App/Src/command.c **** 		CharToInt(command, strSearch(command, ",") + 1, &number);
 3575              		.loc 1 540 2 view .LVU814
 540:App/Src/command.c **** 		CharToInt(command, strSearch(command, ",") + 1, &number);
 3576              		.loc 1 540 6 is_stmt 0 view .LVU815
 3577 0006 01AA     		add	r2, sp, #4
 3578 0008 0E21     		movs	r1, #14
ARM GAS  C:\Users\86158\AppData\Local\Temp\ccFxKACN.s 			page 96


 3579 000a FFF7FEFF 		bl	CharToInt
 3580              	.LVL390:
 540:App/Src/command.c **** 		CharToInt(command, strSearch(command, ",") + 1, &number);
 3581              		.loc 1 540 5 view .LVU816
 3582 000e 0128     		cmp	r0, #1
 3583 0010 04D0     		beq	.L254
 553:App/Src/command.c **** 	} 
 3584              		.loc 1 553 3 is_stmt 1 view .LVU817
 3585 0012 1948     		ldr	r0, .L258
 3586 0014 FFF7FEFF 		bl	UsbPrintf
 3587              	.LVL391:
 3588              	.L247:
 555:App/Src/command.c **** void AT_SYSVOLTAGE_Handle(char* command)
 3589              		.loc 1 555 1 is_stmt 0 view .LVU818
 3590 0018 02B0     		add	sp, sp, #8
 3591              	.LCFI70:
 3592              		.cfi_remember_state
 3593              		.cfi_def_cfa_offset 8
 3594              		@ sp needed
 3595 001a 10BD     		pop	{r4, pc}
 3596              	.LVL392:
 3597              	.L254:
 3598              	.LCFI71:
 3599              		.cfi_restore_state
 541:App/Src/command.c **** 		if (mode == 0) {
 3600              		.loc 1 541 3 is_stmt 1 view .LVU819
 541:App/Src/command.c **** 		if (mode == 0) {
 3601              		.loc 1 541 22 is_stmt 0 view .LVU820
 3602 001c 1749     		ldr	r1, .L258+4
 3603 001e 2046     		mov	r0, r4
 3604 0020 FFF7FEFF 		bl	strSearch
 3605              	.LVL393:
 541:App/Src/command.c **** 		if (mode == 0) {
 3606              		.loc 1 541 3 view .LVU821
 3607 0024 411C     		adds	r1, r0, #1
 3608 0026 6A46     		mov	r2, sp
 3609 0028 C9B2     		uxtb	r1, r1
 3610 002a 2046     		mov	r0, r4
 3611 002c FFF7FEFF 		bl	CharToInt
 3612              	.LVL394:
 542:App/Src/command.c **** 			rtc_group_power(number, POWER_OFF);
 3613              		.loc 1 542 3 is_stmt 1 view .LVU822
 542:App/Src/command.c **** 			rtc_group_power(number, POWER_OFF);
 3614              		.loc 1 542 12 is_stmt 0 view .LVU823
 3615 0030 019B     		ldr	r3, [sp, #4]
 542:App/Src/command.c **** 			rtc_group_power(number, POWER_OFF);
 3616              		.loc 1 542 6 view .LVU824
 3617 0032 4BB1     		cbz	r3, .L255
 544:App/Src/command.c **** 			HAL_Delay(5);
 3618              		.loc 1 544 10 is_stmt 1 view .LVU825
 544:App/Src/command.c **** 			HAL_Delay(5);
 3619              		.loc 1 544 13 is_stmt 0 view .LVU826
 3620 0034 012B     		cmp	r3, #1
 3621 0036 0DD0     		beq	.L256
 547:App/Src/command.c **** 			HAL_Delay(5);
 3622              		.loc 1 547 10 is_stmt 1 view .LVU827
 547:App/Src/command.c **** 			HAL_Delay(5);
ARM GAS  C:\Users\86158\AppData\Local\Temp\ccFxKACN.s 			page 97


 3623              		.loc 1 547 13 is_stmt 0 view .LVU828
 3624 0038 022B     		cmp	r3, #2
 3625 003a 14D0     		beq	.L257
 3626              	.L250:
 551:App/Src/command.c **** 	} else {
 3627              		.loc 1 551 3 is_stmt 1 view .LVU829
 3628 003c 009A     		ldr	r2, [sp]
 3629 003e 0199     		ldr	r1, [sp, #4]
 3630 0040 0F48     		ldr	r0, .L258+8
 3631 0042 FFF7FEFF 		bl	UsbPrintf
 3632              	.LVL395:
 3633 0046 E7E7     		b	.L247
 3634              	.L255:
 543:App/Src/command.c **** 		} else if (mode == 1) {
 3635              		.loc 1 543 4 view .LVU830
 3636 0048 0021     		movs	r1, #0
 3637 004a 9DF80000 		ldrb	r0, [sp]	@ zero_extendqisi2
 3638 004e FFF7FEFF 		bl	rtc_group_power
 3639              	.LVL396:
 3640 0052 F3E7     		b	.L250
 3641              	.L256:
 545:App/Src/command.c **** 			rtc_group_power(number, POWER_VDD_I);
 3642              		.loc 1 545 4 view .LVU831
 3643 0054 0520     		movs	r0, #5
 3644 0056 FFF7FEFF 		bl	HAL_Delay
 3645              	.LVL397:
 546:App/Src/command.c **** 		} else if (mode == 2) {
 3646              		.loc 1 546 4 view .LVU832
 3647 005a 0321     		movs	r1, #3
 3648 005c 9DF80000 		ldrb	r0, [sp]	@ zero_extendqisi2
 3649 0060 FFF7FEFF 		bl	rtc_group_power
 3650              	.LVL398:
 3651 0064 EAE7     		b	.L250
 3652              	.L257:
 548:App/Src/command.c **** 			rtc_group_power(number, POWER_BAT_I);
 3653              		.loc 1 548 4 view .LVU833
 3654 0066 0520     		movs	r0, #5
 3655 0068 FFF7FEFF 		bl	HAL_Delay
 3656              	.LVL399:
 549:App/Src/command.c **** 		}
 3657              		.loc 1 549 4 view .LVU834
 3658 006c 0221     		movs	r1, #2
 3659 006e 9DF80000 		ldrb	r0, [sp]	@ zero_extendqisi2
 3660 0072 FFF7FEFF 		bl	rtc_group_power
 3661              	.LVL400:
 3662 0076 E1E7     		b	.L250
 3663              	.L259:
 3664              		.align	2
 3665              	.L258:
 3666 0078 38000000 		.word	.LC70
 3667 007c 00000000 		.word	.LC50
 3668 0080 00000000 		.word	.LC71
 3669              		.cfi_endproc
 3670              	.LFE261:
 3672              		.section	.rodata.AT_SYSTEST_Handle.str1.4,"aMS",%progbits,1
 3673              		.align	2
 3674              	.LC72:
ARM GAS  C:\Users\86158\AppData\Local\Temp\ccFxKACN.s 			page 98


 3675 0000 6E6F2074 		.ascii	"no this test mode!\012\000"
 3675      68697320 
 3675      74657374 
 3675      206D6F64 
 3675      65210A00 
 3676              		.section	.text.AT_SYSTEST_Handle,"ax",%progbits
 3677              		.align	1
 3678              		.global	AT_SYSTEST_Handle
 3679              		.syntax unified
 3680              		.thumb
 3681              		.thumb_func
 3683              	AT_SYSTEST_Handle:
 3684              	.LVL401:
 3685              	.LFB263:
 571:App/Src/command.c **** 	int number;
 3686              		.loc 1 571 1 view -0
 3687              		.cfi_startproc
 3688              		@ args = 0, pretend = 0, frame = 8
 3689              		@ frame_needed = 0, uses_anonymous_args = 0
 571:App/Src/command.c **** 	int number;
 3690              		.loc 1 571 1 is_stmt 0 view .LVU836
 3691 0000 00B5     		push	{lr}
 3692              	.LCFI72:
 3693              		.cfi_def_cfa_offset 4
 3694              		.cfi_offset 14, -4
 3695 0002 83B0     		sub	sp, sp, #12
 3696              	.LCFI73:
 3697              		.cfi_def_cfa_offset 16
 572:App/Src/command.c **** 	if (CharToInt(command, 11, &number) == 1) {
 3698              		.loc 1 572 2 is_stmt 1 view .LVU837
 573:App/Src/command.c **** 		if (number < FREE_MODE || number > MACHINE_WRITE) {
 3699              		.loc 1 573 2 view .LVU838
 573:App/Src/command.c **** 		if (number < FREE_MODE || number > MACHINE_WRITE) {
 3700              		.loc 1 573 6 is_stmt 0 view .LVU839
 3701 0004 01AA     		add	r2, sp, #4
 3702 0006 0B21     		movs	r1, #11
 3703 0008 FFF7FEFF 		bl	CharToInt
 3704              	.LVL402:
 573:App/Src/command.c **** 		if (number < FREE_MODE || number > MACHINE_WRITE) {
 3705              		.loc 1 573 5 view .LVU840
 3706 000c 0128     		cmp	r0, #1
 3707 000e 05D1     		bne	.L261
 574:App/Src/command.c **** 			UsbPrintf("no this test mode!\n");
 3708              		.loc 1 574 3 is_stmt 1 view .LVU841
 574:App/Src/command.c **** 			UsbPrintf("no this test mode!\n");
 3709              		.loc 1 574 26 is_stmt 0 view .LVU842
 3710 0010 0198     		ldr	r0, [sp, #4]
 574:App/Src/command.c **** 			UsbPrintf("no this test mode!\n");
 3711              		.loc 1 574 6 view .LVU843
 3712 0012 0B28     		cmp	r0, #11
 3713 0014 08D8     		bhi	.L265
 578:App/Src/command.c **** 	}
 3714              		.loc 1 578 3 is_stmt 1 view .LVU844
 3715 0016 C0B2     		uxtb	r0, r0
 3716 0018 FFF7FEFF 		bl	manager_set_mode
 3717              	.LVL403:
 3718              	.L261:
ARM GAS  C:\Users\86158\AppData\Local\Temp\ccFxKACN.s 			page 99


 580:App/Src/command.c **** }
 3719              		.loc 1 580 2 view .LVU845
 3720 001c 0448     		ldr	r0, .L266
 3721 001e FFF7FEFF 		bl	UsbPrintf
 3722              	.LVL404:
 3723              	.L260:
 581:App/Src/command.c **** 
 3724              		.loc 1 581 1 is_stmt 0 view .LVU846
 3725 0022 03B0     		add	sp, sp, #12
 3726              	.LCFI74:
 3727              		.cfi_remember_state
 3728              		.cfi_def_cfa_offset 4
 3729              		@ sp needed
 3730 0024 5DF804FB 		ldr	pc, [sp], #4
 3731              	.L265:
 3732              	.LCFI75:
 3733              		.cfi_restore_state
 575:App/Src/command.c **** 			return;
 3734              		.loc 1 575 4 is_stmt 1 view .LVU847
 3735 0028 0248     		ldr	r0, .L266+4
 3736 002a FFF7FEFF 		bl	UsbPrintf
 3737              	.LVL405:
 576:App/Src/command.c **** 		}
 3738              		.loc 1 576 4 view .LVU848
 3739 002e F8E7     		b	.L260
 3740              	.L267:
 3741              		.align	2
 3742              	.L266:
 3743 0030 58000000 		.word	.LC7
 3744 0034 00000000 		.word	.LC72
 3745              		.cfi_endproc
 3746              	.LFE263:
 3748              		.section	.rodata.AT_TESTDATA_Handle.str1.4,"aMS",%progbits,1
 3749              		.align	2
 3750              	.LC73:
 3751 0000 63686970 		.ascii	"chip:\000"
 3751      3A00
 3752 0006 0000     		.align	2
 3753              	.LC74:
 3754 0008 70617274 		.ascii	"part:\000"
 3754      3A00
 3755 000e 0000     		.align	2
 3756              	.LC75:
 3757 0010 63686970 		.ascii	"chip%d \000"
 3757      25642000 
 3758              		.section	.text.AT_TESTDATA_Handle,"ax",%progbits
 3759              		.align	1
 3760              		.global	AT_TESTDATA_Handle
 3761              		.syntax unified
 3762              		.thumb
 3763              		.thumb_func
 3765              	AT_TESTDATA_Handle:
 3766              	.LVL406:
 3767              	.LFB268:
 720:App/Src/command.c **** 	int partNumber = 0;
 3768              		.loc 1 720 1 view -0
 3769              		.cfi_startproc
ARM GAS  C:\Users\86158\AppData\Local\Temp\ccFxKACN.s 			page 100


 3770              		@ args = 0, pretend = 0, frame = 248
 3771              		@ frame_needed = 0, uses_anonymous_args = 0
 720:App/Src/command.c **** 	int partNumber = 0;
 3772              		.loc 1 720 1 is_stmt 0 view .LVU850
 3773 0000 70B5     		push	{r4, r5, r6, lr}
 3774              	.LCFI76:
 3775              		.cfi_def_cfa_offset 16
 3776              		.cfi_offset 4, -16
 3777              		.cfi_offset 5, -12
 3778              		.cfi_offset 6, -8
 3779              		.cfi_offset 14, -4
 3780 0002 F6B0     		sub	sp, sp, #472
 3781              	.LCFI77:
 3782              		.cfi_def_cfa_offset 488
 3783 0004 0446     		mov	r4, r0
 721:App/Src/command.c **** 	int chipNumber = 0;
 3784              		.loc 1 721 2 is_stmt 1 view .LVU851
 721:App/Src/command.c **** 	int chipNumber = 0;
 3785              		.loc 1 721 6 is_stmt 0 view .LVU852
 3786 0006 0021     		movs	r1, #0
 3787 0008 7591     		str	r1, [sp, #468]
 722:App/Src/command.c **** 	int num;
 3788              		.loc 1 722 2 is_stmt 1 view .LVU853
 722:App/Src/command.c **** 	int num;
 3789              		.loc 1 722 6 is_stmt 0 view .LVU854
 3790 000a 7491     		str	r1, [sp, #464]
 723:App/Src/command.c **** 	int i;
 3791              		.loc 1 723 2 is_stmt 1 view .LVU855
 724:App/Src/command.c **** 	TestResult result = {0};
 3792              		.loc 1 724 2 view .LVU856
 725:App/Src/command.c **** 
 3793              		.loc 1 725 2 view .LVU857
 725:App/Src/command.c **** 
 3794              		.loc 1 725 13 is_stmt 0 view .LVU858
 3795 000c EC22     		movs	r2, #236
 3796 000e 39A8     		add	r0, sp, #228
 3797              	.LVL407:
 725:App/Src/command.c **** 
 3798              		.loc 1 725 13 view .LVU859
 3799 0010 FFF7FEFF 		bl	memset
 3800              	.LVL408:
 727:App/Src/command.c **** 	if (num != -1) {
 3801              		.loc 1 727 2 is_stmt 1 view .LVU860
 727:App/Src/command.c **** 	if (num != -1) {
 3802              		.loc 1 727 8 is_stmt 0 view .LVU861
 3803 0014 2D49     		ldr	r1, .L282
 3804 0016 2046     		mov	r0, r4
 3805 0018 FFF7FEFF 		bl	strSearch
 3806              	.LVL409:
 728:App/Src/command.c **** 		num += strlen("chip:");
 3807              		.loc 1 728 2 is_stmt 1 view .LVU862
 728:App/Src/command.c **** 		num += strlen("chip:");
 3808              		.loc 1 728 5 is_stmt 0 view .LVU863
 3809 001c B0F1FF3F 		cmp	r0, #-1
 3810 0020 25D1     		bne	.L279
 3811              	.LVL410:
 3812              	.L269:
ARM GAS  C:\Users\86158\AppData\Local\Temp\ccFxKACN.s 			page 101


 733:App/Src/command.c **** 	if (num != -1) {
 3813              		.loc 1 733 2 is_stmt 1 view .LVU864
 733:App/Src/command.c **** 	if (num != -1) {
 3814              		.loc 1 733 8 is_stmt 0 view .LVU865
 3815 0022 2B49     		ldr	r1, .L282+4
 3816 0024 2046     		mov	r0, r4
 3817 0026 FFF7FEFF 		bl	strSearch
 3818              	.LVL411:
 734:App/Src/command.c **** 		num += strlen("part:");
 3819              		.loc 1 734 2 is_stmt 1 view .LVU866
 734:App/Src/command.c **** 		num += strlen("part:");
 3820              		.loc 1 734 5 is_stmt 0 view .LVU867
 3821 002a B0F1FF3F 		cmp	r0, #-1
 3822 002e 25D1     		bne	.L280
 3823              	.LVL412:
 3824              	.L270:
 738:App/Src/command.c **** 		for (i = 0; i < MAX_CHIP_NUMBER; i++) {
 3825              		.loc 1 738 2 is_stmt 1 view .LVU868
 738:App/Src/command.c **** 		for (i = 0; i < MAX_CHIP_NUMBER; i++) {
 3826              		.loc 1 738 17 is_stmt 0 view .LVU869
 3827 0030 749C     		ldr	r4, [sp, #464]
 3828              	.LVL413:
 738:App/Src/command.c **** 		for (i = 0; i < MAX_CHIP_NUMBER; i++) {
 3829              		.loc 1 738 5 view .LVU870
 3830 0032 002C     		cmp	r4, #0
 3831 0034 42D0     		beq	.L271
 745:App/Src/command.c **** 		if (chipNumber < 0) { chipNumber = 1; }
 3832              		.loc 1 745 3 is_stmt 1 view .LVU871
 745:App/Src/command.c **** 		if (chipNumber < 0) { chipNumber = 1; }
 3833              		.loc 1 745 6 is_stmt 0 view .LVU872
 3834 0036 642C     		cmp	r4, #100
 3835 0038 01DD     		ble	.L275
 745:App/Src/command.c **** 		if (chipNumber < 0) { chipNumber = 1; }
 3836              		.loc 1 745 39 is_stmt 1 discriminator 1 view .LVU873
 745:App/Src/command.c **** 		if (chipNumber < 0) { chipNumber = 1; }
 3837              		.loc 1 745 50 is_stmt 0 discriminator 1 view .LVU874
 3838 003a 6423     		movs	r3, #100
 3839 003c 7493     		str	r3, [sp, #464]
 3840              	.L275:
 746:App/Src/command.c **** 		flash_test_data_read(&result, chipNumber, TEST_DATA_ALL);
 3841              		.loc 1 746 3 is_stmt 1 view .LVU875
 746:App/Src/command.c **** 		flash_test_data_read(&result, chipNumber, TEST_DATA_ALL);
 3842              		.loc 1 746 18 is_stmt 0 view .LVU876
 3843 003e 749B     		ldr	r3, [sp, #464]
 746:App/Src/command.c **** 		flash_test_data_read(&result, chipNumber, TEST_DATA_ALL);
 3844              		.loc 1 746 6 view .LVU877
 3845 0040 002B     		cmp	r3, #0
 3846 0042 3FDB     		blt	.L281
 3847              	.L276:
 747:App/Src/command.c **** 		test_data_printf(partNumber, result);
 3848              		.loc 1 747 3 is_stmt 1 view .LVU878
 3849 0044 39AC     		add	r4, sp, #228
 3850 0046 40F20112 		movw	r2, #257
 3851 004a 9DF8D011 		ldrb	r1, [sp, #464]	@ zero_extendqisi2
 3852 004e 2046     		mov	r0, r4
 3853 0050 FFF7FEFF 		bl	flash_test_data_read
 3854              	.LVL414:
ARM GAS  C:\Users\86158\AppData\Local\Temp\ccFxKACN.s 			page 102


 748:App/Src/command.c **** 	}
 3855              		.loc 1 748 3 view .LVU879
 3856 0054 9DF8D451 		ldrb	r5, [sp, #468]	@ zero_extendqisi2
 3857 0058 E022     		movs	r2, #224
 3858 005a 3CA9     		add	r1, sp, #240
 3859 005c 6846     		mov	r0, sp
 3860 005e FFF7FEFF 		bl	memcpy
 3861              	.LVL415:
 3862 0062 94E80E00 		ldm	r4, {r1, r2, r3}
 3863 0066 2846     		mov	r0, r5
 3864 0068 FFF7FEFF 		bl	test_data_printf
 3865              	.LVL416:
 750:App/Src/command.c **** 
 3866              		.loc 1 750 1 is_stmt 0 view .LVU880
 3867 006c 28E0     		b	.L268
 3868              	.LVL417:
 3869              	.L279:
 729:App/Src/command.c **** 		CharToInt(command, num, &chipNumber);
 3870              		.loc 1 729 3 is_stmt 1 view .LVU881
 729:App/Src/command.c **** 		CharToInt(command, num, &chipNumber);
 3871              		.loc 1 729 7 is_stmt 0 view .LVU882
 3872 006e 411D     		adds	r1, r0, #5
 3873              	.LVL418:
 730:App/Src/command.c **** 	}
 3874              		.loc 1 730 3 is_stmt 1 view .LVU883
 3875 0070 74AA     		add	r2, sp, #464
 3876 0072 C9B2     		uxtb	r1, r1
 3877              	.LVL419:
 730:App/Src/command.c **** 	}
 3878              		.loc 1 730 3 is_stmt 0 view .LVU884
 3879 0074 2046     		mov	r0, r4
 3880              	.LVL420:
 730:App/Src/command.c **** 	}
 3881              		.loc 1 730 3 view .LVU885
 3882 0076 FFF7FEFF 		bl	CharToInt
 3883              	.LVL421:
 3884 007a D2E7     		b	.L269
 3885              	.LVL422:
 3886              	.L280:
 735:App/Src/command.c **** 		CharToInt(command, num, &partNumber);
 3887              		.loc 1 735 3 is_stmt 1 view .LVU886
 735:App/Src/command.c **** 		CharToInt(command, num, &partNumber);
 3888              		.loc 1 735 7 is_stmt 0 view .LVU887
 3889 007c 411D     		adds	r1, r0, #5
 3890              	.LVL423:
 736:App/Src/command.c **** 	}
 3891              		.loc 1 736 3 is_stmt 1 view .LVU888
 3892 007e 75AA     		add	r2, sp, #468
 3893 0080 C9B2     		uxtb	r1, r1
 3894              	.LVL424:
 736:App/Src/command.c **** 	}
 3895              		.loc 1 736 3 is_stmt 0 view .LVU889
 3896 0082 2046     		mov	r0, r4
 3897              	.LVL425:
 736:App/Src/command.c **** 	}
 3898              		.loc 1 736 3 view .LVU890
 3899 0084 FFF7FEFF 		bl	CharToInt
ARM GAS  C:\Users\86158\AppData\Local\Temp\ccFxKACN.s 			page 103


 3900              	.LVL426:
 3901 0088 D2E7     		b	.L270
 3902              	.LVL427:
 3903              	.L273:
 740:App/Src/command.c **** 			flash_test_data_read(&result, i + 1, TEST_DATA_ALL);
 3904              		.loc 1 740 4 is_stmt 1 discriminator 3 view .LVU891
 3905 008a 651C     		adds	r5, r4, #1
 3906 008c 2946     		mov	r1, r5
 3907 008e 1148     		ldr	r0, .L282+8
 3908 0090 FFF7FEFF 		bl	UsbPrintf
 3909              	.LVL428:
 741:App/Src/command.c **** 			test_data_printf(partNumber, result);
 3910              		.loc 1 741 4 discriminator 3 view .LVU892
 3911 0094 39AC     		add	r4, sp, #228
 3912              	.LVL429:
 741:App/Src/command.c **** 			test_data_printf(partNumber, result);
 3913              		.loc 1 741 4 is_stmt 0 discriminator 3 view .LVU893
 3914 0096 40F20112 		movw	r2, #257
 3915 009a E9B2     		uxtb	r1, r5
 3916 009c 2046     		mov	r0, r4
 3917 009e FFF7FEFF 		bl	flash_test_data_read
 3918              	.LVL430:
 742:App/Src/command.c **** 		}
 3919              		.loc 1 742 4 is_stmt 1 discriminator 3 view .LVU894
 3920 00a2 9DF8D461 		ldrb	r6, [sp, #468]	@ zero_extendqisi2
 3921 00a6 E022     		movs	r2, #224
 3922 00a8 3CA9     		add	r1, sp, #240
 3923 00aa 6846     		mov	r0, sp
 3924 00ac FFF7FEFF 		bl	memcpy
 3925              	.LVL431:
 3926 00b0 94E80E00 		ldm	r4, {r1, r2, r3}
 3927 00b4 3046     		mov	r0, r6
 3928 00b6 FFF7FEFF 		bl	test_data_printf
 3929              	.LVL432:
 739:App/Src/command.c **** 			UsbPrintf("chip%d ", i + 1);
 3930              		.loc 1 739 36 discriminator 3 view .LVU895
 739:App/Src/command.c **** 			UsbPrintf("chip%d ", i + 1);
 3931              		.loc 1 739 37 is_stmt 0 discriminator 3 view .LVU896
 3932 00ba 2C46     		mov	r4, r5
 3933              	.LVL433:
 3934              	.L271:
 739:App/Src/command.c **** 			UsbPrintf("chip%d ", i + 1);
 3935              		.loc 1 739 15 is_stmt 1 discriminator 1 view .LVU897
 739:App/Src/command.c **** 			UsbPrintf("chip%d ", i + 1);
 3936              		.loc 1 739 3 is_stmt 0 discriminator 1 view .LVU898
 3937 00bc 632C     		cmp	r4, #99
 3938 00be E4DD     		ble	.L273
 3939              	.LVL434:
 3940              	.L268:
 750:App/Src/command.c **** 
 3941              		.loc 1 750 1 view .LVU899
 3942 00c0 76B0     		add	sp, sp, #472
 3943              	.LCFI78:
 3944              		.cfi_remember_state
 3945              		.cfi_def_cfa_offset 16
 3946              		@ sp needed
 3947 00c2 70BD     		pop	{r4, r5, r6, pc}
ARM GAS  C:\Users\86158\AppData\Local\Temp\ccFxKACN.s 			page 104


 3948              	.L281:
 3949              	.LCFI79:
 3950              		.cfi_restore_state
 746:App/Src/command.c **** 		flash_test_data_read(&result, chipNumber, TEST_DATA_ALL);
 3951              		.loc 1 746 25 is_stmt 1 discriminator 1 view .LVU900
 746:App/Src/command.c **** 		flash_test_data_read(&result, chipNumber, TEST_DATA_ALL);
 3952              		.loc 1 746 36 is_stmt 0 discriminator 1 view .LVU901
 3953 00c4 0123     		movs	r3, #1
 3954 00c6 7493     		str	r3, [sp, #464]
 3955 00c8 BCE7     		b	.L276
 3956              	.L283:
 3957 00ca 00BF     		.align	2
 3958              	.L282:
 3959 00cc 00000000 		.word	.LC73
 3960 00d0 08000000 		.word	.LC74
 3961 00d4 10000000 		.word	.LC75
 3962              		.cfi_endproc
 3963              	.LFE268:
 3965              		.section	.rodata.AT_ATTEST_Handle.str1.4,"aMS",%progbits,1
 3966              		.align	2
 3967              	.LC76:
 3968 0000 0A636F75 		.ascii	"\012count : %d\012\000"
 3968      6E74203A 
 3968      2025640A 
 3968      00
 3969              		.section	.text.AT_ATTEST_Handle,"ax",%progbits
 3970              		.align	1
 3971              		.global	AT_ATTEST_Handle
 3972              		.syntax unified
 3973              		.thumb
 3974              		.thumb_func
 3976              	AT_ATTEST_Handle:
 3977              	.LVL435:
 3978              	.LFB269:
 753:App/Src/command.c **** 	int number = 0;
 3979              		.loc 1 753 1 is_stmt 1 view -0
 3980              		.cfi_startproc
 3981              		@ args = 0, pretend = 0, frame = 3368
 3982              		@ frame_needed = 0, uses_anonymous_args = 0
 753:App/Src/command.c **** 	int number = 0;
 3983              		.loc 1 753 1 is_stmt 0 view .LVU903
 3984 0000 70B5     		push	{r4, r5, r6, lr}
 3985              	.LCFI80:
 3986              		.cfi_def_cfa_offset 16
 3987              		.cfi_offset 4, -16
 3988              		.cfi_offset 5, -12
 3989              		.cfi_offset 6, -8
 3990              		.cfi_offset 14, -4
 3991 0002 ADF6285D 		subw	sp, sp, #3368
 3992              	.LCFI81:
 3993              		.cfi_def_cfa_offset 3384
 3994 0006 0446     		mov	r4, r0
 754:App/Src/command.c **** 	uint16_t offset;
 3995              		.loc 1 754 2 is_stmt 1 view .LVU904
 754:App/Src/command.c **** 	uint16_t offset;
 3996              		.loc 1 754 6 is_stmt 0 view .LVU905
 3997 0008 0025     		movs	r5, #0
ARM GAS  C:\Users\86158\AppData\Local\Temp\ccFxKACN.s 			page 105


 3998 000a CDF8245D 		str	r5, [sp, #3364]
 755:App/Src/command.c **** 	float cap[420] = {0};
 3999              		.loc 1 755 2 is_stmt 1 view .LVU906
 756:App/Src/command.c **** 	int digtal[420] = {0};
 4000              		.loc 1 756 2 view .LVU907
 756:App/Src/command.c **** 	int digtal[420] = {0};
 4001              		.loc 1 756 8 is_stmt 0 view .LVU908
 4002 000e 4FF4D266 		mov	r6, #1680
 4003 0012 3246     		mov	r2, r6
 4004 0014 2946     		mov	r1, r5
 4005 0016 0DEB0600 		add	r0, sp, r6
 4006              	.LVL436:
 756:App/Src/command.c **** 	int digtal[420] = {0};
 4007              		.loc 1 756 8 view .LVU909
 4008 001a FFF7FEFF 		bl	memset
 4009              	.LVL437:
 757:App/Src/command.c **** 	int i = 0;
 4010              		.loc 1 757 2 is_stmt 1 view .LVU910
 757:App/Src/command.c **** 	int i = 0;
 4011              		.loc 1 757 6 is_stmt 0 view .LVU911
 4012 001e 3246     		mov	r2, r6
 4013 0020 2946     		mov	r1, r5
 4014 0022 6846     		mov	r0, sp
 4015 0024 FFF7FEFF 		bl	memset
 4016              	.LVL438:
 758:App/Src/command.c **** 	uint8_t count = 0;
 4017              		.loc 1 758 2 is_stmt 1 view .LVU912
 759:App/Src/command.c **** 	CharToInt(command, strSearch(command, "=") + 1, &number);
 4018              		.loc 1 759 2 view .LVU913
 760:App/Src/command.c **** 	if (number > 0) {
 4019              		.loc 1 760 2 view .LVU914
 760:App/Src/command.c **** 	if (number > 0) {
 4020              		.loc 1 760 21 is_stmt 0 view .LVU915
 4021 0028 1A49     		ldr	r1, .L293
 4022 002a 2046     		mov	r0, r4
 4023 002c FFF7FEFF 		bl	strSearch
 4024              	.LVL439:
 760:App/Src/command.c **** 	if (number > 0) {
 4025              		.loc 1 760 2 view .LVU916
 4026 0030 411C     		adds	r1, r0, #1
 4027 0032 0DF62452 		addw	r2, sp, #3364
 4028 0036 C9B2     		uxtb	r1, r1
 4029 0038 2046     		mov	r0, r4
 4030 003a FFF7FEFF 		bl	CharToInt
 4031              	.LVL440:
 761:App/Src/command.c **** 		calculate_wave1006_temp_cap(number, cap, digtal, &offset);
 4032              		.loc 1 761 2 is_stmt 1 view .LVU917
 761:App/Src/command.c **** 		calculate_wave1006_temp_cap(number, cap, digtal, &offset);
 4033              		.loc 1 761 13 is_stmt 0 view .LVU918
 4034 003e DDF8240D 		ldr	r0, [sp, #3364]
 761:App/Src/command.c **** 		calculate_wave1006_temp_cap(number, cap, digtal, &offset);
 4035              		.loc 1 761 5 view .LVU919
 4036 0042 A842     		cmp	r0, r5
 4037 0044 02DC     		bgt	.L291
 759:App/Src/command.c **** 	CharToInt(command, strSearch(command, "=") + 1, &number);
 4038              		.loc 1 759 10 view .LVU920
 4039 0046 0025     		movs	r5, #0
ARM GAS  C:\Users\86158\AppData\Local\Temp\ccFxKACN.s 			page 106


 764:App/Src/command.c **** 			if(calculate_wave1006_temp_cap(i + 1, cap, digtal, &offset) > 0) {
 4040              		.loc 1 764 10 view .LVU921
 4041 0048 2C46     		mov	r4, r5
 4042              	.LVL441:
 764:App/Src/command.c **** 			if(calculate_wave1006_temp_cap(i + 1, cap, digtal, &offset) > 0) {
 4043              		.loc 1 764 10 view .LVU922
 4044 004a 09E0     		b	.L285
 4045              	.LVL442:
 4046              	.L291:
 762:App/Src/command.c **** 	} else {
 4047              		.loc 1 762 3 is_stmt 1 view .LVU923
 4048 004c 0DF62253 		addw	r3, sp, #3362
 4049 0050 6A46     		mov	r2, sp
 4050 0052 0DEB0601 		add	r1, sp, r6
 4051 0056 C0B2     		uxtb	r0, r0
 4052 0058 FFF7FEFF 		bl	calculate_wave1006_temp_cap
 4053              	.LVL443:
 4054 005c 14E0     		b	.L286
 4055              	.LVL444:
 4056              	.L287:
 764:App/Src/command.c **** 			if(calculate_wave1006_temp_cap(i + 1, cap, digtal, &offset) > 0) {
 4057              		.loc 1 764 37 discriminator 2 view .LVU924
 764:App/Src/command.c **** 			if(calculate_wave1006_temp_cap(i + 1, cap, digtal, &offset) > 0) {
 4058              		.loc 1 764 38 is_stmt 0 discriminator 2 view .LVU925
 4059 005e 0134     		adds	r4, r4, #1
 4060              	.LVL445:
 4061              	.L285:
 764:App/Src/command.c **** 			if(calculate_wave1006_temp_cap(i + 1, cap, digtal, &offset) > 0) {
 4062              		.loc 1 764 16 is_stmt 1 discriminator 1 view .LVU926
 764:App/Src/command.c **** 			if(calculate_wave1006_temp_cap(i + 1, cap, digtal, &offset) > 0) {
 4063              		.loc 1 764 3 is_stmt 0 discriminator 1 view .LVU927
 4064 0060 632C     		cmp	r4, #99
 4065 0062 0DDC     		bgt	.L292
 765:App/Src/command.c **** 				count++;
 4066              		.loc 1 765 4 is_stmt 1 view .LVU928
 765:App/Src/command.c **** 				count++;
 4067              		.loc 1 765 7 is_stmt 0 view .LVU929
 4068 0064 601C     		adds	r0, r4, #1
 4069 0066 0DF62253 		addw	r3, sp, #3362
 4070 006a 6A46     		mov	r2, sp
 4071 006c 0DF5D261 		add	r1, sp, #1680
 4072 0070 C0B2     		uxtb	r0, r0
 4073 0072 FFF7FEFF 		bl	calculate_wave1006_temp_cap
 4074              	.LVL446:
 765:App/Src/command.c **** 				count++;
 4075              		.loc 1 765 6 view .LVU930
 4076 0076 0028     		cmp	r0, #0
 4077 0078 F1D0     		beq	.L287
 766:App/Src/command.c **** 			}
 4078              		.loc 1 766 5 is_stmt 1 view .LVU931
 766:App/Src/command.c **** 			}
 4079              		.loc 1 766 10 is_stmt 0 view .LVU932
 4080 007a 0135     		adds	r5, r5, #1
 4081              	.LVL447:
 766:App/Src/command.c **** 			}
 4082              		.loc 1 766 10 view .LVU933
 4083 007c EDB2     		uxtb	r5, r5
ARM GAS  C:\Users\86158\AppData\Local\Temp\ccFxKACN.s 			page 107


 4084              	.LVL448:
 766:App/Src/command.c **** 			}
 4085              		.loc 1 766 10 view .LVU934
 4086 007e EEE7     		b	.L287
 4087              	.L292:
 769:App/Src/command.c **** 	}
 4088              		.loc 1 769 3 is_stmt 1 view .LVU935
 4089 0080 2946     		mov	r1, r5
 4090 0082 0548     		ldr	r0, .L293+4
 4091 0084 FFF7FEFF 		bl	UsbPrintf
 4092              	.LVL449:
 4093              	.L286:
 771:App/Src/command.c **** 
 4094              		.loc 1 771 2 view .LVU936
 4095 0088 0448     		ldr	r0, .L293+8
 4096 008a FFF7FEFF 		bl	UsbPrintf
 4097              	.LVL450:
 773:App/Src/command.c **** 
 4098              		.loc 1 773 1 is_stmt 0 view .LVU937
 4099 008e 0DF6285D 		addw	sp, sp, #3368
 4100              	.LCFI82:
 4101              		.cfi_def_cfa_offset 16
 4102              		@ sp needed
 4103 0092 70BD     		pop	{r4, r5, r6, pc}
 4104              	.L294:
 4105              		.align	2
 4106              	.L293:
 4107 0094 00000000 		.word	.LC61
 4108 0098 00000000 		.word	.LC76
 4109 009c 1C000000 		.word	.LC14
 4110              		.cfi_endproc
 4111              	.LFE269:
 4113              		.section	.rodata.AT_MACHINE_Handle.str1.4,"aMS",%progbits,1
 4114              		.align	2
 4115              	.LC77:
 4116 0000 63617020 		.ascii	"cap list test start...\012\000"
 4116      6C697374 
 4116      20746573 
 4116      74207374 
 4116      6172742E 
 4117              		.align	2
 4118              	.LC78:
 4119 0018 63617020 		.ascii	"cap list test end...\012\000"
 4119      6C697374 
 4119      20746573 
 4119      7420656E 
 4119      642E2E2E 
 4120              		.section	.text.AT_MACHINE_Handle,"ax",%progbits
 4121              		.align	1
 4122              		.global	AT_MACHINE_Handle
 4123              		.syntax unified
 4124              		.thumb
 4125              		.thumb_func
 4127              	AT_MACHINE_Handle:
 4128              	.LVL451:
 4129              	.LFB270:
 776:App/Src/command.c **** 	int number = 0;
ARM GAS  C:\Users\86158\AppData\Local\Temp\ccFxKACN.s 			page 108


 4130              		.loc 1 776 1 is_stmt 1 view -0
 4131              		.cfi_startproc
 4132              		@ args = 0, pretend = 0, frame = 8
 4133              		@ frame_needed = 0, uses_anonymous_args = 0
 776:App/Src/command.c **** 	int number = 0;
 4134              		.loc 1 776 1 is_stmt 0 view .LVU939
 4135 0000 10B5     		push	{r4, lr}
 4136              	.LCFI83:
 4137              		.cfi_def_cfa_offset 8
 4138              		.cfi_offset 4, -8
 4139              		.cfi_offset 14, -4
 4140 0002 82B0     		sub	sp, sp, #8
 4141              	.LCFI84:
 4142              		.cfi_def_cfa_offset 16
 4143 0004 0446     		mov	r4, r0
 777:App/Src/command.c **** 	CharToInt(command, strSearch(command, "=") + 1, &number);
 4144              		.loc 1 777 2 is_stmt 1 view .LVU940
 777:App/Src/command.c **** 	CharToInt(command, strSearch(command, "=") + 1, &number);
 4145              		.loc 1 777 6 is_stmt 0 view .LVU941
 4146 0006 0023     		movs	r3, #0
 4147 0008 0193     		str	r3, [sp, #4]
 778:App/Src/command.c **** 	if (number > 0) {
 4148              		.loc 1 778 2 is_stmt 1 view .LVU942
 778:App/Src/command.c **** 	if (number > 0) {
 4149              		.loc 1 778 21 is_stmt 0 view .LVU943
 4150 000a 1549     		ldr	r1, .L299
 4151 000c FFF7FEFF 		bl	strSearch
 4152              	.LVL452:
 778:App/Src/command.c **** 	if (number > 0) {
 4153              		.loc 1 778 2 view .LVU944
 4154 0010 411C     		adds	r1, r0, #1
 4155 0012 01AA     		add	r2, sp, #4
 4156 0014 C9B2     		uxtb	r1, r1
 4157 0016 2046     		mov	r0, r4
 4158 0018 FFF7FEFF 		bl	CharToInt
 4159              	.LVL453:
 779:App/Src/command.c **** 		CharToInt(command, strSearch(command, ",") + 1, &number);
 4160              		.loc 1 779 2 is_stmt 1 view .LVU945
 779:App/Src/command.c **** 		CharToInt(command, strSearch(command, ",") + 1, &number);
 4161              		.loc 1 779 13 is_stmt 0 view .LVU946
 4162 001c 019B     		ldr	r3, [sp, #4]
 779:App/Src/command.c **** 		CharToInt(command, strSearch(command, ",") + 1, &number);
 4163              		.loc 1 779 5 view .LVU947
 4164 001e 002B     		cmp	r3, #0
 4165 0020 15DD     		ble	.L296
 780:App/Src/command.c **** 		command_cap_list_test(1, number);
 4166              		.loc 1 780 3 is_stmt 1 view .LVU948
 780:App/Src/command.c **** 		command_cap_list_test(1, number);
 4167              		.loc 1 780 22 is_stmt 0 view .LVU949
 4168 0022 1049     		ldr	r1, .L299+4
 4169 0024 2046     		mov	r0, r4
 4170 0026 FFF7FEFF 		bl	strSearch
 4171              	.LVL454:
 780:App/Src/command.c **** 		command_cap_list_test(1, number);
 4172              		.loc 1 780 3 view .LVU950
 4173 002a 411C     		adds	r1, r0, #1
 4174 002c 01AA     		add	r2, sp, #4
ARM GAS  C:\Users\86158\AppData\Local\Temp\ccFxKACN.s 			page 109


 4175 002e C9B2     		uxtb	r1, r1
 4176 0030 2046     		mov	r0, r4
 4177 0032 FFF7FEFF 		bl	CharToInt
 4178              	.LVL455:
 781:App/Src/command.c **** 		UsbPrintf("cap list test start...\n");
 4179              		.loc 1 781 3 is_stmt 1 view .LVU951
 4180 0036 0199     		ldr	r1, [sp, #4]
 4181 0038 0120     		movs	r0, #1
 4182 003a FFF7FEFF 		bl	command_cap_list_test
 4183              	.LVL456:
 782:App/Src/command.c **** 	} else {
 4184              		.loc 1 782 3 view .LVU952
 4185 003e 0A48     		ldr	r0, .L299+8
 4186 0040 FFF7FEFF 		bl	UsbPrintf
 4187              	.LVL457:
 4188              	.L297:
 788:App/Src/command.c **** }
 4189              		.loc 1 788 2 view .LVU953
 4190 0044 0948     		ldr	r0, .L299+12
 4191 0046 FFF7FEFF 		bl	UsbPrintf
 4192              	.LVL458:
 789:App/Src/command.c **** 
 4193              		.loc 1 789 1 is_stmt 0 view .LVU954
 4194 004a 02B0     		add	sp, sp, #8
 4195              	.LCFI85:
 4196              		.cfi_remember_state
 4197              		.cfi_def_cfa_offset 8
 4198              		@ sp needed
 4199 004c 10BD     		pop	{r4, pc}
 4200              	.LVL459:
 4201              	.L296:
 4202              	.LCFI86:
 4203              		.cfi_restore_state
 784:App/Src/command.c **** 		UsbPrintf("cap list test end...\n");
 4204              		.loc 1 784 3 is_stmt 1 view .LVU955
 4205 004e 0021     		movs	r1, #0
 4206 0050 0846     		mov	r0, r1
 4207 0052 FFF7FEFF 		bl	command_cap_list_test
 4208              	.LVL460:
 785:App/Src/command.c **** 	// UsbPrintf("OK\n");
 4209              		.loc 1 785 3 view .LVU956
 4210 0056 0648     		ldr	r0, .L299+16
 4211 0058 FFF7FEFF 		bl	UsbPrintf
 4212              	.LVL461:
 4213 005c F2E7     		b	.L297
 4214              	.L300:
 4215 005e 00BF     		.align	2
 4216              	.L299:
 4217 0060 00000000 		.word	.LC61
 4218 0064 00000000 		.word	.LC50
 4219 0068 00000000 		.word	.LC77
 4220 006c 1C000000 		.word	.LC14
 4221 0070 18000000 		.word	.LC78
 4222              		.cfi_endproc
 4223              	.LFE270:
 4225              		.section	.rodata.AT_1006TMODE_Handle.str1.4,"aMS",%progbits,1
 4226              		.align	2
ARM GAS  C:\Users\86158\AppData\Local\Temp\ccFxKACN.s 			page 110


 4227              	.LC79:
 4228 0000 70616420 		.ascii	"pad change OK\012\000"
 4228      6368616E 
 4228      6765204F 
 4228      4B0A00
 4229 000f 00       		.align	2
 4230              	.LC80:
 4231 0010 69326320 		.ascii	"i2c OK after pad change \012\000"
 4231      4F4B2061 
 4231      66746572 
 4231      20706164 
 4231      20636861 
 4232              		.section	.text.AT_1006TMODE_Handle,"ax",%progbits
 4233              		.align	1
 4234              		.global	AT_1006TMODE_Handle
 4235              		.syntax unified
 4236              		.thumb
 4237              		.thumb_func
 4239              	AT_1006TMODE_Handle:
 4240              	.LVL462:
 4241              	.LFB271:
 792:App/Src/command.c **** 	int mode = 0;
 4242              		.loc 1 792 1 view -0
 4243              		.cfi_startproc
 4244              		@ args = 0, pretend = 0, frame = 8
 4245              		@ frame_needed = 0, uses_anonymous_args = 0
 792:App/Src/command.c **** 	int mode = 0;
 4246              		.loc 1 792 1 is_stmt 0 view .LVU958
 4247 0000 10B5     		push	{r4, lr}
 4248              	.LCFI87:
 4249              		.cfi_def_cfa_offset 8
 4250              		.cfi_offset 4, -8
 4251              		.cfi_offset 14, -4
 4252 0002 82B0     		sub	sp, sp, #8
 4253              	.LCFI88:
 4254              		.cfi_def_cfa_offset 16
 4255 0004 0446     		mov	r4, r0
 793:App/Src/command.c **** 	uint8_t buf;
 4256              		.loc 1 793 2 is_stmt 1 view .LVU959
 793:App/Src/command.c **** 	uint8_t buf;
 4257              		.loc 1 793 6 is_stmt 0 view .LVU960
 4258 0006 0023     		movs	r3, #0
 4259 0008 0193     		str	r3, [sp, #4]
 794:App/Src/command.c **** 	uint8_t osc_buf[2] = {0};
 4260              		.loc 1 794 2 is_stmt 1 view .LVU961
 795:App/Src/command.c **** 	CharToInt(command, strSearch(command, "=") + 1, &mode);
 4261              		.loc 1 795 2 view .LVU962
 795:App/Src/command.c **** 	CharToInt(command, strSearch(command, "=") + 1, &mode);
 4262              		.loc 1 795 10 is_stmt 0 view .LVU963
 4263 000a ADF80030 		strh	r3, [sp]	@ movhi
 796:App/Src/command.c **** 	
 4264              		.loc 1 796 2 is_stmt 1 view .LVU964
 796:App/Src/command.c **** 	
 4265              		.loc 1 796 21 is_stmt 0 view .LVU965
 4266 000e 3F49     		ldr	r1, .L307
 4267 0010 FFF7FEFF 		bl	strSearch
 4268              	.LVL463:
ARM GAS  C:\Users\86158\AppData\Local\Temp\ccFxKACN.s 			page 111


 796:App/Src/command.c **** 	
 4269              		.loc 1 796 2 view .LVU966
 4270 0014 411C     		adds	r1, r0, #1
 4271 0016 01AA     		add	r2, sp, #4
 4272 0018 C9B2     		uxtb	r1, r1
 4273 001a 2046     		mov	r0, r4
 4274 001c FFF7FEFF 		bl	CharToInt
 4275              	.LVL464:
 798:App/Src/command.c **** 		buf = 0x40;
 4276              		.loc 1 798 2 is_stmt 1 view .LVU967
 798:App/Src/command.c **** 		buf = 0x40;
 4277              		.loc 1 798 11 is_stmt 0 view .LVU968
 4278 0020 019B     		ldr	r3, [sp, #4]
 798:App/Src/command.c **** 		buf = 0x40;
 4279              		.loc 1 798 5 view .LVU969
 4280 0022 002B     		cmp	r3, #0
 4281 0024 6CDD     		ble	.L302
 799:App/Src/command.c **** 		if(drv_wave1006_write_reg(DEV_SD3068, WAVE1006_REG_CTR3, 1, &buf) != WAVE1006_EXIT_OK)   //如果是
 4282              		.loc 1 799 3 is_stmt 1 view .LVU970
 799:App/Src/command.c **** 		if(drv_wave1006_write_reg(DEV_SD3068, WAVE1006_REG_CTR3, 1, &buf) != WAVE1006_EXIT_OK)   //如果是
 4283              		.loc 1 799 7 is_stmt 0 view .LVU971
 4284 0026 4023     		movs	r3, #64
 4285 0028 8DF80330 		strb	r3, [sp, #3]
 800:App/Src/command.c **** 		{
 4286              		.loc 1 800 3 is_stmt 1 view .LVU972
 800:App/Src/command.c **** 		{
 4287              		.loc 1 800 6 is_stmt 0 view .LVU973
 4288 002c 0DF10303 		add	r3, sp, #3
 4289 0030 0122     		movs	r2, #1
 4290 0032 1121     		movs	r1, #17
 4291 0034 0020     		movs	r0, #0
 4292 0036 FFF7FEFF 		bl	drv_wave1006_write_reg
 4293              	.LVL465:
 800:App/Src/command.c **** 		{
 4294              		.loc 1 800 5 view .LVU974
 4295 003a 0028     		cmp	r0, #0
 4296 003c 64D1     		bne	.L301
 805:App/Src/command.c **** 		{
 4297              		.loc 1 805 3 is_stmt 1 view .LVU975
 805:App/Src/command.c **** 		{
 4298              		.loc 1 805 7 is_stmt 0 view .LVU976
 4299 003e 0DF10303 		add	r3, sp, #3
 4300 0042 0122     		movs	r2, #1
 4301 0044 4021     		movs	r1, #64
 4302 0046 FFF7FEFF 		bl	drv_wave1006_read_reg
 4303              	.LVL466:
 805:App/Src/command.c **** 		{
 4304              		.loc 1 805 6 view .LVU977
 4305 004a 0028     		cmp	r0, #0
 4306 004c 5CD1     		bne	.L301
 809:App/Src/command.c **** 		buf |= 0x0d;//根据pad配置表，编号13为3302
 4307              		.loc 1 809 3 is_stmt 1 view .LVU978
 809:App/Src/command.c **** 		buf |= 0x0d;//根据pad配置表，编号13为3302
 4308              		.loc 1 809 7 is_stmt 0 view .LVU979
 4309 004e 9DF80330 		ldrb	r3, [sp, #3]	@ zero_extendqisi2
 4310 0052 03F0F003 		and	r3, r3, #240
 4311 0056 8DF80330 		strb	r3, [sp, #3]
ARM GAS  C:\Users\86158\AppData\Local\Temp\ccFxKACN.s 			page 112


 810:App/Src/command.c **** 		if (drv_wave1006_write_reg(DEV_SD3068, WAVE1006_REG_USER_RAM_START + 20, 1, &buf) != WAVE1006_EXI
 4312              		.loc 1 810 3 is_stmt 1 view .LVU980
 810:App/Src/command.c **** 		if (drv_wave1006_write_reg(DEV_SD3068, WAVE1006_REG_USER_RAM_START + 20, 1, &buf) != WAVE1006_EXI
 4313              		.loc 1 810 7 is_stmt 0 view .LVU981
 4314 005a 43F00D03 		orr	r3, r3, #13
 4315 005e 8DF80330 		strb	r3, [sp, #3]
 811:App/Src/command.c **** 		{
 4316              		.loc 1 811 3 is_stmt 1 view .LVU982
 811:App/Src/command.c **** 		{
 4317              		.loc 1 811 7 is_stmt 0 view .LVU983
 4318 0062 0DF10303 		add	r3, sp, #3
 4319 0066 0122     		movs	r2, #1
 4320 0068 4021     		movs	r1, #64
 4321 006a FFF7FEFF 		bl	drv_wave1006_write_reg
 4322              	.LVL467:
 811:App/Src/command.c **** 		{
 4323              		.loc 1 811 6 view .LVU984
 4324 006e 0028     		cmp	r0, #0
 4325 0070 4AD1     		bne	.L301
 815:App/Src/command.c **** 		{
 4326              		.loc 1 815 3 is_stmt 1 view .LVU985
 815:App/Src/command.c **** 		{
 4327              		.loc 1 815 7 is_stmt 0 view .LVU986
 4328 0072 5420     		movs	r0, #84
 4329 0074 FFF7FEFF 		bl	wave1006_enter_test_mode
 4330              	.LVL468:
 815:App/Src/command.c **** 		{
 4331              		.loc 1 815 6 view .LVU987
 4332 0078 0028     		cmp	r0, #0
 4333 007a 45D1     		bne	.L301
 819:App/Src/command.c **** 		HAL_Delay(5);
 4334              		.loc 1 819 3 is_stmt 1 view .LVU988
 4335 007c 2448     		ldr	r0, .L307+4
 4336 007e FFF7FEFF 		bl	UsbPrintf
 4337              	.LVL469:
 820:App/Src/command.c **** 		rtc_set_channel(g_rtcChanenel, RTC_SD3302);
 4338              		.loc 1 820 3 view .LVU989
 4339 0082 0520     		movs	r0, #5
 4340 0084 FFF7FEFF 		bl	HAL_Delay
 4341              	.LVL470:
 821:App/Src/command.c **** 		if (drv_wave1006_read_reg(DEV_SD3068, WAVE1006_REG_USER_RAM_START + 19, 1, &buf) != WAVE1006_EXIT
 4342              		.loc 1 821 3 view .LVU990
 4343 0088 0221     		movs	r1, #2
 4344 008a 224B     		ldr	r3, .L307+8
 4345 008c 1878     		ldrb	r0, [r3]	@ zero_extendqisi2
 4346 008e FFF7FEFF 		bl	rtc_set_channel
 4347              	.LVL471:
 822:App/Src/command.c **** 		{
 4348              		.loc 1 822 3 view .LVU991
 822:App/Src/command.c **** 		{
 4349              		.loc 1 822 7 is_stmt 0 view .LVU992
 4350 0092 0DF10303 		add	r3, sp, #3
 4351 0096 0122     		movs	r2, #1
 4352 0098 3F21     		movs	r1, #63
 4353 009a 0020     		movs	r0, #0
 4354 009c FFF7FEFF 		bl	drv_wave1006_read_reg
 4355              	.LVL472:
ARM GAS  C:\Users\86158\AppData\Local\Temp\ccFxKACN.s 			page 113


 822:App/Src/command.c **** 		{
 4356              		.loc 1 822 6 view .LVU993
 4357 00a0 90BB     		cbnz	r0, .L301
 826:App/Src/command.c **** 		buf |=  0x28;
 4358              		.loc 1 826 3 is_stmt 1 view .LVU994
 826:App/Src/command.c **** 		buf |=  0x28;
 4359              		.loc 1 826 7 is_stmt 0 view .LVU995
 4360 00a2 9DF80330 		ldrb	r3, [sp, #3]	@ zero_extendqisi2
 4361 00a6 03F0C703 		and	r3, r3, #199
 4362 00aa 8DF80330 		strb	r3, [sp, #3]
 827:App/Src/command.c **** 		if (drv_wave1006_write_reg(DEV_SD3068, WAVE1006_REG_USER_RAM_START + 19, 1, &buf) != WAVE1006_EXI
 4363              		.loc 1 827 3 is_stmt 1 view .LVU996
 827:App/Src/command.c **** 		if (drv_wave1006_write_reg(DEV_SD3068, WAVE1006_REG_USER_RAM_START + 19, 1, &buf) != WAVE1006_EXI
 4364              		.loc 1 827 7 is_stmt 0 view .LVU997
 4365 00ae 43F02803 		orr	r3, r3, #40
 4366 00b2 8DF80330 		strb	r3, [sp, #3]
 828:App/Src/command.c **** 		{
 4367              		.loc 1 828 3 is_stmt 1 view .LVU998
 828:App/Src/command.c **** 		{
 4368              		.loc 1 828 7 is_stmt 0 view .LVU999
 4369 00b6 0DF10303 		add	r3, sp, #3
 4370 00ba 0122     		movs	r2, #1
 4371 00bc 3F21     		movs	r1, #63
 4372 00be FFF7FEFF 		bl	drv_wave1006_write_reg
 4373              	.LVL473:
 828:App/Src/command.c **** 		{
 4374              		.loc 1 828 6 view .LVU1000
 4375 00c2 08BB     		cbnz	r0, .L301
 832:App/Src/command.c **** 		{
 4376              		.loc 1 832 3 is_stmt 1 view .LVU1001
 832:App/Src/command.c **** 		{
 4377              		.loc 1 832 7 is_stmt 0 view .LVU1002
 4378 00c4 0DF10103 		add	r3, sp, #1
 4379 00c8 0122     		movs	r2, #1
 4380 00ca 4421     		movs	r1, #68
 4381 00cc FFF7FEFF 		bl	drv_wave1006_read_reg
 4382              	.LVL474:
 832:App/Src/command.c **** 		{
 4383              		.loc 1 832 6 view .LVU1003
 4384 00d0 D0B9     		cbnz	r0, .L301
 836:App/Src/command.c **** 		osc_buf[1] &= ~0x1f;
 4385              		.loc 1 836 3 is_stmt 1 view .LVU1004
 836:App/Src/command.c **** 		osc_buf[1] &= ~0x1f;
 4386              		.loc 1 836 15 is_stmt 0 view .LVU1005
 4387 00d2 F723     		movs	r3, #247
 4388 00d4 8DF80030 		strb	r3, [sp]
 837:App/Src/command.c **** 		osc_buf[1] |= 0x19;		//ram25
 4389              		.loc 1 837 3 is_stmt 1 view .LVU1006
 837:App/Src/command.c **** 		osc_buf[1] |= 0x19;		//ram25
 4390              		.loc 1 837 14 is_stmt 0 view .LVU1007
 4391 00d8 9DF80130 		ldrb	r3, [sp, #1]	@ zero_extendqisi2
 4392 00dc 03F0E003 		and	r3, r3, #224
 4393 00e0 8DF80130 		strb	r3, [sp, #1]
 838:App/Src/command.c **** 		if (drv_wave1006_write_reg(DEV_SD3068, WAVE1006_REG_USER_RAM_START + 23, 2, osc_buf) != WAVE1006_
 4394              		.loc 1 838 3 is_stmt 1 view .LVU1008
 838:App/Src/command.c **** 		if (drv_wave1006_write_reg(DEV_SD3068, WAVE1006_REG_USER_RAM_START + 23, 2, osc_buf) != WAVE1006_
 4395              		.loc 1 838 14 is_stmt 0 view .LVU1009
ARM GAS  C:\Users\86158\AppData\Local\Temp\ccFxKACN.s 			page 114


 4396 00e4 43F01903 		orr	r3, r3, #25
 4397 00e8 8DF80130 		strb	r3, [sp, #1]
 839:App/Src/command.c **** 		{
 4398              		.loc 1 839 3 is_stmt 1 view .LVU1010
 839:App/Src/command.c **** 		{
 4399              		.loc 1 839 7 is_stmt 0 view .LVU1011
 4400 00ec 6B46     		mov	r3, sp
 4401 00ee 0222     		movs	r2, #2
 4402 00f0 4321     		movs	r1, #67
 4403 00f2 FFF7FEFF 		bl	drv_wave1006_write_reg
 4404              	.LVL475:
 839:App/Src/command.c **** 		{
 4405              		.loc 1 839 6 view .LVU1012
 4406 00f6 38B9     		cbnz	r0, .L301
 843:App/Src/command.c **** 	} else {
 4407              		.loc 1 843 3 is_stmt 1 view .LVU1013
 4408 00f8 0748     		ldr	r0, .L307+12
 4409 00fa FFF7FEFF 		bl	UsbPrintf
 4410              	.LVL476:
 4411 00fe 03E0     		b	.L301
 4412              	.L302:
 845:App/Src/command.c **** 	}
 4413              		.loc 1 845 3 view .LVU1014
 4414 0100 044B     		ldr	r3, .L307+8
 4415 0102 1878     		ldrb	r0, [r3]	@ zero_extendqisi2
 4416 0104 FFF7FEFF 		bl	rtc_1006_exit_testmode
 4417              	.LVL477:
 4418              	.L301:
 847:App/Src/command.c **** 
 4419              		.loc 1 847 1 is_stmt 0 view .LVU1015
 4420 0108 02B0     		add	sp, sp, #8
 4421              	.LCFI89:
 4422              		.cfi_def_cfa_offset 8
 4423              		@ sp needed
 4424 010a 10BD     		pop	{r4, pc}
 4425              	.LVL478:
 4426              	.L308:
 847:App/Src/command.c **** 
 4427              		.loc 1 847 1 view .LVU1016
 4428              		.align	2
 4429              	.L307:
 4430 010c 00000000 		.word	.LC61
 4431 0110 00000000 		.word	.LC79
 4432 0114 00000000 		.word	.LANCHOR9
 4433 0118 10000000 		.word	.LC80
 4434              		.cfi_endproc
 4435              	.LFE271:
 4437              		.section	.rodata.AT_SD8840INT_Handle.str1.4,"aMS",%progbits,1
 4438              		.align	2
 4439              	.LC81:
 4440 0000 73746172 		.ascii	"start int test, start %d, end %d\012\000"
 4440      7420696E 
 4440      74207465 
 4440      73742C20 
 4440      73746172 
 4441 0022 0000     		.align	2
 4442              	.LC82:
ARM GAS  C:\Users\86158\AppData\Local\Temp\ccFxKACN.s 			page 115


 4443 0024 656E6420 		.ascii	"end int test\012\000"
 4443      696E7420 
 4443      74657374 
 4443      0A00
 4444              		.section	.text.AT_SD8840INT_Handle,"ax",%progbits
 4445              		.align	1
 4446              		.global	AT_SD8840INT_Handle
 4447              		.syntax unified
 4448              		.thumb
 4449              		.thumb_func
 4451              	AT_SD8840INT_Handle:
 4452              	.LVL479:
 4453              	.LFB272:
 850:App/Src/command.c **** 	int startNumber = 0;
 4454              		.loc 1 850 1 is_stmt 1 view -0
 4455              		.cfi_startproc
 4456              		@ args = 0, pretend = 0, frame = 8
 4457              		@ frame_needed = 0, uses_anonymous_args = 0
 850:App/Src/command.c **** 	int startNumber = 0;
 4458              		.loc 1 850 1 is_stmt 0 view .LVU1018
 4459 0000 10B5     		push	{r4, lr}
 4460              	.LCFI90:
 4461              		.cfi_def_cfa_offset 8
 4462              		.cfi_offset 4, -8
 4463              		.cfi_offset 14, -4
 4464 0002 82B0     		sub	sp, sp, #8
 4465              	.LCFI91:
 4466              		.cfi_def_cfa_offset 16
 4467 0004 0446     		mov	r4, r0
 851:App/Src/command.c **** 	int endNumber = 0;
 4468              		.loc 1 851 2 is_stmt 1 view .LVU1019
 851:App/Src/command.c **** 	int endNumber = 0;
 4469              		.loc 1 851 6 is_stmt 0 view .LVU1020
 4470 0006 0023     		movs	r3, #0
 4471 0008 0193     		str	r3, [sp, #4]
 852:App/Src/command.c **** 
 4472              		.loc 1 852 2 is_stmt 1 view .LVU1021
 852:App/Src/command.c **** 
 4473              		.loc 1 852 6 is_stmt 0 view .LVU1022
 4474 000a 0093     		str	r3, [sp]
 854:App/Src/command.c **** 	CharToInt(command, strSearch(command, ",") + 1, &endNumber);
 4475              		.loc 1 854 2 is_stmt 1 view .LVU1023
 854:App/Src/command.c **** 	CharToInt(command, strSearch(command, ",") + 1, &endNumber);
 4476              		.loc 1 854 21 is_stmt 0 view .LVU1024
 4477 000c 1749     		ldr	r1, .L313
 4478 000e FFF7FEFF 		bl	strSearch
 4479              	.LVL480:
 854:App/Src/command.c **** 	CharToInt(command, strSearch(command, ",") + 1, &endNumber);
 4480              		.loc 1 854 2 view .LVU1025
 4481 0012 411C     		adds	r1, r0, #1
 4482 0014 01AA     		add	r2, sp, #4
 4483 0016 C9B2     		uxtb	r1, r1
 4484 0018 2046     		mov	r0, r4
 4485 001a FFF7FEFF 		bl	CharToInt
 4486              	.LVL481:
 855:App/Src/command.c **** 	
 4487              		.loc 1 855 2 is_stmt 1 view .LVU1026
ARM GAS  C:\Users\86158\AppData\Local\Temp\ccFxKACN.s 			page 116


 855:App/Src/command.c **** 	
 4488              		.loc 1 855 21 is_stmt 0 view .LVU1027
 4489 001e 1449     		ldr	r1, .L313+4
 4490 0020 2046     		mov	r0, r4
 4491 0022 FFF7FEFF 		bl	strSearch
 4492              	.LVL482:
 855:App/Src/command.c **** 	
 4493              		.loc 1 855 2 view .LVU1028
 4494 0026 411C     		adds	r1, r0, #1
 4495 0028 6A46     		mov	r2, sp
 4496 002a C9B2     		uxtb	r1, r1
 4497 002c 2046     		mov	r0, r4
 4498 002e FFF7FEFF 		bl	CharToInt
 4499              	.LVL483:
 857:App/Src/command.c **** 		set_int_test(1, startNumber, endNumber);
 4500              		.loc 1 857 2 is_stmt 1 view .LVU1029
 857:App/Src/command.c **** 		set_int_test(1, startNumber, endNumber);
 4501              		.loc 1 857 18 is_stmt 0 view .LVU1030
 4502 0032 0199     		ldr	r1, [sp, #4]
 857:App/Src/command.c **** 		set_int_test(1, startNumber, endNumber);
 4503              		.loc 1 857 5 view .LVU1031
 4504 0034 0029     		cmp	r1, #0
 4505 0036 0FDD     		ble	.L310
 858:App/Src/command.c **** 		UsbPrintf("start int test, start %d, end %d\n", startNumber, endNumber);
 4506              		.loc 1 858 3 is_stmt 1 view .LVU1032
 4507 0038 9DF80020 		ldrb	r2, [sp]	@ zero_extendqisi2
 4508 003c C9B2     		uxtb	r1, r1
 4509 003e 0120     		movs	r0, #1
 4510 0040 FFF7FEFF 		bl	set_int_test
 4511              	.LVL484:
 859:App/Src/command.c **** 	} else {
 4512              		.loc 1 859 3 view .LVU1033
 4513 0044 009A     		ldr	r2, [sp]
 4514 0046 0199     		ldr	r1, [sp, #4]
 4515 0048 0A48     		ldr	r0, .L313+8
 4516 004a FFF7FEFF 		bl	UsbPrintf
 4517              	.LVL485:
 4518              	.L311:
 864:App/Src/command.c **** 
 4519              		.loc 1 864 2 view .LVU1034
 4520 004e 0A48     		ldr	r0, .L313+12
 4521 0050 FFF7FEFF 		bl	UsbPrintf
 4522              	.LVL486:
 866:App/Src/command.c **** 
 4523              		.loc 1 866 1 is_stmt 0 view .LVU1035
 4524 0054 02B0     		add	sp, sp, #8
 4525              	.LCFI92:
 4526              		.cfi_remember_state
 4527              		.cfi_def_cfa_offset 8
 4528              		@ sp needed
 4529 0056 10BD     		pop	{r4, pc}
 4530              	.LVL487:
 4531              	.L310:
 4532              	.LCFI93:
 4533              		.cfi_restore_state
 861:App/Src/command.c **** 		UsbPrintf("end int test\n");
 4534              		.loc 1 861 3 is_stmt 1 view .LVU1036
ARM GAS  C:\Users\86158\AppData\Local\Temp\ccFxKACN.s 			page 117


 4535 0058 0022     		movs	r2, #0
 4536 005a 1146     		mov	r1, r2
 4537 005c 1046     		mov	r0, r2
 4538 005e FFF7FEFF 		bl	set_int_test
 4539              	.LVL488:
 862:App/Src/command.c **** 	}
 4540              		.loc 1 862 3 view .LVU1037
 4541 0062 0648     		ldr	r0, .L313+16
 4542 0064 FFF7FEFF 		bl	UsbPrintf
 4543              	.LVL489:
 4544 0068 F1E7     		b	.L311
 4545              	.L314:
 4546 006a 00BF     		.align	2
 4547              	.L313:
 4548 006c 00000000 		.word	.LC61
 4549 0070 00000000 		.word	.LC50
 4550 0074 00000000 		.word	.LC81
 4551 0078 1C000000 		.word	.LC14
 4552 007c 24000000 		.word	.LC82
 4553              		.cfi_endproc
 4554              	.LFE272:
 4556              		.section	.rodata.AT_RTCLOAD_Handle.str1.4,"aMS",%progbits,1
 4557              		.align	2
 4558              	.LC83:
 4559 0000 25640900 		.ascii	"%d\011\000"
 4560              		.align	2
 4561              	.LC84:
 4562 0004 0A00     		.ascii	"\012\000"
 4563 0006 0000     		.align	2
 4564              	.LC85:
 4565 0008 6C6F6164 		.ascii	"load end\012\000"
 4565      20656E64 
 4565      0A00
 4566              		.section	.text.AT_RTCLOAD_Handle,"ax",%progbits
 4567              		.align	1
 4568              		.global	AT_RTCLOAD_Handle
 4569              		.syntax unified
 4570              		.thumb
 4571              		.thumb_func
 4573              	AT_RTCLOAD_Handle:
 4574              	.LVL490:
 4575              	.LFB273:
 870:App/Src/command.c **** 	int number = 0;
 4576              		.loc 1 870 1 view -0
 4577              		.cfi_startproc
 4578              		@ args = 0, pretend = 0, frame = 104
 4579              		@ frame_needed = 0, uses_anonymous_args = 0
 870:App/Src/command.c **** 	int number = 0;
 4580              		.loc 1 870 1 is_stmt 0 view .LVU1039
 4581 0000 30B5     		push	{r4, r5, lr}
 4582              	.LCFI94:
 4583              		.cfi_def_cfa_offset 12
 4584              		.cfi_offset 4, -12
 4585              		.cfi_offset 5, -8
 4586              		.cfi_offset 14, -4
 4587 0002 9BB0     		sub	sp, sp, #108
 4588              	.LCFI95:
ARM GAS  C:\Users\86158\AppData\Local\Temp\ccFxKACN.s 			page 118


 4589              		.cfi_def_cfa_offset 120
 4590 0004 0446     		mov	r4, r0
 871:App/Src/command.c **** 	int i;
 4591              		.loc 1 871 2 is_stmt 1 view .LVU1040
 871:App/Src/command.c **** 	int i;
 4592              		.loc 1 871 6 is_stmt 0 view .LVU1041
 4593 0006 0021     		movs	r1, #0
 4594 0008 1991     		str	r1, [sp, #100]
 872:App/Src/command.c **** 	uint8_t result[MAX_CHIP_NUMBER] = {0};
 4595              		.loc 1 872 2 is_stmt 1 view .LVU1042
 873:App/Src/command.c **** 	CharToInt(command, strSearch(command, "=") + 1, &number);
 4596              		.loc 1 873 2 view .LVU1043
 873:App/Src/command.c **** 	CharToInt(command, strSearch(command, "=") + 1, &number);
 4597              		.loc 1 873 10 is_stmt 0 view .LVU1044
 4598 000a 0091     		str	r1, [sp]
 4599 000c 6022     		movs	r2, #96
 4600 000e 01A8     		add	r0, sp, #4
 4601              	.LVL491:
 873:App/Src/command.c **** 	CharToInt(command, strSearch(command, "=") + 1, &number);
 4602              		.loc 1 873 10 view .LVU1045
 4603 0010 FFF7FEFF 		bl	memset
 4604              	.LVL492:
 874:App/Src/command.c **** 	if (number > 0) {
 4605              		.loc 1 874 2 is_stmt 1 view .LVU1046
 874:App/Src/command.c **** 	if (number > 0) {
 4606              		.loc 1 874 21 is_stmt 0 view .LVU1047
 4607 0014 1F49     		ldr	r1, .L325
 4608 0016 2046     		mov	r0, r4
 4609 0018 FFF7FEFF 		bl	strSearch
 4610              	.LVL493:
 874:App/Src/command.c **** 	if (number > 0) {
 4611              		.loc 1 874 2 view .LVU1048
 4612 001c 411C     		adds	r1, r0, #1
 4613 001e 19AA     		add	r2, sp, #100
 4614 0020 C9B2     		uxtb	r1, r1
 4615 0022 2046     		mov	r0, r4
 4616 0024 FFF7FEFF 		bl	CharToInt
 4617              	.LVL494:
 875:App/Src/command.c **** 		sd8840_write_otp(number);
 4618              		.loc 1 875 2 is_stmt 1 view .LVU1049
 875:App/Src/command.c **** 		sd8840_write_otp(number);
 4619              		.loc 1 875 13 is_stmt 0 view .LVU1050
 4620 0028 1998     		ldr	r0, [sp, #100]
 875:App/Src/command.c **** 		sd8840_write_otp(number);
 4621              		.loc 1 875 5 view .LVU1051
 4622 002a 0028     		cmp	r0, #0
 4623 002c 01DC     		bgt	.L324
 878:App/Src/command.c **** 			result[i - 1] = sd8840_write_otp(i);
 4624              		.loc 1 878 10 view .LVU1052
 4625 002e 0124     		movs	r4, #1
 4626              	.LVL495:
 878:App/Src/command.c **** 			result[i - 1] = sd8840_write_otp(i);
 4627              		.loc 1 878 10 view .LVU1053
 4628 0030 11E0     		b	.L316
 4629              	.LVL496:
 4630              	.L324:
 876:App/Src/command.c **** 	} else {
ARM GAS  C:\Users\86158\AppData\Local\Temp\ccFxKACN.s 			page 119


 4631              		.loc 1 876 3 is_stmt 1 view .LVU1054
 4632 0032 C0B2     		uxtb	r0, r0
 4633 0034 FFF7FEFF 		bl	sd8840_write_otp
 4634              	.LVL497:
 4635              	.L317:
 889:App/Src/command.c **** }
 4636              		.loc 1 889 2 view .LVU1055
 4637 0038 1748     		ldr	r0, .L325+4
 4638 003a FFF7FEFF 		bl	UsbPrintf
 4639              	.LVL498:
 890:App/Src/command.c **** 
 4640              		.loc 1 890 1 is_stmt 0 view .LVU1056
 4641 003e 1BB0     		add	sp, sp, #108
 4642              	.LCFI96:
 4643              		.cfi_remember_state
 4644              		.cfi_def_cfa_offset 12
 4645              		@ sp needed
 4646 0040 30BD     		pop	{r4, r5, pc}
 4647              	.LVL499:
 4648              	.L318:
 4649              	.LCFI97:
 4650              		.cfi_restore_state
 879:App/Src/command.c **** 		}
 4651              		.loc 1 879 4 is_stmt 1 discriminator 3 view .LVU1057
 879:App/Src/command.c **** 		}
 4652              		.loc 1 879 20 is_stmt 0 discriminator 3 view .LVU1058
 4653 0042 E0B2     		uxtb	r0, r4
 4654 0044 FFF7FEFF 		bl	sd8840_write_otp
 4655              	.LVL500:
 879:App/Src/command.c **** 		}
 4656              		.loc 1 879 18 discriminator 3 view .LVU1059
 4657 0048 04F16703 		add	r3, r4, #103
 4658 004c 0DEB0305 		add	r5, sp, r3
 4659 0050 05F8680C 		strb	r0, [r5, #-104]
 878:App/Src/command.c **** 			result[i - 1] = sd8840_write_otp(i);
 4660              		.loc 1 878 37 is_stmt 1 discriminator 3 view .LVU1060
 878:App/Src/command.c **** 			result[i - 1] = sd8840_write_otp(i);
 4661              		.loc 1 878 38 is_stmt 0 discriminator 3 view .LVU1061
 4662 0054 0134     		adds	r4, r4, #1
 4663              	.LVL501:
 4664              	.L316:
 878:App/Src/command.c **** 			result[i - 1] = sd8840_write_otp(i);
 4665              		.loc 1 878 15 is_stmt 1 discriminator 1 view .LVU1062
 878:App/Src/command.c **** 			result[i - 1] = sd8840_write_otp(i);
 4666              		.loc 1 878 3 is_stmt 0 discriminator 1 view .LVU1063
 4667 0056 642C     		cmp	r4, #100
 4668 0058 F3DD     		ble	.L318
 882:App/Src/command.c **** 			UsbPrintf("%d\t", result[i - 1]);
 4669              		.loc 1 882 10 view .LVU1064
 4670 005a 0124     		movs	r4, #1
 4671              	.LVL502:
 882:App/Src/command.c **** 			UsbPrintf("%d\t", result[i - 1]);
 4672              		.loc 1 882 10 view .LVU1065
 4673 005c 00E0     		b	.L319
 4674              	.LVL503:
 4675              	.L320:
 882:App/Src/command.c **** 			UsbPrintf("%d\t", result[i - 1]);
ARM GAS  C:\Users\86158\AppData\Local\Temp\ccFxKACN.s 			page 120


 4676              		.loc 1 882 37 is_stmt 1 discriminator 2 view .LVU1066
 882:App/Src/command.c **** 			UsbPrintf("%d\t", result[i - 1]);
 4677              		.loc 1 882 38 is_stmt 0 discriminator 2 view .LVU1067
 4678 005e 0134     		adds	r4, r4, #1
 4679              	.LVL504:
 4680              	.L319:
 882:App/Src/command.c **** 			UsbPrintf("%d\t", result[i - 1]);
 4681              		.loc 1 882 15 is_stmt 1 discriminator 1 view .LVU1068
 882:App/Src/command.c **** 			UsbPrintf("%d\t", result[i - 1]);
 4682              		.loc 1 882 3 is_stmt 0 discriminator 1 view .LVU1069
 4683 0060 642C     		cmp	r4, #100
 4684 0062 E9DC     		bgt	.L317
 883:App/Src/command.c **** 			if (i % 10 == 0) {
 4685              		.loc 1 883 4 is_stmt 1 view .LVU1070
 883:App/Src/command.c **** 			if (i % 10 == 0) {
 4686              		.loc 1 883 28 is_stmt 0 view .LVU1071
 4687 0064 04F16703 		add	r3, r4, #103
 4688 0068 6B44     		add	r3, sp, r3
 883:App/Src/command.c **** 			if (i % 10 == 0) {
 4689              		.loc 1 883 4 view .LVU1072
 4690 006a 13F8681C 		ldrb	r1, [r3, #-104]	@ zero_extendqisi2
 4691 006e 0B48     		ldr	r0, .L325+8
 4692 0070 FFF7FEFF 		bl	UsbPrintf
 4693              	.LVL505:
 884:App/Src/command.c **** 				UsbPrintf("\n");
 4694              		.loc 1 884 4 is_stmt 1 view .LVU1073
 884:App/Src/command.c **** 				UsbPrintf("\n");
 4695              		.loc 1 884 10 is_stmt 0 view .LVU1074
 4696 0074 0A4A     		ldr	r2, .L325+12
 4697 0076 82FB0432 		smull	r3, r2, r2, r4
 4698 007a E317     		asrs	r3, r4, #31
 4699 007c C3EBA203 		rsb	r3, r3, r2, asr #2
 4700 0080 03EB8303 		add	r3, r3, r3, lsl #2
 884:App/Src/command.c **** 				UsbPrintf("\n");
 4701              		.loc 1 884 7 view .LVU1075
 4702 0084 B4EB430F 		cmp	r4, r3, lsl #1
 4703 0088 E9D1     		bne	.L320
 885:App/Src/command.c **** 			}
 4704              		.loc 1 885 5 is_stmt 1 view .LVU1076
 4705 008a 0648     		ldr	r0, .L325+16
 4706 008c FFF7FEFF 		bl	UsbPrintf
 4707              	.LVL506:
 4708 0090 E5E7     		b	.L320
 4709              	.L326:
 4710 0092 00BF     		.align	2
 4711              	.L325:
 4712 0094 00000000 		.word	.LC61
 4713 0098 08000000 		.word	.LC85
 4714 009c 00000000 		.word	.LC83
 4715 00a0 67666666 		.word	1717986919
 4716 00a4 04000000 		.word	.LC84
 4717              		.cfi_endproc
 4718              	.LFE273:
 4720              		.section	.text.AT_AECQ100_Handle,"ax",%progbits
 4721              		.align	1
 4722              		.global	AT_AECQ100_Handle
 4723              		.syntax unified
ARM GAS  C:\Users\86158\AppData\Local\Temp\ccFxKACN.s 			page 121


 4724              		.thumb
 4725              		.thumb_func
 4727              	AT_AECQ100_Handle:
 4728              	.LVL507:
 4729              	.LFB276:
 919:App/Src/command.c **** 
 920:App/Src/command.c **** extern uint8_t Aecq100State;
 921:App/Src/command.c **** extern uint8_t g_aecq100Start;
 922:App/Src/command.c **** void AT_AECQ100_Handle(char* command)
 923:App/Src/command.c **** {       
 4730              		.loc 1 923 1 view -0
 4731              		.cfi_startproc
 4732              		@ args = 0, pretend = 0, frame = 8
 4733              		@ frame_needed = 0, uses_anonymous_args = 0
 4734              		.loc 1 923 1 is_stmt 0 view .LVU1078
 4735 0000 10B5     		push	{r4, lr}
 4736              	.LCFI98:
 4737              		.cfi_def_cfa_offset 8
 4738              		.cfi_offset 4, -8
 4739              		.cfi_offset 14, -4
 4740 0002 82B0     		sub	sp, sp, #8
 4741              	.LCFI99:
 4742              		.cfi_def_cfa_offset 16
 4743 0004 0446     		mov	r4, r0
 924:App/Src/command.c **** 	int number = 0;
 4744              		.loc 1 924 2 is_stmt 1 view .LVU1079
 4745              		.loc 1 924 6 is_stmt 0 view .LVU1080
 4746 0006 0023     		movs	r3, #0
 4747 0008 0193     		str	r3, [sp, #4]
 925:App/Src/command.c **** 	CharToInt(command, strSearch(command, "=") + 1, &number);
 4748              		.loc 1 925 2 is_stmt 1 view .LVU1081
 4749              		.loc 1 925 21 is_stmt 0 view .LVU1082
 4750 000a 0B49     		ldr	r1, .L330
 4751 000c FFF7FEFF 		bl	strSearch
 4752              	.LVL508:
 4753              		.loc 1 925 2 view .LVU1083
 4754 0010 411C     		adds	r1, r0, #1
 4755 0012 01AA     		add	r2, sp, #4
 4756 0014 C9B2     		uxtb	r1, r1
 4757 0016 2046     		mov	r0, r4
 4758 0018 FFF7FEFF 		bl	CharToInt
 4759              	.LVL509:
 926:App/Src/command.c **** 	g_aecq100Start = number;
 4760              		.loc 1 926 2 is_stmt 1 view .LVU1084
 4761              		.loc 1 926 17 is_stmt 0 view .LVU1085
 4762 001c 019B     		ldr	r3, [sp, #4]
 4763 001e 074A     		ldr	r2, .L330+4
 4764 0020 1370     		strb	r3, [r2]
 927:App/Src/command.c **** 	if (number > 0) {
 4765              		.loc 1 927 2 is_stmt 1 view .LVU1086
 4766              		.loc 1 927 5 is_stmt 0 view .LVU1087
 4767 0022 002B     		cmp	r3, #0
 4768 0024 02DD     		ble	.L328
 928:App/Src/command.c **** 		Aecq100State = 9;//进行频率测试和VBAT测试
 4769              		.loc 1 928 3 is_stmt 1 view .LVU1088
 4770              		.loc 1 928 16 is_stmt 0 view .LVU1089
 4771 0026 064B     		ldr	r3, .L330+8
ARM GAS  C:\Users\86158\AppData\Local\Temp\ccFxKACN.s 			page 122


 4772 0028 0922     		movs	r2, #9
 4773 002a 1A70     		strb	r2, [r3]
 4774              	.L328:
 929:App/Src/command.c **** 	}
 930:App/Src/command.c **** 
 931:App/Src/command.c **** 	UsbPrintf("OK\n");
 4775              		.loc 1 931 2 is_stmt 1 view .LVU1090
 4776 002c 0548     		ldr	r0, .L330+12
 4777 002e FFF7FEFF 		bl	UsbPrintf
 4778              	.LVL510:
 932:App/Src/command.c **** }
 4779              		.loc 1 932 1 is_stmt 0 view .LVU1091
 4780 0032 02B0     		add	sp, sp, #8
 4781              	.LCFI100:
 4782              		.cfi_def_cfa_offset 8
 4783              		@ sp needed
 4784 0034 10BD     		pop	{r4, pc}
 4785              	.LVL511:
 4786              	.L331:
 4787              		.loc 1 932 1 view .LVU1092
 4788 0036 00BF     		.align	2
 4789              	.L330:
 4790 0038 00000000 		.word	.LC61
 4791 003c 00000000 		.word	g_aecq100Start
 4792 0040 00000000 		.word	Aecq100State
 4793 0044 1C000000 		.word	.LC14
 4794              		.cfi_endproc
 4795              	.LFE276:
 4797              		.global	__aeabi_d2f
 4798              		.section	.text.CharToFloat,"ax",%progbits
 4799              		.align	1
 4800              		.global	CharToFloat
 4801              		.syntax unified
 4802              		.thumb
 4803              		.thumb_func
 4805              	CharToFloat:
 4806              	.LVL512:
 4807              	.LFB243:
 203:App/Src/command.c **** 		uint8_t length;
 4808              		.loc 1 203 1 is_stmt 1 view -0
 4809              		.cfi_startproc
 4810              		@ args = 0, pretend = 0, frame = 0
 4811              		@ frame_needed = 0, uses_anonymous_args = 0
 203:App/Src/command.c **** 		uint8_t length;
 4812              		.loc 1 203 1 is_stmt 0 view .LVU1094
 4813 0000 2DE9F041 		push	{r4, r5, r6, r7, r8, lr}
 4814              	.LCFI101:
 4815              		.cfi_def_cfa_offset 24
 4816              		.cfi_offset 4, -24
 4817              		.cfi_offset 5, -20
 4818              		.cfi_offset 6, -16
 4819              		.cfi_offset 7, -12
 4820              		.cfi_offset 8, -8
 4821              		.cfi_offset 14, -4
 4822 0004 2DED028B 		vpush.64	{d8}
 4823              	.LCFI102:
 4824              		.cfi_def_cfa_offset 32
ARM GAS  C:\Users\86158\AppData\Local\Temp\ccFxKACN.s 			page 123


 4825              		.cfi_offset 80, -32
 4826              		.cfi_offset 81, -28
 4827 0008 0646     		mov	r6, r0
 4828 000a 0C46     		mov	r4, r1
 4829 000c 1746     		mov	r7, r2
 204:App/Src/command.c **** 		uint8_t i;
 4830              		.loc 1 204 3 is_stmt 1 view .LVU1095
 205:App/Src/command.c **** 		float sum = 0;
 4831              		.loc 1 205 3 view .LVU1096
 206:App/Src/command.c **** 		int state = 1;
 4832              		.loc 1 206 3 view .LVU1097
 4833              	.LVL513:
 207:App/Src/command.c **** 		float smallNumber = 0.1;
 4834              		.loc 1 207 3 view .LVU1098
 208:App/Src/command.c **** 		length = strlen(source);
 4835              		.loc 1 208 3 view .LVU1099
 209:App/Src/command.c **** 		if (length <= start) {
 4836              		.loc 1 209 3 view .LVU1100
 209:App/Src/command.c **** 		if (length <= start) {
 4837              		.loc 1 209 12 is_stmt 0 view .LVU1101
 4838 000e FFF7FEFF 		bl	strlen
 4839              	.LVL514:
 209:App/Src/command.c **** 		if (length <= start) {
 4840              		.loc 1 209 10 view .LVU1102
 4841 0012 C5B2     		uxtb	r5, r0
 4842              	.LVL515:
 210:App/Src/command.c **** 				*number = 0;
 4843              		.loc 1 210 3 is_stmt 1 view .LVU1103
 210:App/Src/command.c **** 				*number = 0;
 4844              		.loc 1 210 6 is_stmt 0 view .LVU1104
 4845 0014 A542     		cmp	r5, r4
 4846 0016 1FD9     		bls	.L347
 215:App/Src/command.c **** 				state = -1;
 4847              		.loc 1 215 3 is_stmt 1 view .LVU1105
 215:App/Src/command.c **** 				state = -1;
 4848              		.loc 1 215 13 is_stmt 0 view .LVU1106
 4849 0018 335D     		ldrb	r3, [r6, r4]	@ zero_extendqisi2
 215:App/Src/command.c **** 				state = -1;
 4850              		.loc 1 215 6 view .LVU1107
 4851 001a 2D2B     		cmp	r3, #45
 4852 001c 20D0     		beq	.L348
 207:App/Src/command.c **** 		float smallNumber = 0.1;
 4853              		.loc 1 207 7 view .LVU1108
 4854 001e 4FF00108 		mov	r8, #1
 4855              	.LVL516:
 4856              	.L335:
 219:App/Src/command.c **** 				if (source[i] >= '0' && source[i] <= '9') {
 4857              		.loc 1 219 3 is_stmt 1 view .LVU1109
 206:App/Src/command.c **** 		int state = 1;
 4858              		.loc 1 206 9 is_stmt 0 view .LVU1110
 4859 0022 9FED378A 		vldr.32	s16, .L351+8
 4860              	.LVL517:
 4861              	.L336:
 219:App/Src/command.c **** 				if (source[i] >= '0' && source[i] <= '9') {
 4862              		.loc 1 219 19 is_stmt 1 discriminator 1 view .LVU1111
 219:App/Src/command.c **** 				if (source[i] >= '0' && source[i] <= '9') {
 4863              		.loc 1 219 3 is_stmt 0 discriminator 1 view .LVU1112
ARM GAS  C:\Users\86158\AppData\Local\Temp\ccFxKACN.s 			page 124


 4864 0026 AC42     		cmp	r4, r5
 4865 0028 2BD2     		bcs	.L340
 220:App/Src/command.c **** 						sum = sum * 10 + source[i] - '0';
 4866              		.loc 1 220 5 is_stmt 1 view .LVU1113
 220:App/Src/command.c **** 						sum = sum * 10 + source[i] - '0';
 4867              		.loc 1 220 15 is_stmt 0 view .LVU1114
 4868 002a 335D     		ldrb	r3, [r6, r4]	@ zero_extendqisi2
 220:App/Src/command.c **** 						sum = sum * 10 + source[i] - '0';
 4869              		.loc 1 220 26 view .LVU1115
 4870 002c A3F13002 		sub	r2, r3, #48
 4871 0030 D2B2     		uxtb	r2, r2
 220:App/Src/command.c **** 						sum = sum * 10 + source[i] - '0';
 4872              		.loc 1 220 8 view .LVU1116
 4873 0032 092A     		cmp	r2, #9
 4874 0034 19D8     		bhi	.L337
 221:App/Src/command.c **** 				} else if (source[i] == '.') {
 4875              		.loc 1 221 7 is_stmt 1 view .LVU1117
 221:App/Src/command.c **** 				} else if (source[i] == '.') {
 4876              		.loc 1 221 17 is_stmt 0 view .LVU1118
 4877 0036 F2EE047A 		vmov.f32	s15, #1.0e+1
 4878 003a 28EE278A 		vmul.f32	s16, s16, s15
 4879              	.LVL518:
 221:App/Src/command.c **** 				} else if (source[i] == '.') {
 4880              		.loc 1 221 22 view .LVU1119
 4881 003e 07EE903A 		vmov	s15, r3	@ int
 4882 0042 F8EEE77A 		vcvt.f32.s32	s15, s15
 4883 0046 77EE887A 		vadd.f32	s15, s15, s16
 221:App/Src/command.c **** 				} else if (source[i] == '.') {
 4884              		.loc 1 221 11 view .LVU1120
 4885 004a 9FED2E8A 		vldr.32	s16, .L351+12
 4886 004e 37EEC88A 		vsub.f32	s16, s15, s16
 4887              	.LVL519:
 219:App/Src/command.c **** 				if (source[i] >= '0' && source[i] <= '9') {
 4888              		.loc 1 219 31 is_stmt 1 view .LVU1121
 219:App/Src/command.c **** 				if (source[i] >= '0' && source[i] <= '9') {
 4889              		.loc 1 219 32 is_stmt 0 view .LVU1122
 4890 0052 0134     		adds	r4, r4, #1
 4891              	.LVL520:
 219:App/Src/command.c **** 				if (source[i] >= '0' && source[i] <= '9') {
 4892              		.loc 1 219 32 view .LVU1123
 4893 0054 E4B2     		uxtb	r4, r4
 4894              	.LVL521:
 219:App/Src/command.c **** 				if (source[i] >= '0' && source[i] <= '9') {
 4895              		.loc 1 219 32 view .LVU1124
 4896 0056 E6E7     		b	.L336
 4897              	.LVL522:
 4898              	.L347:
 211:App/Src/command.c **** 				return 0;
 4899              		.loc 1 211 5 is_stmt 1 view .LVU1125
 211:App/Src/command.c **** 				return 0;
 4900              		.loc 1 211 13 is_stmt 0 view .LVU1126
 4901 0058 0023     		movs	r3, #0
 4902 005a 3B60     		str	r3, [r7]	@ float
 212:App/Src/command.c **** 		}
 4903              		.loc 1 212 5 is_stmt 1 view .LVU1127
 212:App/Src/command.c **** 		}
 4904              		.loc 1 212 12 is_stmt 0 view .LVU1128
ARM GAS  C:\Users\86158\AppData\Local\Temp\ccFxKACN.s 			page 125


 4905 005c 0020     		movs	r0, #0
 4906 005e 44E0     		b	.L334
 4907              	.L348:
 216:App/Src/command.c **** 				start++;
 4908              		.loc 1 216 5 is_stmt 1 view .LVU1129
 4909              	.LVL523:
 217:App/Src/command.c **** 		}
 4910              		.loc 1 217 5 view .LVU1130
 217:App/Src/command.c **** 		}
 4911              		.loc 1 217 10 is_stmt 0 view .LVU1131
 4912 0060 0134     		adds	r4, r4, #1
 4913 0062 E4B2     		uxtb	r4, r4
 4914              	.LVL524:
 216:App/Src/command.c **** 				start++;
 4915              		.loc 1 216 11 view .LVU1132
 4916 0064 4FF0FF38 		mov	r8, #-1
 4917 0068 DBE7     		b	.L335
 4918              	.LVL525:
 4919              	.L337:
 222:App/Src/command.c **** 						i++;
 4920              		.loc 1 222 12 is_stmt 1 view .LVU1133
 222:App/Src/command.c **** 						i++;
 4921              		.loc 1 222 15 is_stmt 0 view .LVU1134
 4922 006a 2E2B     		cmp	r3, #46
 4923 006c 07D0     		beq	.L349
 225:App/Src/command.c **** 						break;
 4924              		.loc 1 225 12 is_stmt 1 view .LVU1135
 225:App/Src/command.c **** 						break;
 4925              		.loc 1 225 15 is_stmt 0 view .LVU1136
 4926 006e 202B     		cmp	r3, #32
 4927 0070 07D0     		beq	.L340
 225:App/Src/command.c **** 						break;
 4928              		.loc 1 225 33 discriminator 1 view .LVU1137
 4929 0072 2C2B     		cmp	r3, #44
 4930 0074 05D0     		beq	.L340
 228:App/Src/command.c **** 						return 0;
 4931              		.loc 1 228 7 is_stmt 1 view .LVU1138
 228:App/Src/command.c **** 						return 0;
 4932              		.loc 1 228 15 is_stmt 0 view .LVU1139
 4933 0076 0023     		movs	r3, #0
 4934 0078 3B60     		str	r3, [r7]	@ float
 229:App/Src/command.c **** 				}					
 4935              		.loc 1 229 7 is_stmt 1 view .LVU1140
 229:App/Src/command.c **** 				}					
 4936              		.loc 1 229 14 is_stmt 0 view .LVU1141
 4937 007a 0020     		movs	r0, #0
 4938 007c 35E0     		b	.L334
 4939              	.L349:
 223:App/Src/command.c **** 						break;
 4940              		.loc 1 223 7 is_stmt 1 view .LVU1142
 223:App/Src/command.c **** 						break;
 4941              		.loc 1 223 8 is_stmt 0 view .LVU1143
 4942 007e 0134     		adds	r4, r4, #1
 4943              	.LVL526:
 223:App/Src/command.c **** 						break;
 4944              		.loc 1 223 8 view .LVU1144
 4945 0080 E4B2     		uxtb	r4, r4
ARM GAS  C:\Users\86158\AppData\Local\Temp\ccFxKACN.s 			page 126


 4946              	.LVL527:
 224:App/Src/command.c **** 				} else if (source[i] == ' ' || source[i] == ',') {
 4947              		.loc 1 224 7 is_stmt 1 view .LVU1145
 4948              	.L340:
 206:App/Src/command.c **** 		int state = 1;
 4949              		.loc 1 206 9 is_stmt 0 discriminator 1 view .LVU1146
 4950 0082 9FED217A 		vldr.32	s14, .L351+16
 4951 0086 17E0     		b	.L339
 4952              	.LVL528:
 4953              	.L350:
 234:App/Src/command.c **** 						smallNumber = smallNumber * 0.1;
 4954              		.loc 1 234 7 is_stmt 1 view .LVU1147
 234:App/Src/command.c **** 						smallNumber = smallNumber * 0.1;
 4955              		.loc 1 234 39 is_stmt 0 view .LVU1148
 4956 0088 303B     		subs	r3, r3, #48
 4957 008a 07EE903A 		vmov	s15, r3	@ int
 234:App/Src/command.c **** 						smallNumber = smallNumber * 0.1;
 4958              		.loc 1 234 26 view .LVU1149
 4959 008e F8EEE77A 		vcvt.f32.s32	s15, s15
 4960 0092 67EE877A 		vmul.f32	s15, s15, s14
 234:App/Src/command.c **** 						smallNumber = smallNumber * 0.1;
 4961              		.loc 1 234 11 view .LVU1150
 4962 0096 38EE278A 		vadd.f32	s16, s16, s15
 4963              	.LVL529:
 235:App/Src/command.c **** 				} else if (source[i] == ' ' || source[i] == ',') {
 4964              		.loc 1 235 7 is_stmt 1 view .LVU1151
 235:App/Src/command.c **** 				} else if (source[i] == ' ' || source[i] == ',') {
 4965              		.loc 1 235 33 is_stmt 0 view .LVU1152
 4966 009a 17EE100A 		vmov	r0, s14
 4967 009e FFF7FEFF 		bl	__aeabi_f2d
 4968              	.LVL530:
 235:App/Src/command.c **** 				} else if (source[i] == ' ' || source[i] == ',') {
 4969              		.loc 1 235 33 view .LVU1153
 4970 00a2 15A3     		adr	r3, .L351
 4971 00a4 D3E90023 		ldrd	r2, [r3]
 4972 00a8 FFF7FEFF 		bl	__aeabi_dmul
 4973              	.LVL531:
 235:App/Src/command.c **** 				} else if (source[i] == ' ' || source[i] == ',') {
 4974              		.loc 1 235 19 view .LVU1154
 4975 00ac FFF7FEFF 		bl	__aeabi_d2f
 4976              	.LVL532:
 4977 00b0 07EE100A 		vmov	s14, r0
 4978              	.LVL533:
 232:App/Src/command.c **** 				if (source[i] >= '0' && source[i] <= '9') {
 4979              		.loc 1 232 22 is_stmt 1 view .LVU1155
 232:App/Src/command.c **** 				if (source[i] >= '0' && source[i] <= '9') {
 4980              		.loc 1 232 23 is_stmt 0 view .LVU1156
 4981 00b4 0134     		adds	r4, r4, #1
 4982              	.LVL534:
 232:App/Src/command.c **** 				if (source[i] >= '0' && source[i] <= '9') {
 4983              		.loc 1 232 23 view .LVU1157
 4984 00b6 E4B2     		uxtb	r4, r4
 4985              	.LVL535:
 4986              	.L339:
 232:App/Src/command.c **** 				if (source[i] >= '0' && source[i] <= '9') {
 4987              		.loc 1 232 10 is_stmt 1 discriminator 1 view .LVU1158
 232:App/Src/command.c **** 				if (source[i] >= '0' && source[i] <= '9') {
ARM GAS  C:\Users\86158\AppData\Local\Temp\ccFxKACN.s 			page 127


 4988              		.loc 1 232 3 is_stmt 0 discriminator 1 view .LVU1159
 4989 00b8 AC42     		cmp	r4, r5
 4990 00ba 0DD2     		bcs	.L343
 233:App/Src/command.c **** 						sum += smallNumber * (source[i] - '0');
 4991              		.loc 1 233 5 is_stmt 1 view .LVU1160
 233:App/Src/command.c **** 						sum += smallNumber * (source[i] - '0');
 4992              		.loc 1 233 15 is_stmt 0 view .LVU1161
 4993 00bc 335D     		ldrb	r3, [r6, r4]	@ zero_extendqisi2
 233:App/Src/command.c **** 						sum += smallNumber * (source[i] - '0');
 4994              		.loc 1 233 26 view .LVU1162
 4995 00be A3F13002 		sub	r2, r3, #48
 4996 00c2 D2B2     		uxtb	r2, r2
 233:App/Src/command.c **** 						sum += smallNumber * (source[i] - '0');
 4997              		.loc 1 233 8 view .LVU1163
 4998 00c4 092A     		cmp	r2, #9
 4999 00c6 DFD9     		bls	.L350
 236:App/Src/command.c **** 						break;
 5000              		.loc 1 236 12 is_stmt 1 view .LVU1164
 236:App/Src/command.c **** 						break;
 5001              		.loc 1 236 15 is_stmt 0 view .LVU1165
 5002 00c8 202B     		cmp	r3, #32
 5003 00ca 05D0     		beq	.L343
 236:App/Src/command.c **** 						break;
 5004              		.loc 1 236 33 discriminator 1 view .LVU1166
 5005 00cc 2C2B     		cmp	r3, #44
 5006 00ce 03D0     		beq	.L343
 239:App/Src/command.c **** 						return 0;
 5007              		.loc 1 239 7 is_stmt 1 view .LVU1167
 239:App/Src/command.c **** 						return 0;
 5008              		.loc 1 239 15 is_stmt 0 view .LVU1168
 5009 00d0 0023     		movs	r3, #0
 5010 00d2 3B60     		str	r3, [r7]	@ float
 240:App/Src/command.c **** 				}	
 5011              		.loc 1 240 7 is_stmt 1 view .LVU1169
 240:App/Src/command.c **** 				}	
 5012              		.loc 1 240 14 is_stmt 0 view .LVU1170
 5013 00d4 0020     		movs	r0, #0
 5014 00d6 08E0     		b	.L334
 5015              	.L343:
 243:App/Src/command.c **** 		return 1;
 5016              		.loc 1 243 3 is_stmt 1 view .LVU1171
 243:App/Src/command.c **** 		return 1;
 5017              		.loc 1 243 19 is_stmt 0 view .LVU1172
 5018 00d8 07EE908A 		vmov	s15, r8	@ int
 5019 00dc F8EEE77A 		vcvt.f32.s32	s15, s15
 5020 00e0 27EE888A 		vmul.f32	s16, s15, s16
 5021              	.LVL536:
 243:App/Src/command.c **** 		return 1;
 5022              		.loc 1 243 11 view .LVU1173
 5023 00e4 87ED008A 		vstr.32	s16, [r7]
 244:App/Src/command.c **** }
 5024              		.loc 1 244 3 is_stmt 1 view .LVU1174
 244:App/Src/command.c **** }
 5025              		.loc 1 244 10 is_stmt 0 view .LVU1175
 5026 00e8 0120     		movs	r0, #1
 5027              	.LVL537:
 5028              	.L334:
ARM GAS  C:\Users\86158\AppData\Local\Temp\ccFxKACN.s 			page 128


 245:App/Src/command.c **** 
 5029              		.loc 1 245 1 view .LVU1176
 5030 00ea BDEC028B 		vldm	sp!, {d8}
 5031              	.LCFI103:
 5032              		.cfi_restore 80
 5033              		.cfi_restore 81
 5034              		.cfi_def_cfa_offset 24
 5035 00ee BDE8F081 		pop	{r4, r5, r6, r7, r8, pc}
 5036              	.LVL538:
 5037              	.L352:
 245:App/Src/command.c **** 
 5038              		.loc 1 245 1 view .LVU1177
 5039 00f2 00BFAFF3 		.align	3
 5039      0080
 5040              	.L351:
 5041 00f8 9A999999 		.word	-1717986918
 5042 00fc 9999B93F 		.word	1069128089
 5043 0100 00000000 		.word	0
 5044 0104 00004042 		.word	1111490560
 5045 0108 CDCCCC3D 		.word	1036831949
 5046              		.cfi_endproc
 5047              	.LFE243:
 5049              		.section	.text.AT_HOTVOLTAGE_Handle,"ax",%progbits
 5050              		.align	1
 5051              		.global	AT_HOTVOLTAGE_Handle
 5052              		.syntax unified
 5053              		.thumb
 5054              		.thumb_func
 5056              	AT_HOTVOLTAGE_Handle:
 5057              	.LVL539:
 5058              	.LFB274:
 893:App/Src/command.c **** 	float number;
 5059              		.loc 1 893 1 is_stmt 1 view -0
 5060              		.cfi_startproc
 5061              		@ args = 0, pretend = 0, frame = 8
 5062              		@ frame_needed = 0, uses_anonymous_args = 0
 893:App/Src/command.c **** 	float number;
 5063              		.loc 1 893 1 is_stmt 0 view .LVU1179
 5064 0000 10B5     		push	{r4, lr}
 5065              	.LCFI104:
 5066              		.cfi_def_cfa_offset 8
 5067              		.cfi_offset 4, -8
 5068              		.cfi_offset 14, -4
 5069 0002 82B0     		sub	sp, sp, #8
 5070              	.LCFI105:
 5071              		.cfi_def_cfa_offset 16
 5072 0004 0446     		mov	r4, r0
 894:App/Src/command.c **** 	CharToFloat(command, strSearch(command, "=") + 1, &number);
 5073              		.loc 1 894 2 is_stmt 1 view .LVU1180
 895:App/Src/command.c **** 	rtc_otp_power(number);//配置dac电压
 5074              		.loc 1 895 2 view .LVU1181
 895:App/Src/command.c **** 	rtc_otp_power(number);//配置dac电压
 5075              		.loc 1 895 23 is_stmt 0 view .LVU1182
 5076 0006 0949     		ldr	r1, .L355
 5077 0008 FFF7FEFF 		bl	strSearch
 5078              	.LVL540:
 895:App/Src/command.c **** 	rtc_otp_power(number);//配置dac电压
ARM GAS  C:\Users\86158\AppData\Local\Temp\ccFxKACN.s 			page 129


 5079              		.loc 1 895 2 view .LVU1183
 5080 000c 411C     		adds	r1, r0, #1
 5081 000e 01AA     		add	r2, sp, #4
 5082 0010 C9B2     		uxtb	r1, r1
 5083 0012 2046     		mov	r0, r4
 5084 0014 FFF7FEFF 		bl	CharToFloat
 5085              	.LVL541:
 896:App/Src/command.c **** 	UsbPrintf("OK\n");
 5086              		.loc 1 896 2 is_stmt 1 view .LVU1184
 5087 0018 9DED010A 		vldr.32	s0, [sp, #4]
 5088 001c FFF7FEFF 		bl	rtc_otp_power
 5089              	.LVL542:
 897:App/Src/command.c **** }
 5090              		.loc 1 897 2 view .LVU1185
 5091 0020 0348     		ldr	r0, .L355+4
 5092 0022 FFF7FEFF 		bl	UsbPrintf
 5093              	.LVL543:
 898:App/Src/command.c **** 
 5094              		.loc 1 898 1 is_stmt 0 view .LVU1186
 5095 0026 02B0     		add	sp, sp, #8
 5096              	.LCFI106:
 5097              		.cfi_def_cfa_offset 8
 5098              		@ sp needed
 5099 0028 10BD     		pop	{r4, pc}
 5100              	.LVL544:
 5101              	.L356:
 898:App/Src/command.c **** 
 5102              		.loc 1 898 1 view .LVU1187
 5103 002a 00BF     		.align	2
 5104              	.L355:
 5105 002c 00000000 		.word	.LC61
 5106 0030 1C000000 		.word	.LC14
 5107              		.cfi_endproc
 5108              	.LFE274:
 5110              		.section	.rodata.CheckFreqValue.str1.4,"aMS",%progbits,1
 5111              		.align	2
 5112              	.LC86:
 5113 0000 50504D00 		.ascii	"PPM\000"
 5114              		.align	2
 5115              	.LC87:
 5116 0004 257300   		.ascii	"%s\000"
 5117              		.section	.text.CheckFreqValue,"ax",%progbits
 5118              		.align	1
 5119              		.global	CheckFreqValue
 5120              		.syntax unified
 5121              		.thumb
 5122              		.thumb_func
 5124              	CheckFreqValue:
 5125              	.LVL545:
 5126              	.LFB277:
 933:App/Src/command.c **** 
 934:App/Src/command.c **** uint8_t CheckFreqValue(float* result)
 935:App/Src/command.c **** {
 5127              		.loc 1 935 1 is_stmt 1 view -0
 5128              		.cfi_startproc
 5129              		@ args = 0, pretend = 0, frame = 16
 5130              		@ frame_needed = 0, uses_anonymous_args = 0
ARM GAS  C:\Users\86158\AppData\Local\Temp\ccFxKACN.s 			page 130


 5131              		.loc 1 935 1 is_stmt 0 view .LVU1189
 5132 0000 30B5     		push	{r4, r5, lr}
 5133              	.LCFI107:
 5134              		.cfi_def_cfa_offset 12
 5135              		.cfi_offset 4, -12
 5136              		.cfi_offset 5, -8
 5137              		.cfi_offset 14, -4
 5138 0002 85B0     		sub	sp, sp, #20
 5139              	.LCFI108:
 5140              		.cfi_def_cfa_offset 32
 5141 0004 0446     		mov	r4, r0
 936:App/Src/command.c **** 	int num;
 5142              		.loc 1 936 2 is_stmt 1 view .LVU1190
 937:App/Src/command.c **** 	char strFreq[10] = {0};
 5143              		.loc 1 937 2 view .LVU1191
 5144              		.loc 1 937 7 is_stmt 0 view .LVU1192
 5145 0006 0023     		movs	r3, #0
 5146 0008 0193     		str	r3, [sp, #4]
 5147 000a 0293     		str	r3, [sp, #8]
 5148 000c ADF80C30 		strh	r3, [sp, #12]	@ movhi
 938:App/Src/command.c **** 	float frequency = 0;
 5149              		.loc 1 938 2 is_stmt 1 view .LVU1193
 5150              		.loc 1 938 8 is_stmt 0 view .LVU1194
 5151 0010 0023     		movs	r3, #0
 5152 0012 0093     		str	r3, [sp]	@ float
 939:App/Src/command.c **** 
 940:App/Src/command.c **** 	num = strSearch((char*)g_DeviceRxBuff, "Hz");
 5153              		.loc 1 940 2 is_stmt 1 view .LVU1195
 5154              		.loc 1 940 8 is_stmt 0 view .LVU1196
 5155 0014 1A49     		ldr	r1, .L364
 5156 0016 1B48     		ldr	r0, .L364+4
 5157              	.LVL546:
 5158              		.loc 1 940 8 view .LVU1197
 5159 0018 FFF7FEFF 		bl	strSearch
 5160              	.LVL547:
 941:App/Src/command.c **** 	if (num > 0) {//表示是以KHz字符结尾的数据，判断为有效数据
 5161              		.loc 1 941 2 is_stmt 1 view .LVU1198
 5162              		.loc 1 941 5 is_stmt 0 view .LVU1199
 5163 001c 021E     		subs	r2, r0, #0
 5164 001e 08DC     		bgt	.L362
 942:App/Src/command.c **** 		strncpy(strFreq, (char*)g_DeviceRxBuff, num);//读取其中的数字部分
 943:App/Src/command.c **** 		CharToFloat(strFreq, 0, &frequency);//转换为浮点型数据
 944:App/Src/command.c **** 		*result = frequency;
 945:App/Src/command.c ****         memset(g_DeviceRxBuff, 0, UART_RECEIVE_BUFF_NUMBER);
 946:App/Src/command.c ****         device_Rx_Cnt = 0;
 947:App/Src/command.c **** 		return 1;
 948:App/Src/command.c **** 	}
 949:App/Src/command.c **** 	num = strSearch((char*)g_DeviceRxBuff, "PPM");
 5165              		.loc 1 949 2 is_stmt 1 view .LVU1200
 5166              		.loc 1 949 8 is_stmt 0 view .LVU1201
 5167 0020 1949     		ldr	r1, .L364+8
 5168 0022 1848     		ldr	r0, .L364+4
 5169              	.LVL548:
 5170              		.loc 1 949 8 view .LVU1202
 5171 0024 FFF7FEFF 		bl	strSearch
 5172              	.LVL549:
 950:App/Src/command.c **** 	if (num > 0) {//表示是以KHz字符结尾的数据，判断为有效数据
ARM GAS  C:\Users\86158\AppData\Local\Temp\ccFxKACN.s 			page 131


 5173              		.loc 1 950 2 is_stmt 1 view .LVU1203
 5174              		.loc 1 950 5 is_stmt 0 view .LVU1204
 5175 0028 0028     		cmp	r0, #0
 5176 002a 18DC     		bgt	.L363
 951:App/Src/command.c **** 		*result = 0;
 952:App/Src/command.c **** 		UsbPrintf("%s", (char*)g_DeviceRxBuff);
 953:App/Src/command.c ****         memset(g_DeviceRxBuff, 0, UART_RECEIVE_BUFF_NUMBER);
 954:App/Src/command.c ****         device_Rx_Cnt = 0;
 955:App/Src/command.c **** 		return 1;
 956:App/Src/command.c **** 	}
 957:App/Src/command.c **** 	return 0;
 5177              		.loc 1 957 9 view .LVU1205
 5178 002c 0020     		movs	r0, #0
 5179              	.LVL550:
 5180              	.L359:
 958:App/Src/command.c **** }
 5181              		.loc 1 958 1 view .LVU1206
 5182 002e 05B0     		add	sp, sp, #20
 5183              	.LCFI109:
 5184              		.cfi_remember_state
 5185              		.cfi_def_cfa_offset 12
 5186              		@ sp needed
 5187 0030 30BD     		pop	{r4, r5, pc}
 5188              	.LVL551:
 5189              	.L362:
 5190              	.LCFI110:
 5191              		.cfi_restore_state
 942:App/Src/command.c **** 		CharToFloat(strFreq, 0, &frequency);//转换为浮点型数据
 5192              		.loc 1 942 3 is_stmt 1 view .LVU1207
 5193 0032 144D     		ldr	r5, .L364+4
 5194 0034 2946     		mov	r1, r5
 5195 0036 01A8     		add	r0, sp, #4
 5196              	.LVL552:
 942:App/Src/command.c **** 		CharToFloat(strFreq, 0, &frequency);//转换为浮点型数据
 5197              		.loc 1 942 3 is_stmt 0 view .LVU1208
 5198 0038 FFF7FEFF 		bl	strncpy
 5199              	.LVL553:
 943:App/Src/command.c **** 		*result = frequency;
 5200              		.loc 1 943 3 is_stmt 1 view .LVU1209
 5201 003c 6A46     		mov	r2, sp
 5202 003e 0021     		movs	r1, #0
 5203 0040 01A8     		add	r0, sp, #4
 5204 0042 FFF7FEFF 		bl	CharToFloat
 5205              	.LVL554:
 944:App/Src/command.c ****         memset(g_DeviceRxBuff, 0, UART_RECEIVE_BUFF_NUMBER);
 5206              		.loc 1 944 3 view .LVU1210
 944:App/Src/command.c ****         memset(g_DeviceRxBuff, 0, UART_RECEIVE_BUFF_NUMBER);
 5207              		.loc 1 944 11 is_stmt 0 view .LVU1211
 5208 0046 009B     		ldr	r3, [sp]	@ float
 5209 0048 2360     		str	r3, [r4]	@ float
 945:App/Src/command.c ****         device_Rx_Cnt = 0;
 5210              		.loc 1 945 9 is_stmt 1 view .LVU1212
 5211 004a C822     		movs	r2, #200
 5212 004c 0021     		movs	r1, #0
 5213 004e 2846     		mov	r0, r5
 5214 0050 FFF7FEFF 		bl	memset
 5215              	.LVL555:
ARM GAS  C:\Users\86158\AppData\Local\Temp\ccFxKACN.s 			page 132


 946:App/Src/command.c **** 		return 1;
 5216              		.loc 1 946 9 view .LVU1213
 946:App/Src/command.c **** 		return 1;
 5217              		.loc 1 946 23 is_stmt 0 view .LVU1214
 5218 0054 0D4B     		ldr	r3, .L364+12
 5219 0056 0022     		movs	r2, #0
 5220 0058 1A80     		strh	r2, [r3]	@ movhi
 947:App/Src/command.c **** 	}
 5221              		.loc 1 947 3 is_stmt 1 view .LVU1215
 947:App/Src/command.c **** 	}
 5222              		.loc 1 947 10 is_stmt 0 view .LVU1216
 5223 005a 0120     		movs	r0, #1
 5224 005c E7E7     		b	.L359
 5225              	.LVL556:
 5226              	.L363:
 951:App/Src/command.c **** 		UsbPrintf("%s", (char*)g_DeviceRxBuff);
 5227              		.loc 1 951 3 is_stmt 1 view .LVU1217
 951:App/Src/command.c **** 		UsbPrintf("%s", (char*)g_DeviceRxBuff);
 5228              		.loc 1 951 11 is_stmt 0 view .LVU1218
 5229 005e 0023     		movs	r3, #0
 5230 0060 2360     		str	r3, [r4]	@ float
 952:App/Src/command.c ****         memset(g_DeviceRxBuff, 0, UART_RECEIVE_BUFF_NUMBER);
 5231              		.loc 1 952 3 is_stmt 1 view .LVU1219
 5232 0062 084C     		ldr	r4, .L364+4
 5233              	.LVL557:
 952:App/Src/command.c ****         memset(g_DeviceRxBuff, 0, UART_RECEIVE_BUFF_NUMBER);
 5234              		.loc 1 952 3 is_stmt 0 view .LVU1220
 5235 0064 2146     		mov	r1, r4
 5236 0066 0A48     		ldr	r0, .L364+16
 5237              	.LVL558:
 952:App/Src/command.c ****         memset(g_DeviceRxBuff, 0, UART_RECEIVE_BUFF_NUMBER);
 5238              		.loc 1 952 3 view .LVU1221
 5239 0068 FFF7FEFF 		bl	UsbPrintf
 5240              	.LVL559:
 953:App/Src/command.c ****         device_Rx_Cnt = 0;
 5241              		.loc 1 953 9 is_stmt 1 view .LVU1222
 5242 006c C822     		movs	r2, #200
 5243 006e 0021     		movs	r1, #0
 5244 0070 2046     		mov	r0, r4
 5245 0072 FFF7FEFF 		bl	memset
 5246              	.LVL560:
 954:App/Src/command.c **** 		return 1;
 5247              		.loc 1 954 9 view .LVU1223
 954:App/Src/command.c **** 		return 1;
 5248              		.loc 1 954 23 is_stmt 0 view .LVU1224
 5249 0076 054B     		ldr	r3, .L364+12
 5250 0078 0022     		movs	r2, #0
 5251 007a 1A80     		strh	r2, [r3]	@ movhi
 955:App/Src/command.c **** 	}
 5252              		.loc 1 955 3 is_stmt 1 view .LVU1225
 955:App/Src/command.c **** 	}
 5253              		.loc 1 955 10 is_stmt 0 view .LVU1226
 5254 007c 0120     		movs	r0, #1
 5255 007e D6E7     		b	.L359
 5256              	.L365:
 5257              		.align	2
 5258              	.L364:
ARM GAS  C:\Users\86158\AppData\Local\Temp\ccFxKACN.s 			page 133


 5259 0080 08000000 		.word	.LC38
 5260 0084 00000000 		.word	.LANCHOR8
 5261 0088 00000000 		.word	.LC86
 5262 008c 00000000 		.word	.LANCHOR10
 5263 0090 04000000 		.word	.LC87
 5264              		.cfi_endproc
 5265              	.LFE277:
 5267              		.section	.text.HAL_UART_RxCpltCallback,"ax",%progbits
 5268              		.align	1
 5269              		.global	HAL_UART_RxCpltCallback
 5270              		.syntax unified
 5271              		.thumb
 5272              		.thumb_func
 5274              	HAL_UART_RxCpltCallback:
 5275              	.LVL561:
 5276              	.LFB278:
 959:App/Src/command.c **** 
 960:App/Src/command.c **** typedef void(*function)(char* s);
 961:App/Src/command.c **** function UsbCommand[MAX_COMMAND_NUMBER] = {
 962:App/Src/command.c ****     AT_HELP_Handle,
 963:App/Src/command.c **** 	AT_VERSION_Handle,
 964:App/Src/command.c ****     AT_REALTIME_Handle,
 965:App/Src/command.c ****     AT_READDATA_Handle,
 966:App/Src/command.c ****     AT_SETTIME_Handle,
 967:App/Src/command.c **** 	AT_RTCCURRENT_Handle,
 968:App/Src/command.c **** 	AT_RTCVBAT_Handle,
 969:App/Src/command.c **** 	AT_RTC4096_Handle,
 970:App/Src/command.c **** 	AT_RTCOTP_Handle,
 971:App/Src/command.c **** 	AT_RTCADJCAP_Handle,
 972:App/Src/command.c **** 	AT_RTCMODE_Handle,
 973:App/Src/command.c **** 	AT_FREQTEST_Handle,
 974:App/Src/command.c **** 	AT_READGROUP_Handle,
 975:App/Src/command.c **** 	AT_SYSTEMP_Handle,	
 976:App/Src/command.c **** 	AT_WRITEFLASH_Handle,
 977:App/Src/command.c **** 	AT_READFLASH_Handle,
 978:App/Src/command.c **** 	AT_ERASEFLASH_Handle,
 979:App/Src/command.c **** 	AT_SETCURRENT_Handle,
 980:App/Src/command.c **** 	AT_SYSVOLTAGE_Handle,
 981:App/Src/command.c **** 	AT_SYSTEST_Handle,
 982:App/Src/command.c **** 	AT_TESTMODE_Handle,
 983:App/Src/command.c **** 	AT_RESULT_Handle,
 984:App/Src/command.c **** 	AT_WRITECONFIG_Handle,
 985:App/Src/command.c **** 	AT_TESTFLAG_Handle,
 986:App/Src/command.c **** 	AT_TESTDATA_Handle,
 987:App/Src/command.c **** 	AT_ATTEST_Handle,
 988:App/Src/command.c **** 	AT_MACHINE_Handle,
 989:App/Src/command.c **** 	AT_1006TMODE_Handle,
 990:App/Src/command.c **** 	AT_SD8840INT_Handle,
 991:App/Src/command.c **** 	AT_RTCLOAD_Handle,
 992:App/Src/command.c **** 	AT_HOTVOLTAGE_Handle,
 993:App/Src/command.c **** 	AT_TEMPADC_Handle,
 994:App/Src/command.c **** 	AT_AECQ100_Handle,
 995:App/Src/command.c **** };
 996:App/Src/command.c **** 
 997:App/Src/command.c **** 
 998:App/Src/command.c **** void HAL_UART_RxCpltCallback(UART_HandleTypeDef *huart)
 999:App/Src/command.c **** {
ARM GAS  C:\Users\86158\AppData\Local\Temp\ccFxKACN.s 			page 134


 5277              		.loc 1 999 1 is_stmt 1 view -0
 5278              		.cfi_startproc
 5279              		@ args = 0, pretend = 0, frame = 0
 5280              		@ frame_needed = 0, uses_anonymous_args = 0
 5281              		.loc 1 999 1 is_stmt 0 view .LVU1228
 5282 0000 10B5     		push	{r4, lr}
 5283              	.LCFI111:
 5284              		.cfi_def_cfa_offset 8
 5285              		.cfi_offset 4, -8
 5286              		.cfi_offset 14, -4
 5287 0002 0446     		mov	r4, r0
1000:App/Src/command.c ****     if (huart->Instance == USART1) {
 5288              		.loc 1 1000 5 is_stmt 1 view .LVU1229
 5289              		.loc 1 1000 14 is_stmt 0 view .LVU1230
 5290 0004 0268     		ldr	r2, [r0]
 5291              		.loc 1 1000 8 view .LVU1231
 5292 0006 354B     		ldr	r3, .L384
 5293 0008 9A42     		cmp	r2, r3
 5294 000a 08D0     		beq	.L381
 5295              	.LVL562:
 5296              	.L367:
1001:App/Src/command.c ****         if (usb_Rx_Cnt == 0 && (usbRxBuf == ' ' || usbRxBuf == '\r' || usbRxBuf == '\n')) {
1002:App/Src/command.c ****             HAL_UART_Receive_IT(&huart1, &usbRxBuf, sizeof(usbRxBuf));
1003:App/Src/command.c ****             return;
1004:App/Src/command.c ****         }
1005:App/Src/command.c ****         if (usb_Rx_Cnt < UART_RECEIVE_BUFF_NUMBER && g_UsbATStatus == 0) {
1006:App/Src/command.c ****             g_UsbRxBuff[usb_Rx_Cnt] = usbRxBuf;
1007:App/Src/command.c ****         	usb_Rx_Cnt++;
1008:App/Src/command.c ****         }
1009:App/Src/command.c ****         if (usb_Rx_Cnt >= UART_RECEIVE_BUFF_NUMBER || usbRxBuf == ' ') {
1010:App/Src/command.c ****             g_UsbATStatus = 1;
1011:App/Src/command.c ****         } 
1012:App/Src/command.c ****         HAL_UART_Receive_IT(&huart1, &usbRxBuf, 1);
1013:App/Src/command.c ****     }
1014:App/Src/command.c **** 	
1015:App/Src/command.c **** 	if (huart->Instance == USART2) {
 5297              		.loc 1 1015 2 is_stmt 1 view .LVU1232
 5298              		.loc 1 1015 11 is_stmt 0 view .LVU1233
 5299 000c 2268     		ldr	r2, [r4]
 5300              		.loc 1 1015 5 view .LVU1234
 5301 000e 344B     		ldr	r3, .L384+4
 5302 0010 9A42     		cmp	r2, r3
 5303 0012 32D0     		beq	.L382
 5304              	.L374:
1016:App/Src/command.c ****         if (device_Rx_Cnt == 0 && (deviceRxBuf == ' ' || deviceRxBuf == '\r' || deviceRxBuf == '\n'
1017:App/Src/command.c ****         	HAL_UART_Receive_IT(&huart2, &deviceRxBuf, 1);
1018:App/Src/command.c ****             return;
1019:App/Src/command.c ****         }
1020:App/Src/command.c ****         if (device_Rx_Cnt < UART_RECEIVE_BUFF_NUMBER && g_DeviceATStatus == 0) {
1021:App/Src/command.c ****             g_DeviceRxBuff[device_Rx_Cnt] = deviceRxBuf;
1022:App/Src/command.c ****         	device_Rx_Cnt++;
1023:App/Src/command.c ****         }
1024:App/Src/command.c ****         if (device_Rx_Cnt >= UART_RECEIVE_BUFF_NUMBER || deviceRxBuf == ' ') {
1025:App/Src/command.c ****             g_DeviceATStatus = 1;
1026:App/Src/command.c ****         }
1027:App/Src/command.c ****         HAL_UART_Receive_IT(&huart2, &deviceRxBuf, 1);
1028:App/Src/command.c **** 	}
ARM GAS  C:\Users\86158\AppData\Local\Temp\ccFxKACN.s 			page 135


1029:App/Src/command.c **** 
1030:App/Src/command.c **** 	if (huart->Instance == USART3) {//上位机信息处理
 5305              		.loc 1 1030 2 is_stmt 1 view .LVU1235
 5306              		.loc 1 1030 11 is_stmt 0 view .LVU1236
 5307 0014 2268     		ldr	r2, [r4]
 5308              		.loc 1 1030 5 view .LVU1237
 5309 0016 334B     		ldr	r3, .L384+8
 5310 0018 9A42     		cmp	r2, r3
 5311 001a 5CD0     		beq	.L383
 5312              	.L366:
1031:App/Src/command.c **** 		control_usart_receive();
1032:App/Src/command.c **** 	}
1033:App/Src/command.c **** }
 5313              		.loc 1 1033 1 view .LVU1238
 5314 001c 10BD     		pop	{r4, pc}
 5315              	.LVL563:
 5316              	.L381:
1001:App/Src/command.c ****             HAL_UART_Receive_IT(&huart1, &usbRxBuf, sizeof(usbRxBuf));
 5317              		.loc 1 1001 9 is_stmt 1 view .LVU1239
1001:App/Src/command.c ****             HAL_UART_Receive_IT(&huart1, &usbRxBuf, sizeof(usbRxBuf));
 5318              		.loc 1 1001 24 is_stmt 0 view .LVU1240
 5319 001e 324B     		ldr	r3, .L384+12
 5320 0020 1B88     		ldrh	r3, [r3]
1001:App/Src/command.c ****             HAL_UART_Receive_IT(&huart1, &usbRxBuf, sizeof(usbRxBuf));
 5321              		.loc 1 1001 12 view .LVU1241
 5322 0022 3BB9     		cbnz	r3, .L368
1001:App/Src/command.c ****             HAL_UART_Receive_IT(&huart1, &usbRxBuf, sizeof(usbRxBuf));
 5323              		.loc 1 1001 42 discriminator 1 view .LVU1242
 5324 0024 314A     		ldr	r2, .L384+16
 5325 0026 1278     		ldrb	r2, [r2]	@ zero_extendqisi2
1001:App/Src/command.c ****             HAL_UART_Receive_IT(&huart1, &usbRxBuf, sizeof(usbRxBuf));
 5326              		.loc 1 1001 29 discriminator 1 view .LVU1243
 5327 0028 202A     		cmp	r2, #32
 5328 002a 20D0     		beq	.L369
1001:App/Src/command.c ****             HAL_UART_Receive_IT(&huart1, &usbRxBuf, sizeof(usbRxBuf));
 5329              		.loc 1 1001 49 discriminator 2 view .LVU1244
 5330 002c 0D2A     		cmp	r2, #13
 5331 002e 1ED0     		beq	.L369
1001:App/Src/command.c ****             HAL_UART_Receive_IT(&huart1, &usbRxBuf, sizeof(usbRxBuf));
 5332              		.loc 1 1001 69 discriminator 3 view .LVU1245
 5333 0030 0A2A     		cmp	r2, #10
 5334 0032 1CD0     		beq	.L369
 5335              	.L368:
1005:App/Src/command.c ****             g_UsbRxBuff[usb_Rx_Cnt] = usbRxBuf;
 5336              		.loc 1 1005 9 is_stmt 1 view .LVU1246
1005:App/Src/command.c ****             g_UsbRxBuff[usb_Rx_Cnt] = usbRxBuf;
 5337              		.loc 1 1005 12 is_stmt 0 view .LVU1247
 5338 0034 C72B     		cmp	r3, #199
 5339 0036 09D8     		bhi	.L371
1005:App/Src/command.c ****             g_UsbRxBuff[usb_Rx_Cnt] = usbRxBuf;
 5340              		.loc 1 1005 68 discriminator 1 view .LVU1248
 5341 0038 2D4A     		ldr	r2, .L384+20
 5342 003a 1278     		ldrb	r2, [r2]	@ zero_extendqisi2
1005:App/Src/command.c ****             g_UsbRxBuff[usb_Rx_Cnt] = usbRxBuf;
 5343              		.loc 1 1005 51 discriminator 1 view .LVU1249
 5344 003c 32B9     		cbnz	r2, .L371
1006:App/Src/command.c ****         	usb_Rx_Cnt++;
ARM GAS  C:\Users\86158\AppData\Local\Temp\ccFxKACN.s 			page 136


 5345              		.loc 1 1006 13 is_stmt 1 view .LVU1250
1006:App/Src/command.c ****         	usb_Rx_Cnt++;
 5346              		.loc 1 1006 37 is_stmt 0 view .LVU1251
 5347 003e 2B4A     		ldr	r2, .L384+16
 5348 0040 1178     		ldrb	r1, [r2]	@ zero_extendqisi2
 5349 0042 2C4A     		ldr	r2, .L384+24
 5350 0044 D154     		strb	r1, [r2, r3]
1007:App/Src/command.c ****         }
 5351              		.loc 1 1007 10 is_stmt 1 view .LVU1252
1007:App/Src/command.c ****         }
 5352              		.loc 1 1007 20 is_stmt 0 view .LVU1253
 5353 0046 0133     		adds	r3, r3, #1
 5354 0048 274A     		ldr	r2, .L384+12
 5355 004a 1380     		strh	r3, [r2]	@ movhi
 5356              	.L371:
1009:App/Src/command.c ****             g_UsbATStatus = 1;
 5357              		.loc 1 1009 9 is_stmt 1 view .LVU1254
1009:App/Src/command.c ****             g_UsbATStatus = 1;
 5358              		.loc 1 1009 24 is_stmt 0 view .LVU1255
 5359 004c 264B     		ldr	r3, .L384+12
 5360 004e 1B88     		ldrh	r3, [r3]
1009:App/Src/command.c ****             g_UsbATStatus = 1;
 5361              		.loc 1 1009 12 view .LVU1256
 5362 0050 C72B     		cmp	r3, #199
 5363 0052 03D8     		bhi	.L372
1009:App/Src/command.c ****             g_UsbATStatus = 1;
 5364              		.loc 1 1009 64 discriminator 1 view .LVU1257
 5365 0054 254B     		ldr	r3, .L384+16
 5366 0056 1B78     		ldrb	r3, [r3]	@ zero_extendqisi2
1009:App/Src/command.c ****             g_UsbATStatus = 1;
 5367              		.loc 1 1009 52 discriminator 1 view .LVU1258
 5368 0058 202B     		cmp	r3, #32
 5369 005a 02D1     		bne	.L373
 5370              	.L372:
1010:App/Src/command.c ****         } 
 5371              		.loc 1 1010 13 is_stmt 1 view .LVU1259
1010:App/Src/command.c ****         } 
 5372              		.loc 1 1010 27 is_stmt 0 view .LVU1260
 5373 005c 244B     		ldr	r3, .L384+20
 5374 005e 0122     		movs	r2, #1
 5375 0060 1A70     		strb	r2, [r3]
 5376              	.L373:
1012:App/Src/command.c ****     }
 5377              		.loc 1 1012 9 is_stmt 1 view .LVU1261
 5378 0062 0122     		movs	r2, #1
 5379 0064 2149     		ldr	r1, .L384+16
 5380 0066 2448     		ldr	r0, .L384+28
 5381              	.LVL564:
1012:App/Src/command.c ****     }
 5382              		.loc 1 1012 9 is_stmt 0 view .LVU1262
 5383 0068 FFF7FEFF 		bl	HAL_UART_Receive_IT
 5384              	.LVL565:
 5385 006c CEE7     		b	.L367
 5386              	.LVL566:
 5387              	.L369:
1002:App/Src/command.c ****             return;
 5388              		.loc 1 1002 13 is_stmt 1 view .LVU1263
ARM GAS  C:\Users\86158\AppData\Local\Temp\ccFxKACN.s 			page 137


 5389 006e 0122     		movs	r2, #1
 5390 0070 1E49     		ldr	r1, .L384+16
 5391 0072 2148     		ldr	r0, .L384+28
 5392              	.LVL567:
1002:App/Src/command.c ****             return;
 5393              		.loc 1 1002 13 is_stmt 0 view .LVU1264
 5394 0074 FFF7FEFF 		bl	HAL_UART_Receive_IT
 5395              	.LVL568:
1003:App/Src/command.c ****         }
 5396              		.loc 1 1003 13 is_stmt 1 view .LVU1265
 5397 0078 D0E7     		b	.L366
 5398              	.L382:
1016:App/Src/command.c ****         	HAL_UART_Receive_IT(&huart2, &deviceRxBuf, 1);
 5399              		.loc 1 1016 9 view .LVU1266
1016:App/Src/command.c ****         	HAL_UART_Receive_IT(&huart2, &deviceRxBuf, 1);
 5400              		.loc 1 1016 27 is_stmt 0 view .LVU1267
 5401 007a 204B     		ldr	r3, .L384+32
 5402 007c 1B88     		ldrh	r3, [r3]
1016:App/Src/command.c ****         	HAL_UART_Receive_IT(&huart2, &deviceRxBuf, 1);
 5403              		.loc 1 1016 12 view .LVU1268
 5404 007e 3BB9     		cbnz	r3, .L375
1016:App/Src/command.c ****         	HAL_UART_Receive_IT(&huart2, &deviceRxBuf, 1);
 5405              		.loc 1 1016 48 discriminator 1 view .LVU1269
 5406 0080 1F4A     		ldr	r2, .L384+36
 5407 0082 1278     		ldrb	r2, [r2]	@ zero_extendqisi2
1016:App/Src/command.c ****         	HAL_UART_Receive_IT(&huart2, &deviceRxBuf, 1);
 5408              		.loc 1 1016 32 discriminator 1 view .LVU1270
 5409 0084 202A     		cmp	r2, #32
 5410 0086 20D0     		beq	.L376
1016:App/Src/command.c ****         	HAL_UART_Receive_IT(&huart2, &deviceRxBuf, 1);
 5411              		.loc 1 1016 55 discriminator 2 view .LVU1271
 5412 0088 0D2A     		cmp	r2, #13
 5413 008a 1ED0     		beq	.L376
1016:App/Src/command.c ****         	HAL_UART_Receive_IT(&huart2, &deviceRxBuf, 1);
 5414              		.loc 1 1016 78 discriminator 3 view .LVU1272
 5415 008c 0A2A     		cmp	r2, #10
 5416 008e 1CD0     		beq	.L376
 5417              	.L375:
1020:App/Src/command.c ****             g_DeviceRxBuff[device_Rx_Cnt] = deviceRxBuf;
 5418              		.loc 1 1020 9 is_stmt 1 view .LVU1273
1020:App/Src/command.c ****             g_DeviceRxBuff[device_Rx_Cnt] = deviceRxBuf;
 5419              		.loc 1 1020 12 is_stmt 0 view .LVU1274
 5420 0090 C72B     		cmp	r3, #199
 5421 0092 09D8     		bhi	.L377
1020:App/Src/command.c ****             g_DeviceRxBuff[device_Rx_Cnt] = deviceRxBuf;
 5422              		.loc 1 1020 74 discriminator 1 view .LVU1275
 5423 0094 1B4A     		ldr	r2, .L384+40
 5424 0096 1278     		ldrb	r2, [r2]	@ zero_extendqisi2
1020:App/Src/command.c ****             g_DeviceRxBuff[device_Rx_Cnt] = deviceRxBuf;
 5425              		.loc 1 1020 54 discriminator 1 view .LVU1276
 5426 0098 32B9     		cbnz	r2, .L377
1021:App/Src/command.c ****         	device_Rx_Cnt++;
 5427              		.loc 1 1021 13 is_stmt 1 view .LVU1277
1021:App/Src/command.c ****         	device_Rx_Cnt++;
 5428              		.loc 1 1021 43 is_stmt 0 view .LVU1278
 5429 009a 194A     		ldr	r2, .L384+36
 5430 009c 1178     		ldrb	r1, [r2]	@ zero_extendqisi2
ARM GAS  C:\Users\86158\AppData\Local\Temp\ccFxKACN.s 			page 138


 5431 009e 1A4A     		ldr	r2, .L384+44
 5432 00a0 D154     		strb	r1, [r2, r3]
1022:App/Src/command.c ****         }
 5433              		.loc 1 1022 10 is_stmt 1 view .LVU1279
1022:App/Src/command.c ****         }
 5434              		.loc 1 1022 23 is_stmt 0 view .LVU1280
 5435 00a2 0133     		adds	r3, r3, #1
 5436 00a4 154A     		ldr	r2, .L384+32
 5437 00a6 1380     		strh	r3, [r2]	@ movhi
 5438              	.L377:
1024:App/Src/command.c ****             g_DeviceATStatus = 1;
 5439              		.loc 1 1024 9 is_stmt 1 view .LVU1281
1024:App/Src/command.c ****             g_DeviceATStatus = 1;
 5440              		.loc 1 1024 27 is_stmt 0 view .LVU1282
 5441 00a8 144B     		ldr	r3, .L384+32
 5442 00aa 1B88     		ldrh	r3, [r3]
1024:App/Src/command.c ****             g_DeviceATStatus = 1;
 5443              		.loc 1 1024 12 view .LVU1283
 5444 00ac C72B     		cmp	r3, #199
 5445 00ae 03D8     		bhi	.L378
1024:App/Src/command.c ****             g_DeviceATStatus = 1;
 5446              		.loc 1 1024 70 discriminator 1 view .LVU1284
 5447 00b0 134B     		ldr	r3, .L384+36
 5448 00b2 1B78     		ldrb	r3, [r3]	@ zero_extendqisi2
1024:App/Src/command.c ****             g_DeviceATStatus = 1;
 5449              		.loc 1 1024 55 discriminator 1 view .LVU1285
 5450 00b4 202B     		cmp	r3, #32
 5451 00b6 02D1     		bne	.L379
 5452              	.L378:
1025:App/Src/command.c ****         }
 5453              		.loc 1 1025 13 is_stmt 1 view .LVU1286
1025:App/Src/command.c ****         }
 5454              		.loc 1 1025 30 is_stmt 0 view .LVU1287
 5455 00b8 124B     		ldr	r3, .L384+40
 5456 00ba 0122     		movs	r2, #1
 5457 00bc 1A70     		strb	r2, [r3]
 5458              	.L379:
1027:App/Src/command.c **** 	}
 5459              		.loc 1 1027 9 is_stmt 1 view .LVU1288
 5460 00be 0122     		movs	r2, #1
 5461 00c0 0F49     		ldr	r1, .L384+36
 5462 00c2 1248     		ldr	r0, .L384+48
 5463 00c4 FFF7FEFF 		bl	HAL_UART_Receive_IT
 5464              	.LVL569:
 5465 00c8 A4E7     		b	.L374
 5466              	.L376:
1017:App/Src/command.c ****             return;
 5467              		.loc 1 1017 10 view .LVU1289
 5468 00ca 0122     		movs	r2, #1
 5469 00cc 0C49     		ldr	r1, .L384+36
 5470 00ce 0F48     		ldr	r0, .L384+48
 5471 00d0 FFF7FEFF 		bl	HAL_UART_Receive_IT
 5472              	.LVL570:
1018:App/Src/command.c ****         }
 5473              		.loc 1 1018 13 view .LVU1290
 5474 00d4 A2E7     		b	.L366
 5475              	.L383:
ARM GAS  C:\Users\86158\AppData\Local\Temp\ccFxKACN.s 			page 139


1031:App/Src/command.c **** 	}
 5476              		.loc 1 1031 3 view .LVU1291
 5477 00d6 FFF7FEFF 		bl	control_usart_receive
 5478              	.LVL571:
 5479 00da 9FE7     		b	.L366
 5480              	.L385:
 5481              		.align	2
 5482              	.L384:
 5483 00dc 00100140 		.word	1073811456
 5484 00e0 00440040 		.word	1073759232
 5485 00e4 00480040 		.word	1073760256
 5486 00e8 00000000 		.word	.LANCHOR11
 5487 00ec 00000000 		.word	.LANCHOR5
 5488 00f0 00000000 		.word	.LANCHOR12
 5489 00f4 00000000 		.word	.LANCHOR6
 5490 00f8 00000000 		.word	huart1
 5491 00fc 00000000 		.word	.LANCHOR10
 5492 0100 00000000 		.word	.LANCHOR7
 5493 0104 00000000 		.word	.LANCHOR13
 5494 0108 00000000 		.word	.LANCHOR8
 5495 010c 00000000 		.word	huart2
 5496              		.cfi_endproc
 5497              	.LFE278:
 5499              		.section	.rodata.CheckCommandList.str1.4,"aMS",%progbits,1
 5500              		.align	2
 5501              	.LC88:
 5502 0000 0A6E6F20 		.ascii	"\012no this commmand!\012\000"
 5502      74686973 
 5502      20636F6D 
 5502      6D6D616E 
 5502      64210A00 
 5503              		.section	.text.CheckCommandList,"ax",%progbits
 5504              		.align	1
 5505              		.global	CheckCommandList
 5506              		.syntax unified
 5507              		.thumb
 5508              		.thumb_func
 5510              	CheckCommandList:
 5511              	.LFB279:
1034:App/Src/command.c **** 
1035:App/Src/command.c **** void CheckCommandList(void)
1036:App/Src/command.c **** {
 5512              		.loc 1 1036 1 view -0
 5513              		.cfi_startproc
 5514              		@ args = 0, pretend = 0, frame = 0
 5515              		@ frame_needed = 0, uses_anonymous_args = 0
 5516 0000 38B5     		push	{r3, r4, r5, lr}
 5517              	.LCFI112:
 5518              		.cfi_def_cfa_offset 16
 5519              		.cfi_offset 3, -16
 5520              		.cfi_offset 4, -12
 5521              		.cfi_offset 5, -8
 5522              		.cfi_offset 14, -4
1037:App/Src/command.c ****     uint8_t i;
 5523              		.loc 1 1037 5 view .LVU1293
1038:App/Src/command.c ****     static uint16_t usbTick = 0;
 5524              		.loc 1 1038 5 view .LVU1294
ARM GAS  C:\Users\86158\AppData\Local\Temp\ccFxKACN.s 			page 140


1039:App/Src/command.c ****     static uint16_t lastUsbRx = 0;
 5525              		.loc 1 1039 5 view .LVU1295
1040:App/Src/command.c ****     if (g_UsbATStatus == 0 && usb_Rx_Cnt == 0) {
 5526              		.loc 1 1040 5 view .LVU1296
 5527              		.loc 1 1040 23 is_stmt 0 view .LVU1297
 5528 0002 284B     		ldr	r3, .L402
 5529 0004 1B78     		ldrb	r3, [r3]	@ zero_extendqisi2
 5530              		.loc 1 1040 8 view .LVU1298
 5531 0006 13B9     		cbnz	r3, .L387
 5532              		.loc 1 1040 42 discriminator 1 view .LVU1299
 5533 0008 274A     		ldr	r2, .L402+4
 5534 000a 1288     		ldrh	r2, [r2]
 5535              		.loc 1 1040 28 discriminator 1 view .LVU1300
 5536 000c 92B1     		cbz	r2, .L400
 5537              	.L387:
1041:App/Src/command.c ****         usbTick = 0;
1042:App/Src/command.c ****         lastUsbRx = 0;
1043:App/Src/command.c ****         return;
1044:App/Src/command.c ****     }
1045:App/Src/command.c ****     if (usb_Rx_Cnt > lastUsbRx) {
 5538              		.loc 1 1045 5 is_stmt 1 view .LVU1301
 5539              		.loc 1 1045 20 is_stmt 0 view .LVU1302
 5540 000e 264A     		ldr	r2, .L402+4
 5541 0010 1288     		ldrh	r2, [r2]
 5542 0012 2649     		ldr	r1, .L402+8
 5543 0014 0988     		ldrh	r1, [r1]
 5544              		.loc 1 1045 8 view .LVU1303
 5545 0016 8A42     		cmp	r2, r1
 5546 0018 11D9     		bls	.L389
1046:App/Src/command.c ****         lastUsbRx = usb_Rx_Cnt;
 5547              		.loc 1 1046 9 is_stmt 1 view .LVU1304
 5548              		.loc 1 1046 19 is_stmt 0 view .LVU1305
 5549 001a 2449     		ldr	r1, .L402+8
 5550 001c 0A80     		strh	r2, [r1]	@ movhi
1047:App/Src/command.c ****         usbTick = 0;
 5551              		.loc 1 1047 9 is_stmt 1 view .LVU1306
 5552              		.loc 1 1047 17 is_stmt 0 view .LVU1307
 5553 001e 244A     		ldr	r2, .L402+12
 5554 0020 0021     		movs	r1, #0
 5555 0022 1180     		strh	r1, [r2]	@ movhi
 5556              	.L390:
1048:App/Src/command.c ****     } else {
1049:App/Src/command.c ****         usbTick++;
1050:App/Src/command.c ****     }
1051:App/Src/command.c ****     if (usbTick >= USB_UART_TICK_CLEAR || g_UsbATStatus == 1) {
 5557              		.loc 1 1051 5 is_stmt 1 view .LVU1308
 5558              		.loc 1 1051 17 is_stmt 0 view .LVU1309
 5559 0024 224A     		ldr	r2, .L402+12
 5560 0026 1288     		ldrh	r2, [r2]
 5561              		.loc 1 1051 8 view .LVU1310
 5562 0028 632A     		cmp	r2, #99
 5563 002a 35D8     		bhi	.L397
 5564              		.loc 1 1051 40 discriminator 1 view .LVU1311
 5565 002c 012B     		cmp	r3, #1
 5566 002e 32D1     		bne	.L386
 5567 0030 0024     		movs	r4, #0
 5568 0032 0BE0     		b	.L394
ARM GAS  C:\Users\86158\AppData\Local\Temp\ccFxKACN.s 			page 141


 5569              	.L400:
1041:App/Src/command.c ****         lastUsbRx = 0;
 5570              		.loc 1 1041 9 is_stmt 1 view .LVU1312
1041:App/Src/command.c ****         lastUsbRx = 0;
 5571              		.loc 1 1041 17 is_stmt 0 view .LVU1313
 5572 0034 1E4A     		ldr	r2, .L402+12
 5573 0036 1380     		strh	r3, [r2]	@ movhi
1042:App/Src/command.c ****         return;
 5574              		.loc 1 1042 9 is_stmt 1 view .LVU1314
1042:App/Src/command.c ****         return;
 5575              		.loc 1 1042 19 is_stmt 0 view .LVU1315
 5576 0038 1C4A     		ldr	r2, .L402+8
 5577 003a 1380     		strh	r3, [r2]	@ movhi
1043:App/Src/command.c ****     }
 5578              		.loc 1 1043 9 is_stmt 1 view .LVU1316
 5579 003c 2BE0     		b	.L386
 5580              	.L389:
1049:App/Src/command.c ****     }
 5581              		.loc 1 1049 9 view .LVU1317
1049:App/Src/command.c ****     }
 5582              		.loc 1 1049 16 is_stmt 0 view .LVU1318
 5583 003e 1C49     		ldr	r1, .L402+12
 5584 0040 0A88     		ldrh	r2, [r1]
 5585 0042 0132     		adds	r2, r2, #1
 5586 0044 0A80     		strh	r2, [r1]	@ movhi
 5587 0046 EDE7     		b	.L390
 5588              	.LVL572:
 5589              	.L392:
1052:App/Src/command.c ****         for (i = 0; i < MAX_COMMAND_NUMBER; i++) {
 5590              		.loc 1 1052 45 is_stmt 1 discriminator 2 view .LVU1319
 5591              		.loc 1 1052 46 is_stmt 0 discriminator 2 view .LVU1320
 5592 0048 0134     		adds	r4, r4, #1
 5593              	.LVL573:
 5594              		.loc 1 1052 46 discriminator 2 view .LVU1321
 5595 004a E4B2     		uxtb	r4, r4
 5596              	.LVL574:
 5597              	.L394:
 5598              		.loc 1 1052 21 is_stmt 1 discriminator 1 view .LVU1322
 5599              		.loc 1 1052 9 is_stmt 0 discriminator 1 view .LVU1323
 5600 004c 272C     		cmp	r4, #39
 5601 004e 12D8     		bhi	.L393
1053:App/Src/command.c ****             if (strlen(CommandList[i]) > 0 && strSearch((char*)g_UsbRxBuff, CommandList[i]) == 0) {
 5602              		.loc 1 1053 13 is_stmt 1 view .LVU1324
 5603              		.loc 1 1053 35 is_stmt 0 view .LVU1325
 5604 0050 184B     		ldr	r3, .L402+16
 5605 0052 04EB8402 		add	r2, r4, r4, lsl #2
 5606 0056 03EB8201 		add	r1, r3, r2, lsl #2
 5607              		.loc 1 1053 40 view .LVU1326
 5608 005a 13F82230 		ldrb	r3, [r3, r2, lsl #2]	@ zero_extendqisi2
 5609              		.loc 1 1053 16 view .LVU1327
 5610 005e 002B     		cmp	r3, #0
 5611 0060 F2D0     		beq	.L392
 5612              		.loc 1 1053 47 discriminator 1 view .LVU1328
 5613 0062 1548     		ldr	r0, .L402+20
 5614 0064 FFF7FEFF 		bl	strSearch
 5615              	.LVL575:
 5616              		.loc 1 1053 44 discriminator 1 view .LVU1329
ARM GAS  C:\Users\86158\AppData\Local\Temp\ccFxKACN.s 			page 142


 5617 0068 0028     		cmp	r0, #0
 5618 006a EDD1     		bne	.L392
1054:App/Src/command.c ****                 UsbCommand[i]((char*)g_UsbRxBuff);
 5619              		.loc 1 1054 17 is_stmt 1 view .LVU1330
 5620              		.loc 1 1054 27 is_stmt 0 view .LVU1331
 5621 006c 134B     		ldr	r3, .L402+24
 5622 006e 53F82430 		ldr	r3, [r3, r4, lsl #2]
 5623              		.loc 1 1054 17 view .LVU1332
 5624 0072 1148     		ldr	r0, .L402+20
 5625 0074 9847     		blx	r3
 5626              	.LVL576:
1055:App/Src/command.c ****                 break;
 5627              		.loc 1 1055 17 is_stmt 1 view .LVU1333
 5628              	.L393:
1056:App/Src/command.c ****             }
1057:App/Src/command.c ****         }				
1058:App/Src/command.c ****         if (i == MAX_COMMAND_NUMBER) {
 5629              		.loc 1 1058 9 view .LVU1334
 5630              		.loc 1 1058 12 is_stmt 0 view .LVU1335
 5631 0076 282C     		cmp	r4, #40
 5632 0078 10D0     		beq	.L401
 5633              	.L396:
1059:App/Src/command.c ****             UsbPrintf("\nno this commmand!\n");
1060:App/Src/command.c ****         }
1061:App/Src/command.c ****         memset(g_UsbRxBuff, 0, UART_RECEIVE_BUFF_NUMBER);
 5634              		.loc 1 1061 9 is_stmt 1 view .LVU1336
 5635 007a C822     		movs	r2, #200
 5636 007c 0021     		movs	r1, #0
 5637 007e 0E48     		ldr	r0, .L402+20
 5638 0080 FFF7FEFF 		bl	memset
 5639              	.LVL577:
1062:App/Src/command.c ****         usb_Rx_Cnt = 0;
 5640              		.loc 1 1062 9 view .LVU1337
 5641              		.loc 1 1062 20 is_stmt 0 view .LVU1338
 5642 0084 0023     		movs	r3, #0
 5643 0086 084A     		ldr	r2, .L402+4
 5644 0088 1380     		strh	r3, [r2]	@ movhi
1063:App/Src/command.c ****         g_UsbATStatus = 0;
 5645              		.loc 1 1063 9 is_stmt 1 view .LVU1339
 5646              		.loc 1 1063 23 is_stmt 0 view .LVU1340
 5647 008a 064A     		ldr	r2, .L402
 5648 008c 1370     		strb	r3, [r2]
1064:App/Src/command.c ****         usbTick = 0;
 5649              		.loc 1 1064 9 is_stmt 1 view .LVU1341
 5650              		.loc 1 1064 17 is_stmt 0 view .LVU1342
 5651 008e 084A     		ldr	r2, .L402+12
 5652 0090 1380     		strh	r3, [r2]	@ movhi
1065:App/Src/command.c ****         lastUsbRx = 0;
 5653              		.loc 1 1065 9 is_stmt 1 view .LVU1343
 5654              		.loc 1 1065 19 is_stmt 0 view .LVU1344
 5655 0092 064A     		ldr	r2, .L402+8
 5656 0094 1380     		strh	r3, [r2]	@ movhi
 5657              	.LVL578:
 5658              	.L386:
1066:App/Src/command.c ****     }
1067:App/Src/command.c **** }
 5659              		.loc 1 1067 1 view .LVU1345
ARM GAS  C:\Users\86158\AppData\Local\Temp\ccFxKACN.s 			page 143


 5660 0096 38BD     		pop	{r3, r4, r5, pc}
 5661              	.L397:
 5662 0098 0024     		movs	r4, #0
 5663 009a D7E7     		b	.L394
 5664              	.LVL579:
 5665              	.L401:
1059:App/Src/command.c ****         }
 5666              		.loc 1 1059 13 is_stmt 1 view .LVU1346
 5667 009c 0848     		ldr	r0, .L402+28
 5668 009e FFF7FEFF 		bl	UsbPrintf
 5669              	.LVL580:
 5670 00a2 EAE7     		b	.L396
 5671              	.L403:
 5672              		.align	2
 5673              	.L402:
 5674 00a4 00000000 		.word	.LANCHOR12
 5675 00a8 00000000 		.word	.LANCHOR11
 5676 00ac 00000000 		.word	.LANCHOR15
 5677 00b0 00000000 		.word	.LANCHOR14
 5678 00b4 00000000 		.word	.LANCHOR1
 5679 00b8 00000000 		.word	.LANCHOR6
 5680 00bc 00000000 		.word	.LANCHOR16
 5681 00c0 00000000 		.word	.LC88
 5682              		.cfi_endproc
 5683              	.LFE279:
 5685              		.section	.rodata.DeviceMassage.str1.4,"aMS",%progbits,1
 5686              		.align	2
 5687              	.LC89:
 5688 0000 41545E54 		.ascii	"AT^TESTMODE?\000"
 5688      4553544D 
 5688      4F44453F 
 5688      00
 5689              		.section	.text.DeviceMassage,"ax",%progbits
 5690              		.align	1
 5691              		.global	DeviceMassage
 5692              		.syntax unified
 5693              		.thumb
 5694              		.thumb_func
 5696              	DeviceMassage:
 5697              	.LFB280:
1068:App/Src/command.c **** 
1069:App/Src/command.c **** void DeviceMassage(void)
1070:App/Src/command.c **** {
 5698              		.loc 1 1070 1 view -0
 5699              		.cfi_startproc
 5700              		@ args = 0, pretend = 0, frame = 8
 5701              		@ frame_needed = 0, uses_anonymous_args = 0
 5702 0000 10B5     		push	{r4, lr}
 5703              	.LCFI113:
 5704              		.cfi_def_cfa_offset 8
 5705              		.cfi_offset 4, -8
 5706              		.cfi_offset 14, -4
 5707 0002 82B0     		sub	sp, sp, #8
 5708              	.LCFI114:
 5709              		.cfi_def_cfa_offset 16
1071:App/Src/command.c **** 	float frequency = 0;
 5710              		.loc 1 1071 2 view .LVU1348
ARM GAS  C:\Users\86158\AppData\Local\Temp\ccFxKACN.s 			page 144


 5711              		.loc 1 1071 8 is_stmt 0 view .LVU1349
 5712 0004 0023     		movs	r3, #0
 5713 0006 0193     		str	r3, [sp, #4]	@ float
1072:App/Src/command.c ****     static uint16_t deviceTick = 0;
 5714              		.loc 1 1072 5 is_stmt 1 view .LVU1350
1073:App/Src/command.c ****     static uint16_t lastDeviceRx = 0;
 5715              		.loc 1 1073 5 view .LVU1351
1074:App/Src/command.c ****     if (g_DeviceATStatus == 0 && device_Rx_Cnt == 0) {
 5716              		.loc 1 1074 5 view .LVU1352
 5717              		.loc 1 1074 26 is_stmt 0 view .LVU1353
 5718 0008 2B4B     		ldr	r3, .L420
 5719 000a 1B78     		ldrb	r3, [r3]	@ zero_extendqisi2
 5720              		.loc 1 1074 8 view .LVU1354
 5721 000c 13B9     		cbnz	r3, .L405
 5722              		.loc 1 1074 48 discriminator 1 view .LVU1355
 5723 000e 2B4A     		ldr	r2, .L420+4
 5724 0010 1288     		ldrh	r2, [r2]
 5725              		.loc 1 1074 31 discriminator 1 view .LVU1356
 5726 0012 1AB3     		cbz	r2, .L416
 5727              	.L405:
1075:App/Src/command.c ****         deviceTick = 0;
1076:App/Src/command.c ****         lastDeviceRx = 0;
1077:App/Src/command.c ****         return;
1078:App/Src/command.c ****     }
1079:App/Src/command.c ****     if (device_Rx_Cnt > lastDeviceRx) {
 5728              		.loc 1 1079 5 is_stmt 1 view .LVU1357
 5729              		.loc 1 1079 23 is_stmt 0 view .LVU1358
 5730 0014 294A     		ldr	r2, .L420+4
 5731 0016 1288     		ldrh	r2, [r2]
 5732 0018 2949     		ldr	r1, .L420+8
 5733 001a 0988     		ldrh	r1, [r1]
 5734              		.loc 1 1079 8 view .LVU1359
 5735 001c 8A42     		cmp	r2, r1
 5736 001e 22D9     		bls	.L407
1080:App/Src/command.c ****         lastDeviceRx = device_Rx_Cnt;
 5737              		.loc 1 1080 9 is_stmt 1 view .LVU1360
 5738              		.loc 1 1080 22 is_stmt 0 view .LVU1361
 5739 0020 2749     		ldr	r1, .L420+8
 5740 0022 0A80     		strh	r2, [r1]	@ movhi
1081:App/Src/command.c ****         deviceTick = 0;
 5741              		.loc 1 1081 9 is_stmt 1 view .LVU1362
 5742              		.loc 1 1081 20 is_stmt 0 view .LVU1363
 5743 0024 274A     		ldr	r2, .L420+12
 5744 0026 0021     		movs	r1, #0
 5745 0028 1180     		strh	r1, [r2]	@ movhi
 5746              	.L408:
1082:App/Src/command.c ****     } else {
1083:App/Src/command.c ****         deviceTick++;
1084:App/Src/command.c ****     }
1085:App/Src/command.c ****     if (deviceTick >= USB_UART_TICK_CLEAR || g_DeviceATStatus == 1) {
 5747              		.loc 1 1085 5 is_stmt 1 view .LVU1364
 5748              		.loc 1 1085 20 is_stmt 0 view .LVU1365
 5749 002a 264A     		ldr	r2, .L420+12
 5750 002c 1288     		ldrh	r2, [r2]
 5751              		.loc 1 1085 8 view .LVU1366
 5752 002e 632A     		cmp	r2, #99
 5753 0030 01D8     		bhi	.L409
ARM GAS  C:\Users\86158\AppData\Local\Temp\ccFxKACN.s 			page 145


 5754              		.loc 1 1085 43 discriminator 1 view .LVU1367
 5755 0032 012B     		cmp	r3, #1
 5756 0034 35D1     		bne	.L404
 5757              	.L409:
1086:App/Src/command.c **** 		if (CheckFreqValue(&frequency) > 0) {//表示是以KHz字符结尾的数据，判断为有效数据
 5758              		.loc 1 1086 3 is_stmt 1 view .LVU1368
 5759              		.loc 1 1086 7 is_stmt 0 view .LVU1369
 5760 0036 01A8     		add	r0, sp, #4
 5761 0038 FFF7FEFF 		bl	CheckFreqValue
 5762              	.LVL581:
 5763              		.loc 1 1086 6 view .LVU1370
 5764 003c C0B9     		cbnz	r0, .L417
1087:App/Src/command.c **** 			g_lastFreq.freq = frequency;
1088:App/Src/command.c **** 			g_lastFreq.recordTime = HAL_GetTick();//记录收到数据的时刻
1089:App/Src/command.c **** 		} else if (strSearch((char*)g_DeviceRxBuff, "AT^TESTMODE?") == 0) {
 5765              		.loc 1 1089 10 is_stmt 1 view .LVU1371
 5766              		.loc 1 1089 14 is_stmt 0 view .LVU1372
 5767 003e 2249     		ldr	r1, .L420+16
 5768 0040 2248     		ldr	r0, .L420+20
 5769 0042 FFF7FEFF 		bl	strSearch
 5770              	.LVL582:
 5771              		.loc 1 1089 13 view .LVU1373
 5772 0046 0028     		cmp	r0, #0
 5773 0048 2DD0     		beq	.L418
1090:App/Src/command.c **** 			AT_TESTMODE_Handle((char*)g_DeviceRxBuff);
1091:App/Src/command.c **** 		} else if (strSearch((char*)g_DeviceRxBuff, "AT^RESULT?") == 0) {
 5774              		.loc 1 1091 10 is_stmt 1 view .LVU1374
 5775              		.loc 1 1091 14 is_stmt 0 view .LVU1375
 5776 004a 2149     		ldr	r1, .L420+24
 5777 004c 1F48     		ldr	r0, .L420+20
 5778 004e FFF7FEFF 		bl	strSearch
 5779              	.LVL583:
 5780              		.loc 1 1091 13 view .LVU1376
 5781 0052 98B9     		cbnz	r0, .L412
1092:App/Src/command.c **** 			AT_RESULT_Handle((char*)g_DeviceRxBuff);
 5782              		.loc 1 1092 4 is_stmt 1 view .LVU1377
 5783 0054 1D48     		ldr	r0, .L420+20
 5784 0056 FFF7FEFF 		bl	AT_RESULT_Handle
 5785              	.LVL584:
 5786 005a 0FE0     		b	.L412
 5787              	.L416:
1075:App/Src/command.c ****         lastDeviceRx = 0;
 5788              		.loc 1 1075 9 view .LVU1378
1075:App/Src/command.c ****         lastDeviceRx = 0;
 5789              		.loc 1 1075 20 is_stmt 0 view .LVU1379
 5790 005c 194A     		ldr	r2, .L420+12
 5791 005e 1380     		strh	r3, [r2]	@ movhi
1076:App/Src/command.c ****         return;
 5792              		.loc 1 1076 9 is_stmt 1 view .LVU1380
1076:App/Src/command.c ****         return;
 5793              		.loc 1 1076 22 is_stmt 0 view .LVU1381
 5794 0060 174A     		ldr	r2, .L420+8
 5795 0062 1380     		strh	r3, [r2]	@ movhi
1077:App/Src/command.c ****     }
 5796              		.loc 1 1077 9 is_stmt 1 view .LVU1382
 5797 0064 1DE0     		b	.L404
 5798              	.L407:
ARM GAS  C:\Users\86158\AppData\Local\Temp\ccFxKACN.s 			page 146


1083:App/Src/command.c ****     }
 5799              		.loc 1 1083 9 view .LVU1383
1083:App/Src/command.c ****     }
 5800              		.loc 1 1083 19 is_stmt 0 view .LVU1384
 5801 0066 1749     		ldr	r1, .L420+12
 5802 0068 0A88     		ldrh	r2, [r1]
 5803 006a 0132     		adds	r2, r2, #1
 5804 006c 0A80     		strh	r2, [r1]	@ movhi
 5805 006e DCE7     		b	.L408
 5806              	.L417:
1087:App/Src/command.c **** 			g_lastFreq.recordTime = HAL_GetTick();//记录收到数据的时刻
 5807              		.loc 1 1087 4 is_stmt 1 view .LVU1385
1087:App/Src/command.c **** 			g_lastFreq.recordTime = HAL_GetTick();//记录收到数据的时刻
 5808              		.loc 1 1087 20 is_stmt 0 view .LVU1386
 5809 0070 184C     		ldr	r4, .L420+28
 5810 0072 019B     		ldr	r3, [sp, #4]	@ float
 5811 0074 6360     		str	r3, [r4, #4]	@ float
1088:App/Src/command.c **** 		} else if (strSearch((char*)g_DeviceRxBuff, "AT^TESTMODE?") == 0) {
 5812              		.loc 1 1088 4 is_stmt 1 view .LVU1387
1088:App/Src/command.c **** 		} else if (strSearch((char*)g_DeviceRxBuff, "AT^TESTMODE?") == 0) {
 5813              		.loc 1 1088 28 is_stmt 0 view .LVU1388
 5814 0076 FFF7FEFF 		bl	HAL_GetTick
 5815              	.LVL585:
1088:App/Src/command.c **** 		} else if (strSearch((char*)g_DeviceRxBuff, "AT^TESTMODE?") == 0) {
 5816              		.loc 1 1088 26 view .LVU1389
 5817 007a 2060     		str	r0, [r4]
 5818              	.L412:
1093:App/Src/command.c **** 		}
1094:App/Src/command.c **** 		if (strlen((char*)g_DeviceRxBuff) > 20) {
 5819              		.loc 1 1094 3 is_stmt 1 view .LVU1390
 5820              		.loc 1 1094 7 is_stmt 0 view .LVU1391
 5821 007c 1348     		ldr	r0, .L420+20
 5822 007e FFF7FEFF 		bl	strlen
 5823              	.LVL586:
 5824              		.loc 1 1094 6 view .LVU1392
 5825 0082 1428     		cmp	r0, #20
 5826 0084 13D8     		bhi	.L419
 5827              	.L414:
1095:App/Src/command.c **** 			AT_RESULT_Handle((char*)g_DeviceRxBuff);
1096:App/Src/command.c **** 		} 
1097:App/Src/command.c ****         memset(g_DeviceRxBuff, 0, UART_RECEIVE_BUFF_NUMBER);
 5828              		.loc 1 1097 9 is_stmt 1 view .LVU1393
 5829 0086 C822     		movs	r2, #200
 5830 0088 0021     		movs	r1, #0
 5831 008a 1048     		ldr	r0, .L420+20
 5832 008c FFF7FEFF 		bl	memset
 5833              	.LVL587:
1098:App/Src/command.c ****         device_Rx_Cnt = 0;
 5834              		.loc 1 1098 9 view .LVU1394
 5835              		.loc 1 1098 23 is_stmt 0 view .LVU1395
 5836 0090 0023     		movs	r3, #0
 5837 0092 0A4A     		ldr	r2, .L420+4
 5838 0094 1380     		strh	r3, [r2]	@ movhi
1099:App/Src/command.c ****         g_DeviceATStatus = 0;
 5839              		.loc 1 1099 9 is_stmt 1 view .LVU1396
 5840              		.loc 1 1099 26 is_stmt 0 view .LVU1397
 5841 0096 084A     		ldr	r2, .L420
ARM GAS  C:\Users\86158\AppData\Local\Temp\ccFxKACN.s 			page 147


 5842 0098 1370     		strb	r3, [r2]
1100:App/Src/command.c ****         deviceTick = 0;
 5843              		.loc 1 1100 9 is_stmt 1 view .LVU1398
 5844              		.loc 1 1100 20 is_stmt 0 view .LVU1399
 5845 009a 0A4A     		ldr	r2, .L420+12
 5846 009c 1380     		strh	r3, [r2]	@ movhi
1101:App/Src/command.c ****         lastDeviceRx = 0;
 5847              		.loc 1 1101 9 is_stmt 1 view .LVU1400
 5848              		.loc 1 1101 22 is_stmt 0 view .LVU1401
 5849 009e 084A     		ldr	r2, .L420+8
 5850 00a0 1380     		strh	r3, [r2]	@ movhi
 5851              	.L404:
1102:App/Src/command.c **** 	}
1103:App/Src/command.c **** }
 5852              		.loc 1 1103 1 view .LVU1402
 5853 00a2 02B0     		add	sp, sp, #8
 5854              	.LCFI115:
 5855              		.cfi_remember_state
 5856              		.cfi_def_cfa_offset 8
 5857              		@ sp needed
 5858 00a4 10BD     		pop	{r4, pc}
 5859              	.L418:
 5860              	.LCFI116:
 5861              		.cfi_restore_state
1090:App/Src/command.c **** 		} else if (strSearch((char*)g_DeviceRxBuff, "AT^RESULT?") == 0) {
 5862              		.loc 1 1090 4 is_stmt 1 view .LVU1403
 5863 00a6 0948     		ldr	r0, .L420+20
 5864 00a8 FFF7FEFF 		bl	AT_TESTMODE_Handle
 5865              	.LVL588:
 5866 00ac E6E7     		b	.L412
 5867              	.L419:
1095:App/Src/command.c **** 		} 
 5868              		.loc 1 1095 4 view .LVU1404
 5869 00ae 0748     		ldr	r0, .L420+20
 5870 00b0 FFF7FEFF 		bl	AT_RESULT_Handle
 5871              	.LVL589:
 5872 00b4 E7E7     		b	.L414
 5873              	.L421:
 5874 00b6 00BF     		.align	2
 5875              	.L420:
 5876 00b8 00000000 		.word	.LANCHOR13
 5877 00bc 00000000 		.word	.LANCHOR10
 5878 00c0 00000000 		.word	.LANCHOR18
 5879 00c4 00000000 		.word	.LANCHOR17
 5880 00c8 00000000 		.word	.LC89
 5881 00cc 00000000 		.word	.LANCHOR8
 5882 00d0 00000000 		.word	.LC42
 5883 00d4 00000000 		.word	g_lastFreq
 5884              		.cfi_endproc
 5885              	.LFE280:
 5887              		.global	UsbCommand
 5888              		.global	g_rtcChanenel
 5889              		.global	g_DeviceATStatus
 5890              		.global	g_DeviceTxBuff
 5891              		.global	g_DeviceRxBuff
 5892              		.global	g_UsbATStatus
 5893              		.global	g_UsbTxBuff
ARM GAS  C:\Users\86158\AppData\Local\Temp\ccFxKACN.s 			page 148


 5894              		.global	g_UsbRxBuff
 5895              		.section	.bss.deviceRxBuf,"aw",%nobits
 5896              		.set	.LANCHOR7,. + 0
 5899              	deviceRxBuf:
 5900 0000 00       		.space	1
 5901              		.section	.bss.deviceTick.1,"aw",%nobits
 5902              		.align	1
 5903              		.set	.LANCHOR17,. + 0
 5906              	deviceTick.1:
 5907 0000 0000     		.space	2
 5908              		.section	.bss.device_Rx_Cnt,"aw",%nobits
 5909              		.align	1
 5910              		.set	.LANCHOR10,. + 0
 5913              	device_Rx_Cnt:
 5914 0000 0000     		.space	2
 5915              		.section	.bss.g_DeviceATStatus,"aw",%nobits
 5916              		.set	.LANCHOR13,. + 0
 5919              	g_DeviceATStatus:
 5920 0000 00       		.space	1
 5921              		.section	.bss.g_DeviceRxBuff,"aw",%nobits
 5922              		.align	2
 5923              		.set	.LANCHOR8,. + 0
 5926              	g_DeviceRxBuff:
 5927 0000 00000000 		.space	200
 5927      00000000 
 5927      00000000 
 5927      00000000 
 5927      00000000 
 5928              		.section	.bss.g_DeviceTxBuff,"aw",%nobits
 5929              		.align	2
 5930              		.set	.LANCHOR4,. + 0
 5933              	g_DeviceTxBuff:
 5934 0000 00000000 		.space	300
 5934      00000000 
 5934      00000000 
 5934      00000000 
 5934      00000000 
 5935              		.section	.bss.g_UsbATStatus,"aw",%nobits
 5936              		.set	.LANCHOR12,. + 0
 5939              	g_UsbATStatus:
 5940 0000 00       		.space	1
 5941              		.section	.bss.g_UsbRxBuff,"aw",%nobits
 5942              		.align	2
 5943              		.set	.LANCHOR6,. + 0
 5946              	g_UsbRxBuff:
 5947 0000 00000000 		.space	200
 5947      00000000 
 5947      00000000 
 5947      00000000 
 5947      00000000 
 5948              		.section	.bss.g_UsbTxBuff,"aw",%nobits
 5949              		.align	2
 5950              		.set	.LANCHOR0,. + 0
 5953              	g_UsbTxBuff:
 5954 0000 00000000 		.space	300
 5954      00000000 
 5954      00000000 
ARM GAS  C:\Users\86158\AppData\Local\Temp\ccFxKACN.s 			page 149


 5954      00000000 
 5954      00000000 
 5955              		.section	.bss.lastDeviceRx.0,"aw",%nobits
 5956              		.align	1
 5957              		.set	.LANCHOR18,. + 0
 5960              	lastDeviceRx.0:
 5961 0000 0000     		.space	2
 5962              		.section	.bss.lastUsbRx.2,"aw",%nobits
 5963              		.align	1
 5964              		.set	.LANCHOR15,. + 0
 5967              	lastUsbRx.2:
 5968 0000 0000     		.space	2
 5969              		.section	.bss.number.4,"aw",%nobits
 5970              		.set	.LANCHOR3,. + 0
 5973              	number.4:
 5974 0000 00       		.space	1
 5975              		.section	.bss.usbRxBuf,"aw",%nobits
 5976              		.set	.LANCHOR5,. + 0
 5979              	usbRxBuf:
 5980 0000 00       		.space	1
 5981              		.section	.bss.usbTick.3,"aw",%nobits
 5982              		.align	1
 5983              		.set	.LANCHOR14,. + 0
 5986              	usbTick.3:
 5987 0000 0000     		.space	2
 5988              		.section	.bss.usb_Rx_Cnt,"aw",%nobits
 5989              		.align	1
 5990              		.set	.LANCHOR11,. + 0
 5993              	usb_Rx_Cnt:
 5994 0000 0000     		.space	2
 5995              		.section	.data.CommandList,"aw"
 5996              		.align	2
 5997              		.set	.LANCHOR1,. + 0
 6000              	CommandList:
 6001 0000 41545E48 		.ascii	"AT^HELP\000"
 6001      454C5000 
 6002 0008 00000000 		.space	12
 6002      00000000 
 6002      00000000 
 6003 0014 41545E56 		.ascii	"AT^VERSION?\000"
 6003      45525349 
 6003      4F4E3F00 
 6004 0020 00000000 		.space	8
 6004      00000000 
 6005 0028 41545E52 		.ascii	"AT^REALTIME?\000"
 6005      45414C54 
 6005      494D453F 
 6005      00
 6006 0035 00000000 		.space	7
 6006      000000
 6007 003c 41545E52 		.ascii	"AT^READDATA\000"
 6007      45414444 
 6007      41544100 
 6008 0048 00000000 		.space	8
 6008      00000000 
 6009 0050 41545E53 		.ascii	"AT^SETTIME\000"
 6009      45545449 
ARM GAS  C:\Users\86158\AppData\Local\Temp\ccFxKACN.s 			page 150


 6009      4D4500
 6010 005b 00000000 		.space	9
 6010      00000000 
 6010      00
 6011 0064 41545E52 		.ascii	"AT^RTCCURRENT?\000"
 6011      54434355 
 6011      5252454E 
 6011      543F00
 6012 0073 00000000 		.space	5
 6012      00
 6013 0078 41545E52 		.ascii	"AT^RTCVBAT?\000"
 6013      54435642 
 6013      41543F00 
 6014 0084 00000000 		.space	8
 6014      00000000 
 6015 008c 41545E52 		.ascii	"AT^RTC4096\000"
 6015      54433430 
 6015      393600
 6016 0097 00000000 		.space	9
 6016      00000000 
 6016      00
 6017 00a0 41545E52 		.ascii	"AT^RTCOTP\000"
 6017      54434F54 
 6017      5000
 6018 00aa 00000000 		.space	10
 6018      00000000 
 6018      0000
 6019 00b4 41545E52 		.ascii	"AT^RTCADJCAP\000"
 6019      54434144 
 6019      4A434150 
 6019      00
 6020 00c1 00000000 		.space	7
 6020      000000
 6021 00c8 41545E52 		.ascii	"AT^RTCMODE\000"
 6021      54434D4F 
 6021      444500
 6022 00d3 00000000 		.space	9
 6022      00000000 
 6022      00
 6023 00dc 41545E46 		.ascii	"AT^FREQTEST\000"
 6023      52455154 
 6023      45535400 
 6024 00e8 00000000 		.space	8
 6024      00000000 
 6025 00f0 41545E52 		.ascii	"AT^READGROUP\000"
 6025      45414447 
 6025      524F5550 
 6025      00
 6026 00fd 00000000 		.space	7
 6026      000000
 6027 0104 41545E53 		.ascii	"AT^SYSTEMP?\000"
 6027      59535445 
 6027      4D503F00 
 6028 0110 00000000 		.space	8
 6028      00000000 
 6029 0118 41545E57 		.ascii	"AT^WRITEFLASH\000"
 6029      52495445 
ARM GAS  C:\Users\86158\AppData\Local\Temp\ccFxKACN.s 			page 151


 6029      464C4153 
 6029      4800
 6030 0126 00000000 		.space	6
 6030      0000
 6031 012c 41545E52 		.ascii	"AT^READFLASH\000"
 6031      45414446 
 6031      4C415348 
 6031      00
 6032 0139 00000000 		.space	7
 6032      000000
 6033 0140 41545E45 		.ascii	"AT^ERASEFLASH\000"
 6033      52415345 
 6033      464C4153 
 6033      4800
 6034 014e 00000000 		.space	6
 6034      0000
 6035 0154 41545E53 		.ascii	"AT^SETCURRENT\000"
 6035      45544355 
 6035      5252454E 
 6035      5400
 6036 0162 00000000 		.space	6
 6036      0000
 6037 0168 41545E53 		.ascii	"AT^SYSVOLTAGE\000"
 6037      5953564F 
 6037      4C544147 
 6037      4500
 6038 0176 00000000 		.space	6
 6038      0000
 6039 017c 41545E53 		.ascii	"AT^SYSTEST\000"
 6039      59535445 
 6039      535400
 6040 0187 00000000 		.space	9
 6040      00000000 
 6040      00
 6041 0190 41545E54 		.ascii	"AT^TESTMODE?\000"
 6041      4553544D 
 6041      4F44453F 
 6041      00
 6042 019d 00000000 		.space	7
 6042      000000
 6043 01a4 41545E52 		.ascii	"AT^RESULT?\000"
 6043      4553554C 
 6043      543F00
 6044 01af 00000000 		.space	9
 6044      00000000 
 6044      00
 6045 01b8 41545E57 		.ascii	"AT^WRITECONFIG\000"
 6045      52495445 
 6045      434F4E46 
 6045      494700
 6046 01c7 00000000 		.space	5
 6046      00
 6047 01cc 41545E54 		.ascii	"AT^TESTFLAG\000"
 6047      45535446 
 6047      4C414700 
 6048 01d8 00000000 		.space	8
 6048      00000000 
ARM GAS  C:\Users\86158\AppData\Local\Temp\ccFxKACN.s 			page 152


 6049 01e0 41545E54 		.ascii	"AT^TESTDATA\000"
 6049      45535444 
 6049      41544100 
 6050 01ec 00000000 		.space	8
 6050      00000000 
 6051 01f4 41545E41 		.ascii	"AT^ATTEST\000"
 6051      54544553 
 6051      5400
 6052 01fe 00000000 		.space	10
 6052      00000000 
 6052      0000
 6053 0208 41545E4D 		.ascii	"AT^MACHINE\000"
 6053      41434849 
 6053      4E4500
 6054 0213 00000000 		.space	9
 6054      00000000 
 6054      00
 6055 021c 41545E31 		.ascii	"AT^1006TMODE\000"
 6055      30303654 
 6055      4D4F4445 
 6055      00
 6056 0229 00000000 		.space	7
 6056      000000
 6057 0230 41545E53 		.ascii	"AT^SD8840INT\000"
 6057      44383834 
 6057      30494E54 
 6057      00
 6058 023d 00000000 		.space	7
 6058      000000
 6059 0244 41545E52 		.ascii	"AT^RTCLOAD\000"
 6059      54434C4F 
 6059      414400
 6060 024f 00000000 		.space	9
 6060      00000000 
 6060      00
 6061 0258 41545E48 		.ascii	"AT^HOTVOLTAGE\000"
 6061      4F54564F 
 6061      4C544147 
 6061      4500
 6062 0266 00000000 		.space	6
 6062      0000
 6063 026c 41545E54 		.ascii	"AT^TEMPADC\000"
 6063      454D5041 
 6063      444300
 6064 0277 00000000 		.space	9
 6064      00000000 
 6064      00
 6065 0280 41545E41 		.ascii	"AT^AECQ100\000"
 6065      45435131 
 6065      303000
 6066 028b 00000000 		.space	9
 6066      00000000 
 6066      00
 6067 0294 00000000 		.space	140
 6067      00000000 
 6067      00000000 
 6067      00000000 
ARM GAS  C:\Users\86158\AppData\Local\Temp\ccFxKACN.s 			page 153


 6067      00000000 
 6068              		.section	.data.UsbCommand,"aw"
 6069              		.align	2
 6070              		.set	.LANCHOR16,. + 0
 6073              	UsbCommand:
 6074 0000 00000000 		.word	AT_HELP_Handle
 6075 0004 00000000 		.word	AT_VERSION_Handle
 6076 0008 00000000 		.word	AT_REALTIME_Handle
 6077 000c 00000000 		.word	AT_READDATA_Handle
 6078 0010 00000000 		.word	AT_SETTIME_Handle
 6079 0014 00000000 		.word	AT_RTCCURRENT_Handle
 6080 0018 00000000 		.word	AT_RTCVBAT_Handle
 6081 001c 00000000 		.word	AT_RTC4096_Handle
 6082 0020 00000000 		.word	AT_RTCOTP_Handle
 6083 0024 00000000 		.word	AT_RTCADJCAP_Handle
 6084 0028 00000000 		.word	AT_RTCMODE_Handle
 6085 002c 00000000 		.word	AT_FREQTEST_Handle
 6086 0030 00000000 		.word	AT_READGROUP_Handle
 6087 0034 00000000 		.word	AT_SYSTEMP_Handle
 6088 0038 00000000 		.word	AT_WRITEFLASH_Handle
 6089 003c 00000000 		.word	AT_READFLASH_Handle
 6090 0040 00000000 		.word	AT_ERASEFLASH_Handle
 6091 0044 00000000 		.word	AT_SETCURRENT_Handle
 6092 0048 00000000 		.word	AT_SYSVOLTAGE_Handle
 6093 004c 00000000 		.word	AT_SYSTEST_Handle
 6094 0050 00000000 		.word	AT_TESTMODE_Handle
 6095 0054 00000000 		.word	AT_RESULT_Handle
 6096 0058 00000000 		.word	AT_WRITECONFIG_Handle
 6097 005c 00000000 		.word	AT_TESTFLAG_Handle
 6098 0060 00000000 		.word	AT_TESTDATA_Handle
 6099 0064 00000000 		.word	AT_ATTEST_Handle
 6100 0068 00000000 		.word	AT_MACHINE_Handle
 6101 006c 00000000 		.word	AT_1006TMODE_Handle
 6102 0070 00000000 		.word	AT_SD8840INT_Handle
 6103 0074 00000000 		.word	AT_RTCLOAD_Handle
 6104 0078 00000000 		.word	AT_HOTVOLTAGE_Handle
 6105 007c 00000000 		.word	AT_TEMPADC_Handle
 6106 0080 00000000 		.word	AT_AECQ100_Handle
 6107 0084 00000000 		.space	28
 6107      00000000 
 6107      00000000 
 6107      00000000 
 6107      00000000 
 6108              		.section	.data.g_rtcChanenel,"aw"
 6109              		.set	.LANCHOR9,. + 0
 6112              	g_rtcChanenel:
 6113 0000 01       		.byte	1
 6114              		.section	.data.state.5,"aw"
 6115              		.set	.LANCHOR2,. + 0
 6118              	state.5:
 6119 0000 01       		.byte	1
 6120              		.text
 6121              	.Letext0:
 6122              		.file 2 "e:\\stm32-gcc\\gcc-arm-none-eabi-10.3-2021.10\\arm-none-eabi\\include\\machine\\_default_
 6123              		.file 3 "e:\\stm32-gcc\\gcc-arm-none-eabi-10.3-2021.10\\arm-none-eabi\\include\\sys\\_stdint.h"
 6124              		.file 4 "Drivers/CMSIS/Device/ST/STM32F4xx/Include/stm32f407xx.h"
 6125              		.file 5 "Drivers/STM32F4xx_HAL_Driver/Inc/stm32f4xx_hal_def.h"
ARM GAS  C:\Users\86158\AppData\Local\Temp\ccFxKACN.s 			page 154


 6126              		.file 6 "Drivers/STM32F4xx_HAL_Driver/Inc/stm32f4xx_hal_gpio.h"
 6127              		.file 7 "Drivers/STM32F4xx_HAL_Driver/Inc/stm32f4xx_hal_dma.h"
 6128              		.file 8 "Drivers/STM32F4xx_HAL_Driver/Inc/stm32f4xx_hal_uart.h"
 6129              		.file 9 "Core/Inc/main.h"
 6130              		.file 10 "e:\\stm32-gcc\\gcc-arm-none-eabi-10.3-2021.10\\lib\\gcc\\arm-none-eabi\\10.3.1\\include\
 6131              		.file 11 "e:\\stm32-gcc\\gcc-arm-none-eabi-10.3-2021.10\\arm-none-eabi\\include\\stdio.h"
 6132              		.file 12 "Drivers/User_Driver/Inc/soft_i2c.h"
 6133              		.file 13 "Drivers/User_Driver/Inc/rtc_i2c.h"
 6134              		.file 14 "App/Inc/task.h"
 6135              		.file 15 "Device/Inc/flash.h"
 6136              		.file 16 "App/Inc/manager.h"
 6137              		.file 17 "Device/Inc/power.h"
 6138              		.file 18 "Device/Inc/drv_wave1006.h"
 6139              		.file 19 "Drivers/STM32F4xx_HAL_Driver/Inc/stm32f4xx_hal.h"
 6140              		.file 20 "e:\\stm32-gcc\\gcc-arm-none-eabi-10.3-2021.10\\arm-none-eabi\\include\\string.h"
 6141              		.file 21 "App/Inc/command.h"
 6142              		.file 22 "Device/Inc/rtc.h"
 6143              		.file 23 "App/Inc/calculate.h"
 6144              		.file 24 "<built-in>"
 6145              		.file 25 "Device/Inc/voltage.h"
 6146              		.file 26 "App/Inc/log.h"
 6147              		.file 27 "Device/Inc/temp.h"
 6148              		.file 28 "Device/Inc/current.h"
ARM GAS  C:\Users\86158\AppData\Local\Temp\ccFxKACN.s 			page 155


DEFINED SYMBOLS
                            *ABS*:00000000 command.c
C:\Users\86158\AppData\Local\Temp\ccFxKACN.s:20     .text.AT_WRITECONFIG_Handle:00000000 $t
C:\Users\86158\AppData\Local\Temp\ccFxKACN.s:26     .text.AT_WRITECONFIG_Handle:00000000 AT_WRITECONFIG_Handle
C:\Users\86158\AppData\Local\Temp\ccFxKACN.s:41     .text.AT_RTCADJCAP_Handle:00000000 $t
C:\Users\86158\AppData\Local\Temp\ccFxKACN.s:47     .text.AT_RTCADJCAP_Handle:00000000 AT_RTCADJCAP_Handle
C:\Users\86158\AppData\Local\Temp\ccFxKACN.s:72     .text.UsbPrintf:00000000 $t
C:\Users\86158\AppData\Local\Temp\ccFxKACN.s:78     .text.UsbPrintf:00000000 UsbPrintf
C:\Users\86158\AppData\Local\Temp\ccFxKACN.s:161    .text.UsbPrintf:00000048 $d
C:\Users\86158\AppData\Local\Temp\ccFxKACN.s:167    .rodata.AT_HELP_Handle.str1.4:00000000 $d
C:\Users\86158\AppData\Local\Temp\ccFxKACN.s:174    .text.AT_HELP_Handle:00000000 $t
C:\Users\86158\AppData\Local\Temp\ccFxKACN.s:180    .text.AT_HELP_Handle:00000000 AT_HELP_Handle
C:\Users\86158\AppData\Local\Temp\ccFxKACN.s:251    .text.AT_HELP_Handle:00000034 $d
C:\Users\86158\AppData\Local\Temp\ccFxKACN.s:258    .rodata.AT_VERSION_Handle.str1.4:00000000 $d
C:\Users\86158\AppData\Local\Temp\ccFxKACN.s:277    .text.AT_VERSION_Handle:00000000 $t
C:\Users\86158\AppData\Local\Temp\ccFxKACN.s:283    .text.AT_VERSION_Handle:00000000 AT_VERSION_Handle
C:\Users\86158\AppData\Local\Temp\ccFxKACN.s:321    .text.AT_VERSION_Handle:00000020 $d
C:\Users\86158\AppData\Local\Temp\ccFxKACN.s:331    .rodata.AT_REALTIME_Handle.str1.4:00000000 $d
C:\Users\86158\AppData\Local\Temp\ccFxKACN.s:335    .text.AT_REALTIME_Handle:00000000 $t
C:\Users\86158\AppData\Local\Temp\ccFxKACN.s:341    .text.AT_REALTIME_Handle:00000000 AT_REALTIME_Handle
C:\Users\86158\AppData\Local\Temp\ccFxKACN.s:393    .text.AT_REALTIME_Handle:0000003c $d
C:\Users\86158\AppData\Local\Temp\ccFxKACN.s:399    .rodata.AT_RTCCURRENT_Handle.str1.4:00000000 $d
C:\Users\86158\AppData\Local\Temp\ccFxKACN.s:403    .text.AT_RTCCURRENT_Handle:00000000 $t
C:\Users\86158\AppData\Local\Temp\ccFxKACN.s:409    .text.AT_RTCCURRENT_Handle:00000000 AT_RTCCURRENT_Handle
C:\Users\86158\AppData\Local\Temp\ccFxKACN.s:445    .text.AT_RTCCURRENT_Handle:0000001c $d
C:\Users\86158\AppData\Local\Temp\ccFxKACN.s:450    .rodata.AT_RTCVBAT_Handle.str1.4:00000000 $d
C:\Users\86158\AppData\Local\Temp\ccFxKACN.s:457    .text.AT_RTCVBAT_Handle:00000000 $t
C:\Users\86158\AppData\Local\Temp\ccFxKACN.s:463    .text.AT_RTCVBAT_Handle:00000000 AT_RTCVBAT_Handle
C:\Users\86158\AppData\Local\Temp\ccFxKACN.s:513    .text.AT_RTCVBAT_Handle:00000024 $d
C:\Users\86158\AppData\Local\Temp\ccFxKACN.s:519    .rodata.AT_RTCMODE_Handle.str1.4:00000000 $d
C:\Users\86158\AppData\Local\Temp\ccFxKACN.s:529    .text.AT_RTCMODE_Handle:00000000 $t
C:\Users\86158\AppData\Local\Temp\ccFxKACN.s:535    .text.AT_RTCMODE_Handle:00000000 AT_RTCMODE_Handle
C:\Users\86158\AppData\Local\Temp\ccFxKACN.s:597    .text.AT_RTCMODE_Handle:00000040 $d
C:\Users\86158\AppData\Local\Temp\ccFxKACN.s:606    .rodata.AT_SYSTEMP_Handle.str1.4:00000000 $d
C:\Users\86158\AppData\Local\Temp\ccFxKACN.s:610    .text.AT_SYSTEMP_Handle:00000000 $t
C:\Users\86158\AppData\Local\Temp\ccFxKACN.s:616    .text.AT_SYSTEMP_Handle:00000000 AT_SYSTEMP_Handle
C:\Users\86158\AppData\Local\Temp\ccFxKACN.s:657    .text.AT_SYSTEMP_Handle:00000024 $d
C:\Users\86158\AppData\Local\Temp\ccFxKACN.s:663    .rodata.AT_WRITEFLASH_Handle.str1.4:00000000 $d
C:\Users\86158\AppData\Local\Temp\ccFxKACN.s:670    .text.AT_WRITEFLASH_Handle:00000000 $t
C:\Users\86158\AppData\Local\Temp\ccFxKACN.s:676    .text.AT_WRITEFLASH_Handle:00000000 AT_WRITEFLASH_Handle
C:\Users\86158\AppData\Local\Temp\ccFxKACN.s:712    .text.AT_WRITEFLASH_Handle:0000001c $d
C:\Users\86158\AppData\Local\Temp\ccFxKACN.s:722    .rodata.AT_SYSVOLTAGE_Handle.str1.4:00000000 $d
C:\Users\86158\AppData\Local\Temp\ccFxKACN.s:735    .text.AT_SYSVOLTAGE_Handle:00000000 $t
C:\Users\86158\AppData\Local\Temp\ccFxKACN.s:741    .text.AT_SYSVOLTAGE_Handle:00000000 AT_SYSVOLTAGE_Handle
C:\Users\86158\AppData\Local\Temp\ccFxKACN.s:884    .text.AT_SYSVOLTAGE_Handle:000000c0 $d
C:\Users\86158\AppData\Local\Temp\ccFxKACN.s:896    .rodata.AT_TESTFLAG_Handle.str1.4:00000000 $d
C:\Users\86158\AppData\Local\Temp\ccFxKACN.s:913    .text.AT_TESTFLAG_Handle:00000000 $t
C:\Users\86158\AppData\Local\Temp\ccFxKACN.s:919    .text.AT_TESTFLAG_Handle:00000000 AT_TESTFLAG_Handle
C:\Users\86158\AppData\Local\Temp\ccFxKACN.s:1095   .text.AT_TESTFLAG_Handle:000000b0 $d
C:\Users\86158\AppData\Local\Temp\ccFxKACN.s:1105   .rodata.AT_TEMPADC_Handle.str1.4:00000000 $d
C:\Users\86158\AppData\Local\Temp\ccFxKACN.s:1109   .text.AT_TEMPADC_Handle:00000000 $t
C:\Users\86158\AppData\Local\Temp\ccFxKACN.s:1115   .text.AT_TEMPADC_Handle:00000000 AT_TEMPADC_Handle
C:\Users\86158\AppData\Local\Temp\ccFxKACN.s:1162   .text.AT_TEMPADC_Handle:0000002c $d
C:\Users\86158\AppData\Local\Temp\ccFxKACN.s:1168   .text.DevicePrintf:00000000 $t
C:\Users\86158\AppData\Local\Temp\ccFxKACN.s:1174   .text.DevicePrintf:00000000 DevicePrintf
C:\Users\86158\AppData\Local\Temp\ccFxKACN.s:1257   .text.DevicePrintf:00000048 $d
C:\Users\86158\AppData\Local\Temp\ccFxKACN.s:1263   .rodata.AT_TESTMODE_Handle.str1.4:00000000 $d
ARM GAS  C:\Users\86158\AppData\Local\Temp\ccFxKACN.s 			page 156


C:\Users\86158\AppData\Local\Temp\ccFxKACN.s:1267   .text.AT_TESTMODE_Handle:00000000 $t
C:\Users\86158\AppData\Local\Temp\ccFxKACN.s:1273   .text.AT_TESTMODE_Handle:00000000 AT_TESTMODE_Handle
C:\Users\86158\AppData\Local\Temp\ccFxKACN.s:1302   .text.AT_TESTMODE_Handle:00000014 $d
C:\Users\86158\AppData\Local\Temp\ccFxKACN.s:1307   .rodata.UsartInit.str1.4:00000000 $d
C:\Users\86158\AppData\Local\Temp\ccFxKACN.s:1332   .text.UsartInit:00000000 $t
C:\Users\86158\AppData\Local\Temp\ccFxKACN.s:1338   .text.UsartInit:00000000 UsartInit
C:\Users\86158\AppData\Local\Temp\ccFxKACN.s:1476   .text.UsartInit:000000c0 $d
C:\Users\86158\AppData\Local\Temp\ccFxKACN.s:1499   .text.strSearch:00000000 $t
C:\Users\86158\AppData\Local\Temp\ccFxKACN.s:1505   .text.strSearch:00000000 strSearch
C:\Users\86158\AppData\Local\Temp\ccFxKACN.s:1607   .rodata.AT_FREQTEST_Handle.str1.4:00000000 $d
C:\Users\86158\AppData\Local\Temp\ccFxKACN.s:1620   .text.AT_FREQTEST_Handle:00000000 $t
C:\Users\86158\AppData\Local\Temp\ccFxKACN.s:1626   .text.AT_FREQTEST_Handle:00000000 AT_FREQTEST_Handle
C:\Users\86158\AppData\Local\Temp\ccFxKACN.s:1703   .text.AT_FREQTEST_Handle:00000040 $d
C:\Users\86158\AppData\Local\Temp\ccFxKACN.s:1713   .rodata.AT_RESULT_Handle.str1.4:00000000 $d
C:\Users\86158\AppData\Local\Temp\ccFxKACN.s:1748   .text.AT_RESULT_Handle:00000000 $t
C:\Users\86158\AppData\Local\Temp\ccFxKACN.s:1754   .text.AT_RESULT_Handle:00000000 AT_RESULT_Handle
C:\Users\86158\AppData\Local\Temp\ccFxKACN.s:2133   .text.AT_RESULT_Handle:00000188 $d
C:\Users\86158\AppData\Local\Temp\ccFxKACN.s:2150   .text.CharToInt:00000000 $t
C:\Users\86158\AppData\Local\Temp\ccFxKACN.s:2156   .text.CharToInt:00000000 CharToInt
C:\Users\86158\AppData\Local\Temp\ccFxKACN.s:2415   .rodata.AT_READDATA_Handle.str1.4:00000000 $d
C:\Users\86158\AppData\Local\Temp\ccFxKACN.s:2425   .text.AT_READDATA_Handle:00000000 $t
C:\Users\86158\AppData\Local\Temp\ccFxKACN.s:2431   .text.AT_READDATA_Handle:00000000 AT_READDATA_Handle
C:\Users\86158\AppData\Local\Temp\ccFxKACN.s:2530   .text.AT_READDATA_Handle:00000064 $d
C:\Users\86158\AppData\Local\Temp\ccFxKACN.s:2537   .rodata.AT_SETTIME_Handle.str1.4:00000000 $d
C:\Users\86158\AppData\Local\Temp\ccFxKACN.s:2559   .text.AT_SETTIME_Handle:00000000 $t
C:\Users\86158\AppData\Local\Temp\ccFxKACN.s:2565   .text.AT_SETTIME_Handle:00000000 AT_SETTIME_Handle
C:\Users\86158\AppData\Local\Temp\ccFxKACN.s:2867   .text.AT_SETTIME_Handle:00000174 $d
C:\Users\86158\AppData\Local\Temp\ccFxKACN.s:2879   .rodata.AT_RTC4096_Handle.str1.4:00000000 $d
C:\Users\86158\AppData\Local\Temp\ccFxKACN.s:2883   .text.AT_RTC4096_Handle:00000000 $t
C:\Users\86158\AppData\Local\Temp\ccFxKACN.s:2889   .text.AT_RTC4096_Handle:00000000 AT_RTC4096_Handle
C:\Users\86158\AppData\Local\Temp\ccFxKACN.s:2969   .text.AT_RTC4096_Handle:0000003c $d
C:\Users\86158\AppData\Local\Temp\ccFxKACN.s:2976   .rodata.AT_RTCOTP_Handle.str1.4:00000000 $d
C:\Users\86158\AppData\Local\Temp\ccFxKACN.s:2980   .text.AT_RTCOTP_Handle:00000000 $t
C:\Users\86158\AppData\Local\Temp\ccFxKACN.s:2986   .text.AT_RTCOTP_Handle:00000000 AT_RTCOTP_Handle
C:\Users\86158\AppData\Local\Temp\ccFxKACN.s:3057   .text.AT_RTCOTP_Handle:00000044 $d
C:\Users\86158\AppData\Local\Temp\ccFxKACN.s:3064   .rodata.AT_READGROUP_Handle.str1.4:00000000 $d
C:\Users\86158\AppData\Local\Temp\ccFxKACN.s:3071   .text.AT_READGROUP_Handle:00000000 $t
C:\Users\86158\AppData\Local\Temp\ccFxKACN.s:3077   .text.AT_READGROUP_Handle:00000000 AT_READGROUP_Handle
C:\Users\86158\AppData\Local\Temp\ccFxKACN.s:3223   .text.AT_READGROUP_Handle:0000009c $d
C:\Users\86158\AppData\Local\Temp\ccFxKACN.s:3233   .rodata.AT_READFLASH_Handle.str1.4:00000000 $d
C:\Users\86158\AppData\Local\Temp\ccFxKACN.s:3246   .text.AT_READFLASH_Handle:00000000 $t
C:\Users\86158\AppData\Local\Temp\ccFxKACN.s:3252   .text.AT_READFLASH_Handle:00000000 AT_READFLASH_Handle
C:\Users\86158\AppData\Local\Temp\ccFxKACN.s:3391   .text.AT_READFLASH_Handle:0000008c $d
C:\Users\86158\AppData\Local\Temp\ccFxKACN.s:3401   .rodata.AT_ERASEFLASH_Handle.str1.4:00000000 $d
C:\Users\86158\AppData\Local\Temp\ccFxKACN.s:3411   .text.AT_ERASEFLASH_Handle:00000000 $t
C:\Users\86158\AppData\Local\Temp\ccFxKACN.s:3417   .text.AT_ERASEFLASH_Handle:00000000 AT_ERASEFLASH_Handle
C:\Users\86158\AppData\Local\Temp\ccFxKACN.s:3538   .text.AT_ERASEFLASH_Handle:00000074 $d
C:\Users\86158\AppData\Local\Temp\ccFxKACN.s:3547   .rodata.AT_SETCURRENT_Handle.str1.4:00000000 $d
C:\Users\86158\AppData\Local\Temp\ccFxKACN.s:3551   .text.AT_SETCURRENT_Handle:00000000 $t
C:\Users\86158\AppData\Local\Temp\ccFxKACN.s:3557   .text.AT_SETCURRENT_Handle:00000000 AT_SETCURRENT_Handle
C:\Users\86158\AppData\Local\Temp\ccFxKACN.s:3666   .text.AT_SETCURRENT_Handle:00000078 $d
C:\Users\86158\AppData\Local\Temp\ccFxKACN.s:3673   .rodata.AT_SYSTEST_Handle.str1.4:00000000 $d
C:\Users\86158\AppData\Local\Temp\ccFxKACN.s:3677   .text.AT_SYSTEST_Handle:00000000 $t
C:\Users\86158\AppData\Local\Temp\ccFxKACN.s:3683   .text.AT_SYSTEST_Handle:00000000 AT_SYSTEST_Handle
C:\Users\86158\AppData\Local\Temp\ccFxKACN.s:3743   .text.AT_SYSTEST_Handle:00000030 $d
C:\Users\86158\AppData\Local\Temp\ccFxKACN.s:3749   .rodata.AT_TESTDATA_Handle.str1.4:00000000 $d
C:\Users\86158\AppData\Local\Temp\ccFxKACN.s:3759   .text.AT_TESTDATA_Handle:00000000 $t
ARM GAS  C:\Users\86158\AppData\Local\Temp\ccFxKACN.s 			page 157


C:\Users\86158\AppData\Local\Temp\ccFxKACN.s:3765   .text.AT_TESTDATA_Handle:00000000 AT_TESTDATA_Handle
C:\Users\86158\AppData\Local\Temp\ccFxKACN.s:3959   .text.AT_TESTDATA_Handle:000000cc $d
C:\Users\86158\AppData\Local\Temp\ccFxKACN.s:3966   .rodata.AT_ATTEST_Handle.str1.4:00000000 $d
C:\Users\86158\AppData\Local\Temp\ccFxKACN.s:3970   .text.AT_ATTEST_Handle:00000000 $t
C:\Users\86158\AppData\Local\Temp\ccFxKACN.s:3976   .text.AT_ATTEST_Handle:00000000 AT_ATTEST_Handle
C:\Users\86158\AppData\Local\Temp\ccFxKACN.s:4107   .text.AT_ATTEST_Handle:00000094 $d
C:\Users\86158\AppData\Local\Temp\ccFxKACN.s:4114   .rodata.AT_MACHINE_Handle.str1.4:00000000 $d
C:\Users\86158\AppData\Local\Temp\ccFxKACN.s:4121   .text.AT_MACHINE_Handle:00000000 $t
C:\Users\86158\AppData\Local\Temp\ccFxKACN.s:4127   .text.AT_MACHINE_Handle:00000000 AT_MACHINE_Handle
C:\Users\86158\AppData\Local\Temp\ccFxKACN.s:4217   .text.AT_MACHINE_Handle:00000060 $d
C:\Users\86158\AppData\Local\Temp\ccFxKACN.s:4226   .rodata.AT_1006TMODE_Handle.str1.4:00000000 $d
C:\Users\86158\AppData\Local\Temp\ccFxKACN.s:4233   .text.AT_1006TMODE_Handle:00000000 $t
C:\Users\86158\AppData\Local\Temp\ccFxKACN.s:4239   .text.AT_1006TMODE_Handle:00000000 AT_1006TMODE_Handle
C:\Users\86158\AppData\Local\Temp\ccFxKACN.s:4430   .text.AT_1006TMODE_Handle:0000010c $d
C:\Users\86158\AppData\Local\Temp\ccFxKACN.s:4438   .rodata.AT_SD8840INT_Handle.str1.4:00000000 $d
C:\Users\86158\AppData\Local\Temp\ccFxKACN.s:4445   .text.AT_SD8840INT_Handle:00000000 $t
C:\Users\86158\AppData\Local\Temp\ccFxKACN.s:4451   .text.AT_SD8840INT_Handle:00000000 AT_SD8840INT_Handle
C:\Users\86158\AppData\Local\Temp\ccFxKACN.s:4548   .text.AT_SD8840INT_Handle:0000006c $d
C:\Users\86158\AppData\Local\Temp\ccFxKACN.s:4557   .rodata.AT_RTCLOAD_Handle.str1.4:00000000 $d
C:\Users\86158\AppData\Local\Temp\ccFxKACN.s:4567   .text.AT_RTCLOAD_Handle:00000000 $t
C:\Users\86158\AppData\Local\Temp\ccFxKACN.s:4573   .text.AT_RTCLOAD_Handle:00000000 AT_RTCLOAD_Handle
C:\Users\86158\AppData\Local\Temp\ccFxKACN.s:4712   .text.AT_RTCLOAD_Handle:00000094 $d
C:\Users\86158\AppData\Local\Temp\ccFxKACN.s:4721   .text.AT_AECQ100_Handle:00000000 $t
C:\Users\86158\AppData\Local\Temp\ccFxKACN.s:4727   .text.AT_AECQ100_Handle:00000000 AT_AECQ100_Handle
C:\Users\86158\AppData\Local\Temp\ccFxKACN.s:4790   .text.AT_AECQ100_Handle:00000038 $d
C:\Users\86158\AppData\Local\Temp\ccFxKACN.s:4799   .text.CharToFloat:00000000 $t
C:\Users\86158\AppData\Local\Temp\ccFxKACN.s:4805   .text.CharToFloat:00000000 CharToFloat
C:\Users\86158\AppData\Local\Temp\ccFxKACN.s:5041   .text.CharToFloat:000000f8 $d
C:\Users\86158\AppData\Local\Temp\ccFxKACN.s:5050   .text.AT_HOTVOLTAGE_Handle:00000000 $t
C:\Users\86158\AppData\Local\Temp\ccFxKACN.s:5056   .text.AT_HOTVOLTAGE_Handle:00000000 AT_HOTVOLTAGE_Handle
C:\Users\86158\AppData\Local\Temp\ccFxKACN.s:5105   .text.AT_HOTVOLTAGE_Handle:0000002c $d
C:\Users\86158\AppData\Local\Temp\ccFxKACN.s:5111   .rodata.CheckFreqValue.str1.4:00000000 $d
C:\Users\86158\AppData\Local\Temp\ccFxKACN.s:5118   .text.CheckFreqValue:00000000 $t
C:\Users\86158\AppData\Local\Temp\ccFxKACN.s:5124   .text.CheckFreqValue:00000000 CheckFreqValue
C:\Users\86158\AppData\Local\Temp\ccFxKACN.s:5259   .text.CheckFreqValue:00000080 $d
C:\Users\86158\AppData\Local\Temp\ccFxKACN.s:5268   .text.HAL_UART_RxCpltCallback:00000000 $t
C:\Users\86158\AppData\Local\Temp\ccFxKACN.s:5274   .text.HAL_UART_RxCpltCallback:00000000 HAL_UART_RxCpltCallback
C:\Users\86158\AppData\Local\Temp\ccFxKACN.s:5483   .text.HAL_UART_RxCpltCallback:000000dc $d
C:\Users\86158\AppData\Local\Temp\ccFxKACN.s:5500   .rodata.CheckCommandList.str1.4:00000000 $d
C:\Users\86158\AppData\Local\Temp\ccFxKACN.s:5504   .text.CheckCommandList:00000000 $t
C:\Users\86158\AppData\Local\Temp\ccFxKACN.s:5510   .text.CheckCommandList:00000000 CheckCommandList
C:\Users\86158\AppData\Local\Temp\ccFxKACN.s:5674   .text.CheckCommandList:000000a4 $d
C:\Users\86158\AppData\Local\Temp\ccFxKACN.s:5686   .rodata.DeviceMassage.str1.4:00000000 $d
C:\Users\86158\AppData\Local\Temp\ccFxKACN.s:5690   .text.DeviceMassage:00000000 $t
C:\Users\86158\AppData\Local\Temp\ccFxKACN.s:5696   .text.DeviceMassage:00000000 DeviceMassage
C:\Users\86158\AppData\Local\Temp\ccFxKACN.s:5876   .text.DeviceMassage:000000b8 $d
C:\Users\86158\AppData\Local\Temp\ccFxKACN.s:6073   .data.UsbCommand:00000000 UsbCommand
C:\Users\86158\AppData\Local\Temp\ccFxKACN.s:6112   .data.g_rtcChanenel:00000000 g_rtcChanenel
C:\Users\86158\AppData\Local\Temp\ccFxKACN.s:5919   .bss.g_DeviceATStatus:00000000 g_DeviceATStatus
C:\Users\86158\AppData\Local\Temp\ccFxKACN.s:5933   .bss.g_DeviceTxBuff:00000000 g_DeviceTxBuff
C:\Users\86158\AppData\Local\Temp\ccFxKACN.s:5926   .bss.g_DeviceRxBuff:00000000 g_DeviceRxBuff
C:\Users\86158\AppData\Local\Temp\ccFxKACN.s:5939   .bss.g_UsbATStatus:00000000 g_UsbATStatus
C:\Users\86158\AppData\Local\Temp\ccFxKACN.s:5953   .bss.g_UsbTxBuff:00000000 g_UsbTxBuff
C:\Users\86158\AppData\Local\Temp\ccFxKACN.s:5946   .bss.g_UsbRxBuff:00000000 g_UsbRxBuff
C:\Users\86158\AppData\Local\Temp\ccFxKACN.s:5899   .bss.deviceRxBuf:00000000 deviceRxBuf
C:\Users\86158\AppData\Local\Temp\ccFxKACN.s:5900   .bss.deviceRxBuf:00000000 $d
C:\Users\86158\AppData\Local\Temp\ccFxKACN.s:5902   .bss.deviceTick.1:00000000 $d
ARM GAS  C:\Users\86158\AppData\Local\Temp\ccFxKACN.s 			page 158


C:\Users\86158\AppData\Local\Temp\ccFxKACN.s:5906   .bss.deviceTick.1:00000000 deviceTick.1
C:\Users\86158\AppData\Local\Temp\ccFxKACN.s:5909   .bss.device_Rx_Cnt:00000000 $d
C:\Users\86158\AppData\Local\Temp\ccFxKACN.s:5913   .bss.device_Rx_Cnt:00000000 device_Rx_Cnt
C:\Users\86158\AppData\Local\Temp\ccFxKACN.s:5920   .bss.g_DeviceATStatus:00000000 $d
C:\Users\86158\AppData\Local\Temp\ccFxKACN.s:5922   .bss.g_DeviceRxBuff:00000000 $d
C:\Users\86158\AppData\Local\Temp\ccFxKACN.s:5929   .bss.g_DeviceTxBuff:00000000 $d
C:\Users\86158\AppData\Local\Temp\ccFxKACN.s:5940   .bss.g_UsbATStatus:00000000 $d
C:\Users\86158\AppData\Local\Temp\ccFxKACN.s:5942   .bss.g_UsbRxBuff:00000000 $d
C:\Users\86158\AppData\Local\Temp\ccFxKACN.s:5949   .bss.g_UsbTxBuff:00000000 $d
C:\Users\86158\AppData\Local\Temp\ccFxKACN.s:5956   .bss.lastDeviceRx.0:00000000 $d
C:\Users\86158\AppData\Local\Temp\ccFxKACN.s:5960   .bss.lastDeviceRx.0:00000000 lastDeviceRx.0
C:\Users\86158\AppData\Local\Temp\ccFxKACN.s:5963   .bss.lastUsbRx.2:00000000 $d
C:\Users\86158\AppData\Local\Temp\ccFxKACN.s:5967   .bss.lastUsbRx.2:00000000 lastUsbRx.2
C:\Users\86158\AppData\Local\Temp\ccFxKACN.s:5973   .bss.number.4:00000000 number.4
C:\Users\86158\AppData\Local\Temp\ccFxKACN.s:5974   .bss.number.4:00000000 $d
C:\Users\86158\AppData\Local\Temp\ccFxKACN.s:5979   .bss.usbRxBuf:00000000 usbRxBuf
C:\Users\86158\AppData\Local\Temp\ccFxKACN.s:5980   .bss.usbRxBuf:00000000 $d
C:\Users\86158\AppData\Local\Temp\ccFxKACN.s:5982   .bss.usbTick.3:00000000 $d
C:\Users\86158\AppData\Local\Temp\ccFxKACN.s:5986   .bss.usbTick.3:00000000 usbTick.3
C:\Users\86158\AppData\Local\Temp\ccFxKACN.s:5989   .bss.usb_Rx_Cnt:00000000 $d
C:\Users\86158\AppData\Local\Temp\ccFxKACN.s:5993   .bss.usb_Rx_Cnt:00000000 usb_Rx_Cnt
C:\Users\86158\AppData\Local\Temp\ccFxKACN.s:5996   .data.CommandList:00000000 $d
C:\Users\86158\AppData\Local\Temp\ccFxKACN.s:6000   .data.CommandList:00000000 CommandList
C:\Users\86158\AppData\Local\Temp\ccFxKACN.s:6069   .data.UsbCommand:00000000 $d
C:\Users\86158\AppData\Local\Temp\ccFxKACN.s:6118   .data.state.5:00000000 state.5

UNDEFINED SYMBOLS
rtc_freq_test
memset
vsnprintf
strlen
HAL_UART_Transmit
huart1
system_get_real_time
__aeabi_f2d
CS1237Current
rtc_read_vbat
HAL_GPIO_WritePin
temp_read_value
log_printf
__aeabi_ui2d
__aeabi_dmul
__aeabi_d2uiz
ststem_voltage
flash_read_data
wave1006_read_temp_adc
huart2
HAL_UART_Receive_IT
ControlInit
HAL_Delay
rtc_otp_power
CS1237Init
memcpy
i2c_read_multi_bytes
system_set_real_time
rtc_out_4096
rtc_disable_int
ARM GAS  C:\Users\86158\AppData\Local\Temp\ccFxKACN.s 			page 159


rtc_group_power
rtc_set_channel
rtc_read_multi_bytes
get_log_record_pages
flash_erase
CheckBusy
log_list_init
manager_set_mode
flash_test_data_read
test_data_printf
calculate_wave1006_temp_cap
command_cap_list_test
drv_wave1006_write_reg
drv_wave1006_read_reg
wave1006_enter_test_mode
rtc_1006_exit_testmode
set_int_test
sd8840_write_otp
g_aecq100Start
Aecq100State
__aeabi_d2f
strncpy
control_usart_receive
HAL_GetTick
g_lastFreq
