ARM GAS  C:\Users\86158\AppData\Local\Temp\ccpR4zoP.s 			page 1


   1              		.cpu cortex-m4
   2              		.arch armv7e-m
   3              		.fpu fpv4-sp-d16
   4              		.eabi_attribute 27, 1
   5              		.eabi_attribute 28, 1
   6              		.eabi_attribute 20, 1
   7              		.eabi_attribute 21, 1
   8              		.eabi_attribute 23, 3
   9              		.eabi_attribute 24, 1
  10              		.eabi_attribute 25, 1
  11              		.eabi_attribute 26, 1
  12              		.eabi_attribute 30, 1
  13              		.eabi_attribute 34, 1
  14              		.eabi_attribute 18, 4
  15              		.file	"control.c"
  16              		.text
  17              	.Ltext0:
  18              		.cfi_sections	.debug_frame
  19              		.section	.text.ControlPrintf,"ax",%progbits
  20              		.align	1
  21              		.global	ControlPrintf
  22              		.syntax unified
  23              		.thumb
  24              		.thumb_func
  26              	ControlPrintf:
  27              	.LVL0:
  28              	.LFB238:
  29              		.file 1 "App/Src/control.c"
   1:App/Src/control.c **** #include "control.h"
   2:App/Src/control.c **** #include "main.h"
   3:App/Src/control.c **** #include "string.h"
   4:App/Src/control.c **** #include <stdio.h>
   5:App/Src/control.c **** #include <stdarg.h>
   6:App/Src/control.c **** #include "task.h"
   7:App/Src/control.c **** #include "flash.h"
   8:App/Src/control.c **** #include "manager.h"
   9:App/Src/control.c **** #include "temp.h"
  10:App/Src/control.c **** #include "rtc.h"
  11:App/Src/control.c **** #include "power.h"
  12:App/Src/control.c **** 
  13:App/Src/control.c **** #define CONTROL_RECEIVE_BUFF_NUMBER    200
  14:App/Src/control.c **** #define CONTROL_TRANSMIT_BUFF_NUMBER   300
  15:App/Src/control.c **** #define CTRL_UART_TICK_CLEAR         50//50ms
  16:App/Src/control.c **** 
  17:App/Src/control.c **** // #define FUNCTION0_NUMBER        1
  18:App/Src/control.c **** // #define FUNCTION1_NUMBER        FUNCTION0_NUMBER + 2
  19:App/Src/control.c **** // #define FUNCTION2_NUMBER        FUNCTION1_NUMBER + 3
  20:App/Src/control.c **** // #define FUNCTION3_NUMBER        FUNCTION2_NUMBER + 2
  21:App/Src/control.c **** // #define FUNCTION4_NUMBER        FUNCTION3_NUMBER + 3
  22:App/Src/control.c **** // #define FUNCTION5_NUMBER        FUNCTION4_NUMBER + 2
  23:App/Src/control.c **** // #define FUNCTION6_NUMBER        FUNCTION5_NUMBER + 2
  24:App/Src/control.c **** // #define FUNCTION7_NUMBER        FUNCTION6_NUMBER + 4
  25:App/Src/control.c **** // #define FUNCTION8_NUMBER        FUNCTION7_NUMBER + 4
  26:App/Src/control.c **** // #define FUNCTION9_NUMBER        FUNCTION8_NUMBER + 1
  27:App/Src/control.c **** // #define MAX_SELECT_NUMBER     FUNCTION9_NUMBER
  28:App/Src/control.c **** // char selectList[MAX_SELECT_NUMBER][FUNCTION_NAME_LENGTH] = {
  29:App/Src/control.c **** //     "[选择功能]",
ARM GAS  C:\Users\86158\AppData\Local\Temp\ccpR4zoP.s 			page 2


  30:App/Src/control.c **** //     "[读取内存]", "[清除内存]",
  31:App/Src/control.c **** //     "[IIC接触测试]", "[温度读取]", "[频率计连通测试]",
  32:App/Src/control.c **** //     "[配置温度]", "[查看配置结果]", 
  33:App/Src/control.c **** //     "[单点测试(累加)]", "[单点测试(重复)]", "[读取测试结果]",
  34:App/Src/control.c **** //     "[计算温补值]", "[查看计算结果]",
  35:App/Src/control.c **** //     "[烧写补偿]", "[查看烧写结果]",
  36:App/Src/control.c **** //     "[低温同步时间]", "[低温误差验证]", "[高温同步时间]", "[高温误差验证]",
  37:App/Src/control.c **** //     "[通用测试]", "[检烧模式/累加]", "[检烧模式/重复]", "[查看测试结果]",
  38:App/Src/control.c **** //     "[查看取料信息]"
  39:App/Src/control.c **** // };
  40:App/Src/control.c **** 
  41:App/Src/control.c **** typedef enum {
  42:App/Src/control.c **** 	OPERATE_FREE_MODE = 0,
  43:App/Src/control.c **** 	OPERATE_READ_FLASH,
  44:App/Src/control.c **** 	OPERATE_ERASE_FLASH,
  45:App/Src/control.c **** 	OPERATE_IIC_TEST,
  46:App/Src/control.c **** 	OPERATE_READ_TEMP,
  47:App/Src/control.c **** 	OPERATE_CONNECT,
  48:App/Src/control.c **** 	OPERATE_SET_CONFIG9,
  49:App/Src/control.c **** 	OPERATE_SHOW_CONFIG9,
  50:App/Src/control.c **** 	OPERATE_CAPADJUST_ADD,
  51:App/Src/control.c **** 	OPERATE_CAPADJUST_COVER,
  52:App/Src/control.c **** 	OPERATE_CAPADJUST_RESULT,
  53:App/Src/control.c **** 	OPERATE_CALCULATE,
  54:App/Src/control.c **** 	OPERATE_CALCUL_RESULT,
  55:App/Src/control.c **** 	OPERATE_DOWNLOAD,
  56:App/Src/control.c **** 	OPERATE_LOAD_RESULT,
  57:App/Src/control.c **** 	OPERATE_COLD_SYNC,
  58:App/Src/control.c **** 	OPERATE_COLD_ERROR,
  59:App/Src/control.c **** 	OPERATE_HOT_SYNC,
  60:App/Src/control.c **** 	OPERATE_HOT_ERROR,
  61:App/Src/control.c **** 	OPERATE_MACHINE_TEST,
  62:App/Src/control.c **** 	OPERATE_MACHINE_WRITE,
  63:App/Src/control.c **** 	OPERATE_MACHINE_COVER,//and write
  64:App/Src/control.c **** 	OPERATE_MACHINE_RESULT,
  65:App/Src/control.c **** 	OPERATE_TAKE_OUT_MESSAGE,
  66:App/Src/control.c **** } OperateCommand;
  67:App/Src/control.c **** 
  68:App/Src/control.c **** extern UART_HandleTypeDef huart3;
  69:App/Src/control.c **** static uint16_t control_Rx_Cnt = 0;		//
  70:App/Src/control.c **** static uint8_t controlRxBuf;
  71:App/Src/control.c **** uint8_t g_controlRxBuff[CONTROL_RECEIVE_BUFF_NUMBER] = {0};
  72:App/Src/control.c **** uint8_t g_controlTxBuff[CONTROL_TRANSMIT_BUFF_NUMBER] = {0};
  73:App/Src/control.c **** uint8_t g_controlATStatus = 0;
  74:App/Src/control.c **** static uint8_t g_earseFlash = 0;
  75:App/Src/control.c **** 
  76:App/Src/control.c **** #define MAX_CONTROL_NUMBER  15
  77:App/Src/control.c **** #define MAX_CONTROL_LENGTH  20
  78:App/Src/control.c **** static char CtrlStringList[MAX_CONTROL_NUMBER][MAX_CONTROL_LENGTH] = {
  79:App/Src/control.c ****     "AT^CONNECT?",
  80:App/Src/control.c **** 	"AT^REALTIME", 
  81:App/Src/control.c **** 	"AT^OPERATE",
  82:App/Src/control.c **** };
  83:App/Src/control.c **** 
  84:App/Src/control.c **** 
  85:App/Src/control.c **** void ControlPrintf(char* fmt,...)  
  86:App/Src/control.c **** {  
ARM GAS  C:\Users\86158\AppData\Local\Temp\ccpR4zoP.s 			page 3


  30              		.loc 1 86 1 view -0
  31              		.cfi_startproc
  32              		@ args = 4, pretend = 16, frame = 8
  33              		@ frame_needed = 0, uses_anonymous_args = 1
  34              		.loc 1 86 1 is_stmt 0 view .LVU1
  35 0000 0FB4     		push	{r0, r1, r2, r3}
  36              	.LCFI0:
  37              		.cfi_def_cfa_offset 16
  38              		.cfi_offset 0, -16
  39              		.cfi_offset 1, -12
  40              		.cfi_offset 2, -8
  41              		.cfi_offset 3, -4
  42 0002 F0B5     		push	{r4, r5, r6, r7, lr}
  43              	.LCFI1:
  44              		.cfi_def_cfa_offset 36
  45              		.cfi_offset 4, -36
  46              		.cfi_offset 5, -32
  47              		.cfi_offset 6, -28
  48              		.cfi_offset 7, -24
  49              		.cfi_offset 14, -20
  50 0004 83B0     		sub	sp, sp, #12
  51              	.LCFI2:
  52              		.cfi_def_cfa_offset 48
  53 0006 08AD     		add	r5, sp, #32
  54 0008 55F8047B 		ldr	r7, [r5], #4
  87:App/Src/control.c **** 	va_list ap;//
  55              		.loc 1 87 2 is_stmt 1 view .LVU2
  88:App/Src/control.c **** 	memset(g_controlTxBuff, 0, CONTROL_TRANSMIT_BUFF_NUMBER);
  56              		.loc 1 88 2 view .LVU3
  57 000c 0E4C     		ldr	r4, .L3
  58 000e 4FF49676 		mov	r6, #300
  59 0012 3246     		mov	r2, r6
  60 0014 0021     		movs	r1, #0
  61 0016 2046     		mov	r0, r4
  62 0018 FFF7FEFF 		bl	memset
  63              	.LVL1:
  89:App/Src/control.c **** 	va_start(ap, fmt);//
  64              		.loc 1 89 2 view .LVU4
  65 001c 0195     		str	r5, [sp, #4]
  90:App/Src/control.c **** 	vsnprintf((char*)g_controlTxBuff, CONTROL_TRANSMIT_BUFF_NUMBER, fmt, ap);//
  66              		.loc 1 90 2 view .LVU5
  67 001e 2B46     		mov	r3, r5
  68 0020 3A46     		mov	r2, r7
  69 0022 3146     		mov	r1, r6
  70 0024 2046     		mov	r0, r4
  71 0026 FFF7FEFF 		bl	vsnprintf
  72              	.LVL2:
  91:App/Src/control.c **** 	va_end(ap);
  73              		.loc 1 91 2 view .LVU6
  92:App/Src/control.c **** 	HAL_UART_Transmit(&huart3, g_controlTxBuff, strlen((char*)g_controlTxBuff), 1000);
  74              		.loc 1 92 2 view .LVU7
  75              		.loc 1 92 46 is_stmt 0 view .LVU8
  76 002a 2046     		mov	r0, r4
  77 002c FFF7FEFF 		bl	strlen
  78              	.LVL3:
  79              		.loc 1 92 2 view .LVU9
  80 0030 4FF47A73 		mov	r3, #1000
ARM GAS  C:\Users\86158\AppData\Local\Temp\ccpR4zoP.s 			page 4


  81 0034 82B2     		uxth	r2, r0
  82 0036 2146     		mov	r1, r4
  83 0038 0448     		ldr	r0, .L3+4
  84 003a FFF7FEFF 		bl	HAL_UART_Transmit
  85              	.LVL4:
  93:App/Src/control.c **** }
  86              		.loc 1 93 1 view .LVU10
  87 003e 03B0     		add	sp, sp, #12
  88              	.LCFI3:
  89              		.cfi_def_cfa_offset 36
  90              		@ sp needed
  91 0040 BDE8F040 		pop	{r4, r5, r6, r7, lr}
  92              	.LCFI4:
  93              		.cfi_restore 14
  94              		.cfi_restore 7
  95              		.cfi_restore 6
  96              		.cfi_restore 5
  97              		.cfi_restore 4
  98              		.cfi_def_cfa_offset 16
  99 0044 04B0     		add	sp, sp, #16
 100              	.LCFI5:
 101              		.cfi_restore 3
 102              		.cfi_restore 2
 103              		.cfi_restore 1
 104              		.cfi_restore 0
 105              		.cfi_def_cfa_offset 0
 106 0046 7047     		bx	lr
 107              	.L4:
 108              		.align	2
 109              	.L3:
 110 0048 00000000 		.word	.LANCHOR0
 111 004c 00000000 		.word	huart3
 112              		.cfi_endproc
 113              	.LFE238:
 115              		.global	__aeabi_f2d
 116              		.section	.rodata.CTL_CONNECT_Handle.str1.4,"aMS",%progbits,1
 117              		.align	2
 118              	.LC1:
 119 0000 73797374 		.ascii	"system temp:%.1f connect OK\012\000"
 119      656D2074 
 119      656D703A 
 119      252E3166 
 119      20636F6E 
 120              		.section	.text.CTL_CONNECT_Handle,"ax",%progbits
 121              		.align	1
 122              		.global	CTL_CONNECT_Handle
 123              		.syntax unified
 124              		.thumb
 125              		.thumb_func
 127              	CTL_CONNECT_Handle:
 128              	.LVL5:
 129              	.LFB240:
  94:App/Src/control.c **** 
  95:App/Src/control.c **** 
  96:App/Src/control.c **** void ControlInit(void)
  97:App/Src/control.c **** {
  98:App/Src/control.c **** 	HAL_UART_Receive_IT(&huart3, &controlRxBuf, 1);		
ARM GAS  C:\Users\86158\AppData\Local\Temp\ccpR4zoP.s 			page 5


  99:App/Src/control.c ****     memset(g_controlRxBuff, 0x00, sizeof(g_controlRxBuff));
 100:App/Src/control.c **** 	memset(g_controlTxBuff, 0x00, sizeof(g_controlTxBuff));
 101:App/Src/control.c **** }
 102:App/Src/control.c **** 
 103:App/Src/control.c **** void CTL_CONNECT_Handle(char* command)
 104:App/Src/control.c **** {
 130              		.loc 1 104 1 is_stmt 1 view -0
 131              		.cfi_startproc
 132              		@ args = 0, pretend = 0, frame = 0
 133              		@ frame_needed = 0, uses_anonymous_args = 0
 134              		.loc 1 104 1 is_stmt 0 view .LVU12
 135 0000 08B5     		push	{r3, lr}
 136              	.LCFI6:
 137              		.cfi_def_cfa_offset 8
 138              		.cfi_offset 3, -8
 139              		.cfi_offset 14, -4
 105:App/Src/control.c **** 	float temp;
 140              		.loc 1 105 2 is_stmt 1 view .LVU13
 106:App/Src/control.c **** 	temp = temp_read_value(1);
 141              		.loc 1 106 2 view .LVU14
 142              		.loc 1 106 9 is_stmt 0 view .LVU15
 143 0002 0120     		movs	r0, #1
 144              	.LVL6:
 145              		.loc 1 106 9 view .LVU16
 146 0004 FFF7FEFF 		bl	temp_read_value
 147              	.LVL7:
 148 0008 10EE100A 		vmov	r0, s0
 149              	.LVL8:
 107:App/Src/control.c **** 	ControlPrintf("system temp:%.1f connect OK\n", temp);
 150              		.loc 1 107 2 is_stmt 1 view .LVU17
 151 000c FFF7FEFF 		bl	__aeabi_f2d
 152              	.LVL9:
 153              		.loc 1 107 2 is_stmt 0 view .LVU18
 154 0010 0246     		mov	r2, r0
 155 0012 0B46     		mov	r3, r1
 156 0014 0148     		ldr	r0, .L7
 157 0016 FFF7FEFF 		bl	ControlPrintf
 158              	.LVL10:
 108:App/Src/control.c **** }
 159              		.loc 1 108 1 view .LVU19
 160 001a 08BD     		pop	{r3, pc}
 161              	.L8:
 162              		.align	2
 163              	.L7:
 164 001c 00000000 		.word	.LC1
 165              		.cfi_endproc
 166              	.LFE240:
 168              		.section	.rodata.CTL_REALTIME_Handle.str1.4,"aMS",%progbits,1
 169              		.align	2
 170              	.LC2:
 171 0000 72656365 		.ascii	"receive system:%s\000"
 171      69766520 
 171      73797374 
 171      656D3A25 
 171      7300
 172 0012 0000     		.align	2
 173              	.LC3:
ARM GAS  C:\Users\86158\AppData\Local\Temp\ccpR4zoP.s 			page 6


 174 0014 79656172 		.ascii	"year:\000"
 174      3A00
 175 001a 0000     		.align	2
 176              	.LC4:
 177 001c 6D6F6E3A 		.ascii	"mon:\000"
 177      00
 178 0021 000000   		.align	2
 179              	.LC5:
 180 0024 6461793A 		.ascii	"day:\000"
 180      00
 181 0029 000000   		.align	2
 182              	.LC6:
 183 002c 686F7572 		.ascii	"hour:\000"
 183      3A00
 184 0032 0000     		.align	2
 185              	.LC7:
 186 0034 6D696E3A 		.ascii	"min:\000"
 186      00
 187 0039 000000   		.align	2
 188              	.LC8:
 189 003c 7365633A 		.ascii	"sec:\000"
 189      00
 190 0041 000000   		.align	2
 191              	.LC9:
 192 0044 73796E63 		.ascii	"sync time OK\012\000"
 192      2074696D 
 192      65204F4B 
 192      0A00
 193              		.section	.text.CTL_REALTIME_Handle,"ax",%progbits
 194              		.align	1
 195              		.global	CTL_REALTIME_Handle
 196              		.syntax unified
 197              		.thumb
 198              		.thumb_func
 200              	CTL_REALTIME_Handle:
 201              	.LVL11:
 202              	.LFB241:
 109:App/Src/control.c **** 
 110:App/Src/control.c **** void CTL_REALTIME_Handle(char* command)
 111:App/Src/control.c **** {
 203              		.loc 1 111 1 is_stmt 1 view -0
 204              		.cfi_startproc
 205              		@ args = 0, pretend = 0, frame = 16
 206              		@ frame_needed = 0, uses_anonymous_args = 0
 207              		.loc 1 111 1 is_stmt 0 view .LVU21
 208 0000 10B5     		push	{r4, lr}
 209              	.LCFI7:
 210              		.cfi_def_cfa_offset 8
 211              		.cfi_offset 4, -8
 212              		.cfi_offset 14, -4
 213 0002 84B0     		sub	sp, sp, #16
 214              	.LCFI8:
 215              		.cfi_def_cfa_offset 24
 216 0004 0446     		mov	r4, r0
 112:App/Src/control.c ****     RealTime rtc = {0};
 217              		.loc 1 112 5 is_stmt 1 view .LVU22
 218              		.loc 1 112 14 is_stmt 0 view .LVU23
ARM GAS  C:\Users\86158\AppData\Local\Temp\ccpR4zoP.s 			page 7


 219 0006 0023     		movs	r3, #0
 220 0008 0293     		str	r3, [sp, #8]
 221 000a 0393     		str	r3, [sp, #12]
 113:App/Src/control.c **** 	int num = 0;
 222              		.loc 1 113 2 is_stmt 1 view .LVU24
 223              	.LVL12:
 114:App/Src/control.c **** 	int inNumber = 0;
 224              		.loc 1 114 2 view .LVU25
 225              		.loc 1 114 6 is_stmt 0 view .LVU26
 226 000c 0193     		str	r3, [sp, #4]
 115:App/Src/control.c **** 
 116:App/Src/control.c **** 	UsbPrintf("receive system:%s", command);
 227              		.loc 1 116 2 is_stmt 1 view .LVU27
 228 000e 0146     		mov	r1, r0
 229 0010 5848     		ldr	r0, .L19
 230              	.LVL13:
 231              		.loc 1 116 2 is_stmt 0 view .LVU28
 232 0012 FFF7FEFF 		bl	UsbPrintf
 233              	.LVL14:
 117:App/Src/control.c **** 	system_get_real_time(&rtc);
 234              		.loc 1 117 2 is_stmt 1 view .LVU29
 235 0016 02A8     		add	r0, sp, #8
 236 0018 FFF7FEFF 		bl	system_get_real_time
 237              	.LVL15:
 118:App/Src/control.c **** 	num = strSearch(command, "year:");
 238              		.loc 1 118 2 view .LVU30
 239              		.loc 1 118 8 is_stmt 0 view .LVU31
 240 001c 5649     		ldr	r1, .L19+4
 241 001e 2046     		mov	r0, r4
 242 0020 FFF7FEFF 		bl	strSearch
 243              	.LVL16:
 119:App/Src/control.c **** 	if (num != -1) {
 244              		.loc 1 119 2 is_stmt 1 view .LVU32
 245              		.loc 1 119 5 is_stmt 0 view .LVU33
 246 0024 B0F1FF3F 		cmp	r0, #-1
 247 0028 14D0     		beq	.L10
 120:App/Src/control.c **** 		num += strlen("year:");
 248              		.loc 1 120 3 is_stmt 1 view .LVU34
 249              		.loc 1 120 7 is_stmt 0 view .LVU35
 250 002a 0530     		adds	r0, r0, #5
 251              	.LVL17:
 121:App/Src/control.c **** 		if (CharToInt(command, num, &inNumber) == 0 ) {	return; }
 252              		.loc 1 121 3 is_stmt 1 view .LVU36
 253              		.loc 1 121 7 is_stmt 0 view .LVU37
 254 002c 01AA     		add	r2, sp, #4
 255 002e C1B2     		uxtb	r1, r0
 256 0030 2046     		mov	r0, r4
 257              	.LVL18:
 258              		.loc 1 121 7 view .LVU38
 259 0032 FFF7FEFF 		bl	CharToInt
 260              	.LVL19:
 261              		.loc 1 121 6 view .LVU39
 262 0036 0028     		cmp	r0, #0
 263 0038 00F09980 		beq	.L9
 122:App/Src/control.c **** 		rtc.year = inNumber % 100;
 264              		.loc 1 122 3 is_stmt 1 view .LVU40
 265              		.loc 1 122 23 is_stmt 0 view .LVU41
ARM GAS  C:\Users\86158\AppData\Local\Temp\ccpR4zoP.s 			page 8


 266 003c 019A     		ldr	r2, [sp, #4]
 267 003e 4F49     		ldr	r1, .L19+8
 268 0040 81FB0231 		smull	r3, r1, r1, r2
 269 0044 D317     		asrs	r3, r2, #31
 270 0046 C3EB6113 		rsb	r3, r3, r1, asr #5
 271 004a 6421     		movs	r1, #100
 272 004c 01FB1323 		mls	r3, r1, r3, r2
 273              		.loc 1 122 12 view .LVU42
 274 0050 8DF80830 		strb	r3, [sp, #8]
 275              	.L10:
 123:App/Src/control.c **** 	}
 124:App/Src/control.c **** 	num = strSearch(command, "mon:");
 276              		.loc 1 124 2 is_stmt 1 view .LVU43
 277              		.loc 1 124 8 is_stmt 0 view .LVU44
 278 0054 4A49     		ldr	r1, .L19+12
 279 0056 2046     		mov	r0, r4
 280 0058 FFF7FEFF 		bl	strSearch
 281              	.LVL20:
 125:App/Src/control.c **** 	if (num != -1) {
 282              		.loc 1 125 2 is_stmt 1 view .LVU45
 283              		.loc 1 125 5 is_stmt 0 view .LVU46
 284 005c B0F1FF3F 		cmp	r0, #-1
 285 0060 13D0     		beq	.L12
 126:App/Src/control.c **** 		num += strlen("mon:");
 286              		.loc 1 126 3 is_stmt 1 view .LVU47
 287              		.loc 1 126 7 is_stmt 0 view .LVU48
 288 0062 0430     		adds	r0, r0, #4
 289              	.LVL21:
 127:App/Src/control.c **** 		if (CharToInt(command, num, &inNumber) == 0 ) {	return; }
 290              		.loc 1 127 3 is_stmt 1 view .LVU49
 291              		.loc 1 127 7 is_stmt 0 view .LVU50
 292 0064 01AA     		add	r2, sp, #4
 293 0066 C1B2     		uxtb	r1, r0
 294 0068 2046     		mov	r0, r4
 295              	.LVL22:
 296              		.loc 1 127 7 view .LVU51
 297 006a FFF7FEFF 		bl	CharToInt
 298              	.LVL23:
 299              		.loc 1 127 6 view .LVU52
 300 006e 0028     		cmp	r0, #0
 301 0070 7DD0     		beq	.L9
 128:App/Src/control.c **** 		rtc.mon = inNumber % 100;
 302              		.loc 1 128 3 is_stmt 1 view .LVU53
 303              		.loc 1 128 22 is_stmt 0 view .LVU54
 304 0072 019A     		ldr	r2, [sp, #4]
 305 0074 4149     		ldr	r1, .L19+8
 306 0076 81FB0231 		smull	r3, r1, r1, r2
 307 007a D317     		asrs	r3, r2, #31
 308 007c C3EB6113 		rsb	r3, r3, r1, asr #5
 309 0080 6421     		movs	r1, #100
 310 0082 01FB1323 		mls	r3, r1, r3, r2
 311              		.loc 1 128 11 view .LVU55
 312 0086 8DF80930 		strb	r3, [sp, #9]
 313              	.L12:
 129:App/Src/control.c **** 	}	
 130:App/Src/control.c **** 	num = strSearch(command, "day:");
 314              		.loc 1 130 2 is_stmt 1 view .LVU56
ARM GAS  C:\Users\86158\AppData\Local\Temp\ccpR4zoP.s 			page 9


 315              		.loc 1 130 8 is_stmt 0 view .LVU57
 316 008a 3E49     		ldr	r1, .L19+16
 317 008c 2046     		mov	r0, r4
 318 008e FFF7FEFF 		bl	strSearch
 319              	.LVL24:
 131:App/Src/control.c **** 	if (num != -1) {
 320              		.loc 1 131 2 is_stmt 1 view .LVU58
 321              		.loc 1 131 5 is_stmt 0 view .LVU59
 322 0092 B0F1FF3F 		cmp	r0, #-1
 323 0096 13D0     		beq	.L13
 132:App/Src/control.c **** 		num += strlen("day:");
 324              		.loc 1 132 3 is_stmt 1 view .LVU60
 325              		.loc 1 132 7 is_stmt 0 view .LVU61
 326 0098 0430     		adds	r0, r0, #4
 327              	.LVL25:
 133:App/Src/control.c **** 		if (CharToInt(command, num, &inNumber) == 0 ) {	return; }
 328              		.loc 1 133 3 is_stmt 1 view .LVU62
 329              		.loc 1 133 7 is_stmt 0 view .LVU63
 330 009a 01AA     		add	r2, sp, #4
 331 009c C1B2     		uxtb	r1, r0
 332 009e 2046     		mov	r0, r4
 333              	.LVL26:
 334              		.loc 1 133 7 view .LVU64
 335 00a0 FFF7FEFF 		bl	CharToInt
 336              	.LVL27:
 337              		.loc 1 133 6 view .LVU65
 338 00a4 0028     		cmp	r0, #0
 339 00a6 62D0     		beq	.L9
 134:App/Src/control.c **** 		rtc.day = inNumber % 100;
 340              		.loc 1 134 3 is_stmt 1 view .LVU66
 341              		.loc 1 134 22 is_stmt 0 view .LVU67
 342 00a8 019A     		ldr	r2, [sp, #4]
 343 00aa 3449     		ldr	r1, .L19+8
 344 00ac 81FB0231 		smull	r3, r1, r1, r2
 345 00b0 D317     		asrs	r3, r2, #31
 346 00b2 C3EB6113 		rsb	r3, r3, r1, asr #5
 347 00b6 6421     		movs	r1, #100
 348 00b8 01FB1323 		mls	r3, r1, r3, r2
 349              		.loc 1 134 11 view .LVU68
 350 00bc 8DF80A30 		strb	r3, [sp, #10]
 351              	.L13:
 135:App/Src/control.c **** 	}	
 136:App/Src/control.c **** 	num = strSearch(command, "hour:");
 352              		.loc 1 136 2 is_stmt 1 view .LVU69
 353              		.loc 1 136 8 is_stmt 0 view .LVU70
 354 00c0 3149     		ldr	r1, .L19+20
 355 00c2 2046     		mov	r0, r4
 356 00c4 FFF7FEFF 		bl	strSearch
 357              	.LVL28:
 137:App/Src/control.c **** 	if (num != -1) {
 358              		.loc 1 137 2 is_stmt 1 view .LVU71
 359              		.loc 1 137 5 is_stmt 0 view .LVU72
 360 00c8 B0F1FF3F 		cmp	r0, #-1
 361 00cc 13D0     		beq	.L14
 138:App/Src/control.c **** 		num += strlen("hour:");
 362              		.loc 1 138 3 is_stmt 1 view .LVU73
 363              		.loc 1 138 7 is_stmt 0 view .LVU74
ARM GAS  C:\Users\86158\AppData\Local\Temp\ccpR4zoP.s 			page 10


 364 00ce 0530     		adds	r0, r0, #5
 365              	.LVL29:
 139:App/Src/control.c **** 		if (CharToInt(command, num, &inNumber) == 0 ) {	return; }
 366              		.loc 1 139 3 is_stmt 1 view .LVU75
 367              		.loc 1 139 7 is_stmt 0 view .LVU76
 368 00d0 01AA     		add	r2, sp, #4
 369 00d2 C1B2     		uxtb	r1, r0
 370 00d4 2046     		mov	r0, r4
 371              	.LVL30:
 372              		.loc 1 139 7 view .LVU77
 373 00d6 FFF7FEFF 		bl	CharToInt
 374              	.LVL31:
 375              		.loc 1 139 6 view .LVU78
 376 00da 0028     		cmp	r0, #0
 377 00dc 47D0     		beq	.L9
 140:App/Src/control.c **** 		rtc.hour = inNumber % 100;
 378              		.loc 1 140 3 is_stmt 1 view .LVU79
 379              		.loc 1 140 23 is_stmt 0 view .LVU80
 380 00de 019A     		ldr	r2, [sp, #4]
 381 00e0 2649     		ldr	r1, .L19+8
 382 00e2 81FB0231 		smull	r3, r1, r1, r2
 383 00e6 D317     		asrs	r3, r2, #31
 384 00e8 C3EB6113 		rsb	r3, r3, r1, asr #5
 385 00ec 6421     		movs	r1, #100
 386 00ee 01FB1323 		mls	r3, r1, r3, r2
 387              		.loc 1 140 12 view .LVU81
 388 00f2 8DF80B30 		strb	r3, [sp, #11]
 389              	.L14:
 141:App/Src/control.c **** 	}	
 142:App/Src/control.c **** 	num = strSearch(command, "min:");
 390              		.loc 1 142 2 is_stmt 1 view .LVU82
 391              		.loc 1 142 8 is_stmt 0 view .LVU83
 392 00f6 2549     		ldr	r1, .L19+24
 393 00f8 2046     		mov	r0, r4
 394 00fa FFF7FEFF 		bl	strSearch
 395              	.LVL32:
 143:App/Src/control.c **** 	if (num != -1) {
 396              		.loc 1 143 2 is_stmt 1 view .LVU84
 397              		.loc 1 143 5 is_stmt 0 view .LVU85
 398 00fe B0F1FF3F 		cmp	r0, #-1
 399 0102 12D0     		beq	.L15
 144:App/Src/control.c **** 		num += strlen("min:");
 400              		.loc 1 144 3 is_stmt 1 view .LVU86
 401              		.loc 1 144 7 is_stmt 0 view .LVU87
 402 0104 0430     		adds	r0, r0, #4
 403              	.LVL33:
 145:App/Src/control.c **** 		if (CharToInt(command, num, &inNumber) == 0 ) {	return; }
 404              		.loc 1 145 3 is_stmt 1 view .LVU88
 405              		.loc 1 145 7 is_stmt 0 view .LVU89
 406 0106 01AA     		add	r2, sp, #4
 407 0108 C1B2     		uxtb	r1, r0
 408 010a 2046     		mov	r0, r4
 409              	.LVL34:
 410              		.loc 1 145 7 view .LVU90
 411 010c FFF7FEFF 		bl	CharToInt
 412              	.LVL35:
 413              		.loc 1 145 6 view .LVU91
ARM GAS  C:\Users\86158\AppData\Local\Temp\ccpR4zoP.s 			page 11


 414 0110 68B3     		cbz	r0, .L9
 146:App/Src/control.c **** 		rtc.min = inNumber % 100;
 415              		.loc 1 146 3 is_stmt 1 view .LVU92
 416              		.loc 1 146 22 is_stmt 0 view .LVU93
 417 0112 019A     		ldr	r2, [sp, #4]
 418 0114 1949     		ldr	r1, .L19+8
 419 0116 81FB0231 		smull	r3, r1, r1, r2
 420 011a D317     		asrs	r3, r2, #31
 421 011c C3EB6113 		rsb	r3, r3, r1, asr #5
 422 0120 6421     		movs	r1, #100
 423 0122 01FB1323 		mls	r3, r1, r3, r2
 424              		.loc 1 146 11 view .LVU94
 425 0126 8DF80C30 		strb	r3, [sp, #12]
 426              	.L15:
 147:App/Src/control.c **** 	}	
 148:App/Src/control.c **** 	num = strSearch(command, "sec:");
 427              		.loc 1 148 2 is_stmt 1 view .LVU95
 428              		.loc 1 148 8 is_stmt 0 view .LVU96
 429 012a 1949     		ldr	r1, .L19+28
 430 012c 2046     		mov	r0, r4
 431 012e FFF7FEFF 		bl	strSearch
 432              	.LVL36:
 149:App/Src/control.c **** 	if (num != -1) {
 433              		.loc 1 149 2 is_stmt 1 view .LVU97
 434              		.loc 1 149 5 is_stmt 0 view .LVU98
 435 0132 B0F1FF3F 		cmp	r0, #-1
 436 0136 12D0     		beq	.L16
 150:App/Src/control.c **** 		num += strlen("sec:");
 437              		.loc 1 150 3 is_stmt 1 view .LVU99
 438              		.loc 1 150 7 is_stmt 0 view .LVU100
 439 0138 0430     		adds	r0, r0, #4
 440              	.LVL37:
 151:App/Src/control.c **** 		if (CharToInt(command, num, &inNumber) == 0 ) {	return; }
 441              		.loc 1 151 3 is_stmt 1 view .LVU101
 442              		.loc 1 151 7 is_stmt 0 view .LVU102
 443 013a 01AA     		add	r2, sp, #4
 444 013c C1B2     		uxtb	r1, r0
 445 013e 2046     		mov	r0, r4
 446              	.LVL38:
 447              		.loc 1 151 7 view .LVU103
 448 0140 FFF7FEFF 		bl	CharToInt
 449              	.LVL39:
 450              		.loc 1 151 6 view .LVU104
 451 0144 98B1     		cbz	r0, .L9
 152:App/Src/control.c **** 		rtc.sec = inNumber % 100;
 452              		.loc 1 152 3 is_stmt 1 view .LVU105
 453              		.loc 1 152 22 is_stmt 0 view .LVU106
 454 0146 019A     		ldr	r2, [sp, #4]
 455 0148 0C49     		ldr	r1, .L19+8
 456 014a 81FB0231 		smull	r3, r1, r1, r2
 457 014e D317     		asrs	r3, r2, #31
 458 0150 C3EB6113 		rsb	r3, r3, r1, asr #5
 459 0154 6421     		movs	r1, #100
 460 0156 01FB1323 		mls	r3, r1, r3, r2
 461              		.loc 1 152 11 view .LVU107
 462 015a 8DF80D30 		strb	r3, [sp, #13]
 463              	.L16:
ARM GAS  C:\Users\86158\AppData\Local\Temp\ccpR4zoP.s 			page 12


 153:App/Src/control.c **** 	}
 154:App/Src/control.c **** 	system_set_real_time(rtc);
 464              		.loc 1 154 2 is_stmt 1 view .LVU108
 465 015e 04AB     		add	r3, sp, #16
 466 0160 13E90300 		ldmdb	r3, {r0, r1}
 467 0164 FFF7FEFF 		bl	system_set_real_time
 468              	.LVL40:
 155:App/Src/control.c **** 	ControlPrintf("sync time OK\n");
 469              		.loc 1 155 2 view .LVU109
 470 0168 0A48     		ldr	r0, .L19+32
 471 016a FFF7FEFF 		bl	ControlPrintf
 472              	.LVL41:
 473              	.L9:
 156:App/Src/control.c **** }
 474              		.loc 1 156 1 is_stmt 0 view .LVU110
 475 016e 04B0     		add	sp, sp, #16
 476              	.LCFI9:
 477              		.cfi_def_cfa_offset 8
 478              		@ sp needed
 479 0170 10BD     		pop	{r4, pc}
 480              	.LVL42:
 481              	.L20:
 482              		.loc 1 156 1 view .LVU111
 483 0172 00BF     		.align	2
 484              	.L19:
 485 0174 00000000 		.word	.LC2
 486 0178 14000000 		.word	.LC3
 487 017c 1F85EB51 		.word	1374389535
 488 0180 1C000000 		.word	.LC4
 489 0184 24000000 		.word	.LC5
 490 0188 2C000000 		.word	.LC6
 491 018c 34000000 		.word	.LC7
 492 0190 3C000000 		.word	.LC8
 493 0194 44000000 		.word	.LC9
 494              		.cfi_endproc
 495              	.LFE241:
 497              		.section	.text.ControlInit,"ax",%progbits
 498              		.align	1
 499              		.global	ControlInit
 500              		.syntax unified
 501              		.thumb
 502              		.thumb_func
 504              	ControlInit:
 505              	.LFB239:
  97:App/Src/control.c **** 	HAL_UART_Receive_IT(&huart3, &controlRxBuf, 1);		
 506              		.loc 1 97 1 is_stmt 1 view -0
 507              		.cfi_startproc
 508              		@ args = 0, pretend = 0, frame = 0
 509              		@ frame_needed = 0, uses_anonymous_args = 0
 510 0000 08B5     		push	{r3, lr}
 511              	.LCFI10:
 512              		.cfi_def_cfa_offset 8
 513              		.cfi_offset 3, -8
 514              		.cfi_offset 14, -4
  98:App/Src/control.c ****     memset(g_controlRxBuff, 0x00, sizeof(g_controlRxBuff));
 515              		.loc 1 98 2 view .LVU113
 516 0002 0122     		movs	r2, #1
ARM GAS  C:\Users\86158\AppData\Local\Temp\ccpR4zoP.s 			page 13


 517 0004 0749     		ldr	r1, .L23
 518 0006 0848     		ldr	r0, .L23+4
 519 0008 FFF7FEFF 		bl	HAL_UART_Receive_IT
 520              	.LVL43:
  99:App/Src/control.c **** 	memset(g_controlTxBuff, 0x00, sizeof(g_controlTxBuff));
 521              		.loc 1 99 5 view .LVU114
 522 000c C822     		movs	r2, #200
 523 000e 0021     		movs	r1, #0
 524 0010 0648     		ldr	r0, .L23+8
 525 0012 FFF7FEFF 		bl	memset
 526              	.LVL44:
 100:App/Src/control.c **** }
 527              		.loc 1 100 2 view .LVU115
 528 0016 4FF49672 		mov	r2, #300
 529 001a 0021     		movs	r1, #0
 530 001c 0448     		ldr	r0, .L23+12
 531 001e FFF7FEFF 		bl	memset
 532              	.LVL45:
 101:App/Src/control.c **** 
 533              		.loc 1 101 1 is_stmt 0 view .LVU116
 534 0022 08BD     		pop	{r3, pc}
 535              	.L24:
 536              		.align	2
 537              	.L23:
 538 0024 00000000 		.word	.LANCHOR1
 539 0028 00000000 		.word	huart3
 540 002c 00000000 		.word	.LANCHOR2
 541 0030 00000000 		.word	.LANCHOR0
 542              		.cfi_endproc
 543              	.LFE239:
 545              		.section	.rodata.OPERATE_READ_FLASH_Handle.str1.4,"aMS",%progbits,1
 546              		.align	2
 547              	.LC10:
 548 0000 6D657373 		.ascii	"message:\325\375\324\332\307\345\277\325\243\254\311"
 548      6167653A 
 548      D5FDD4DA 
 548      C7E5BFD5 
 548      A3ACC9
 549 0013 D4BAF3D4 		.ascii	"\324\272\363\324\331\312\324\012\000"
 549      D9CAD40A 
 549      00
 550              		.align	2
 551              	.LC11:
 552 001c 6F6B4E75 		.ascii	"okNumber:%d chipName:%d message:%s\012\000"
 552      6D626572 
 552      3A256420 
 552      63686970 
 552      4E616D65 
 553              		.section	.text.OPERATE_READ_FLASH_Handle,"ax",%progbits
 554              		.align	1
 555              		.global	OPERATE_READ_FLASH_Handle
 556              		.syntax unified
 557              		.thumb
 558              		.thumb_func
 560              	OPERATE_READ_FLASH_Handle:
 561              	.LFB242:
 157:App/Src/control.c **** 
ARM GAS  C:\Users\86158\AppData\Local\Temp\ccpR4zoP.s 			page 14


 158:App/Src/control.c **** 
 159:App/Src/control.c **** void OPERATE_READ_FLASH_Handle(void)
 160:App/Src/control.c **** {
 562              		.loc 1 160 1 is_stmt 1 view -0
 563              		.cfi_startproc
 564              		@ args = 0, pretend = 0, frame = 240
 565              		@ frame_needed = 0, uses_anonymous_args = 0
 566 0000 70B5     		push	{r4, r5, r6, lr}
 567              	.LCFI11:
 568              		.cfi_def_cfa_offset 16
 569              		.cfi_offset 4, -16
 570              		.cfi_offset 5, -12
 571              		.cfi_offset 6, -8
 572              		.cfi_offset 14, -4
 573 0002 BCB0     		sub	sp, sp, #240
 574              	.LCFI12:
 575              		.cfi_def_cfa_offset 256
 161:App/Src/control.c **** 	uint8_t buffer[MAX_CHIP_NUMBER] = {0xff};
 576              		.loc 1 161 2 view .LVU118
 577              		.loc 1 161 10 is_stmt 0 view .LVU119
 578 0004 FF23     		movs	r3, #255
 579 0006 2393     		str	r3, [sp, #140]
 580 0008 6022     		movs	r2, #96
 581 000a 0021     		movs	r1, #0
 582 000c 24A8     		add	r0, sp, #144
 583 000e FFF7FEFF 		bl	memset
 584              	.LVL46:
 162:App/Src/control.c **** 	uint32_t address;
 585              		.loc 1 162 2 is_stmt 1 view .LVU120
 163:App/Src/control.c **** 	uint8_t count, lastCount = 0;
 586              		.loc 1 163 2 view .LVU121
 164:App/Src/control.c **** 	int i, j;
 587              		.loc 1 164 2 view .LVU122
 165:App/Src/control.c **** 	char message[7][20] = {
 588              		.loc 1 165 2 view .LVU123
 589              		.loc 1 165 7 is_stmt 0 view .LVU124
 590 0012 8C22     		movs	r2, #140
 591 0014 2649     		ldr	r1, .L43
 592 0016 6846     		mov	r0, sp
 593 0018 FFF7FEFF 		bl	memcpy
 594              	.LVL47:
 166:App/Src/control.c **** 		"已清空数据", "温度计", "温补测试", "计算", "烧录", "机台测试", "取料记录"};
 167:App/Src/control.c **** 	if (g_earseFlash > 0) {
 595              		.loc 1 167 2 is_stmt 1 view .LVU125
 596              		.loc 1 167 19 is_stmt 0 view .LVU126
 597 001c 254B     		ldr	r3, .L43+4
 598 001e 1D78     		ldrb	r5, [r3]	@ zero_extendqisi2
 599              		.loc 1 167 5 view .LVU127
 600 0020 15B9     		cbnz	r5, .L37
 163:App/Src/control.c **** 	int i, j;
 601              		.loc 1 163 17 view .LVU128
 602 0022 2E46     		mov	r6, r5
 168:App/Src/control.c **** 		ControlPrintf("message:正在清空，稍后再试\n");
 169:App/Src/control.c **** 		return;
 170:App/Src/control.c **** 	}
 171:App/Src/control.c **** 	for (j = 0; j < 6; j++) {//6个测试标志
 603              		.loc 1 171 9 view .LVU129
ARM GAS  C:\Users\86158\AppData\Local\Temp\ccpR4zoP.s 			page 15


 604 0024 0024     		movs	r4, #0
 605 0026 1FE0     		b	.L26
 606              	.L37:
 168:App/Src/control.c **** 		ControlPrintf("message:正在清空，稍后再试\n");
 607              		.loc 1 168 3 is_stmt 1 view .LVU130
 608 0028 2348     		ldr	r0, .L43+8
 609 002a FFF7FEFF 		bl	ControlPrintf
 610              	.LVL48:
 169:App/Src/control.c **** 	}
 611              		.loc 1 169 3 view .LVU131
 612 002e 3DE0     		b	.L25
 613              	.LVL49:
 614              	.L40:
 172:App/Src/control.c **** 		memset(buffer, 0xff, MAX_CHIP_NUMBER);
 173:App/Src/control.c **** 		address = TEST_FALG_START_ADDR + j * PAGE_SIZE;
 174:App/Src/control.c **** 		flash_read_data(address, buffer, MAX_CHIP_NUMBER);
 175:App/Src/control.c **** 		count = 0;
 176:App/Src/control.c **** 		for (i = 0; i < MAX_CHIP_NUMBER ; i++) {
 177:App/Src/control.c **** 			if (j == 1) {
 178:App/Src/control.c **** 				if (buffer[i] == 0xE0) {
 615              		.loc 1 178 5 view .LVU132
 616              		.loc 1 178 15 is_stmt 0 view .LVU133
 617 0030 03F1F002 		add	r2, r3, #240
 618 0034 6A44     		add	r2, sp, r2
 619 0036 12F8642C 		ldrb	r2, [r2, #-100]	@ zero_extendqisi2
 620              		.loc 1 178 8 view .LVU134
 621 003a E02A     		cmp	r2, #224
 622 003c 0ED0     		beq	.L38
 623              	.L30:
 176:App/Src/control.c **** 			if (j == 1) {
 624              		.loc 1 176 37 is_stmt 1 discriminator 2 view .LVU135
 176:App/Src/control.c **** 			if (j == 1) {
 625              		.loc 1 176 38 is_stmt 0 discriminator 2 view .LVU136
 626 003e 0133     		adds	r3, r3, #1
 627              	.LVL50:
 628              	.L28:
 176:App/Src/control.c **** 			if (j == 1) {
 629              		.loc 1 176 15 is_stmt 1 discriminator 1 view .LVU137
 176:App/Src/control.c **** 			if (j == 1) {
 630              		.loc 1 176 3 is_stmt 0 discriminator 1 view .LVU138
 631 0040 632B     		cmp	r3, #99
 632 0042 0EDC     		bgt	.L39
 177:App/Src/control.c **** 				if (buffer[i] == 0xE0) {
 633              		.loc 1 177 4 is_stmt 1 view .LVU139
 177:App/Src/control.c **** 				if (buffer[i] == 0xE0) {
 634              		.loc 1 177 7 is_stmt 0 view .LVU140
 635 0044 012C     		cmp	r4, #1
 636 0046 F3D0     		beq	.L40
 179:App/Src/control.c **** 					count++;
 180:App/Src/control.c **** 				}
 181:App/Src/control.c **** 			} else {
 182:App/Src/control.c **** 				if (buffer[i] == '1') {
 637              		.loc 1 182 5 is_stmt 1 view .LVU141
 638              		.loc 1 182 15 is_stmt 0 view .LVU142
 639 0048 03F1F002 		add	r2, r3, #240
 640 004c 6A44     		add	r2, sp, r2
 641 004e 12F8642C 		ldrb	r2, [r2, #-100]	@ zero_extendqisi2
ARM GAS  C:\Users\86158\AppData\Local\Temp\ccpR4zoP.s 			page 16


 642              		.loc 1 182 8 view .LVU143
 643 0052 312A     		cmp	r2, #49
 644 0054 F3D1     		bne	.L30
 183:App/Src/control.c **** 					count++;
 645              		.loc 1 183 6 is_stmt 1 view .LVU144
 646              		.loc 1 183 11 is_stmt 0 view .LVU145
 647 0056 0131     		adds	r1, r1, #1
 648              	.LVL51:
 649              		.loc 1 183 11 view .LVU146
 650 0058 C9B2     		uxtb	r1, r1
 651              	.LVL52:
 652              		.loc 1 183 11 view .LVU147
 653 005a F0E7     		b	.L30
 654              	.L38:
 179:App/Src/control.c **** 					count++;
 655              		.loc 1 179 6 is_stmt 1 view .LVU148
 179:App/Src/control.c **** 					count++;
 656              		.loc 1 179 11 is_stmt 0 view .LVU149
 657 005c 0131     		adds	r1, r1, #1
 658              	.LVL53:
 179:App/Src/control.c **** 					count++;
 659              		.loc 1 179 11 view .LVU150
 660 005e C9B2     		uxtb	r1, r1
 661              	.LVL54:
 179:App/Src/control.c **** 					count++;
 662              		.loc 1 179 11 view .LVU151
 663 0060 EDE7     		b	.L30
 664              	.L39:
 184:App/Src/control.c **** 				}
 185:App/Src/control.c **** 			}
 186:App/Src/control.c **** 		}
 187:App/Src/control.c **** 		if (count == 0) {
 665              		.loc 1 187 3 is_stmt 1 view .LVU152
 666              		.loc 1 187 6 is_stmt 0 view .LVU153
 667 0062 81B1     		cbz	r1, .L41
 188:App/Src/control.c **** 			ControlPrintf("okNumber:%d chipName:%d message:%s\n", lastCount, MAX_CHIP_NUMBER, message[j]);
 189:App/Src/control.c **** 			return;
 190:App/Src/control.c **** 		} else {
 191:App/Src/control.c **** 			lastCount = count;
 668              		.loc 1 191 4 is_stmt 1 discriminator 2 view .LVU154
 669              	.LVL55:
 171:App/Src/control.c **** 		memset(buffer, 0xff, MAX_CHIP_NUMBER);
 670              		.loc 1 171 21 discriminator 2 view .LVU155
 171:App/Src/control.c **** 		memset(buffer, 0xff, MAX_CHIP_NUMBER);
 671              		.loc 1 171 22 is_stmt 0 discriminator 2 view .LVU156
 672 0064 0134     		adds	r4, r4, #1
 673              	.LVL56:
 674              		.loc 1 191 14 discriminator 2 view .LVU157
 675 0066 0E46     		mov	r6, r1
 676              	.LVL57:
 677              	.L26:
 171:App/Src/control.c **** 		memset(buffer, 0xff, MAX_CHIP_NUMBER);
 678              		.loc 1 171 14 is_stmt 1 discriminator 1 view .LVU158
 171:App/Src/control.c **** 		memset(buffer, 0xff, MAX_CHIP_NUMBER);
 679              		.loc 1 171 2 is_stmt 0 discriminator 1 view .LVU159
 680 0068 052C     		cmp	r4, #5
 681 006a 16DC     		bgt	.L42
ARM GAS  C:\Users\86158\AppData\Local\Temp\ccpR4zoP.s 			page 17


 172:App/Src/control.c **** 		address = TEST_FALG_START_ADDR + j * PAGE_SIZE;
 682              		.loc 1 172 3 is_stmt 1 view .LVU160
 683 006c 6422     		movs	r2, #100
 684 006e FF21     		movs	r1, #255
 685 0070 23A8     		add	r0, sp, #140
 686 0072 FFF7FEFF 		bl	memset
 687              	.LVL58:
 173:App/Src/control.c **** 		flash_read_data(address, buffer, MAX_CHIP_NUMBER);
 688              		.loc 1 173 3 view .LVU161
 174:App/Src/control.c **** 		count = 0;
 689              		.loc 1 174 3 view .LVU162
 690 0076 6422     		movs	r2, #100
 691 0078 23A9     		add	r1, sp, #140
 692 007a 2002     		lsls	r0, r4, #8
 693              	.LVL59:
 174:App/Src/control.c **** 		count = 0;
 694              		.loc 1 174 3 is_stmt 0 view .LVU163
 695 007c FFF7FEFF 		bl	flash_read_data
 696              	.LVL60:
 175:App/Src/control.c **** 		for (i = 0; i < MAX_CHIP_NUMBER ; i++) {
 697              		.loc 1 175 3 is_stmt 1 view .LVU164
 176:App/Src/control.c **** 			if (j == 1) {
 698              		.loc 1 176 3 view .LVU165
 175:App/Src/control.c **** 		for (i = 0; i < MAX_CHIP_NUMBER ; i++) {
 699              		.loc 1 175 9 is_stmt 0 view .LVU166
 700 0080 2946     		mov	r1, r5
 176:App/Src/control.c **** 			if (j == 1) {
 701              		.loc 1 176 10 view .LVU167
 702 0082 0023     		movs	r3, #0
 176:App/Src/control.c **** 			if (j == 1) {
 703              		.loc 1 176 3 view .LVU168
 704 0084 DCE7     		b	.L28
 705              	.LVL61:
 706              	.L41:
 188:App/Src/control.c **** 			return;
 707              		.loc 1 188 4 is_stmt 1 view .LVU169
 188:App/Src/control.c **** 			return;
 708              		.loc 1 188 93 is_stmt 0 view .LVU170
 709 0086 04EB8404 		add	r4, r4, r4, lsl #2
 710              	.LVL62:
 188:App/Src/control.c **** 			return;
 711              		.loc 1 188 93 view .LVU171
 712 008a A300     		lsls	r3, r4, #2
 713              	.LVL63:
 188:App/Src/control.c **** 			return;
 714              		.loc 1 188 4 view .LVU172
 715 008c 6B44     		add	r3, r3, sp
 716 008e 6422     		movs	r2, #100
 717 0090 3146     		mov	r1, r6
 718              	.LVL64:
 188:App/Src/control.c **** 			return;
 719              		.loc 1 188 4 view .LVU173
 720 0092 0A48     		ldr	r0, .L43+12
 721 0094 FFF7FEFF 		bl	ControlPrintf
 722              	.LVL65:
 189:App/Src/control.c **** 		} else {
 723              		.loc 1 189 4 is_stmt 1 view .LVU174
ARM GAS  C:\Users\86158\AppData\Local\Temp\ccpR4zoP.s 			page 18


 724 0098 08E0     		b	.L25
 725              	.LVL66:
 726              	.L42:
 192:App/Src/control.c **** 		}
 193:App/Src/control.c **** 	}
 194:App/Src/control.c **** 	ControlPrintf("okNumber:%d chipName:%d message:%s\n", lastCount, MAX_CHIP_NUMBER, message[j]);
 727              		.loc 1 194 2 view .LVU175
 728              		.loc 1 194 91 is_stmt 0 view .LVU176
 729 009a 04EB8404 		add	r4, r4, r4, lsl #2
 730              	.LVL67:
 731              		.loc 1 194 91 view .LVU177
 732 009e A300     		lsls	r3, r4, #2
 733              		.loc 1 194 2 view .LVU178
 734 00a0 6B44     		add	r3, r3, sp
 735 00a2 6422     		movs	r2, #100
 736 00a4 3146     		mov	r1, r6
 737 00a6 0548     		ldr	r0, .L43+12
 738 00a8 FFF7FEFF 		bl	ControlPrintf
 739              	.LVL68:
 740              	.L25:
 195:App/Src/control.c **** }
 741              		.loc 1 195 1 view .LVU179
 742 00ac 3CB0     		add	sp, sp, #240
 743              	.LCFI13:
 744              		.cfi_def_cfa_offset 16
 745              		@ sp needed
 746 00ae 70BD     		pop	{r4, r5, r6, pc}
 747              	.L44:
 748              		.align	2
 749              	.L43:
 750 00b0 00000000 		.word	.LANCHOR3
 751 00b4 00000000 		.word	.LANCHOR4
 752 00b8 00000000 		.word	.LC10
 753 00bc 1C000000 		.word	.LC11
 754              		.cfi_endproc
 755              	.LFE242:
 757              		.section	.rodata.OPERATE_ERASE_FLASH_Handle.str1.4,"aMS",%progbits,1
 758              		.align	2
 759              	.LC12:
 760 0000 6D657373 		.ascii	"message:\307\345\277\325\322\354\263\243\243\254\307"
 760      6167653A 
 760      C7E5BFD5 
 760      D2ECB3A3 
 760      A3ACC7
 761 0013 EBD6D8CA 		.ascii	"\353\326\330\312\324\012\000"
 761      D40A00
 762 001a 0000     		.align	2
 763              	.LC13:
 764 001c 6D657373 		.ascii	"message:\277\252\312\274\307\345\277\325\312\375\276"
 764      6167653A 
 764      BFAACABC 
 764      C7E5BFD5 
 764      CAFDBE
 765 002f DD0A00   		.ascii	"\335\012\000"
 766 0032 0000     		.align	2
 767              	.LC14:
 768 0034 65617273 		.ascii	"earse full chip need 40s ~ 200s\012\000"
ARM GAS  C:\Users\86158\AppData\Local\Temp\ccpR4zoP.s 			page 19


 768      65206675 
 768      6C6C2063 
 768      68697020 
 768      6E656564 
 769              		.section	.text.OPERATE_ERASE_FLASH_Handle,"ax",%progbits
 770              		.align	1
 771              		.global	OPERATE_ERASE_FLASH_Handle
 772              		.syntax unified
 773              		.thumb
 774              		.thumb_func
 776              	OPERATE_ERASE_FLASH_Handle:
 777              	.LFB243:
 196:App/Src/control.c **** 
 197:App/Src/control.c **** void OPERATE_ERASE_FLASH_Handle(void)
 198:App/Src/control.c **** {
 778              		.loc 1 198 1 is_stmt 1 view -0
 779              		.cfi_startproc
 780              		@ args = 0, pretend = 0, frame = 0
 781              		@ frame_needed = 0, uses_anonymous_args = 0
 782 0000 08B5     		push	{r3, lr}
 783              	.LCFI14:
 784              		.cfi_def_cfa_offset 8
 785              		.cfi_offset 3, -8
 786              		.cfi_offset 14, -4
 199:App/Src/control.c **** 	HAL_Delay(200);
 787              		.loc 1 199 2 view .LVU181
 788 0002 C820     		movs	r0, #200
 789 0004 FFF7FEFF 		bl	HAL_Delay
 790              	.LVL69:
 200:App/Src/control.c **** 	if (flash_erase(0, 0) != 1) {//全片擦除
 791              		.loc 1 200 2 view .LVU182
 792              		.loc 1 200 6 is_stmt 0 view .LVU183
 793 0008 0021     		movs	r1, #0
 794 000a 0846     		mov	r0, r1
 795 000c FFF7FEFF 		bl	flash_erase
 796              	.LVL70:
 797              		.loc 1 200 5 view .LVU184
 798 0010 0128     		cmp	r0, #1
 799 0012 03D0     		beq	.L46
 201:App/Src/control.c ****         ControlPrintf("message:清空异常，请重试\n");
 800              		.loc 1 201 9 is_stmt 1 view .LVU185
 801 0014 0648     		ldr	r0, .L49
 802 0016 FFF7FEFF 		bl	ControlPrintf
 803              	.LVL71:
 202:App/Src/control.c **** 		return;
 804              		.loc 1 202 3 view .LVU186
 805              	.L45:
 203:App/Src/control.c ****     }
 204:App/Src/control.c **** 	ControlPrintf("message:开始清空数据\n");
 205:App/Src/control.c **** 	UsbPrintf("earse full chip need 40s ~ 200s\n");
 206:App/Src/control.c **** 	g_earseFlash = 1;
 207:App/Src/control.c **** }
 806              		.loc 1 207 1 is_stmt 0 view .LVU187
 807 001a 08BD     		pop	{r3, pc}
 808              	.L46:
 204:App/Src/control.c **** 	UsbPrintf("earse full chip need 40s ~ 200s\n");
 809              		.loc 1 204 2 is_stmt 1 view .LVU188
ARM GAS  C:\Users\86158\AppData\Local\Temp\ccpR4zoP.s 			page 20


 810 001c 0548     		ldr	r0, .L49+4
 811 001e FFF7FEFF 		bl	ControlPrintf
 812              	.LVL72:
 205:App/Src/control.c **** 	g_earseFlash = 1;
 813              		.loc 1 205 2 view .LVU189
 814 0022 0548     		ldr	r0, .L49+8
 815 0024 FFF7FEFF 		bl	UsbPrintf
 816              	.LVL73:
 206:App/Src/control.c **** }
 817              		.loc 1 206 2 view .LVU190
 206:App/Src/control.c **** }
 818              		.loc 1 206 15 is_stmt 0 view .LVU191
 819 0028 044B     		ldr	r3, .L49+12
 820 002a 0122     		movs	r2, #1
 821 002c 1A70     		strb	r2, [r3]
 822 002e F4E7     		b	.L45
 823              	.L50:
 824              		.align	2
 825              	.L49:
 826 0030 00000000 		.word	.LC12
 827 0034 1C000000 		.word	.LC13
 828 0038 34000000 		.word	.LC14
 829 003c 00000000 		.word	.LANCHOR4
 830              		.cfi_endproc
 831              	.LFE243:
 833              		.section	.rodata.CheckFlashEarse.str1.4,"aMS",%progbits,1
 834              		.align	2
 835              	.LC15:
 836 0000 77616974 		.ascii	"wait for %ds...\012\000"
 836      20666F72 
 836      20256473 
 836      2E2E2E0A 
 836      00
 837 0011 000000   		.align	2
 838              	.LC16:
 839 0014 6D657373 		.ascii	"message:\307\353\265\310\264\375,\322\321\275\370\320"
 839      6167653A 
 839      C7EBB5C8 
 839      B4FD2CD2 
 839      D1BDF8D0 
 840 0028 D0256473 		.ascii	"\320%ds\012\000"
 840      0A00
 841 002e 0000     		.align	2
 842              	.LC17:
 843 0030 6F6B4E75 		.ascii	"okNumber:%d chipName:%d message:\307\345\277\325\322"
 843      6D626572 
 843      3A256420 
 843      63686970 
 843      4E616D65 
 844 0055 D1CDEAB3 		.ascii	"\321\315\352\263\311\243\241\012\000"
 844      C9A3A10A 
 844      00
 845              		.section	.text.CheckFlashEarse,"ax",%progbits
 846              		.align	1
 847              		.global	CheckFlashEarse
 848              		.syntax unified
 849              		.thumb
ARM GAS  C:\Users\86158\AppData\Local\Temp\ccpR4zoP.s 			page 21


 850              		.thumb_func
 852              	CheckFlashEarse:
 853              	.LFB244:
 208:App/Src/control.c **** 
 209:App/Src/control.c **** void CheckFlashEarse(void)
 210:App/Src/control.c **** {
 854              		.loc 1 210 1 is_stmt 1 view -0
 855              		.cfi_startproc
 856              		@ args = 0, pretend = 0, frame = 0
 857              		@ frame_needed = 0, uses_anonymous_args = 0
 858 0000 38B5     		push	{r3, r4, r5, lr}
 859              	.LCFI15:
 860              		.cfi_def_cfa_offset 16
 861              		.cfi_offset 3, -16
 862              		.cfi_offset 4, -12
 863              		.cfi_offset 5, -8
 864              		.cfi_offset 14, -4
 211:App/Src/control.c **** 	static uint32_t lastTick = 0;
 865              		.loc 1 211 2 view .LVU193
 212:App/Src/control.c **** 	static uint32_t usedTime = 0;
 866              		.loc 1 212 2 view .LVU194
 213:App/Src/control.c **** 	if (g_earseFlash == 1) {
 867              		.loc 1 213 2 view .LVU195
 868              		.loc 1 213 19 is_stmt 0 view .LVU196
 869 0002 224B     		ldr	r3, .L57
 870 0004 1B78     		ldrb	r3, [r3]	@ zero_extendqisi2
 871              		.loc 1 213 5 view .LVU197
 872 0006 012B     		cmp	r3, #1
 873 0008 02D0     		beq	.L55
 214:App/Src/control.c **** 		g_earseFlash = 2;
 215:App/Src/control.c **** 		lastTick = HAL_GetTick();
 216:App/Src/control.c **** 		usedTime = 0;
 217:App/Src/control.c **** 	} else if (g_earseFlash == 2) {
 874              		.loc 1 217 9 is_stmt 1 view .LVU198
 875              		.loc 1 217 12 is_stmt 0 view .LVU199
 876 000a 022B     		cmp	r3, #2
 877 000c 0BD0     		beq	.L56
 878              	.L51:
 218:App/Src/control.c **** 		if (HAL_GetTick() < lastTick + 2000) { return; }
 219:App/Src/control.c **** 		usedTime += HAL_GetTick() - lastTick;
 220:App/Src/control.c **** 		lastTick = HAL_GetTick();
 221:App/Src/control.c **** 		UsbPrintf("wait for %ds...\n", usedTime / 1000);
 222:App/Src/control.c **** 		ControlPrintf("message:请等待,已进行%ds\n", usedTime / 1000);
 223:App/Src/control.c **** 		if (CheckBusy() == 1) {
 224:App/Src/control.c **** 			log_list_init(); 
 225:App/Src/control.c **** 			ControlPrintf("okNumber:%d chipName:%d message:清空已完成！\n", MAX_CHIP_NUMBER, MAX_CHIP_NUMBER
 226:App/Src/control.c **** 			g_earseFlash = 0;
 227:App/Src/control.c **** 		}
 228:App/Src/control.c **** 	}
 229:App/Src/control.c **** }
 879              		.loc 1 229 1 view .LVU200
 880 000e 38BD     		pop	{r3, r4, r5, pc}
 881              	.L55:
 214:App/Src/control.c **** 		g_earseFlash = 2;
 882              		.loc 1 214 3 is_stmt 1 view .LVU201
 214:App/Src/control.c **** 		g_earseFlash = 2;
 883              		.loc 1 214 16 is_stmt 0 view .LVU202
ARM GAS  C:\Users\86158\AppData\Local\Temp\ccpR4zoP.s 			page 22


 884 0010 1E4B     		ldr	r3, .L57
 885 0012 0222     		movs	r2, #2
 886 0014 1A70     		strb	r2, [r3]
 215:App/Src/control.c **** 		usedTime = 0;
 887              		.loc 1 215 3 is_stmt 1 view .LVU203
 215:App/Src/control.c **** 		usedTime = 0;
 888              		.loc 1 215 14 is_stmt 0 view .LVU204
 889 0016 FFF7FEFF 		bl	HAL_GetTick
 890              	.LVL74:
 215:App/Src/control.c **** 		usedTime = 0;
 891              		.loc 1 215 12 view .LVU205
 892 001a 1D4B     		ldr	r3, .L57+4
 893 001c 1860     		str	r0, [r3]
 216:App/Src/control.c **** 	} else if (g_earseFlash == 2) {
 894              		.loc 1 216 3 is_stmt 1 view .LVU206
 216:App/Src/control.c **** 	} else if (g_earseFlash == 2) {
 895              		.loc 1 216 12 is_stmt 0 view .LVU207
 896 001e 1D4B     		ldr	r3, .L57+8
 897 0020 0022     		movs	r2, #0
 898 0022 1A60     		str	r2, [r3]
 899 0024 F3E7     		b	.L51
 900              	.L56:
 218:App/Src/control.c **** 		if (HAL_GetTick() < lastTick + 2000) { return; }
 901              		.loc 1 218 3 is_stmt 1 view .LVU208
 218:App/Src/control.c **** 		if (HAL_GetTick() < lastTick + 2000) { return; }
 902              		.loc 1 218 7 is_stmt 0 view .LVU209
 903 0026 FFF7FEFF 		bl	HAL_GetTick
 904              	.LVL75:
 218:App/Src/control.c **** 		if (HAL_GetTick() < lastTick + 2000) { return; }
 905              		.loc 1 218 32 view .LVU210
 906 002a 194B     		ldr	r3, .L57+4
 907 002c 1B68     		ldr	r3, [r3]
 908 002e 03F5FA63 		add	r3, r3, #2000
 218:App/Src/control.c **** 		if (HAL_GetTick() < lastTick + 2000) { return; }
 909              		.loc 1 218 6 view .LVU211
 910 0032 9842     		cmp	r0, r3
 911 0034 EBD3     		bcc	.L51
 219:App/Src/control.c **** 		lastTick = HAL_GetTick();
 912              		.loc 1 219 3 is_stmt 1 view .LVU212
 219:App/Src/control.c **** 		lastTick = HAL_GetTick();
 913              		.loc 1 219 15 is_stmt 0 view .LVU213
 914 0036 FFF7FEFF 		bl	HAL_GetTick
 915              	.LVL76:
 219:App/Src/control.c **** 		lastTick = HAL_GetTick();
 916              		.loc 1 219 29 view .LVU214
 917 003a 154D     		ldr	r5, .L57+4
 918 003c 2B68     		ldr	r3, [r5]
 919 003e C01A     		subs	r0, r0, r3
 219:App/Src/control.c **** 		lastTick = HAL_GetTick();
 920              		.loc 1 219 12 view .LVU215
 921 0040 144C     		ldr	r4, .L57+8
 922 0042 2368     		ldr	r3, [r4]
 923 0044 0344     		add	r3, r3, r0
 924 0046 2360     		str	r3, [r4]
 220:App/Src/control.c **** 		UsbPrintf("wait for %ds...\n", usedTime / 1000);
 925              		.loc 1 220 3 is_stmt 1 view .LVU216
 220:App/Src/control.c **** 		UsbPrintf("wait for %ds...\n", usedTime / 1000);
ARM GAS  C:\Users\86158\AppData\Local\Temp\ccpR4zoP.s 			page 23


 926              		.loc 1 220 14 is_stmt 0 view .LVU217
 927 0048 FFF7FEFF 		bl	HAL_GetTick
 928              	.LVL77:
 220:App/Src/control.c **** 		UsbPrintf("wait for %ds...\n", usedTime / 1000);
 929              		.loc 1 220 12 view .LVU218
 930 004c 2860     		str	r0, [r5]
 221:App/Src/control.c **** 		ControlPrintf("message:请等待,已进行%ds\n", usedTime / 1000);
 931              		.loc 1 221 3 is_stmt 1 view .LVU219
 932 004e 2168     		ldr	r1, [r4]
 933 0050 114D     		ldr	r5, .L57+12
 934 0052 A5FB0131 		umull	r3, r1, r5, r1
 935 0056 8909     		lsrs	r1, r1, #6
 936 0058 1048     		ldr	r0, .L57+16
 937 005a FFF7FEFF 		bl	UsbPrintf
 938              	.LVL78:
 222:App/Src/control.c **** 		if (CheckBusy() == 1) {
 939              		.loc 1 222 3 view .LVU220
 940 005e 2168     		ldr	r1, [r4]
 941 0060 A5FB0131 		umull	r3, r1, r5, r1
 942 0064 8909     		lsrs	r1, r1, #6
 943 0066 0E48     		ldr	r0, .L57+20
 944 0068 FFF7FEFF 		bl	ControlPrintf
 945              	.LVL79:
 223:App/Src/control.c **** 			log_list_init(); 
 946              		.loc 1 223 3 view .LVU221
 223:App/Src/control.c **** 			log_list_init(); 
 947              		.loc 1 223 7 is_stmt 0 view .LVU222
 948 006c FFF7FEFF 		bl	CheckBusy
 949              	.LVL80:
 223:App/Src/control.c **** 			log_list_init(); 
 950              		.loc 1 223 6 view .LVU223
 951 0070 0128     		cmp	r0, #1
 952 0072 CCD1     		bne	.L51
 224:App/Src/control.c **** 			ControlPrintf("okNumber:%d chipName:%d message:清空已完成！\n", MAX_CHIP_NUMBER, MAX_CHIP_NUMBER
 953              		.loc 1 224 4 is_stmt 1 view .LVU224
 954 0074 FFF7FEFF 		bl	log_list_init
 955              	.LVL81:
 225:App/Src/control.c **** 			g_earseFlash = 0;
 956              		.loc 1 225 4 view .LVU225
 957 0078 6422     		movs	r2, #100
 958 007a 1146     		mov	r1, r2
 959 007c 0948     		ldr	r0, .L57+24
 960 007e FFF7FEFF 		bl	ControlPrintf
 961              	.LVL82:
 226:App/Src/control.c **** 		}
 962              		.loc 1 226 4 view .LVU226
 226:App/Src/control.c **** 		}
 963              		.loc 1 226 17 is_stmt 0 view .LVU227
 964 0082 024B     		ldr	r3, .L57
 965 0084 0022     		movs	r2, #0
 966 0086 1A70     		strb	r2, [r3]
 967 0088 C1E7     		b	.L51
 968              	.L58:
 969 008a 00BF     		.align	2
 970              	.L57:
 971 008c 00000000 		.word	.LANCHOR4
 972 0090 00000000 		.word	.LANCHOR5
ARM GAS  C:\Users\86158\AppData\Local\Temp\ccpR4zoP.s 			page 24


 973 0094 00000000 		.word	.LANCHOR6
 974 0098 D34D6210 		.word	274877907
 975 009c 00000000 		.word	.LC15
 976 00a0 14000000 		.word	.LC16
 977 00a4 30000000 		.word	.LC17
 978              		.cfi_endproc
 979              	.LFE244:
 981              		.section	.rodata.OPERATE_IIC_TEST_Handle.str1.4,"aMS",%progbits,1
 982              		.align	2
 983              	.LC18:
 984 0000 6F6B4E75 		.ascii	"okNumber:0 chipName:0 message:\277\252\312\274iic\266"
 984      6D626572 
 984      3A302063 
 984      6869704E 
 984      616D653A 
 985 0026 C1C8A10A 		.ascii	"\301\310\241\012\000"
 985      00
 986 002b 00       		.align	2
 987              	.LC19:
 988 002c 6F6B4E75 		.ascii	"okNumber:%d chipName:%d message:\322\321\315\352\263"
 988      6D626572 
 988      3A256420 
 988      63686970 
 988      4E616D65 
 989 0051 C9A3A10A 		.ascii	"\311\243\241\012\000"
 989      00
 990              		.section	.text.OPERATE_IIC_TEST_Handle,"ax",%progbits
 991              		.align	1
 992              		.global	OPERATE_IIC_TEST_Handle
 993              		.syntax unified
 994              		.thumb
 995              		.thumb_func
 997              	OPERATE_IIC_TEST_Handle:
 998              	.LFB245:
 230:App/Src/control.c **** 
 231:App/Src/control.c **** 
 232:App/Src/control.c **** void OPERATE_IIC_TEST_Handle(void)
 233:App/Src/control.c **** {
 999              		.loc 1 233 1 is_stmt 1 view -0
 1000              		.cfi_startproc
 1001              		@ args = 0, pretend = 0, frame = 8
 1002              		@ frame_needed = 0, uses_anonymous_args = 0
 1003 0000 30B5     		push	{r4, r5, lr}
 1004              	.LCFI16:
 1005              		.cfi_def_cfa_offset 12
 1006              		.cfi_offset 4, -12
 1007              		.cfi_offset 5, -8
 1008              		.cfi_offset 14, -4
 1009 0002 83B0     		sub	sp, sp, #12
 1010              	.LCFI17:
 1011              		.cfi_def_cfa_offset 24
 234:App/Src/control.c **** 	int i = 0;
 1012              		.loc 1 234 2 view .LVU229
 1013              	.LVL83:
 235:App/Src/control.c **** 	uint8_t count = 0;
 1014              		.loc 1 235 2 view .LVU230
 236:App/Src/control.c **** 	uint8_t buffer;
ARM GAS  C:\Users\86158\AppData\Local\Temp\ccpR4zoP.s 			page 25


 1015              		.loc 1 236 2 view .LVU231
 237:App/Src/control.c **** 	ControlPrintf("okNumber:0 chipName:0 message:开始iic读取\n");
 1016              		.loc 1 237 2 view .LVU232
 1017 0004 1148     		ldr	r0, .L65
 1018 0006 FFF7FEFF 		bl	ControlPrintf
 1019              	.LVL84:
 238:App/Src/control.c **** 	for (i = 1; i <= MAX_CHIP_NUMBER; i++) {
 1020              		.loc 1 238 2 view .LVU233
 235:App/Src/control.c **** 	uint8_t buffer;
 1021              		.loc 1 235 10 is_stmt 0 view .LVU234
 1022 000a 0025     		movs	r5, #0
 1023              		.loc 1 238 9 view .LVU235
 1024 000c 0124     		movs	r4, #1
 1025              		.loc 1 238 2 view .LVU236
 1026 000e 00E0     		b	.L60
 1027              	.LVL85:
 1028              	.L61:
 1029              		.loc 1 238 36 is_stmt 1 discriminator 2 view .LVU237
 1030              		.loc 1 238 37 is_stmt 0 discriminator 2 view .LVU238
 1031 0010 0134     		adds	r4, r4, #1
 1032              	.LVL86:
 1033              	.L60:
 1034              		.loc 1 238 14 is_stmt 1 discriminator 1 view .LVU239
 1035              		.loc 1 238 2 is_stmt 0 discriminator 1 view .LVU240
 1036 0012 642C     		cmp	r4, #100
 1037 0014 12DC     		bgt	.L64
 239:App/Src/control.c **** 		rtc_group_power(i, POWER_I2C);
 1038              		.loc 1 239 3 is_stmt 1 view .LVU241
 1039 0016 0121     		movs	r1, #1
 1040 0018 E0B2     		uxtb	r0, r4
 1041 001a FFF7FEFF 		bl	rtc_group_power
 1042              	.LVL87:
 240:App/Src/control.c **** 		HAL_Delay(5);
 1043              		.loc 1 240 3 view .LVU242
 1044 001e 0520     		movs	r0, #5
 1045 0020 FFF7FEFF 		bl	HAL_Delay
 1046              	.LVL88:
 241:App/Src/control.c **** 		if (rtc_read_multi_bytes(0x64, 0x00, &buffer, 8) == I2C_OK) {
 1047              		.loc 1 241 3 view .LVU243
 1048              		.loc 1 241 7 is_stmt 0 view .LVU244
 1049 0024 0823     		movs	r3, #8
 1050 0026 0DF10702 		add	r2, sp, #7
 1051 002a 0021     		movs	r1, #0
 1052 002c 6420     		movs	r0, #100
 1053 002e FFF7FEFF 		bl	rtc_read_multi_bytes
 1054              	.LVL89:
 1055              		.loc 1 241 6 view .LVU245
 1056 0032 0028     		cmp	r0, #0
 1057 0034 ECD1     		bne	.L61
 242:App/Src/control.c **** 			count++;
 1058              		.loc 1 242 4 is_stmt 1 view .LVU246
 1059              		.loc 1 242 9 is_stmt 0 view .LVU247
 1060 0036 0135     		adds	r5, r5, #1
 1061              	.LVL90:
 1062              		.loc 1 242 9 view .LVU248
 1063 0038 EDB2     		uxtb	r5, r5
 1064              	.LVL91:
ARM GAS  C:\Users\86158\AppData\Local\Temp\ccpR4zoP.s 			page 26


 1065              		.loc 1 242 9 view .LVU249
 1066 003a E9E7     		b	.L61
 1067              	.L64:
 243:App/Src/control.c **** 		}
 244:App/Src/control.c **** 	}
 245:App/Src/control.c **** 	ControlPrintf("okNumber:%d chipName:%d message:已完成！\n", count, MAX_CHIP_NUMBER);
 1068              		.loc 1 245 2 is_stmt 1 view .LVU250
 1069 003c 6422     		movs	r2, #100
 1070 003e 2946     		mov	r1, r5
 1071 0040 0348     		ldr	r0, .L65+4
 1072 0042 FFF7FEFF 		bl	ControlPrintf
 1073              	.LVL92:
 246:App/Src/control.c **** }
 1074              		.loc 1 246 1 is_stmt 0 view .LVU251
 1075 0046 03B0     		add	sp, sp, #12
 1076              	.LCFI18:
 1077              		.cfi_def_cfa_offset 12
 1078              		@ sp needed
 1079 0048 30BD     		pop	{r4, r5, pc}
 1080              	.LVL93:
 1081              	.L66:
 1082              		.loc 1 246 1 view .LVU252
 1083 004a 00BF     		.align	2
 1084              	.L65:
 1085 004c 00000000 		.word	.LC18
 1086 0050 2C000000 		.word	.LC19
 1087              		.cfi_endproc
 1088              	.LFE245:
 1090              		.section	.rodata.OPERATE_READ_TEMP_Handle.str1.4,"aMS",%progbits,1
 1091              		.align	2
 1092              	.LC20:
 1093 0000 6F6B4E75 		.ascii	"okNumber:0 chipName:0 message:\277\252\312\274\316\302"
 1093      6D626572 
 1093      3A302063 
 1093      6869704E 
 1093      616D653A 
 1094 0024 B6C8B6C1 		.ascii	"\266\310\266\301\310\241\012\000"
 1094      C8A10A00 
 1095              		.align	2
 1096              	.LC21:
 1097 002c 6F6B4E75 		.ascii	"okNumber:%d chipName:%d message:\266\340\312\375[%d"
 1097      6D626572 
 1097      3A256420 
 1097      63686970 
 1097      4E616D65 
 1098 0053 A1E65D3A 		.ascii	"\241\346]:%d\270\366\012\000"
 1098      2564B8F6 
 1098      0A00
 1099              		.section	.text.OPERATE_READ_TEMP_Handle,"ax",%progbits
 1100              		.align	1
 1101              		.global	OPERATE_READ_TEMP_Handle
 1102              		.syntax unified
 1103              		.thumb
 1104              		.thumb_func
 1106              	OPERATE_READ_TEMP_Handle:
 1107              	.LFB246:
 247:App/Src/control.c **** 
ARM GAS  C:\Users\86158\AppData\Local\Temp\ccpR4zoP.s 			page 27


 248:App/Src/control.c **** void OPERATE_READ_TEMP_Handle(void)
 249:App/Src/control.c **** {
 1108              		.loc 1 249 1 is_stmt 1 view -0
 1109              		.cfi_startproc
 1110              		@ args = 0, pretend = 0, frame = 360
 1111              		@ frame_needed = 0, uses_anonymous_args = 0
 1112 0000 30B5     		push	{r4, r5, lr}
 1113              	.LCFI19:
 1114              		.cfi_def_cfa_offset 12
 1115              		.cfi_offset 4, -12
 1116              		.cfi_offset 5, -8
 1117              		.cfi_offset 14, -4
 1118 0002 DDB0     		sub	sp, sp, #372
 1119              	.LCFI20:
 1120              		.cfi_def_cfa_offset 384
 250:App/Src/control.c **** 	int i = 0;
 1121              		.loc 1 250 2 view .LVU254
 1122              	.LVL94:
 251:App/Src/control.c **** 	uint8_t count = 0;
 1123              		.loc 1 251 2 view .LVU255
 252:App/Src/control.c **** 	uint8_t buffer[256] = {0};
 1124              		.loc 1 252 2 view .LVU256
 1125              		.loc 1 252 10 is_stmt 0 view .LVU257
 1126 0004 0025     		movs	r5, #0
 1127 0006 1C95     		str	r5, [sp, #112]
 1128 0008 FC22     		movs	r2, #252
 1129 000a 2946     		mov	r1, r5
 1130 000c 1DA8     		add	r0, sp, #116
 1131 000e FFF7FEFF 		bl	memset
 1132              	.LVL95:
 253:App/Src/control.c **** 	uint8_t temp[MAX_CHIP_NUMBER] = {0};
 1133              		.loc 1 253 2 is_stmt 1 view .LVU258
 1134              		.loc 1 253 10 is_stmt 0 view .LVU259
 1135 0012 0395     		str	r5, [sp, #12]
 1136 0014 6022     		movs	r2, #96
 1137 0016 2946     		mov	r1, r5
 1138 0018 04A8     		add	r0, sp, #16
 1139 001a FFF7FEFF 		bl	memset
 1140              	.LVL96:
 254:App/Src/control.c **** 	uint8_t maxCount = 0;
 1141              		.loc 1 254 2 is_stmt 1 view .LVU260
 255:App/Src/control.c **** 	int maxIndex = 0;
 1142              		.loc 1 255 2 view .LVU261
 256:App/Src/control.c **** 
 257:App/Src/control.c **** 	ControlPrintf("okNumber:0 chipName:0 message:开始温度读取\n");
 1143              		.loc 1 257 2 view .LVU262
 1144 001e 1C48     		ldr	r0, .L79
 1145 0020 FFF7FEFF 		bl	ControlPrintf
 1146              	.LVL97:
 258:App/Src/control.c **** 	for (i = 1; i <= MAX_CHIP_NUMBER; i++) {
 1147              		.loc 1 258 2 view .LVU263
 1148              		.loc 1 258 9 is_stmt 0 view .LVU264
 1149 0024 0124     		movs	r4, #1
 1150              		.loc 1 258 2 view .LVU265
 1151 0026 00E0     		b	.L68
 1152              	.LVL98:
 1153              	.L69:
ARM GAS  C:\Users\86158\AppData\Local\Temp\ccpR4zoP.s 			page 28


 1154              		.loc 1 258 36 is_stmt 1 discriminator 2 view .LVU266
 1155              		.loc 1 258 37 is_stmt 0 discriminator 2 view .LVU267
 1156 0028 0134     		adds	r4, r4, #1
 1157              	.LVL99:
 1158              	.L68:
 1159              		.loc 1 258 14 is_stmt 1 discriminator 1 view .LVU268
 1160              		.loc 1 258 2 is_stmt 0 discriminator 1 view .LVU269
 1161 002a 642C     		cmp	r4, #100
 1162 002c 15DC     		bgt	.L77
 259:App/Src/control.c **** 		rtc_group_power(i, POWER_I2C);
 1163              		.loc 1 259 3 is_stmt 1 view .LVU270
 1164 002e 0121     		movs	r1, #1
 1165 0030 E0B2     		uxtb	r0, r4
 1166 0032 FFF7FEFF 		bl	rtc_group_power
 1167              	.LVL100:
 260:App/Src/control.c **** 		HAL_Delay(5);
 1168              		.loc 1 260 3 view .LVU271
 1169 0036 0520     		movs	r0, #5
 1170 0038 FFF7FEFF 		bl	HAL_Delay
 1171              	.LVL101:
 261:App/Src/control.c **** 		if (rtc_read_temp(&temp[i]) == I2C_OK) {
 1172              		.loc 1 261 3 view .LVU272
 1173              		.loc 1 261 7 is_stmt 0 view .LVU273
 1174 003c 03AB     		add	r3, sp, #12
 1175 003e 1819     		adds	r0, r3, r4
 1176 0040 FFF7FEFF 		bl	rtc_read_temp
 1177              	.LVL102:
 1178              		.loc 1 261 6 view .LVU274
 1179 0044 0028     		cmp	r0, #0
 1180 0046 EFD1     		bne	.L69
 262:App/Src/control.c **** 			count++;
 1181              		.loc 1 262 4 is_stmt 1 view .LVU275
 1182              		.loc 1 262 9 is_stmt 0 view .LVU276
 1183 0048 0135     		adds	r5, r5, #1
 1184              	.LVL103:
 1185              		.loc 1 262 9 view .LVU277
 1186 004a EDB2     		uxtb	r5, r5
 1187              	.LVL104:
 263:App/Src/control.c **** 			buffer[temp[i]]++;
 1188              		.loc 1 263 4 is_stmt 1 view .LVU278
 1189              		.loc 1 263 15 is_stmt 0 view .LVU279
 1190 004c 03AB     		add	r3, sp, #12
 1191 004e 1A5D     		ldrb	r2, [r3, r4]	@ zero_extendqisi2
 1192              		.loc 1 263 10 view .LVU280
 1193 0050 1CA9     		add	r1, sp, #112
 1194 0052 8B5C     		ldrb	r3, [r1, r2]	@ zero_extendqisi2
 1195              		.loc 1 263 19 view .LVU281
 1196 0054 0133     		adds	r3, r3, #1
 1197 0056 8B54     		strb	r3, [r1, r2]
 1198 0058 E6E7     		b	.L69
 1199              	.L77:
 255:App/Src/control.c **** 
 1200              		.loc 1 255 6 view .LVU282
 1201 005a 0023     		movs	r3, #0
 254:App/Src/control.c **** 	int maxIndex = 0;
 1202              		.loc 1 254 10 view .LVU283
 1203 005c 1C46     		mov	r4, r3
ARM GAS  C:\Users\86158\AppData\Local\Temp\ccpR4zoP.s 			page 29


 1204              	.LVL105:
 264:App/Src/control.c **** 		}
 265:App/Src/control.c **** 	}
 266:App/Src/control.c **** 	for (i = 0; i < 256; i++) {
 1205              		.loc 1 266 9 view .LVU284
 1206 005e 1A46     		mov	r2, r3
 1207 0060 00E0     		b	.L71
 1208              	.LVL106:
 1209              	.L72:
 1210              		.loc 1 266 23 is_stmt 1 discriminator 2 view .LVU285
 1211              		.loc 1 266 24 is_stmt 0 discriminator 2 view .LVU286
 1212 0062 0132     		adds	r2, r2, #1
 1213              	.LVL107:
 1214              	.L71:
 1215              		.loc 1 266 14 is_stmt 1 discriminator 1 view .LVU287
 1216              		.loc 1 266 2 is_stmt 0 discriminator 1 view .LVU288
 1217 0064 FF2A     		cmp	r2, #255
 1218 0066 06DC     		bgt	.L78
 267:App/Src/control.c **** 		if (buffer[i] > maxCount) {
 1219              		.loc 1 267 3 is_stmt 1 view .LVU289
 1220              		.loc 1 267 13 is_stmt 0 view .LVU290
 1221 0068 1CA9     		add	r1, sp, #112
 1222 006a 885C     		ldrb	r0, [r1, r2]	@ zero_extendqisi2
 1223              		.loc 1 267 6 view .LVU291
 1224 006c A042     		cmp	r0, r4
 1225 006e F8D9     		bls	.L72
 268:App/Src/control.c **** 			maxCount = buffer[i];
 269:App/Src/control.c **** 			maxIndex = i;
 1226              		.loc 1 269 13 view .LVU292
 1227 0070 1346     		mov	r3, r2
 1228              	.LVL108:
 268:App/Src/control.c **** 			maxCount = buffer[i];
 1229              		.loc 1 268 13 view .LVU293
 1230 0072 0446     		mov	r4, r0
 1231              	.LVL109:
 268:App/Src/control.c **** 			maxCount = buffer[i];
 1232              		.loc 1 268 13 view .LVU294
 1233 0074 F5E7     		b	.L72
 1234              	.LVL110:
 1235              	.L78:
 270:App/Src/control.c **** 		}
 271:App/Src/control.c **** 	}
 272:App/Src/control.c **** 	if (maxIndex > 200) {//温度值低于0度时，数据转换
 1236              		.loc 1 272 2 is_stmt 1 view .LVU295
 1237              		.loc 1 272 5 is_stmt 0 view .LVU296
 1238 0076 C82B     		cmp	r3, #200
 1239 0078 01DD     		ble	.L74
 273:App/Src/control.c **** 		maxIndex = maxIndex - 256;
 1240              		.loc 1 273 3 is_stmt 1 view .LVU297
 1241              		.loc 1 273 12 is_stmt 0 view .LVU298
 1242 007a A3F58073 		sub	r3, r3, #256
 1243              	.LVL111:
 1244              	.L74:
 274:App/Src/control.c **** 	}
 275:App/Src/control.c **** 	ControlPrintf("okNumber:%d chipName:%d message:多数[%d℃]:%d个\n", count, MAX_CHIP_NUMBER, maxInde
 1245              		.loc 1 275 2 is_stmt 1 view .LVU299
 1246 007e 0094     		str	r4, [sp]
ARM GAS  C:\Users\86158\AppData\Local\Temp\ccpR4zoP.s 			page 30


 1247 0080 6422     		movs	r2, #100
 1248              	.LVL112:
 1249              		.loc 1 275 2 is_stmt 0 view .LVU300
 1250 0082 2946     		mov	r1, r5
 1251 0084 0348     		ldr	r0, .L79+4
 1252 0086 FFF7FEFF 		bl	ControlPrintf
 1253              	.LVL113:
 276:App/Src/control.c **** }
 1254              		.loc 1 276 1 view .LVU301
 1255 008a 5DB0     		add	sp, sp, #372
 1256              	.LCFI21:
 1257              		.cfi_def_cfa_offset 12
 1258              		@ sp needed
 1259 008c 30BD     		pop	{r4, r5, pc}
 1260              	.LVL114:
 1261              	.L80:
 1262              		.loc 1 276 1 view .LVU302
 1263 008e 00BF     		.align	2
 1264              	.L79:
 1265 0090 00000000 		.word	.LC20
 1266 0094 2C000000 		.word	.LC21
 1267              		.cfi_endproc
 1268              	.LFE246:
 1270              		.section	.rodata.OPERATE_CAPADJUST_RESULT_Handle.str1.4,"aMS",%progbits,1
 1271              		.align	2
 1272              	.LC22:
 1273 0000 6F6B4E75 		.ascii	"okNumber:%d chipName:%d message:\266\340\312\375[%0"
 1273      6D626572 
 1273      3A256420 
 1273      63686970 
 1273      4E616D65 
 1274 0027 32585D3A 		.ascii	"2X]:%d\270\366\012\000"
 1274      2564B8F6 
 1274      0A00
 1275              		.section	.text.OPERATE_CAPADJUST_RESULT_Handle,"ax",%progbits
 1276              		.align	1
 1277              		.global	OPERATE_CAPADJUST_RESULT_Handle
 1278              		.syntax unified
 1279              		.thumb
 1280              		.thumb_func
 1282              	OPERATE_CAPADJUST_RESULT_Handle:
 1283              	.LFB247:
 277:App/Src/control.c **** 
 278:App/Src/control.c **** 
 279:App/Src/control.c **** void OPERATE_CAPADJUST_RESULT_Handle(void)
 280:App/Src/control.c **** {
 1284              		.loc 1 280 1 is_stmt 1 view -0
 1285              		.cfi_startproc
 1286              		@ args = 0, pretend = 0, frame = 360
 1287              		@ frame_needed = 0, uses_anonymous_args = 0
 1288 0000 10B5     		push	{r4, lr}
 1289              	.LCFI22:
 1290              		.cfi_def_cfa_offset 8
 1291              		.cfi_offset 4, -8
 1292              		.cfi_offset 14, -4
 1293 0002 DCB0     		sub	sp, sp, #368
 1294              	.LCFI23:
ARM GAS  C:\Users\86158\AppData\Local\Temp\ccpR4zoP.s 			page 31


 1295              		.cfi_def_cfa_offset 376
 281:App/Src/control.c **** 	uint8_t buffer[MAX_CHIP_NUMBER] = {0xff};
 1296              		.loc 1 281 2 view .LVU304
 1297              		.loc 1 281 10 is_stmt 0 view .LVU305
 1298 0004 FF23     		movs	r3, #255
 1299 0006 4393     		str	r3, [sp, #268]
 1300 0008 6022     		movs	r2, #96
 1301 000a 0021     		movs	r1, #0
 1302 000c 44A8     		add	r0, sp, #272
 1303 000e FFF7FEFF 		bl	memset
 1304              	.LVL115:
 282:App/Src/control.c **** 	int i = 0;
 1305              		.loc 1 282 2 is_stmt 1 view .LVU306
 283:App/Src/control.c **** 	uint8_t value[256] = {0};
 1306              		.loc 1 283 2 view .LVU307
 1307              		.loc 1 283 10 is_stmt 0 view .LVU308
 1308 0012 0024     		movs	r4, #0
 1309 0014 0394     		str	r4, [sp, #12]
 1310 0016 FC22     		movs	r2, #252
 1311 0018 2146     		mov	r1, r4
 1312 001a 04A8     		add	r0, sp, #16
 1313 001c FFF7FEFF 		bl	memset
 1314              	.LVL116:
 284:App/Src/control.c **** 	uint8_t maxCount = 0;
 1315              		.loc 1 284 2 is_stmt 1 view .LVU309
 285:App/Src/control.c **** 	int maxIndex = 0;
 1316              		.loc 1 285 2 view .LVU310
 286:App/Src/control.c **** 	uint8_t count = 0;
 1317              		.loc 1 286 2 view .LVU311
 287:App/Src/control.c **** 
 288:App/Src/control.c **** 	flash_read_data(TEST_FALG_START_ADDR + FLAG_TEST_DOT * PAGE_SIZE, buffer, MAX_CHIP_NUMBER);
 1318              		.loc 1 288 2 view .LVU312
 1319 0020 6422     		movs	r2, #100
 1320 0022 43A9     		add	r1, sp, #268
 1321 0024 4FF48070 		mov	r0, #256
 1322 0028 FFF7FEFF 		bl	flash_read_data
 1323              	.LVL117:
 289:App/Src/control.c **** 	for (i = 0; i < MAX_CHIP_NUMBER; i++) {
 1324              		.loc 1 289 2 view .LVU313
 286:App/Src/control.c **** 	uint8_t count = 0;
 1325              		.loc 1 286 10 is_stmt 0 view .LVU314
 1326 002c 2146     		mov	r1, r4
 1327              		.loc 1 289 9 view .LVU315
 1328 002e 2346     		mov	r3, r4
 1329              		.loc 1 289 2 view .LVU316
 1330 0030 00E0     		b	.L82
 1331              	.LVL118:
 1332              	.L83:
 1333              		.loc 1 289 35 is_stmt 1 discriminator 2 view .LVU317
 1334              		.loc 1 289 36 is_stmt 0 discriminator 2 view .LVU318
 1335 0032 0133     		adds	r3, r3, #1
 1336              	.LVL119:
 1337              	.L82:
 1338              		.loc 1 289 14 is_stmt 1 discriminator 1 view .LVU319
 1339              		.loc 1 289 2 is_stmt 0 discriminator 1 view .LVU320
 1340 0034 632B     		cmp	r3, #99
 1341 0036 0DDC     		bgt	.L90
ARM GAS  C:\Users\86158\AppData\Local\Temp\ccpR4zoP.s 			page 32


 290:App/Src/control.c **** 		value[buffer[i]]++;
 1342              		.loc 1 290 3 is_stmt 1 view .LVU321
 1343              		.loc 1 290 15 is_stmt 0 view .LVU322
 1344 0038 03F5B872 		add	r2, r3, #368
 1345 003c 6A44     		add	r2, sp, r2
 1346 003e 12F8642C 		ldrb	r2, [r2, #-100]	@ zero_extendqisi2
 1347              		.loc 1 290 8 view .LVU323
 1348 0042 03AC     		add	r4, sp, #12
 1349 0044 A05C     		ldrb	r0, [r4, r2]	@ zero_extendqisi2
 1350              		.loc 1 290 19 view .LVU324
 1351 0046 0130     		adds	r0, r0, #1
 1352 0048 A054     		strb	r0, [r4, r2]
 291:App/Src/control.c **** 		if (buffer[i] != 0xff) {
 1353              		.loc 1 291 3 is_stmt 1 view .LVU325
 1354              		.loc 1 291 6 is_stmt 0 view .LVU326
 1355 004a FF2A     		cmp	r2, #255
 1356 004c F1D0     		beq	.L83
 292:App/Src/control.c **** 			count++;
 1357              		.loc 1 292 4 is_stmt 1 view .LVU327
 1358              		.loc 1 292 9 is_stmt 0 view .LVU328
 1359 004e 0131     		adds	r1, r1, #1
 1360              	.LVL120:
 1361              		.loc 1 292 9 view .LVU329
 1362 0050 C9B2     		uxtb	r1, r1
 1363              	.LVL121:
 1364              		.loc 1 292 9 view .LVU330
 1365 0052 EEE7     		b	.L83
 1366              	.L90:
 285:App/Src/control.c **** 	uint8_t count = 0;
 1367              		.loc 1 285 6 view .LVU331
 1368 0054 0023     		movs	r3, #0
 1369              	.LVL122:
 284:App/Src/control.c **** 	int maxIndex = 0;
 1370              		.loc 1 284 10 view .LVU332
 1371 0056 1C46     		mov	r4, r3
 293:App/Src/control.c **** 		}
 294:App/Src/control.c **** 	}
 295:App/Src/control.c **** 	for (i = 0; i < 256; i++) {
 1372              		.loc 1 295 9 view .LVU333
 1373 0058 1A46     		mov	r2, r3
 1374 005a 00E0     		b	.L85
 1375              	.LVL123:
 1376              	.L86:
 1377              		.loc 1 295 23 is_stmt 1 discriminator 2 view .LVU334
 1378              		.loc 1 295 24 is_stmt 0 discriminator 2 view .LVU335
 1379 005c 0132     		adds	r2, r2, #1
 1380              	.LVL124:
 1381              	.L85:
 1382              		.loc 1 295 14 is_stmt 1 discriminator 1 view .LVU336
 1383              		.loc 1 295 2 is_stmt 0 discriminator 1 view .LVU337
 1384 005e FF2A     		cmp	r2, #255
 1385 0060 06DC     		bgt	.L91
 296:App/Src/control.c **** 		if (value[i] > maxCount) {
 1386              		.loc 1 296 3 is_stmt 1 view .LVU338
 1387              		.loc 1 296 12 is_stmt 0 view .LVU339
 1388 0062 03A8     		add	r0, sp, #12
 1389 0064 805C     		ldrb	r0, [r0, r2]	@ zero_extendqisi2
ARM GAS  C:\Users\86158\AppData\Local\Temp\ccpR4zoP.s 			page 33


 1390              		.loc 1 296 6 view .LVU340
 1391 0066 A042     		cmp	r0, r4
 1392 0068 F8D9     		bls	.L86
 297:App/Src/control.c **** 			maxCount = value[i];
 298:App/Src/control.c **** 			maxIndex = i;
 1393              		.loc 1 298 13 view .LVU341
 1394 006a 1346     		mov	r3, r2
 1395              	.LVL125:
 297:App/Src/control.c **** 			maxCount = value[i];
 1396              		.loc 1 297 13 view .LVU342
 1397 006c 0446     		mov	r4, r0
 1398              	.LVL126:
 297:App/Src/control.c **** 			maxCount = value[i];
 1399              		.loc 1 297 13 view .LVU343
 1400 006e F5E7     		b	.L86
 1401              	.LVL127:
 1402              	.L91:
 299:App/Src/control.c **** 		}
 300:App/Src/control.c **** 	}
 301:App/Src/control.c **** 	ControlPrintf("okNumber:%d chipName:%d message:多数[%02X]:%d个\n", count, MAX_CHIP_NUMBER, maxInde
 1403              		.loc 1 301 2 is_stmt 1 view .LVU344
 1404 0070 0094     		str	r4, [sp]
 1405 0072 6422     		movs	r2, #100
 1406              	.LVL128:
 1407              		.loc 1 301 2 is_stmt 0 view .LVU345
 1408 0074 0248     		ldr	r0, .L92
 1409 0076 FFF7FEFF 		bl	ControlPrintf
 1410              	.LVL129:
 302:App/Src/control.c **** }
 1411              		.loc 1 302 1 view .LVU346
 1412 007a 5CB0     		add	sp, sp, #368
 1413              	.LCFI24:
 1414              		.cfi_def_cfa_offset 8
 1415              		@ sp needed
 1416 007c 10BD     		pop	{r4, pc}
 1417              	.LVL130:
 1418              	.L93:
 1419              		.loc 1 302 1 view .LVU347
 1420 007e 00BF     		.align	2
 1421              	.L92:
 1422 0080 00000000 		.word	.LC22
 1423              		.cfi_endproc
 1424              	.LFE247:
 1426              		.section	.rodata.OPERATE_RESULT_Handle.str1.4,"aMS",%progbits,1
 1427              		.align	2
 1428              	.LC23:
 1429 0000 6F6B4E75 		.ascii	"okNumber:%d chipName:%d message:\266\301\310\241\315"
 1429      6D626572 
 1429      3A256420 
 1429      63686970 
 1429      4E616D65 
 1430 0025 EAB3C90A 		.ascii	"\352\263\311\012\000"
 1430      00
 1431              		.section	.text.OPERATE_RESULT_Handle,"ax",%progbits
 1432              		.align	1
 1433              		.global	OPERATE_RESULT_Handle
 1434              		.syntax unified
ARM GAS  C:\Users\86158\AppData\Local\Temp\ccpR4zoP.s 			page 34


 1435              		.thumb
 1436              		.thumb_func
 1438              	OPERATE_RESULT_Handle:
 1439              	.LVL131:
 1440              	.LFB248:
 303:App/Src/control.c **** 
 304:App/Src/control.c **** void OPERATE_RESULT_Handle(TestFlagList mode)
 305:App/Src/control.c **** {
 1441              		.loc 1 305 1 is_stmt 1 view -0
 1442              		.cfi_startproc
 1443              		@ args = 0, pretend = 0, frame = 104
 1444              		@ frame_needed = 0, uses_anonymous_args = 0
 1445              		.loc 1 305 1 is_stmt 0 view .LVU349
 1446 0000 10B5     		push	{r4, lr}
 1447              	.LCFI25:
 1448              		.cfi_def_cfa_offset 8
 1449              		.cfi_offset 4, -8
 1450              		.cfi_offset 14, -4
 1451 0002 9AB0     		sub	sp, sp, #104
 1452              	.LCFI26:
 1453              		.cfi_def_cfa_offset 112
 1454 0004 0446     		mov	r4, r0
 306:App/Src/control.c **** 	uint8_t buffer[MAX_CHIP_NUMBER] = {0xff};
 1455              		.loc 1 306 2 is_stmt 1 view .LVU350
 1456              		.loc 1 306 10 is_stmt 0 view .LVU351
 1457 0006 FF23     		movs	r3, #255
 1458 0008 0193     		str	r3, [sp, #4]
 1459 000a 6022     		movs	r2, #96
 1460 000c 0021     		movs	r1, #0
 1461 000e 02A8     		add	r0, sp, #8
 1462              	.LVL132:
 1463              		.loc 1 306 10 view .LVU352
 1464 0010 FFF7FEFF 		bl	memset
 1465              	.LVL133:
 307:App/Src/control.c **** 	int i = 0;
 1466              		.loc 1 307 2 is_stmt 1 view .LVU353
 308:App/Src/control.c **** 
 309:App/Src/control.c **** 	uint8_t count = 0;
 1467              		.loc 1 309 2 view .LVU354
 310:App/Src/control.c **** 
 311:App/Src/control.c **** 	flash_read_data(TEST_FALG_START_ADDR + mode * PAGE_SIZE, buffer, MAX_CHIP_NUMBER);
 1468              		.loc 1 311 2 view .LVU355
 1469 0014 6422     		movs	r2, #100
 1470 0016 01A9     		add	r1, sp, #4
 1471 0018 2002     		lsls	r0, r4, #8
 1472 001a FFF7FEFF 		bl	flash_read_data
 1473              	.LVL134:
 312:App/Src/control.c **** 	for (i = 0; i < MAX_CHIP_NUMBER; i++) {
 1474              		.loc 1 312 2 view .LVU356
 309:App/Src/control.c **** 
 1475              		.loc 1 309 10 is_stmt 0 view .LVU357
 1476 001e 0021     		movs	r1, #0
 1477              		.loc 1 312 9 view .LVU358
 1478 0020 0B46     		mov	r3, r1
 1479              		.loc 1 312 2 view .LVU359
 1480 0022 00E0     		b	.L95
 1481              	.LVL135:
ARM GAS  C:\Users\86158\AppData\Local\Temp\ccpR4zoP.s 			page 35


 1482              	.L96:
 1483              		.loc 1 312 35 is_stmt 1 discriminator 2 view .LVU360
 1484              		.loc 1 312 36 is_stmt 0 discriminator 2 view .LVU361
 1485 0024 0133     		adds	r3, r3, #1
 1486              	.LVL136:
 1487              	.L95:
 1488              		.loc 1 312 14 is_stmt 1 discriminator 1 view .LVU362
 1489              		.loc 1 312 2 is_stmt 0 discriminator 1 view .LVU363
 1490 0026 632B     		cmp	r3, #99
 1491 0028 09DC     		bgt	.L99
 313:App/Src/control.c **** 		if (buffer[i] == '1') {
 1492              		.loc 1 313 3 is_stmt 1 view .LVU364
 1493              		.loc 1 313 13 is_stmt 0 view .LVU365
 1494 002a 03F16802 		add	r2, r3, #104
 1495 002e 6A44     		add	r2, sp, r2
 1496 0030 12F8642C 		ldrb	r2, [r2, #-100]	@ zero_extendqisi2
 1497              		.loc 1 313 6 view .LVU366
 1498 0034 312A     		cmp	r2, #49
 1499 0036 F5D1     		bne	.L96
 314:App/Src/control.c **** 			count++;
 1500              		.loc 1 314 4 is_stmt 1 view .LVU367
 1501              		.loc 1 314 9 is_stmt 0 view .LVU368
 1502 0038 0131     		adds	r1, r1, #1
 1503              	.LVL137:
 1504              		.loc 1 314 9 view .LVU369
 1505 003a C9B2     		uxtb	r1, r1
 1506              	.LVL138:
 1507              		.loc 1 314 9 view .LVU370
 1508 003c F2E7     		b	.L96
 1509              	.L99:
 315:App/Src/control.c **** 		}
 316:App/Src/control.c **** 	}
 317:App/Src/control.c **** 	ControlPrintf("okNumber:%d chipName:%d message:读取完成\n", count, MAX_CHIP_NUMBER);
 1510              		.loc 1 317 2 is_stmt 1 view .LVU371
 1511 003e 6422     		movs	r2, #100
 1512 0040 0248     		ldr	r0, .L100
 1513 0042 FFF7FEFF 		bl	ControlPrintf
 1514              	.LVL139:
 318:App/Src/control.c **** }
 1515              		.loc 1 318 1 is_stmt 0 view .LVU372
 1516 0046 1AB0     		add	sp, sp, #104
 1517              	.LCFI27:
 1518              		.cfi_def_cfa_offset 8
 1519              		@ sp needed
 1520 0048 10BD     		pop	{r4, pc}
 1521              	.L101:
 1522 004a 00BF     		.align	2
 1523              	.L100:
 1524 004c 00000000 		.word	.LC23
 1525              		.cfi_endproc
 1526              	.LFE248:
 1528              		.section	.rodata.CTL_OPERATE_Handle.str1.4,"aMS",%progbits,1
 1529              		.align	2
 1530              	.LC24:
 1531 0000 41545E4F 		.ascii	"AT^OPERATE=\000"
 1531      50455241 
 1531      54453D00 
ARM GAS  C:\Users\86158\AppData\Local\Temp\ccpR4zoP.s 			page 36


 1532              		.align	2
 1533              	.LC25:
 1534 000c 6F6B4E75 		.ascii	"okNumber:0 chipName:0 message:\325\375\324\332\301\254"
 1534      6D626572 
 1534      3A302063 
 1534      6869704E 
 1534      616D653A 
 1535 0030 CDA8B2E2 		.ascii	"\315\250\262\342\312\324\012\000"
 1535      CAD40A00 
 1536              		.align	2
 1537              	.LC26:
 1538 0038 6F6B4E75 		.ascii	"okNumber:0 chipName:0 message:\277\252\312\274\305\344"
 1538      6D626572 
 1538      3A302063 
 1538      6869704E 
 1538      616D653A 
 1539 005c D6C32E2E 		.ascii	"\326\303...\012\000"
 1539      2E0A00
 1540 0063 00       		.align	2
 1541              	.LC27:
 1542 0064 6F6B4E75 		.ascii	"okNumber:0 chipName:0 message:\277\252\312\274\265\245"
 1542      6D626572 
 1542      3A302063 
 1542      6869704E 
 1542      616D653A 
 1543 0088 B5E3B2E2 		.ascii	"\265\343\262\342\312\324...\012\000"
 1543      CAD42E2E 
 1543      2E0A00
 1544 0093 00       		.align	2
 1545              	.LC28:
 1546 0094 6F6B4E75 		.ascii	"okNumber:0 chipName:0 message:\277\252\312\274\274\306"
 1546      6D626572 
 1546      3A302063 
 1546      6869704E 
 1546      616D653A 
 1547 00b8 CBE32E2E 		.ascii	"\313\343...\012\000"
 1547      2E0A00
 1548 00bf 00       		.align	2
 1549              	.LC29:
 1550 00c0 6F6B4E75 		.ascii	"okNumber:0 chipName:0 message:\277\252\312\274\311\325"
 1550      6D626572 
 1550      3A302063 
 1550      6869704E 
 1550      616D653A 
 1551 00e4 C2BCCEC2 		.ascii	"\302\274\316\302\262\271\312\375\276\335\012\000"
 1551      B2B9CAFD 
 1551      BEDD0A00 
 1552              		.align	2
 1553              	.LC30:
 1554 00f0 6F6B4E75 		.ascii	"okNumber:0 chipName:0 message:\273\372\314\250\306\325"
 1554      6D626572 
 1554      3A302063 
 1554      6869704E 
 1554      616D653A 
 1555 0114 CDA8B2E2 		.ascii	"\315\250\262\342\312\324\012\000"
 1555      CAD40A00 
 1556              		.align	2
ARM GAS  C:\Users\86158\AppData\Local\Temp\ccpR4zoP.s 			page 37


 1557              	.LC31:
 1558 011c 6F6B4E75 		.ascii	"okNumber:0 chipName:0 message:\273\372\314\250\274\354"
 1558      6D626572 
 1558      3A302063 
 1558      6869704E 
 1558      616D653A 
 1559 0140 C9D5B2E2 		.ascii	"\311\325\262\342\312\3241\012\000"
 1559      CAD4310A 
 1559      00
 1560 0149 000000   		.align	2
 1561              	.LC32:
 1562 014c 6F6B4E75 		.ascii	"okNumber:0 chipName:0 message:\273\372\314\250\274\354"
 1562      6D626572 
 1562      3A302063 
 1562      6869704E 
 1562      616D653A 
 1563 0170 C9D5B2E2 		.ascii	"\311\325\262\342\312\3242\012\000"
 1563      CAD4320A 
 1563      00
 1564              		.section	.text.CTL_OPERATE_Handle,"ax",%progbits
 1565              		.align	1
 1566              		.global	CTL_OPERATE_Handle
 1567              		.syntax unified
 1568              		.thumb
 1569              		.thumb_func
 1571              	CTL_OPERATE_Handle:
 1572              	.LVL140:
 1573              	.LFB254:
 319:App/Src/control.c **** 
 320:App/Src/control.c **** void OPERATE_COLD_SYNC_Handle(void)
 321:App/Src/control.c **** {
 322:App/Src/control.c **** 
 323:App/Src/control.c **** }
 324:App/Src/control.c **** 
 325:App/Src/control.c **** void OPERATE_COLD_ERROR_Handle(void)
 326:App/Src/control.c **** {
 327:App/Src/control.c **** 
 328:App/Src/control.c **** }
 329:App/Src/control.c **** 
 330:App/Src/control.c **** void OPERATE_HOT_SYNC_Handle(void)
 331:App/Src/control.c **** {
 332:App/Src/control.c **** 
 333:App/Src/control.c **** }
 334:App/Src/control.c **** 
 335:App/Src/control.c **** void OPERATE_HOT_ERROR_Handle(void)
 336:App/Src/control.c **** {
 337:App/Src/control.c **** 
 338:App/Src/control.c **** }
 339:App/Src/control.c **** 
 340:App/Src/control.c **** void OPERATE_TAKE_OUT_MESSAGE_Handle(void)
 341:App/Src/control.c **** {
 342:App/Src/control.c **** 
 343:App/Src/control.c **** }
 344:App/Src/control.c **** 
 345:App/Src/control.c **** 
 346:App/Src/control.c **** void CTL_OPERATE_Handle(char* command)//设置工作模式
 347:App/Src/control.c **** {	
ARM GAS  C:\Users\86158\AppData\Local\Temp\ccpR4zoP.s 			page 38


 1574              		.loc 1 347 1 is_stmt 1 view -0
 1575              		.cfi_startproc
 1576              		@ args = 0, pretend = 0, frame = 8
 1577              		@ frame_needed = 0, uses_anonymous_args = 0
 1578              		.loc 1 347 1 is_stmt 0 view .LVU374
 1579 0000 30B5     		push	{r4, r5, lr}
 1580              	.LCFI28:
 1581              		.cfi_def_cfa_offset 12
 1582              		.cfi_offset 4, -12
 1583              		.cfi_offset 5, -8
 1584              		.cfi_offset 14, -4
 1585 0002 83B0     		sub	sp, sp, #12
 1586              	.LCFI29:
 1587              		.cfi_def_cfa_offset 24
 1588 0004 0446     		mov	r4, r0
 348:App/Src/control.c **** 	int num = 0;
 1589              		.loc 1 348 2 is_stmt 1 view .LVU375
 1590              	.LVL141:
 349:App/Src/control.c **** 	int inNumber = 0;
 1591              		.loc 1 349 2 view .LVU376
 1592              		.loc 1 349 6 is_stmt 0 view .LVU377
 1593 0006 0023     		movs	r3, #0
 1594 0008 0193     		str	r3, [sp, #4]
 350:App/Src/control.c **** 
 351:App/Src/control.c **** 	UsbPrintf("receive system:%s", command);
 1595              		.loc 1 351 2 is_stmt 1 view .LVU378
 1596 000a 5B4D     		ldr	r5, .L130
 1597 000c 0146     		mov	r1, r0
 1598 000e 2846     		mov	r0, r5
 1599              	.LVL142:
 1600              		.loc 1 351 2 is_stmt 0 view .LVU379
 1601 0010 FFF7FEFF 		bl	UsbPrintf
 1602              	.LVL143:
 352:App/Src/control.c **** 	log_printf("receive system:%s", command);
 1603              		.loc 1 352 2 is_stmt 1 view .LVU380
 1604 0014 2146     		mov	r1, r4
 1605 0016 2846     		mov	r0, r5
 1606 0018 FFF7FEFF 		bl	log_printf
 1607              	.LVL144:
 353:App/Src/control.c **** 	num = strSearch(command, "AT^OPERATE=");
 1608              		.loc 1 353 2 view .LVU381
 1609              		.loc 1 353 8 is_stmt 0 view .LVU382
 1610 001c 5749     		ldr	r1, .L130+4
 1611 001e 2046     		mov	r0, r4
 1612 0020 FFF7FEFF 		bl	strSearch
 1613              	.LVL145:
 354:App/Src/control.c **** 	if (num >= 0) {
 1614              		.loc 1 354 2 is_stmt 1 view .LVU383
 1615              		.loc 1 354 5 is_stmt 0 view .LVU384
 1616 0024 0028     		cmp	r0, #0
 1617              		.loc 1 354 5 view .LVU385
 1618 0026 01DA     		bge	.L129
 1619              	.LVL146:
 1620              	.L102:
 355:App/Src/control.c **** 		num += strlen("AT^OPERATE=");
 356:App/Src/control.c **** 		if (CharToInt(command, num, &inNumber) == 0 ) {	return; }
 357:App/Src/control.c **** 		switch (inNumber) {
ARM GAS  C:\Users\86158\AppData\Local\Temp\ccpR4zoP.s 			page 39


 358:App/Src/control.c **** 			case OPERATE_FREE_MODE:
 359:App/Src/control.c **** 			break;
 360:App/Src/control.c **** 			case OPERATE_READ_FLASH:
 361:App/Src/control.c **** 				OPERATE_READ_FLASH_Handle();
 362:App/Src/control.c **** 			break;
 363:App/Src/control.c **** 			case OPERATE_ERASE_FLASH:
 364:App/Src/control.c **** 				OPERATE_ERASE_FLASH_Handle();
 365:App/Src/control.c **** 			break;
 366:App/Src/control.c **** 			case OPERATE_IIC_TEST:
 367:App/Src/control.c **** 				OPERATE_IIC_TEST_Handle();
 368:App/Src/control.c **** 			break;
 369:App/Src/control.c **** 			case OPERATE_READ_TEMP:
 370:App/Src/control.c **** 				OPERATE_READ_TEMP_Handle();
 371:App/Src/control.c **** 			break;
 372:App/Src/control.c **** 			case OPERATE_CONNECT:
 373:App/Src/control.c **** 				ControlPrintf("okNumber:0 chipName:0 message:正在连通测试\n");
 374:App/Src/control.c **** 				manager_set_mode(FREQ_CONNECT);
 375:App/Src/control.c **** 			break;
 376:App/Src/control.c **** 			case OPERATE_SET_CONFIG9:
 377:App/Src/control.c **** 				ControlPrintf("okNumber:0 chipName:0 message:开始配置...\n");
 378:App/Src/control.c **** 				manager_set_mode(TEMP_TEST);
 379:App/Src/control.c **** 			break;
 380:App/Src/control.c **** 			case OPERATE_SHOW_CONFIG9:
 381:App/Src/control.c **** 			// OPERATE_SHOW_CONFIG9_Handle();
 382:App/Src/control.c **** 			break;
 383:App/Src/control.c **** 			case OPERATE_CAPADJUST_ADD:
 384:App/Src/control.c **** 				ControlPrintf("okNumber:0 chipName:0 message:开始单点测试...\n");
 385:App/Src/control.c **** 				manager_set_mode(CAP_ADJUST);
 386:App/Src/control.c **** 			break;
 387:App/Src/control.c **** 			case OPERATE_CAPADJUST_COVER:
 388:App/Src/control.c **** 				ControlPrintf("okNumber:0 chipName:0 message:开始单点测试...\n");
 389:App/Src/control.c **** 				manager_set_mode(CAP_ADJUST_COVER);
 390:App/Src/control.c **** 			break;
 391:App/Src/control.c **** 			case OPERATE_CAPADJUST_RESULT:
 392:App/Src/control.c **** 				OPERATE_CAPADJUST_RESULT_Handle();
 393:App/Src/control.c **** 			break;
 394:App/Src/control.c **** 			case OPERATE_CALCULATE:
 395:App/Src/control.c **** 				ControlPrintf("okNumber:0 chipName:0 message:开始计算...\n");
 396:App/Src/control.c **** 				manager_set_mode(CALCULATE);
 397:App/Src/control.c **** 			break;
 398:App/Src/control.c **** 			case OPERATE_CALCUL_RESULT:
 399:App/Src/control.c **** 				OPERATE_RESULT_Handle(FLAG_CALCULATE);
 400:App/Src/control.c **** 			break;
 401:App/Src/control.c **** 			case OPERATE_DOWNLOAD:
 402:App/Src/control.c **** 				ControlPrintf("okNumber:0 chipName:0 message:开始烧录温补数据\n");
 403:App/Src/control.c **** 				manager_set_mode(CAP_DOWNLOAD);
 404:App/Src/control.c **** 			break;
 405:App/Src/control.c **** 			case OPERATE_LOAD_RESULT:
 406:App/Src/control.c **** 				OPERATE_RESULT_Handle(FLAG_TEMPLOAD);
 407:App/Src/control.c **** 			break;
 408:App/Src/control.c **** 			case OPERATE_COLD_SYNC:
 409:App/Src/control.c **** 				manager_set_mode(SYNC_RTC_TIME);
 410:App/Src/control.c **** 			break;
 411:App/Src/control.c **** 			case OPERATE_COLD_ERROR:
 412:App/Src/control.c **** 				manager_set_mode(CHECK_ERROR_TIME);
 413:App/Src/control.c **** 			break;
 414:App/Src/control.c **** 			case OPERATE_HOT_SYNC:
ARM GAS  C:\Users\86158\AppData\Local\Temp\ccpR4zoP.s 			page 40


 415:App/Src/control.c **** 				manager_set_mode(SYNC_RTC_TIME);
 416:App/Src/control.c **** 			break;
 417:App/Src/control.c **** 			case OPERATE_HOT_ERROR:
 418:App/Src/control.c **** 				manager_set_mode(CHECK_ERROR_TIME);
 419:App/Src/control.c **** 			break;
 420:App/Src/control.c **** 			case OPERATE_MACHINE_TEST:
 421:App/Src/control.c **** 				ControlPrintf("okNumber:0 chipName:0 message:机台普通测试\n");
 422:App/Src/control.c **** 				manager_set_mode(MACHINE_TEST);
 423:App/Src/control.c **** 			break;
 424:App/Src/control.c **** 			case OPERATE_MACHINE_WRITE:
 425:App/Src/control.c **** 				ControlPrintf("okNumber:0 chipName:0 message:机台检烧测试1\n");
 426:App/Src/control.c **** 				manager_set_mode(MACHINE_WRITE);
 427:App/Src/control.c **** 			break;
 428:App/Src/control.c **** 			case OPERATE_MACHINE_COVER:
 429:App/Src/control.c **** 				ControlPrintf("okNumber:0 chipName:0 message:机台检烧测试2\n");
 430:App/Src/control.c **** 				manager_set_mode(MACHINE_COVER);
 431:App/Src/control.c **** 			break;
 432:App/Src/control.c **** 			case OPERATE_MACHINE_RESULT:
 433:App/Src/control.c **** 				OPERATE_RESULT_Handle(FLAG_MACHINE);
 434:App/Src/control.c **** 			break;
 435:App/Src/control.c **** 			case OPERATE_TAKE_OUT_MESSAGE:
 436:App/Src/control.c **** 			break;
 437:App/Src/control.c **** 			default:break;
 438:App/Src/control.c **** 		}
 439:App/Src/control.c **** 	}
 440:App/Src/control.c **** 
 441:App/Src/control.c **** }
 1621              		.loc 1 441 1 view .LVU386
 1622 0028 03B0     		add	sp, sp, #12
 1623              	.LCFI30:
 1624              		.cfi_remember_state
 1625              		.cfi_def_cfa_offset 12
 1626              		@ sp needed
 1627 002a 30BD     		pop	{r4, r5, pc}
 1628              	.LVL147:
 1629              	.L129:
 1630              	.LCFI31:
 1631              		.cfi_restore_state
 355:App/Src/control.c **** 		num += strlen("AT^OPERATE=");
 1632              		.loc 1 355 3 is_stmt 1 view .LVU387
 355:App/Src/control.c **** 		num += strlen("AT^OPERATE=");
 1633              		.loc 1 355 7 is_stmt 0 view .LVU388
 1634 002c 0B30     		adds	r0, r0, #11
 1635              	.LVL148:
 356:App/Src/control.c **** 		switch (inNumber) {
 1636              		.loc 1 356 3 is_stmt 1 view .LVU389
 356:App/Src/control.c **** 		switch (inNumber) {
 1637              		.loc 1 356 7 is_stmt 0 view .LVU390
 1638 002e 01AA     		add	r2, sp, #4
 1639 0030 C1B2     		uxtb	r1, r0
 1640 0032 2046     		mov	r0, r4
 1641              	.LVL149:
 356:App/Src/control.c **** 		switch (inNumber) {
 1642              		.loc 1 356 7 view .LVU391
 1643 0034 FFF7FEFF 		bl	CharToInt
 1644              	.LVL150:
 356:App/Src/control.c **** 		switch (inNumber) {
ARM GAS  C:\Users\86158\AppData\Local\Temp\ccpR4zoP.s 			page 41


 1645              		.loc 1 356 6 view .LVU392
 1646 0038 0028     		cmp	r0, #0
 1647 003a F5D0     		beq	.L102
 357:App/Src/control.c **** 			case OPERATE_FREE_MODE:
 1648              		.loc 1 357 3 is_stmt 1 view .LVU393
 1649 003c 019B     		ldr	r3, [sp, #4]
 1650 003e 013B     		subs	r3, r3, #1
 1651 0040 152B     		cmp	r3, #21
 1652 0042 F1D8     		bhi	.L102
 1653 0044 01A2     		adr	r2, .L107
 1654 0046 52F823F0 		ldr	pc, [r2, r3, lsl #2]
 1655 004a 00BF     		.p2align 2
 1656              	.L107:
 1657 004c A5000000 		.word	.L127+1
 1658 0050 AB000000 		.word	.L126+1
 1659 0054 B1000000 		.word	.L125+1
 1660 0058 B7000000 		.word	.L124+1
 1661 005c BD000000 		.word	.L123+1
 1662 0060 CB000000 		.word	.L122+1
 1663 0064 29000000 		.word	.L102+1
 1664 0068 D9000000 		.word	.L121+1
 1665 006c E7000000 		.word	.L120+1
 1666 0070 F5000000 		.word	.L119+1
 1667 0074 FB000000 		.word	.L118+1
 1668 0078 09010000 		.word	.L117+1
 1669 007c 11010000 		.word	.L116+1
 1670 0080 1F010000 		.word	.L115+1
 1671 0084 27010000 		.word	.L114+1
 1672 0088 2F010000 		.word	.L113+1
 1673 008c 37010000 		.word	.L112+1
 1674 0090 3F010000 		.word	.L111+1
 1675 0094 47010000 		.word	.L110+1
 1676 0098 55010000 		.word	.L109+1
 1677 009c 63010000 		.word	.L108+1
 1678 00a0 71010000 		.word	.L106+1
 1679              		.p2align 1
 1680              	.L127:
 361:App/Src/control.c **** 			break;
 1681              		.loc 1 361 5 view .LVU394
 1682 00a4 FFF7FEFF 		bl	OPERATE_READ_FLASH_Handle
 1683              	.LVL151:
 362:App/Src/control.c **** 			case OPERATE_ERASE_FLASH:
 1684              		.loc 1 362 4 view .LVU395
 1685 00a8 BEE7     		b	.L102
 1686              	.L126:
 364:App/Src/control.c **** 			break;
 1687              		.loc 1 364 5 view .LVU396
 1688 00aa FFF7FEFF 		bl	OPERATE_ERASE_FLASH_Handle
 1689              	.LVL152:
 365:App/Src/control.c **** 			case OPERATE_IIC_TEST:
 1690              		.loc 1 365 4 view .LVU397
 1691 00ae BBE7     		b	.L102
 1692              	.L125:
 367:App/Src/control.c **** 			break;
 1693              		.loc 1 367 5 view .LVU398
 1694 00b0 FFF7FEFF 		bl	OPERATE_IIC_TEST_Handle
 1695              	.LVL153:
ARM GAS  C:\Users\86158\AppData\Local\Temp\ccpR4zoP.s 			page 42


 368:App/Src/control.c **** 			case OPERATE_READ_TEMP:
 1696              		.loc 1 368 4 view .LVU399
 1697 00b4 B8E7     		b	.L102
 1698              	.L124:
 370:App/Src/control.c **** 			break;
 1699              		.loc 1 370 5 view .LVU400
 1700 00b6 FFF7FEFF 		bl	OPERATE_READ_TEMP_Handle
 1701              	.LVL154:
 371:App/Src/control.c **** 			case OPERATE_CONNECT:
 1702              		.loc 1 371 4 view .LVU401
 1703 00ba B5E7     		b	.L102
 1704              	.L123:
 373:App/Src/control.c **** 				manager_set_mode(FREQ_CONNECT);
 1705              		.loc 1 373 5 view .LVU402
 1706 00bc 3048     		ldr	r0, .L130+8
 1707 00be FFF7FEFF 		bl	ControlPrintf
 1708              	.LVL155:
 374:App/Src/control.c **** 			break;
 1709              		.loc 1 374 5 view .LVU403
 1710 00c2 0120     		movs	r0, #1
 1711 00c4 FFF7FEFF 		bl	manager_set_mode
 1712              	.LVL156:
 375:App/Src/control.c **** 			case OPERATE_SET_CONFIG9:
 1713              		.loc 1 375 4 view .LVU404
 1714 00c8 AEE7     		b	.L102
 1715              	.L122:
 377:App/Src/control.c **** 				manager_set_mode(TEMP_TEST);
 1716              		.loc 1 377 5 view .LVU405
 1717 00ca 2E48     		ldr	r0, .L130+12
 1718 00cc FFF7FEFF 		bl	ControlPrintf
 1719              	.LVL157:
 378:App/Src/control.c **** 			break;
 1720              		.loc 1 378 5 view .LVU406
 1721 00d0 0220     		movs	r0, #2
 1722 00d2 FFF7FEFF 		bl	manager_set_mode
 1723              	.LVL158:
 379:App/Src/control.c **** 			case OPERATE_SHOW_CONFIG9:
 1724              		.loc 1 379 4 view .LVU407
 1725 00d6 A7E7     		b	.L102
 1726              	.L121:
 384:App/Src/control.c **** 				manager_set_mode(CAP_ADJUST);
 1727              		.loc 1 384 5 view .LVU408
 1728 00d8 2B48     		ldr	r0, .L130+16
 1729 00da FFF7FEFF 		bl	ControlPrintf
 1730              	.LVL159:
 385:App/Src/control.c **** 			break;
 1731              		.loc 1 385 5 view .LVU409
 1732 00de 0320     		movs	r0, #3
 1733 00e0 FFF7FEFF 		bl	manager_set_mode
 1734              	.LVL160:
 386:App/Src/control.c **** 			case OPERATE_CAPADJUST_COVER:
 1735              		.loc 1 386 4 view .LVU410
 1736 00e4 A0E7     		b	.L102
 1737              	.L120:
 388:App/Src/control.c **** 				manager_set_mode(CAP_ADJUST_COVER);
 1738              		.loc 1 388 5 view .LVU411
 1739 00e6 2848     		ldr	r0, .L130+16
ARM GAS  C:\Users\86158\AppData\Local\Temp\ccpR4zoP.s 			page 43


 1740 00e8 FFF7FEFF 		bl	ControlPrintf
 1741              	.LVL161:
 389:App/Src/control.c **** 			break;
 1742              		.loc 1 389 5 view .LVU412
 1743 00ec 0420     		movs	r0, #4
 1744 00ee FFF7FEFF 		bl	manager_set_mode
 1745              	.LVL162:
 390:App/Src/control.c **** 			case OPERATE_CAPADJUST_RESULT:
 1746              		.loc 1 390 4 view .LVU413
 1747 00f2 99E7     		b	.L102
 1748              	.L119:
 392:App/Src/control.c **** 			break;
 1749              		.loc 1 392 5 view .LVU414
 1750 00f4 FFF7FEFF 		bl	OPERATE_CAPADJUST_RESULT_Handle
 1751              	.LVL163:
 393:App/Src/control.c **** 			case OPERATE_CALCULATE:
 1752              		.loc 1 393 4 view .LVU415
 1753 00f8 96E7     		b	.L102
 1754              	.L118:
 395:App/Src/control.c **** 				manager_set_mode(CALCULATE);
 1755              		.loc 1 395 5 view .LVU416
 1756 00fa 2448     		ldr	r0, .L130+20
 1757 00fc FFF7FEFF 		bl	ControlPrintf
 1758              	.LVL164:
 396:App/Src/control.c **** 			break;
 1759              		.loc 1 396 5 view .LVU417
 1760 0100 0520     		movs	r0, #5
 1761 0102 FFF7FEFF 		bl	manager_set_mode
 1762              	.LVL165:
 397:App/Src/control.c **** 			case OPERATE_CALCUL_RESULT:
 1763              		.loc 1 397 4 view .LVU418
 1764 0106 8FE7     		b	.L102
 1765              	.L117:
 399:App/Src/control.c **** 			break;
 1766              		.loc 1 399 5 view .LVU419
 1767 0108 0220     		movs	r0, #2
 1768 010a FFF7FEFF 		bl	OPERATE_RESULT_Handle
 1769              	.LVL166:
 400:App/Src/control.c **** 			case OPERATE_DOWNLOAD:
 1770              		.loc 1 400 4 view .LVU420
 1771 010e 8BE7     		b	.L102
 1772              	.L116:
 402:App/Src/control.c **** 				manager_set_mode(CAP_DOWNLOAD);
 1773              		.loc 1 402 5 view .LVU421
 1774 0110 1F48     		ldr	r0, .L130+24
 1775 0112 FFF7FEFF 		bl	ControlPrintf
 1776              	.LVL167:
 403:App/Src/control.c **** 			break;
 1777              		.loc 1 403 5 view .LVU422
 1778 0116 0620     		movs	r0, #6
 1779 0118 FFF7FEFF 		bl	manager_set_mode
 1780              	.LVL168:
 404:App/Src/control.c **** 			case OPERATE_LOAD_RESULT:
 1781              		.loc 1 404 4 view .LVU423
 1782 011c 84E7     		b	.L102
 1783              	.L115:
 406:App/Src/control.c **** 			break;
ARM GAS  C:\Users\86158\AppData\Local\Temp\ccpR4zoP.s 			page 44


 1784              		.loc 1 406 5 view .LVU424
 1785 011e 0320     		movs	r0, #3
 1786 0120 FFF7FEFF 		bl	OPERATE_RESULT_Handle
 1787              	.LVL169:
 407:App/Src/control.c **** 			case OPERATE_COLD_SYNC:
 1788              		.loc 1 407 4 view .LVU425
 1789 0124 80E7     		b	.L102
 1790              	.L114:
 409:App/Src/control.c **** 			break;
 1791              		.loc 1 409 5 view .LVU426
 1792 0126 0720     		movs	r0, #7
 1793 0128 FFF7FEFF 		bl	manager_set_mode
 1794              	.LVL170:
 410:App/Src/control.c **** 			case OPERATE_COLD_ERROR:
 1795              		.loc 1 410 4 view .LVU427
 1796 012c 7CE7     		b	.L102
 1797              	.L113:
 412:App/Src/control.c **** 			break;
 1798              		.loc 1 412 5 view .LVU428
 1799 012e 0820     		movs	r0, #8
 1800 0130 FFF7FEFF 		bl	manager_set_mode
 1801              	.LVL171:
 413:App/Src/control.c **** 			case OPERATE_HOT_SYNC:
 1802              		.loc 1 413 4 view .LVU429
 1803 0134 78E7     		b	.L102
 1804              	.L112:
 415:App/Src/control.c **** 			break;
 1805              		.loc 1 415 5 view .LVU430
 1806 0136 0720     		movs	r0, #7
 1807 0138 FFF7FEFF 		bl	manager_set_mode
 1808              	.LVL172:
 416:App/Src/control.c **** 			case OPERATE_HOT_ERROR:
 1809              		.loc 1 416 4 view .LVU431
 1810 013c 74E7     		b	.L102
 1811              	.L111:
 418:App/Src/control.c **** 			break;
 1812              		.loc 1 418 5 view .LVU432
 1813 013e 0820     		movs	r0, #8
 1814 0140 FFF7FEFF 		bl	manager_set_mode
 1815              	.LVL173:
 419:App/Src/control.c **** 			case OPERATE_MACHINE_TEST:
 1816              		.loc 1 419 4 view .LVU433
 1817 0144 70E7     		b	.L102
 1818              	.L110:
 421:App/Src/control.c **** 				manager_set_mode(MACHINE_TEST);
 1819              		.loc 1 421 5 view .LVU434
 1820 0146 1348     		ldr	r0, .L130+28
 1821 0148 FFF7FEFF 		bl	ControlPrintf
 1822              	.LVL174:
 422:App/Src/control.c **** 			break;
 1823              		.loc 1 422 5 view .LVU435
 1824 014c 0920     		movs	r0, #9
 1825 014e FFF7FEFF 		bl	manager_set_mode
 1826              	.LVL175:
 423:App/Src/control.c **** 			case OPERATE_MACHINE_WRITE:
 1827              		.loc 1 423 4 view .LVU436
 1828 0152 69E7     		b	.L102
ARM GAS  C:\Users\86158\AppData\Local\Temp\ccpR4zoP.s 			page 45


 1829              	.L109:
 425:App/Src/control.c **** 				manager_set_mode(MACHINE_WRITE);
 1830              		.loc 1 425 5 view .LVU437
 1831 0154 1048     		ldr	r0, .L130+32
 1832 0156 FFF7FEFF 		bl	ControlPrintf
 1833              	.LVL176:
 426:App/Src/control.c **** 			break;
 1834              		.loc 1 426 5 view .LVU438
 1835 015a 0B20     		movs	r0, #11
 1836 015c FFF7FEFF 		bl	manager_set_mode
 1837              	.LVL177:
 427:App/Src/control.c **** 			case OPERATE_MACHINE_COVER:
 1838              		.loc 1 427 4 view .LVU439
 1839 0160 62E7     		b	.L102
 1840              	.L108:
 429:App/Src/control.c **** 				manager_set_mode(MACHINE_COVER);
 1841              		.loc 1 429 5 view .LVU440
 1842 0162 0E48     		ldr	r0, .L130+36
 1843 0164 FFF7FEFF 		bl	ControlPrintf
 1844              	.LVL178:
 430:App/Src/control.c **** 			break;
 1845              		.loc 1 430 5 view .LVU441
 1846 0168 0A20     		movs	r0, #10
 1847 016a FFF7FEFF 		bl	manager_set_mode
 1848              	.LVL179:
 431:App/Src/control.c **** 			case OPERATE_MACHINE_RESULT:
 1849              		.loc 1 431 4 view .LVU442
 1850 016e 5BE7     		b	.L102
 1851              	.L106:
 433:App/Src/control.c **** 			break;
 1852              		.loc 1 433 5 view .LVU443
 1853 0170 0420     		movs	r0, #4
 1854 0172 FFF7FEFF 		bl	OPERATE_RESULT_Handle
 1855              	.LVL180:
 434:App/Src/control.c **** 			case OPERATE_TAKE_OUT_MESSAGE:
 1856              		.loc 1 434 4 view .LVU444
 1857 0176 57E7     		b	.L102
 1858              	.L131:
 1859              		.align	2
 1860              	.L130:
 1861 0178 00000000 		.word	.LC2
 1862 017c 00000000 		.word	.LC24
 1863 0180 0C000000 		.word	.LC25
 1864 0184 38000000 		.word	.LC26
 1865 0188 64000000 		.word	.LC27
 1866 018c 94000000 		.word	.LC28
 1867 0190 C0000000 		.word	.LC29
 1868 0194 F0000000 		.word	.LC30
 1869 0198 1C010000 		.word	.LC31
 1870 019c 4C010000 		.word	.LC32
 1871              		.cfi_endproc
 1872              	.LFE254:
 1874              		.section	.text.OPERATE_COLD_SYNC_Handle,"ax",%progbits
 1875              		.align	1
 1876              		.global	OPERATE_COLD_SYNC_Handle
 1877              		.syntax unified
 1878              		.thumb
ARM GAS  C:\Users\86158\AppData\Local\Temp\ccpR4zoP.s 			page 46


 1879              		.thumb_func
 1881              	OPERATE_COLD_SYNC_Handle:
 1882              	.LFB249:
 321:App/Src/control.c **** 
 1883              		.loc 1 321 1 view -0
 1884              		.cfi_startproc
 1885              		@ args = 0, pretend = 0, frame = 0
 1886              		@ frame_needed = 0, uses_anonymous_args = 0
 1887              		@ link register save eliminated.
 323:App/Src/control.c **** 
 1888              		.loc 1 323 1 view .LVU446
 1889 0000 7047     		bx	lr
 1890              		.cfi_endproc
 1891              	.LFE249:
 1893              		.section	.text.OPERATE_COLD_ERROR_Handle,"ax",%progbits
 1894              		.align	1
 1895              		.global	OPERATE_COLD_ERROR_Handle
 1896              		.syntax unified
 1897              		.thumb
 1898              		.thumb_func
 1900              	OPERATE_COLD_ERROR_Handle:
 1901              	.LFB250:
 326:App/Src/control.c **** 
 1902              		.loc 1 326 1 view -0
 1903              		.cfi_startproc
 1904              		@ args = 0, pretend = 0, frame = 0
 1905              		@ frame_needed = 0, uses_anonymous_args = 0
 1906              		@ link register save eliminated.
 328:App/Src/control.c **** 
 1907              		.loc 1 328 1 view .LVU448
 1908 0000 7047     		bx	lr
 1909              		.cfi_endproc
 1910              	.LFE250:
 1912              		.section	.text.OPERATE_HOT_SYNC_Handle,"ax",%progbits
 1913              		.align	1
 1914              		.global	OPERATE_HOT_SYNC_Handle
 1915              		.syntax unified
 1916              		.thumb
 1917              		.thumb_func
 1919              	OPERATE_HOT_SYNC_Handle:
 1920              	.LFB251:
 331:App/Src/control.c **** 
 1921              		.loc 1 331 1 view -0
 1922              		.cfi_startproc
 1923              		@ args = 0, pretend = 0, frame = 0
 1924              		@ frame_needed = 0, uses_anonymous_args = 0
 1925              		@ link register save eliminated.
 333:App/Src/control.c **** 
 1926              		.loc 1 333 1 view .LVU450
 1927 0000 7047     		bx	lr
 1928              		.cfi_endproc
 1929              	.LFE251:
 1931              		.section	.text.OPERATE_HOT_ERROR_Handle,"ax",%progbits
 1932              		.align	1
 1933              		.global	OPERATE_HOT_ERROR_Handle
 1934              		.syntax unified
 1935              		.thumb
ARM GAS  C:\Users\86158\AppData\Local\Temp\ccpR4zoP.s 			page 47


 1936              		.thumb_func
 1938              	OPERATE_HOT_ERROR_Handle:
 1939              	.LFB252:
 336:App/Src/control.c **** 
 1940              		.loc 1 336 1 view -0
 1941              		.cfi_startproc
 1942              		@ args = 0, pretend = 0, frame = 0
 1943              		@ frame_needed = 0, uses_anonymous_args = 0
 1944              		@ link register save eliminated.
 338:App/Src/control.c **** 
 1945              		.loc 1 338 1 view .LVU452
 1946 0000 7047     		bx	lr
 1947              		.cfi_endproc
 1948              	.LFE252:
 1950              		.section	.text.OPERATE_TAKE_OUT_MESSAGE_Handle,"ax",%progbits
 1951              		.align	1
 1952              		.global	OPERATE_TAKE_OUT_MESSAGE_Handle
 1953              		.syntax unified
 1954              		.thumb
 1955              		.thumb_func
 1957              	OPERATE_TAKE_OUT_MESSAGE_Handle:
 1958              	.LFB253:
 341:App/Src/control.c **** 
 1959              		.loc 1 341 1 view -0
 1960              		.cfi_startproc
 1961              		@ args = 0, pretend = 0, frame = 0
 1962              		@ frame_needed = 0, uses_anonymous_args = 0
 1963              		@ link register save eliminated.
 343:App/Src/control.c **** 
 1964              		.loc 1 343 1 view .LVU454
 1965 0000 7047     		bx	lr
 1966              		.cfi_endproc
 1967              	.LFE253:
 1969              		.section	.text.control_usart_receive,"ax",%progbits
 1970              		.align	1
 1971              		.global	control_usart_receive
 1972              		.syntax unified
 1973              		.thumb
 1974              		.thumb_func
 1976              	control_usart_receive:
 1977              	.LFB255:
 442:App/Src/control.c **** 
 443:App/Src/control.c **** typedef void(*function)(char* s);
 444:App/Src/control.c **** function ControlCommand[MAX_CONTROL_NUMBER] = {
 445:App/Src/control.c ****     CTL_CONNECT_Handle,
 446:App/Src/control.c ****     CTL_REALTIME_Handle,
 447:App/Src/control.c ****     CTL_OPERATE_Handle,
 448:App/Src/control.c **** };
 449:App/Src/control.c **** 
 450:App/Src/control.c **** void control_usart_receive(void)
 451:App/Src/control.c **** {
 1978              		.loc 1 451 1 view -0
 1979              		.cfi_startproc
 1980              		@ args = 0, pretend = 0, frame = 0
 1981              		@ frame_needed = 0, uses_anonymous_args = 0
 1982 0000 08B5     		push	{r3, lr}
 1983              	.LCFI32:
ARM GAS  C:\Users\86158\AppData\Local\Temp\ccpR4zoP.s 			page 48


 1984              		.cfi_def_cfa_offset 8
 1985              		.cfi_offset 3, -8
 1986              		.cfi_offset 14, -4
 452:App/Src/control.c ****     if (control_Rx_Cnt < CONTROL_RECEIVE_BUFF_NUMBER && g_controlATStatus == 0) {
 1987              		.loc 1 452 5 view .LVU456
 1988              		.loc 1 452 24 is_stmt 0 view .LVU457
 1989 0002 0F4B     		ldr	r3, .L142
 1990 0004 1B88     		ldrh	r3, [r3]
 1991              		.loc 1 452 8 view .LVU458
 1992 0006 C72B     		cmp	r3, #199
 1993 0008 09D8     		bhi	.L138
 1994              		.loc 1 452 75 discriminator 1 view .LVU459
 1995 000a 0E4A     		ldr	r2, .L142+4
 1996 000c 1278     		ldrb	r2, [r2]	@ zero_extendqisi2
 1997              		.loc 1 452 54 discriminator 1 view .LVU460
 1998 000e 32B9     		cbnz	r2, .L138
 453:App/Src/control.c ****         g_controlRxBuff[control_Rx_Cnt] = controlRxBuf;
 1999              		.loc 1 453 9 is_stmt 1 view .LVU461
 2000              		.loc 1 453 41 is_stmt 0 view .LVU462
 2001 0010 0D4A     		ldr	r2, .L142+8
 2002 0012 1178     		ldrb	r1, [r2]	@ zero_extendqisi2
 2003 0014 0D4A     		ldr	r2, .L142+12
 2004 0016 D154     		strb	r1, [r2, r3]
 454:App/Src/control.c ****     	control_Rx_Cnt++;
 2005              		.loc 1 454 6 is_stmt 1 view .LVU463
 2006              		.loc 1 454 20 is_stmt 0 view .LVU464
 2007 0018 0133     		adds	r3, r3, #1
 2008 001a 094A     		ldr	r2, .L142
 2009 001c 1380     		strh	r3, [r2]	@ movhi
 2010              	.L138:
 455:App/Src/control.c ****     }
 456:App/Src/control.c ****     if (control_Rx_Cnt >= CONTROL_RECEIVE_BUFF_NUMBER || controlRxBuf == '\n') {
 2011              		.loc 1 456 5 is_stmt 1 view .LVU465
 2012              		.loc 1 456 24 is_stmt 0 view .LVU466
 2013 001e 084B     		ldr	r3, .L142
 2014 0020 1B88     		ldrh	r3, [r3]
 2015              		.loc 1 456 8 view .LVU467
 2016 0022 C72B     		cmp	r3, #199
 2017 0024 03D8     		bhi	.L139
 2018              		.loc 1 456 71 discriminator 1 view .LVU468
 2019 0026 084B     		ldr	r3, .L142+8
 2020 0028 1B78     		ldrb	r3, [r3]	@ zero_extendqisi2
 2021              		.loc 1 456 55 discriminator 1 view .LVU469
 2022 002a 0A2B     		cmp	r3, #10
 2023 002c 02D1     		bne	.L140
 2024              	.L139:
 457:App/Src/control.c ****         g_controlATStatus = 1;
 2025              		.loc 1 457 9 is_stmt 1 view .LVU470
 2026              		.loc 1 457 27 is_stmt 0 view .LVU471
 2027 002e 054B     		ldr	r3, .L142+4
 2028 0030 0122     		movs	r2, #1
 2029 0032 1A70     		strb	r2, [r3]
 2030              	.L140:
 458:App/Src/control.c ****     }
 459:App/Src/control.c ****     HAL_UART_Receive_IT(&huart3, &controlRxBuf, 1);
 2031              		.loc 1 459 5 is_stmt 1 view .LVU472
 2032 0034 0122     		movs	r2, #1
ARM GAS  C:\Users\86158\AppData\Local\Temp\ccpR4zoP.s 			page 49


 2033 0036 0449     		ldr	r1, .L142+8
 2034 0038 0548     		ldr	r0, .L142+16
 2035 003a FFF7FEFF 		bl	HAL_UART_Receive_IT
 2036              	.LVL181:
 460:App/Src/control.c **** }
 2037              		.loc 1 460 1 is_stmt 0 view .LVU473
 2038 003e 08BD     		pop	{r3, pc}
 2039              	.L143:
 2040              		.align	2
 2041              	.L142:
 2042 0040 00000000 		.word	.LANCHOR7
 2043 0044 00000000 		.word	.LANCHOR8
 2044 0048 00000000 		.word	.LANCHOR1
 2045 004c 00000000 		.word	.LANCHOR2
 2046 0050 00000000 		.word	huart3
 2047              		.cfi_endproc
 2048              	.LFE255:
 2050              		.section	.text.CheckControlList,"ax",%progbits
 2051              		.align	1
 2052              		.global	CheckControlList
 2053              		.syntax unified
 2054              		.thumb
 2055              		.thumb_func
 2057              	CheckControlList:
 2058              	.LFB256:
 461:App/Src/control.c **** 
 462:App/Src/control.c **** void CheckControlList(void)
 463:App/Src/control.c **** {
 2059              		.loc 1 463 1 is_stmt 1 view -0
 2060              		.cfi_startproc
 2061              		@ args = 0, pretend = 0, frame = 0
 2062              		@ frame_needed = 0, uses_anonymous_args = 0
 2063 0000 38B5     		push	{r3, r4, r5, lr}
 2064              	.LCFI33:
 2065              		.cfi_def_cfa_offset 16
 2066              		.cfi_offset 3, -16
 2067              		.cfi_offset 4, -12
 2068              		.cfi_offset 5, -8
 2069              		.cfi_offset 14, -4
 464:App/Src/control.c ****     uint8_t i;
 2070              		.loc 1 464 5 view .LVU475
 465:App/Src/control.c ****     static uint16_t controlTick = 0;
 2071              		.loc 1 465 5 view .LVU476
 466:App/Src/control.c ****     static uint16_t lastControlRx = 0;
 2072              		.loc 1 466 5 view .LVU477
 467:App/Src/control.c **** 
 468:App/Src/control.c **** 	if (g_earseFlash > 0) { CheckFlashEarse(); }//与串口通信无关，擦除flash的临时任务
 2073              		.loc 1 468 2 view .LVU478
 2074              		.loc 1 468 19 is_stmt 0 view .LVU479
 2075 0002 254B     		ldr	r3, .L158
 2076 0004 1B78     		ldrb	r3, [r3]	@ zero_extendqisi2
 2077              		.loc 1 468 5 view .LVU480
 2078 0006 B3B9     		cbnz	r3, .L157
 2079              	.L145:
 469:App/Src/control.c ****     if (control_Rx_Cnt == 0) { return; }
 2080              		.loc 1 469 5 is_stmt 1 view .LVU481
 2081              		.loc 1 469 24 is_stmt 0 view .LVU482
ARM GAS  C:\Users\86158\AppData\Local\Temp\ccpR4zoP.s 			page 50


 2082 0008 244B     		ldr	r3, .L158+4
 2083 000a 1B88     		ldrh	r3, [r3]
 2084              		.loc 1 469 8 view .LVU483
 2085 000c 002B     		cmp	r3, #0
 2086 000e 3FD0     		beq	.L144
 470:App/Src/control.c **** 
 471:App/Src/control.c ****     if (control_Rx_Cnt > lastControlRx) {
 2087              		.loc 1 471 5 is_stmt 1 view .LVU484
 2088              		.loc 1 471 24 is_stmt 0 view .LVU485
 2089 0010 234A     		ldr	r2, .L158+8
 2090 0012 1288     		ldrh	r2, [r2]
 2091              		.loc 1 471 8 view .LVU486
 2092 0014 9342     		cmp	r3, r2
 2093 0016 11D9     		bls	.L147
 472:App/Src/control.c ****         lastControlRx = control_Rx_Cnt;
 2094              		.loc 1 472 9 is_stmt 1 view .LVU487
 2095              		.loc 1 472 23 is_stmt 0 view .LVU488
 2096 0018 214A     		ldr	r2, .L158+8
 2097 001a 1380     		strh	r3, [r2]	@ movhi
 473:App/Src/control.c ****         controlTick = 0;
 2098              		.loc 1 473 9 is_stmt 1 view .LVU489
 2099              		.loc 1 473 21 is_stmt 0 view .LVU490
 2100 001c 214B     		ldr	r3, .L158+12
 2101 001e 0022     		movs	r2, #0
 2102 0020 1A80     		strh	r2, [r3]	@ movhi
 2103              	.L148:
 474:App/Src/control.c ****     } else {
 475:App/Src/control.c ****         controlTick++;
 476:App/Src/control.c ****     }
 477:App/Src/control.c ****     if (controlTick >= CTRL_UART_TICK_CLEAR || g_controlATStatus == 1) {
 2104              		.loc 1 477 5 is_stmt 1 view .LVU491
 2105              		.loc 1 477 21 is_stmt 0 view .LVU492
 2106 0022 204B     		ldr	r3, .L158+12
 2107 0024 1B88     		ldrh	r3, [r3]
 2108              		.loc 1 477 8 view .LVU493
 2109 0026 312B     		cmp	r3, #49
 2110 0028 33D8     		bhi	.L154
 2111              		.loc 1 477 66 discriminator 1 view .LVU494
 2112 002a 1F4B     		ldr	r3, .L158+16
 2113 002c 1B78     		ldrb	r3, [r3]	@ zero_extendqisi2
 2114              		.loc 1 477 45 discriminator 1 view .LVU495
 2115 002e 012B     		cmp	r3, #1
 2116 0030 2ED1     		bne	.L144
 2117 0032 0024     		movs	r4, #0
 2118 0034 09E0     		b	.L152
 2119              	.L157:
 468:App/Src/control.c ****     if (control_Rx_Cnt == 0) { return; }
 2120              		.loc 1 468 26 is_stmt 1 discriminator 1 view .LVU496
 2121 0036 FFF7FEFF 		bl	CheckFlashEarse
 2122              	.LVL182:
 2123 003a E5E7     		b	.L145
 2124              	.L147:
 475:App/Src/control.c ****     }
 2125              		.loc 1 475 9 view .LVU497
 475:App/Src/control.c ****     }
 2126              		.loc 1 475 20 is_stmt 0 view .LVU498
 2127 003c 194A     		ldr	r2, .L158+12
ARM GAS  C:\Users\86158\AppData\Local\Temp\ccpR4zoP.s 			page 51


 2128 003e 1388     		ldrh	r3, [r2]
 2129 0040 0133     		adds	r3, r3, #1
 2130 0042 1380     		strh	r3, [r2]	@ movhi
 2131 0044 EDE7     		b	.L148
 2132              	.LVL183:
 2133              	.L150:
 478:App/Src/control.c ****         for (i = 0; i < MAX_CONTROL_NUMBER; i++) {
 2134              		.loc 1 478 45 is_stmt 1 discriminator 2 view .LVU499
 2135              		.loc 1 478 46 is_stmt 0 discriminator 2 view .LVU500
 2136 0046 0134     		adds	r4, r4, #1
 2137              	.LVL184:
 2138              		.loc 1 478 46 discriminator 2 view .LVU501
 2139 0048 E4B2     		uxtb	r4, r4
 2140              	.LVL185:
 2141              	.L152:
 2142              		.loc 1 478 21 is_stmt 1 discriminator 1 view .LVU502
 2143              		.loc 1 478 9 is_stmt 0 discriminator 1 view .LVU503
 2144 004a 0E2C     		cmp	r4, #14
 2145 004c 12D8     		bhi	.L151
 479:App/Src/control.c ****             if (strlen(CtrlStringList[i]) > 0 && strSearch((char*)g_controlRxBuff, CtrlStringList[i
 2146              		.loc 1 479 13 is_stmt 1 view .LVU504
 2147              		.loc 1 479 38 is_stmt 0 view .LVU505
 2148 004e 174B     		ldr	r3, .L158+20
 2149 0050 04EB8402 		add	r2, r4, r4, lsl #2
 2150 0054 03EB8201 		add	r1, r3, r2, lsl #2
 2151              		.loc 1 479 43 view .LVU506
 2152 0058 13F82230 		ldrb	r3, [r3, r2, lsl #2]	@ zero_extendqisi2
 2153              		.loc 1 479 16 view .LVU507
 2154 005c 002B     		cmp	r3, #0
 2155 005e F2D0     		beq	.L150
 2156              		.loc 1 479 50 discriminator 1 view .LVU508
 2157 0060 1348     		ldr	r0, .L158+24
 2158 0062 FFF7FEFF 		bl	strSearch
 2159              	.LVL186:
 2160              		.loc 1 479 47 discriminator 1 view .LVU509
 2161 0066 0028     		cmp	r0, #0
 2162 0068 EDD1     		bne	.L150
 480:App/Src/control.c ****                 ControlCommand[i]((char*)g_controlRxBuff);
 2163              		.loc 1 480 17 is_stmt 1 view .LVU510
 2164              		.loc 1 480 31 is_stmt 0 view .LVU511
 2165 006a 124B     		ldr	r3, .L158+28
 2166 006c 53F82430 		ldr	r3, [r3, r4, lsl #2]
 2167              		.loc 1 480 17 view .LVU512
 2168 0070 0F48     		ldr	r0, .L158+24
 2169 0072 9847     		blx	r3
 2170              	.LVL187:
 481:App/Src/control.c ****                 break;
 2171              		.loc 1 481 17 is_stmt 1 view .LVU513
 2172              	.L151:
 482:App/Src/control.c ****             }
 483:App/Src/control.c ****         }				
 484:App/Src/control.c ****         memset(g_controlRxBuff, 0, CONTROL_RECEIVE_BUFF_NUMBER);
 2173              		.loc 1 484 9 view .LVU514
 2174 0074 C822     		movs	r2, #200
 2175 0076 0021     		movs	r1, #0
 2176 0078 0D48     		ldr	r0, .L158+24
 2177 007a FFF7FEFF 		bl	memset
ARM GAS  C:\Users\86158\AppData\Local\Temp\ccpR4zoP.s 			page 52


 2178              	.LVL188:
 485:App/Src/control.c ****         control_Rx_Cnt = 0;
 2179              		.loc 1 485 9 view .LVU515
 2180              		.loc 1 485 24 is_stmt 0 view .LVU516
 2181 007e 0023     		movs	r3, #0
 2182 0080 064A     		ldr	r2, .L158+4
 2183 0082 1380     		strh	r3, [r2]	@ movhi
 486:App/Src/control.c ****         g_controlATStatus = 0;
 2184              		.loc 1 486 9 is_stmt 1 view .LVU517
 2185              		.loc 1 486 27 is_stmt 0 view .LVU518
 2186 0084 084A     		ldr	r2, .L158+16
 2187 0086 1370     		strb	r3, [r2]
 487:App/Src/control.c ****         controlTick = 0;
 2188              		.loc 1 487 9 is_stmt 1 view .LVU519
 2189              		.loc 1 487 21 is_stmt 0 view .LVU520
 2190 0088 064A     		ldr	r2, .L158+12
 2191 008a 1380     		strh	r3, [r2]	@ movhi
 488:App/Src/control.c ****         lastControlRx = 0;
 2192              		.loc 1 488 9 is_stmt 1 view .LVU521
 2193              		.loc 1 488 23 is_stmt 0 view .LVU522
 2194 008c 044A     		ldr	r2, .L158+8
 2195 008e 1380     		strh	r3, [r2]	@ movhi
 2196              	.LVL189:
 2197              	.L144:
 489:App/Src/control.c ****     }
 490:App/Src/control.c **** }...
 2198              		.loc 1 490 1 view .LVU523
 2199 0090 38BD     		pop	{r3, r4, r5, pc}
 2200              	.L154:
 2201 0092 0024     		movs	r4, #0
 2202 0094 D9E7     		b	.L152
 2203              	.L159:
 2204 0096 00BF     		.align	2
 2205              	.L158:
 2206 0098 00000000 		.word	.LANCHOR4
 2207 009c 00000000 		.word	.LANCHOR7
 2208 00a0 00000000 		.word	.LANCHOR9
 2209 00a4 00000000 		.word	.LANCHOR10
 2210 00a8 00000000 		.word	.LANCHOR8
 2211 00ac 00000000 		.word	.LANCHOR11
 2212 00b0 00000000 		.word	.LANCHOR2
 2213 00b4 00000000 		.word	.LANCHOR12
 2214              		.cfi_endproc
 2215              	.LFE256:
 2217              		.global	ControlCommand
 2218              		.global	g_controlATStatus
 2219              		.global	g_controlTxBuff
 2220              		.global	g_controlRxBuff
 2221              		.section	.rodata
 2222              		.align	2
 2223              		.set	.LANCHOR3,. + 0
 2224              	.LC0:
 2225 0000 D2D1C7E5 		.ascii	"\322\321\307\345\277\325\312\375\276\335\000"
 2225      BFD5CAFD 
 2225      BEDD00
 2226 000b 00000000 		.space	9
 2226      00000000 
ARM GAS  C:\Users\86158\AppData\Local\Temp\ccpR4zoP.s 			page 53


 2226      00
 2227 0014 CEC2B6C8 		.ascii	"\316\302\266\310\274\306\000"
 2227      BCC600
 2228 001b 00000000 		.space	13
 2228      00000000 
 2228      00000000 
 2228      00
 2229 0028 CEC2B2B9 		.ascii	"\316\302\262\271\262\342\312\324\000"
 2229      B2E2CAD4 
 2229      00
 2230 0031 00000000 		.space	11
 2230      00000000 
 2230      000000
 2231 003c BCC6CBE3 		.ascii	"\274\306\313\343\000"
 2231      00
 2232 0041 00000000 		.space	15
 2232      00000000 
 2232      00000000 
 2232      000000
 2233 0050 C9D5C2BC 		.ascii	"\311\325\302\274\000"
 2233      00
 2234 0055 00000000 		.space	15
 2234      00000000 
 2234      00000000 
 2234      000000
 2235 0064 BBFACCA8 		.ascii	"\273\372\314\250\262\342\312\324\000"
 2235      B2E2CAD4 
 2235      00
 2236 006d 00000000 		.space	11
 2236      00000000 
 2236      000000
 2237 0078 C8A1C1CF 		.ascii	"\310\241\301\317\274\307\302\274\000"
 2237      BCC7C2BC 
 2237      00
 2238 0081 00000000 		.space	11
 2238      00000000 
 2238      000000
 2239              		.section	.bss.controlRxBuf,"aw",%nobits
 2240              		.set	.LANCHOR1,. + 0
 2243              	controlRxBuf:
 2244 0000 00       		.space	1
 2245              		.section	.bss.controlTick.0,"aw",%nobits
 2246              		.align	1
 2247              		.set	.LANCHOR10,. + 0
 2250              	controlTick.0:
 2251 0000 0000     		.space	2
 2252              		.section	.bss.control_Rx_Cnt,"aw",%nobits
 2253              		.align	1
 2254              		.set	.LANCHOR7,. + 0
 2257              	control_Rx_Cnt:
 2258 0000 0000     		.space	2
 2259              		.section	.bss.g_controlATStatus,"aw",%nobits
 2260              		.set	.LANCHOR8,. + 0
 2263              	g_controlATStatus:
 2264 0000 00       		.space	1
 2265              		.section	.bss.g_controlRxBuff,"aw",%nobits
 2266              		.align	2
ARM GAS  C:\Users\86158\AppData\Local\Temp\ccpR4zoP.s 			page 54


 2267              		.set	.LANCHOR2,. + 0
 2270              	g_controlRxBuff:
 2271 0000 00000000 		.space	200
 2271      00000000 
 2271      00000000 
 2271      00000000 
 2271      00000000 
 2272              		.section	.bss.g_controlTxBuff,"aw",%nobits
 2273              		.align	2
 2274              		.set	.LANCHOR0,. + 0
 2277              	g_controlTxBuff:
 2278 0000 00000000 		.space	300
 2278      00000000 
 2278      00000000 
 2278      00000000 
 2278      00000000 
 2279              		.section	.bss.g_earseFlash,"aw",%nobits
 2280              		.set	.LANCHOR4,. + 0
 2283              	g_earseFlash:
 2284 0000 00       		.space	1
 2285              		.section	.bss.lastControlRx.1,"aw",%nobits
 2286              		.align	1
 2287              		.set	.LANCHOR9,. + 0
 2290              	lastControlRx.1:
 2291 0000 0000     		.space	2
 2292              		.section	.bss.lastTick.3,"aw",%nobits
 2293              		.align	2
 2294              		.set	.LANCHOR5,. + 0
 2297              	lastTick.3:
 2298 0000 00000000 		.space	4
 2299              		.section	.bss.usedTime.2,"aw",%nobits
 2300              		.align	2
 2301              		.set	.LANCHOR6,. + 0
 2304              	usedTime.2:
 2305 0000 00000000 		.space	4
 2306              		.section	.data.ControlCommand,"aw"
 2307              		.align	2
 2308              		.set	.LANCHOR12,. + 0
 2311              	ControlCommand:
 2312 0000 00000000 		.word	CTL_CONNECT_Handle
 2313 0004 00000000 		.word	CTL_REALTIME_Handle
 2314 0008 00000000 		.word	CTL_OPERATE_Handle
 2315 000c 00000000 		.space	48
 2315      00000000 
 2315      00000000 
 2315      00000000 
 2315      00000000 
 2316              		.section	.data.CtrlStringList,"aw"
 2317              		.align	2
 2318              		.set	.LANCHOR11,. + 0
 2321              	CtrlStringList:
 2322 0000 41545E43 		.ascii	"AT^CONNECT?\000"
 2322      4F4E4E45 
 2322      43543F00 
 2323 000c 00000000 		.space	8
 2323      00000000 
 2324 0014 41545E52 		.ascii	"AT^REALTIME\000"
ARM GAS  C:\Users\86158\AppData\Local\Temp\ccpR4zoP.s 			page 55


 2324      45414C54 
 2324      494D4500 
 2325 0020 00000000 		.space	8
 2325      00000000 
 2326 0028 41545E4F 		.ascii	"AT^OPERATE\000"
 2326      50455241 
 2326      544500
 2327 0033 00000000 		.space	9
 2327      00000000 
 2327      00
 2328 003c 00000000 		.space	240
 2328      00000000 
 2328      00000000 
 2328      00000000 
 2328      00000000 
 2329              		.text
 2330              	.Letext0:
 2331              		.file 2 "e:\\stm32-gcc\\gcc-arm-none-eabi-10.3-2021.10\\arm-none-eabi\\include\\machine\\_default_
 2332              		.file 3 "e:\\stm32-gcc\\gcc-arm-none-eabi-10.3-2021.10\\arm-none-eabi\\include\\sys\\_stdint.h"
 2333              		.file 4 "Drivers/CMSIS/Device/ST/STM32F4xx/Include/stm32f407xx.h"
 2334              		.file 5 "Drivers/STM32F4xx_HAL_Driver/Inc/stm32f4xx_hal_def.h"
 2335              		.file 6 "Drivers/STM32F4xx_HAL_Driver/Inc/stm32f4xx_hal_dma.h"
 2336              		.file 7 "Drivers/STM32F4xx_HAL_Driver/Inc/stm32f4xx_hal_uart.h"
 2337              		.file 8 "Core/Inc/main.h"
 2338              		.file 9 "e:\\stm32-gcc\\gcc-arm-none-eabi-10.3-2021.10\\lib\\gcc\\arm-none-eabi\\10.3.1\\include\\
 2339              		.file 10 "e:\\stm32-gcc\\gcc-arm-none-eabi-10.3-2021.10\\arm-none-eabi\\include\\stdio.h"
 2340              		.file 11 "Device/Inc/flash.h"
 2341              		.file 12 "App/Inc/manager.h"
 2342              		.file 13 "Drivers/User_Driver/Inc/soft_i2c.h"
 2343              		.file 14 "Device/Inc/power.h"
 2344              		.file 15 "Drivers/STM32F4xx_HAL_Driver/Inc/stm32f4xx_hal.h"
 2345              		.file 16 "Device/Inc/rtc.h"
 2346              		.file 17 "Drivers/User_Driver/Inc/rtc_i2c.h"
 2347              		.file 18 "<built-in>"
 2348              		.file 19 "e:\\stm32-gcc\\gcc-arm-none-eabi-10.3-2021.10\\arm-none-eabi\\include\\string.h"
 2349              		.file 20 "App/Inc/task.h"
 2350              		.file 21 "Device/Inc/temp.h"
ARM GAS  C:\Users\86158\AppData\Local\Temp\ccpR4zoP.s 			page 56

