ARM GAS  C:\Users\86158\AppData\Local\Temp\ccm695Jf.s 			page 1


   1              		.cpu cortex-m4
   2              		.arch armv7e-m
   3              		.fpu fpv4-sp-d16
   4              		.eabi_attribute 27, 1
   5              		.eabi_attribute 28, 1
   6              		.eabi_attribute 20, 1
   7              		.eabi_attribute 21, 1
   8              		.eabi_attribute 23, 3
   9              		.eabi_attribute 24, 1
  10              		.eabi_attribute 25, 1
  11              		.eabi_attribute 26, 1
  12              		.eabi_attribute 30, 1
  13              		.eabi_attribute 34, 1
  14              		.eabi_attribute 18, 4
  15              		.file	"main.c"
  16              		.text
  17              	.Ltext0:
  18              		.cfi_sections	.debug_frame
  19              		.section	.text.MX_GPIO_Init,"ax",%progbits
  20              		.align	1
  21              		.syntax unified
  22              		.thumb
  23              		.thumb_func
  25              	MX_GPIO_Init:
  26              	.LFB243:
  27              		.file 1 "Core/Src/main.c"
   1:Core/Src/main.c **** /* USER CODE BEGIN Header */
   2:Core/Src/main.c **** /**
   3:Core/Src/main.c ****   ******************************************************************************
   4:Core/Src/main.c ****   * @file           : main.c
   5:Core/Src/main.c ****   * @brief          : Main program body
   6:Core/Src/main.c ****   ******************************************************************************
   7:Core/Src/main.c ****   * @attention
   8:Core/Src/main.c ****   *
   9:Core/Src/main.c ****   * Copyright (c) 2023 STMicroelectronics.
  10:Core/Src/main.c ****   * All rights reserved.
  11:Core/Src/main.c ****   *
  12:Core/Src/main.c ****   * This software is licensed under terms that can be found in the LICENSE file
  13:Core/Src/main.c ****   * in the root directory of this software component.
  14:Core/Src/main.c ****   * If no LICENSE file comes with this software, it is provided AS-IS.
  15:Core/Src/main.c ****   *
  16:Core/Src/main.c ****   ******************************************************************************
  17:Core/Src/main.c ****   */
  18:Core/Src/main.c **** /* USER CODE END Header */
  19:Core/Src/main.c **** /* Includes ------------------------------------------------------------------*/
  20:Core/Src/main.c **** #include "main.h"
  21:Core/Src/main.c **** 
  22:Core/Src/main.c **** /* Private includes ----------------------------------------------------------*/
  23:Core/Src/main.c **** /* USER CODE BEGIN Includes */
  24:Core/Src/main.c **** #include "command.h"
  25:Core/Src/main.c **** #include "control.h"
  26:Core/Src/main.c **** #include "task.h"
  27:Core/Src/main.c **** /* USER CODE END Includes */
  28:Core/Src/main.c **** 
  29:Core/Src/main.c **** /* Private typedef -----------------------------------------------------------*/
  30:Core/Src/main.c **** /* USER CODE BEGIN PTD */
  31:Core/Src/main.c **** 
ARM GAS  C:\Users\86158\AppData\Local\Temp\ccm695Jf.s 			page 2


  32:Core/Src/main.c **** /* USER CODE END PTD */
  33:Core/Src/main.c **** 
  34:Core/Src/main.c **** /* Private define ------------------------------------------------------------*/
  35:Core/Src/main.c **** /* USER CODE BEGIN PD */
  36:Core/Src/main.c **** /* USER CODE END PD */
  37:Core/Src/main.c **** 
  38:Core/Src/main.c **** /* Private macro -------------------------------------------------------------*/
  39:Core/Src/main.c **** /* USER CODE BEGIN PM */
  40:Core/Src/main.c **** 
  41:Core/Src/main.c **** /* USER CODE END PM */
  42:Core/Src/main.c **** 
  43:Core/Src/main.c **** /* Private variables ---------------------------------------------------------*/
  44:Core/Src/main.c **** ADC_HandleTypeDef hadc1;
  45:Core/Src/main.c **** 
  46:Core/Src/main.c **** SPI_HandleTypeDef hspi1;
  47:Core/Src/main.c **** 
  48:Core/Src/main.c **** UART_HandleTypeDef huart1;
  49:Core/Src/main.c **** UART_HandleTypeDef huart2;
  50:Core/Src/main.c **** UART_HandleTypeDef huart3;
  51:Core/Src/main.c **** 
  52:Core/Src/main.c **** /* USER CODE BEGIN PV */
  53:Core/Src/main.c **** DAC_HandleTypeDef hdac;
  54:Core/Src/main.c **** 
  55:Core/Src/main.c **** /* USER CODE END PV */
  56:Core/Src/main.c **** 
  57:Core/Src/main.c **** /* Private function prototypes -----------------------------------------------*/
  58:Core/Src/main.c **** void SystemClock_Config(void);
  59:Core/Src/main.c **** static void MX_GPIO_Init(void);
  60:Core/Src/main.c **** static void MX_USART1_UART_Init(void);
  61:Core/Src/main.c **** static void MX_ADC1_Init(void);
  62:Core/Src/main.c **** static void MX_SPI1_Init(void);
  63:Core/Src/main.c **** static void MX_USART2_UART_Init(void);
  64:Core/Src/main.c **** static void MX_USART3_UART_Init(void);
  65:Core/Src/main.c **** static void MX_DAC_Init(void);
  66:Core/Src/main.c **** /* USER CODE BEGIN PFP */
  67:Core/Src/main.c **** 
  68:Core/Src/main.c **** /* USER CODE END PFP */
  69:Core/Src/main.c **** 
  70:Core/Src/main.c **** /* Private user code ---------------------------------------------------------*/
  71:Core/Src/main.c **** /* USER CODE BEGIN 0 */
  72:Core/Src/main.c **** 
  73:Core/Src/main.c **** /* USER CODE END 0 */
  74:Core/Src/main.c **** 
  75:Core/Src/main.c **** /**
  76:Core/Src/main.c ****   * @brief  The application entry point.
  77:Core/Src/main.c ****   * @retval int
  78:Core/Src/main.c ****   */
  79:Core/Src/main.c **** int main(void)
  80:Core/Src/main.c **** {
  81:Core/Src/main.c ****   /* USER CODE BEGIN 1 */
  82:Core/Src/main.c ****   uint32_t systemTick = 0;
  83:Core/Src/main.c **** 
  84:Core/Src/main.c ****   /* USER CODE END 1 */
  85:Core/Src/main.c **** 
  86:Core/Src/main.c ****   /* MCU Configuration--------------------------------------------------------*/
  87:Core/Src/main.c **** 
  88:Core/Src/main.c ****   /* Reset of all peripherals, Initializes the Flash interface and the Systick. */
ARM GAS  C:\Users\86158\AppData\Local\Temp\ccm695Jf.s 			page 3


  89:Core/Src/main.c ****   HAL_Init();
  90:Core/Src/main.c **** 
  91:Core/Src/main.c ****   /* USER CODE BEGIN Init */
  92:Core/Src/main.c **** 
  93:Core/Src/main.c ****   /* USER CODE END Init */
  94:Core/Src/main.c **** 
  95:Core/Src/main.c ****   /* Configure the system clock */
  96:Core/Src/main.c ****   SystemClock_Config();
  97:Core/Src/main.c **** 
  98:Core/Src/main.c ****   /* USER CODE BEGIN SysInit */
  99:Core/Src/main.c **** 
 100:Core/Src/main.c ****   /* USER CODE END SysInit */
 101:Core/Src/main.c **** 
 102:Core/Src/main.c ****   /* Initialize all configured peripherals */
 103:Core/Src/main.c ****   MX_GPIO_Init();
 104:Core/Src/main.c ****   MX_USART1_UART_Init();
 105:Core/Src/main.c ****   MX_ADC1_Init();
 106:Core/Src/main.c ****   MX_SPI1_Init();
 107:Core/Src/main.c ****   MX_USART2_UART_Init();
 108:Core/Src/main.c ****   MX_USART3_UART_Init();
 109:Core/Src/main.c ****   /* USER CODE BEGIN 2 */
 110:Core/Src/main.c ****   MX_DAC_Init();
 111:Core/Src/main.c ****   UsartInit();
 112:Core/Src/main.c **** 	log_list_init();
 113:Core/Src/main.c ****   /* USER CODE END 2 */
 114:Core/Src/main.c **** 
 115:Core/Src/main.c ****   /* Infinite loop */
 116:Core/Src/main.c ****   /* USER CODE BEGIN WHILE */
 117:Core/Src/main.c ****   while (1)
 118:Core/Src/main.c ****   {
 119:Core/Src/main.c ****     /* USER CODE END WHILE */
 120:Core/Src/main.c ****       if (systemTick != HAL_GetTick()) {
 121:Core/Src/main.c ****           CheckControlList();
 122:Core/Src/main.c ****           CheckCommandList();
 123:Core/Src/main.c ****           system_manage();
 124:Core/Src/main.c ****           DeviceMassage();
 125:Core/Src/main.c ****           systemTick = HAL_GetTick();
 126:Core/Src/main.c ****       }
 127:Core/Src/main.c ****     /* USER CODE BEGIN 3 */
 128:Core/Src/main.c ****   }
 129:Core/Src/main.c ****   /* USER CODE END 3 */
 130:Core/Src/main.c **** }
 131:Core/Src/main.c **** 
 132:Core/Src/main.c **** // /**
 133:Core/Src/main.c **** //   * @brief System Clock Configuration
 134:Core/Src/main.c **** //   * @retval None
 135:Core/Src/main.c **** //   */
 136:Core/Src/main.c **** // void SystemClock_Config(void)//ƒ⁄÷√æß’Ò
 137:Core/Src/main.c **** // {
 138:Core/Src/main.c **** //   RCC_OscInitTypeDef RCC_OscInitStruct = {0};
 139:Core/Src/main.c **** //   RCC_ClkInitTypeDef RCC_ClkInitStruct = {0};
 140:Core/Src/main.c **** 
 141:Core/Src/main.c **** //   /** Configure the main internal regulator output voltage
 142:Core/Src/main.c **** //   */
 143:Core/Src/main.c **** //   __HAL_RCC_PWR_CLK_ENABLE();
 144:Core/Src/main.c **** //   __HAL_PWR_VOLTAGESCALING_CONFIG(PWR_REGULATOR_VOLTAGE_SCALE1);
 145:Core/Src/main.c **** 
ARM GAS  C:\Users\86158\AppData\Local\Temp\ccm695Jf.s 			page 4


 146:Core/Src/main.c **** //   /** Initializes the RCC Oscillators according to the specified parameters
 147:Core/Src/main.c **** //   * in the RCC_OscInitTypeDef structure.
 148:Core/Src/main.c **** //   */
 149:Core/Src/main.c **** //   RCC_OscInitStruct.OscillatorType = RCC_OSCILLATORTYPE_HSI;
 150:Core/Src/main.c **** //   RCC_OscInitStruct.HSIState = RCC_HSI_ON;
 151:Core/Src/main.c **** //   RCC_OscInitStruct.HSICalibrationValue = RCC_HSICALIBRATION_DEFAULT;
 152:Core/Src/main.c **** //   RCC_OscInitStruct.PLL.PLLState = RCC_PLL_ON;
 153:Core/Src/main.c **** //   RCC_OscInitStruct.PLL.PLLSource = RCC_PLLSOURCE_HSI;
 154:Core/Src/main.c **** //   RCC_OscInitStruct.PLL.PLLM = 8;
 155:Core/Src/main.c **** //   RCC_OscInitStruct.PLL.PLLN = 168;
 156:Core/Src/main.c **** //   RCC_OscInitStruct.PLL.PLLP = RCC_PLLP_DIV2;
 157:Core/Src/main.c **** //   RCC_OscInitStruct.PLL.PLLQ = 4;
 158:Core/Src/main.c **** //   if (HAL_RCC_OscConfig(&RCC_OscInitStruct) != HAL_OK)
 159:Core/Src/main.c **** //   {
 160:Core/Src/main.c **** //     Error_Handler();
 161:Core/Src/main.c **** //   }
 162:Core/Src/main.c **** 
 163:Core/Src/main.c **** //   /** Initializes the CPU, AHB and APB buses clocks
 164:Core/Src/main.c **** //   */
 165:Core/Src/main.c **** //   RCC_ClkInitStruct.ClockType = RCC_CLOCKTYPE_HCLK|RCC_CLOCKTYPE_SYSCLK
 166:Core/Src/main.c **** //                               |RCC_CLOCKTYPE_PCLK1|RCC_CLOCKTYPE_PCLK2;
 167:Core/Src/main.c **** //   RCC_ClkInitStruct.SYSCLKSource = RCC_SYSCLKSOURCE_PLLCLK;
 168:Core/Src/main.c **** //   RCC_ClkInitStruct.AHBCLKDivider = RCC_SYSCLK_DIV1;
 169:Core/Src/main.c **** //   RCC_ClkInitStruct.APB1CLKDivider = RCC_HCLK_DIV4;
 170:Core/Src/main.c **** //   RCC_ClkInitStruct.APB2CLKDivider = RCC_HCLK_DIV2;
 171:Core/Src/main.c **** 
 172:Core/Src/main.c **** //   if (HAL_RCC_ClockConfig(&RCC_ClkInitStruct, FLASH_LATENCY_5) != HAL_OK)
 173:Core/Src/main.c **** //   {
 174:Core/Src/main.c **** //     Error_Handler();
 175:Core/Src/main.c **** //   }
 176:Core/Src/main.c **** // }
 177:Core/Src/main.c **** 
 178:Core/Src/main.c **** void SystemClock_Config(void)//Õ‚÷√12Mæß’Ò
 179:Core/Src/main.c **** {
 180:Core/Src/main.c ****   RCC_OscInitTypeDef RCC_OscInitStruct = {0};
 181:Core/Src/main.c ****   RCC_ClkInitTypeDef RCC_ClkInitStruct = {0};
 182:Core/Src/main.c **** 
 183:Core/Src/main.c ****   /** Configure the main internal regulator output voltage
 184:Core/Src/main.c ****   */
 185:Core/Src/main.c ****   __HAL_RCC_PWR_CLK_ENABLE();
 186:Core/Src/main.c ****   __HAL_PWR_VOLTAGESCALING_CONFIG(PWR_REGULATOR_VOLTAGE_SCALE1);
 187:Core/Src/main.c **** 
 188:Core/Src/main.c ****   /** Initializes the RCC Oscillators according to the specified parameters
 189:Core/Src/main.c ****   * in the RCC_OscInitTypeDef structure.
 190:Core/Src/main.c ****   */
 191:Core/Src/main.c ****   RCC_OscInitStruct.OscillatorType = RCC_OSCILLATORTYPE_HSE;
 192:Core/Src/main.c ****   RCC_OscInitStruct.HSEState = RCC_HSE_ON;
 193:Core/Src/main.c ****   RCC_OscInitStruct.PLL.PLLState = RCC_PLL_ON;
 194:Core/Src/main.c ****   RCC_OscInitStruct.PLL.PLLSource = RCC_PLLSOURCE_HSE;
 195:Core/Src/main.c ****   RCC_OscInitStruct.PLL.PLLM = 6;
 196:Core/Src/main.c ****   RCC_OscInitStruct.PLL.PLLN = 168;
 197:Core/Src/main.c ****   RCC_OscInitStruct.PLL.PLLP = RCC_PLLP_DIV2;
 198:Core/Src/main.c ****   RCC_OscInitStruct.PLL.PLLQ = 4;
 199:Core/Src/main.c ****   if (HAL_RCC_OscConfig(&RCC_OscInitStruct) != HAL_OK)
 200:Core/Src/main.c ****   {
 201:Core/Src/main.c ****     Error_Handler();
 202:Core/Src/main.c ****   }
ARM GAS  C:\Users\86158\AppData\Local\Temp\ccm695Jf.s 			page 5


 203:Core/Src/main.c **** 
 204:Core/Src/main.c ****   /** Initializes the CPU, AHB and APB buses clocks
 205:Core/Src/main.c ****   */
 206:Core/Src/main.c ****   RCC_ClkInitStruct.ClockType = RCC_CLOCKTYPE_HCLK|RCC_CLOCKTYPE_SYSCLK
 207:Core/Src/main.c ****                               |RCC_CLOCKTYPE_PCLK1|RCC_CLOCKTYPE_PCLK2;
 208:Core/Src/main.c ****   RCC_ClkInitStruct.SYSCLKSource = RCC_SYSCLKSOURCE_PLLCLK;
 209:Core/Src/main.c ****   RCC_ClkInitStruct.AHBCLKDivider = RCC_SYSCLK_DIV1;
 210:Core/Src/main.c ****   RCC_ClkInitStruct.APB1CLKDivider = RCC_HCLK_DIV4;
 211:Core/Src/main.c ****   RCC_ClkInitStruct.APB2CLKDivider = RCC_HCLK_DIV2;
 212:Core/Src/main.c **** 
 213:Core/Src/main.c ****   if (HAL_RCC_ClockConfig(&RCC_ClkInitStruct, FLASH_LATENCY_5) != HAL_OK)
 214:Core/Src/main.c ****   {
 215:Core/Src/main.c ****     Error_Handler();
 216:Core/Src/main.c ****   }
 217:Core/Src/main.c **** }
 218:Core/Src/main.c **** 
 219:Core/Src/main.c **** /**
 220:Core/Src/main.c ****   * @brief ADC1 Initialization Function
 221:Core/Src/main.c ****   * @param None
 222:Core/Src/main.c ****   * @retval None
 223:Core/Src/main.c ****   */
 224:Core/Src/main.c **** static void MX_ADC1_Init(void)
 225:Core/Src/main.c **** {
 226:Core/Src/main.c **** 
 227:Core/Src/main.c ****   /* USER CODE BEGIN ADC1_Init 0 */
 228:Core/Src/main.c **** 
 229:Core/Src/main.c ****   /* USER CODE END ADC1_Init 0 */
 230:Core/Src/main.c **** 
 231:Core/Src/main.c ****   ADC_ChannelConfTypeDef sConfig = {0};
 232:Core/Src/main.c **** 
 233:Core/Src/main.c ****   /* USER CODE BEGIN ADC1_Init 1 */
 234:Core/Src/main.c **** 
 235:Core/Src/main.c ****   /* USER CODE END ADC1_Init 1 */
 236:Core/Src/main.c **** 
 237:Core/Src/main.c ****   /** Configure the global features of the ADC (Clock, Resolution, Data Alignment and number of con
 238:Core/Src/main.c ****   */
 239:Core/Src/main.c ****   hadc1.Instance = ADC1;
 240:Core/Src/main.c ****   hadc1.Init.ClockPrescaler = ADC_CLOCK_SYNC_PCLK_DIV4;
 241:Core/Src/main.c ****   hadc1.Init.Resolution = ADC_RESOLUTION_12B;
 242:Core/Src/main.c ****   hadc1.Init.ScanConvMode = DISABLE;
 243:Core/Src/main.c ****   hadc1.Init.ContinuousConvMode = DISABLE;
 244:Core/Src/main.c ****   hadc1.Init.DiscontinuousConvMode = DISABLE;
 245:Core/Src/main.c ****   hadc1.Init.ExternalTrigConvEdge = ADC_EXTERNALTRIGCONVEDGE_NONE;
 246:Core/Src/main.c ****   hadc1.Init.ExternalTrigConv = ADC_SOFTWARE_START;
 247:Core/Src/main.c ****   hadc1.Init.DataAlign = ADC_DATAALIGN_RIGHT;
 248:Core/Src/main.c ****   hadc1.Init.NbrOfConversion = 1;
 249:Core/Src/main.c ****   hadc1.Init.DMAContinuousRequests = DISABLE;
 250:Core/Src/main.c ****   hadc1.Init.EOCSelection = ADC_EOC_SINGLE_CONV;
 251:Core/Src/main.c ****   if (HAL_ADC_Init(&hadc1) != HAL_OK)
 252:Core/Src/main.c ****   {
 253:Core/Src/main.c ****     Error_Handler();
 254:Core/Src/main.c ****   }
 255:Core/Src/main.c **** 
 256:Core/Src/main.c ****   /** Configure for the selected ADC regular channel its corresponding rank in the sequencer and it
 257:Core/Src/main.c ****   */
 258:Core/Src/main.c ****   sConfig.Channel = ADC_CHANNEL_0;
 259:Core/Src/main.c ****   sConfig.Rank = 1;
ARM GAS  C:\Users\86158\AppData\Local\Temp\ccm695Jf.s 			page 6


 260:Core/Src/main.c ****   sConfig.SamplingTime = ADC_SAMPLETIME_3CYCLES;
 261:Core/Src/main.c ****   if (HAL_ADC_ConfigChannel(&hadc1, &sConfig) != HAL_OK)
 262:Core/Src/main.c ****   {
 263:Core/Src/main.c ****     Error_Handler();
 264:Core/Src/main.c ****   }
 265:Core/Src/main.c ****   /* USER CODE BEGIN ADC1_Init 2 */
 266:Core/Src/main.c **** 
 267:Core/Src/main.c ****   /* USER CODE END ADC1_Init 2 */
 268:Core/Src/main.c **** 
 269:Core/Src/main.c **** }
 270:Core/Src/main.c **** 
 271:Core/Src/main.c **** 
 272:Core/Src/main.c **** /**
 273:Core/Src/main.c ****   * @brief DAC Initialization Function
 274:Core/Src/main.c ****   * @param None
 275:Core/Src/main.c ****   * @retval None
 276:Core/Src/main.c ****   */
 277:Core/Src/main.c **** static void MX_DAC_Init(void)
 278:Core/Src/main.c **** {
 279:Core/Src/main.c **** 
 280:Core/Src/main.c ****   /* USER CODE BEGIN DAC_Init 0 */
 281:Core/Src/main.c **** 
 282:Core/Src/main.c ****   /* USER CODE END DAC_Init 0 */
 283:Core/Src/main.c **** 
 284:Core/Src/main.c ****   DAC_ChannelConfTypeDef sConfig = {0};
 285:Core/Src/main.c **** 
 286:Core/Src/main.c ****   /* USER CODE BEGIN DAC_Init 1 */
 287:Core/Src/main.c **** 
 288:Core/Src/main.c ****   /* USER CODE END DAC_Init 1 */
 289:Core/Src/main.c **** 
 290:Core/Src/main.c ****   /** DAC Initialization
 291:Core/Src/main.c ****   */
 292:Core/Src/main.c ****   hdac.Instance = DAC;
 293:Core/Src/main.c ****   if (HAL_DAC_Init(&hdac) != HAL_OK)
 294:Core/Src/main.c ****   {
 295:Core/Src/main.c ****     Error_Handler();
 296:Core/Src/main.c ****   }
 297:Core/Src/main.c **** 
 298:Core/Src/main.c ****   /** DAC channel OUT1 config
 299:Core/Src/main.c ****   */
 300:Core/Src/main.c ****   sConfig.DAC_Trigger = DAC_TRIGGER_NONE;
 301:Core/Src/main.c ****   sConfig.DAC_OutputBuffer = DAC_OUTPUTBUFFER_ENABLE;
 302:Core/Src/main.c ****   if (HAL_DAC_ConfigChannel(&hdac, &sConfig, DAC_CHANNEL_1) != HAL_OK)
 303:Core/Src/main.c ****   {
 304:Core/Src/main.c ****     Error_Handler();
 305:Core/Src/main.c ****   }
 306:Core/Src/main.c ****   /* USER CODE BEGIN DAC_Init 2 */
 307:Core/Src/main.c **** 
 308:Core/Src/main.c ****   /* USER CODE END DAC_Init 2 */
 309:Core/Src/main.c **** 
 310:Core/Src/main.c **** }
 311:Core/Src/main.c **** 
 312:Core/Src/main.c **** /**
 313:Core/Src/main.c ****   * @brief SPI1 Initialization Function
 314:Core/Src/main.c ****   * @param None
 315:Core/Src/main.c ****   * @retval None
 316:Core/Src/main.c ****   */
ARM GAS  C:\Users\86158\AppData\Local\Temp\ccm695Jf.s 			page 7


 317:Core/Src/main.c **** static void MX_SPI1_Init(void)
 318:Core/Src/main.c **** {
 319:Core/Src/main.c **** 
 320:Core/Src/main.c ****   /* USER CODE BEGIN SPI1_Init 0 */
 321:Core/Src/main.c **** 
 322:Core/Src/main.c ****   /* USER CODE END SPI1_Init 0 */
 323:Core/Src/main.c **** 
 324:Core/Src/main.c ****   /* USER CODE BEGIN SPI1_Init 1 */
 325:Core/Src/main.c **** 
 326:Core/Src/main.c ****   /* USER CODE END SPI1_Init 1 */
 327:Core/Src/main.c ****   /* SPI1 parameter configuration*/
 328:Core/Src/main.c ****   hspi1.Instance = SPI1;
 329:Core/Src/main.c ****   hspi1.Init.Mode = SPI_MODE_MASTER;
 330:Core/Src/main.c ****   hspi1.Init.Direction = SPI_DIRECTION_2LINES;
 331:Core/Src/main.c ****   hspi1.Init.DataSize = SPI_DATASIZE_8BIT;
 332:Core/Src/main.c ****   hspi1.Init.CLKPolarity = SPI_POLARITY_LOW;
 333:Core/Src/main.c ****   hspi1.Init.CLKPhase = SPI_PHASE_1EDGE;
 334:Core/Src/main.c ****   hspi1.Init.NSS = SPI_NSS_SOFT;
 335:Core/Src/main.c ****   hspi1.Init.BaudRatePrescaler = SPI_BAUDRATEPRESCALER_2;
 336:Core/Src/main.c ****   hspi1.Init.FirstBit = SPI_FIRSTBIT_MSB;
 337:Core/Src/main.c ****   hspi1.Init.TIMode = SPI_TIMODE_DISABLE;
 338:Core/Src/main.c ****   hspi1.Init.CRCCalculation = SPI_CRCCALCULATION_DISABLE;
 339:Core/Src/main.c ****   hspi1.Init.CRCPolynomial = 10;
 340:Core/Src/main.c ****   if (HAL_SPI_Init(&hspi1) != HAL_OK)
 341:Core/Src/main.c ****   {
 342:Core/Src/main.c ****     Error_Handler();
 343:Core/Src/main.c ****   }
 344:Core/Src/main.c ****   /* USER CODE BEGIN SPI1_Init 2 */
 345:Core/Src/main.c **** 
 346:Core/Src/main.c ****   /* USER CODE END SPI1_Init 2 */
 347:Core/Src/main.c **** 
 348:Core/Src/main.c **** }
 349:Core/Src/main.c **** 
 350:Core/Src/main.c **** /**
 351:Core/Src/main.c ****   * @brief USART1 Initialization Function
 352:Core/Src/main.c ****   * @param None
 353:Core/Src/main.c ****   * @retval None
 354:Core/Src/main.c ****   */
 355:Core/Src/main.c **** static void MX_USART1_UART_Init(void)
 356:Core/Src/main.c **** {
 357:Core/Src/main.c **** 
 358:Core/Src/main.c ****   /* USER CODE BEGIN USART1_Init 0 */
 359:Core/Src/main.c **** 
 360:Core/Src/main.c ****   /* USER CODE END USART1_Init 0 */
 361:Core/Src/main.c **** 
 362:Core/Src/main.c ****   /* USER CODE BEGIN USART1_Init 1 */
 363:Core/Src/main.c **** 
 364:Core/Src/main.c ****   /* USER CODE END USART1_Init 1 */
 365:Core/Src/main.c ****   huart1.Instance = USART1;
 366:Core/Src/main.c ****   huart1.Init.BaudRate = 921600;
 367:Core/Src/main.c ****   huart1.Init.WordLength = UART_WORDLENGTH_8B;
 368:Core/Src/main.c ****   huart1.Init.StopBits = UART_STOPBITS_1;
 369:Core/Src/main.c ****   huart1.Init.Parity = UART_PARITY_NONE;
 370:Core/Src/main.c ****   huart1.Init.Mode = UART_MODE_TX_RX;
 371:Core/Src/main.c ****   huart1.Init.HwFlowCtl = UART_HWCONTROL_NONE;
 372:Core/Src/main.c ****   huart1.Init.OverSampling = UART_OVERSAMPLING_16;
 373:Core/Src/main.c ****   if (HAL_UART_Init(&huart1) != HAL_OK)
ARM GAS  C:\Users\86158\AppData\Local\Temp\ccm695Jf.s 			page 8


 374:Core/Src/main.c ****   {
 375:Core/Src/main.c ****     Error_Handler();
 376:Core/Src/main.c ****   }
 377:Core/Src/main.c ****   /* USER CODE BEGIN USART1_Init 2 */
 378:Core/Src/main.c **** 
 379:Core/Src/main.c ****   /* USER CODE END USART1_Init 2 */
 380:Core/Src/main.c **** 
 381:Core/Src/main.c **** }
 382:Core/Src/main.c **** 
 383:Core/Src/main.c **** /**
 384:Core/Src/main.c ****   * @brief USART2 Initialization Function
 385:Core/Src/main.c ****   * @param None
 386:Core/Src/main.c ****   * @retval None
 387:Core/Src/main.c ****   */
 388:Core/Src/main.c **** static void MX_USART2_UART_Init(void)
 389:Core/Src/main.c **** {
 390:Core/Src/main.c **** 
 391:Core/Src/main.c ****   /* USER CODE BEGIN USART2_Init 0 */
 392:Core/Src/main.c **** 
 393:Core/Src/main.c ****   /* USER CODE END USART2_Init 0 */
 394:Core/Src/main.c **** 
 395:Core/Src/main.c ****   /* USER CODE BEGIN USART2_Init 1 */
 396:Core/Src/main.c **** 
 397:Core/Src/main.c ****   /* USER CODE END USART2_Init 1 */
 398:Core/Src/main.c ****   huart2.Instance = USART2;
 399:Core/Src/main.c ****   huart2.Init.BaudRate = 9600;
 400:Core/Src/main.c ****   huart2.Init.WordLength = UART_WORDLENGTH_8B;
 401:Core/Src/main.c ****   huart2.Init.StopBits = UART_STOPBITS_1;
 402:Core/Src/main.c ****   huart2.Init.Parity = UART_PARITY_NONE;
 403:Core/Src/main.c ****   huart2.Init.Mode = UART_MODE_TX_RX;
 404:Core/Src/main.c ****   huart2.Init.HwFlowCtl = UART_HWCONTROL_NONE;
 405:Core/Src/main.c ****   huart2.Init.OverSampling = UART_OVERSAMPLING_16;
 406:Core/Src/main.c ****   if (HAL_UART_Init(&huart2) != HAL_OK)
 407:Core/Src/main.c ****   {
 408:Core/Src/main.c ****     Error_Handler();
 409:Core/Src/main.c ****   }
 410:Core/Src/main.c ****   /* USER CODE BEGIN USART2_Init 2 */
 411:Core/Src/main.c **** 
 412:Core/Src/main.c ****   /* USER CODE END USART2_Init 2 */
 413:Core/Src/main.c **** 
 414:Core/Src/main.c **** }
 415:Core/Src/main.c **** 
 416:Core/Src/main.c **** /**
 417:Core/Src/main.c ****   * @brief USART3 Initialization Function
 418:Core/Src/main.c ****   * @param None
 419:Core/Src/main.c ****   * @retval None
 420:Core/Src/main.c ****   */
 421:Core/Src/main.c **** static void MX_USART3_UART_Init(void)
 422:Core/Src/main.c **** {
 423:Core/Src/main.c **** 
 424:Core/Src/main.c ****   /* USER CODE BEGIN USART3_Init 0 */
 425:Core/Src/main.c **** 
 426:Core/Src/main.c ****   /* USER CODE END USART3_Init 0 */
 427:Core/Src/main.c **** 
 428:Core/Src/main.c ****   /* USER CODE BEGIN USART3_Init 1 */
 429:Core/Src/main.c **** 
 430:Core/Src/main.c ****   /* USER CODE END USART3_Init 1 */
ARM GAS  C:\Users\86158\AppData\Local\Temp\ccm695Jf.s 			page 9


 431:Core/Src/main.c ****   huart3.Instance = USART3;
 432:Core/Src/main.c ****   huart3.Init.BaudRate = 9600;
 433:Core/Src/main.c ****   huart3.Init.WordLength = UART_WORDLENGTH_8B;
 434:Core/Src/main.c ****   huart3.Init.StopBits = UART_STOPBITS_1;
 435:Core/Src/main.c ****   huart3.Init.Parity = UART_PARITY_NONE;
 436:Core/Src/main.c ****   huart3.Init.Mode = UART_MODE_TX_RX;
 437:Core/Src/main.c ****   huart3.Init.HwFlowCtl = UART_HWCONTROL_NONE;
 438:Core/Src/main.c ****   huart3.Init.OverSampling = UART_OVERSAMPLING_16;
 439:Core/Src/main.c ****   if (HAL_UART_Init(&huart3) != HAL_OK)
 440:Core/Src/main.c ****   {
 441:Core/Src/main.c ****     Error_Handler();
 442:Core/Src/main.c ****   }
 443:Core/Src/main.c ****   /* USER CODE BEGIN USART3_Init 2 */
 444:Core/Src/main.c **** 
 445:Core/Src/main.c ****   /* USER CODE END USART3_Init 2 */
 446:Core/Src/main.c **** 
 447:Core/Src/main.c **** }
 448:Core/Src/main.c **** 
 449:Core/Src/main.c **** /**
 450:Core/Src/main.c ****   * @brief GPIO Initialization Function
 451:Core/Src/main.c ****   * @param None
 452:Core/Src/main.c ****   * @retval None
 453:Core/Src/main.c ****   */
 454:Core/Src/main.c **** static void MX_GPIO_Init(void)
 455:Core/Src/main.c **** {
  28              		.loc 1 455 1 view -0
  29              		.cfi_startproc
  30              		@ args = 0, pretend = 0, frame = 40
  31              		@ frame_needed = 0, uses_anonymous_args = 0
  32 0000 2DE9F047 		push	{r4, r5, r6, r7, r8, r9, r10, lr}
  33              	.LCFI0:
  34              		.cfi_def_cfa_offset 32
  35              		.cfi_offset 4, -32
  36              		.cfi_offset 5, -28
  37              		.cfi_offset 6, -24
  38              		.cfi_offset 7, -20
  39              		.cfi_offset 8, -16
  40              		.cfi_offset 9, -12
  41              		.cfi_offset 10, -8
  42              		.cfi_offset 14, -4
  43 0004 8AB0     		sub	sp, sp, #40
  44              	.LCFI1:
  45              		.cfi_def_cfa_offset 72
 456:Core/Src/main.c ****   GPIO_InitTypeDef GPIO_InitStruct = {0};
  46              		.loc 1 456 3 view .LVU1
  47              		.loc 1 456 20 is_stmt 0 view .LVU2
  48 0006 0024     		movs	r4, #0
  49 0008 0594     		str	r4, [sp, #20]
  50 000a 0694     		str	r4, [sp, #24]
  51 000c 0794     		str	r4, [sp, #28]
  52 000e 0894     		str	r4, [sp, #32]
  53 0010 0994     		str	r4, [sp, #36]
 457:Core/Src/main.c **** 
 458:Core/Src/main.c ****   /* GPIO Ports Clock Enable */
 459:Core/Src/main.c ****   __HAL_RCC_GPIOA_CLK_ENABLE();
  54              		.loc 1 459 3 is_stmt 1 view .LVU3
  55              	.LBB4:
ARM GAS  C:\Users\86158\AppData\Local\Temp\ccm695Jf.s 			page 10


  56              		.loc 1 459 3 view .LVU4
  57 0012 0094     		str	r4, [sp]
  58              		.loc 1 459 3 view .LVU5
  59 0014 5B4B     		ldr	r3, .L3
  60 0016 1A6B     		ldr	r2, [r3, #48]
  61 0018 42F00102 		orr	r2, r2, #1
  62 001c 1A63     		str	r2, [r3, #48]
  63              		.loc 1 459 3 view .LVU6
  64 001e 1A6B     		ldr	r2, [r3, #48]
  65 0020 02F00102 		and	r2, r2, #1
  66 0024 0092     		str	r2, [sp]
  67              		.loc 1 459 3 view .LVU7
  68 0026 009A     		ldr	r2, [sp]
  69              	.LBE4:
  70              		.loc 1 459 3 view .LVU8
 460:Core/Src/main.c ****   __HAL_RCC_GPIOB_CLK_ENABLE();
  71              		.loc 1 460 3 view .LVU9
  72              	.LBB5:
  73              		.loc 1 460 3 view .LVU10
  74 0028 0194     		str	r4, [sp, #4]
  75              		.loc 1 460 3 view .LVU11
  76 002a 1A6B     		ldr	r2, [r3, #48]
  77 002c 42F00202 		orr	r2, r2, #2
  78 0030 1A63     		str	r2, [r3, #48]
  79              		.loc 1 460 3 view .LVU12
  80 0032 1A6B     		ldr	r2, [r3, #48]
  81 0034 02F00202 		and	r2, r2, #2
  82 0038 0192     		str	r2, [sp, #4]
  83              		.loc 1 460 3 view .LVU13
  84 003a 019A     		ldr	r2, [sp, #4]
  85              	.LBE5:
  86              		.loc 1 460 3 view .LVU14
 461:Core/Src/main.c ****   __HAL_RCC_GPIOC_CLK_ENABLE();
  87              		.loc 1 461 3 view .LVU15
  88              	.LBB6:
  89              		.loc 1 461 3 view .LVU16
  90 003c 0294     		str	r4, [sp, #8]
  91              		.loc 1 461 3 view .LVU17
  92 003e 1A6B     		ldr	r2, [r3, #48]
  93 0040 42F00402 		orr	r2, r2, #4
  94 0044 1A63     		str	r2, [r3, #48]
  95              		.loc 1 461 3 view .LVU18
  96 0046 1A6B     		ldr	r2, [r3, #48]
  97 0048 02F00402 		and	r2, r2, #4
  98 004c 0292     		str	r2, [sp, #8]
  99              		.loc 1 461 3 view .LVU19
 100 004e 029A     		ldr	r2, [sp, #8]
 101              	.LBE6:
 102              		.loc 1 461 3 view .LVU20
 462:Core/Src/main.c ****   __HAL_RCC_GPIOD_CLK_ENABLE();
 103              		.loc 1 462 3 view .LVU21
 104              	.LBB7:
 105              		.loc 1 462 3 view .LVU22
 106 0050 0394     		str	r4, [sp, #12]
 107              		.loc 1 462 3 view .LVU23
 108 0052 1A6B     		ldr	r2, [r3, #48]
 109 0054 42F00802 		orr	r2, r2, #8
ARM GAS  C:\Users\86158\AppData\Local\Temp\ccm695Jf.s 			page 11


 110 0058 1A63     		str	r2, [r3, #48]
 111              		.loc 1 462 3 view .LVU24
 112 005a 1A6B     		ldr	r2, [r3, #48]
 113 005c 02F00802 		and	r2, r2, #8
 114 0060 0392     		str	r2, [sp, #12]
 115              		.loc 1 462 3 view .LVU25
 116 0062 039A     		ldr	r2, [sp, #12]
 117              	.LBE7:
 118              		.loc 1 462 3 view .LVU26
 463:Core/Src/main.c ****   __HAL_RCC_GPIOE_CLK_ENABLE();
 119              		.loc 1 463 3 view .LVU27
 120              	.LBB8:
 121              		.loc 1 463 3 view .LVU28
 122 0064 0494     		str	r4, [sp, #16]
 123              		.loc 1 463 3 view .LVU29
 124 0066 1A6B     		ldr	r2, [r3, #48]
 125 0068 42F01002 		orr	r2, r2, #16
 126 006c 1A63     		str	r2, [r3, #48]
 127              		.loc 1 463 3 view .LVU30
 128 006e 1B6B     		ldr	r3, [r3, #48]
 129 0070 03F01003 		and	r3, r3, #16
 130 0074 0493     		str	r3, [sp, #16]
 131              		.loc 1 463 3 view .LVU31
 132 0076 049B     		ldr	r3, [sp, #16]
 133              	.LBE8:
 134              		.loc 1 463 3 view .LVU32
 464:Core/Src/main.c **** 
 465:Core/Src/main.c ****   /*Configure GPIO pin Output Level */
 466:Core/Src/main.c ****   HAL_GPIO_WritePin(GPIOE, GPIO_PIN_0|GPIO_PIN_1|GPIO_PIN_2|GPIO_PIN_3|GPIO_PIN_4|GPIO_PIN_5
 135              		.loc 1 466 3 view .LVU33
 136 0078 434D     		ldr	r5, .L3+4
 137 007a 2246     		mov	r2, r4
 138 007c 4FF67F71 		movw	r1, #65407
 139 0080 2846     		mov	r0, r5
 140 0082 FFF7FEFF 		bl	HAL_GPIO_WritePin
 141              	.LVL0:
 467:Core/Src/main.c ****                           |GPIO_PIN_6|GPIO_PIN_8 | GPIO_PIN_9 | GPIO_PIN_10 | GPIO_PIN_11 
 468:Core/Src/main.c ****                           | GPIO_PIN_12 |GPIO_PIN_13|GPIO_PIN_14 | GPIO_PIN_15, GPIO_PIN_RESET); 
 469:Core/Src/main.c ****                           
 470:Core/Src/main.c ****   HAL_GPIO_WritePin(GPIOE, GPIO_PIN_7, GPIO_PIN_SET);
 142              		.loc 1 470 3 view .LVU34
 143 0086 0122     		movs	r2, #1
 144 0088 8021     		movs	r1, #128
 145 008a 2846     		mov	r0, r5
 146 008c FFF7FEFF 		bl	HAL_GPIO_WritePin
 147              	.LVL1:
 471:Core/Src/main.c **** 
 472:Core/Src/main.c ****   /*Configure GPIO pin Output Level */
 473:Core/Src/main.c ****   HAL_GPIO_WritePin(GPIOC, GPIO_PIN_8|GPIO_PIN_9|GPIO_PIN_10|GPIO_PIN_11|GPIO_PIN_12|GPIO_PIN_13, G
 148              		.loc 1 473 3 view .LVU35
 149 0090 DFF8FCA0 		ldr	r10, .L3+12
 150 0094 0122     		movs	r2, #1
 151 0096 4FF47C51 		mov	r1, #16128
 152 009a 5046     		mov	r0, r10
 153 009c FFF7FEFF 		bl	HAL_GPIO_WritePin
 154              	.LVL2:
 474:Core/Src/main.c **** 
ARM GAS  C:\Users\86158\AppData\Local\Temp\ccm695Jf.s 			page 12


 475:Core/Src/main.c ****   /*Configure GPIO pin Output Level */
 476:Core/Src/main.c ****   HAL_GPIO_WritePin(GPIOA, GPIO_PIN_15|GPIO_PIN_8|GPIO_PIN_12, GPIO_PIN_SET);
 155              		.loc 1 476 3 view .LVU36
 156 00a0 DFF8F090 		ldr	r9, .L3+16
 157 00a4 0122     		movs	r2, #1
 158 00a6 4FF41141 		mov	r1, #37120
 159 00aa 4846     		mov	r0, r9
 160 00ac FFF7FEFF 		bl	HAL_GPIO_WritePin
 161              	.LVL3:
 477:Core/Src/main.c **** 
 478:Core/Src/main.c ****   /*Configure GPIO pin Output Level */
 479:Core/Src/main.c ****   HAL_GPIO_WritePin(GPIOD, GPIO_PIN_0|GPIO_PIN_1|GPIO_PIN_2|GPIO_PIN_3|GPIO_PIN_4
 162              		.loc 1 479 3 view .LVU37
 163 00b0 DFF8E480 		ldr	r8, .L3+20
 164 00b4 2246     		mov	r2, r4
 165 00b6 43F6FF71 		movw	r1, #16383
 166 00ba 4046     		mov	r0, r8
 167 00bc FFF7FEFF 		bl	HAL_GPIO_WritePin
 168              	.LVL4:
 480:Core/Src/main.c ****                           |GPIO_PIN_5|GPIO_PIN_6|GPIO_PIN_7|GPIO_PIN_8|GPIO_PIN_9|
 481:Core/Src/main.c ****                           GPIO_PIN_10|GPIO_PIN_11|GPIO_PIN_12|GPIO_PIN_13, GPIO_PIN_RESET);
 482:Core/Src/main.c **** 
 483:Core/Src/main.c ****   /*Configure GPIO pin Output Level */
 484:Core/Src/main.c ****   HAL_GPIO_WritePin(GPIOB, GPIO_PIN_2|GPIO_PIN_3|GPIO_PIN_4|GPIO_PIN_5|GPIO_PIN_6|GPIO_PIN_7, GPIO_
 169              		.loc 1 484 3 view .LVU38
 170 00c0 324F     		ldr	r7, .L3+8
 171 00c2 0122     		movs	r2, #1
 172 00c4 FC21     		movs	r1, #252
 173 00c6 3846     		mov	r0, r7
 174 00c8 FFF7FEFF 		bl	HAL_GPIO_WritePin
 175              	.LVL5:
 485:Core/Src/main.c ****   HAL_GPIO_WritePin(GPIOB, GPIO_PIN_8|GPIO_PIN_9|GPIO_PIN_12|GPIO_PIN_13|GPIO_PIN_14|GPIO_PIN_15, G
 176              		.loc 1 485 3 view .LVU39
 177 00cc 0122     		movs	r2, #1
 178 00ce 4FF47341 		mov	r1, #62208
 179 00d2 3846     		mov	r0, r7
 180 00d4 FFF7FEFF 		bl	HAL_GPIO_WritePin
 181              	.LVL6:
 486:Core/Src/main.c **** //-------------------------------------------------------------------------------------------------
 487:Core/Src/main.c **** 
 488:Core/Src/main.c ****   /*Configure GPIO pins : PA15 PA8 PA12 */
 489:Core/Src/main.c ****   GPIO_InitStruct.Pin = GPIO_PIN_8|GPIO_PIN_12|GPIO_PIN_15;
 182              		.loc 1 489 3 view .LVU40
 183              		.loc 1 489 23 is_stmt 0 view .LVU41
 184 00d8 4FF41143 		mov	r3, #37120
 185 00dc 0593     		str	r3, [sp, #20]
 490:Core/Src/main.c ****   GPIO_InitStruct.Mode = GPIO_MODE_OUTPUT_PP;
 186              		.loc 1 490 3 is_stmt 1 view .LVU42
 187              		.loc 1 490 24 is_stmt 0 view .LVU43
 188 00de 0126     		movs	r6, #1
 189 00e0 0696     		str	r6, [sp, #24]
 491:Core/Src/main.c ****   GPIO_InitStruct.Pull = GPIO_NOPULL;
 190              		.loc 1 491 3 is_stmt 1 view .LVU44
 191              		.loc 1 491 24 is_stmt 0 view .LVU45
 192 00e2 0794     		str	r4, [sp, #28]
 492:Core/Src/main.c ****   GPIO_InitStruct.Speed = GPIO_SPEED_FREQ_LOW;
 193              		.loc 1 492 3 is_stmt 1 view .LVU46
ARM GAS  C:\Users\86158\AppData\Local\Temp\ccm695Jf.s 			page 13


 194              		.loc 1 492 25 is_stmt 0 view .LVU47
 195 00e4 0894     		str	r4, [sp, #32]
 493:Core/Src/main.c ****   HAL_GPIO_Init(GPIOA, &GPIO_InitStruct);
 196              		.loc 1 493 3 is_stmt 1 view .LVU48
 197 00e6 05A9     		add	r1, sp, #20
 198 00e8 4846     		mov	r0, r9
 199 00ea FFF7FEFF 		bl	HAL_GPIO_Init
 200              	.LVL7:
 494:Core/Src/main.c **** 
 495:Core/Src/main.c **** 
 496:Core/Src/main.c ****   /*Configure GPIO pin : PA11 */
 497:Core/Src/main.c ****   GPIO_InitStruct.Pin = GPIO_PIN_11;
 201              		.loc 1 497 3 view .LVU49
 202              		.loc 1 497 23 is_stmt 0 view .LVU50
 203 00ee 4FF40063 		mov	r3, #2048
 204 00f2 0593     		str	r3, [sp, #20]
 498:Core/Src/main.c ****   GPIO_InitStruct.Mode = GPIO_MODE_INPUT;
 205              		.loc 1 498 3 is_stmt 1 view .LVU51
 206              		.loc 1 498 24 is_stmt 0 view .LVU52
 207 00f4 0694     		str	r4, [sp, #24]
 499:Core/Src/main.c ****   GPIO_InitStruct.Pull = GPIO_NOPULL;
 208              		.loc 1 499 3 is_stmt 1 view .LVU53
 209              		.loc 1 499 24 is_stmt 0 view .LVU54
 210 00f6 0794     		str	r4, [sp, #28]
 500:Core/Src/main.c ****   HAL_GPIO_Init(GPIOA, &GPIO_InitStruct);
 211              		.loc 1 500 3 is_stmt 1 view .LVU55
 212 00f8 05A9     		add	r1, sp, #20
 213 00fa 4846     		mov	r0, r9
 214 00fc FFF7FEFF 		bl	HAL_GPIO_Init
 215              	.LVL8:
 501:Core/Src/main.c **** 
 502:Core/Src/main.c ****   /*Configure GPIO pin : PB8 */
 503:Core/Src/main.c ****   GPIO_InitStruct.Pin = GPIO_PIN_2|GPIO_PIN_3|GPIO_PIN_4|GPIO_PIN_5|GPIO_PIN_6
 216              		.loc 1 503 3 view .LVU56
 217              		.loc 1 503 23 is_stmt 0 view .LVU57
 218 0100 4FF27C33 		movw	r3, #62332
 219 0104 0593     		str	r3, [sp, #20]
 504:Core/Src/main.c ****                         |GPIO_PIN_8|GPIO_PIN_9|GPIO_PIN_12|GPIO_PIN_13|GPIO_PIN_14|GPIO_PIN_15;
 505:Core/Src/main.c ****   GPIO_InitStruct.Mode = GPIO_MODE_OUTPUT_PP;
 220              		.loc 1 505 3 is_stmt 1 view .LVU58
 221              		.loc 1 505 24 is_stmt 0 view .LVU59
 222 0106 0696     		str	r6, [sp, #24]
 506:Core/Src/main.c ****   GPIO_InitStruct.Pull = GPIO_NOPULL;
 223              		.loc 1 506 3 is_stmt 1 view .LVU60
 224              		.loc 1 506 24 is_stmt 0 view .LVU61
 225 0108 0794     		str	r4, [sp, #28]
 507:Core/Src/main.c ****   GPIO_InitStruct.Speed = GPIO_SPEED_FREQ_LOW;
 226              		.loc 1 507 3 is_stmt 1 view .LVU62
 227              		.loc 1 507 25 is_stmt 0 view .LVU63
 228 010a 0894     		str	r4, [sp, #32]
 508:Core/Src/main.c ****   HAL_GPIO_Init(GPIOB, &GPIO_InitStruct);
 229              		.loc 1 508 3 is_stmt 1 view .LVU64
 230 010c 05A9     		add	r1, sp, #20
 231 010e 3846     		mov	r0, r7
 232 0110 FFF7FEFF 		bl	HAL_GPIO_Init
 233              	.LVL9:
 509:Core/Src/main.c **** 
ARM GAS  C:\Users\86158\AppData\Local\Temp\ccm695Jf.s 			page 14


 510:Core/Src/main.c **** 
 511:Core/Src/main.c ****   GPIO_InitStruct.Pin = GPIO_PIN_0|GPIO_PIN_1|GPIO_PIN_2|GPIO_PIN_3|GPIO_PIN_4|GPIO_PIN_5|GPIO_PIN_
 234              		.loc 1 511 3 view .LVU65
 235              		.loc 1 511 23 is_stmt 0 view .LVU66
 236 0114 4CF2FF03 		movw	r3, #49407
 237 0118 0593     		str	r3, [sp, #20]
 512:Core/Src/main.c ****   GPIO_InitStruct.Mode = GPIO_MODE_OUTPUT_OD;
 238              		.loc 1 512 3 is_stmt 1 view .LVU67
 239              		.loc 1 512 24 is_stmt 0 view .LVU68
 240 011a 1127     		movs	r7, #17
 241 011c 0697     		str	r7, [sp, #24]
 513:Core/Src/main.c ****   GPIO_InitStruct.Pull = GPIO_NOPULL;
 242              		.loc 1 513 3 is_stmt 1 view .LVU69
 243              		.loc 1 513 24 is_stmt 0 view .LVU70
 244 011e 0794     		str	r4, [sp, #28]
 514:Core/Src/main.c ****   GPIO_InitStruct.Speed = GPIO_SPEED_FREQ_HIGH;
 245              		.loc 1 514 3 is_stmt 1 view .LVU71
 246              		.loc 1 514 25 is_stmt 0 view .LVU72
 247 0120 0223     		movs	r3, #2
 248 0122 0893     		str	r3, [sp, #32]
 515:Core/Src/main.c ****   HAL_GPIO_Init(GPIOC, &GPIO_InitStruct);  
 249              		.loc 1 515 3 is_stmt 1 view .LVU73
 250 0124 05A9     		add	r1, sp, #20
 251 0126 5046     		mov	r0, r10
 252 0128 FFF7FEFF 		bl	HAL_GPIO_Init
 253              	.LVL10:
 516:Core/Src/main.c **** 
 517:Core/Src/main.c ****   /*Configure GPIO pins : PD0 PD1 PD2 PD3 PD4 PD5 PD6 PD7 PD8 PD9 PD10 PD11 PD12 PD13 */
 518:Core/Src/main.c ****   GPIO_InitStruct.Pin = GPIO_PIN_0|GPIO_PIN_1|GPIO_PIN_2|GPIO_PIN_3|GPIO_PIN_4|GPIO_PIN_5|GPIO_PIN_
 254              		.loc 1 518 3 view .LVU74
 255              		.loc 1 518 23 is_stmt 0 view .LVU75
 256 012c 40F2FF33 		movw	r3, #1023
 257 0130 0593     		str	r3, [sp, #20]
 519:Core/Src/main.c ****                         GPIO_PIN_8|GPIO_PIN_9;
 520:Core/Src/main.c ****   GPIO_InitStruct.Mode = GPIO_MODE_OUTPUT_PP;
 258              		.loc 1 520 3 is_stmt 1 view .LVU76
 259              		.loc 1 520 24 is_stmt 0 view .LVU77
 260 0132 0696     		str	r6, [sp, #24]
 521:Core/Src/main.c ****   GPIO_InitStruct.Pull = GPIO_NOPULL;
 261              		.loc 1 521 3 is_stmt 1 view .LVU78
 262              		.loc 1 521 24 is_stmt 0 view .LVU79
 263 0134 0794     		str	r4, [sp, #28]
 522:Core/Src/main.c ****   GPIO_InitStruct.Speed = GPIO_SPEED_FREQ_LOW;
 264              		.loc 1 522 3 is_stmt 1 view .LVU80
 265              		.loc 1 522 25 is_stmt 0 view .LVU81
 266 0136 0894     		str	r4, [sp, #32]
 523:Core/Src/main.c ****   HAL_GPIO_Init(GPIOD, &GPIO_InitStruct);
 267              		.loc 1 523 3 is_stmt 1 view .LVU82
 268 0138 05A9     		add	r1, sp, #20
 269 013a 4046     		mov	r0, r8
 270 013c FFF7FEFF 		bl	HAL_GPIO_Init
 271              	.LVL11:
 524:Core/Src/main.c **** 
 525:Core/Src/main.c ****   GPIO_InitStruct.Pin = GPIO_PIN_10|GPIO_PIN_11|GPIO_PIN_12|GPIO_PIN_13;
 272              		.loc 1 525 3 view .LVU83
 273              		.loc 1 525 23 is_stmt 0 view .LVU84
 274 0140 4FF47053 		mov	r3, #15360
ARM GAS  C:\Users\86158\AppData\Local\Temp\ccm695Jf.s 			page 15


 275 0144 0593     		str	r3, [sp, #20]
 526:Core/Src/main.c ****   GPIO_InitStruct.Mode = GPIO_MODE_OUTPUT_OD;
 276              		.loc 1 526 3 is_stmt 1 view .LVU85
 277              		.loc 1 526 24 is_stmt 0 view .LVU86
 278 0146 0697     		str	r7, [sp, #24]
 527:Core/Src/main.c ****   GPIO_InitStruct.Pull = GPIO_NOPULL;
 279              		.loc 1 527 3 is_stmt 1 view .LVU87
 280              		.loc 1 527 24 is_stmt 0 view .LVU88
 281 0148 0794     		str	r4, [sp, #28]
 528:Core/Src/main.c ****   GPIO_InitStruct.Speed = GPIO_SPEED_FREQ_LOW;
 282              		.loc 1 528 3 is_stmt 1 view .LVU89
 283              		.loc 1 528 25 is_stmt 0 view .LVU90
 284 014a 0894     		str	r4, [sp, #32]
 529:Core/Src/main.c ****   HAL_GPIO_Init(GPIOD, &GPIO_InitStruct);
 285              		.loc 1 529 3 is_stmt 1 view .LVU91
 286 014c 05A9     		add	r1, sp, #20
 287 014e 4046     		mov	r0, r8
 288 0150 FFF7FEFF 		bl	HAL_GPIO_Init
 289              	.LVL12:
 530:Core/Src/main.c **** 
 531:Core/Src/main.c ****   /*Configure GPIO pins : PE8 PE9 PE10 PE11
 532:Core/Src/main.c ****                            PE12 PE13 */
 533:Core/Src/main.c ****   GPIO_InitStruct.Pin = GPIO_PIN_6|GPIO_PIN_14|GPIO_PIN_15;
 290              		.loc 1 533 3 view .LVU92
 291              		.loc 1 533 23 is_stmt 0 view .LVU93
 292 0154 4CF24003 		movw	r3, #49216
 293 0158 0593     		str	r3, [sp, #20]
 534:Core/Src/main.c ****   // GPIO_InitStruct.Mode = GPIO_MODE_OUTPUT_OD;
 535:Core/Src/main.c ****   GPIO_InitStruct.Mode = GPIO_MODE_OUTPUT_PP;
 294              		.loc 1 535 3 is_stmt 1 view .LVU94
 295              		.loc 1 535 24 is_stmt 0 view .LVU95
 296 015a 0696     		str	r6, [sp, #24]
 536:Core/Src/main.c ****   GPIO_InitStruct.Pull = GPIO_NOPULL;
 297              		.loc 1 536 3 is_stmt 1 view .LVU96
 298              		.loc 1 536 24 is_stmt 0 view .LVU97
 299 015c 0794     		str	r4, [sp, #28]
 537:Core/Src/main.c ****   GPIO_InitStruct.Speed = GPIO_SPEED_FREQ_LOW;
 300              		.loc 1 537 3 is_stmt 1 view .LVU98
 301              		.loc 1 537 25 is_stmt 0 view .LVU99
 302 015e 0894     		str	r4, [sp, #32]
 538:Core/Src/main.c ****   HAL_GPIO_Init(GPIOE, &GPIO_InitStruct);
 303              		.loc 1 538 3 is_stmt 1 view .LVU100
 304 0160 05A9     		add	r1, sp, #20
 305 0162 2846     		mov	r0, r5
 306 0164 FFF7FEFF 		bl	HAL_GPIO_Init
 307              	.LVL13:
 539:Core/Src/main.c **** 
 540:Core/Src/main.c ****   /*Configure GPIO pins : PE0 PE1 PE2 PE3 PE4 PE5
 541:Core/Src/main.c ****                            PE6 PE7 PE14  */
 542:Core/Src/main.c ****   GPIO_InitStruct.Pin = GPIO_PIN_0|GPIO_PIN_1|GPIO_PIN_2|GPIO_PIN_3|GPIO_PIN_4|GPIO_PIN_5|
 308              		.loc 1 542 3 view .LVU101
 309              		.loc 1 542 23 is_stmt 0 view .LVU102
 310 0168 43F6BF73 		movw	r3, #16319
 311 016c 0593     		str	r3, [sp, #20]
 543:Core/Src/main.c ****                         GPIO_PIN_7|GPIO_PIN_8|GPIO_PIN_9|GPIO_PIN_10|GPIO_PIN_11|GPIO_PIN_12|GPIO_P
 544:Core/Src/main.c ****   GPIO_InitStruct.Mode = GPIO_MODE_OUTPUT_OD;
 312              		.loc 1 544 3 is_stmt 1 view .LVU103
ARM GAS  C:\Users\86158\AppData\Local\Temp\ccm695Jf.s 			page 16


 313              		.loc 1 544 24 is_stmt 0 view .LVU104
 314 016e 0697     		str	r7, [sp, #24]
 545:Core/Src/main.c ****   GPIO_InitStruct.Pull = GPIO_NOPULL;
 315              		.loc 1 545 3 is_stmt 1 view .LVU105
 316              		.loc 1 545 24 is_stmt 0 view .LVU106
 317 0170 0794     		str	r4, [sp, #28]
 546:Core/Src/main.c ****   GPIO_InitStruct.Speed = GPIO_SPEED_FREQ_LOW;
 318              		.loc 1 546 3 is_stmt 1 view .LVU107
 319              		.loc 1 546 25 is_stmt 0 view .LVU108
 320 0172 0894     		str	r4, [sp, #32]
 547:Core/Src/main.c ****   HAL_GPIO_Init(GPIOE, &GPIO_InitStruct);
 321              		.loc 1 547 3 is_stmt 1 view .LVU109
 322 0174 05A9     		add	r1, sp, #20
 323 0176 2846     		mov	r0, r5
 324 0178 FFF7FEFF 		bl	HAL_GPIO_Init
 325              	.LVL14:
 548:Core/Src/main.c **** 
 549:Core/Src/main.c **** }
 326              		.loc 1 549 1 is_stmt 0 view .LVU110
 327 017c 0AB0     		add	sp, sp, #40
 328              	.LCFI2:
 329              		.cfi_def_cfa_offset 32
 330              		@ sp needed
 331 017e BDE8F087 		pop	{r4, r5, r6, r7, r8, r9, r10, pc}
 332              	.L4:
 333 0182 00BF     		.align	2
 334              	.L3:
 335 0184 00380240 		.word	1073887232
 336 0188 00100240 		.word	1073876992
 337 018c 00040240 		.word	1073873920
 338 0190 00080240 		.word	1073874944
 339 0194 00000240 		.word	1073872896
 340 0198 000C0240 		.word	1073875968
 341              		.cfi_endproc
 342              	.LFE243:
 344              		.section	.text.Error_Handler,"ax",%progbits
 345              		.align	1
 346              		.global	Error_Handler
 347              		.syntax unified
 348              		.thumb
 349              		.thumb_func
 351              	Error_Handler:
 352              	.LFB244:
 550:Core/Src/main.c **** 
 551:Core/Src/main.c **** /* USER CODE BEGIN 4 */
 552:Core/Src/main.c **** 
 553:Core/Src/main.c **** /* USER CODE END 4 */
 554:Core/Src/main.c **** 
 555:Core/Src/main.c **** /**
 556:Core/Src/main.c ****   * @brief  This function is executed in case of error occurrence.
 557:Core/Src/main.c ****   * @retval None
 558:Core/Src/main.c ****   */
 559:Core/Src/main.c **** void Error_Handler(void)
 560:Core/Src/main.c **** {
 353              		.loc 1 560 1 is_stmt 1 view -0
 354              		.cfi_startproc
 355              		@ Volatile: function does not return.
ARM GAS  C:\Users\86158\AppData\Local\Temp\ccm695Jf.s 			page 17


 356              		@ args = 0, pretend = 0, frame = 0
 357              		@ frame_needed = 0, uses_anonymous_args = 0
 358              		@ link register save eliminated.
 561:Core/Src/main.c ****   /* USER CODE BEGIN Error_Handler_Debug */
 562:Core/Src/main.c ****   /* User can add his own implementation to report the HAL error return state */
 563:Core/Src/main.c ****   __disable_irq();
 359              		.loc 1 563 3 view .LVU112
 360              	.LBB9:
 361              	.LBI9:
 362              		.file 2 "Drivers/CMSIS/Include/cmsis_gcc.h"
   1:Drivers/CMSIS/Include/cmsis_gcc.h **** /**************************************************************************//**
   2:Drivers/CMSIS/Include/cmsis_gcc.h ****  * @file     cmsis_gcc.h
   3:Drivers/CMSIS/Include/cmsis_gcc.h ****  * @brief    CMSIS compiler GCC header file
   4:Drivers/CMSIS/Include/cmsis_gcc.h ****  * @version  V5.0.4
   5:Drivers/CMSIS/Include/cmsis_gcc.h ****  * @date     09. April 2018
   6:Drivers/CMSIS/Include/cmsis_gcc.h ****  ******************************************************************************/
   7:Drivers/CMSIS/Include/cmsis_gcc.h **** /*
   8:Drivers/CMSIS/Include/cmsis_gcc.h ****  * Copyright (c) 2009-2018 Arm Limited. All rights reserved.
   9:Drivers/CMSIS/Include/cmsis_gcc.h ****  *
  10:Drivers/CMSIS/Include/cmsis_gcc.h ****  * SPDX-License-Identifier: Apache-2.0
  11:Drivers/CMSIS/Include/cmsis_gcc.h ****  *
  12:Drivers/CMSIS/Include/cmsis_gcc.h ****  * Licensed under the Apache License, Version 2.0 (the License); you may
  13:Drivers/CMSIS/Include/cmsis_gcc.h ****  * not use this file except in compliance with the License.
  14:Drivers/CMSIS/Include/cmsis_gcc.h ****  * You may obtain a copy of the License at
  15:Drivers/CMSIS/Include/cmsis_gcc.h ****  *
  16:Drivers/CMSIS/Include/cmsis_gcc.h ****  * www.apache.org/licenses/LICENSE-2.0
  17:Drivers/CMSIS/Include/cmsis_gcc.h ****  *
  18:Drivers/CMSIS/Include/cmsis_gcc.h ****  * Unless required by applicable law or agreed to in writing, software
  19:Drivers/CMSIS/Include/cmsis_gcc.h ****  * distributed under the License is distributed on an AS IS BASIS, WITHOUT
  20:Drivers/CMSIS/Include/cmsis_gcc.h ****  * WARRANTIES OR CONDITIONS OF ANY KIND, either express or implied.
  21:Drivers/CMSIS/Include/cmsis_gcc.h ****  * See the License for the specific language governing permissions and
  22:Drivers/CMSIS/Include/cmsis_gcc.h ****  * limitations under the License.
  23:Drivers/CMSIS/Include/cmsis_gcc.h ****  */
  24:Drivers/CMSIS/Include/cmsis_gcc.h **** 
  25:Drivers/CMSIS/Include/cmsis_gcc.h **** #ifndef __CMSIS_GCC_H
  26:Drivers/CMSIS/Include/cmsis_gcc.h **** #define __CMSIS_GCC_H
  27:Drivers/CMSIS/Include/cmsis_gcc.h **** 
  28:Drivers/CMSIS/Include/cmsis_gcc.h **** /* ignore some GCC warnings */
  29:Drivers/CMSIS/Include/cmsis_gcc.h **** #pragma GCC diagnostic push
  30:Drivers/CMSIS/Include/cmsis_gcc.h **** #pragma GCC diagnostic ignored "-Wsign-conversion"
  31:Drivers/CMSIS/Include/cmsis_gcc.h **** #pragma GCC diagnostic ignored "-Wconversion"
  32:Drivers/CMSIS/Include/cmsis_gcc.h **** #pragma GCC diagnostic ignored "-Wunused-parameter"
  33:Drivers/CMSIS/Include/cmsis_gcc.h **** 
  34:Drivers/CMSIS/Include/cmsis_gcc.h **** /* Fallback for __has_builtin */
  35:Drivers/CMSIS/Include/cmsis_gcc.h **** #ifndef __has_builtin
  36:Drivers/CMSIS/Include/cmsis_gcc.h ****   #define __has_builtin(x) (0)
  37:Drivers/CMSIS/Include/cmsis_gcc.h **** #endif
  38:Drivers/CMSIS/Include/cmsis_gcc.h **** 
  39:Drivers/CMSIS/Include/cmsis_gcc.h **** /* CMSIS compiler specific defines */
  40:Drivers/CMSIS/Include/cmsis_gcc.h **** #ifndef   __ASM
  41:Drivers/CMSIS/Include/cmsis_gcc.h ****   #define __ASM                                  __asm
  42:Drivers/CMSIS/Include/cmsis_gcc.h **** #endif
  43:Drivers/CMSIS/Include/cmsis_gcc.h **** #ifndef   __INLINE
  44:Drivers/CMSIS/Include/cmsis_gcc.h ****   #define __INLINE                               inline
  45:Drivers/CMSIS/Include/cmsis_gcc.h **** #endif
  46:Drivers/CMSIS/Include/cmsis_gcc.h **** #ifndef   __STATIC_INLINE
  47:Drivers/CMSIS/Include/cmsis_gcc.h ****   #define __STATIC_INLINE                        static inline
ARM GAS  C:\Users\86158\AppData\Local\Temp\ccm695Jf.s 			page 18


  48:Drivers/CMSIS/Include/cmsis_gcc.h **** #endif
  49:Drivers/CMSIS/Include/cmsis_gcc.h **** #ifndef   __STATIC_FORCEINLINE                 
  50:Drivers/CMSIS/Include/cmsis_gcc.h ****   #define __STATIC_FORCEINLINE                   __attribute__((always_inline)) static inline
  51:Drivers/CMSIS/Include/cmsis_gcc.h **** #endif                                           
  52:Drivers/CMSIS/Include/cmsis_gcc.h **** #ifndef   __NO_RETURN
  53:Drivers/CMSIS/Include/cmsis_gcc.h ****   #define __NO_RETURN                            __attribute__((__noreturn__))
  54:Drivers/CMSIS/Include/cmsis_gcc.h **** #endif
  55:Drivers/CMSIS/Include/cmsis_gcc.h **** #ifndef   __USED
  56:Drivers/CMSIS/Include/cmsis_gcc.h ****   #define __USED                                 __attribute__((used))
  57:Drivers/CMSIS/Include/cmsis_gcc.h **** #endif
  58:Drivers/CMSIS/Include/cmsis_gcc.h **** #ifndef   __WEAK
  59:Drivers/CMSIS/Include/cmsis_gcc.h ****   #define __WEAK                                 __attribute__((weak))
  60:Drivers/CMSIS/Include/cmsis_gcc.h **** #endif
  61:Drivers/CMSIS/Include/cmsis_gcc.h **** #ifndef   __PACKED
  62:Drivers/CMSIS/Include/cmsis_gcc.h ****   #define __PACKED                               __attribute__((packed, aligned(1)))
  63:Drivers/CMSIS/Include/cmsis_gcc.h **** #endif
  64:Drivers/CMSIS/Include/cmsis_gcc.h **** #ifndef   __PACKED_STRUCT
  65:Drivers/CMSIS/Include/cmsis_gcc.h ****   #define __PACKED_STRUCT                        struct __attribute__((packed, aligned(1)))
  66:Drivers/CMSIS/Include/cmsis_gcc.h **** #endif
  67:Drivers/CMSIS/Include/cmsis_gcc.h **** #ifndef   __PACKED_UNION
  68:Drivers/CMSIS/Include/cmsis_gcc.h ****   #define __PACKED_UNION                         union __attribute__((packed, aligned(1)))
  69:Drivers/CMSIS/Include/cmsis_gcc.h **** #endif
  70:Drivers/CMSIS/Include/cmsis_gcc.h **** #ifndef   __UNALIGNED_UINT32        /* deprecated */
  71:Drivers/CMSIS/Include/cmsis_gcc.h ****   #pragma GCC diagnostic push
  72:Drivers/CMSIS/Include/cmsis_gcc.h ****   #pragma GCC diagnostic ignored "-Wpacked"
  73:Drivers/CMSIS/Include/cmsis_gcc.h ****   #pragma GCC diagnostic ignored "-Wattributes"
  74:Drivers/CMSIS/Include/cmsis_gcc.h ****   struct __attribute__((packed)) T_UINT32 { uint32_t v; };
  75:Drivers/CMSIS/Include/cmsis_gcc.h ****   #pragma GCC diagnostic pop
  76:Drivers/CMSIS/Include/cmsis_gcc.h ****   #define __UNALIGNED_UINT32(x)                  (((struct T_UINT32 *)(x))->v)
  77:Drivers/CMSIS/Include/cmsis_gcc.h **** #endif
  78:Drivers/CMSIS/Include/cmsis_gcc.h **** #ifndef   __UNALIGNED_UINT16_WRITE
  79:Drivers/CMSIS/Include/cmsis_gcc.h ****   #pragma GCC diagnostic push
  80:Drivers/CMSIS/Include/cmsis_gcc.h ****   #pragma GCC diagnostic ignored "-Wpacked"
  81:Drivers/CMSIS/Include/cmsis_gcc.h ****   #pragma GCC diagnostic ignored "-Wattributes"
  82:Drivers/CMSIS/Include/cmsis_gcc.h ****   __PACKED_STRUCT T_UINT16_WRITE { uint16_t v; };
  83:Drivers/CMSIS/Include/cmsis_gcc.h ****   #pragma GCC diagnostic pop
  84:Drivers/CMSIS/Include/cmsis_gcc.h ****   #define __UNALIGNED_UINT16_WRITE(addr, val)    (void)((((struct T_UINT16_WRITE *)(void *)(addr))-
  85:Drivers/CMSIS/Include/cmsis_gcc.h **** #endif
  86:Drivers/CMSIS/Include/cmsis_gcc.h **** #ifndef   __UNALIGNED_UINT16_READ
  87:Drivers/CMSIS/Include/cmsis_gcc.h ****   #pragma GCC diagnostic push
  88:Drivers/CMSIS/Include/cmsis_gcc.h ****   #pragma GCC diagnostic ignored "-Wpacked"
  89:Drivers/CMSIS/Include/cmsis_gcc.h ****   #pragma GCC diagnostic ignored "-Wattributes"
  90:Drivers/CMSIS/Include/cmsis_gcc.h ****   __PACKED_STRUCT T_UINT16_READ { uint16_t v; };
  91:Drivers/CMSIS/Include/cmsis_gcc.h ****   #pragma GCC diagnostic pop
  92:Drivers/CMSIS/Include/cmsis_gcc.h ****   #define __UNALIGNED_UINT16_READ(addr)          (((const struct T_UINT16_READ *)(const void *)(add
  93:Drivers/CMSIS/Include/cmsis_gcc.h **** #endif
  94:Drivers/CMSIS/Include/cmsis_gcc.h **** #ifndef   __UNALIGNED_UINT32_WRITE
  95:Drivers/CMSIS/Include/cmsis_gcc.h ****   #pragma GCC diagnostic push
  96:Drivers/CMSIS/Include/cmsis_gcc.h ****   #pragma GCC diagnostic ignored "-Wpacked"
  97:Drivers/CMSIS/Include/cmsis_gcc.h ****   #pragma GCC diagnostic ignored "-Wattributes"
  98:Drivers/CMSIS/Include/cmsis_gcc.h ****   __PACKED_STRUCT T_UINT32_WRITE { uint32_t v; };
  99:Drivers/CMSIS/Include/cmsis_gcc.h ****   #pragma GCC diagnostic pop
 100:Drivers/CMSIS/Include/cmsis_gcc.h ****   #define __UNALIGNED_UINT32_WRITE(addr, val)    (void)((((struct T_UINT32_WRITE *)(void *)(addr))-
 101:Drivers/CMSIS/Include/cmsis_gcc.h **** #endif
 102:Drivers/CMSIS/Include/cmsis_gcc.h **** #ifndef   __UNALIGNED_UINT32_READ
 103:Drivers/CMSIS/Include/cmsis_gcc.h ****   #pragma GCC diagnostic push
 104:Drivers/CMSIS/Include/cmsis_gcc.h ****   #pragma GCC diagnostic ignored "-Wpacked"
ARM GAS  C:\Users\86158\AppData\Local\Temp\ccm695Jf.s 			page 19


 105:Drivers/CMSIS/Include/cmsis_gcc.h ****   #pragma GCC diagnostic ignored "-Wattributes"
 106:Drivers/CMSIS/Include/cmsis_gcc.h ****   __PACKED_STRUCT T_UINT32_READ { uint32_t v; };
 107:Drivers/CMSIS/Include/cmsis_gcc.h ****   #pragma GCC diagnostic pop
 108:Drivers/CMSIS/Include/cmsis_gcc.h ****   #define __UNALIGNED_UINT32_READ(addr)          (((const struct T_UINT32_READ *)(const void *)(add
 109:Drivers/CMSIS/Include/cmsis_gcc.h **** #endif
 110:Drivers/CMSIS/Include/cmsis_gcc.h **** #ifndef   __ALIGNED
 111:Drivers/CMSIS/Include/cmsis_gcc.h ****   #define __ALIGNED(x)                           __attribute__((aligned(x)))
 112:Drivers/CMSIS/Include/cmsis_gcc.h **** #endif
 113:Drivers/CMSIS/Include/cmsis_gcc.h **** #ifndef   __RESTRICT
 114:Drivers/CMSIS/Include/cmsis_gcc.h ****   #define __RESTRICT                             __restrict
 115:Drivers/CMSIS/Include/cmsis_gcc.h **** #endif
 116:Drivers/CMSIS/Include/cmsis_gcc.h **** 
 117:Drivers/CMSIS/Include/cmsis_gcc.h **** 
 118:Drivers/CMSIS/Include/cmsis_gcc.h **** /* ###########################  Core Function Access  ########################### */
 119:Drivers/CMSIS/Include/cmsis_gcc.h **** /** \ingroup  CMSIS_Core_FunctionInterface
 120:Drivers/CMSIS/Include/cmsis_gcc.h ****     \defgroup CMSIS_Core_RegAccFunctions CMSIS Core Register Access Functions
 121:Drivers/CMSIS/Include/cmsis_gcc.h ****   @{
 122:Drivers/CMSIS/Include/cmsis_gcc.h ****  */
 123:Drivers/CMSIS/Include/cmsis_gcc.h **** 
 124:Drivers/CMSIS/Include/cmsis_gcc.h **** /**
 125:Drivers/CMSIS/Include/cmsis_gcc.h ****   \brief   Enable IRQ Interrupts
 126:Drivers/CMSIS/Include/cmsis_gcc.h ****   \details Enables IRQ interrupts by clearing the I-bit in the CPSR.
 127:Drivers/CMSIS/Include/cmsis_gcc.h ****            Can only be executed in Privileged modes.
 128:Drivers/CMSIS/Include/cmsis_gcc.h ****  */
 129:Drivers/CMSIS/Include/cmsis_gcc.h **** __STATIC_FORCEINLINE void __enable_irq(void)
 130:Drivers/CMSIS/Include/cmsis_gcc.h **** {
 131:Drivers/CMSIS/Include/cmsis_gcc.h ****   __ASM volatile ("cpsie i" : : : "memory");
 132:Drivers/CMSIS/Include/cmsis_gcc.h **** }
 133:Drivers/CMSIS/Include/cmsis_gcc.h **** 
 134:Drivers/CMSIS/Include/cmsis_gcc.h **** 
 135:Drivers/CMSIS/Include/cmsis_gcc.h **** /**
 136:Drivers/CMSIS/Include/cmsis_gcc.h ****   \brief   Disable IRQ Interrupts
 137:Drivers/CMSIS/Include/cmsis_gcc.h ****   \details Disables IRQ interrupts by setting the I-bit in the CPSR.
 138:Drivers/CMSIS/Include/cmsis_gcc.h ****            Can only be executed in Privileged modes.
 139:Drivers/CMSIS/Include/cmsis_gcc.h ****  */
 140:Drivers/CMSIS/Include/cmsis_gcc.h **** __STATIC_FORCEINLINE void __disable_irq(void)
 363              		.loc 2 140 27 view .LVU113
 364              	.LBB10:
 141:Drivers/CMSIS/Include/cmsis_gcc.h **** {
 142:Drivers/CMSIS/Include/cmsis_gcc.h ****   __ASM volatile ("cpsid i" : : : "memory");
 365              		.loc 2 142 3 view .LVU114
 366              		.syntax unified
 367              	@ 142 "Drivers/CMSIS/Include/cmsis_gcc.h" 1
 368 0000 72B6     		cpsid i
 369              	@ 0 "" 2
 370              		.thumb
 371              		.syntax unified
 372              	.L6:
 373              	.LBE10:
 374              	.LBE9:
 564:Core/Src/main.c ****   while (1)
 375              		.loc 1 564 3 discriminator 1 view .LVU115
 565:Core/Src/main.c ****   {
 566:Core/Src/main.c ****   }
 376              		.loc 1 566 3 discriminator 1 view .LVU116
 564:Core/Src/main.c ****   while (1)
 377              		.loc 1 564 9 discriminator 1 view .LVU117
ARM GAS  C:\Users\86158\AppData\Local\Temp\ccm695Jf.s 			page 20


 378 0002 FEE7     		b	.L6
 379              		.cfi_endproc
 380              	.LFE244:
 382              		.section	.text.MX_USART1_UART_Init,"ax",%progbits
 383              		.align	1
 384              		.syntax unified
 385              		.thumb
 386              		.thumb_func
 388              	MX_USART1_UART_Init:
 389              	.LFB240:
 356:Core/Src/main.c **** 
 390              		.loc 1 356 1 view -0
 391              		.cfi_startproc
 392              		@ args = 0, pretend = 0, frame = 0
 393              		@ frame_needed = 0, uses_anonymous_args = 0
 394 0000 08B5     		push	{r3, lr}
 395              	.LCFI3:
 396              		.cfi_def_cfa_offset 8
 397              		.cfi_offset 3, -8
 398              		.cfi_offset 14, -4
 365:Core/Src/main.c ****   huart1.Init.BaudRate = 921600;
 399              		.loc 1 365 3 view .LVU119
 365:Core/Src/main.c ****   huart1.Init.BaudRate = 921600;
 400              		.loc 1 365 19 is_stmt 0 view .LVU120
 401 0002 0A48     		ldr	r0, .L11
 402 0004 0A4B     		ldr	r3, .L11+4
 403 0006 0360     		str	r3, [r0]
 366:Core/Src/main.c ****   huart1.Init.WordLength = UART_WORDLENGTH_8B;
 404              		.loc 1 366 3 is_stmt 1 view .LVU121
 366:Core/Src/main.c ****   huart1.Init.WordLength = UART_WORDLENGTH_8B;
 405              		.loc 1 366 24 is_stmt 0 view .LVU122
 406 0008 4FF46123 		mov	r3, #921600
 407 000c 4360     		str	r3, [r0, #4]
 367:Core/Src/main.c ****   huart1.Init.StopBits = UART_STOPBITS_1;
 408              		.loc 1 367 3 is_stmt 1 view .LVU123
 367:Core/Src/main.c ****   huart1.Init.StopBits = UART_STOPBITS_1;
 409              		.loc 1 367 26 is_stmt 0 view .LVU124
 410 000e 0023     		movs	r3, #0
 411 0010 8360     		str	r3, [r0, #8]
 368:Core/Src/main.c ****   huart1.Init.Parity = UART_PARITY_NONE;
 412              		.loc 1 368 3 is_stmt 1 view .LVU125
 368:Core/Src/main.c ****   huart1.Init.Parity = UART_PARITY_NONE;
 413              		.loc 1 368 24 is_stmt 0 view .LVU126
 414 0012 C360     		str	r3, [r0, #12]
 369:Core/Src/main.c ****   huart1.Init.Mode = UART_MODE_TX_RX;
 415              		.loc 1 369 3 is_stmt 1 view .LVU127
 369:Core/Src/main.c ****   huart1.Init.Mode = UART_MODE_TX_RX;
 416              		.loc 1 369 22 is_stmt 0 view .LVU128
 417 0014 0361     		str	r3, [r0, #16]
 370:Core/Src/main.c ****   huart1.Init.HwFlowCtl = UART_HWCONTROL_NONE;
 418              		.loc 1 370 3 is_stmt 1 view .LVU129
 370:Core/Src/main.c ****   huart1.Init.HwFlowCtl = UART_HWCONTROL_NONE;
 419              		.loc 1 370 20 is_stmt 0 view .LVU130
 420 0016 0C22     		movs	r2, #12
 421 0018 4261     		str	r2, [r0, #20]
 371:Core/Src/main.c ****   huart1.Init.OverSampling = UART_OVERSAMPLING_16;
 422              		.loc 1 371 3 is_stmt 1 view .LVU131
ARM GAS  C:\Users\86158\AppData\Local\Temp\ccm695Jf.s 			page 21


 371:Core/Src/main.c ****   huart1.Init.OverSampling = UART_OVERSAMPLING_16;
 423              		.loc 1 371 25 is_stmt 0 view .LVU132
 424 001a 8361     		str	r3, [r0, #24]
 372:Core/Src/main.c ****   if (HAL_UART_Init(&huart1) != HAL_OK)
 425              		.loc 1 372 3 is_stmt 1 view .LVU133
 372:Core/Src/main.c ****   if (HAL_UART_Init(&huart1) != HAL_OK)
 426              		.loc 1 372 28 is_stmt 0 view .LVU134
 427 001c C361     		str	r3, [r0, #28]
 373:Core/Src/main.c ****   {
 428              		.loc 1 373 3 is_stmt 1 view .LVU135
 373:Core/Src/main.c ****   {
 429              		.loc 1 373 7 is_stmt 0 view .LVU136
 430 001e FFF7FEFF 		bl	HAL_UART_Init
 431              	.LVL15:
 373:Core/Src/main.c ****   {
 432              		.loc 1 373 6 view .LVU137
 433 0022 00B9     		cbnz	r0, .L10
 381:Core/Src/main.c **** 
 434              		.loc 1 381 1 view .LVU138
 435 0024 08BD     		pop	{r3, pc}
 436              	.L10:
 375:Core/Src/main.c ****   }
 437              		.loc 1 375 5 is_stmt 1 view .LVU139
 438 0026 FFF7FEFF 		bl	Error_Handler
 439              	.LVL16:
 440              	.L12:
 441 002a 00BF     		.align	2
 442              	.L11:
 443 002c 00000000 		.word	.LANCHOR0
 444 0030 00100140 		.word	1073811456
 445              		.cfi_endproc
 446              	.LFE240:
 448              		.section	.text.MX_ADC1_Init,"ax",%progbits
 449              		.align	1
 450              		.syntax unified
 451              		.thumb
 452              		.thumb_func
 454              	MX_ADC1_Init:
 455              	.LFB237:
 225:Core/Src/main.c **** 
 456              		.loc 1 225 1 view -0
 457              		.cfi_startproc
 458              		@ args = 0, pretend = 0, frame = 16
 459              		@ frame_needed = 0, uses_anonymous_args = 0
 460 0000 00B5     		push	{lr}
 461              	.LCFI4:
 462              		.cfi_def_cfa_offset 4
 463              		.cfi_offset 14, -4
 464 0002 85B0     		sub	sp, sp, #20
 465              	.LCFI5:
 466              		.cfi_def_cfa_offset 24
 231:Core/Src/main.c **** 
 467              		.loc 1 231 3 view .LVU141
 231:Core/Src/main.c **** 
 468              		.loc 1 231 26 is_stmt 0 view .LVU142
 469 0004 0023     		movs	r3, #0
 470 0006 0093     		str	r3, [sp]
ARM GAS  C:\Users\86158\AppData\Local\Temp\ccm695Jf.s 			page 22


 471 0008 0193     		str	r3, [sp, #4]
 472 000a 0293     		str	r3, [sp, #8]
 473 000c 0393     		str	r3, [sp, #12]
 239:Core/Src/main.c ****   hadc1.Init.ClockPrescaler = ADC_CLOCK_SYNC_PCLK_DIV4;
 474              		.loc 1 239 3 is_stmt 1 view .LVU143
 239:Core/Src/main.c ****   hadc1.Init.ClockPrescaler = ADC_CLOCK_SYNC_PCLK_DIV4;
 475              		.loc 1 239 18 is_stmt 0 view .LVU144
 476 000e 1448     		ldr	r0, .L19
 477 0010 144A     		ldr	r2, .L19+4
 478 0012 0260     		str	r2, [r0]
 240:Core/Src/main.c ****   hadc1.Init.Resolution = ADC_RESOLUTION_12B;
 479              		.loc 1 240 3 is_stmt 1 view .LVU145
 240:Core/Src/main.c ****   hadc1.Init.Resolution = ADC_RESOLUTION_12B;
 480              		.loc 1 240 29 is_stmt 0 view .LVU146
 481 0014 4FF48032 		mov	r2, #65536
 482 0018 4260     		str	r2, [r0, #4]
 241:Core/Src/main.c ****   hadc1.Init.ScanConvMode = DISABLE;
 483              		.loc 1 241 3 is_stmt 1 view .LVU147
 241:Core/Src/main.c ****   hadc1.Init.ScanConvMode = DISABLE;
 484              		.loc 1 241 25 is_stmt 0 view .LVU148
 485 001a 8360     		str	r3, [r0, #8]
 242:Core/Src/main.c ****   hadc1.Init.ContinuousConvMode = DISABLE;
 486              		.loc 1 242 3 is_stmt 1 view .LVU149
 242:Core/Src/main.c ****   hadc1.Init.ContinuousConvMode = DISABLE;
 487              		.loc 1 242 27 is_stmt 0 view .LVU150
 488 001c 0361     		str	r3, [r0, #16]
 243:Core/Src/main.c ****   hadc1.Init.DiscontinuousConvMode = DISABLE;
 489              		.loc 1 243 3 is_stmt 1 view .LVU151
 243:Core/Src/main.c ****   hadc1.Init.DiscontinuousConvMode = DISABLE;
 490              		.loc 1 243 33 is_stmt 0 view .LVU152
 491 001e 0376     		strb	r3, [r0, #24]
 244:Core/Src/main.c ****   hadc1.Init.ExternalTrigConvEdge = ADC_EXTERNALTRIGCONVEDGE_NONE;
 492              		.loc 1 244 3 is_stmt 1 view .LVU153
 244:Core/Src/main.c ****   hadc1.Init.ExternalTrigConvEdge = ADC_EXTERNALTRIGCONVEDGE_NONE;
 493              		.loc 1 244 36 is_stmt 0 view .LVU154
 494 0020 80F82030 		strb	r3, [r0, #32]
 245:Core/Src/main.c ****   hadc1.Init.ExternalTrigConv = ADC_SOFTWARE_START;
 495              		.loc 1 245 3 is_stmt 1 view .LVU155
 245:Core/Src/main.c ****   hadc1.Init.ExternalTrigConv = ADC_SOFTWARE_START;
 496              		.loc 1 245 35 is_stmt 0 view .LVU156
 497 0024 C362     		str	r3, [r0, #44]
 246:Core/Src/main.c ****   hadc1.Init.DataAlign = ADC_DATAALIGN_RIGHT;
 498              		.loc 1 246 3 is_stmt 1 view .LVU157
 246:Core/Src/main.c ****   hadc1.Init.DataAlign = ADC_DATAALIGN_RIGHT;
 499              		.loc 1 246 31 is_stmt 0 view .LVU158
 500 0026 104A     		ldr	r2, .L19+8
 501 0028 8262     		str	r2, [r0, #40]
 247:Core/Src/main.c ****   hadc1.Init.NbrOfConversion = 1;
 502              		.loc 1 247 3 is_stmt 1 view .LVU159
 247:Core/Src/main.c ****   hadc1.Init.NbrOfConversion = 1;
 503              		.loc 1 247 24 is_stmt 0 view .LVU160
 504 002a C360     		str	r3, [r0, #12]
 248:Core/Src/main.c ****   hadc1.Init.DMAContinuousRequests = DISABLE;
 505              		.loc 1 248 3 is_stmt 1 view .LVU161
 248:Core/Src/main.c ****   hadc1.Init.DMAContinuousRequests = DISABLE;
 506              		.loc 1 248 30 is_stmt 0 view .LVU162
 507 002c 0122     		movs	r2, #1
ARM GAS  C:\Users\86158\AppData\Local\Temp\ccm695Jf.s 			page 23


 508 002e C261     		str	r2, [r0, #28]
 249:Core/Src/main.c ****   hadc1.Init.EOCSelection = ADC_EOC_SINGLE_CONV;
 509              		.loc 1 249 3 is_stmt 1 view .LVU163
 249:Core/Src/main.c ****   hadc1.Init.EOCSelection = ADC_EOC_SINGLE_CONV;
 510              		.loc 1 249 36 is_stmt 0 view .LVU164
 511 0030 80F83030 		strb	r3, [r0, #48]
 250:Core/Src/main.c ****   if (HAL_ADC_Init(&hadc1) != HAL_OK)
 512              		.loc 1 250 3 is_stmt 1 view .LVU165
 250:Core/Src/main.c ****   if (HAL_ADC_Init(&hadc1) != HAL_OK)
 513              		.loc 1 250 27 is_stmt 0 view .LVU166
 514 0034 4261     		str	r2, [r0, #20]
 251:Core/Src/main.c ****   {
 515              		.loc 1 251 3 is_stmt 1 view .LVU167
 251:Core/Src/main.c ****   {
 516              		.loc 1 251 7 is_stmt 0 view .LVU168
 517 0036 FFF7FEFF 		bl	HAL_ADC_Init
 518              	.LVL17:
 251:Core/Src/main.c ****   {
 519              		.loc 1 251 6 view .LVU169
 520 003a 60B9     		cbnz	r0, .L17
 258:Core/Src/main.c ****   sConfig.Rank = 1;
 521              		.loc 1 258 3 is_stmt 1 view .LVU170
 258:Core/Src/main.c ****   sConfig.Rank = 1;
 522              		.loc 1 258 19 is_stmt 0 view .LVU171
 523 003c 0023     		movs	r3, #0
 524 003e 0093     		str	r3, [sp]
 259:Core/Src/main.c ****   sConfig.SamplingTime = ADC_SAMPLETIME_3CYCLES;
 525              		.loc 1 259 3 is_stmt 1 view .LVU172
 259:Core/Src/main.c ****   sConfig.SamplingTime = ADC_SAMPLETIME_3CYCLES;
 526              		.loc 1 259 16 is_stmt 0 view .LVU173
 527 0040 0122     		movs	r2, #1
 528 0042 0192     		str	r2, [sp, #4]
 260:Core/Src/main.c ****   if (HAL_ADC_ConfigChannel(&hadc1, &sConfig) != HAL_OK)
 529              		.loc 1 260 3 is_stmt 1 view .LVU174
 260:Core/Src/main.c ****   if (HAL_ADC_ConfigChannel(&hadc1, &sConfig) != HAL_OK)
 530              		.loc 1 260 24 is_stmt 0 view .LVU175
 531 0044 0293     		str	r3, [sp, #8]
 261:Core/Src/main.c ****   {
 532              		.loc 1 261 3 is_stmt 1 view .LVU176
 261:Core/Src/main.c ****   {
 533              		.loc 1 261 7 is_stmt 0 view .LVU177
 534 0046 6946     		mov	r1, sp
 535 0048 0548     		ldr	r0, .L19
 536 004a FFF7FEFF 		bl	HAL_ADC_ConfigChannel
 537              	.LVL18:
 261:Core/Src/main.c ****   {
 538              		.loc 1 261 6 view .LVU178
 539 004e 20B9     		cbnz	r0, .L18
 269:Core/Src/main.c **** 
 540              		.loc 1 269 1 view .LVU179
 541 0050 05B0     		add	sp, sp, #20
 542              	.LCFI6:
 543              		.cfi_remember_state
 544              		.cfi_def_cfa_offset 4
 545              		@ sp needed
 546 0052 5DF804FB 		ldr	pc, [sp], #4
 547              	.L17:
ARM GAS  C:\Users\86158\AppData\Local\Temp\ccm695Jf.s 			page 24


 548              	.LCFI7:
 549              		.cfi_restore_state
 253:Core/Src/main.c ****   }
 550              		.loc 1 253 5 is_stmt 1 view .LVU180
 551 0056 FFF7FEFF 		bl	Error_Handler
 552              	.LVL19:
 553              	.L18:
 263:Core/Src/main.c ****   }
 554              		.loc 1 263 5 view .LVU181
 555 005a FFF7FEFF 		bl	Error_Handler
 556              	.LVL20:
 557              	.L20:
 558 005e 00BF     		.align	2
 559              	.L19:
 560 0060 00000000 		.word	.LANCHOR1
 561 0064 00200140 		.word	1073815552
 562 0068 0100000F 		.word	251658241
 563              		.cfi_endproc
 564              	.LFE237:
 566              		.section	.text.MX_SPI1_Init,"ax",%progbits
 567              		.align	1
 568              		.syntax unified
 569              		.thumb
 570              		.thumb_func
 572              	MX_SPI1_Init:
 573              	.LFB239:
 318:Core/Src/main.c **** 
 574              		.loc 1 318 1 view -0
 575              		.cfi_startproc
 576              		@ args = 0, pretend = 0, frame = 0
 577              		@ frame_needed = 0, uses_anonymous_args = 0
 578 0000 08B5     		push	{r3, lr}
 579              	.LCFI8:
 580              		.cfi_def_cfa_offset 8
 581              		.cfi_offset 3, -8
 582              		.cfi_offset 14, -4
 328:Core/Src/main.c ****   hspi1.Init.Mode = SPI_MODE_MASTER;
 583              		.loc 1 328 3 view .LVU183
 328:Core/Src/main.c ****   hspi1.Init.Mode = SPI_MODE_MASTER;
 584              		.loc 1 328 18 is_stmt 0 view .LVU184
 585 0002 0D48     		ldr	r0, .L25
 586 0004 0D4B     		ldr	r3, .L25+4
 587 0006 0360     		str	r3, [r0]
 329:Core/Src/main.c ****   hspi1.Init.Direction = SPI_DIRECTION_2LINES;
 588              		.loc 1 329 3 is_stmt 1 view .LVU185
 329:Core/Src/main.c ****   hspi1.Init.Direction = SPI_DIRECTION_2LINES;
 589              		.loc 1 329 19 is_stmt 0 view .LVU186
 590 0008 4FF48273 		mov	r3, #260
 591 000c 4360     		str	r3, [r0, #4]
 330:Core/Src/main.c ****   hspi1.Init.DataSize = SPI_DATASIZE_8BIT;
 592              		.loc 1 330 3 is_stmt 1 view .LVU187
 330:Core/Src/main.c ****   hspi1.Init.DataSize = SPI_DATASIZE_8BIT;
 593              		.loc 1 330 24 is_stmt 0 view .LVU188
 594 000e 0023     		movs	r3, #0
 595 0010 8360     		str	r3, [r0, #8]
 331:Core/Src/main.c ****   hspi1.Init.CLKPolarity = SPI_POLARITY_LOW;
 596              		.loc 1 331 3 is_stmt 1 view .LVU189
ARM GAS  C:\Users\86158\AppData\Local\Temp\ccm695Jf.s 			page 25


 331:Core/Src/main.c ****   hspi1.Init.CLKPolarity = SPI_POLARITY_LOW;
 597              		.loc 1 331 23 is_stmt 0 view .LVU190
 598 0012 C360     		str	r3, [r0, #12]
 332:Core/Src/main.c ****   hspi1.Init.CLKPhase = SPI_PHASE_1EDGE;
 599              		.loc 1 332 3 is_stmt 1 view .LVU191
 332:Core/Src/main.c ****   hspi1.Init.CLKPhase = SPI_PHASE_1EDGE;
 600              		.loc 1 332 26 is_stmt 0 view .LVU192
 601 0014 0361     		str	r3, [r0, #16]
 333:Core/Src/main.c ****   hspi1.Init.NSS = SPI_NSS_SOFT;
 602              		.loc 1 333 3 is_stmt 1 view .LVU193
 333:Core/Src/main.c ****   hspi1.Init.NSS = SPI_NSS_SOFT;
 603              		.loc 1 333 23 is_stmt 0 view .LVU194
 604 0016 4361     		str	r3, [r0, #20]
 334:Core/Src/main.c ****   hspi1.Init.BaudRatePrescaler = SPI_BAUDRATEPRESCALER_2;
 605              		.loc 1 334 3 is_stmt 1 view .LVU195
 334:Core/Src/main.c ****   hspi1.Init.BaudRatePrescaler = SPI_BAUDRATEPRESCALER_2;
 606              		.loc 1 334 18 is_stmt 0 view .LVU196
 607 0018 4FF40072 		mov	r2, #512
 608 001c 8261     		str	r2, [r0, #24]
 335:Core/Src/main.c ****   hspi1.Init.FirstBit = SPI_FIRSTBIT_MSB;
 609              		.loc 1 335 3 is_stmt 1 view .LVU197
 335:Core/Src/main.c ****   hspi1.Init.FirstBit = SPI_FIRSTBIT_MSB;
 610              		.loc 1 335 32 is_stmt 0 view .LVU198
 611 001e C361     		str	r3, [r0, #28]
 336:Core/Src/main.c ****   hspi1.Init.TIMode = SPI_TIMODE_DISABLE;
 612              		.loc 1 336 3 is_stmt 1 view .LVU199
 336:Core/Src/main.c ****   hspi1.Init.TIMode = SPI_TIMODE_DISABLE;
 613              		.loc 1 336 23 is_stmt 0 view .LVU200
 614 0020 0362     		str	r3, [r0, #32]
 337:Core/Src/main.c ****   hspi1.Init.CRCCalculation = SPI_CRCCALCULATION_DISABLE;
 615              		.loc 1 337 3 is_stmt 1 view .LVU201
 337:Core/Src/main.c ****   hspi1.Init.CRCCalculation = SPI_CRCCALCULATION_DISABLE;
 616              		.loc 1 337 21 is_stmt 0 view .LVU202
 617 0022 4362     		str	r3, [r0, #36]
 338:Core/Src/main.c ****   hspi1.Init.CRCPolynomial = 10;
 618              		.loc 1 338 3 is_stmt 1 view .LVU203
 338:Core/Src/main.c ****   hspi1.Init.CRCPolynomial = 10;
 619              		.loc 1 338 29 is_stmt 0 view .LVU204
 620 0024 8362     		str	r3, [r0, #40]
 339:Core/Src/main.c ****   if (HAL_SPI_Init(&hspi1) != HAL_OK)
 621              		.loc 1 339 3 is_stmt 1 view .LVU205
 339:Core/Src/main.c ****   if (HAL_SPI_Init(&hspi1) != HAL_OK)
 622              		.loc 1 339 28 is_stmt 0 view .LVU206
 623 0026 0A23     		movs	r3, #10
 624 0028 C362     		str	r3, [r0, #44]
 340:Core/Src/main.c ****   {
 625              		.loc 1 340 3 is_stmt 1 view .LVU207
 340:Core/Src/main.c ****   {
 626              		.loc 1 340 7 is_stmt 0 view .LVU208
 627 002a FFF7FEFF 		bl	HAL_SPI_Init
 628              	.LVL21:
 340:Core/Src/main.c ****   {
 629              		.loc 1 340 6 view .LVU209
 630 002e 00B9     		cbnz	r0, .L24
 348:Core/Src/main.c **** 
 631              		.loc 1 348 1 view .LVU210
 632 0030 08BD     		pop	{r3, pc}
ARM GAS  C:\Users\86158\AppData\Local\Temp\ccm695Jf.s 			page 26


 633              	.L24:
 342:Core/Src/main.c ****   }
 634              		.loc 1 342 5 is_stmt 1 view .LVU211
 635 0032 FFF7FEFF 		bl	Error_Handler
 636              	.LVL22:
 637              	.L26:
 638 0036 00BF     		.align	2
 639              	.L25:
 640 0038 00000000 		.word	.LANCHOR2
 641 003c 00300140 		.word	1073819648
 642              		.cfi_endproc
 643              	.LFE239:
 645              		.section	.text.MX_USART2_UART_Init,"ax",%progbits
 646              		.align	1
 647              		.syntax unified
 648              		.thumb
 649              		.thumb_func
 651              	MX_USART2_UART_Init:
 652              	.LFB241:
 389:Core/Src/main.c **** 
 653              		.loc 1 389 1 view -0
 654              		.cfi_startproc
 655              		@ args = 0, pretend = 0, frame = 0
 656              		@ frame_needed = 0, uses_anonymous_args = 0
 657 0000 08B5     		push	{r3, lr}
 658              	.LCFI9:
 659              		.cfi_def_cfa_offset 8
 660              		.cfi_offset 3, -8
 661              		.cfi_offset 14, -4
 398:Core/Src/main.c ****   huart2.Init.BaudRate = 9600;
 662              		.loc 1 398 3 view .LVU213
 398:Core/Src/main.c ****   huart2.Init.BaudRate = 9600;
 663              		.loc 1 398 19 is_stmt 0 view .LVU214
 664 0002 0A48     		ldr	r0, .L31
 665 0004 0A4B     		ldr	r3, .L31+4
 666 0006 0360     		str	r3, [r0]
 399:Core/Src/main.c ****   huart2.Init.WordLength = UART_WORDLENGTH_8B;
 667              		.loc 1 399 3 is_stmt 1 view .LVU215
 399:Core/Src/main.c ****   huart2.Init.WordLength = UART_WORDLENGTH_8B;
 668              		.loc 1 399 24 is_stmt 0 view .LVU216
 669 0008 4FF41653 		mov	r3, #9600
 670 000c 4360     		str	r3, [r0, #4]
 400:Core/Src/main.c ****   huart2.Init.StopBits = UART_STOPBITS_1;
 671              		.loc 1 400 3 is_stmt 1 view .LVU217
 400:Core/Src/main.c ****   huart2.Init.StopBits = UART_STOPBITS_1;
 672              		.loc 1 400 26 is_stmt 0 view .LVU218
 673 000e 0023     		movs	r3, #0
 674 0010 8360     		str	r3, [r0, #8]
 401:Core/Src/main.c ****   huart2.Init.Parity = UART_PARITY_NONE;
 675              		.loc 1 401 3 is_stmt 1 view .LVU219
 401:Core/Src/main.c ****   huart2.Init.Parity = UART_PARITY_NONE;
 676              		.loc 1 401 24 is_stmt 0 view .LVU220
 677 0012 C360     		str	r3, [r0, #12]
 402:Core/Src/main.c ****   huart2.Init.Mode = UART_MODE_TX_RX;
 678              		.loc 1 402 3 is_stmt 1 view .LVU221
 402:Core/Src/main.c ****   huart2.Init.Mode = UART_MODE_TX_RX;
 679              		.loc 1 402 22 is_stmt 0 view .LVU222
ARM GAS  C:\Users\86158\AppData\Local\Temp\ccm695Jf.s 			page 27


 680 0014 0361     		str	r3, [r0, #16]
 403:Core/Src/main.c ****   huart2.Init.HwFlowCtl = UART_HWCONTROL_NONE;
 681              		.loc 1 403 3 is_stmt 1 view .LVU223
 403:Core/Src/main.c ****   huart2.Init.HwFlowCtl = UART_HWCONTROL_NONE;
 682              		.loc 1 403 20 is_stmt 0 view .LVU224
 683 0016 0C22     		movs	r2, #12
 684 0018 4261     		str	r2, [r0, #20]
 404:Core/Src/main.c ****   huart2.Init.OverSampling = UART_OVERSAMPLING_16;
 685              		.loc 1 404 3 is_stmt 1 view .LVU225
 404:Core/Src/main.c ****   huart2.Init.OverSampling = UART_OVERSAMPLING_16;
 686              		.loc 1 404 25 is_stmt 0 view .LVU226
 687 001a 8361     		str	r3, [r0, #24]
 405:Core/Src/main.c ****   if (HAL_UART_Init(&huart2) != HAL_OK)
 688              		.loc 1 405 3 is_stmt 1 view .LVU227
 405:Core/Src/main.c ****   if (HAL_UART_Init(&huart2) != HAL_OK)
 689              		.loc 1 405 28 is_stmt 0 view .LVU228
 690 001c C361     		str	r3, [r0, #28]
 406:Core/Src/main.c ****   {
 691              		.loc 1 406 3 is_stmt 1 view .LVU229
 406:Core/Src/main.c ****   {
 692              		.loc 1 406 7 is_stmt 0 view .LVU230
 693 001e FFF7FEFF 		bl	HAL_UART_Init
 694              	.LVL23:
 406:Core/Src/main.c ****   {
 695              		.loc 1 406 6 view .LVU231
 696 0022 00B9     		cbnz	r0, .L30
 414:Core/Src/main.c **** 
 697              		.loc 1 414 1 view .LVU232
 698 0024 08BD     		pop	{r3, pc}
 699              	.L30:
 408:Core/Src/main.c ****   }
 700              		.loc 1 408 5 is_stmt 1 view .LVU233
 701 0026 FFF7FEFF 		bl	Error_Handler
 702              	.LVL24:
 703              	.L32:
 704 002a 00BF     		.align	2
 705              	.L31:
 706 002c 00000000 		.word	.LANCHOR3
 707 0030 00440040 		.word	1073759232
 708              		.cfi_endproc
 709              	.LFE241:
 711              		.section	.text.MX_USART3_UART_Init,"ax",%progbits
 712              		.align	1
 713              		.syntax unified
 714              		.thumb
 715              		.thumb_func
 717              	MX_USART3_UART_Init:
 718              	.LFB242:
 422:Core/Src/main.c **** 
 719              		.loc 1 422 1 view -0
 720              		.cfi_startproc
 721              		@ args = 0, pretend = 0, frame = 0
 722              		@ frame_needed = 0, uses_anonymous_args = 0
 723 0000 08B5     		push	{r3, lr}
 724              	.LCFI10:
 725              		.cfi_def_cfa_offset 8
 726              		.cfi_offset 3, -8
ARM GAS  C:\Users\86158\AppData\Local\Temp\ccm695Jf.s 			page 28


 727              		.cfi_offset 14, -4
 431:Core/Src/main.c ****   huart3.Init.BaudRate = 9600;
 728              		.loc 1 431 3 view .LVU235
 431:Core/Src/main.c ****   huart3.Init.BaudRate = 9600;
 729              		.loc 1 431 19 is_stmt 0 view .LVU236
 730 0002 0A48     		ldr	r0, .L37
 731 0004 0A4B     		ldr	r3, .L37+4
 732 0006 0360     		str	r3, [r0]
 432:Core/Src/main.c ****   huart3.Init.WordLength = UART_WORDLENGTH_8B;
 733              		.loc 1 432 3 is_stmt 1 view .LVU237
 432:Core/Src/main.c ****   huart3.Init.WordLength = UART_WORDLENGTH_8B;
 734              		.loc 1 432 24 is_stmt 0 view .LVU238
 735 0008 4FF41653 		mov	r3, #9600
 736 000c 4360     		str	r3, [r0, #4]
 433:Core/Src/main.c ****   huart3.Init.StopBits = UART_STOPBITS_1;
 737              		.loc 1 433 3 is_stmt 1 view .LVU239
 433:Core/Src/main.c ****   huart3.Init.StopBits = UART_STOPBITS_1;
 738              		.loc 1 433 26 is_stmt 0 view .LVU240
 739 000e 0023     		movs	r3, #0
 740 0010 8360     		str	r3, [r0, #8]
 434:Core/Src/main.c ****   huart3.Init.Parity = UART_PARITY_NONE;
 741              		.loc 1 434 3 is_stmt 1 view .LVU241
 434:Core/Src/main.c ****   huart3.Init.Parity = UART_PARITY_NONE;
 742              		.loc 1 434 24 is_stmt 0 view .LVU242
 743 0012 C360     		str	r3, [r0, #12]
 435:Core/Src/main.c ****   huart3.Init.Mode = UART_MODE_TX_RX;
 744              		.loc 1 435 3 is_stmt 1 view .LVU243
 435:Core/Src/main.c ****   huart3.Init.Mode = UART_MODE_TX_RX;
 745              		.loc 1 435 22 is_stmt 0 view .LVU244
 746 0014 0361     		str	r3, [r0, #16]
 436:Core/Src/main.c ****   huart3.Init.HwFlowCtl = UART_HWCONTROL_NONE;
 747              		.loc 1 436 3 is_stmt 1 view .LVU245
 436:Core/Src/main.c ****   huart3.Init.HwFlowCtl = UART_HWCONTROL_NONE;
 748              		.loc 1 436 20 is_stmt 0 view .LVU246
 749 0016 0C22     		movs	r2, #12
 750 0018 4261     		str	r2, [r0, #20]
 437:Core/Src/main.c ****   huart3.Init.OverSampling = UART_OVERSAMPLING_16;
 751              		.loc 1 437 3 is_stmt 1 view .LVU247
 437:Core/Src/main.c ****   huart3.Init.OverSampling = UART_OVERSAMPLING_16;
 752              		.loc 1 437 25 is_stmt 0 view .LVU248
 753 001a 8361     		str	r3, [r0, #24]
 438:Core/Src/main.c ****   if (HAL_UART_Init(&huart3) != HAL_OK)
 754              		.loc 1 438 3 is_stmt 1 view .LVU249
 438:Core/Src/main.c ****   if (HAL_UART_Init(&huart3) != HAL_OK)
 755              		.loc 1 438 28 is_stmt 0 view .LVU250
 756 001c C361     		str	r3, [r0, #28]
 439:Core/Src/main.c ****   {
 757              		.loc 1 439 3 is_stmt 1 view .LVU251
 439:Core/Src/main.c ****   {
 758              		.loc 1 439 7 is_stmt 0 view .LVU252
 759 001e FFF7FEFF 		bl	HAL_UART_Init
 760              	.LVL25:
 439:Core/Src/main.c ****   {
 761              		.loc 1 439 6 view .LVU253
 762 0022 00B9     		cbnz	r0, .L36
 447:Core/Src/main.c **** 
 763              		.loc 1 447 1 view .LVU254
ARM GAS  C:\Users\86158\AppData\Local\Temp\ccm695Jf.s 			page 29


 764 0024 08BD     		pop	{r3, pc}
 765              	.L36:
 441:Core/Src/main.c ****   }
 766              		.loc 1 441 5 is_stmt 1 view .LVU255
 767 0026 FFF7FEFF 		bl	Error_Handler
 768              	.LVL26:
 769              	.L38:
 770 002a 00BF     		.align	2
 771              	.L37:
 772 002c 00000000 		.word	.LANCHOR4
 773 0030 00480040 		.word	1073760256
 774              		.cfi_endproc
 775              	.LFE242:
 777              		.section	.text.MX_DAC_Init,"ax",%progbits
 778              		.align	1
 779              		.syntax unified
 780              		.thumb
 781              		.thumb_func
 783              	MX_DAC_Init:
 784              	.LFB238:
 278:Core/Src/main.c **** 
 785              		.loc 1 278 1 view -0
 786              		.cfi_startproc
 787              		@ args = 0, pretend = 0, frame = 8
 788              		@ frame_needed = 0, uses_anonymous_args = 0
 789 0000 00B5     		push	{lr}
 790              	.LCFI11:
 791              		.cfi_def_cfa_offset 4
 792              		.cfi_offset 14, -4
 793 0002 83B0     		sub	sp, sp, #12
 794              	.LCFI12:
 795              		.cfi_def_cfa_offset 16
 284:Core/Src/main.c **** 
 796              		.loc 1 284 3 view .LVU257
 284:Core/Src/main.c **** 
 797              		.loc 1 284 26 is_stmt 0 view .LVU258
 798 0004 0023     		movs	r3, #0
 799 0006 0093     		str	r3, [sp]
 800 0008 0193     		str	r3, [sp, #4]
 292:Core/Src/main.c ****   if (HAL_DAC_Init(&hdac) != HAL_OK)
 801              		.loc 1 292 3 is_stmt 1 view .LVU259
 292:Core/Src/main.c ****   if (HAL_DAC_Init(&hdac) != HAL_OK)
 802              		.loc 1 292 17 is_stmt 0 view .LVU260
 803 000a 0A48     		ldr	r0, .L45
 804 000c 0A4B     		ldr	r3, .L45+4
 805 000e 0360     		str	r3, [r0]
 293:Core/Src/main.c ****   {
 806              		.loc 1 293 3 is_stmt 1 view .LVU261
 293:Core/Src/main.c ****   {
 807              		.loc 1 293 7 is_stmt 0 view .LVU262
 808 0010 FFF7FEFF 		bl	HAL_DAC_Init
 809              	.LVL27:
 293:Core/Src/main.c ****   {
 810              		.loc 1 293 6 view .LVU263
 811 0014 50B9     		cbnz	r0, .L43
 300:Core/Src/main.c ****   sConfig.DAC_OutputBuffer = DAC_OUTPUTBUFFER_ENABLE;
 812              		.loc 1 300 3 is_stmt 1 view .LVU264
ARM GAS  C:\Users\86158\AppData\Local\Temp\ccm695Jf.s 			page 30


 300:Core/Src/main.c ****   sConfig.DAC_OutputBuffer = DAC_OUTPUTBUFFER_ENABLE;
 813              		.loc 1 300 23 is_stmt 0 view .LVU265
 814 0016 0022     		movs	r2, #0
 815 0018 0092     		str	r2, [sp]
 301:Core/Src/main.c ****   if (HAL_DAC_ConfigChannel(&hdac, &sConfig, DAC_CHANNEL_1) != HAL_OK)
 816              		.loc 1 301 3 is_stmt 1 view .LVU266
 301:Core/Src/main.c ****   if (HAL_DAC_ConfigChannel(&hdac, &sConfig, DAC_CHANNEL_1) != HAL_OK)
 817              		.loc 1 301 28 is_stmt 0 view .LVU267
 818 001a 0192     		str	r2, [sp, #4]
 302:Core/Src/main.c ****   {
 819              		.loc 1 302 3 is_stmt 1 view .LVU268
 302:Core/Src/main.c ****   {
 820              		.loc 1 302 7 is_stmt 0 view .LVU269
 821 001c 6946     		mov	r1, sp
 822 001e 0548     		ldr	r0, .L45
 823 0020 FFF7FEFF 		bl	HAL_DAC_ConfigChannel
 824              	.LVL28:
 302:Core/Src/main.c ****   {
 825              		.loc 1 302 6 view .LVU270
 826 0024 20B9     		cbnz	r0, .L44
 310:Core/Src/main.c **** 
 827              		.loc 1 310 1 view .LVU271
 828 0026 03B0     		add	sp, sp, #12
 829              	.LCFI13:
 830              		.cfi_remember_state
 831              		.cfi_def_cfa_offset 4
 832              		@ sp needed
 833 0028 5DF804FB 		ldr	pc, [sp], #4
 834              	.L43:
 835              	.LCFI14:
 836              		.cfi_restore_state
 295:Core/Src/main.c ****   }
 837              		.loc 1 295 5 is_stmt 1 view .LVU272
 838 002c FFF7FEFF 		bl	Error_Handler
 839              	.LVL29:
 840              	.L44:
 304:Core/Src/main.c ****   }
 841              		.loc 1 304 5 view .LVU273
 842 0030 FFF7FEFF 		bl	Error_Handler
 843              	.LVL30:
 844              	.L46:
 845              		.align	2
 846              	.L45:
 847 0034 00000000 		.word	.LANCHOR5
 848 0038 00740040 		.word	1073771520
 849              		.cfi_endproc
 850              	.LFE238:
 852              		.section	.text.SystemClock_Config,"ax",%progbits
 853              		.align	1
 854              		.global	SystemClock_Config
 855              		.syntax unified
 856              		.thumb
 857              		.thumb_func
 859              	SystemClock_Config:
 860              	.LFB236:
 179:Core/Src/main.c ****   RCC_OscInitTypeDef RCC_OscInitStruct = {0};
 861              		.loc 1 179 1 view -0
ARM GAS  C:\Users\86158\AppData\Local\Temp\ccm695Jf.s 			page 31


 862              		.cfi_startproc
 863              		@ args = 0, pretend = 0, frame = 80
 864              		@ frame_needed = 0, uses_anonymous_args = 0
 865 0000 00B5     		push	{lr}
 866              	.LCFI15:
 867              		.cfi_def_cfa_offset 4
 868              		.cfi_offset 14, -4
 869 0002 95B0     		sub	sp, sp, #84
 870              	.LCFI16:
 871              		.cfi_def_cfa_offset 88
 180:Core/Src/main.c ****   RCC_ClkInitTypeDef RCC_ClkInitStruct = {0};
 872              		.loc 1 180 3 view .LVU275
 180:Core/Src/main.c ****   RCC_ClkInitTypeDef RCC_ClkInitStruct = {0};
 873              		.loc 1 180 22 is_stmt 0 view .LVU276
 874 0004 3022     		movs	r2, #48
 875 0006 0021     		movs	r1, #0
 876 0008 08A8     		add	r0, sp, #32
 877 000a FFF7FEFF 		bl	memset
 878              	.LVL31:
 181:Core/Src/main.c **** 
 879              		.loc 1 181 3 is_stmt 1 view .LVU277
 181:Core/Src/main.c **** 
 880              		.loc 1 181 22 is_stmt 0 view .LVU278
 881 000e 0023     		movs	r3, #0
 882 0010 0393     		str	r3, [sp, #12]
 883 0012 0493     		str	r3, [sp, #16]
 884 0014 0593     		str	r3, [sp, #20]
 885 0016 0693     		str	r3, [sp, #24]
 886 0018 0793     		str	r3, [sp, #28]
 185:Core/Src/main.c ****   __HAL_PWR_VOLTAGESCALING_CONFIG(PWR_REGULATOR_VOLTAGE_SCALE1);
 887              		.loc 1 185 3 is_stmt 1 view .LVU279
 888              	.LBB11:
 185:Core/Src/main.c ****   __HAL_PWR_VOLTAGESCALING_CONFIG(PWR_REGULATOR_VOLTAGE_SCALE1);
 889              		.loc 1 185 3 view .LVU280
 890 001a 0193     		str	r3, [sp, #4]
 185:Core/Src/main.c ****   __HAL_PWR_VOLTAGESCALING_CONFIG(PWR_REGULATOR_VOLTAGE_SCALE1);
 891              		.loc 1 185 3 view .LVU281
 892 001c 204A     		ldr	r2, .L53
 893 001e 116C     		ldr	r1, [r2, #64]
 894 0020 41F08051 		orr	r1, r1, #268435456
 895 0024 1164     		str	r1, [r2, #64]
 185:Core/Src/main.c ****   __HAL_PWR_VOLTAGESCALING_CONFIG(PWR_REGULATOR_VOLTAGE_SCALE1);
 896              		.loc 1 185 3 view .LVU282
 897 0026 126C     		ldr	r2, [r2, #64]
 898 0028 02F08052 		and	r2, r2, #268435456
 899 002c 0192     		str	r2, [sp, #4]
 185:Core/Src/main.c ****   __HAL_PWR_VOLTAGESCALING_CONFIG(PWR_REGULATOR_VOLTAGE_SCALE1);
 900              		.loc 1 185 3 view .LVU283
 901 002e 019A     		ldr	r2, [sp, #4]
 902              	.LBE11:
 185:Core/Src/main.c ****   __HAL_PWR_VOLTAGESCALING_CONFIG(PWR_REGULATOR_VOLTAGE_SCALE1);
 903              		.loc 1 185 3 view .LVU284
 186:Core/Src/main.c **** 
 904              		.loc 1 186 3 view .LVU285
 905              	.LBB12:
 186:Core/Src/main.c **** 
 906              		.loc 1 186 3 view .LVU286
ARM GAS  C:\Users\86158\AppData\Local\Temp\ccm695Jf.s 			page 32


 907 0030 0293     		str	r3, [sp, #8]
 186:Core/Src/main.c **** 
 908              		.loc 1 186 3 view .LVU287
 909 0032 1C4B     		ldr	r3, .L53+4
 910 0034 1A68     		ldr	r2, [r3]
 911 0036 42F48042 		orr	r2, r2, #16384
 912 003a 1A60     		str	r2, [r3]
 186:Core/Src/main.c **** 
 913              		.loc 1 186 3 view .LVU288
 914 003c 1B68     		ldr	r3, [r3]
 915 003e 03F48043 		and	r3, r3, #16384
 916 0042 0293     		str	r3, [sp, #8]
 186:Core/Src/main.c **** 
 917              		.loc 1 186 3 view .LVU289
 918 0044 029B     		ldr	r3, [sp, #8]
 919              	.LBE12:
 186:Core/Src/main.c **** 
 920              		.loc 1 186 3 view .LVU290
 191:Core/Src/main.c ****   RCC_OscInitStruct.HSEState = RCC_HSE_ON;
 921              		.loc 1 191 3 view .LVU291
 191:Core/Src/main.c ****   RCC_OscInitStruct.HSEState = RCC_HSE_ON;
 922              		.loc 1 191 36 is_stmt 0 view .LVU292
 923 0046 0123     		movs	r3, #1
 924 0048 0893     		str	r3, [sp, #32]
 192:Core/Src/main.c ****   RCC_OscInitStruct.PLL.PLLState = RCC_PLL_ON;
 925              		.loc 1 192 3 is_stmt 1 view .LVU293
 192:Core/Src/main.c ****   RCC_OscInitStruct.PLL.PLLState = RCC_PLL_ON;
 926              		.loc 1 192 30 is_stmt 0 view .LVU294
 927 004a 4FF48033 		mov	r3, #65536
 928 004e 0993     		str	r3, [sp, #36]
 193:Core/Src/main.c ****   RCC_OscInitStruct.PLL.PLLSource = RCC_PLLSOURCE_HSE;
 929              		.loc 1 193 3 is_stmt 1 view .LVU295
 193:Core/Src/main.c ****   RCC_OscInitStruct.PLL.PLLSource = RCC_PLLSOURCE_HSE;
 930              		.loc 1 193 34 is_stmt 0 view .LVU296
 931 0050 0223     		movs	r3, #2
 932 0052 0E93     		str	r3, [sp, #56]
 194:Core/Src/main.c ****   RCC_OscInitStruct.PLL.PLLM = 6;
 933              		.loc 1 194 3 is_stmt 1 view .LVU297
 194:Core/Src/main.c ****   RCC_OscInitStruct.PLL.PLLM = 6;
 934              		.loc 1 194 35 is_stmt 0 view .LVU298
 935 0054 4FF48002 		mov	r2, #4194304
 936 0058 0F92     		str	r2, [sp, #60]
 195:Core/Src/main.c ****   RCC_OscInitStruct.PLL.PLLN = 168;
 937              		.loc 1 195 3 is_stmt 1 view .LVU299
 195:Core/Src/main.c ****   RCC_OscInitStruct.PLL.PLLN = 168;
 938              		.loc 1 195 30 is_stmt 0 view .LVU300
 939 005a 0622     		movs	r2, #6
 940 005c 1092     		str	r2, [sp, #64]
 196:Core/Src/main.c ****   RCC_OscInitStruct.PLL.PLLP = RCC_PLLP_DIV2;
 941              		.loc 1 196 3 is_stmt 1 view .LVU301
 196:Core/Src/main.c ****   RCC_OscInitStruct.PLL.PLLP = RCC_PLLP_DIV2;
 942              		.loc 1 196 30 is_stmt 0 view .LVU302
 943 005e A822     		movs	r2, #168
 944 0060 1192     		str	r2, [sp, #68]
 197:Core/Src/main.c ****   RCC_OscInitStruct.PLL.PLLQ = 4;
 945              		.loc 1 197 3 is_stmt 1 view .LVU303
 197:Core/Src/main.c ****   RCC_OscInitStruct.PLL.PLLQ = 4;
ARM GAS  C:\Users\86158\AppData\Local\Temp\ccm695Jf.s 			page 33


 946              		.loc 1 197 30 is_stmt 0 view .LVU304
 947 0062 1293     		str	r3, [sp, #72]
 198:Core/Src/main.c ****   if (HAL_RCC_OscConfig(&RCC_OscInitStruct) != HAL_OK)
 948              		.loc 1 198 3 is_stmt 1 view .LVU305
 198:Core/Src/main.c ****   if (HAL_RCC_OscConfig(&RCC_OscInitStruct) != HAL_OK)
 949              		.loc 1 198 30 is_stmt 0 view .LVU306
 950 0064 0423     		movs	r3, #4
 951 0066 1393     		str	r3, [sp, #76]
 199:Core/Src/main.c ****   {
 952              		.loc 1 199 3 is_stmt 1 view .LVU307
 199:Core/Src/main.c ****   {
 953              		.loc 1 199 7 is_stmt 0 view .LVU308
 954 0068 08A8     		add	r0, sp, #32
 955 006a FFF7FEFF 		bl	HAL_RCC_OscConfig
 956              	.LVL32:
 199:Core/Src/main.c ****   {
 957              		.loc 1 199 6 view .LVU309
 958 006e 98B9     		cbnz	r0, .L51
 206:Core/Src/main.c ****                               |RCC_CLOCKTYPE_PCLK1|RCC_CLOCKTYPE_PCLK2;
 959              		.loc 1 206 3 is_stmt 1 view .LVU310
 206:Core/Src/main.c ****                               |RCC_CLOCKTYPE_PCLK1|RCC_CLOCKTYPE_PCLK2;
 960              		.loc 1 206 31 is_stmt 0 view .LVU311
 961 0070 0F23     		movs	r3, #15
 962 0072 0393     		str	r3, [sp, #12]
 208:Core/Src/main.c ****   RCC_ClkInitStruct.AHBCLKDivider = RCC_SYSCLK_DIV1;
 963              		.loc 1 208 3 is_stmt 1 view .LVU312
 208:Core/Src/main.c ****   RCC_ClkInitStruct.AHBCLKDivider = RCC_SYSCLK_DIV1;
 964              		.loc 1 208 34 is_stmt 0 view .LVU313
 965 0074 0223     		movs	r3, #2
 966 0076 0493     		str	r3, [sp, #16]
 209:Core/Src/main.c ****   RCC_ClkInitStruct.APB1CLKDivider = RCC_HCLK_DIV4;
 967              		.loc 1 209 3 is_stmt 1 view .LVU314
 209:Core/Src/main.c ****   RCC_ClkInitStruct.APB1CLKDivider = RCC_HCLK_DIV4;
 968              		.loc 1 209 35 is_stmt 0 view .LVU315
 969 0078 0023     		movs	r3, #0
 970 007a 0593     		str	r3, [sp, #20]
 210:Core/Src/main.c ****   RCC_ClkInitStruct.APB2CLKDivider = RCC_HCLK_DIV2;
 971              		.loc 1 210 3 is_stmt 1 view .LVU316
 210:Core/Src/main.c ****   RCC_ClkInitStruct.APB2CLKDivider = RCC_HCLK_DIV2;
 972              		.loc 1 210 36 is_stmt 0 view .LVU317
 973 007c 4FF4A053 		mov	r3, #5120
 974 0080 0693     		str	r3, [sp, #24]
 211:Core/Src/main.c **** 
 975              		.loc 1 211 3 is_stmt 1 view .LVU318
 211:Core/Src/main.c **** 
 976              		.loc 1 211 36 is_stmt 0 view .LVU319
 977 0082 4FF48053 		mov	r3, #4096
 978 0086 0793     		str	r3, [sp, #28]
 213:Core/Src/main.c ****   {
 979              		.loc 1 213 3 is_stmt 1 view .LVU320
 213:Core/Src/main.c ****   {
 980              		.loc 1 213 7 is_stmt 0 view .LVU321
 981 0088 0521     		movs	r1, #5
 982 008a 03A8     		add	r0, sp, #12
 983 008c FFF7FEFF 		bl	HAL_RCC_ClockConfig
 984              	.LVL33:
 213:Core/Src/main.c ****   {
ARM GAS  C:\Users\86158\AppData\Local\Temp\ccm695Jf.s 			page 34


 985              		.loc 1 213 6 view .LVU322
 986 0090 20B9     		cbnz	r0, .L52
 217:Core/Src/main.c **** 
 987              		.loc 1 217 1 view .LVU323
 988 0092 15B0     		add	sp, sp, #84
 989              	.LCFI17:
 990              		.cfi_remember_state
 991              		.cfi_def_cfa_offset 4
 992              		@ sp needed
 993 0094 5DF804FB 		ldr	pc, [sp], #4
 994              	.L51:
 995              	.LCFI18:
 996              		.cfi_restore_state
 201:Core/Src/main.c ****   }
 997              		.loc 1 201 5 is_stmt 1 view .LVU324
 998 0098 FFF7FEFF 		bl	Error_Handler
 999              	.LVL34:
 1000              	.L52:
 215:Core/Src/main.c ****   }
 1001              		.loc 1 215 5 view .LVU325
 1002 009c FFF7FEFF 		bl	Error_Handler
 1003              	.LVL35:
 1004              	.L54:
 1005              		.align	2
 1006              	.L53:
 1007 00a0 00380240 		.word	1073887232
 1008 00a4 00700040 		.word	1073770496
 1009              		.cfi_endproc
 1010              	.LFE236:
 1012              		.section	.text.main,"ax",%progbits
 1013              		.align	1
 1014              		.global	main
 1015              		.syntax unified
 1016              		.thumb
 1017              		.thumb_func
 1019              	main:
 1020              	.LFB235:
  80:Core/Src/main.c ****   /* USER CODE BEGIN 1 */
 1021              		.loc 1 80 1 view -0
 1022              		.cfi_startproc
 1023              		@ args = 0, pretend = 0, frame = 0
 1024              		@ frame_needed = 0, uses_anonymous_args = 0
 1025 0000 10B5     		push	{r4, lr}
 1026              	.LCFI19:
 1027              		.cfi_def_cfa_offset 8
 1028              		.cfi_offset 4, -8
 1029              		.cfi_offset 14, -4
  82:Core/Src/main.c **** 
 1030              		.loc 1 82 3 view .LVU327
 1031              	.LVL36:
  89:Core/Src/main.c **** 
 1032              		.loc 1 89 3 view .LVU328
 1033 0002 FFF7FEFF 		bl	HAL_Init
 1034              	.LVL37:
  96:Core/Src/main.c **** 
 1035              		.loc 1 96 3 view .LVU329
 1036 0006 FFF7FEFF 		bl	SystemClock_Config
ARM GAS  C:\Users\86158\AppData\Local\Temp\ccm695Jf.s 			page 35


 1037              	.LVL38:
 103:Core/Src/main.c ****   MX_USART1_UART_Init();
 1038              		.loc 1 103 3 view .LVU330
 1039 000a FFF7FEFF 		bl	MX_GPIO_Init
 1040              	.LVL39:
 104:Core/Src/main.c ****   MX_ADC1_Init();
 1041              		.loc 1 104 3 view .LVU331
 1042 000e FFF7FEFF 		bl	MX_USART1_UART_Init
 1043              	.LVL40:
 105:Core/Src/main.c ****   MX_SPI1_Init();
 1044              		.loc 1 105 3 view .LVU332
 1045 0012 FFF7FEFF 		bl	MX_ADC1_Init
 1046              	.LVL41:
 106:Core/Src/main.c ****   MX_USART2_UART_Init();
 1047              		.loc 1 106 3 view .LVU333
 1048 0016 FFF7FEFF 		bl	MX_SPI1_Init
 1049              	.LVL42:
 107:Core/Src/main.c ****   MX_USART3_UART_Init();
 1050              		.loc 1 107 3 view .LVU334
 1051 001a FFF7FEFF 		bl	MX_USART2_UART_Init
 1052              	.LVL43:
 108:Core/Src/main.c ****   /* USER CODE BEGIN 2 */
 1053              		.loc 1 108 3 view .LVU335
 1054 001e FFF7FEFF 		bl	MX_USART3_UART_Init
 1055              	.LVL44:
 110:Core/Src/main.c ****   UsartInit();
 1056              		.loc 1 110 3 view .LVU336
 1057 0022 FFF7FEFF 		bl	MX_DAC_Init
 1058              	.LVL45:
 111:Core/Src/main.c **** 	log_list_init();
 1059              		.loc 1 111 3 view .LVU337
 1060 0026 FFF7FEFF 		bl	UsartInit
 1061              	.LVL46:
 112:Core/Src/main.c ****   /* USER CODE END 2 */
 1062              		.loc 1 112 2 view .LVU338
 1063 002a FFF7FEFF 		bl	log_list_init
 1064              	.LVL47:
  82:Core/Src/main.c **** 
 1065              		.loc 1 82 12 is_stmt 0 view .LVU339
 1066 002e 0024     		movs	r4, #0
 1067              	.LVL48:
 1068              	.L56:
 117:Core/Src/main.c ****   {
 1069              		.loc 1 117 3 is_stmt 1 view .LVU340
 120:Core/Src/main.c ****           CheckControlList();
 1070              		.loc 1 120 7 view .LVU341
 120:Core/Src/main.c ****           CheckControlList();
 1071              		.loc 1 120 25 is_stmt 0 view .LVU342
 1072 0030 FFF7FEFF 		bl	HAL_GetTick
 1073              	.LVL49:
 120:Core/Src/main.c ****           CheckControlList();
 1074              		.loc 1 120 10 view .LVU343
 1075 0034 A042     		cmp	r0, r4
 1076 0036 FBD0     		beq	.L56
 121:Core/Src/main.c ****           CheckCommandList();
 1077              		.loc 1 121 11 is_stmt 1 view .LVU344
 1078 0038 FFF7FEFF 		bl	CheckControlList
ARM GAS  C:\Users\86158\AppData\Local\Temp\ccm695Jf.s 			page 36


 1079              	.LVL50:
 122:Core/Src/main.c ****           system_manage();
 1080              		.loc 1 122 11 view .LVU345
 1081 003c FFF7FEFF 		bl	CheckCommandList
 1082              	.LVL51:
 123:Core/Src/main.c ****           DeviceMassage();
 1083              		.loc 1 123 11 view .LVU346
 1084 0040 FFF7FEFF 		bl	system_manage
 1085              	.LVL52:
 124:Core/Src/main.c ****           systemTick = HAL_GetTick();
 1086              		.loc 1 124 11 view .LVU347
 1087 0044 FFF7FEFF 		bl	DeviceMassage
 1088              	.LVL53:
 125:Core/Src/main.c ****       }
 1089              		.loc 1 125 11 view .LVU348
 125:Core/Src/main.c ****       }
 1090              		.loc 1 125 24 is_stmt 0 view .LVU349
 1091 0048 FFF7FEFF 		bl	HAL_GetTick
 1092              	.LVL54:
 1093 004c 0446     		mov	r4, r0
 1094              	.LVL55:
 125:Core/Src/main.c ****       }
 1095              		.loc 1 125 24 view .LVU350
 1096 004e EFE7     		b	.L56
 1097              		.cfi_endproc
 1098              	.LFE235:
 1100              		.global	hdac
 1101              		.global	huart3
 1102              		.global	huart2
 1103              		.global	huart1
 1104              		.global	hspi1
 1105              		.global	hadc1
 1106              		.section	.bss.hadc1,"aw",%nobits
 1107              		.align	2
 1108              		.set	.LANCHOR1,. + 0
 1111              	hadc1:
 1112 0000 00000000 		.space	72
 1112      00000000 
 1112      00000000 
 1112      00000000 
 1112      00000000 
 1113              		.section	.bss.hdac,"aw",%nobits
 1114              		.align	2
 1115              		.set	.LANCHOR5,. + 0
 1118              	hdac:
 1119 0000 00000000 		.space	20
 1119      00000000 
 1119      00000000 
 1119      00000000 
 1119      00000000 
 1120              		.section	.bss.hspi1,"aw",%nobits
 1121              		.align	2
 1122              		.set	.LANCHOR2,. + 0
 1125              	hspi1:
 1126 0000 00000000 		.space	88
 1126      00000000 
 1126      00000000 
ARM GAS  C:\Users\86158\AppData\Local\Temp\ccm695Jf.s 			page 37


 1126      00000000 
 1126      00000000 
 1127              		.section	.bss.huart1,"aw",%nobits
 1128              		.align	2
 1129              		.set	.LANCHOR0,. + 0
 1132              	huart1:
 1133 0000 00000000 		.space	68
 1133      00000000 
 1133      00000000 
 1133      00000000 
 1133      00000000 
 1134              		.section	.bss.huart2,"aw",%nobits
 1135              		.align	2
 1136              		.set	.LANCHOR3,. + 0
 1139              	huart2:
 1140 0000 00000000 		.space	68
 1140      00000000 
 1140      00000000 
 1140      00000000 
 1140      00000000 
 1141              		.section	.bss.huart3,"aw",%nobits
 1142              		.align	2
 1143              		.set	.LANCHOR4,. + 0
 1146              	huart3:
 1147 0000 00000000 		.space	68
 1147      00000000 
 1147      00000000 
 1147      00000000 
 1147      00000000 
 1148              		.text
 1149              	.Letext0:
 1150              		.file 3 "e:\\stm32-gcc\\gcc-arm-none-eabi-10.3-2021.10\\arm-none-eabi\\include\\machine\\_default_
 1151              		.file 4 "e:\\stm32-gcc\\gcc-arm-none-eabi-10.3-2021.10\\arm-none-eabi\\include\\sys\\_stdint.h"
 1152              		.file 5 "Drivers/CMSIS/Device/ST/STM32F4xx/Include/stm32f407xx.h"
 1153              		.file 6 "Drivers/CMSIS/Device/ST/STM32F4xx/Include/stm32f4xx.h"
 1154              		.file 7 "Drivers/STM32F4xx_HAL_Driver/Inc/stm32f4xx_hal_def.h"
 1155              		.file 8 "Drivers/STM32F4xx_HAL_Driver/Inc/stm32f4xx_hal_rcc_ex.h"
 1156              		.file 9 "Drivers/STM32F4xx_HAL_Driver/Inc/stm32f4xx_hal_rcc.h"
 1157              		.file 10 "Drivers/STM32F4xx_HAL_Driver/Inc/stm32f4xx_hal_gpio.h"
 1158              		.file 11 "Drivers/STM32F4xx_HAL_Driver/Inc/stm32f4xx_hal_dma.h"
 1159              		.file 12 "Drivers/STM32F4xx_HAL_Driver/Inc/stm32f4xx_hal_adc.h"
 1160              		.file 13 "Drivers/STM32F4xx_HAL_Driver/Inc/stm32f4xx_hal_dac.h"
 1161              		.file 14 "Drivers/STM32F4xx_HAL_Driver/Inc/stm32f4xx_hal_spi.h"
 1162              		.file 15 "Drivers/STM32F4xx_HAL_Driver/Inc/stm32f4xx_hal_uart.h"
 1163              		.file 16 "Drivers/STM32F4xx_HAL_Driver/Inc/stm32f4xx_hal.h"
 1164              		.file 17 "Core/Inc/main.h"
 1165              		.file 18 "App/Inc/control.h"
 1166              		.file 19 "App/Inc/command.h"
 1167              		.file 20 "App/Inc/task.h"
 1168              		.file 21 "<built-in>"
ARM GAS  C:\Users\86158\AppData\Local\Temp\ccm695Jf.s 			page 38

