ARM GAS  C:\Users\86158\AppData\Local\Temp\cc7PXljM.s 			page 1


   1              		.cpu cortex-m4
   2              		.arch armv7e-m
   3              		.fpu fpv4-sp-d16
   4              		.eabi_attribute 27, 1
   5              		.eabi_attribute 28, 1
   6              		.eabi_attribute 20, 1
   7              		.eabi_attribute 21, 1
   8              		.eabi_attribute 23, 3
   9              		.eabi_attribute 24, 1
  10              		.eabi_attribute 25, 1
  11              		.eabi_attribute 26, 1
  12              		.eabi_attribute 30, 1
  13              		.eabi_attribute 34, 1
  14              		.eabi_attribute 18, 4
  15              		.file	"task.c"
  16              		.text
  17              	.Ltext0:
  18              		.cfi_sections	.debug_frame
  19              		.section	.text.LedHeart,"ax",%progbits
  20              		.align	1
  21              		.global	LedHeart
  22              		.syntax unified
  23              		.thumb
  24              		.thumb_func
  26              	LedHeart:
  27              	.LFB235:
  28              		.file 1 "App/Src/task.c"
   1:App/Src/task.c **** #include "main.h"
   2:App/Src/task.c **** #include "task.h"
   3:App/Src/task.c **** #include "manager.h"
   4:App/Src/task.c **** #include "rtc.h"
   5:App/Src/task.c **** #include "temp.h"
   6:App/Src/task.c **** #include "math.h"
   7:App/Src/task.c **** #include "power.h"
   8:App/Src/task.c **** #include "current.h"
   9:App/Src/task.c **** #include "flash.h"
  10:App/Src/task.c **** #include "calculate.h"
  11:App/Src/task.c **** #include "drv_wave1006.h"
  12:App/Src/task.c **** 
  13:App/Src/task.c **** RealTime g_realTime = {0};
  14:App/Src/task.c **** FrequencyData g_lastFreq = {0};
  15:App/Src/task.c **** extern CapAdjust g_capAdjust;
  16:App/Src/task.c **** TestResult g_machineTest = {0};
  17:App/Src/task.c **** uint8_t g_intState = 0;
  18:App/Src/task.c **** uint8_t g_intStart = 0;
  19:App/Src/task.c **** uint8_t g_intEnd = 0;
  20:App/Src/task.c **** uint8_t g_aecq100Start = 1;
  21:App/Src/task.c **** void command_int_test(uint8_t init);
  22:App/Src/task.c **** void Aecq100Sample(void);
  23:App/Src/task.c **** 
  24:App/Src/task.c **** void LedHeart(void)
  25:App/Src/task.c **** {
  29              		.loc 1 25 1 view -0
  30              		.cfi_startproc
  31              		@ args = 0, pretend = 0, frame = 0
  32              		@ frame_needed = 0, uses_anonymous_args = 0
  33 0000 08B5     		push	{r3, lr}
ARM GAS  C:\Users\86158\AppData\Local\Temp\cc7PXljM.s 			page 2


  34              	.LCFI0:
  35              		.cfi_def_cfa_offset 8
  36              		.cfi_offset 3, -8
  37              		.cfi_offset 14, -4
  26:App/Src/task.c ****     static uint32_t ledTick = 0;
  38              		.loc 1 26 5 view .LVU1
  27:App/Src/task.c ****     if (HAL_GetTick() > ledTick + 1000) {
  39              		.loc 1 27 5 view .LVU2
  40              		.loc 1 27 9 is_stmt 0 view .LVU3
  41 0002 FFF7FEFF 		bl	HAL_GetTick
  42              	.LVL0:
  43              		.loc 1 27 33 view .LVU4
  44 0006 084B     		ldr	r3, .L5
  45 0008 1B68     		ldr	r3, [r3]
  46 000a 03F57A73 		add	r3, r3, #1000
  47              		.loc 1 27 8 view .LVU5
  48 000e 9842     		cmp	r0, r3
  49 0010 00D8     		bhi	.L4
  50              	.L1:
  28:App/Src/task.c ****         ledTick = HAL_GetTick();
  29:App/Src/task.c ****         HAL_GPIO_TogglePin(GPIOA, GPIO_PIN_8);
  30:App/Src/task.c ****     }
  31:App/Src/task.c **** }
  51              		.loc 1 31 1 view .LVU6
  52 0012 08BD     		pop	{r3, pc}
  53              	.L4:
  28:App/Src/task.c ****         ledTick = HAL_GetTick();
  54              		.loc 1 28 9 is_stmt 1 view .LVU7
  28:App/Src/task.c ****         ledTick = HAL_GetTick();
  55              		.loc 1 28 19 is_stmt 0 view .LVU8
  56 0014 FFF7FEFF 		bl	HAL_GetTick
  57              	.LVL1:
  28:App/Src/task.c ****         ledTick = HAL_GetTick();
  58              		.loc 1 28 17 view .LVU9
  59 0018 034B     		ldr	r3, .L5
  60 001a 1860     		str	r0, [r3]
  29:App/Src/task.c ****     }
  61              		.loc 1 29 9 is_stmt 1 view .LVU10
  62 001c 4FF48071 		mov	r1, #256
  63 0020 0248     		ldr	r0, .L5+4
  64 0022 FFF7FEFF 		bl	HAL_GPIO_TogglePin
  65              	.LVL2:
  66              		.loc 1 31 1 is_stmt 0 view .LVU11
  67 0026 F4E7     		b	.L1
  68              	.L6:
  69              		.align	2
  70              	.L5:
  71 0028 00000000 		.word	.LANCHOR0
  72 002c 00000240 		.word	1073872896
  73              		.cfi_endproc
  74              	.LFE235:
  76              		.section	.text.system_time_update,"ax",%progbits
  77              		.align	1
  78              		.global	system_time_update
  79              		.syntax unified
  80              		.thumb
  81              		.thumb_func
ARM GAS  C:\Users\86158\AppData\Local\Temp\cc7PXljM.s 			page 3


  83              	system_time_update:
  84              	.LFB236:
  32:App/Src/task.c **** 
  33:App/Src/task.c **** 
  34:App/Src/task.c **** void system_time_update(void)
  35:App/Src/task.c **** {
  85              		.loc 1 35 1 is_stmt 1 view -0
  86              		.cfi_startproc
  87              		@ args = 0, pretend = 0, frame = 0
  88              		@ frame_needed = 0, uses_anonymous_args = 0
  89 0000 38B5     		push	{r3, r4, r5, lr}
  90              	.LCFI1:
  91              		.cfi_def_cfa_offset 16
  92              		.cfi_offset 3, -16
  93              		.cfi_offset 4, -12
  94              		.cfi_offset 5, -8
  95              		.cfi_offset 14, -4
  36:App/Src/task.c ****     static uint32_t lastTick = 0;
  96              		.loc 1 36 5 view .LVU13
  37:App/Src/task.c **** 
  38:App/Src/task.c ****     g_realTime.tick += HAL_GetTick() - lastTick;
  97              		.loc 1 38 5 view .LVU14
  98              		.loc 1 38 24 is_stmt 0 view .LVU15
  99 0002 FFF7FEFF 		bl	HAL_GetTick
 100              	.LVL3:
 101              		.loc 1 38 38 view .LVU16
 102 0006 264D     		ldr	r5, .L15
 103 0008 2B68     		ldr	r3, [r5]
 104 000a C01A     		subs	r0, r0, r3
 105              		.loc 1 38 21 view .LVU17
 106 000c 254C     		ldr	r4, .L15+4
 107 000e E388     		ldrh	r3, [r4, #6]
 108 0010 1844     		add	r0, r0, r3
 109 0012 E080     		strh	r0, [r4, #6]	@ movhi
  39:App/Src/task.c ****     lastTick = HAL_GetTick();
 110              		.loc 1 39 5 is_stmt 1 view .LVU18
 111              		.loc 1 39 16 is_stmt 0 view .LVU19
 112 0014 FFF7FEFF 		bl	HAL_GetTick
 113              	.LVL4:
 114              		.loc 1 39 14 view .LVU20
 115 0018 2860     		str	r0, [r5]
  40:App/Src/task.c ****     if (g_realTime.tick < 1000) {
 116              		.loc 1 40 5 is_stmt 1 view .LVU21
 117              		.loc 1 40 19 is_stmt 0 view .LVU22
 118 001a E388     		ldrh	r3, [r4, #6]
 119              		.loc 1 40 8 view .LVU23
 120 001c B3F57A7F 		cmp	r3, #1000
 121 0020 3AD3     		bcc	.L7
  41:App/Src/task.c ****         return;
  42:App/Src/task.c ****     }
  43:App/Src/task.c ****     g_realTime.tick -= 1000;
 122              		.loc 1 43 5 is_stmt 1 view .LVU24
 123              		.loc 1 43 21 is_stmt 0 view .LVU25
 124 0022 A3F57A73 		sub	r3, r3, #1000
 125 0026 E380     		strh	r3, [r4, #6]	@ movhi
  44:App/Src/task.c ****     g_realTime.sec++;
 126              		.loc 1 44 5 is_stmt 1 view .LVU26
ARM GAS  C:\Users\86158\AppData\Local\Temp\cc7PXljM.s 			page 4


 127              		.loc 1 44 15 is_stmt 0 view .LVU27
 128 0028 6379     		ldrb	r3, [r4, #5]	@ zero_extendqisi2
 129              		.loc 1 44 19 view .LVU28
 130 002a 0133     		adds	r3, r3, #1
 131 002c DBB2     		uxtb	r3, r3
 132 002e 6371     		strb	r3, [r4, #5]
  45:App/Src/task.c ****     if (g_realTime.sec >= 60) {
 133              		.loc 1 45 5 is_stmt 1 view .LVU29
 134              		.loc 1 45 8 is_stmt 0 view .LVU30
 135 0030 3B2B     		cmp	r3, #59
 136 0032 31D9     		bls	.L7
  46:App/Src/task.c ****         g_realTime.sec = 0;
 137              		.loc 1 46 9 is_stmt 1 view .LVU31
 138              		.loc 1 46 24 is_stmt 0 view .LVU32
 139 0034 0023     		movs	r3, #0
 140 0036 6371     		strb	r3, [r4, #5]
  47:App/Src/task.c ****         g_realTime.min++;
 141              		.loc 1 47 9 is_stmt 1 view .LVU33
 142              		.loc 1 47 19 is_stmt 0 view .LVU34
 143 0038 2379     		ldrb	r3, [r4, #4]	@ zero_extendqisi2
 144              		.loc 1 47 23 view .LVU35
 145 003a 0133     		adds	r3, r3, #1
 146 003c DBB2     		uxtb	r3, r3
 147 003e 2371     		strb	r3, [r4, #4]
  48:App/Src/task.c ****         if (g_realTime.min >= 60) {
 148              		.loc 1 48 9 is_stmt 1 view .LVU36
 149              		.loc 1 48 12 is_stmt 0 view .LVU37
 150 0040 3B2B     		cmp	r3, #59
 151 0042 29D9     		bls	.L7
  49:App/Src/task.c ****             g_realTime.min = 0;
 152              		.loc 1 49 13 is_stmt 1 view .LVU38
 153              		.loc 1 49 28 is_stmt 0 view .LVU39
 154 0044 0023     		movs	r3, #0
 155 0046 2371     		strb	r3, [r4, #4]
  50:App/Src/task.c ****             g_realTime.hour++;
 156              		.loc 1 50 13 is_stmt 1 view .LVU40
 157              		.loc 1 50 23 is_stmt 0 view .LVU41
 158 0048 E378     		ldrb	r3, [r4, #3]	@ zero_extendqisi2
 159              		.loc 1 50 28 view .LVU42
 160 004a 0133     		adds	r3, r3, #1
 161 004c DBB2     		uxtb	r3, r3
 162 004e E370     		strb	r3, [r4, #3]
  51:App/Src/task.c ****             if (g_realTime.hour >= 24) {
 163              		.loc 1 51 13 is_stmt 1 view .LVU43
 164              		.loc 1 51 16 is_stmt 0 view .LVU44
 165 0050 172B     		cmp	r3, #23
 166 0052 21D9     		bls	.L7
  52:App/Src/task.c ****                 g_realTime.hour = 0;
 167              		.loc 1 52 17 is_stmt 1 view .LVU45
 168              		.loc 1 52 33 is_stmt 0 view .LVU46
 169 0054 0022     		movs	r2, #0
 170 0056 E270     		strb	r2, [r4, #3]
  53:App/Src/task.c ****                 g_realTime.day++;
 171              		.loc 1 53 17 is_stmt 1 view .LVU47
 172              		.loc 1 53 27 is_stmt 0 view .LVU48
 173 0058 A278     		ldrb	r2, [r4, #2]	@ zero_extendqisi2
 174              		.loc 1 53 31 view .LVU49
ARM GAS  C:\Users\86158\AppData\Local\Temp\cc7PXljM.s 			page 5


 175 005a 0132     		adds	r2, r2, #1
 176 005c D2B2     		uxtb	r2, r2
 177 005e A270     		strb	r2, [r4, #2]
  54:App/Src/task.c ****                 if ((g_realTime.mon == 2 && g_realTime.day >= 29) || 
 178              		.loc 1 54 17 is_stmt 1 view .LVU50
 179              		.loc 1 54 32 is_stmt 0 view .LVU51
 180 0060 6378     		ldrb	r3, [r4, #1]	@ zero_extendqisi2
 181              		.loc 1 54 20 view .LVU52
 182 0062 022B     		cmp	r3, #2
 183 0064 19D0     		beq	.L14
 184              	.L9:
 185              		.loc 1 54 67 discriminator 3 view .LVU53
 186 0066 042B     		cmp	r3, #4
 187 0068 05D0     		beq	.L11
  55:App/Src/task.c ****                     ((g_realTime.mon == 4 || g_realTime.mon == 6 || g_realTime.mon == 9 || g_realTi
 188              		.loc 1 55 43 view .LVU54
 189 006a 062B     		cmp	r3, #6
 190 006c 03D0     		beq	.L11
 191              		.loc 1 55 66 discriminator 2 view .LVU55
 192 006e 092B     		cmp	r3, #9
 193 0070 01D0     		beq	.L11
 194              		.loc 1 55 89 discriminator 4 view .LVU56
 195 0072 0B2B     		cmp	r3, #11
 196 0074 01D1     		bne	.L12
 197              	.L11:
 198              		.loc 1 55 114 discriminator 5 view .LVU57
 199 0076 1E2A     		cmp	r2, #30
 200 0078 01D8     		bhi	.L10
 201              	.L12:
  56:App/Src/task.c ****                     || g_realTime.day >= 32) {//不考虑闰年了，每小时会有信息校正过来
 202              		.loc 1 56 21 view .LVU58
 203 007a 1F2A     		cmp	r2, #31
 204 007c 0CD9     		bls	.L7
 205              	.L10:
  57:App/Src/task.c ****                     g_realTime.mon++;
 206              		.loc 1 57 21 is_stmt 1 view .LVU59
 207              		.loc 1 57 35 is_stmt 0 view .LVU60
 208 007e 0133     		adds	r3, r3, #1
 209 0080 DBB2     		uxtb	r3, r3
 210 0082 084A     		ldr	r2, .L15+4
 211 0084 5370     		strb	r3, [r2, #1]
  58:App/Src/task.c ****                     g_realTime.day = 1;
 212              		.loc 1 58 21 is_stmt 1 view .LVU61
 213              		.loc 1 58 36 is_stmt 0 view .LVU62
 214 0086 0121     		movs	r1, #1
 215 0088 9170     		strb	r1, [r2, #2]
  59:App/Src/task.c ****                     if (g_realTime.mon >= 13) {
 216              		.loc 1 59 21 is_stmt 1 view .LVU63
 217              		.loc 1 59 24 is_stmt 0 view .LVU64
 218 008a 0C2B     		cmp	r3, #12
 219 008c 04D9     		bls	.L7
  60:App/Src/task.c ****                         g_realTime.mon = 1;
 220              		.loc 1 60 25 is_stmt 1 view .LVU65
 221              		.loc 1 60 40 is_stmt 0 view .LVU66
 222 008e 1346     		mov	r3, r2
 223 0090 5170     		strb	r1, [r2, #1]
  61:App/Src/task.c ****                         g_realTime.year++;
ARM GAS  C:\Users\86158\AppData\Local\Temp\cc7PXljM.s 			page 6


 224              		.loc 1 61 25 is_stmt 1 view .LVU67
 225              		.loc 1 61 35 is_stmt 0 view .LVU68
 226 0092 1278     		ldrb	r2, [r2]	@ zero_extendqisi2
 227              		.loc 1 61 40 view .LVU69
 228 0094 0A44     		add	r2, r2, r1
 229 0096 1A70     		strb	r2, [r3]
 230              	.L7:
  62:App/Src/task.c ****                     }
  63:App/Src/task.c ****                 }
  64:App/Src/task.c ****             }
  65:App/Src/task.c ****         }
  66:App/Src/task.c ****     }
  67:App/Src/task.c **** }
 231              		.loc 1 67 1 view .LVU70
 232 0098 38BD     		pop	{r3, r4, r5, pc}
 233              	.L14:
  54:App/Src/task.c ****                     ((g_realTime.mon == 4 || g_realTime.mon == 6 || g_realTime.mon == 9 || g_realTi
 234              		.loc 1 54 42 discriminator 1 view .LVU71
 235 009a 1C2A     		cmp	r2, #28
 236 009c EFD8     		bhi	.L10
 237 009e E2E7     		b	.L9
 238              	.L16:
 239              		.align	2
 240              	.L15:
 241 00a0 00000000 		.word	.LANCHOR1
 242 00a4 00000000 		.word	.LANCHOR2
 243              		.cfi_endproc
 244              	.LFE236:
 246              		.section	.rodata.system_set_real_time.str1.4,"aMS",%progbits,1
 247              		.align	2
 248              	.LC1:
 249 0000 0A636F6D 		.ascii	"\012command set time, 20%d/%d/%d %d:%d:%d\012\000"
 249      6D616E64 
 249      20736574 
 249      2074696D 
 249      652C2032 
 250              		.section	.text.system_set_real_time,"ax",%progbits
 251              		.align	1
 252              		.global	system_set_real_time
 253              		.syntax unified
 254              		.thumb
 255              		.thumb_func
 257              	system_set_real_time:
 258              	.LFB237:
  68:App/Src/task.c **** 
  69:App/Src/task.c **** void system_set_real_time(RealTime time)
  70:App/Src/task.c **** {
 259              		.loc 1 70 1 is_stmt 1 view -0
 260              		.cfi_startproc
 261              		@ args = 0, pretend = 0, frame = 8
 262              		@ frame_needed = 0, uses_anonymous_args = 0
 263 0000 70B5     		push	{r4, r5, r6, lr}
 264              	.LCFI2:
 265              		.cfi_def_cfa_offset 16
 266              		.cfi_offset 4, -16
 267              		.cfi_offset 5, -12
 268              		.cfi_offset 6, -8
ARM GAS  C:\Users\86158\AppData\Local\Temp\cc7PXljM.s 			page 7


 269              		.cfi_offset 14, -4
 270 0002 86B0     		sub	sp, sp, #24
 271              	.LCFI3:
 272              		.cfi_def_cfa_offset 40
 273 0004 06AB     		add	r3, sp, #24
 274 0006 03E90300 		stmdb	r3, {r0, r1}
  71:App/Src/task.c ****     g_realTime.tick = 0;
 275              		.loc 1 71 5 view .LVU73
 276              		.loc 1 71 21 is_stmt 0 view .LVU74
 277 000a 0E48     		ldr	r0, .L19
 278 000c 0023     		movs	r3, #0
 279 000e C380     		strh	r3, [r0, #6]	@ movhi
  72:App/Src/task.c ****     g_realTime.sec = time.sec;
 280              		.loc 1 72 5 is_stmt 1 view .LVU75
 281              		.loc 1 72 26 is_stmt 0 view .LVU76
 282 0010 9DF81560 		ldrb	r6, [sp, #21]	@ zero_extendqisi2
 283              		.loc 1 72 20 view .LVU77
 284 0014 4671     		strb	r6, [r0, #5]
  73:App/Src/task.c ****     g_realTime.min = time.min;
 285              		.loc 1 73 5 is_stmt 1 view .LVU78
 286              		.loc 1 73 26 is_stmt 0 view .LVU79
 287 0016 9DF81450 		ldrb	r5, [sp, #20]	@ zero_extendqisi2
 288              		.loc 1 73 20 view .LVU80
 289 001a 0571     		strb	r5, [r0, #4]
  74:App/Src/task.c ****     g_realTime.hour = time.hour;
 290              		.loc 1 74 5 is_stmt 1 view .LVU81
 291              		.loc 1 74 27 is_stmt 0 view .LVU82
 292 001c 9DF81340 		ldrb	r4, [sp, #19]	@ zero_extendqisi2
 293              		.loc 1 74 21 view .LVU83
 294 0020 C470     		strb	r4, [r0, #3]
  75:App/Src/task.c ****     g_realTime.day = time.day;
 295              		.loc 1 75 5 is_stmt 1 view .LVU84
 296              		.loc 1 75 26 is_stmt 0 view .LVU85
 297 0022 9DF81230 		ldrb	r3, [sp, #18]	@ zero_extendqisi2
 298              		.loc 1 75 20 view .LVU86
 299 0026 8370     		strb	r3, [r0, #2]
  76:App/Src/task.c ****     g_realTime.mon = time.mon;
 300              		.loc 1 76 5 is_stmt 1 view .LVU87
 301              		.loc 1 76 26 is_stmt 0 view .LVU88
 302 0028 9DF81120 		ldrb	r2, [sp, #17]	@ zero_extendqisi2
 303              		.loc 1 76 20 view .LVU89
 304 002c 4270     		strb	r2, [r0, #1]
  77:App/Src/task.c ****     g_realTime.year = time.year;
 305              		.loc 1 77 5 is_stmt 1 view .LVU90
 306              		.loc 1 77 27 is_stmt 0 view .LVU91
 307 002e 9DF81010 		ldrb	r1, [sp, #16]	@ zero_extendqisi2
 308              		.loc 1 77 21 view .LVU92
 309 0032 0170     		strb	r1, [r0]
  78:App/Src/task.c **** 	log_printf("\ncommand set time, 20%d/%d/%d %d:%d:%d\n", 
 310              		.loc 1 78 2 is_stmt 1 view .LVU93
 311 0034 0296     		str	r6, [sp, #8]
 312 0036 0195     		str	r5, [sp, #4]
 313 0038 0094     		str	r4, [sp]
 314 003a 0348     		ldr	r0, .L19+4
 315 003c FFF7FEFF 		bl	log_printf
 316              	.LVL5:
  79:App/Src/task.c ****     g_realTime.year, g_realTime.mon, g_realTime.day, g_realTime.hour, g_realTime.min, g_realTime.se
ARM GAS  C:\Users\86158\AppData\Local\Temp\cc7PXljM.s 			page 8


  80:App/Src/task.c **** }
 317              		.loc 1 80 1 is_stmt 0 view .LVU94
 318 0040 06B0     		add	sp, sp, #24
 319              	.LCFI4:
 320              		.cfi_def_cfa_offset 16
 321              		@ sp needed
 322 0042 70BD     		pop	{r4, r5, r6, pc}
 323              	.L20:
 324              		.align	2
 325              	.L19:
 326 0044 00000000 		.word	.LANCHOR2
 327 0048 00000000 		.word	.LC1
 328              		.cfi_endproc
 329              	.LFE237:
 331              		.section	.text.system_get_real_time,"ax",%progbits
 332              		.align	1
 333              		.global	system_get_real_time
 334              		.syntax unified
 335              		.thumb
 336              		.thumb_func
 338              	system_get_real_time:
 339              	.LVL6:
 340              	.LFB238:
  81:App/Src/task.c **** 
  82:App/Src/task.c **** void system_get_real_time(RealTime* time)
  83:App/Src/task.c **** {
 341              		.loc 1 83 1 is_stmt 1 view -0
 342              		.cfi_startproc
 343              		@ args = 0, pretend = 0, frame = 0
 344              		@ frame_needed = 0, uses_anonymous_args = 0
 345              		@ link register save eliminated.
  84:App/Src/task.c ****     time->sec = g_realTime.sec;
 346              		.loc 1 84 5 view .LVU96
 347              		.loc 1 84 27 is_stmt 0 view .LVU97
 348 0000 064B     		ldr	r3, .L22
 349 0002 5A79     		ldrb	r2, [r3, #5]	@ zero_extendqisi2
 350              		.loc 1 84 15 view .LVU98
 351 0004 4271     		strb	r2, [r0, #5]
  85:App/Src/task.c ****     time->min = g_realTime.min;
 352              		.loc 1 85 5 is_stmt 1 view .LVU99
 353              		.loc 1 85 27 is_stmt 0 view .LVU100
 354 0006 1A79     		ldrb	r2, [r3, #4]	@ zero_extendqisi2
 355              		.loc 1 85 15 view .LVU101
 356 0008 0271     		strb	r2, [r0, #4]
  86:App/Src/task.c ****     time->hour = g_realTime.hour;
 357              		.loc 1 86 5 is_stmt 1 view .LVU102
 358              		.loc 1 86 28 is_stmt 0 view .LVU103
 359 000a DA78     		ldrb	r2, [r3, #3]	@ zero_extendqisi2
 360              		.loc 1 86 16 view .LVU104
 361 000c C270     		strb	r2, [r0, #3]
  87:App/Src/task.c ****     time->day = g_realTime.day;
 362              		.loc 1 87 5 is_stmt 1 view .LVU105
 363              		.loc 1 87 27 is_stmt 0 view .LVU106
 364 000e 9A78     		ldrb	r2, [r3, #2]	@ zero_extendqisi2
 365              		.loc 1 87 15 view .LVU107
 366 0010 8270     		strb	r2, [r0, #2]
  88:App/Src/task.c ****     time->mon = g_realTime.mon;
ARM GAS  C:\Users\86158\AppData\Local\Temp\cc7PXljM.s 			page 9


 367              		.loc 1 88 5 is_stmt 1 view .LVU108
 368              		.loc 1 88 27 is_stmt 0 view .LVU109
 369 0012 5A78     		ldrb	r2, [r3, #1]	@ zero_extendqisi2
 370              		.loc 1 88 15 view .LVU110
 371 0014 4270     		strb	r2, [r0, #1]
  89:App/Src/task.c ****     time->year = g_realTime.year;
 372              		.loc 1 89 5 is_stmt 1 view .LVU111
 373              		.loc 1 89 28 is_stmt 0 view .LVU112
 374 0016 1B78     		ldrb	r3, [r3]	@ zero_extendqisi2
 375              		.loc 1 89 16 view .LVU113
 376 0018 0370     		strb	r3, [r0]
  90:App/Src/task.c **** }
 377              		.loc 1 90 1 view .LVU114
 378 001a 7047     		bx	lr
 379              	.L23:
 380              		.align	2
 381              	.L22:
 382 001c 00000000 		.word	.LANCHOR2
 383              		.cfi_endproc
 384              	.LFE238:
 386              		.section	.rodata.command_int_test.str1.4,"aMS",%progbits,1
 387              		.align	2
 388              	.LC3:
 389 0000 63686970 		.ascii	"chip%d test 64Hz\012\000"
 389      25642074 
 389      65737420 
 389      3634487A 
 389      0A00
 390              		.global	__aeabi_f2d
 391 0012 0000     		.align	2
 392              	.LC4:
 393 0014 63686970 		.ascii	"chip%d temp:%.0f, system temp = %.1fC\012\000"
 393      25642074 
 393      656D703A 
 393      252E3066 
 393      2C207379 
 394 003b 00       		.align	2
 395              	.LC5:
 396 003c 3A4D4541 		.ascii	":MEAS?\012\000"
 396      533F0A00 
 397              		.global	__aeabi_dmul
 398              		.global	__aeabi_dsub
 399              		.global	__aeabi_d2f
 400              		.align	2
 401              	.LC6:
 402 0044 66726571 		.ascii	"freq:%fHz,ppm:%.2f\012\000"
 402      3A256648 
 402      7A2C7070 
 402      6D3A252E 
 402      32660A00 
 403              		.align	2
 404              	.LC7:
 405 0058 64657669 		.ascii	"device no respose!\012\000"
 405      6365206E 
 405      6F207265 
 405      73706F73 
 405      65210A00 
ARM GAS  C:\Users\86158\AppData\Local\Temp\cc7PXljM.s 			page 10


 406              		.section	.text.command_int_test,"ax",%progbits
 407              		.align	1
 408              		.global	command_int_test
 409              		.syntax unified
 410              		.thumb
 411              		.thumb_func
 413              	command_int_test:
 414              	.LVL7:
 415              	.LFB241:
  91:App/Src/task.c **** 
  92:App/Src/task.c **** void system_manage(void)
  93:App/Src/task.c **** {
  94:App/Src/task.c ****     static uint32_t systemTick = 0;
  95:App/Src/task.c **** 
  96:App/Src/task.c ****     systemTick++;
  97:App/Src/task.c ****     if (systemTick % 100 == 0) {
  98:App/Src/task.c ****         LedHeart();
  99:App/Src/task.c ****     }
 100:App/Src/task.c ****     if (systemTick % 100 == 0) {
 101:App/Src/task.c ****         rtc_freq_test(FREQ_TEST_DEFAULT);
 102:App/Src/task.c ****     }
 103:App/Src/task.c ****     if (systemTick % 20 == 0) {
 104:App/Src/task.c ****         system_manage_test_mode();
 105:App/Src/task.c ****     }
 106:App/Src/task.c ****     if (systemTick % 200 == 0) {//系统本地走时
 107:App/Src/task.c ****         system_time_update();
 108:App/Src/task.c ****     }
 109:App/Src/task.c ****     if (systemTick % 50 == 0 && g_intState) {//临时命令
 110:App/Src/task.c ****             command_int_test(1);
 111:App/Src/task.c ****     }
 112:App/Src/task.c ****     if (systemTick % 50 == 0 && g_aecq100Start) {//临时命令
 113:App/Src/task.c ****             Aecq100Sample();
 114:App/Src/task.c ****     }
 115:App/Src/task.c ****     if (systemTick % 4000 == 0) {
 116:App/Src/task.c **** 	    ControlPrintf("temp:%.1f connect OK\n", temp_read_value(1));
 117:App/Src/task.c ****     }
 118:App/Src/task.c **** }
 119:App/Src/task.c **** 
 120:App/Src/task.c **** void set_int_test(uint8_t state, uint8_t start, uint8_t end)
 121:App/Src/task.c **** {
 122:App/Src/task.c ****     if (state == 0) {
 123:App/Src/task.c ****         g_intState = 0;
 124:App/Src/task.c ****         g_intStart = 0;
 125:App/Src/task.c ****         g_intEnd = 0;
 126:App/Src/task.c ****         command_int_test(0);
 127:App/Src/task.c ****     } else {
 128:App/Src/task.c ****         if (start <= end) {
 129:App/Src/task.c ****             g_intState = 1;
 130:App/Src/task.c ****             g_intStart = start;
 131:App/Src/task.c ****             g_intEnd = end;
 132:App/Src/task.c ****             command_int_test(0);
 133:App/Src/task.c ****         }
 134:App/Src/task.c ****     }
 135:App/Src/task.c **** }
 136:App/Src/task.c **** 
 137:App/Src/task.c **** void command_int_test(uint8_t init)
 138:App/Src/task.c **** {
ARM GAS  C:\Users\86158\AppData\Local\Temp\cc7PXljM.s 			page 11


 416              		.loc 1 138 1 is_stmt 1 view -0
 417              		.cfi_startproc
 418              		@ args = 0, pretend = 0, frame = 8
 419              		@ frame_needed = 0, uses_anonymous_args = 0
 420              		.loc 1 138 1 is_stmt 0 view .LVU116
 421 0000 F0B5     		push	{r4, r5, r6, r7, lr}
 422              	.LCFI5:
 423              		.cfi_def_cfa_offset 20
 424              		.cfi_offset 4, -20
 425              		.cfi_offset 5, -16
 426              		.cfi_offset 6, -12
 427              		.cfi_offset 7, -8
 428              		.cfi_offset 14, -4
 429 0002 2DED028B 		vpush.64	{d8}
 430              	.LCFI6:
 431              		.cfi_def_cfa_offset 28
 432              		.cfi_offset 80, -28
 433              		.cfi_offset 81, -24
 434 0006 85B0     		sub	sp, sp, #20
 435              	.LCFI7:
 436              		.cfi_def_cfa_offset 48
 437 0008 0246     		mov	r2, r0
 139:App/Src/task.c ****     static uint8_t testStep = 0;
 438              		.loc 1 139 5 is_stmt 1 view .LVU117
 140:App/Src/task.c ****     static uint8_t testNumber = 0;
 439              		.loc 1 140 5 view .LVU118
 141:App/Src/task.c ****     uint8_t buf;
 440              		.loc 1 141 5 view .LVU119
 142:App/Src/task.c ****     static uint32_t lastTick = 0;
 441              		.loc 1 142 5 view .LVU120
 143:App/Src/task.c ****     float ppm;
 442              		.loc 1 143 5 view .LVU121
 144:App/Src/task.c ****     float temp;
 443              		.loc 1 144 5 view .LVU122
 145:App/Src/task.c **** 	uint8_t config[5] = {0x01, 0x00, 0x11, 0x00, 0x10};
 444              		.loc 1 145 2 view .LVU123
 445              		.loc 1 145 10 is_stmt 0 view .LVU124
 446 000a 774B     		ldr	r3, .L42+8
 447 000c 93E80300 		ldm	r3, {r0, r1}
 448              	.LVL8:
 449              		.loc 1 145 10 view .LVU125
 450 0010 0290     		str	r0, [sp, #8]
 451 0012 8DF80C10 		strb	r1, [sp, #12]
 146:App/Src/task.c **** 
 147:App/Src/task.c ****     if (init == 0) {
 452              		.loc 1 147 5 is_stmt 1 view .LVU126
 453              		.loc 1 147 8 is_stmt 0 view .LVU127
 454 0016 42B1     		cbz	r2, .L40
 148:App/Src/task.c ****         testStep = 0;
 149:App/Src/task.c ****         buf = 0x00;
 150:App/Src/task.c ****         spi_write_multi_bytes(0x0f, &buf, 1);//关闭之前开启频率输出
 151:App/Src/task.c ****         return;
 152:App/Src/task.c ****     }
 153:App/Src/task.c **** 
 154:App/Src/task.c ****     switch (testStep) {
 455              		.loc 1 154 5 is_stmt 1 view .LVU128
 456 0018 744B     		ldr	r3, .L42+12
ARM GAS  C:\Users\86158\AppData\Local\Temp\cc7PXljM.s 			page 12


 457 001a 1B78     		ldrb	r3, [r3]	@ zero_extendqisi2
 458 001c 052B     		cmp	r3, #5
 459 001e 0FD8     		bhi	.L24
 460 0020 DFE803F0 		tbb	[pc, r3]
 461              	.L29:
 462 0024 12       		.byte	(.L34-.L29)/2
 463 0025 19       		.byte	(.L33-.L29)/2
 464 0026 3B       		.byte	(.L32-.L29)/2
 465 0027 49       		.byte	(.L31-.L29)/2
 466 0028 7E       		.byte	(.L30-.L29)/2
 467 0029 92       		.byte	(.L28-.L29)/2
 468              		.p2align 1
 469              	.L40:
 148:App/Src/task.c ****         testStep = 0;
 470              		.loc 1 148 9 view .LVU129
 148:App/Src/task.c ****         testStep = 0;
 471              		.loc 1 148 18 is_stmt 0 view .LVU130
 472 002a 0023     		movs	r3, #0
 473 002c 6F4A     		ldr	r2, .L42+12
 474 002e 1370     		strb	r3, [r2]
 149:App/Src/task.c ****         spi_write_multi_bytes(0x0f, &buf, 1);//关闭之前开启频率输出
 475              		.loc 1 149 9 is_stmt 1 view .LVU131
 149:App/Src/task.c ****         spi_write_multi_bytes(0x0f, &buf, 1);//关闭之前开启频率输出
 476              		.loc 1 149 13 is_stmt 0 view .LVU132
 477 0030 8DF80F30 		strb	r3, [sp, #15]
 150:App/Src/task.c ****         return;
 478              		.loc 1 150 9 is_stmt 1 view .LVU133
 479 0034 0122     		movs	r2, #1
 480 0036 0DF10F01 		add	r1, sp, #15
 481 003a 0F20     		movs	r0, #15
 482 003c FFF7FEFF 		bl	spi_write_multi_bytes
 483              	.LVL9:
 151:App/Src/task.c ****     }
 484              		.loc 1 151 9 view .LVU134
 485              	.L24:
 155:App/Src/task.c ****         case 0:
 156:App/Src/task.c ****             testNumber = 0;
 157:App/Src/task.c ****             testStep++;
 158:App/Src/task.c ****         break;
 159:App/Src/task.c ****         case 1:
 160:App/Src/task.c ****             if (testNumber < g_intStart || testNumber >= g_intEnd) {//配置测试的芯片编号
 161:App/Src/task.c ****                 testNumber = g_intStart;
 162:App/Src/task.c ****             } else {
 163:App/Src/task.c ****                 testNumber++;
 164:App/Src/task.c ****             }
 165:App/Src/task.c **** 			UsbPrintf("chip%d test 64Hz\n", testNumber);
 166:App/Src/task.c **** 			rtc_group_power(testNumber, POWER_I2C);
 167:App/Src/task.c **** 			rtc_set_channel(testNumber, RTC_SD8840);
 168:App/Src/task.c ****             testStep++;
 169:App/Src/task.c ****         break;
 170:App/Src/task.c ****         case 2:
 171:App/Src/task.c **** 			buf = 0x10;
 172:App/Src/task.c **** 			spi_write_multi_bytes(0x57, &buf, 1);
 173:App/Src/task.c ****             testStep++;
 174:App/Src/task.c ****         break;
 175:App/Src/task.c ****         case 3:
 176:App/Src/task.c **** 			buf = 0;
ARM GAS  C:\Users\86158\AppData\Local\Temp\cc7PXljM.s 			page 13


 177:App/Src/task.c **** 			spi_read_multi_bytes(0x56, &buf, 1);
 178:App/Src/task.c **** 			temp = buf;
 179:App/Src/task.c **** 			UsbPrintf("chip%d temp:%.0f, system temp = %.1fC\n", testNumber, temp, temp_read_value(1));
 180:App/Src/task.c **** 			spi_write_multi_bytes(0x0B, config, 5);//开启输出
 181:App/Src/task.c ****             lastTick = HAL_GetTick();
 182:App/Src/task.c ****             testStep++;
 183:App/Src/task.c ****         break;
 184:App/Src/task.c ****         case 4:
 185:App/Src/task.c ****             if (HAL_GetTick() > lastTick + 500) {
 186:App/Src/task.c **** 			    DevicePrintf(":MEAS?\n");
 187:App/Src/task.c ****                 lastTick = HAL_GetTick();
 188:App/Src/task.c ****                 testStep++;
 189:App/Src/task.c ****             }
 190:App/Src/task.c ****         break;
 191:App/Src/task.c ****         case 5:
 192:App/Src/task.c ****             if (g_lastFreq.recordTime > lastTick) {
 193:App/Src/task.c ****                 ppm = (g_lastFreq.freq / 64.0 - 1.0) * 1000000;
 194:App/Src/task.c ****                 UsbPrintf("freq:%fHz,ppm:%.2f\n", g_lastFreq.freq , ppm);
 195:App/Src/task.c ****                 buf = 0x00;
 196:App/Src/task.c ****                 spi_write_multi_bytes(0x0f, &buf, 1);
 197:App/Src/task.c ****                 testStep = 1;
 198:App/Src/task.c ****             }
 199:App/Src/task.c **** 			if (HAL_GetTick() >= lastTick + 3000) {
 200:App/Src/task.c **** 				UsbPrintf("device no respose!\n");
 201:App/Src/task.c ****                 buf = 0x00;
 202:App/Src/task.c ****                 spi_write_multi_bytes(0x0f, &buf, 1);
 203:App/Src/task.c ****                 testStep = 1;
 204:App/Src/task.c **** 			}
 205:App/Src/task.c ****         break;
 206:App/Src/task.c ****         default:break;
 207:App/Src/task.c ****     }
 208:App/Src/task.c **** }
 486              		.loc 1 208 1 is_stmt 0 view .LVU135
 487 0040 05B0     		add	sp, sp, #20
 488              	.LCFI8:
 489              		.cfi_remember_state
 490              		.cfi_def_cfa_offset 28
 491              		@ sp needed
 492 0042 BDEC028B 		vldm	sp!, {d8}
 493              	.LCFI9:
 494              		.cfi_restore 80
 495              		.cfi_restore 81
 496              		.cfi_def_cfa_offset 20
 497 0046 F0BD     		pop	{r4, r5, r6, r7, pc}
 498              	.L34:
 499              	.LCFI10:
 500              		.cfi_restore_state
 156:App/Src/task.c ****             testStep++;
 501              		.loc 1 156 13 is_stmt 1 view .LVU136
 156:App/Src/task.c ****             testStep++;
 502              		.loc 1 156 24 is_stmt 0 view .LVU137
 503 0048 694A     		ldr	r2, .L42+16
 504 004a 0021     		movs	r1, #0
 505 004c 1170     		strb	r1, [r2]
 157:App/Src/task.c ****         break;
 506              		.loc 1 157 13 is_stmt 1 view .LVU138
 157:App/Src/task.c ****         break;
ARM GAS  C:\Users\86158\AppData\Local\Temp\cc7PXljM.s 			page 14


 507              		.loc 1 157 21 is_stmt 0 view .LVU139
 508 004e 0133     		adds	r3, r3, #1
 509 0050 664A     		ldr	r2, .L42+12
 510 0052 1370     		strb	r3, [r2]
 158:App/Src/task.c ****         case 1:
 511              		.loc 1 158 9 is_stmt 1 view .LVU140
 512 0054 F4E7     		b	.L24
 513              	.L33:
 160:App/Src/task.c ****                 testNumber = g_intStart;
 514              		.loc 1 160 13 view .LVU141
 160:App/Src/task.c ****                 testNumber = g_intStart;
 515              		.loc 1 160 28 is_stmt 0 view .LVU142
 516 0056 664B     		ldr	r3, .L42+16
 517 0058 1B78     		ldrb	r3, [r3]	@ zero_extendqisi2
 518 005a 664A     		ldr	r2, .L42+20
 519 005c 1278     		ldrb	r2, [r2]	@ zero_extendqisi2
 160:App/Src/task.c ****                 testNumber = g_intStart;
 520              		.loc 1 160 16 view .LVU143
 521 005e 9342     		cmp	r3, r2
 522 0060 03D3     		bcc	.L35
 160:App/Src/task.c ****                 testNumber = g_intStart;
 523              		.loc 1 160 55 discriminator 1 view .LVU144
 524 0062 6549     		ldr	r1, .L42+24
 525 0064 0978     		ldrb	r1, [r1]	@ zero_extendqisi2
 160:App/Src/task.c ****                 testNumber = g_intStart;
 526              		.loc 1 160 41 discriminator 1 view .LVU145
 527 0066 8B42     		cmp	r3, r1
 528 0068 13D3     		bcc	.L36
 529              	.L35:
 161:App/Src/task.c ****             } else {
 530              		.loc 1 161 17 is_stmt 1 view .LVU146
 161:App/Src/task.c ****             } else {
 531              		.loc 1 161 28 is_stmt 0 view .LVU147
 532 006a 614B     		ldr	r3, .L42+16
 533 006c 1A70     		strb	r2, [r3]
 534              	.L37:
 165:App/Src/task.c **** 			rtc_group_power(testNumber, POWER_I2C);
 535              		.loc 1 165 4 is_stmt 1 view .LVU148
 536 006e 604C     		ldr	r4, .L42+16
 537 0070 2178     		ldrb	r1, [r4]	@ zero_extendqisi2
 538 0072 6248     		ldr	r0, .L42+28
 539 0074 FFF7FEFF 		bl	UsbPrintf
 540              	.LVL10:
 166:App/Src/task.c **** 			rtc_set_channel(testNumber, RTC_SD8840);
 541              		.loc 1 166 4 view .LVU149
 542 0078 0121     		movs	r1, #1
 543 007a 2078     		ldrb	r0, [r4]	@ zero_extendqisi2
 544 007c FFF7FEFF 		bl	rtc_group_power
 545              	.LVL11:
 167:App/Src/task.c ****             testStep++;
 546              		.loc 1 167 4 view .LVU150
 547 0080 0321     		movs	r1, #3
 548 0082 2078     		ldrb	r0, [r4]	@ zero_extendqisi2
 549 0084 FFF7FEFF 		bl	rtc_set_channel
 550              	.LVL12:
 168:App/Src/task.c ****         break;
 551              		.loc 1 168 13 view .LVU151
ARM GAS  C:\Users\86158\AppData\Local\Temp\cc7PXljM.s 			page 15


 168:App/Src/task.c ****         break;
 552              		.loc 1 168 21 is_stmt 0 view .LVU152
 553 0088 584A     		ldr	r2, .L42+12
 554 008a 1378     		ldrb	r3, [r2]	@ zero_extendqisi2
 555 008c 0133     		adds	r3, r3, #1
 556 008e 1370     		strb	r3, [r2]
 169:App/Src/task.c ****         case 2:
 557              		.loc 1 169 9 is_stmt 1 view .LVU153
 558 0090 D6E7     		b	.L24
 559              	.L36:
 163:App/Src/task.c ****             }
 560              		.loc 1 163 17 view .LVU154
 163:App/Src/task.c ****             }
 561              		.loc 1 163 27 is_stmt 0 view .LVU155
 562 0092 0133     		adds	r3, r3, #1
 563 0094 564A     		ldr	r2, .L42+16
 564 0096 1370     		strb	r3, [r2]
 565 0098 E9E7     		b	.L37
 566              	.L32:
 171:App/Src/task.c **** 			spi_write_multi_bytes(0x57, &buf, 1);
 567              		.loc 1 171 4 is_stmt 1 view .LVU156
 171:App/Src/task.c **** 			spi_write_multi_bytes(0x57, &buf, 1);
 568              		.loc 1 171 8 is_stmt 0 view .LVU157
 569 009a 1023     		movs	r3, #16
 570 009c 8DF80F30 		strb	r3, [sp, #15]
 172:App/Src/task.c ****             testStep++;
 571              		.loc 1 172 4 is_stmt 1 view .LVU158
 572 00a0 0122     		movs	r2, #1
 573 00a2 0DF10F01 		add	r1, sp, #15
 574 00a6 5720     		movs	r0, #87
 575 00a8 FFF7FEFF 		bl	spi_write_multi_bytes
 576              	.LVL13:
 173:App/Src/task.c ****         break;
 577              		.loc 1 173 13 view .LVU159
 173:App/Src/task.c ****         break;
 578              		.loc 1 173 21 is_stmt 0 view .LVU160
 579 00ac 4F4A     		ldr	r2, .L42+12
 580 00ae 1378     		ldrb	r3, [r2]	@ zero_extendqisi2
 581 00b0 0133     		adds	r3, r3, #1
 582 00b2 1370     		strb	r3, [r2]
 174:App/Src/task.c ****         case 3:
 583              		.loc 1 174 9 is_stmt 1 view .LVU161
 584 00b4 C4E7     		b	.L24
 585              	.L31:
 176:App/Src/task.c **** 			spi_read_multi_bytes(0x56, &buf, 1);
 586              		.loc 1 176 4 view .LVU162
 176:App/Src/task.c **** 			spi_read_multi_bytes(0x56, &buf, 1);
 587              		.loc 1 176 8 is_stmt 0 view .LVU163
 588 00b6 0023     		movs	r3, #0
 589 00b8 8DF80F30 		strb	r3, [sp, #15]
 177:App/Src/task.c **** 			temp = buf;
 590              		.loc 1 177 4 is_stmt 1 view .LVU164
 591 00bc 0122     		movs	r2, #1
 592 00be 0DF10F01 		add	r1, sp, #15
 593 00c2 5620     		movs	r0, #86
 594 00c4 FFF7FEFF 		bl	spi_read_multi_bytes
 595              	.LVL14:
ARM GAS  C:\Users\86158\AppData\Local\Temp\cc7PXljM.s 			page 16


 178:App/Src/task.c **** 			UsbPrintf("chip%d temp:%.0f, system temp = %.1fC\n", testNumber, temp, temp_read_value(1));
 596              		.loc 1 178 4 view .LVU165
 178:App/Src/task.c **** 			UsbPrintf("chip%d temp:%.0f, system temp = %.1fC\n", testNumber, temp, temp_read_value(1));
 597              		.loc 1 178 9 is_stmt 0 view .LVU166
 598 00c8 9DF80F30 		ldrb	r3, [sp, #15]	@ zero_extendqisi2
 599 00cc 08EE103A 		vmov	s16, r3	@ int
 600 00d0 B8EE488A 		vcvt.f32.u32	s16, s16
 601              	.LVL15:
 179:App/Src/task.c **** 			spi_write_multi_bytes(0x0B, config, 5);//开启输出
 602              		.loc 1 179 4 is_stmt 1 view .LVU167
 603 00d4 464B     		ldr	r3, .L42+16
 604 00d6 1F78     		ldrb	r7, [r3]	@ zero_extendqisi2
 179:App/Src/task.c **** 			spi_write_multi_bytes(0x0B, config, 5);//开启输出
 605              		.loc 1 179 75 is_stmt 0 view .LVU168
 606 00d8 0120     		movs	r0, #1
 607 00da FFF7FEFF 		bl	temp_read_value
 608              	.LVL16:
 609 00de 10EE106A 		vmov	r6, s0
 179:App/Src/task.c **** 			spi_write_multi_bytes(0x0B, config, 5);//开启输出
 610              		.loc 1 179 4 view .LVU169
 611 00e2 18EE100A 		vmov	r0, s16
 612 00e6 FFF7FEFF 		bl	__aeabi_f2d
 613              	.LVL17:
 614 00ea 0446     		mov	r4, r0
 615 00ec 0D46     		mov	r5, r1
 616 00ee 3046     		mov	r0, r6	@ float
 617 00f0 FFF7FEFF 		bl	__aeabi_f2d
 618              	.LVL18:
 619 00f4 CDE90001 		strd	r0, [sp]
 620 00f8 2246     		mov	r2, r4
 621 00fa 2B46     		mov	r3, r5
 622 00fc 3946     		mov	r1, r7
 623 00fe 4048     		ldr	r0, .L42+32
 624 0100 FFF7FEFF 		bl	UsbPrintf
 625              	.LVL19:
 180:App/Src/task.c ****             lastTick = HAL_GetTick();
 626              		.loc 1 180 4 is_stmt 1 view .LVU170
 627 0104 0522     		movs	r2, #5
 628 0106 02A9     		add	r1, sp, #8
 629 0108 0B20     		movs	r0, #11
 630 010a FFF7FEFF 		bl	spi_write_multi_bytes
 631              	.LVL20:
 181:App/Src/task.c ****             testStep++;
 632              		.loc 1 181 13 view .LVU171
 181:App/Src/task.c ****             testStep++;
 633              		.loc 1 181 24 is_stmt 0 view .LVU172
 634 010e FFF7FEFF 		bl	HAL_GetTick
 635              	.LVL21:
 181:App/Src/task.c ****             testStep++;
 636              		.loc 1 181 22 view .LVU173
 637 0112 3C4B     		ldr	r3, .L42+36
 638 0114 1860     		str	r0, [r3]
 182:App/Src/task.c ****         break;
 639              		.loc 1 182 13 is_stmt 1 view .LVU174
 182:App/Src/task.c ****         break;
 640              		.loc 1 182 21 is_stmt 0 view .LVU175
 641 0116 354A     		ldr	r2, .L42+12
ARM GAS  C:\Users\86158\AppData\Local\Temp\cc7PXljM.s 			page 17


 642 0118 1378     		ldrb	r3, [r2]	@ zero_extendqisi2
 643 011a 0133     		adds	r3, r3, #1
 644 011c 1370     		strb	r3, [r2]
 183:App/Src/task.c ****         case 4:
 645              		.loc 1 183 9 is_stmt 1 view .LVU176
 646 011e 8FE7     		b	.L24
 647              	.LVL22:
 648              	.L30:
 185:App/Src/task.c **** 			    DevicePrintf(":MEAS?\n");
 649              		.loc 1 185 13 view .LVU177
 185:App/Src/task.c **** 			    DevicePrintf(":MEAS?\n");
 650              		.loc 1 185 17 is_stmt 0 view .LVU178
 651 0120 FFF7FEFF 		bl	HAL_GetTick
 652              	.LVL23:
 185:App/Src/task.c **** 			    DevicePrintf(":MEAS?\n");
 653              		.loc 1 185 42 view .LVU179
 654 0124 374B     		ldr	r3, .L42+36
 655 0126 1B68     		ldr	r3, [r3]
 656 0128 03F5FA73 		add	r3, r3, #500
 185:App/Src/task.c **** 			    DevicePrintf(":MEAS?\n");
 657              		.loc 1 185 16 view .LVU180
 658 012c 9842     		cmp	r0, r3
 659 012e 87D9     		bls	.L24
 186:App/Src/task.c ****                 lastTick = HAL_GetTick();
 660              		.loc 1 186 8 is_stmt 1 view .LVU181
 661 0130 3548     		ldr	r0, .L42+40
 662 0132 FFF7FEFF 		bl	DevicePrintf
 663              	.LVL24:
 187:App/Src/task.c ****                 testStep++;
 664              		.loc 1 187 17 view .LVU182
 187:App/Src/task.c ****                 testStep++;
 665              		.loc 1 187 28 is_stmt 0 view .LVU183
 666 0136 FFF7FEFF 		bl	HAL_GetTick
 667              	.LVL25:
 187:App/Src/task.c ****                 testStep++;
 668              		.loc 1 187 26 view .LVU184
 669 013a 324B     		ldr	r3, .L42+36
 670 013c 1860     		str	r0, [r3]
 188:App/Src/task.c ****             }
 671              		.loc 1 188 17 is_stmt 1 view .LVU185
 188:App/Src/task.c ****             }
 672              		.loc 1 188 25 is_stmt 0 view .LVU186
 673 013e 2B4A     		ldr	r2, .L42+12
 674 0140 1378     		ldrb	r3, [r2]	@ zero_extendqisi2
 675 0142 0133     		adds	r3, r3, #1
 676 0144 1370     		strb	r3, [r2]
 677 0146 7BE7     		b	.L24
 678              	.L28:
 192:App/Src/task.c ****                 ppm = (g_lastFreq.freq / 64.0 - 1.0) * 1000000;
 679              		.loc 1 192 13 is_stmt 1 view .LVU187
 192:App/Src/task.c ****                 ppm = (g_lastFreq.freq / 64.0 - 1.0) * 1000000;
 680              		.loc 1 192 27 is_stmt 0 view .LVU188
 681 0148 304B     		ldr	r3, .L42+44
 682 014a 1A68     		ldr	r2, [r3]
 192:App/Src/task.c ****                 ppm = (g_lastFreq.freq / 64.0 - 1.0) * 1000000;
 683              		.loc 1 192 39 view .LVU189
 684 014c 2D4B     		ldr	r3, .L42+36
ARM GAS  C:\Users\86158\AppData\Local\Temp\cc7PXljM.s 			page 18


 685 014e 1B68     		ldr	r3, [r3]
 192:App/Src/task.c ****                 ppm = (g_lastFreq.freq / 64.0 - 1.0) * 1000000;
 686              		.loc 1 192 16 view .LVU190
 687 0150 9A42     		cmp	r2, r3
 688 0152 18D8     		bhi	.L41
 689              	.L38:
 199:App/Src/task.c **** 				UsbPrintf("device no respose!\n");
 690              		.loc 1 199 4 is_stmt 1 view .LVU191
 199:App/Src/task.c **** 				UsbPrintf("device no respose!\n");
 691              		.loc 1 199 8 is_stmt 0 view .LVU192
 692 0154 FFF7FEFF 		bl	HAL_GetTick
 693              	.LVL26:
 199:App/Src/task.c **** 				UsbPrintf("device no respose!\n");
 694              		.loc 1 199 34 view .LVU193
 695 0158 2A4B     		ldr	r3, .L42+36
 696 015a 1B68     		ldr	r3, [r3]
 697 015c 03F6B833 		addw	r3, r3, #3000
 199:App/Src/task.c **** 				UsbPrintf("device no respose!\n");
 698              		.loc 1 199 7 view .LVU194
 699 0160 9842     		cmp	r0, r3
 700 0162 FFF46DAF 		bcc	.L24
 200:App/Src/task.c ****                 buf = 0x00;
 701              		.loc 1 200 5 is_stmt 1 view .LVU195
 702 0166 2A48     		ldr	r0, .L42+48
 703 0168 FFF7FEFF 		bl	UsbPrintf
 704              	.LVL27:
 201:App/Src/task.c ****                 spi_write_multi_bytes(0x0f, &buf, 1);
 705              		.loc 1 201 17 view .LVU196
 201:App/Src/task.c ****                 spi_write_multi_bytes(0x0f, &buf, 1);
 706              		.loc 1 201 21 is_stmt 0 view .LVU197
 707 016c 0023     		movs	r3, #0
 708 016e 8DF80F30 		strb	r3, [sp, #15]
 202:App/Src/task.c ****                 testStep = 1;
 709              		.loc 1 202 17 is_stmt 1 view .LVU198
 710 0172 0122     		movs	r2, #1
 711 0174 0DF10F01 		add	r1, sp, #15
 712 0178 0F20     		movs	r0, #15
 713 017a FFF7FEFF 		bl	spi_write_multi_bytes
 714              	.LVL28:
 203:App/Src/task.c **** 			}
 715              		.loc 1 203 17 view .LVU199
 203:App/Src/task.c **** 			}
 716              		.loc 1 203 26 is_stmt 0 view .LVU200
 717 017e 1B4B     		ldr	r3, .L42+12
 718 0180 0122     		movs	r2, #1
 719 0182 1A70     		strb	r2, [r3]
 720 0184 5CE7     		b	.L24
 721              	.L41:
 193:App/Src/task.c ****                 UsbPrintf("freq:%fHz,ppm:%.2f\n", g_lastFreq.freq , ppm);
 722              		.loc 1 193 17 is_stmt 1 view .LVU201
 193:App/Src/task.c ****                 UsbPrintf("freq:%fHz,ppm:%.2f\n", g_lastFreq.freq , ppm);
 723              		.loc 1 193 34 is_stmt 0 view .LVU202
 724 0186 214B     		ldr	r3, .L42+44
 725 0188 5868     		ldr	r0, [r3, #4]	@ float
 726 018a FFF7FEFF 		bl	__aeabi_f2d
 727              	.LVL29:
 728 018e 0446     		mov	r4, r0
ARM GAS  C:\Users\86158\AppData\Local\Temp\cc7PXljM.s 			page 19


 729 0190 0D46     		mov	r5, r1
 193:App/Src/task.c ****                 UsbPrintf("freq:%fHz,ppm:%.2f\n", g_lastFreq.freq , ppm);
 730              		.loc 1 193 40 view .LVU203
 731 0192 0022     		movs	r2, #0
 732 0194 1F4B     		ldr	r3, .L42+52
 733 0196 FFF7FEFF 		bl	__aeabi_dmul
 734              	.LVL30:
 193:App/Src/task.c ****                 UsbPrintf("freq:%fHz,ppm:%.2f\n", g_lastFreq.freq , ppm);
 735              		.loc 1 193 47 view .LVU204
 736 019a 0022     		movs	r2, #0
 737 019c 1E4B     		ldr	r3, .L42+56
 738 019e FFF7FEFF 		bl	__aeabi_dsub
 739              	.LVL31:
 193:App/Src/task.c ****                 UsbPrintf("freq:%fHz,ppm:%.2f\n", g_lastFreq.freq , ppm);
 740              		.loc 1 193 54 view .LVU205
 741 01a2 0FA3     		adr	r3, .L42
 742 01a4 D3E90023 		ldrd	r2, [r3]
 743 01a8 FFF7FEFF 		bl	__aeabi_dmul
 744              	.LVL32:
 193:App/Src/task.c ****                 UsbPrintf("freq:%fHz,ppm:%.2f\n", g_lastFreq.freq , ppm);
 745              		.loc 1 193 21 view .LVU206
 746 01ac FFF7FEFF 		bl	__aeabi_d2f
 747              	.LVL33:
 194:App/Src/task.c ****                 buf = 0x00;
 748              		.loc 1 194 17 is_stmt 1 view .LVU207
 749 01b0 FFF7FEFF 		bl	__aeabi_f2d
 750              	.LVL34:
 194:App/Src/task.c ****                 buf = 0x00;
 751              		.loc 1 194 17 is_stmt 0 view .LVU208
 752 01b4 CDE90001 		strd	r0, [sp]
 753 01b8 2246     		mov	r2, r4
 754 01ba 2B46     		mov	r3, r5
 755 01bc 1748     		ldr	r0, .L42+60
 756 01be FFF7FEFF 		bl	UsbPrintf
 757              	.LVL35:
 195:App/Src/task.c ****                 spi_write_multi_bytes(0x0f, &buf, 1);
 758              		.loc 1 195 17 is_stmt 1 view .LVU209
 195:App/Src/task.c ****                 spi_write_multi_bytes(0x0f, &buf, 1);
 759              		.loc 1 195 21 is_stmt 0 view .LVU210
 760 01c2 0023     		movs	r3, #0
 761 01c4 8DF80F30 		strb	r3, [sp, #15]
 196:App/Src/task.c ****                 testStep = 1;
 762              		.loc 1 196 17 is_stmt 1 view .LVU211
 763 01c8 0122     		movs	r2, #1
 764 01ca 0DF10F01 		add	r1, sp, #15
 765 01ce 0F20     		movs	r0, #15
 766 01d0 FFF7FEFF 		bl	spi_write_multi_bytes
 767              	.LVL36:
 197:App/Src/task.c ****             }
 768              		.loc 1 197 17 view .LVU212
 197:App/Src/task.c ****             }
 769              		.loc 1 197 26 is_stmt 0 view .LVU213
 770 01d4 054B     		ldr	r3, .L42+12
 771 01d6 0122     		movs	r2, #1
 772 01d8 1A70     		strb	r2, [r3]
 773 01da BBE7     		b	.L38
 774              	.L43:
ARM GAS  C:\Users\86158\AppData\Local\Temp\cc7PXljM.s 			page 20


 775 01dc AFF30080 		.align	3
 776              	.L42:
 777 01e0 00000000 		.word	0
 778 01e4 80842E41 		.word	1093567616
 779 01e8 00000000 		.word	.LANCHOR3
 780 01ec 00000000 		.word	.LANCHOR4
 781 01f0 00000000 		.word	.LANCHOR5
 782 01f4 00000000 		.word	.LANCHOR6
 783 01f8 00000000 		.word	.LANCHOR7
 784 01fc 00000000 		.word	.LC3
 785 0200 14000000 		.word	.LC4
 786 0204 00000000 		.word	.LANCHOR8
 787 0208 3C000000 		.word	.LC5
 788 020c 00000000 		.word	.LANCHOR9
 789 0210 58000000 		.word	.LC7
 790 0214 0000903F 		.word	1066401792
 791 0218 0000F03F 		.word	1072693248
 792 021c 44000000 		.word	.LC6
 793              		.cfi_endproc
 794              	.LFE241:
 796              		.section	.text.set_int_test,"ax",%progbits
 797              		.align	1
 798              		.global	set_int_test
 799              		.syntax unified
 800              		.thumb
 801              		.thumb_func
 803              	set_int_test:
 804              	.LVL37:
 805              	.LFB240:
 121:App/Src/task.c ****     if (state == 0) {
 806              		.loc 1 121 1 is_stmt 1 view -0
 807              		.cfi_startproc
 808              		@ args = 0, pretend = 0, frame = 0
 809              		@ frame_needed = 0, uses_anonymous_args = 0
 121:App/Src/task.c ****     if (state == 0) {
 810              		.loc 1 121 1 is_stmt 0 view .LVU215
 811 0000 08B5     		push	{r3, lr}
 812              	.LCFI11:
 813              		.cfi_def_cfa_offset 8
 814              		.cfi_offset 3, -8
 815              		.cfi_offset 14, -4
 122:App/Src/task.c ****         g_intState = 0;
 816              		.loc 1 122 5 is_stmt 1 view .LVU216
 122:App/Src/task.c ****         g_intState = 0;
 817              		.loc 1 122 8 is_stmt 0 view .LVU217
 818 0002 10B1     		cbz	r0, .L48
 128:App/Src/task.c ****             g_intState = 1;
 819              		.loc 1 128 9 is_stmt 1 view .LVU218
 128:App/Src/task.c ****             g_intState = 1;
 820              		.loc 1 128 12 is_stmt 0 view .LVU219
 821 0004 9142     		cmp	r1, r2
 822 0006 09D9     		bls	.L49
 823              	.LVL38:
 824              	.L44:
 135:App/Src/task.c **** 
 825              		.loc 1 135 1 view .LVU220
 826 0008 08BD     		pop	{r3, pc}
ARM GAS  C:\Users\86158\AppData\Local\Temp\cc7PXljM.s 			page 21


 827              	.LVL39:
 828              	.L48:
 123:App/Src/task.c ****         g_intStart = 0;
 829              		.loc 1 123 9 is_stmt 1 view .LVU221
 123:App/Src/task.c ****         g_intStart = 0;
 830              		.loc 1 123 20 is_stmt 0 view .LVU222
 831 000a 0A4B     		ldr	r3, .L50
 832 000c 1870     		strb	r0, [r3]
 124:App/Src/task.c ****         g_intEnd = 0;
 833              		.loc 1 124 9 is_stmt 1 view .LVU223
 124:App/Src/task.c ****         g_intEnd = 0;
 834              		.loc 1 124 20 is_stmt 0 view .LVU224
 835 000e 0A4B     		ldr	r3, .L50+4
 836 0010 1870     		strb	r0, [r3]
 125:App/Src/task.c ****         command_int_test(0);
 837              		.loc 1 125 9 is_stmt 1 view .LVU225
 125:App/Src/task.c ****         command_int_test(0);
 838              		.loc 1 125 18 is_stmt 0 view .LVU226
 839 0012 0A4B     		ldr	r3, .L50+8
 840 0014 1870     		strb	r0, [r3]
 126:App/Src/task.c ****     } else {
 841              		.loc 1 126 9 is_stmt 1 view .LVU227
 842 0016 FFF7FEFF 		bl	command_int_test
 843              	.LVL40:
 126:App/Src/task.c ****     } else {
 844              		.loc 1 126 9 is_stmt 0 view .LVU228
 845 001a F5E7     		b	.L44
 846              	.LVL41:
 847              	.L49:
 129:App/Src/task.c ****             g_intStart = start;
 848              		.loc 1 129 13 is_stmt 1 view .LVU229
 129:App/Src/task.c ****             g_intStart = start;
 849              		.loc 1 129 24 is_stmt 0 view .LVU230
 850 001c 054B     		ldr	r3, .L50
 851 001e 0120     		movs	r0, #1
 852              	.LVL42:
 129:App/Src/task.c ****             g_intStart = start;
 853              		.loc 1 129 24 view .LVU231
 854 0020 1870     		strb	r0, [r3]
 130:App/Src/task.c ****             g_intEnd = end;
 855              		.loc 1 130 13 is_stmt 1 view .LVU232
 130:App/Src/task.c ****             g_intEnd = end;
 856              		.loc 1 130 24 is_stmt 0 view .LVU233
 857 0022 054B     		ldr	r3, .L50+4
 858 0024 1970     		strb	r1, [r3]
 131:App/Src/task.c ****             command_int_test(0);
 859              		.loc 1 131 13 is_stmt 1 view .LVU234
 131:App/Src/task.c ****             command_int_test(0);
 860              		.loc 1 131 22 is_stmt 0 view .LVU235
 861 0026 054B     		ldr	r3, .L50+8
 862 0028 1A70     		strb	r2, [r3]
 132:App/Src/task.c ****         }
 863              		.loc 1 132 13 is_stmt 1 view .LVU236
 864 002a 0020     		movs	r0, #0
 865 002c FFF7FEFF 		bl	command_int_test
 866              	.LVL43:
 135:App/Src/task.c **** 
ARM GAS  C:\Users\86158\AppData\Local\Temp\cc7PXljM.s 			page 22


 867              		.loc 1 135 1 is_stmt 0 view .LVU237
 868 0030 EAE7     		b	.L44
 869              	.L51:
 870 0032 00BF     		.align	2
 871              	.L50:
 872 0034 00000000 		.word	.LANCHOR10
 873 0038 00000000 		.word	.LANCHOR6
 874 003c 00000000 		.word	.LANCHOR7
 875              		.cfi_endproc
 876              	.LFE240:
 878              		.section	.rodata.command_cap_list_test.str1.4,"aMS",%progbits,1
 879              		.align	2
 880              	.LC8:
 881 0000 61646A75 		.ascii	"adjust error\012\000"
 881      73742065 
 881      72726F72 
 881      0A00
 882 000e 0000     		.align	2
 883              	.LC9:
 884 0010 6361705B 		.ascii	"cap[0x%02x,0x%02x] adjust ok\012\000"
 884      30782530 
 884      32782C30 
 884      78253032 
 884      785D2061 
 885              		.section	.text.command_cap_list_test,"ax",%progbits
 886              		.align	1
 887              		.global	command_cap_list_test
 888              		.syntax unified
 889              		.thumb
 890              		.thumb_func
 892              	command_cap_list_test:
 893              	.LVL44:
 894              	.LFB242:
 209:App/Src/task.c **** 
 210:App/Src/task.c **** void command_cap_list_test(uint8_t init, int startNumber)
 211:App/Src/task.c **** {
 895              		.loc 1 211 1 is_stmt 1 view -0
 896              		.cfi_startproc
 897              		@ args = 0, pretend = 0, frame = 8
 898              		@ frame_needed = 0, uses_anonymous_args = 0
 212:App/Src/task.c **** 	uint8_t osc_buf[2];
 899              		.loc 1 212 2 view .LVU239
 213:App/Src/task.c **** 	uint8_t mode  = 3;
 900              		.loc 1 213 2 view .LVU240
 214:App/Src/task.c ****     static uint8_t testStep = 0;
 901              		.loc 1 214 5 view .LVU241
 215:App/Src/task.c **** 	static uint8_t num = 0;
 902              		.loc 1 215 2 view .LVU242
 216:App/Src/task.c ****     float ppm;
 903              		.loc 1 216 5 view .LVU243
 217:App/Src/task.c ****     static float lastPPM = 0;
 904              		.loc 1 217 5 view .LVU244
 218:App/Src/task.c ****     static uint32_t lastTick ;
 905              		.loc 1 218 5 view .LVU245
 219:App/Src/task.c ****     static int capNumber = 0;
 906              		.loc 1 219 5 view .LVU246
 220:App/Src/task.c **** 
ARM GAS  C:\Users\86158\AppData\Local\Temp\cc7PXljM.s 			page 23


 221:App/Src/task.c ****     if (init == 1) {
 907              		.loc 1 221 5 view .LVU247
 908              		.loc 1 221 8 is_stmt 0 view .LVU248
 909 0000 0128     		cmp	r0, #1
 910 0002 0CD0     		beq	.L77
 222:App/Src/task.c ****         g_intState = 1;
 223:App/Src/task.c ****         testStep = 0;
 224:App/Src/task.c ****         capNumber = startNumber - 1;
 225:App/Src/task.c ****         return;
 226:App/Src/task.c ****     } else if (init == 0) {
 911              		.loc 1 226 12 is_stmt 1 view .LVU249
 912              		.loc 1 226 15 is_stmt 0 view .LVU250
 913 0004 A8B1     		cbz	r0, .L78
 211:App/Src/task.c **** 	uint8_t osc_buf[2];
 914              		.loc 1 211 1 view .LVU251
 915 0006 30B5     		push	{r4, r5, lr}
 916              	.LCFI12:
 917              		.cfi_def_cfa_offset 12
 918              		.cfi_offset 4, -12
 919              		.cfi_offset 5, -8
 920              		.cfi_offset 14, -4
 921 0008 2DED028B 		vpush.64	{d8}
 922              	.LCFI13:
 923              		.cfi_def_cfa_offset 20
 924              		.cfi_offset 80, -20
 925              		.cfi_offset 81, -16
 926 000c 85B0     		sub	sp, sp, #20
 927              	.LCFI14:
 928              		.cfi_def_cfa_offset 40
 227:App/Src/task.c ****         g_intState = 0;
 228:App/Src/task.c ****         return;
 229:App/Src/task.c ****     }
 230:App/Src/task.c **** 
 231:App/Src/task.c ****     switch (testStep) {
 929              		.loc 1 231 5 is_stmt 1 view .LVU252
 930 000e 724B     		ldr	r3, .L82+8
 931 0010 1B78     		ldrb	r3, [r3]	@ zero_extendqisi2
 932 0012 032B     		cmp	r3, #3
 933 0014 17D8     		bhi	.L52
 934 0016 DFE803F0 		tbb	[pc, r3]
 935              	.L58:
 936 001a 10       		.byte	(.L61-.L58)/2
 937 001b 1A       		.byte	(.L60-.L58)/2
 938 001c 56       		.byte	(.L59-.L58)/2
 939 001d 6A       		.byte	(.L57-.L58)/2
 940              		.p2align 1
 941              	.L77:
 942              	.LCFI15:
 943              		.cfi_def_cfa_offset 0
 944              		.cfi_restore 4
 945              		.cfi_restore 5
 946              		.cfi_restore 14
 947              		.cfi_restore 80
 948              		.cfi_restore 81
 222:App/Src/task.c ****         testStep = 0;
 949              		.loc 1 222 9 view .LVU253
 222:App/Src/task.c ****         testStep = 0;
ARM GAS  C:\Users\86158\AppData\Local\Temp\cc7PXljM.s 			page 24


 950              		.loc 1 222 20 is_stmt 0 view .LVU254
 951 001e 6F4B     		ldr	r3, .L82+12
 952 0020 0122     		movs	r2, #1
 953 0022 1A70     		strb	r2, [r3]
 223:App/Src/task.c ****         capNumber = startNumber - 1;
 954              		.loc 1 223 9 is_stmt 1 view .LVU255
 223:App/Src/task.c ****         capNumber = startNumber - 1;
 955              		.loc 1 223 18 is_stmt 0 view .LVU256
 956 0024 6C4B     		ldr	r3, .L82+8
 957 0026 0022     		movs	r2, #0
 958 0028 1A70     		strb	r2, [r3]
 224:App/Src/task.c ****         return;
 959              		.loc 1 224 9 is_stmt 1 view .LVU257
 224:App/Src/task.c ****         return;
 960              		.loc 1 224 33 is_stmt 0 view .LVU258
 961 002a 0139     		subs	r1, r1, #1
 962              	.LVL45:
 224:App/Src/task.c ****         return;
 963              		.loc 1 224 19 view .LVU259
 964 002c 6C4B     		ldr	r3, .L82+16
 965 002e 1960     		str	r1, [r3]
 225:App/Src/task.c ****     } else if (init == 0) {
 966              		.loc 1 225 9 is_stmt 1 view .LVU260
 967 0030 7047     		bx	lr
 968              	.LVL46:
 969              	.L78:
 227:App/Src/task.c ****         return;
 970              		.loc 1 227 9 view .LVU261
 227:App/Src/task.c ****         return;
 971              		.loc 1 227 20 is_stmt 0 view .LVU262
 972 0032 6A4B     		ldr	r3, .L82+12
 973 0034 0022     		movs	r2, #0
 974 0036 1A70     		strb	r2, [r3]
 228:App/Src/task.c ****     }
 975              		.loc 1 228 9 is_stmt 1 view .LVU263
 976 0038 7047     		bx	lr
 977              	.L61:
 978              	.LCFI16:
 979              		.cfi_def_cfa_offset 40
 980              		.cfi_offset 4, -12
 981              		.cfi_offset 5, -8
 982              		.cfi_offset 14, -4
 983              		.cfi_offset 80, -20
 984              		.cfi_offset 81, -16
 232:App/Src/task.c ****         case 0:
 233:App/Src/task.c ****             num = 0;
 985              		.loc 1 233 13 view .LVU264
 986              		.loc 1 233 17 is_stmt 0 view .LVU265
 987 003a 6A4A     		ldr	r2, .L82+20
 988 003c 0021     		movs	r1, #0
 989              	.LVL47:
 990              		.loc 1 233 17 view .LVU266
 991 003e 1170     		strb	r1, [r2]
 234:App/Src/task.c ****             testStep++;
 992              		.loc 1 234 13 is_stmt 1 view .LVU267
 993              		.loc 1 234 21 is_stmt 0 view .LVU268
 994 0040 0133     		adds	r3, r3, #1
ARM GAS  C:\Users\86158\AppData\Local\Temp\cc7PXljM.s 			page 25


 995 0042 654A     		ldr	r2, .L82+8
 996 0044 1370     		strb	r3, [r2]
 235:App/Src/task.c ****         break;
 997              		.loc 1 235 9 is_stmt 1 view .LVU269
 998              	.LVL48:
 999              	.L52:
 236:App/Src/task.c ****         case 1:
 237:App/Src/task.c ****             capNumber++;
 238:App/Src/task.c ****             if (capNumber >= 2048) {
 239:App/Src/task.c ****                 g_intState = 0;
 240:App/Src/task.c ****                 testStep = 0;
 241:App/Src/task.c ****                 break;
 242:App/Src/task.c ****             }
 243:App/Src/task.c ****             osc_buf[1] = (mode << 3) | (capNumber / 256);
 244:App/Src/task.c ****             osc_buf[0] = capNumber % 256;
 245:App/Src/task.c ****             if (rtc_set_testcap(osc_buf) != I2C_OK) { //写ram22、ram23 
 246:App/Src/task.c ****                 UsbPrintf("adjust error\n");
 247:App/Src/task.c ****                 g_intState = 0;
 248:App/Src/task.c ****                 testStep = 0;
 249:App/Src/task.c ****                 return;
 250:App/Src/task.c ****             }	
 251:App/Src/task.c ****             UsbPrintf("cap[0x%02x,0x%02x] adjust ok\n", osc_buf[1], osc_buf[0]);
 252:App/Src/task.c ****             lastTick = HAL_GetTick();
 253:App/Src/task.c ****             testStep++;
 254:App/Src/task.c ****         break;
 255:App/Src/task.c ****         case 2:
 256:App/Src/task.c ****             if (HAL_GetTick() > lastTick + 500) {
 257:App/Src/task.c **** 			    DevicePrintf(":MEAS?\n");
 258:App/Src/task.c ****                 lastTick = HAL_GetTick();
 259:App/Src/task.c ****                 testStep++;
 260:App/Src/task.c ****             }
 261:App/Src/task.c ****         break;
 262:App/Src/task.c ****         case 3:
 263:App/Src/task.c ****             if (g_lastFreq.recordTime > lastTick) {
 264:App/Src/task.c ****                 ppm = (g_lastFreq.freq / 64.0 - 1.0) * 1000000;
 265:App/Src/task.c ****                 UsbPrintf("freq:%fHz,ppm:%.2f\n", g_lastFreq.freq , ppm);
 266:App/Src/task.c ****                 if (capNumber == 0) {
 267:App/Src/task.c ****                     lastPPM = ppm;
 268:App/Src/task.c ****                 } else {
 269:App/Src/task.c ****                     if ((lastPPM + 30) < ppm || (lastPPM - 30) > ppm) {
 270:App/Src/task.c ****                         lastPPM = ppm;
 271:App/Src/task.c ****                         capNumber--;
 272:App/Src/task.c ****                         testStep = 1;
 273:App/Src/task.c ****                         break;
 274:App/Src/task.c ****                     }
 275:App/Src/task.c ****                     lastPPM = ppm;
 276:App/Src/task.c ****                 }
 277:App/Src/task.c ****                 testStep = 1;
 278:App/Src/task.c ****             }
 279:App/Src/task.c **** 			if (HAL_GetTick() >= lastTick + 3000) {
 280:App/Src/task.c **** 				UsbPrintf("device no respose!\n");
 281:App/Src/task.c ****                 num++;
 282:App/Src/task.c ****                 if (num >= 3) {
 283:App/Src/task.c ****                     g_intState = 0;
 284:App/Src/task.c ****                     testStep = 0;
 285:App/Src/task.c ****                     return;
 286:App/Src/task.c ****                 }
ARM GAS  C:\Users\86158\AppData\Local\Temp\cc7PXljM.s 			page 26


 287:App/Src/task.c ****                 testStep = 2;
 288:App/Src/task.c **** 			}
 289:App/Src/task.c ****         break;
 290:App/Src/task.c ****         default:break;
 291:App/Src/task.c ****     }
 292:App/Src/task.c **** }
 1000              		.loc 1 292 1 is_stmt 0 view .LVU270
 1001 0046 05B0     		add	sp, sp, #20
 1002              	.LCFI17:
 1003              		.cfi_remember_state
 1004              		.cfi_def_cfa_offset 20
 1005              		@ sp needed
 1006 0048 BDEC028B 		vldm	sp!, {d8}
 1007              	.LCFI18:
 1008              		.cfi_restore 80
 1009              		.cfi_restore 81
 1010              		.cfi_def_cfa_offset 12
 1011 004c 30BD     		pop	{r4, r5, pc}
 1012              	.LVL49:
 1013              	.L60:
 1014              	.LCFI19:
 1015              		.cfi_restore_state
 237:App/Src/task.c ****             if (capNumber >= 2048) {
 1016              		.loc 1 237 13 is_stmt 1 view .LVU271
 237:App/Src/task.c ****             if (capNumber >= 2048) {
 1017              		.loc 1 237 22 is_stmt 0 view .LVU272
 1018 004e 644A     		ldr	r2, .L82+16
 1019 0050 1368     		ldr	r3, [r2]
 1020 0052 0133     		adds	r3, r3, #1
 1021 0054 1360     		str	r3, [r2]
 238:App/Src/task.c ****                 g_intState = 0;
 1022              		.loc 1 238 13 is_stmt 1 view .LVU273
 238:App/Src/task.c ****                 g_intState = 0;
 1023              		.loc 1 238 16 is_stmt 0 view .LVU274
 1024 0056 B3F5006F 		cmp	r3, #2048
 1025 005a 05DB     		blt	.L62
 239:App/Src/task.c ****                 testStep = 0;
 1026              		.loc 1 239 17 is_stmt 1 view .LVU275
 239:App/Src/task.c ****                 testStep = 0;
 1027              		.loc 1 239 28 is_stmt 0 view .LVU276
 1028 005c 0023     		movs	r3, #0
 1029 005e 5F4A     		ldr	r2, .L82+12
 1030 0060 1370     		strb	r3, [r2]
 240:App/Src/task.c ****                 break;
 1031              		.loc 1 240 17 is_stmt 1 view .LVU277
 240:App/Src/task.c ****                 break;
 1032              		.loc 1 240 26 is_stmt 0 view .LVU278
 1033 0062 5D4A     		ldr	r2, .L82+8
 1034 0064 1370     		strb	r3, [r2]
 241:App/Src/task.c ****             }
 1035              		.loc 1 241 17 is_stmt 1 view .LVU279
 1036 0066 EEE7     		b	.L52
 1037              	.L62:
 243:App/Src/task.c ****             osc_buf[0] = capNumber % 256;
 1038              		.loc 1 243 13 view .LVU280
 243:App/Src/task.c ****             osc_buf[0] = capNumber % 256;
 1039              		.loc 1 243 51 is_stmt 0 view .LVU281
ARM GAS  C:\Users\86158\AppData\Local\Temp\cc7PXljM.s 			page 27


 1040 0068 1A46     		mov	r2, r3
 1041 006a 002B     		cmp	r3, #0
 1042 006c 1FDB     		blt	.L79
 1043              	.L63:
 1044 006e 1212     		asrs	r2, r2, #8
 243:App/Src/task.c ****             osc_buf[0] = capNumber % 256;
 1045              		.loc 1 243 38 view .LVU282
 1046 0070 42F01802 		orr	r2, r2, #24
 243:App/Src/task.c ****             osc_buf[0] = capNumber % 256;
 1047              		.loc 1 243 24 view .LVU283
 1048 0074 8DF80D20 		strb	r2, [sp, #13]
 244:App/Src/task.c ****             if (rtc_set_testcap(osc_buf) != I2C_OK) { //写ram22、ram23 
 1049              		.loc 1 244 13 is_stmt 1 view .LVU284
 244:App/Src/task.c ****             if (rtc_set_testcap(osc_buf) != I2C_OK) { //写ram22、ram23 
 1050              		.loc 1 244 36 is_stmt 0 view .LVU285
 1051 0078 5A42     		rsbs	r2, r3, #0
 1052 007a DBB2     		uxtb	r3, r3
 1053 007c D2B2     		uxtb	r2, r2
 1054 007e 58BF     		it	pl
 1055 0080 5342     		rsbpl	r3, r2, #0
 244:App/Src/task.c ****             if (rtc_set_testcap(osc_buf) != I2C_OK) { //写ram22、ram23 
 1056              		.loc 1 244 24 view .LVU286
 1057 0082 8DF80C30 		strb	r3, [sp, #12]
 245:App/Src/task.c ****                 UsbPrintf("adjust error\n");
 1058              		.loc 1 245 13 is_stmt 1 view .LVU287
 245:App/Src/task.c ****                 UsbPrintf("adjust error\n");
 1059              		.loc 1 245 17 is_stmt 0 view .LVU288
 1060 0086 03A8     		add	r0, sp, #12
 1061              	.LVL50:
 245:App/Src/task.c ****                 UsbPrintf("adjust error\n");
 1062              		.loc 1 245 17 view .LVU289
 1063 0088 FFF7FEFF 		bl	rtc_set_testcap
 1064              	.LVL51:
 245:App/Src/task.c ****                 UsbPrintf("adjust error\n");
 1065              		.loc 1 245 16 view .LVU290
 1066 008c 90B9     		cbnz	r0, .L80
 251:App/Src/task.c ****             lastTick = HAL_GetTick();
 1067              		.loc 1 251 13 is_stmt 1 view .LVU291
 1068 008e 9DF80C20 		ldrb	r2, [sp, #12]	@ zero_extendqisi2
 1069 0092 9DF80D10 		ldrb	r1, [sp, #13]	@ zero_extendqisi2
 1070 0096 5448     		ldr	r0, .L82+24
 1071 0098 FFF7FEFF 		bl	UsbPrintf
 1072              	.LVL52:
 252:App/Src/task.c ****             testStep++;
 1073              		.loc 1 252 13 view .LVU292
 252:App/Src/task.c ****             testStep++;
 1074              		.loc 1 252 24 is_stmt 0 view .LVU293
 1075 009c FFF7FEFF 		bl	HAL_GetTick
 1076              	.LVL53:
 252:App/Src/task.c ****             testStep++;
 1077              		.loc 1 252 22 view .LVU294
 1078 00a0 524B     		ldr	r3, .L82+28
 1079 00a2 1860     		str	r0, [r3]
 253:App/Src/task.c ****         break;
 1080              		.loc 1 253 13 is_stmt 1 view .LVU295
 253:App/Src/task.c ****         break;
 1081              		.loc 1 253 21 is_stmt 0 view .LVU296
ARM GAS  C:\Users\86158\AppData\Local\Temp\cc7PXljM.s 			page 28


 1082 00a4 4C4A     		ldr	r2, .L82+8
 1083 00a6 1378     		ldrb	r3, [r2]	@ zero_extendqisi2
 1084 00a8 0133     		adds	r3, r3, #1
 1085 00aa 1370     		strb	r3, [r2]
 254:App/Src/task.c ****         case 2:
 1086              		.loc 1 254 9 is_stmt 1 view .LVU297
 1087 00ac CBE7     		b	.L52
 1088              	.LVL54:
 1089              	.L79:
 243:App/Src/task.c ****             osc_buf[0] = capNumber % 256;
 1090              		.loc 1 243 51 is_stmt 0 view .LVU298
 1091 00ae 03F1FF02 		add	r2, r3, #255
 1092 00b2 DCE7     		b	.L63
 1093              	.LVL55:
 1094              	.L80:
 246:App/Src/task.c ****                 g_intState = 0;
 1095              		.loc 1 246 17 is_stmt 1 view .LVU299
 1096 00b4 4E48     		ldr	r0, .L82+32
 1097 00b6 FFF7FEFF 		bl	UsbPrintf
 1098              	.LVL56:
 247:App/Src/task.c ****                 testStep = 0;
 1099              		.loc 1 247 17 view .LVU300
 247:App/Src/task.c ****                 testStep = 0;
 1100              		.loc 1 247 28 is_stmt 0 view .LVU301
 1101 00ba 0023     		movs	r3, #0
 1102 00bc 474A     		ldr	r2, .L82+12
 1103 00be 1370     		strb	r3, [r2]
 248:App/Src/task.c ****                 return;
 1104              		.loc 1 248 17 is_stmt 1 view .LVU302
 248:App/Src/task.c ****                 return;
 1105              		.loc 1 248 26 is_stmt 0 view .LVU303
 1106 00c0 454A     		ldr	r2, .L82+8
 1107 00c2 1370     		strb	r3, [r2]
 249:App/Src/task.c ****             }	
 1108              		.loc 1 249 17 is_stmt 1 view .LVU304
 1109 00c4 BFE7     		b	.L52
 1110              	.LVL57:
 1111              	.L59:
 256:App/Src/task.c **** 			    DevicePrintf(":MEAS?\n");
 1112              		.loc 1 256 13 view .LVU305
 256:App/Src/task.c **** 			    DevicePrintf(":MEAS?\n");
 1113              		.loc 1 256 17 is_stmt 0 view .LVU306
 1114 00c6 FFF7FEFF 		bl	HAL_GetTick
 1115              	.LVL58:
 256:App/Src/task.c **** 			    DevicePrintf(":MEAS?\n");
 1116              		.loc 1 256 42 view .LVU307
 1117 00ca 484B     		ldr	r3, .L82+28
 1118 00cc 1B68     		ldr	r3, [r3]
 1119 00ce 03F5FA73 		add	r3, r3, #500
 256:App/Src/task.c **** 			    DevicePrintf(":MEAS?\n");
 1120              		.loc 1 256 16 view .LVU308
 1121 00d2 9842     		cmp	r0, r3
 1122 00d4 B7D9     		bls	.L52
 257:App/Src/task.c ****                 lastTick = HAL_GetTick();
 1123              		.loc 1 257 8 is_stmt 1 view .LVU309
 1124 00d6 4748     		ldr	r0, .L82+36
 1125 00d8 FFF7FEFF 		bl	DevicePrintf
ARM GAS  C:\Users\86158\AppData\Local\Temp\cc7PXljM.s 			page 29


 1126              	.LVL59:
 258:App/Src/task.c ****                 testStep++;
 1127              		.loc 1 258 17 view .LVU310
 258:App/Src/task.c ****                 testStep++;
 1128              		.loc 1 258 28 is_stmt 0 view .LVU311
 1129 00dc FFF7FEFF 		bl	HAL_GetTick
 1130              	.LVL60:
 258:App/Src/task.c ****                 testStep++;
 1131              		.loc 1 258 26 view .LVU312
 1132 00e0 424B     		ldr	r3, .L82+28
 1133 00e2 1860     		str	r0, [r3]
 259:App/Src/task.c ****             }
 1134              		.loc 1 259 17 is_stmt 1 view .LVU313
 259:App/Src/task.c ****             }
 1135              		.loc 1 259 25 is_stmt 0 view .LVU314
 1136 00e4 3C4A     		ldr	r2, .L82+8
 1137 00e6 1378     		ldrb	r3, [r2]	@ zero_extendqisi2
 1138 00e8 0133     		adds	r3, r3, #1
 1139 00ea 1370     		strb	r3, [r2]
 1140 00ec ABE7     		b	.L52
 1141              	.LVL61:
 1142              	.L57:
 263:App/Src/task.c ****                 ppm = (g_lastFreq.freq / 64.0 - 1.0) * 1000000;
 1143              		.loc 1 263 13 is_stmt 1 view .LVU315
 263:App/Src/task.c ****                 ppm = (g_lastFreq.freq / 64.0 - 1.0) * 1000000;
 1144              		.loc 1 263 27 is_stmt 0 view .LVU316
 1145 00ee 424B     		ldr	r3, .L82+40
 1146 00f0 1A68     		ldr	r2, [r3]
 263:App/Src/task.c ****                 ppm = (g_lastFreq.freq / 64.0 - 1.0) * 1000000;
 1147              		.loc 1 263 39 view .LVU317
 1148 00f2 3E4B     		ldr	r3, .L82+28
 1149 00f4 1B68     		ldr	r3, [r3]
 263:App/Src/task.c ****                 ppm = (g_lastFreq.freq / 64.0 - 1.0) * 1000000;
 1150              		.loc 1 263 16 view .LVU318
 1151 00f6 9A42     		cmp	r2, r3
 1152 00f8 28D9     		bls	.L65
 264:App/Src/task.c ****                 UsbPrintf("freq:%fHz,ppm:%.2f\n", g_lastFreq.freq , ppm);
 1153              		.loc 1 264 17 is_stmt 1 view .LVU319
 264:App/Src/task.c ****                 UsbPrintf("freq:%fHz,ppm:%.2f\n", g_lastFreq.freq , ppm);
 1154              		.loc 1 264 34 is_stmt 0 view .LVU320
 1155 00fa 3F4B     		ldr	r3, .L82+40
 1156 00fc 5868     		ldr	r0, [r3, #4]	@ float
 1157              	.LVL62:
 264:App/Src/task.c ****                 UsbPrintf("freq:%fHz,ppm:%.2f\n", g_lastFreq.freq , ppm);
 1158              		.loc 1 264 34 view .LVU321
 1159 00fe FFF7FEFF 		bl	__aeabi_f2d
 1160              	.LVL63:
 264:App/Src/task.c ****                 UsbPrintf("freq:%fHz,ppm:%.2f\n", g_lastFreq.freq , ppm);
 1161              		.loc 1 264 34 view .LVU322
 1162 0102 0446     		mov	r4, r0
 1163 0104 0D46     		mov	r5, r1
 264:App/Src/task.c ****                 UsbPrintf("freq:%fHz,ppm:%.2f\n", g_lastFreq.freq , ppm);
 1164              		.loc 1 264 40 view .LVU323
 1165 0106 0022     		movs	r2, #0
 1166 0108 3C4B     		ldr	r3, .L82+44
 1167 010a FFF7FEFF 		bl	__aeabi_dmul
 1168              	.LVL64:
ARM GAS  C:\Users\86158\AppData\Local\Temp\cc7PXljM.s 			page 30


 264:App/Src/task.c ****                 UsbPrintf("freq:%fHz,ppm:%.2f\n", g_lastFreq.freq , ppm);
 1169              		.loc 1 264 47 view .LVU324
 1170 010e 0022     		movs	r2, #0
 1171 0110 3B4B     		ldr	r3, .L82+48
 1172 0112 FFF7FEFF 		bl	__aeabi_dsub
 1173              	.LVL65:
 264:App/Src/task.c ****                 UsbPrintf("freq:%fHz,ppm:%.2f\n", g_lastFreq.freq , ppm);
 1174              		.loc 1 264 54 view .LVU325
 1175 0116 2EA3     		adr	r3, .L82
 1176 0118 D3E90023 		ldrd	r2, [r3]
 1177 011c FFF7FEFF 		bl	__aeabi_dmul
 1178              	.LVL66:
 264:App/Src/task.c ****                 UsbPrintf("freq:%fHz,ppm:%.2f\n", g_lastFreq.freq , ppm);
 1179              		.loc 1 264 21 view .LVU326
 1180 0120 FFF7FEFF 		bl	__aeabi_d2f
 1181              	.LVL67:
 1182 0124 08EE100A 		vmov	s16, r0
 1183              	.LVL68:
 265:App/Src/task.c ****                 if (capNumber == 0) {
 1184              		.loc 1 265 17 is_stmt 1 view .LVU327
 1185 0128 FFF7FEFF 		bl	__aeabi_f2d
 1186              	.LVL69:
 265:App/Src/task.c ****                 if (capNumber == 0) {
 1187              		.loc 1 265 17 is_stmt 0 view .LVU328
 1188 012c CDE90001 		strd	r0, [sp]
 1189 0130 2246     		mov	r2, r4
 1190 0132 2B46     		mov	r3, r5
 1191 0134 3348     		ldr	r0, .L82+52
 1192 0136 FFF7FEFF 		bl	UsbPrintf
 1193              	.LVL70:
 266:App/Src/task.c ****                     lastPPM = ppm;
 1194              		.loc 1 266 17 is_stmt 1 view .LVU329
 266:App/Src/task.c ****                     lastPPM = ppm;
 1195              		.loc 1 266 31 is_stmt 0 view .LVU330
 1196 013a 294B     		ldr	r3, .L82+16
 1197 013c 1B68     		ldr	r3, [r3]
 266:App/Src/task.c ****                     lastPPM = ppm;
 1198              		.loc 1 266 20 view .LVU331
 1199 013e E3B9     		cbnz	r3, .L66
 267:App/Src/task.c ****                 } else {
 1200              		.loc 1 267 21 is_stmt 1 view .LVU332
 267:App/Src/task.c ****                 } else {
 1201              		.loc 1 267 29 is_stmt 0 view .LVU333
 1202 0140 314B     		ldr	r3, .L82+56
 1203 0142 83ED008A 		vstr.32	s16, [r3]
 1204              	.L67:
 277:App/Src/task.c ****             }
 1205              		.loc 1 277 17 is_stmt 1 view .LVU334
 277:App/Src/task.c ****             }
 1206              		.loc 1 277 26 is_stmt 0 view .LVU335
 1207 0146 244B     		ldr	r3, .L82+8
 1208 0148 0122     		movs	r2, #1
 1209 014a 1A70     		strb	r2, [r3]
 1210              	.LVL71:
 1211              	.L65:
 279:App/Src/task.c **** 				UsbPrintf("device no respose!\n");
 1212              		.loc 1 279 4 is_stmt 1 view .LVU336
ARM GAS  C:\Users\86158\AppData\Local\Temp\cc7PXljM.s 			page 31


 279:App/Src/task.c **** 				UsbPrintf("device no respose!\n");
 1213              		.loc 1 279 8 is_stmt 0 view .LVU337
 1214 014c FFF7FEFF 		bl	HAL_GetTick
 1215              	.LVL72:
 279:App/Src/task.c **** 				UsbPrintf("device no respose!\n");
 1216              		.loc 1 279 34 view .LVU338
 1217 0150 264B     		ldr	r3, .L82+28
 1218 0152 1B68     		ldr	r3, [r3]
 1219 0154 03F6B833 		addw	r3, r3, #3000
 279:App/Src/task.c **** 				UsbPrintf("device no respose!\n");
 1220              		.loc 1 279 7 view .LVU339
 1221 0158 9842     		cmp	r0, r3
 1222 015a FFF474AF 		bcc	.L52
 280:App/Src/task.c ****                 num++;
 1223              		.loc 1 280 5 is_stmt 1 view .LVU340
 1224 015e 2B48     		ldr	r0, .L82+60
 1225 0160 FFF7FEFF 		bl	UsbPrintf
 1226              	.LVL73:
 281:App/Src/task.c ****                 if (num >= 3) {
 1227              		.loc 1 281 17 view .LVU341
 281:App/Src/task.c ****                 if (num >= 3) {
 1228              		.loc 1 281 20 is_stmt 0 view .LVU342
 1229 0164 1F4A     		ldr	r2, .L82+20
 1230 0166 1378     		ldrb	r3, [r2]	@ zero_extendqisi2
 1231 0168 0133     		adds	r3, r3, #1
 1232 016a DBB2     		uxtb	r3, r3
 1233 016c 1370     		strb	r3, [r2]
 282:App/Src/task.c ****                     g_intState = 0;
 1234              		.loc 1 282 17 is_stmt 1 view .LVU343
 282:App/Src/task.c ****                     g_intState = 0;
 1235              		.loc 1 282 20 is_stmt 0 view .LVU344
 1236 016e 022B     		cmp	r3, #2
 1237 0170 26D8     		bhi	.L81
 287:App/Src/task.c **** 			}
 1238              		.loc 1 287 17 is_stmt 1 view .LVU345
 287:App/Src/task.c **** 			}
 1239              		.loc 1 287 26 is_stmt 0 view .LVU346
 1240 0172 194B     		ldr	r3, .L82+8
 1241 0174 0222     		movs	r2, #2
 1242 0176 1A70     		strb	r2, [r3]
 1243 0178 65E7     		b	.L52
 1244              	.LVL74:
 1245              	.L66:
 269:App/Src/task.c ****                         lastPPM = ppm;
 1246              		.loc 1 269 21 is_stmt 1 view .LVU347
 269:App/Src/task.c ****                         lastPPM = ppm;
 1247              		.loc 1 269 34 is_stmt 0 view .LVU348
 1248 017a 234A     		ldr	r2, .L82+56
 1249 017c 92ED007A 		vldr.32	s14, [r2]
 1250 0180 F3EE0E7A 		vmov.f32	s15, #3.0e+1
 1251 0184 77EE277A 		vadd.f32	s15, s14, s15
 269:App/Src/task.c ****                         lastPPM = ppm;
 1252              		.loc 1 269 24 view .LVU349
 1253 0188 F4EEC87A 		vcmpe.f32	s15, s16
 1254 018c F1EE10FA 		vmrs	APSR_nzcv, FPSCR
 1255 0190 08D4     		bmi	.L68
 269:App/Src/task.c ****                         lastPPM = ppm;
ARM GAS  C:\Users\86158\AppData\Local\Temp\cc7PXljM.s 			page 32


 1256              		.loc 1 269 58 discriminator 1 view .LVU350
 1257 0192 F3EE0E7A 		vmov.f32	s15, #3.0e+1
 1258 0196 37EE677A 		vsub.f32	s14, s14, s15
 269:App/Src/task.c ****                         lastPPM = ppm;
 1259              		.loc 1 269 46 discriminator 1 view .LVU351
 1260 019a B4EEC87A 		vcmpe.f32	s14, s16
 1261 019e F1EE10FA 		vmrs	APSR_nzcv, FPSCR
 1262 01a2 09DD     		ble	.L73
 1263              	.L68:
 270:App/Src/task.c ****                         capNumber--;
 1264              		.loc 1 270 25 is_stmt 1 view .LVU352
 270:App/Src/task.c ****                         capNumber--;
 1265              		.loc 1 270 33 is_stmt 0 view .LVU353
 1266 01a4 184A     		ldr	r2, .L82+56
 1267 01a6 82ED008A 		vstr.32	s16, [r2]
 271:App/Src/task.c ****                         testStep = 1;
 1268              		.loc 1 271 25 is_stmt 1 view .LVU354
 271:App/Src/task.c ****                         testStep = 1;
 1269              		.loc 1 271 34 is_stmt 0 view .LVU355
 1270 01aa 013B     		subs	r3, r3, #1
 1271 01ac 0C4A     		ldr	r2, .L82+16
 1272 01ae 1360     		str	r3, [r2]
 272:App/Src/task.c ****                         break;
 1273              		.loc 1 272 25 is_stmt 1 view .LVU356
 272:App/Src/task.c ****                         break;
 1274              		.loc 1 272 34 is_stmt 0 view .LVU357
 1275 01b0 094B     		ldr	r3, .L82+8
 1276 01b2 0122     		movs	r2, #1
 1277 01b4 1A70     		strb	r2, [r3]
 273:App/Src/task.c ****                     }
 1278              		.loc 1 273 25 is_stmt 1 view .LVU358
 1279 01b6 46E7     		b	.L52
 1280              	.L73:
 275:App/Src/task.c ****                 }
 1281              		.loc 1 275 21 view .LVU359
 275:App/Src/task.c ****                 }
 1282              		.loc 1 275 29 is_stmt 0 view .LVU360
 1283 01b8 134B     		ldr	r3, .L82+56
 1284 01ba 83ED008A 		vstr.32	s16, [r3]
 1285 01be C2E7     		b	.L67
 1286              	.LVL75:
 1287              	.L81:
 283:App/Src/task.c ****                     testStep = 0;
 1288              		.loc 1 283 21 is_stmt 1 view .LVU361
 283:App/Src/task.c ****                     testStep = 0;
 1289              		.loc 1 283 32 is_stmt 0 view .LVU362
 1290 01c0 0023     		movs	r3, #0
 1291 01c2 064A     		ldr	r2, .L82+12
 1292 01c4 1370     		strb	r3, [r2]
 284:App/Src/task.c ****                     return;
 1293              		.loc 1 284 21 is_stmt 1 view .LVU363
 284:App/Src/task.c ****                     return;
 1294              		.loc 1 284 30 is_stmt 0 view .LVU364
 1295 01c6 044A     		ldr	r2, .L82+8
 1296 01c8 1370     		strb	r3, [r2]
 285:App/Src/task.c ****                 }
 1297              		.loc 1 285 21 is_stmt 1 view .LVU365
ARM GAS  C:\Users\86158\AppData\Local\Temp\cc7PXljM.s 			page 33


 1298 01ca 3CE7     		b	.L52
 1299              	.L83:
 1300 01cc AFF30080 		.align	3
 1301              	.L82:
 1302 01d0 00000000 		.word	0
 1303 01d4 80842E41 		.word	1093567616
 1304 01d8 00000000 		.word	.LANCHOR11
 1305 01dc 00000000 		.word	.LANCHOR10
 1306 01e0 00000000 		.word	.LANCHOR12
 1307 01e4 00000000 		.word	.LANCHOR13
 1308 01e8 10000000 		.word	.LC9
 1309 01ec 00000000 		.word	.LANCHOR14
 1310 01f0 00000000 		.word	.LC8
 1311 01f4 3C000000 		.word	.LC5
 1312 01f8 00000000 		.word	.LANCHOR9
 1313 01fc 0000903F 		.word	1066401792
 1314 0200 0000F03F 		.word	1072693248
 1315 0204 44000000 		.word	.LC6
 1316 0208 00000000 		.word	.LANCHOR15
 1317 020c 58000000 		.word	.LC7
 1318              		.cfi_endproc
 1319              	.LFE242:
 1321              		.global	__aeabi_dcmpgt
 1322              		.global	__aeabi_dcmplt
 1323              		.global	__aeabi_dadd
 1324              		.section	.rodata.rtc_freq_save.str1.4,"aMS",%progbits,1
 1325              		.align	2
 1326              	.LC10:
 1327 0000 73756363 		.ascii	"success, temp:%.2f, best cap:%.2f, min ppm %.2f\012"
 1327      6573732C 
 1327      2074656D 
 1327      703A252E 
 1327      32662C20 
 1328 0030 00       		.ascii	"\000"
 1329 0031 000000   		.align	2
 1330              	.LC11:
 1331 0034 63686563 		.ascii	"check rtc temp error, temp:%.2f\012\000"
 1331      6B207274 
 1331      63207465 
 1331      6D702065 
 1331      72726F72 
 1332 0055 000000   		.align	2
 1333              	.LC12:
 1334 0058 6572726F 		.ascii	"error and stop, temp:%.2f, best cap:%.2f, min ppm %"
 1334      7220616E 
 1334      64207374 
 1334      6F702C20 
 1334      74656D70 
 1335 008b 2E32660A 		.ascii	".2f\012\000"
 1335      00
 1336              		.section	.text.rtc_freq_save,"ax",%progbits
 1337              		.align	1
 1338              		.global	rtc_freq_save
 1339              		.syntax unified
 1340              		.thumb
 1341              		.thumb_func
 1343              	rtc_freq_save:
ARM GAS  C:\Users\86158\AppData\Local\Temp\cc7PXljM.s 			page 34


 1344              	.LVL76:
 1345              	.LFB243:
 293:App/Src/task.c **** 
 294:App/Src/task.c **** void rtc_freq_save(uint8_t mode,  float cap, float ppm)
 295:App/Src/task.c **** {
 1346              		.loc 1 295 1 view -0
 1347              		.cfi_startproc
 1348              		@ args = 0, pretend = 0, frame = 16
 1349              		@ frame_needed = 0, uses_anonymous_args = 0
 1350              		.loc 1 295 1 is_stmt 0 view .LVU367
 1351 0000 2DE9F04F 		push	{r4, r5, r6, r7, r8, r9, r10, fp, lr}
 1352              	.LCFI20:
 1353              		.cfi_def_cfa_offset 36
 1354              		.cfi_offset 4, -36
 1355              		.cfi_offset 5, -32
 1356              		.cfi_offset 6, -28
 1357              		.cfi_offset 7, -24
 1358              		.cfi_offset 8, -20
 1359              		.cfi_offset 9, -16
 1360              		.cfi_offset 10, -12
 1361              		.cfi_offset 11, -8
 1362              		.cfi_offset 14, -4
 1363 0004 2DED028B 		vpush.64	{d8}
 1364              	.LCFI21:
 1365              		.cfi_def_cfa_offset 44
 1366              		.cfi_offset 80, -44
 1367              		.cfi_offset 81, -40
 1368 0008 89B0     		sub	sp, sp, #36
 1369              	.LCFI22:
 1370              		.cfi_def_cfa_offset 80
 1371 000a 0446     		mov	r4, r0
 1372 000c 10EE105A 		vmov	r5, s0
 1373 0010 10EE90AA 		vmov	r10, s1
 296:App/Src/task.c ****     float temp, rtcTemp = 0, centerTemp;
 1374              		.loc 1 296 5 is_stmt 1 view .LVU368
 1375              	.LVL77:
 297:App/Src/task.c ****     uint32_t address;
 1376              		.loc 1 297 5 view .LVU369
 298:App/Src/task.c ****     uint8_t buffer[4] = {0};
 1377              		.loc 1 298 5 view .LVU370
 1378              		.loc 1 298 13 is_stmt 0 view .LVU371
 1379 0014 0023     		movs	r3, #0
 1380 0016 0693     		str	r3, [sp, #24]
 299:App/Src/task.c ****     uint8_t check = 0;
 1381              		.loc 1 299 5 is_stmt 1 view .LVU372
 1382              	.LVL78:
 300:App/Src/task.c ****     uint16_t adcValue;
 1383              		.loc 1 300 5 view .LVU373
 301:App/Src/task.c ****     int i;
 1384              		.loc 1 301 5 view .LVU374
 302:App/Src/task.c **** 
 303:App/Src/task.c ****     address = TEST_RESULT_START_ADDR + (g_capAdjust.count - 1) * TEST_RESULT_ONE_SIZE + TEST_DOT_TE
 1385              		.loc 1 303 5 view .LVU375
 1386              		.loc 1 303 52 is_stmt 0 view .LVU376
 1387 0018 924B     		ldr	r3, .L108
 1388 001a 1B7C     		ldrb	r3, [r3, #16]	@ zero_extendqisi2
 1389              		.loc 1 303 38 view .LVU377
ARM GAS  C:\Users\86158\AppData\Local\Temp\cc7PXljM.s 			page 35


 1390 001c 0733     		adds	r3, r3, #7
 1391 001e 5B02     		lsls	r3, r3, #9
 1392              	.LVL79:
 304:App/Src/task.c ****     flash_read_data(address, buffer, 4);//根据地址调用flash函数读取4byte数据
 1393              		.loc 1 304 5 is_stmt 1 view .LVU378
 1394 0020 0422     		movs	r2, #4
 1395 0022 06A9     		add	r1, sp, #24
 1396 0024 03F11000 		add	r0, r3, #16
 1397              	.LVL80:
 1398              		.loc 1 304 5 is_stmt 0 view .LVU379
 1399 0028 FFF7FEFF 		bl	flash_read_data
 1400              	.LVL81:
 305:App/Src/task.c ****     uint8_to_float(&centerTemp, buffer);//类型转换为float
 1401              		.loc 1 305 5 is_stmt 1 view .LVU380
 1402 002c 06A9     		add	r1, sp, #24
 1403 002e 07A8     		add	r0, sp, #28
 1404 0030 FFF7FEFF 		bl	uint8_to_float
 1405              	.LVL82:
 306:App/Src/task.c ****     if (mode == CAP_ADJUST_SUCCESS) {
 1406              		.loc 1 306 5 view .LVU381
 1407              		.loc 1 306 8 is_stmt 0 view .LVU382
 1408 0034 022C     		cmp	r4, #2
 1409 0036 07D0     		beq	.L104
 1410              	.LVL83:
 1411              	.L85:
 307:App/Src/task.c ****         temp = temp_read_value(1);// read system temp
 308:App/Src/task.c ****         // rtcTemp = system_get_rtc_temp();
 309:App/Src/task.c ****         for (i = 0; i < 5; i++) {
 310:App/Src/task.c ****             if (wave1006_read_temp_adc(&adcValue)) {
 311:App/Src/task.c ****                 rtcTemp = adcValue;
 312:App/Src/task.c ****                 break;
 313:App/Src/task.c ****             }
 314:App/Src/task.c ****         }
 315:App/Src/task.c ****     
 316:App/Src/task.c ****         if (temp < 35 && temp > 15) {
 317:App/Src/task.c ****             if ((rtcTemp * 0.5 - temp) > 70 && (rtcTemp * 0.5 - temp) < 130) {                
 318:App/Src/task.c ****                 check = 1;
 319:App/Src/task.c ****             } 
 320:App/Src/task.c ****         } else {
 321:App/Src/task.c ****             if ((centerTemp - rtcTemp) * 0.5 > (25.0 - temp - 8) && (centerTemp - rtcTemp) * 0.5 < 
 322:App/Src/task.c ****                 check = 1;
 323:App/Src/task.c ****             } 
 324:App/Src/task.c ****         }
 325:App/Src/task.c ****         if (check == 1) {
 326:App/Src/task.c ****         // g_capAdjust.flag = CAP_ADJUST_SUCCESS;  等待中心温度点计算
 327:App/Src/task.c ****             g_capAdjust.cap = cap;
 328:App/Src/task.c ****             g_capAdjust.ppm = ppm;
 329:App/Src/task.c ****             g_capAdjust.temp = rtcTemp;
 330:App/Src/task.c ****             UsbPrintf("success, temp:%.2f, best cap:%.2f, min ppm %.2f\n", g_capAdjust.temp, g_capA
 331:App/Src/task.c ****             log_printf("success, temp:%.2f, best cap:%.2f, min ppm %.2f\n", g_capAdjust.temp, g_cap
 332:App/Src/task.c ****         } else {
 333:App/Src/task.c ****             g_capAdjust.flag = CAP_ADJUST_ERROR;
 334:App/Src/task.c ****             g_capAdjust.cap = 0;
 335:App/Src/task.c ****             g_capAdjust.ppm = 1000;
 336:App/Src/task.c ****             g_capAdjust.temp = rtcTemp;
 337:App/Src/task.c ****             UsbPrintf("check rtc temp error, temp:%.2f\n", rtcTemp);
 338:App/Src/task.c ****             log_printf("check rtc temp error, temp:%.2f\n", rtcTemp);
ARM GAS  C:\Users\86158\AppData\Local\Temp\cc7PXljM.s 			page 36


 339:App/Src/task.c ****         }
 340:App/Src/task.c ****     } 
 341:App/Src/task.c **** 
 342:App/Src/task.c ****     if (mode == CAP_ADJUST_ERROR) {
 1412              		.loc 1 342 5 is_stmt 1 view .LVU383
 1413              		.loc 1 342 8 is_stmt 0 view .LVU384
 1414 0038 012C     		cmp	r4, #1
 1415 003a 00F0D780 		beq	.L105
 1416              	.L84:
 343:App/Src/task.c ****         g_capAdjust.flag = CAP_ADJUST_ERROR;
 344:App/Src/task.c ****         g_capAdjust.cap = 0;
 345:App/Src/task.c ****         g_capAdjust.ppm = 1000;
 346:App/Src/task.c ****         g_capAdjust.temp = system_get_rtc_temp();
 347:App/Src/task.c ****         UsbPrintf("error and stop, temp:%.2f, best cap:%.2f, min ppm %.2f\n", g_capAdjust.temp, g_c
 348:App/Src/task.c ****         log_printf("error and stop, temp:%.2f, best cap:%.2f, min ppm %.2f\n", g_capAdjust.temp, g_
 349:App/Src/task.c ****     }
 350:App/Src/task.c **** }
 1417              		.loc 1 350 1 view .LVU385
 1418 003e 09B0     		add	sp, sp, #36
 1419              	.LCFI23:
 1420              		.cfi_remember_state
 1421              		.cfi_def_cfa_offset 44
 1422              		@ sp needed
 1423 0040 BDEC028B 		vldm	sp!, {d8}
 1424              	.LCFI24:
 1425              		.cfi_restore 80
 1426              		.cfi_restore 81
 1427              		.cfi_def_cfa_offset 36
 1428 0044 BDE8F08F 		pop	{r4, r5, r6, r7, r8, r9, r10, fp, pc}
 1429              	.LVL84:
 1430              	.L104:
 1431              	.LCFI25:
 1432              		.cfi_restore_state
 307:App/Src/task.c ****         temp = temp_read_value(1);// read system temp
 1433              		.loc 1 307 9 is_stmt 1 view .LVU386
 307:App/Src/task.c ****         temp = temp_read_value(1);// read system temp
 1434              		.loc 1 307 16 is_stmt 0 view .LVU387
 1435 0048 0120     		movs	r0, #1
 1436 004a FFF7FEFF 		bl	temp_read_value
 1437              	.LVL85:
 1438 004e B0EE408A 		vmov.f32	s16, s0
 1439              	.LVL86:
 309:App/Src/task.c ****             if (wave1006_read_temp_adc(&adcValue)) {
 1440              		.loc 1 309 9 is_stmt 1 view .LVU388
 309:App/Src/task.c ****             if (wave1006_read_temp_adc(&adcValue)) {
 1441              		.loc 1 309 16 is_stmt 0 view .LVU389
 1442 0052 0026     		movs	r6, #0
 1443              	.LVL87:
 1444              	.L86:
 309:App/Src/task.c ****             if (wave1006_read_temp_adc(&adcValue)) {
 1445              		.loc 1 309 21 is_stmt 1 discriminator 1 view .LVU390
 309:App/Src/task.c ****             if (wave1006_read_temp_adc(&adcValue)) {
 1446              		.loc 1 309 9 is_stmt 0 discriminator 1 view .LVU391
 1447 0054 042E     		cmp	r6, #4
 1448 0056 0FDC     		bgt	.L106
 310:App/Src/task.c ****                 rtcTemp = adcValue;
 1449              		.loc 1 310 13 is_stmt 1 view .LVU392
ARM GAS  C:\Users\86158\AppData\Local\Temp\cc7PXljM.s 			page 37


 310:App/Src/task.c ****                 rtcTemp = adcValue;
 1450              		.loc 1 310 17 is_stmt 0 view .LVU393
 1451 0058 0DF11600 		add	r0, sp, #22
 1452 005c FFF7FEFF 		bl	wave1006_read_temp_adc
 1453              	.LVL88:
 310:App/Src/task.c ****                 rtcTemp = adcValue;
 1454              		.loc 1 310 16 view .LVU394
 1455 0060 08B9     		cbnz	r0, .L107
 309:App/Src/task.c ****             if (wave1006_read_temp_adc(&adcValue)) {
 1456              		.loc 1 309 28 is_stmt 1 discriminator 2 view .LVU395
 309:App/Src/task.c ****             if (wave1006_read_temp_adc(&adcValue)) {
 1457              		.loc 1 309 29 is_stmt 0 discriminator 2 view .LVU396
 1458 0062 0136     		adds	r6, r6, #1
 1459              	.LVL89:
 309:App/Src/task.c ****             if (wave1006_read_temp_adc(&adcValue)) {
 1460              		.loc 1 309 29 discriminator 2 view .LVU397
 1461 0064 F6E7     		b	.L86
 1462              	.L107:
 311:App/Src/task.c ****                 break;
 1463              		.loc 1 311 17 is_stmt 1 view .LVU398
 311:App/Src/task.c ****                 break;
 1464              		.loc 1 311 25 is_stmt 0 view .LVU399
 1465 0066 BDF816B0 		ldrh	fp, [sp, #22]
 1466 006a 07EE90BA 		vmov	s15, fp	@ int
 1467 006e F8EE677A 		vcvt.f32.u32	s15, s15
 1468 0072 17EE90BA 		vmov	fp, s15
 1469              	.LVL90:
 312:App/Src/task.c ****             }
 1470              		.loc 1 312 17 is_stmt 1 view .LVU400
 1471 0076 01E0     		b	.L88
 1472              	.LVL91:
 1473              	.L106:
 296:App/Src/task.c ****     uint32_t address;
 1474              		.loc 1 296 17 is_stmt 0 view .LVU401
 1475 0078 4FF0000B 		mov	fp, #0
 1476              	.LVL92:
 1477              	.L88:
 316:App/Src/task.c ****             if ((rtcTemp * 0.5 - temp) > 70 && (rtcTemp * 0.5 - temp) < 130) {                
 1478              		.loc 1 316 9 is_stmt 1 view .LVU402
 316:App/Src/task.c ****             if ((rtcTemp * 0.5 - temp) > 70 && (rtcTemp * 0.5 - temp) < 130) {                
 1479              		.loc 1 316 12 is_stmt 0 view .LVU403
 1480 007c DFED7A7A 		vldr.32	s15, .L108+4
 1481 0080 B4EEE78A 		vcmpe.f32	s16, s15
 1482 0084 F1EE10FA 		vmrs	APSR_nzcv, FPSCR
 1483 0088 42D5     		bpl	.L90
 316:App/Src/task.c ****             if ((rtcTemp * 0.5 - temp) > 70 && (rtcTemp * 0.5 - temp) < 130) {                
 1484              		.loc 1 316 23 discriminator 1 view .LVU404
 1485 008a F2EE0E7A 		vmov.f32	s15, #1.5e+1
 1486 008e B4EEE78A 		vcmpe.f32	s16, s15
 1487 0092 F1EE10FA 		vmrs	APSR_nzcv, FPSCR
 1488 0096 3BDD     		ble	.L90
 317:App/Src/task.c ****                 check = 1;
 1489              		.loc 1 317 13 is_stmt 1 view .LVU405
 317:App/Src/task.c ****                 check = 1;
 1490              		.loc 1 317 26 is_stmt 0 view .LVU406
 1491 0098 5846     		mov	r0, fp	@ float
 1492 009a FFF7FEFF 		bl	__aeabi_f2d
ARM GAS  C:\Users\86158\AppData\Local\Temp\cc7PXljM.s 			page 38


 1493              	.LVL93:
 1494 009e 0022     		movs	r2, #0
 1495 00a0 724B     		ldr	r3, .L108+8
 1496 00a2 FFF7FEFF 		bl	__aeabi_dmul
 1497              	.LVL94:
 1498 00a6 0646     		mov	r6, r0
 1499              	.LVL95:
 317:App/Src/task.c ****                 check = 1;
 1500              		.loc 1 317 26 view .LVU407
 1501 00a8 0F46     		mov	r7, r1
 317:App/Src/task.c ****                 check = 1;
 1502              		.loc 1 317 32 view .LVU408
 1503 00aa 18EE100A 		vmov	r0, s16
 1504 00ae FFF7FEFF 		bl	__aeabi_f2d
 1505              	.LVL96:
 1506 00b2 0246     		mov	r2, r0
 1507 00b4 0B46     		mov	r3, r1
 1508 00b6 3046     		mov	r0, r6
 1509 00b8 3946     		mov	r1, r7
 1510 00ba FFF7FEFF 		bl	__aeabi_dsub
 1511              	.LVL97:
 1512 00be 0646     		mov	r6, r0
 1513 00c0 0F46     		mov	r7, r1
 317:App/Src/task.c ****                 check = 1;
 1514              		.loc 1 317 16 view .LVU409
 1515 00c2 0022     		movs	r2, #0
 1516 00c4 6A4B     		ldr	r3, .L108+12
 1517 00c6 FFF7FEFF 		bl	__aeabi_dcmpgt
 1518              	.LVL98:
 1519 00ca 38B1     		cbz	r0, .L93
 317:App/Src/task.c ****                 check = 1;
 1520              		.loc 1 317 45 discriminator 1 view .LVU410
 1521 00cc 0022     		movs	r2, #0
 1522 00ce 694B     		ldr	r3, .L108+16
 1523 00d0 3046     		mov	r0, r6
 1524 00d2 3946     		mov	r1, r7
 1525 00d4 FFF7FEFF 		bl	__aeabi_dcmplt
 1526              	.LVL99:
 1527 00d8 0028     		cmp	r0, #0
 1528 00da 4FD1     		bne	.L95
 1529              	.L93:
 1530              	.LVL100:
 333:App/Src/task.c ****             g_capAdjust.cap = 0;
 1531              		.loc 1 333 13 is_stmt 1 view .LVU411
 333:App/Src/task.c ****             g_capAdjust.cap = 0;
 1532              		.loc 1 333 30 is_stmt 0 view .LVU412
 1533 00dc 614B     		ldr	r3, .L108
 1534 00de 0122     		movs	r2, #1
 1535 00e0 1A70     		strb	r2, [r3]
 334:App/Src/task.c ****             g_capAdjust.ppm = 1000;
 1536              		.loc 1 334 13 is_stmt 1 view .LVU413
 334:App/Src/task.c ****             g_capAdjust.ppm = 1000;
 1537              		.loc 1 334 29 is_stmt 0 view .LVU414
 1538 00e2 0022     		movs	r2, #0
 1539 00e4 5A60     		str	r2, [r3, #4]	@ float
 335:App/Src/task.c ****             g_capAdjust.temp = rtcTemp;
 1540              		.loc 1 335 13 is_stmt 1 view .LVU415
ARM GAS  C:\Users\86158\AppData\Local\Temp\cc7PXljM.s 			page 39


 335:App/Src/task.c ****             g_capAdjust.temp = rtcTemp;
 1541              		.loc 1 335 29 is_stmt 0 view .LVU416
 1542 00e6 644A     		ldr	r2, .L108+20
 1543 00e8 DA60     		str	r2, [r3, #12]	@ float
 336:App/Src/task.c ****             UsbPrintf("check rtc temp error, temp:%.2f\n", rtcTemp);
 1544              		.loc 1 336 13 is_stmt 1 view .LVU417
 336:App/Src/task.c ****             UsbPrintf("check rtc temp error, temp:%.2f\n", rtcTemp);
 1545              		.loc 1 336 30 is_stmt 0 view .LVU418
 1546 00ea C3F808B0 		str	fp, [r3, #8]	@ float
 337:App/Src/task.c ****             log_printf("check rtc temp error, temp:%.2f\n", rtcTemp);
 1547              		.loc 1 337 13 is_stmt 1 view .LVU419
 1548 00ee 5846     		mov	r0, fp	@ float
 1549 00f0 FFF7FEFF 		bl	__aeabi_f2d
 1550              	.LVL101:
 1551 00f4 0646     		mov	r6, r0
 1552 00f6 0F46     		mov	r7, r1
 1553 00f8 604D     		ldr	r5, .L108+24
 1554              	.LVL102:
 337:App/Src/task.c ****             log_printf("check rtc temp error, temp:%.2f\n", rtcTemp);
 1555              		.loc 1 337 13 is_stmt 0 view .LVU420
 1556 00fa 0246     		mov	r2, r0
 1557 00fc 0B46     		mov	r3, r1
 1558 00fe 2846     		mov	r0, r5
 1559 0100 FFF7FEFF 		bl	UsbPrintf
 1560              	.LVL103:
 338:App/Src/task.c ****         }
 1561              		.loc 1 338 13 is_stmt 1 view .LVU421
 1562 0104 3246     		mov	r2, r6
 1563 0106 3B46     		mov	r3, r7
 1564 0108 2846     		mov	r0, r5
 1565 010a FFF7FEFF 		bl	log_printf
 1566              	.LVL104:
 1567 010e 93E7     		b	.L85
 1568              	.LVL105:
 1569              	.L90:
 321:App/Src/task.c ****                 check = 1;
 1570              		.loc 1 321 13 view .LVU422
 321:App/Src/task.c ****                 check = 1;
 1571              		.loc 1 321 29 is_stmt 0 view .LVU423
 1572 0110 DDED077A 		vldr.32	s15, [sp, #28]
 1573 0114 07EE10BA 		vmov	s14, fp
 1574 0118 77EEC77A 		vsub.f32	s15, s15, s14
 1575 011c 17EE900A 		vmov	r0, s15
 1576 0120 FFF7FEFF 		bl	__aeabi_f2d
 1577              	.LVL106:
 321:App/Src/task.c ****                 check = 1;
 1578              		.loc 1 321 40 view .LVU424
 1579 0124 0022     		movs	r2, #0
 1580 0126 514B     		ldr	r3, .L108+8
 1581 0128 FFF7FEFF 		bl	__aeabi_dmul
 1582              	.LVL107:
 1583 012c 0646     		mov	r6, r0
 1584              	.LVL108:
 321:App/Src/task.c ****                 check = 1;
 1585              		.loc 1 321 40 view .LVU425
 1586 012e 0F46     		mov	r7, r1
 321:App/Src/task.c ****                 check = 1;
ARM GAS  C:\Users\86158\AppData\Local\Temp\cc7PXljM.s 			page 40


 1587              		.loc 1 321 54 view .LVU426
 1588 0130 18EE100A 		vmov	r0, s16
 1589 0134 FFF7FEFF 		bl	__aeabi_f2d
 1590              	.LVL109:
 1591 0138 0246     		mov	r2, r0
 1592 013a 0B46     		mov	r3, r1
 1593 013c 0020     		movs	r0, #0
 1594 013e 5049     		ldr	r1, .L108+28
 1595 0140 FFF7FEFF 		bl	__aeabi_dsub
 1596              	.LVL110:
 1597 0144 8046     		mov	r8, r0
 1598 0146 8946     		mov	r9, r1
 321:App/Src/task.c ****                 check = 1;
 1599              		.loc 1 321 61 view .LVU427
 1600 0148 0022     		movs	r2, #0
 1601 014a 4E4B     		ldr	r3, .L108+32
 1602 014c FFF7FEFF 		bl	__aeabi_dsub
 1603              	.LVL111:
 1604 0150 0246     		mov	r2, r0
 1605 0152 0B46     		mov	r3, r1
 321:App/Src/task.c ****                 check = 1;
 1606              		.loc 1 321 16 view .LVU428
 1607 0154 3046     		mov	r0, r6
 1608 0156 3946     		mov	r1, r7
 1609 0158 FFF7FEFF 		bl	__aeabi_dcmpgt
 1610              	.LVL112:
 1611 015c 0028     		cmp	r0, #0
 1612 015e BDD0     		beq	.L93
 321:App/Src/task.c ****                 check = 1;
 1613              		.loc 1 321 113 discriminator 1 view .LVU429
 1614 0160 0022     		movs	r2, #0
 1615 0162 484B     		ldr	r3, .L108+32
 1616 0164 4046     		mov	r0, r8
 1617 0166 4946     		mov	r1, r9
 1618 0168 FFF7FEFF 		bl	__aeabi_dadd
 1619              	.LVL113:
 1620 016c 0246     		mov	r2, r0
 1621 016e 0B46     		mov	r3, r1
 321:App/Src/task.c ****                 check = 1;
 1622              		.loc 1 321 66 discriminator 1 view .LVU430
 1623 0170 3046     		mov	r0, r6
 1624 0172 3946     		mov	r1, r7
 1625 0174 FFF7FEFF 		bl	__aeabi_dcmplt
 1626              	.LVL114:
 1627 0178 0028     		cmp	r0, #0
 1628 017a AFD0     		beq	.L93
 1629              	.L95:
 1630              	.LVL115:
 327:App/Src/task.c ****             g_capAdjust.ppm = ppm;
 1631              		.loc 1 327 13 is_stmt 1 view .LVU431
 327:App/Src/task.c ****             g_capAdjust.ppm = ppm;
 1632              		.loc 1 327 29 is_stmt 0 view .LVU432
 1633 017c DFF8E480 		ldr	r8, .L108
 1634 0180 C8F80450 		str	r5, [r8, #4]	@ float
 328:App/Src/task.c ****             g_capAdjust.temp = rtcTemp;
 1635              		.loc 1 328 13 is_stmt 1 view .LVU433
 328:App/Src/task.c ****             g_capAdjust.temp = rtcTemp;
ARM GAS  C:\Users\86158\AppData\Local\Temp\cc7PXljM.s 			page 41


 1636              		.loc 1 328 29 is_stmt 0 view .LVU434
 1637 0184 C8F80CA0 		str	r10, [r8, #12]	@ float
 329:App/Src/task.c ****             UsbPrintf("success, temp:%.2f, best cap:%.2f, min ppm %.2f\n", g_capAdjust.temp, g_capA
 1638              		.loc 1 329 13 is_stmt 1 view .LVU435
 329:App/Src/task.c ****             UsbPrintf("success, temp:%.2f, best cap:%.2f, min ppm %.2f\n", g_capAdjust.temp, g_capA
 1639              		.loc 1 329 30 is_stmt 0 view .LVU436
 1640 0188 C8F808B0 		str	fp, [r8, #8]	@ float
 330:App/Src/task.c ****             log_printf("success, temp:%.2f, best cap:%.2f, min ppm %.2f\n", g_capAdjust.temp, g_cap
 1641              		.loc 1 330 13 is_stmt 1 view .LVU437
 1642 018c 5846     		mov	r0, fp	@ float
 1643 018e FFF7FEFF 		bl	__aeabi_f2d
 1644              	.LVL116:
 1645 0192 0646     		mov	r6, r0
 1646 0194 0F46     		mov	r7, r1
 1647 0196 DFF8F090 		ldr	r9, .L108+36
 1648 019a 5046     		mov	r0, r10	@ float
 1649 019c FFF7FEFF 		bl	__aeabi_f2d
 1650              	.LVL117:
 1651 01a0 CDE90201 		strd	r0, [sp, #8]
 1652 01a4 2846     		mov	r0, r5	@ float
 1653 01a6 FFF7FEFF 		bl	__aeabi_f2d
 1654              	.LVL118:
 1655 01aa CDE90001 		strd	r0, [sp]
 1656 01ae 3246     		mov	r2, r6
 1657 01b0 3B46     		mov	r3, r7
 1658 01b2 4846     		mov	r0, r9
 1659 01b4 FFF7FEFF 		bl	UsbPrintf
 1660              	.LVL119:
 331:App/Src/task.c ****         } else {
 1661              		.loc 1 331 13 view .LVU438
 331:App/Src/task.c ****         } else {
 1662              		.loc 1 331 106 is_stmt 0 view .LVU439
 1663 01b8 D8F80450 		ldr	r5, [r8, #4]	@ float
 1664              	.LVL120:
 331:App/Src/task.c ****         } else {
 1665              		.loc 1 331 124 view .LVU440
 1666 01bc D8F80CA0 		ldr	r10, [r8, #12]	@ float
 1667              	.LVL121:
 331:App/Src/task.c ****         } else {
 1668              		.loc 1 331 13 view .LVU441
 1669 01c0 D8F80800 		ldr	r0, [r8, #8]	@ float
 1670 01c4 FFF7FEFF 		bl	__aeabi_f2d
 1671              	.LVL122:
 1672 01c8 0646     		mov	r6, r0
 1673 01ca 0F46     		mov	r7, r1
 1674 01cc 5046     		mov	r0, r10	@ float
 1675 01ce FFF7FEFF 		bl	__aeabi_f2d
 1676              	.LVL123:
 1677 01d2 CDE90201 		strd	r0, [sp, #8]
 1678 01d6 2846     		mov	r0, r5	@ float
 1679 01d8 FFF7FEFF 		bl	__aeabi_f2d
 1680              	.LVL124:
 1681 01dc CDE90001 		strd	r0, [sp]
 1682 01e0 3246     		mov	r2, r6
 1683 01e2 3B46     		mov	r3, r7
 1684 01e4 4846     		mov	r0, r9
 1685 01e6 FFF7FEFF 		bl	log_printf
ARM GAS  C:\Users\86158\AppData\Local\Temp\cc7PXljM.s 			page 42


 1686              	.LVL125:
 1687 01ea 25E7     		b	.L85
 1688              	.LVL126:
 1689              	.L105:
 343:App/Src/task.c ****         g_capAdjust.cap = 0;
 1690              		.loc 1 343 9 is_stmt 1 view .LVU442
 343:App/Src/task.c ****         g_capAdjust.cap = 0;
 1691              		.loc 1 343 26 is_stmt 0 view .LVU443
 1692 01ec 1D4C     		ldr	r4, .L108
 1693 01ee 0123     		movs	r3, #1
 1694 01f0 2370     		strb	r3, [r4]
 344:App/Src/task.c ****         g_capAdjust.ppm = 1000;
 1695              		.loc 1 344 9 is_stmt 1 view .LVU444
 344:App/Src/task.c ****         g_capAdjust.ppm = 1000;
 1696              		.loc 1 344 25 is_stmt 0 view .LVU445
 1697 01f2 0023     		movs	r3, #0
 1698 01f4 6360     		str	r3, [r4, #4]	@ float
 345:App/Src/task.c ****         g_capAdjust.temp = system_get_rtc_temp();
 1699              		.loc 1 345 9 is_stmt 1 view .LVU446
 345:App/Src/task.c ****         g_capAdjust.temp = system_get_rtc_temp();
 1700              		.loc 1 345 25 is_stmt 0 view .LVU447
 1701 01f6 204B     		ldr	r3, .L108+20
 1702 01f8 E360     		str	r3, [r4, #12]	@ float
 346:App/Src/task.c ****         UsbPrintf("error and stop, temp:%.2f, best cap:%.2f, min ppm %.2f\n", g_capAdjust.temp, g_c
 1703              		.loc 1 346 9 is_stmt 1 view .LVU448
 346:App/Src/task.c ****         UsbPrintf("error and stop, temp:%.2f, best cap:%.2f, min ppm %.2f\n", g_capAdjust.temp, g_c
 1704              		.loc 1 346 28 is_stmt 0 view .LVU449
 1705 01fa FFF7FEFF 		bl	system_get_rtc_temp
 1706              	.LVL127:
 1707 01fe 10EE100A 		vmov	r0, s0
 346:App/Src/task.c ****         UsbPrintf("error and stop, temp:%.2f, best cap:%.2f, min ppm %.2f\n", g_capAdjust.temp, g_c
 1708              		.loc 1 346 26 view .LVU450
 1709 0202 84ED020A 		vstr.32	s0, [r4, #8]
 347:App/Src/task.c ****         log_printf("error and stop, temp:%.2f, best cap:%.2f, min ppm %.2f\n", g_capAdjust.temp, g_
 1710              		.loc 1 347 9 is_stmt 1 view .LVU451
 347:App/Src/task.c ****         log_printf("error and stop, temp:%.2f, best cap:%.2f, min ppm %.2f\n", g_capAdjust.temp, g_
 1711              		.loc 1 347 108 is_stmt 0 view .LVU452
 1712 0206 6568     		ldr	r5, [r4, #4]	@ float
 347:App/Src/task.c ****         log_printf("error and stop, temp:%.2f, best cap:%.2f, min ppm %.2f\n", g_capAdjust.temp, g_
 1713              		.loc 1 347 126 view .LVU453
 1714 0208 D4F80C90 		ldr	r9, [r4, #12]	@ float
 347:App/Src/task.c ****         log_printf("error and stop, temp:%.2f, best cap:%.2f, min ppm %.2f\n", g_capAdjust.temp, g_
 1715              		.loc 1 347 9 view .LVU454
 1716 020c FFF7FEFF 		bl	__aeabi_f2d
 1717              	.LVL128:
 1718 0210 0646     		mov	r6, r0
 1719 0212 0F46     		mov	r7, r1
 1720 0214 DFF87480 		ldr	r8, .L108+40
 1721 0218 4846     		mov	r0, r9	@ float
 1722 021a FFF7FEFF 		bl	__aeabi_f2d
 1723              	.LVL129:
 1724 021e CDE90201 		strd	r0, [sp, #8]
 1725 0222 2846     		mov	r0, r5	@ float
 1726 0224 FFF7FEFF 		bl	__aeabi_f2d
 1727              	.LVL130:
 1728 0228 CDE90001 		strd	r0, [sp]
 1729 022c 3246     		mov	r2, r6
ARM GAS  C:\Users\86158\AppData\Local\Temp\cc7PXljM.s 			page 43


 1730 022e 3B46     		mov	r3, r7
 1731 0230 4046     		mov	r0, r8
 1732 0232 FFF7FEFF 		bl	UsbPrintf
 1733              	.LVL131:
 348:App/Src/task.c ****     }
 1734              		.loc 1 348 9 is_stmt 1 view .LVU455
 348:App/Src/task.c ****     }
 1735              		.loc 1 348 109 is_stmt 0 view .LVU456
 1736 0236 6668     		ldr	r6, [r4, #4]	@ float
 348:App/Src/task.c ****     }
 1737              		.loc 1 348 127 view .LVU457
 1738 0238 E768     		ldr	r7, [r4, #12]	@ float
 348:App/Src/task.c ****     }
 1739              		.loc 1 348 9 view .LVU458
 1740 023a A068     		ldr	r0, [r4, #8]	@ float
 1741 023c FFF7FEFF 		bl	__aeabi_f2d
 1742              	.LVL132:
 1743 0240 0446     		mov	r4, r0
 1744 0242 0D46     		mov	r5, r1
 1745 0244 3846     		mov	r0, r7	@ float
 1746 0246 FFF7FEFF 		bl	__aeabi_f2d
 1747              	.LVL133:
 1748 024a CDE90201 		strd	r0, [sp, #8]
 1749 024e 3046     		mov	r0, r6	@ float
 1750 0250 FFF7FEFF 		bl	__aeabi_f2d
 1751              	.LVL134:
 1752 0254 CDE90001 		strd	r0, [sp]
 1753 0258 2246     		mov	r2, r4
 1754 025a 2B46     		mov	r3, r5
 1755 025c 4046     		mov	r0, r8
 1756 025e FFF7FEFF 		bl	log_printf
 1757              	.LVL135:
 1758              		.loc 1 350 1 view .LVU459
 1759 0262 ECE6     		b	.L84
 1760              	.L109:
 1761              		.align	2
 1762              	.L108:
 1763 0264 00000000 		.word	g_capAdjust
 1764 0268 00000C42 		.word	1108082688
 1765 026c 0000E03F 		.word	1071644672
 1766 0270 00805140 		.word	1079083008
 1767 0274 00406040 		.word	1080049664
 1768 0278 00007A44 		.word	1148846080
 1769 027c 34000000 		.word	.LC11
 1770 0280 00003940 		.word	1077477376
 1771 0284 00002040 		.word	1075838976
 1772 0288 00000000 		.word	.LC10
 1773 028c 58000000 		.word	.LC12
 1774              		.cfi_endproc
 1775              	.LFE243:
 1777              		.section	.rodata.rtc_freq_test.str1.4,"aMS",%progbits,1
 1778              		.align	2
 1779              	.LC13:
 1780 0000 73797374 		.ascii	"system temp:%.1f set init cap %.0f, adjust start..."
 1780      656D2074 
 1780      656D703A 
 1780      252E3166 
ARM GAS  C:\Users\86158\AppData\Local\Temp\cc7PXljM.s 			page 44


 1780      20736574 
 1781 0033 0A00     		.ascii	"\012\000"
 1782 0035 000000   		.align	2
 1783              	.LC14:
 1784 0038 63617020 		.ascii	"cap adjust fail, i2c error\012\000"
 1784      61646A75 
 1784      73742066 
 1784      61696C2C 
 1784      20693263 
 1785              		.align	2
 1786              	.LC15:
 1787 0054 6361705B 		.ascii	"cap[%.1f], %fHz, %.2fppm\012\000"
 1787      252E3166 
 1787      5D2C2025 
 1787      66487A2C 
 1787      20252E32 
 1788 006e 0000     		.align	2
 1789              	.LC16:
 1790 0070 64657669 		.ascii	"device no response\012\000"
 1790      6365206E 
 1790      6F207265 
 1790      73706F6E 
 1790      73650A00 
 1791              		.align	2
 1792              	.LC17:
 1793 0084 63656E74 		.ascii	"center cap in %.1f : %.2fppm\012\000"
 1793      65722063 
 1793      61702069 
 1793      6E20252E 
 1793      3166203A 
 1794              		.section	.text.rtc_freq_test,"ax",%progbits
 1795              		.align	1
 1796              		.global	rtc_freq_test
 1797              		.syntax unified
 1798              		.thumb
 1799              		.thumb_func
 1801              	rtc_freq_test:
 1802              	.LVL136:
 1803              	.LFB244:
 351:App/Src/task.c **** 
 352:App/Src/task.c **** 
 353:App/Src/task.c **** void rtc_freq_test(int mode)//调节电容测试
 354:App/Src/task.c **** {
 1804              		.loc 1 354 1 is_stmt 1 view -0
 1805              		.cfi_startproc
 1806              		@ args = 0, pretend = 0, frame = 16
 1807              		@ frame_needed = 0, uses_anonymous_args = 0
 1808              		.loc 1 354 1 is_stmt 0 view .LVU461
 1809 0000 70B5     		push	{r4, r5, r6, lr}
 1810              	.LCFI26:
 1811              		.cfi_def_cfa_offset 16
 1812              		.cfi_offset 4, -16
 1813              		.cfi_offset 5, -12
 1814              		.cfi_offset 6, -8
 1815              		.cfi_offset 14, -4
 1816 0002 2DED028B 		vpush.64	{d8}
 1817              	.LCFI27:
ARM GAS  C:\Users\86158\AppData\Local\Temp\cc7PXljM.s 			page 45


 1818              		.cfi_def_cfa_offset 24
 1819              		.cfi_offset 80, -24
 1820              		.cfi_offset 81, -20
 1821 0006 88B0     		sub	sp, sp, #32
 1822              	.LCFI28:
 1823              		.cfi_def_cfa_offset 56
 355:App/Src/task.c ****     static int testState = 0;
 1824              		.loc 1 355 5 is_stmt 1 view .LVU462
 356:App/Src/task.c ****     static uint8_t responseCount = 0;
 1825              		.loc 1 356 5 view .LVU463
 357:App/Src/task.c ****     static uint32_t lastTestTime = 0;
 1826              		.loc 1 357 5 view .LVU464
 358:App/Src/task.c ****     float temp, ppm;
 1827              		.loc 1 358 5 view .LVU465
 359:App/Src/task.c **** 	uint8_t cap[2] = {0};
 1828              		.loc 1 359 2 view .LVU466
 1829              		.loc 1 359 10 is_stmt 0 view .LVU467
 1830 0008 0023     		movs	r3, #0
 1831 000a ADF81830 		strh	r3, [sp, #24]	@ movhi
 360:App/Src/task.c ****     static float lastCap = 11;
 1832              		.loc 1 360 5 is_stmt 1 view .LVU468
 361:App/Src/task.c ****     static float minPpm = 1000;
 1833              		.loc 1 361 5 view .LVU469
 362:App/Src/task.c ****     static float minCap = 0;
 1834              		.loc 1 362 5 view .LVU470
 363:App/Src/task.c ****     static uint8_t adjustCount = 0;
 1835              		.loc 1 363 5 view .LVU471
 364:App/Src/task.c ****     uint32_t address;
 1836              		.loc 1 364 5 view .LVU472
 365:App/Src/task.c ****     uint8_t buffer[4] = {0xff};
 1837              		.loc 1 365 5 view .LVU473
 1838              		.loc 1 365 13 is_stmt 0 view .LVU474
 1839 000e FF23     		movs	r3, #255
 1840 0010 0593     		str	r3, [sp, #20]
 366:App/Src/task.c **** 
 367:App/Src/task.c ****     if (mode == FREQ_TEST_STARTING) {
 1841              		.loc 1 367 5 is_stmt 1 view .LVU475
 1842              		.loc 1 367 8 is_stmt 0 view .LVU476
 1843 0012 0128     		cmp	r0, #1
 1844 0014 0CD0     		beq	.L180
 368:App/Src/task.c ****         testState = 1;
 369:App/Src/task.c ****         return;
 370:App/Src/task.c ****     }
 371:App/Src/task.c **** 
 372:App/Src/task.c ****     switch (testState) {
 1845              		.loc 1 372 5 is_stmt 1 view .LVU477
 1846 0016 BB4B     		ldr	r3, .L186
 1847 0018 1B68     		ldr	r3, [r3]
 1848 001a 013B     		subs	r3, r3, #1
 1849 001c 052B     		cmp	r3, #5
 1850 001e 0AD8     		bhi	.L110
 1851 0020 DFE813F0 		tbh	[pc, r3, lsl #1]
 1852              	.L115:
 1853 0024 0D00     		.2byte	(.L120-.L115)/2
 1854 0026 4A00     		.2byte	(.L119-.L115)/2
 1855 0028 5A00     		.2byte	(.L118-.L115)/2
 1856 002a CD01     		.2byte	(.L117-.L115)/2
ARM GAS  C:\Users\86158\AppData\Local\Temp\cc7PXljM.s 			page 46


 1857 002c 2102     		.2byte	(.L116-.L115)/2
 1858 002e 3202     		.2byte	(.L114-.L115)/2
 1859              		.p2align 1
 1860              	.L180:
 368:App/Src/task.c ****         testState = 1;
 1861              		.loc 1 368 9 view .LVU478
 368:App/Src/task.c ****         testState = 1;
 1862              		.loc 1 368 19 is_stmt 0 view .LVU479
 1863 0030 B44B     		ldr	r3, .L186
 1864 0032 0122     		movs	r2, #1
 1865 0034 1A60     		str	r2, [r3]
 369:App/Src/task.c ****     }
 1866              		.loc 1 369 9 is_stmt 1 view .LVU480
 1867              	.LVL137:
 1868              	.L110:
 373:App/Src/task.c ****         case 0:  break;
 374:App/Src/task.c ****         case 1:
 375:App/Src/task.c ****             temp = temp_read_value(1);// read system temp
 376:App/Src/task.c ****             lastCap = rtc_init_test_cap(temp);
 377:App/Src/task.c ****             cap_list_to_uint(lastCap, cap);
 378:App/Src/task.c ****             if (rtc_set_testcap(cap) == I2C_OK) {
 379:App/Src/task.c ****                 UsbPrintf("system temp:%.1f set init cap %.0f, adjust start...\n", temp, lastCap);
 380:App/Src/task.c ****                 minPpm = 1000;
 381:App/Src/task.c ****                 testState = 2;
 382:App/Src/task.c ****                 adjustCount = 1;
 383:App/Src/task.c ****             } else {
 384:App/Src/task.c ****                 UsbPrintf("cap adjust fail, i2c error\n");
 385:App/Src/task.c ****                 log_printf("cap adjust fail, i2c error\n");
 386:App/Src/task.c ****                 g_capAdjust.flag = CAP_ADJUST_ERROR;
 387:App/Src/task.c ****                 testState = 0;
 388:App/Src/task.c ****             }
 389:App/Src/task.c ****         break;
 390:App/Src/task.c ****         case 2:
 391:App/Src/task.c ****             lastTestTime = HAL_GetTick();
 392:App/Src/task.c ****             g_lastFreq.recordTime = lastTestTime;
 393:App/Src/task.c ****             DevicePrintf(":MEAS?\n");
 394:App/Src/task.c ****             responseCount = 0;
 395:App/Src/task.c ****             testState = 3;
 396:App/Src/task.c ****         break;
 397:App/Src/task.c ****         case 3:
 398:App/Src/task.c ****             if (g_lastFreq.recordTime > lastTestTime) {
 399:App/Src/task.c ****                 ppm = (g_lastFreq.freq / CENTER_FREQENCY - 1) * 1000000;
 400:App/Src/task.c ****                 UsbPrintf("cap[%.1f], %fHz, %.2fppm\n", lastCap, g_lastFreq.freq, ppm);
 401:App/Src/task.c ****                 if (fabs(ppm) <= 0.5) {
 402:App/Src/task.c ****                     testState = 4;
 403:App/Src/task.c ****                     rtc_freq_save(CAP_ADJUST_SUCCESS, lastCap, ppm);
 404:App/Src/task.c ****                     break;
 405:App/Src/task.c ****                 } else if (fabs(ppm) < 3) {
 406:App/Src/task.c ****                     if (fabs(ppm) < fabs(minPpm)) {
 407:App/Src/task.c ****                         minPpm = ppm;
 408:App/Src/task.c ****                         minCap = lastCap;
 409:App/Src/task.c ****                     }
 410:App/Src/task.c ****                     if ((ppm > 0 && minPpm < 0) || (ppm < 0 && minPpm > 0)) {
 411:App/Src/task.c ****                         testState = 4;
 412:App/Src/task.c ****                         rtc_freq_save(CAP_ADJUST_SUCCESS, minCap, minPpm);
 413:App/Src/task.c ****                         break;
 414:App/Src/task.c ****                     }
ARM GAS  C:\Users\86158\AppData\Local\Temp\cc7PXljM.s 			page 47


 415:App/Src/task.c ****                 } else {
 416:App/Src/task.c ****                     if ((lastCap >= SD8800_CAP_LIST_MAX && ppm >= 2) || (lastCap <= SD8800_CAP_LIST
 417:App/Src/task.c ****                         rtc_freq_save(CAP_ADJUST_ERROR, lastCap, minPpm);
 418:App/Src/task.c ****                         testState = 0;
 419:App/Src/task.c ****                         break;
 420:App/Src/task.c ****                     } 
 421:App/Src/task.c ****                 }
 422:App/Src/task.c ****                 if (fabs(ppm) < fabs(minPpm)) {
 423:App/Src/task.c ****                     minPpm = ppm;
 424:App/Src/task.c ****                     minCap = lastCap;
 425:App/Src/task.c ****                 }
 426:App/Src/task.c ****                 //---------------异常次数限制，避免卡死在该环节-----------------------
 427:App/Src/task.c ****                 adjustCount++;
 428:App/Src/task.c ****                 if (adjustCount > 10) { 
 429:App/Src/task.c ****                     rtc_freq_save(CAP_ADJUST_ERROR, minCap, minPpm); 
 430:App/Src/task.c ****                     testState = 0;
 431:App/Src/task.c ****                     break;
 432:App/Src/task.c ****                 }//---------------------------------------------------------
 433:App/Src/task.c ****                 // if (fabs(temp_read_value(1) - 22) < 50) {             
 434:App/Src/task.c ****                     if (0 < ppm && ppm < 1) {
 435:App/Src/task.c ****                         lastCap += 1;
 436:App/Src/task.c ****                     } else if (-1 < ppm && ppm < 0) {
 437:App/Src/task.c ****                         lastCap -= 1;
 438:App/Src/task.c ****                     } else {
 439:App/Src/task.c ****                         lastCap = lastCap + ppm * 2.5;
 440:App/Src/task.c ****                     }
 441:App/Src/task.c ****                 // } else {
 442:App/Src/task.c ****                 //     if (0 < ppm && ppm < 2) {
 443:App/Src/task.c ****                 //         lastCap += 1;
 444:App/Src/task.c ****                 //     } else if (-2 < ppm && ppm < 0) {
 445:App/Src/task.c ****                 //         lastCap -= 1;
 446:App/Src/task.c ****                 //     } else {
 447:App/Src/task.c ****                 //         lastCap = lastCap + ppm * 2.5;
 448:App/Src/task.c ****                 //     }
 449:App/Src/task.c ****                 // }
 450:App/Src/task.c ****                 cap_list_to_uint(lastCap, cap);
 451:App/Src/task.c ****                 rtc_set_testcap(cap);
 452:App/Src/task.c ****                 testState = 2;
 453:App/Src/task.c ****             } else if (lastTestTime + 1200 < HAL_GetTick()) {
 454:App/Src/task.c ****                 UsbPrintf("device no response\n");
 455:App/Src/task.c ****                 log_printf("device no response\n");             
 456:App/Src/task.c ****                 responseCount++;
 457:App/Src/task.c ****                 if (responseCount >= 3) {//stop test
 458:App/Src/task.c ****                     testState = 0;
 459:App/Src/task.c ****                     rtc_freq_save(CAP_ADJUST_ERROR, 0, 1000);
 460:App/Src/task.c ****                 } else {
 461:App/Src/task.c ****                     lastTestTime = HAL_GetTick();
 462:App/Src/task.c ****                 }
 463:App/Src/task.c ****             }
 464:App/Src/task.c ****         break;
 465:App/Src/task.c ****         case 4:
 466:App/Src/task.c ****             temp = temp_read_value(1);
 467:App/Src/task.c ****             if ((temp < -5 && temp > -15) || (temp < 65 && temp > 55)) {
 468:App/Src/task.c ****                 address = TEST_RESULT_START_ADDR + (g_capAdjust.count - 1) * TEST_RESULT_ONE_SIZE +
 469:App/Src/task.c ****                 flash_read_data(address, buffer, 4);//根据地址调用flash函数读取4byte数据
 470:App/Src/task.c ****                 uint8_to_float(&lastCap, buffer);//类型转换为float
 471:App/Src/task.c ****                 cap_list_to_uint(lastCap, cap);//查表转换为实际电容
ARM GAS  C:\Users\86158\AppData\Local\Temp\cc7PXljM.s 			page 48


 472:App/Src/task.c ****                 if (rtc_set_testcap(cap) == I2C_OK) {//IIC写入rtc
 473:App/Src/task.c ****                     testState++;
 474:App/Src/task.c ****                 } else {
 475:App/Src/task.c ****                     rtc_freq_save(CAP_ADJUST_ERROR, lastCap, minPpm);
 476:App/Src/task.c ****                     testState = 0;
 477:App/Src/task.c ****                 }
 478:App/Src/task.c ****             } else {//不是-10和60度的点，调试正常退出
 479:App/Src/task.c ****                 g_capAdjust.flag = CAP_ADJUST_SUCCESS;
 480:App/Src/task.c ****                 testState = 0;
 481:App/Src/task.c ****             }
 482:App/Src/task.c ****         break;
 483:App/Src/task.c ****         case 5:
 484:App/Src/task.c ****             lastTestTime = HAL_GetTick();
 485:App/Src/task.c ****             g_lastFreq.recordTime = lastTestTime;
 486:App/Src/task.c ****             DevicePrintf(":MEAS?\n");
 487:App/Src/task.c ****             responseCount = 0;
 488:App/Src/task.c ****             testState++;
 489:App/Src/task.c ****         break;
 490:App/Src/task.c ****         case 6:
 491:App/Src/task.c ****             if (g_lastFreq.recordTime > lastTestTime) {
 492:App/Src/task.c ****                 ppm = (g_lastFreq.freq / CENTER_FREQENCY - 1) * 1000000;
 493:App/Src/task.c ****                 address = TEST_RESULT_START_ADDR + (g_capAdjust.count - 1) * TEST_RESULT_ONE_SIZE +
 494:App/Src/task.c ****                 temp = temp_read_value(1);
 495:App/Src/task.c ****                 if (temp > 55) { address += 4;}
 496:App/Src/task.c ****                 float_to_uint8(buffer, &ppm);
 497:App/Src/task.c ****                 flash_write_data(address, buffer, 4);
 498:App/Src/task.c ****                 UsbPrintf("center cap in %.1f : %.2fppm\n", temp, ppm);
 499:App/Src/task.c ****                 log_printf("center cap in %.1f : %.2fppm\n", temp, ppm);
 500:App/Src/task.c ****                 g_capAdjust.flag = CAP_ADJUST_SUCCESS;
 501:App/Src/task.c ****                 testState = 0;
 502:App/Src/task.c ****             } else if (lastTestTime + 1200 < HAL_GetTick()) {
 503:App/Src/task.c ****                 UsbPrintf("device no response\n");
 504:App/Src/task.c ****                 log_printf("device no response\n");             
 505:App/Src/task.c ****                 responseCount++;
 506:App/Src/task.c ****                 if (responseCount >= 3) {//stop test
 507:App/Src/task.c ****                     testState = 0;
 508:App/Src/task.c ****                     rtc_freq_save(CAP_ADJUST_ERROR, 0, 1000);
 509:App/Src/task.c ****                 } else {
 510:App/Src/task.c ****                     lastTestTime = HAL_GetTick();
 511:App/Src/task.c ****                 }
 512:App/Src/task.c ****             }
 513:App/Src/task.c ****         break;
 514:App/Src/task.c ****         default:  break;
 515:App/Src/task.c ****     }
 516:App/Src/task.c **** }
 1869              		.loc 1 516 1 is_stmt 0 view .LVU481
 1870 0036 08B0     		add	sp, sp, #32
 1871              	.LCFI29:
 1872              		.cfi_remember_state
 1873              		.cfi_def_cfa_offset 24
 1874              		@ sp needed
 1875 0038 BDEC028B 		vldm	sp!, {d8}
 1876              	.LCFI30:
 1877              		.cfi_restore 80
 1878              		.cfi_restore 81
 1879              		.cfi_def_cfa_offset 16
 1880 003c 70BD     		pop	{r4, r5, r6, pc}
ARM GAS  C:\Users\86158\AppData\Local\Temp\cc7PXljM.s 			page 49


 1881              	.LVL138:
 1882              	.L120:
 1883              	.LCFI31:
 1884              		.cfi_restore_state
 375:App/Src/task.c ****             lastCap = rtc_init_test_cap(temp);
 1885              		.loc 1 375 13 is_stmt 1 view .LVU482
 375:App/Src/task.c ****             lastCap = rtc_init_test_cap(temp);
 1886              		.loc 1 375 20 is_stmt 0 view .LVU483
 1887 003e 0120     		movs	r0, #1
 1888              	.LVL139:
 375:App/Src/task.c ****             lastCap = rtc_init_test_cap(temp);
 1889              		.loc 1 375 20 view .LVU484
 1890 0040 FFF7FEFF 		bl	temp_read_value
 1891              	.LVL140:
 1892 0044 10EE104A 		vmov	r4, s0
 1893              	.LVL141:
 376:App/Src/task.c ****             cap_list_to_uint(lastCap, cap);
 1894              		.loc 1 376 13 is_stmt 1 view .LVU485
 376:App/Src/task.c ****             cap_list_to_uint(lastCap, cap);
 1895              		.loc 1 376 23 is_stmt 0 view .LVU486
 1896 0048 FFF7FEFF 		bl	rtc_init_test_cap
 1897              	.LVL142:
 1898 004c 07EE900A 		vmov	s15, r0	@ int
 376:App/Src/task.c ****             cap_list_to_uint(lastCap, cap);
 1899              		.loc 1 376 21 view .LVU487
 1900 0050 F8EE677A 		vcvt.f32.u32	s15, s15
 1901 0054 AC4B     		ldr	r3, .L186+4
 1902 0056 C3ED007A 		vstr.32	s15, [r3]
 377:App/Src/task.c ****             if (rtc_set_testcap(cap) == I2C_OK) {
 1903              		.loc 1 377 13 is_stmt 1 view .LVU488
 1904 005a 06A9     		add	r1, sp, #24
 1905 005c FFF7FEFF 		bl	cap_list_to_uint
 1906              	.LVL143:
 378:App/Src/task.c ****                 UsbPrintf("system temp:%.1f set init cap %.0f, adjust start...\n", temp, lastCap);
 1907              		.loc 1 378 13 view .LVU489
 378:App/Src/task.c ****                 UsbPrintf("system temp:%.1f set init cap %.0f, adjust start...\n", temp, lastCap);
 1908              		.loc 1 378 17 is_stmt 0 view .LVU490
 1909 0060 06A8     		add	r0, sp, #24
 1910 0062 FFF7FEFF 		bl	rtc_set_testcap
 1911              	.LVL144:
 378:App/Src/task.c ****                 UsbPrintf("system temp:%.1f set init cap %.0f, adjust start...\n", temp, lastCap);
 1912              		.loc 1 378 16 view .LVU491
 1913 0066 C8B9     		cbnz	r0, .L121
 379:App/Src/task.c ****                 minPpm = 1000;
 1914              		.loc 1 379 17 is_stmt 1 view .LVU492
 1915 0068 2046     		mov	r0, r4	@ float
 1916 006a FFF7FEFF 		bl	__aeabi_f2d
 1917              	.LVL145:
 1918 006e 0446     		mov	r4, r0
 1919              	.LVL146:
 379:App/Src/task.c ****                 minPpm = 1000;
 1920              		.loc 1 379 17 is_stmt 0 view .LVU493
 1921 0070 0D46     		mov	r5, r1
 1922 0072 A54B     		ldr	r3, .L186+4
 1923 0074 1868     		ldr	r0, [r3]	@ float
 1924 0076 FFF7FEFF 		bl	__aeabi_f2d
 1925              	.LVL147:
ARM GAS  C:\Users\86158\AppData\Local\Temp\cc7PXljM.s 			page 50


 1926 007a CDE90001 		strd	r0, [sp]
 1927 007e 2246     		mov	r2, r4
 1928 0080 2B46     		mov	r3, r5
 1929 0082 A248     		ldr	r0, .L186+8
 1930 0084 FFF7FEFF 		bl	UsbPrintf
 1931              	.LVL148:
 380:App/Src/task.c ****                 testState = 2;
 1932              		.loc 1 380 17 is_stmt 1 view .LVU494
 380:App/Src/task.c ****                 testState = 2;
 1933              		.loc 1 380 24 is_stmt 0 view .LVU495
 1934 0088 A14B     		ldr	r3, .L186+12
 1935 008a A24A     		ldr	r2, .L186+16
 1936 008c 1A60     		str	r2, [r3]	@ float
 381:App/Src/task.c ****                 adjustCount = 1;
 1937              		.loc 1 381 17 is_stmt 1 view .LVU496
 381:App/Src/task.c ****                 adjustCount = 1;
 1938              		.loc 1 381 27 is_stmt 0 view .LVU497
 1939 008e 9D4B     		ldr	r3, .L186
 1940 0090 0222     		movs	r2, #2
 1941 0092 1A60     		str	r2, [r3]
 382:App/Src/task.c ****             } else {
 1942              		.loc 1 382 17 is_stmt 1 view .LVU498
 382:App/Src/task.c ****             } else {
 1943              		.loc 1 382 29 is_stmt 0 view .LVU499
 1944 0094 A04B     		ldr	r3, .L186+20
 1945 0096 0122     		movs	r2, #1
 1946 0098 1A70     		strb	r2, [r3]
 1947 009a CCE7     		b	.L110
 1948              	.LVL149:
 1949              	.L121:
 384:App/Src/task.c ****                 log_printf("cap adjust fail, i2c error\n");
 1950              		.loc 1 384 17 is_stmt 1 view .LVU500
 1951 009c 9F4C     		ldr	r4, .L186+24
 1952              	.LVL150:
 384:App/Src/task.c ****                 log_printf("cap adjust fail, i2c error\n");
 1953              		.loc 1 384 17 is_stmt 0 view .LVU501
 1954 009e 2046     		mov	r0, r4
 1955 00a0 FFF7FEFF 		bl	UsbPrintf
 1956              	.LVL151:
 385:App/Src/task.c ****                 g_capAdjust.flag = CAP_ADJUST_ERROR;
 1957              		.loc 1 385 17 is_stmt 1 view .LVU502
 1958 00a4 2046     		mov	r0, r4
 1959 00a6 FFF7FEFF 		bl	log_printf
 1960              	.LVL152:
 386:App/Src/task.c ****                 testState = 0;
 1961              		.loc 1 386 17 view .LVU503
 386:App/Src/task.c ****                 testState = 0;
 1962              		.loc 1 386 34 is_stmt 0 view .LVU504
 1963 00aa 9D4B     		ldr	r3, .L186+28
 1964 00ac 0122     		movs	r2, #1
 1965 00ae 1A70     		strb	r2, [r3]
 387:App/Src/task.c ****             }
 1966              		.loc 1 387 17 is_stmt 1 view .LVU505
 387:App/Src/task.c ****             }
 1967              		.loc 1 387 27 is_stmt 0 view .LVU506
 1968 00b0 944B     		ldr	r3, .L186
 1969 00b2 0022     		movs	r2, #0
ARM GAS  C:\Users\86158\AppData\Local\Temp\cc7PXljM.s 			page 51


 1970 00b4 1A60     		str	r2, [r3]
 1971 00b6 BEE7     		b	.L110
 1972              	.LVL153:
 1973              	.L119:
 391:App/Src/task.c ****             g_lastFreq.recordTime = lastTestTime;
 1974              		.loc 1 391 13 is_stmt 1 view .LVU507
 391:App/Src/task.c ****             g_lastFreq.recordTime = lastTestTime;
 1975              		.loc 1 391 28 is_stmt 0 view .LVU508
 1976 00b8 FFF7FEFF 		bl	HAL_GetTick
 1977              	.LVL154:
 391:App/Src/task.c ****             g_lastFreq.recordTime = lastTestTime;
 1978              		.loc 1 391 26 view .LVU509
 1979 00bc 994B     		ldr	r3, .L186+32
 1980 00be 1860     		str	r0, [r3]
 392:App/Src/task.c ****             DevicePrintf(":MEAS?\n");
 1981              		.loc 1 392 13 is_stmt 1 view .LVU510
 392:App/Src/task.c ****             DevicePrintf(":MEAS?\n");
 1982              		.loc 1 392 35 is_stmt 0 view .LVU511
 1983 00c0 994B     		ldr	r3, .L186+36
 1984 00c2 1860     		str	r0, [r3]
 393:App/Src/task.c ****             responseCount = 0;
 1985              		.loc 1 393 13 is_stmt 1 view .LVU512
 1986 00c4 9948     		ldr	r0, .L186+40
 1987 00c6 FFF7FEFF 		bl	DevicePrintf
 1988              	.LVL155:
 394:App/Src/task.c ****             testState = 3;
 1989              		.loc 1 394 13 view .LVU513
 394:App/Src/task.c ****             testState = 3;
 1990              		.loc 1 394 27 is_stmt 0 view .LVU514
 1991 00ca 994B     		ldr	r3, .L186+44
 1992 00cc 0022     		movs	r2, #0
 1993 00ce 1A70     		strb	r2, [r3]
 395:App/Src/task.c ****         break;
 1994              		.loc 1 395 13 is_stmt 1 view .LVU515
 395:App/Src/task.c ****         break;
 1995              		.loc 1 395 23 is_stmt 0 view .LVU516
 1996 00d0 8C4B     		ldr	r3, .L186
 1997 00d2 0322     		movs	r2, #3
 1998 00d4 1A60     		str	r2, [r3]
 396:App/Src/task.c ****         case 3:
 1999              		.loc 1 396 9 is_stmt 1 view .LVU517
 2000 00d6 AEE7     		b	.L110
 2001              	.LVL156:
 2002              	.L118:
 398:App/Src/task.c ****                 ppm = (g_lastFreq.freq / CENTER_FREQENCY - 1) * 1000000;
 2003              		.loc 1 398 13 view .LVU518
 398:App/Src/task.c ****                 ppm = (g_lastFreq.freq / CENTER_FREQENCY - 1) * 1000000;
 2004              		.loc 1 398 27 is_stmt 0 view .LVU519
 2005 00d8 934B     		ldr	r3, .L186+36
 2006 00da 1A68     		ldr	r2, [r3]
 398:App/Src/task.c ****                 ppm = (g_lastFreq.freq / CENTER_FREQENCY - 1) * 1000000;
 2007              		.loc 1 398 39 view .LVU520
 2008 00dc 914B     		ldr	r3, .L186+32
 2009 00de 1C68     		ldr	r4, [r3]
 398:App/Src/task.c ****                 ppm = (g_lastFreq.freq / CENTER_FREQENCY - 1) * 1000000;
 2010              		.loc 1 398 16 view .LVU521
 2011 00e0 A242     		cmp	r2, r4
ARM GAS  C:\Users\86158\AppData\Local\Temp\cc7PXljM.s 			page 52


 2012 00e2 40F24781 		bls	.L122
 399:App/Src/task.c ****                 UsbPrintf("cap[%.1f], %fHz, %.2fppm\n", lastCap, g_lastFreq.freq, ppm);
 2013              		.loc 1 399 17 is_stmt 1 view .LVU522
 399:App/Src/task.c ****                 UsbPrintf("cap[%.1f], %fHz, %.2fppm\n", lastCap, g_lastFreq.freq, ppm);
 2014              		.loc 1 399 34 is_stmt 0 view .LVU523
 2015 00e6 904B     		ldr	r3, .L186+36
 2016 00e8 D3ED018A 		vldr.32	s17, [r3, #4]
 399:App/Src/task.c ****                 UsbPrintf("cap[%.1f], %fHz, %.2fppm\n", lastCap, g_lastFreq.freq, ppm);
 2017              		.loc 1 399 40 view .LVU524
 2018 00ec 9FED918A 		vldr.32	s16, .L186+48
 2019 00f0 28EE888A 		vmul.f32	s16, s17, s16
 399:App/Src/task.c ****                 UsbPrintf("cap[%.1f], %fHz, %.2fppm\n", lastCap, g_lastFreq.freq, ppm);
 2020              		.loc 1 399 58 view .LVU525
 2021 00f4 F7EE007A 		vmov.f32	s15, #1.0e+0
 2022 00f8 38EE678A 		vsub.f32	s16, s16, s15
 399:App/Src/task.c ****                 UsbPrintf("cap[%.1f], %fHz, %.2fppm\n", lastCap, g_lastFreq.freq, ppm);
 2023              		.loc 1 399 63 view .LVU526
 2024 00fc DFED8E7A 		vldr.32	s15, .L186+52
 2025 0100 28EE278A 		vmul.f32	s16, s16, s15
 399:App/Src/task.c ****                 UsbPrintf("cap[%.1f], %fHz, %.2fppm\n", lastCap, g_lastFreq.freq, ppm);
 2026              		.loc 1 399 21 view .LVU527
 2027 0104 8DED078A 		vstr.32	s16, [sp, #28]
 400:App/Src/task.c ****                 if (fabs(ppm) <= 0.5) {
 2028              		.loc 1 400 17 is_stmt 1 view .LVU528
 2029 0108 7F4B     		ldr	r3, .L186+4
 2030 010a 1868     		ldr	r0, [r3]	@ float
 2031              	.LVL157:
 400:App/Src/task.c ****                 if (fabs(ppm) <= 0.5) {
 2032              		.loc 1 400 17 is_stmt 0 view .LVU529
 2033 010c FFF7FEFF 		bl	__aeabi_f2d
 2034              	.LVL158:
 2035 0110 0446     		mov	r4, r0
 2036 0112 0D46     		mov	r5, r1
 2037 0114 18EE100A 		vmov	r0, s16
 2038 0118 FFF7FEFF 		bl	__aeabi_f2d
 2039              	.LVL159:
 2040 011c CDE90201 		strd	r0, [sp, #8]
 2041 0120 18EE900A 		vmov	r0, s17
 2042 0124 FFF7FEFF 		bl	__aeabi_f2d
 2043              	.LVL160:
 2044 0128 CDE90001 		strd	r0, [sp]
 2045 012c 2246     		mov	r2, r4
 2046 012e 2B46     		mov	r3, r5
 2047 0130 8248     		ldr	r0, .L186+56
 2048 0132 FFF7FEFF 		bl	UsbPrintf
 2049              	.LVL161:
 401:App/Src/task.c ****                     testState = 4;
 2050              		.loc 1 401 17 is_stmt 1 view .LVU530
 401:App/Src/task.c ****                     testState = 4;
 2051              		.loc 1 401 21 is_stmt 0 view .LVU531
 2052 0136 DDED070A 		vldr.32	s1, [sp, #28]
 2053 013a F0EEE07A 		vabs.f32	s15, s1
 401:App/Src/task.c ****                     testState = 4;
 2054              		.loc 1 401 20 view .LVU532
 2055 013e B6EE007A 		vmov.f32	s14, #5.0e-1
 2056 0142 F4EEC77A 		vcmpe.f32	s15, s14
 2057 0146 F1EE10FA 		vmrs	APSR_nzcv, FPSCR
ARM GAS  C:\Users\86158\AppData\Local\Temp\cc7PXljM.s 			page 53


 2058 014a 40F28380 		bls	.L181
 405:App/Src/task.c ****                     if (fabs(ppm) < fabs(minPpm)) {
 2059              		.loc 1 405 24 is_stmt 1 view .LVU533
 405:App/Src/task.c ****                     if (fabs(ppm) < fabs(minPpm)) {
 2060              		.loc 1 405 27 is_stmt 0 view .LVU534
 2061 014e B0EE087A 		vmov.f32	s14, #3.0e+0
 2062 0152 F4EEC77A 		vcmpe.f32	s15, s14
 2063 0156 F1EE10FA 		vmrs	APSR_nzcv, FPSCR
 2064 015a 40F19A80 		bpl	.L178
 406:App/Src/task.c ****                         minPpm = ppm;
 2065              		.loc 1 406 21 is_stmt 1 view .LVU535
 406:App/Src/task.c ****                         minPpm = ppm;
 2066              		.loc 1 406 37 is_stmt 0 view .LVU536
 2067 015e 6C4B     		ldr	r3, .L186+12
 2068 0160 93ED007A 		vldr.32	s14, [r3]
 2069 0164 B0EEC77A 		vabs.f32	s14, s14
 406:App/Src/task.c ****                         minPpm = ppm;
 2070              		.loc 1 406 24 view .LVU537
 2071 0168 F4EEC77A 		vcmpe.f32	s15, s14
 2072 016c F1EE10FA 		vmrs	APSR_nzcv, FPSCR
 2073 0170 05D5     		bpl	.L127
 407:App/Src/task.c ****                         minCap = lastCap;
 2074              		.loc 1 407 25 is_stmt 1 view .LVU538
 407:App/Src/task.c ****                         minCap = lastCap;
 2075              		.loc 1 407 32 is_stmt 0 view .LVU539
 2076 0172 C3ED000A 		vstr.32	s1, [r3]
 408:App/Src/task.c ****                     }
 2077              		.loc 1 408 25 is_stmt 1 view .LVU540
 408:App/Src/task.c ****                     }
 2078              		.loc 1 408 32 is_stmt 0 view .LVU541
 2079 0176 644B     		ldr	r3, .L186+4
 2080 0178 1A68     		ldr	r2, [r3]	@ float
 2081 017a 714B     		ldr	r3, .L186+60
 2082 017c 1A60     		str	r2, [r3]	@ float
 2083              	.L127:
 410:App/Src/task.c ****                         testState = 4;
 2084              		.loc 1 410 21 is_stmt 1 view .LVU542
 410:App/Src/task.c ****                         testState = 4;
 2085              		.loc 1 410 24 is_stmt 0 view .LVU543
 2086 017e F5EEC00A 		vcmpe.f32	s1, #0
 2087 0182 F1EE10FA 		vmrs	APSR_nzcv, FPSCR
 2088 0186 07DD     		ble	.L129
 410:App/Src/task.c ****                         testState = 4;
 2089              		.loc 1 410 44 discriminator 1 view .LVU544
 2090 0188 614B     		ldr	r3, .L186+12
 2091 018a 93ED007A 		vldr.32	s14, [r3]
 410:App/Src/task.c ****                         testState = 4;
 2092              		.loc 1 410 34 discriminator 1 view .LVU545
 2093 018e B5EEC07A 		vcmpe.f32	s14, #0
 2094 0192 F1EE10FA 		vmrs	APSR_nzcv, FPSCR
 2095 0196 6FD4     		bmi	.L131
 2096              	.L129:
 410:App/Src/task.c ****                         testState = 4;
 2097              		.loc 1 410 49 discriminator 3 view .LVU546
 2098 0198 F5EEC00A 		vcmpe.f32	s1, #0
 2099 019c F1EE10FA 		vmrs	APSR_nzcv, FPSCR
 2100 01a0 62D4     		bmi	.L182
ARM GAS  C:\Users\86158\AppData\Local\Temp\cc7PXljM.s 			page 54


 2101              	.L132:
 422:App/Src/task.c ****                     minPpm = ppm;
 2102              		.loc 1 422 17 is_stmt 1 view .LVU547
 422:App/Src/task.c ****                     minPpm = ppm;
 2103              		.loc 1 422 33 is_stmt 0 view .LVU548
 2104 01a2 5B4B     		ldr	r3, .L186+12
 2105 01a4 93ED007A 		vldr.32	s14, [r3]
 2106 01a8 B0EEC77A 		vabs.f32	s14, s14
 422:App/Src/task.c ****                     minPpm = ppm;
 2107              		.loc 1 422 20 view .LVU549
 2108 01ac F4EEC77A 		vcmpe.f32	s15, s14
 2109 01b0 F1EE10FA 		vmrs	APSR_nzcv, FPSCR
 2110 01b4 05D5     		bpl	.L140
 423:App/Src/task.c ****                     minCap = lastCap;
 2111              		.loc 1 423 21 is_stmt 1 view .LVU550
 423:App/Src/task.c ****                     minCap = lastCap;
 2112              		.loc 1 423 28 is_stmt 0 view .LVU551
 2113 01b6 C3ED000A 		vstr.32	s1, [r3]
 424:App/Src/task.c ****                 }
 2114              		.loc 1 424 21 is_stmt 1 view .LVU552
 424:App/Src/task.c ****                 }
 2115              		.loc 1 424 28 is_stmt 0 view .LVU553
 2116 01ba 534B     		ldr	r3, .L186+4
 2117 01bc 1A68     		ldr	r2, [r3]	@ float
 2118 01be 604B     		ldr	r3, .L186+60
 2119 01c0 1A60     		str	r2, [r3]	@ float
 2120              	.L140:
 427:App/Src/task.c ****                 if (adjustCount > 10) { 
 2121              		.loc 1 427 17 is_stmt 1 view .LVU554
 427:App/Src/task.c ****                 if (adjustCount > 10) { 
 2122              		.loc 1 427 28 is_stmt 0 view .LVU555
 2123 01c2 554A     		ldr	r2, .L186+20
 2124 01c4 1378     		ldrb	r3, [r2]	@ zero_extendqisi2
 2125 01c6 0133     		adds	r3, r3, #1
 2126 01c8 DBB2     		uxtb	r3, r3
 2127 01ca 1370     		strb	r3, [r2]
 428:App/Src/task.c ****                     rtc_freq_save(CAP_ADJUST_ERROR, minCap, minPpm); 
 2128              		.loc 1 428 17 is_stmt 1 view .LVU556
 428:App/Src/task.c ****                     rtc_freq_save(CAP_ADJUST_ERROR, minCap, minPpm); 
 2129              		.loc 1 428 20 is_stmt 0 view .LVU557
 2130 01cc 0A2B     		cmp	r3, #10
 2131 01ce 00F28B80 		bhi	.L183
 434:App/Src/task.c ****                         lastCap += 1;
 2132              		.loc 1 434 21 is_stmt 1 view .LVU558
 434:App/Src/task.c ****                         lastCap += 1;
 2133              		.loc 1 434 24 is_stmt 0 view .LVU559
 2134 01d2 F5EEC00A 		vcmpe.f32	s1, #0
 2135 01d6 F1EE10FA 		vmrs	APSR_nzcv, FPSCR
 2136 01da 07DD     		ble	.L143
 434:App/Src/task.c ****                         lastCap += 1;
 2137              		.loc 1 434 33 discriminator 1 view .LVU560
 2138 01dc F7EE007A 		vmov.f32	s15, #1.0e+0
 2139 01e0 F4EEE70A 		vcmpe.f32	s1, s15
 2140 01e4 F1EE10FA 		vmrs	APSR_nzcv, FPSCR
 2141 01e8 00F1B080 		bmi	.L184
 2142              	.L143:
 436:App/Src/task.c ****                         lastCap -= 1;
ARM GAS  C:\Users\86158\AppData\Local\Temp\cc7PXljM.s 			page 55


 2143              		.loc 1 436 28 is_stmt 1 view .LVU561
 436:App/Src/task.c ****                         lastCap -= 1;
 2144              		.loc 1 436 31 is_stmt 0 view .LVU562
 2145 01ec FFEE007A 		vmov.f32	s15, #-1.0e+0
 2146 01f0 F4EEE70A 		vcmpe.f32	s1, s15
 2147 01f4 F1EE10FA 		vmrs	APSR_nzcv, FPSCR
 2148 01f8 05DD     		ble	.L147
 436:App/Src/task.c ****                         lastCap -= 1;
 2149              		.loc 1 436 41 discriminator 1 view .LVU563
 2150 01fa F5EEC00A 		vcmpe.f32	s1, #0
 2151 01fe F1EE10FA 		vmrs	APSR_nzcv, FPSCR
 2152 0202 00F1AD80 		bmi	.L185
 2153              	.L147:
 439:App/Src/task.c ****                     }
 2154              		.loc 1 439 25 is_stmt 1 view .LVU564
 439:App/Src/task.c ****                     }
 2155              		.loc 1 439 49 is_stmt 0 view .LVU565
 2156 0206 10EE900A 		vmov	r0, s1
 2157 020a FFF7FEFF 		bl	__aeabi_f2d
 2158              	.LVL162:
 2159 020e 0022     		movs	r2, #0
 2160 0210 4C4B     		ldr	r3, .L186+64
 2161 0212 FFF7FEFF 		bl	__aeabi_dmul
 2162              	.LVL163:
 2163 0216 0446     		mov	r4, r0
 2164 0218 0D46     		mov	r5, r1
 439:App/Src/task.c ****                     }
 2165              		.loc 1 439 43 view .LVU566
 2166 021a 3B4E     		ldr	r6, .L186+4
 2167 021c 3068     		ldr	r0, [r6]	@ float
 2168 021e FFF7FEFF 		bl	__aeabi_f2d
 2169              	.LVL164:
 2170 0222 2246     		mov	r2, r4
 2171 0224 2B46     		mov	r3, r5
 2172 0226 FFF7FEFF 		bl	__aeabi_dadd
 2173              	.LVL165:
 2174 022a FFF7FEFF 		bl	__aeabi_d2f
 2175              	.LVL166:
 439:App/Src/task.c ****                     }
 2176              		.loc 1 439 33 view .LVU567
 2177 022e 3060     		str	r0, [r6]	@ float
 2178              	.L146:
 450:App/Src/task.c ****                 rtc_set_testcap(cap);
 2179              		.loc 1 450 17 is_stmt 1 view .LVU568
 2180 0230 354B     		ldr	r3, .L186+4
 2181 0232 D3ED007A 		vldr.32	s15, [r3]
 2182 0236 FCEEE77A 		vcvt.u32.f32	s15, s15
 2183 023a 06A9     		add	r1, sp, #24
 2184 023c 17EE903A 		vmov	r3, s15	@ int
 2185 0240 98B2     		uxth	r0, r3
 2186 0242 FFF7FEFF 		bl	cap_list_to_uint
 2187              	.LVL167:
 451:App/Src/task.c ****                 testState = 2;
 2188              		.loc 1 451 17 view .LVU569
 2189 0246 06A8     		add	r0, sp, #24
 2190 0248 FFF7FEFF 		bl	rtc_set_testcap
 2191              	.LVL168:
ARM GAS  C:\Users\86158\AppData\Local\Temp\cc7PXljM.s 			page 56


 452:App/Src/task.c ****             } else if (lastTestTime + 1200 < HAL_GetTick()) {
 2192              		.loc 1 452 17 view .LVU570
 452:App/Src/task.c ****             } else if (lastTestTime + 1200 < HAL_GetTick()) {
 2193              		.loc 1 452 27 is_stmt 0 view .LVU571
 2194 024c 2D4B     		ldr	r3, .L186
 2195 024e 0222     		movs	r2, #2
 2196 0250 1A60     		str	r2, [r3]
 2197 0252 F0E6     		b	.L110
 2198              	.L181:
 402:App/Src/task.c ****                     rtc_freq_save(CAP_ADJUST_SUCCESS, lastCap, ppm);
 2199              		.loc 1 402 21 is_stmt 1 view .LVU572
 402:App/Src/task.c ****                     rtc_freq_save(CAP_ADJUST_SUCCESS, lastCap, ppm);
 2200              		.loc 1 402 31 is_stmt 0 view .LVU573
 2201 0254 2B4B     		ldr	r3, .L186
 2202 0256 0422     		movs	r2, #4
 2203 0258 1A60     		str	r2, [r3]
 403:App/Src/task.c ****                     break;
 2204              		.loc 1 403 21 is_stmt 1 view .LVU574
 2205 025a 2B4B     		ldr	r3, .L186+4
 2206 025c 93ED000A 		vldr.32	s0, [r3]
 2207 0260 0220     		movs	r0, #2
 2208 0262 FFF7FEFF 		bl	rtc_freq_save
 2209              	.LVL169:
 404:App/Src/task.c ****                 } else if (fabs(ppm) < 3) {
 2210              		.loc 1 404 21 view .LVU575
 2211 0266 E6E6     		b	.L110
 2212              	.L182:
 410:App/Src/task.c ****                         testState = 4;
 2213              		.loc 1 410 71 is_stmt 0 discriminator 4 view .LVU576
 2214 0268 294B     		ldr	r3, .L186+12
 2215 026a 93ED007A 		vldr.32	s14, [r3]
 410:App/Src/task.c ****                         testState = 4;
 2216              		.loc 1 410 61 discriminator 4 view .LVU577
 2217 026e B5EEC07A 		vcmpe.f32	s14, #0
 2218 0272 F1EE10FA 		vmrs	APSR_nzcv, FPSCR
 2219 0276 94DD     		ble	.L132
 2220              	.L131:
 411:App/Src/task.c ****                         rtc_freq_save(CAP_ADJUST_SUCCESS, minCap, minPpm);
 2221              		.loc 1 411 25 is_stmt 1 view .LVU578
 411:App/Src/task.c ****                         rtc_freq_save(CAP_ADJUST_SUCCESS, minCap, minPpm);
 2222              		.loc 1 411 35 is_stmt 0 view .LVU579
 2223 0278 224B     		ldr	r3, .L186
 2224 027a 0422     		movs	r2, #4
 2225 027c 1A60     		str	r2, [r3]
 412:App/Src/task.c ****                         break;
 2226              		.loc 1 412 25 is_stmt 1 view .LVU580
 2227 027e 244B     		ldr	r3, .L186+12
 2228 0280 D3ED000A 		vldr.32	s1, [r3]
 2229 0284 2E4B     		ldr	r3, .L186+60
 2230 0286 93ED000A 		vldr.32	s0, [r3]
 2231 028a 0220     		movs	r0, #2
 2232 028c FFF7FEFF 		bl	rtc_freq_save
 2233              	.LVL170:
 413:App/Src/task.c ****                     }
 2234              		.loc 1 413 25 view .LVU581
 2235 0290 D1E6     		b	.L110
 2236              	.L178:
ARM GAS  C:\Users\86158\AppData\Local\Temp\cc7PXljM.s 			page 57


 416:App/Src/task.c ****                         rtc_freq_save(CAP_ADJUST_ERROR, lastCap, minPpm);
 2237              		.loc 1 416 21 view .LVU582
 416:App/Src/task.c ****                         rtc_freq_save(CAP_ADJUST_ERROR, lastCap, minPpm);
 2238              		.loc 1 416 34 is_stmt 0 view .LVU583
 2239 0292 1D4B     		ldr	r3, .L186+4
 2240 0294 93ED000A 		vldr.32	s0, [r3]
 416:App/Src/task.c ****                         rtc_freq_save(CAP_ADJUST_ERROR, lastCap, minPpm);
 2241              		.loc 1 416 24 view .LVU584
 2242 0298 9FED2B7A 		vldr.32	s14, .L186+68
 2243 029c B4EEC70A 		vcmpe.f32	s0, s14
 2244 02a0 F1EE10FA 		vmrs	APSR_nzcv, FPSCR
 2245 02a4 06DB     		blt	.L135
 416:App/Src/task.c ****                         rtc_freq_save(CAP_ADJUST_ERROR, lastCap, minPpm);
 2246              		.loc 1 416 57 discriminator 1 view .LVU585
 2247 02a6 B0EE007A 		vmov.f32	s14, #2.0e+0
 2248 02aa F4EEC70A 		vcmpe.f32	s1, s14
 2249 02ae F1EE10FA 		vmrs	APSR_nzcv, FPSCR
 2250 02b2 0FDA     		bge	.L137
 2251              	.L135:
 416:App/Src/task.c ****                         rtc_freq_save(CAP_ADJUST_ERROR, lastCap, minPpm);
 2252              		.loc 1 416 70 discriminator 3 view .LVU586
 2253 02b4 B7EE007A 		vmov.f32	s14, #1.0e+0
 2254 02b8 B4EEC70A 		vcmpe.f32	s0, s14
 2255 02bc F1EE10FA 		vmrs	APSR_nzcv, FPSCR
 2256 02c0 3FF66FAF 		bhi	.L132
 416:App/Src/task.c ****                         rtc_freq_save(CAP_ADJUST_ERROR, lastCap, minPpm);
 2257              		.loc 1 416 106 discriminator 4 view .LVU587
 2258 02c4 B8EE007A 		vmov.f32	s14, #-2.0e+0
 2259 02c8 F4EEC70A 		vcmpe.f32	s1, s14
 2260 02cc F1EE10FA 		vmrs	APSR_nzcv, FPSCR
 2261 02d0 3FF667AF 		bhi	.L132
 2262              	.L137:
 417:App/Src/task.c ****                         testState = 0;
 2263              		.loc 1 417 25 is_stmt 1 view .LVU588
 2264 02d4 0E4B     		ldr	r3, .L186+12
 2265 02d6 D3ED000A 		vldr.32	s1, [r3]
 2266 02da 0120     		movs	r0, #1
 2267 02dc FFF7FEFF 		bl	rtc_freq_save
 2268              	.LVL171:
 418:App/Src/task.c ****                         break;
 2269              		.loc 1 418 25 view .LVU589
 418:App/Src/task.c ****                         break;
 2270              		.loc 1 418 35 is_stmt 0 view .LVU590
 2271 02e0 084B     		ldr	r3, .L186
 2272 02e2 0022     		movs	r2, #0
 2273 02e4 1A60     		str	r2, [r3]
 419:App/Src/task.c ****                     } 
 2274              		.loc 1 419 25 is_stmt 1 view .LVU591
 2275 02e6 A6E6     		b	.L110
 2276              	.L183:
 429:App/Src/task.c ****                     testState = 0;
 2277              		.loc 1 429 21 view .LVU592
 2278 02e8 094B     		ldr	r3, .L186+12
 2279 02ea D3ED000A 		vldr.32	s1, [r3]
 2280 02ee 144B     		ldr	r3, .L186+60
 2281 02f0 93ED000A 		vldr.32	s0, [r3]
 2282 02f4 0120     		movs	r0, #1
ARM GAS  C:\Users\86158\AppData\Local\Temp\cc7PXljM.s 			page 58


 2283 02f6 FFF7FEFF 		bl	rtc_freq_save
 2284              	.LVL172:
 430:App/Src/task.c ****                     break;
 2285              		.loc 1 430 21 view .LVU593
 430:App/Src/task.c ****                     break;
 2286              		.loc 1 430 31 is_stmt 0 view .LVU594
 2287 02fa 024B     		ldr	r3, .L186
 2288 02fc 0022     		movs	r2, #0
 2289 02fe 1A60     		str	r2, [r3]
 431:App/Src/task.c ****                 }//---------------------------------------------------------
 2290              		.loc 1 431 21 is_stmt 1 view .LVU595
 2291 0300 99E6     		b	.L110
 2292              	.L187:
 2293 0302 00BF     		.align	2
 2294              	.L186:
 2295 0304 00000000 		.word	.LANCHOR16
 2296 0308 00000000 		.word	.LANCHOR17
 2297 030c 00000000 		.word	.LC13
 2298 0310 00000000 		.word	.LANCHOR18
 2299 0314 00007A44 		.word	1148846080
 2300 0318 00000000 		.word	.LANCHOR19
 2301 031c 38000000 		.word	.LC14
 2302 0320 00000000 		.word	g_capAdjust
 2303 0324 00000000 		.word	.LANCHOR20
 2304 0328 00000000 		.word	.LANCHOR9
 2305 032c 3C000000 		.word	.LC5
 2306 0330 00000000 		.word	.LANCHOR21
 2307 0334 0000803C 		.word	1015021568
 2308 0338 00247449 		.word	1232348160
 2309 033c 54000000 		.word	.LC15
 2310 0340 00000000 		.word	.LANCHOR22
 2311 0344 00000440 		.word	1074003968
 2312 0348 00004B44 		.word	1145765888
 2313              	.L184:
 435:App/Src/task.c ****                     } else if (-1 < ppm && ppm < 0) {
 2314              		.loc 1 435 25 view .LVU596
 435:App/Src/task.c ****                     } else if (-1 < ppm && ppm < 0) {
 2315              		.loc 1 435 33 is_stmt 0 view .LVU597
 2316 034c 8C4B     		ldr	r3, .L188
 2317 034e D3ED007A 		vldr.32	s15, [r3]
 2318 0352 B7EE007A 		vmov.f32	s14, #1.0e+0
 2319 0356 77EE877A 		vadd.f32	s15, s15, s14
 2320 035a C3ED007A 		vstr.32	s15, [r3]
 2321 035e 67E7     		b	.L146
 2322              	.L185:
 437:App/Src/task.c ****                     } else {
 2323              		.loc 1 437 25 is_stmt 1 view .LVU598
 437:App/Src/task.c ****                     } else {
 2324              		.loc 1 437 33 is_stmt 0 view .LVU599
 2325 0360 874B     		ldr	r3, .L188
 2326 0362 D3ED007A 		vldr.32	s15, [r3]
 2327 0366 B7EE007A 		vmov.f32	s14, #1.0e+0
 2328 036a 77EEC77A 		vsub.f32	s15, s15, s14
 2329 036e C3ED007A 		vstr.32	s15, [r3]
 2330 0372 5DE7     		b	.L146
 2331              	.LVL173:
 2332              	.L122:
ARM GAS  C:\Users\86158\AppData\Local\Temp\cc7PXljM.s 			page 59


 453:App/Src/task.c ****                 UsbPrintf("device no response\n");
 2333              		.loc 1 453 20 is_stmt 1 view .LVU600
 453:App/Src/task.c ****                 UsbPrintf("device no response\n");
 2334              		.loc 1 453 37 is_stmt 0 view .LVU601
 2335 0374 04F59664 		add	r4, r4, #1200
 453:App/Src/task.c ****                 UsbPrintf("device no response\n");
 2336              		.loc 1 453 46 view .LVU602
 2337 0378 FFF7FEFF 		bl	HAL_GetTick
 2338              	.LVL174:
 453:App/Src/task.c ****                 UsbPrintf("device no response\n");
 2339              		.loc 1 453 23 view .LVU603
 2340 037c 8442     		cmp	r4, r0
 2341 037e BFF45AAE 		bcs	.L110
 454:App/Src/task.c ****                 log_printf("device no response\n");             
 2342              		.loc 1 454 17 is_stmt 1 view .LVU604
 2343 0382 804C     		ldr	r4, .L188+4
 2344 0384 2046     		mov	r0, r4
 2345 0386 FFF7FEFF 		bl	UsbPrintf
 2346              	.LVL175:
 455:App/Src/task.c ****                 responseCount++;
 2347              		.loc 1 455 17 view .LVU605
 2348 038a 2046     		mov	r0, r4
 2349 038c FFF7FEFF 		bl	log_printf
 2350              	.LVL176:
 456:App/Src/task.c ****                 if (responseCount >= 3) {//stop test
 2351              		.loc 1 456 17 view .LVU606
 456:App/Src/task.c ****                 if (responseCount >= 3) {//stop test
 2352              		.loc 1 456 30 is_stmt 0 view .LVU607
 2353 0390 7D4A     		ldr	r2, .L188+8
 2354 0392 1378     		ldrb	r3, [r2]	@ zero_extendqisi2
 2355 0394 0133     		adds	r3, r3, #1
 2356 0396 DBB2     		uxtb	r3, r3
 2357 0398 1370     		strb	r3, [r2]
 457:App/Src/task.c ****                     testState = 0;
 2358              		.loc 1 457 17 is_stmt 1 view .LVU608
 457:App/Src/task.c ****                     testState = 0;
 2359              		.loc 1 457 20 is_stmt 0 view .LVU609
 2360 039a 022B     		cmp	r3, #2
 2361 039c 0AD9     		bls	.L150
 458:App/Src/task.c ****                     rtc_freq_save(CAP_ADJUST_ERROR, 0, 1000);
 2362              		.loc 1 458 21 is_stmt 1 view .LVU610
 458:App/Src/task.c ****                     rtc_freq_save(CAP_ADJUST_ERROR, 0, 1000);
 2363              		.loc 1 458 31 is_stmt 0 view .LVU611
 2364 039e 7B4B     		ldr	r3, .L188+12
 2365 03a0 0022     		movs	r2, #0
 2366 03a2 1A60     		str	r2, [r3]
 459:App/Src/task.c ****                 } else {
 2367              		.loc 1 459 21 is_stmt 1 view .LVU612
 2368 03a4 DFED7A0A 		vldr.32	s1, .L188+16
 2369 03a8 9FED7A0A 		vldr.32	s0, .L188+20
 2370 03ac 0120     		movs	r0, #1
 2371 03ae FFF7FEFF 		bl	rtc_freq_save
 2372              	.LVL177:
 2373 03b2 40E6     		b	.L110
 2374              	.L150:
 461:App/Src/task.c ****                 }
 2375              		.loc 1 461 21 view .LVU613
ARM GAS  C:\Users\86158\AppData\Local\Temp\cc7PXljM.s 			page 60


 461:App/Src/task.c ****                 }
 2376              		.loc 1 461 36 is_stmt 0 view .LVU614
 2377 03b4 FFF7FEFF 		bl	HAL_GetTick
 2378              	.LVL178:
 461:App/Src/task.c ****                 }
 2379              		.loc 1 461 34 view .LVU615
 2380 03b8 774B     		ldr	r3, .L188+24
 2381 03ba 1860     		str	r0, [r3]
 2382 03bc 3BE6     		b	.L110
 2383              	.LVL179:
 2384              	.L117:
 466:App/Src/task.c ****             if ((temp < -5 && temp > -15) || (temp < 65 && temp > 55)) {
 2385              		.loc 1 466 13 is_stmt 1 view .LVU616
 466:App/Src/task.c ****             if ((temp < -5 && temp > -15) || (temp < 65 && temp > 55)) {
 2386              		.loc 1 466 20 is_stmt 0 view .LVU617
 2387 03be 0120     		movs	r0, #1
 2388              	.LVL180:
 466:App/Src/task.c ****             if ((temp < -5 && temp > -15) || (temp < 65 && temp > 55)) {
 2389              		.loc 1 466 20 view .LVU618
 2390 03c0 FFF7FEFF 		bl	temp_read_value
 2391              	.LVL181:
 467:App/Src/task.c ****                 address = TEST_RESULT_START_ADDR + (g_capAdjust.count - 1) * TEST_RESULT_ONE_SIZE +
 2392              		.loc 1 467 13 is_stmt 1 view .LVU619
 467:App/Src/task.c ****                 address = TEST_RESULT_START_ADDR + (g_capAdjust.count - 1) * TEST_RESULT_ONE_SIZE +
 2393              		.loc 1 467 16 is_stmt 0 view .LVU620
 2394 03c4 F9EE047A 		vmov.f32	s15, #-5.0e+0
 2395 03c8 B4EEE70A 		vcmpe.f32	s0, s15
 2396 03cc F1EE10FA 		vmrs	APSR_nzcv, FPSCR
 2397 03d0 06D5     		bpl	.L151
 467:App/Src/task.c ****                 address = TEST_RESULT_START_ADDR + (g_capAdjust.count - 1) * TEST_RESULT_ONE_SIZE +
 2398              		.loc 1 467 28 discriminator 1 view .LVU621
 2399 03d2 FAEE0E7A 		vmov.f32	s15, #-1.5e+1
 2400 03d6 B4EEE70A 		vcmpe.f32	s0, s15
 2401 03da F1EE10FA 		vmrs	APSR_nzcv, FPSCR
 2402 03de 0DDC     		bgt	.L153
 2403              	.L151:
 467:App/Src/task.c ****                 address = TEST_RESULT_START_ADDR + (g_capAdjust.count - 1) * TEST_RESULT_ONE_SIZE +
 2404              		.loc 1 467 43 discriminator 3 view .LVU622
 2405 03e0 DFED6E7A 		vldr.32	s15, .L188+28
 2406 03e4 B4EEE70A 		vcmpe.f32	s0, s15
 2407 03e8 F1EE10FA 		vmrs	APSR_nzcv, FPSCR
 2408 03ec 34D5     		bpl	.L154
 467:App/Src/task.c ****                 address = TEST_RESULT_START_ADDR + (g_capAdjust.count - 1) * TEST_RESULT_ONE_SIZE +
 2409              		.loc 1 467 57 discriminator 4 view .LVU623
 2410 03ee DFED6C7A 		vldr.32	s15, .L188+32
 2411 03f2 B4EEE70A 		vcmpe.f32	s0, s15
 2412 03f6 F1EE10FA 		vmrs	APSR_nzcv, FPSCR
 2413 03fa 2DDD     		ble	.L154
 2414              	.L153:
 468:App/Src/task.c ****                 flash_read_data(address, buffer, 4);//根据地址调用flash函数读取4byte数据
 2415              		.loc 1 468 17 is_stmt 1 view .LVU624
 468:App/Src/task.c ****                 flash_read_data(address, buffer, 4);//根据地址调用flash函数读取4byte数据
 2416              		.loc 1 468 64 is_stmt 0 view .LVU625
 2417 03fc 694B     		ldr	r3, .L188+36
 2418 03fe 187C     		ldrb	r0, [r3, #16]	@ zero_extendqisi2
 468:App/Src/task.c ****                 flash_read_data(address, buffer, 4);//根据地址调用flash函数读取4byte数据
 2419              		.loc 1 468 50 view .LVU626
ARM GAS  C:\Users\86158\AppData\Local\Temp\cc7PXljM.s 			page 61


 2420 0400 0730     		adds	r0, r0, #7
 2421 0402 4002     		lsls	r0, r0, #9
 2422              	.LVL182:
 469:App/Src/task.c ****                 uint8_to_float(&lastCap, buffer);//类型转换为float
 2423              		.loc 1 469 17 is_stmt 1 view .LVU627
 2424 0404 0422     		movs	r2, #4
 2425 0406 05A9     		add	r1, sp, #20
 2426 0408 2430     		adds	r0, r0, #36
 2427              	.LVL183:
 469:App/Src/task.c ****                 uint8_to_float(&lastCap, buffer);//类型转换为float
 2428              		.loc 1 469 17 is_stmt 0 view .LVU628
 2429 040a FFF7FEFF 		bl	flash_read_data
 2430              	.LVL184:
 470:App/Src/task.c ****                 cap_list_to_uint(lastCap, cap);//查表转换为实际电容
 2431              		.loc 1 470 17 is_stmt 1 view .LVU629
 2432 040e 5C4C     		ldr	r4, .L188
 2433 0410 05A9     		add	r1, sp, #20
 2434 0412 2046     		mov	r0, r4
 2435 0414 FFF7FEFF 		bl	uint8_to_float
 2436              	.LVL185:
 471:App/Src/task.c ****                 if (rtc_set_testcap(cap) == I2C_OK) {//IIC写入rtc
 2437              		.loc 1 471 17 view .LVU630
 2438 0418 D4ED007A 		vldr.32	s15, [r4]
 2439 041c FCEEE77A 		vcvt.u32.f32	s15, s15
 2440 0420 06A9     		add	r1, sp, #24
 2441 0422 17EE903A 		vmov	r3, s15	@ int
 2442 0426 98B2     		uxth	r0, r3
 2443 0428 FFF7FEFF 		bl	cap_list_to_uint
 2444              	.LVL186:
 472:App/Src/task.c ****                     testState++;
 2445              		.loc 1 472 17 view .LVU631
 472:App/Src/task.c ****                     testState++;
 2446              		.loc 1 472 21 is_stmt 0 view .LVU632
 2447 042c 06A8     		add	r0, sp, #24
 2448 042e FFF7FEFF 		bl	rtc_set_testcap
 2449              	.LVL187:
 472:App/Src/task.c ****                     testState++;
 2450              		.loc 1 472 20 view .LVU633
 2451 0432 20B9     		cbnz	r0, .L157
 473:App/Src/task.c ****                 } else {
 2452              		.loc 1 473 21 is_stmt 1 view .LVU634
 473:App/Src/task.c ****                 } else {
 2453              		.loc 1 473 30 is_stmt 0 view .LVU635
 2454 0434 554A     		ldr	r2, .L188+12
 2455 0436 1368     		ldr	r3, [r2]
 2456 0438 0133     		adds	r3, r3, #1
 2457 043a 1360     		str	r3, [r2]
 2458 043c FBE5     		b	.L110
 2459              	.L157:
 475:App/Src/task.c ****                     testState = 0;
 2460              		.loc 1 475 21 is_stmt 1 view .LVU636
 2461 043e 5A4B     		ldr	r3, .L188+40
 2462 0440 D3ED000A 		vldr.32	s1, [r3]
 2463 0444 4E4B     		ldr	r3, .L188
 2464 0446 93ED000A 		vldr.32	s0, [r3]
 2465 044a 0120     		movs	r0, #1
 2466 044c FFF7FEFF 		bl	rtc_freq_save
ARM GAS  C:\Users\86158\AppData\Local\Temp\cc7PXljM.s 			page 62


 2467              	.LVL188:
 476:App/Src/task.c ****                 }
 2468              		.loc 1 476 21 view .LVU637
 476:App/Src/task.c ****                 }
 2469              		.loc 1 476 31 is_stmt 0 view .LVU638
 2470 0450 4E4B     		ldr	r3, .L188+12
 2471 0452 0022     		movs	r2, #0
 2472 0454 1A60     		str	r2, [r3]
 2473 0456 EEE5     		b	.L110
 2474              	.LVL189:
 2475              	.L154:
 479:App/Src/task.c ****                 testState = 0;
 2476              		.loc 1 479 17 is_stmt 1 view .LVU639
 479:App/Src/task.c ****                 testState = 0;
 2477              		.loc 1 479 34 is_stmt 0 view .LVU640
 2478 0458 524B     		ldr	r3, .L188+36
 2479 045a 0222     		movs	r2, #2
 2480 045c 1A70     		strb	r2, [r3]
 480:App/Src/task.c ****             }
 2481              		.loc 1 480 17 is_stmt 1 view .LVU641
 480:App/Src/task.c ****             }
 2482              		.loc 1 480 27 is_stmt 0 view .LVU642
 2483 045e 4B4B     		ldr	r3, .L188+12
 2484 0460 0022     		movs	r2, #0
 2485 0462 1A60     		str	r2, [r3]
 2486 0464 E7E5     		b	.L110
 2487              	.LVL190:
 2488              	.L116:
 484:App/Src/task.c ****             g_lastFreq.recordTime = lastTestTime;
 2489              		.loc 1 484 13 is_stmt 1 view .LVU643
 484:App/Src/task.c ****             g_lastFreq.recordTime = lastTestTime;
 2490              		.loc 1 484 28 is_stmt 0 view .LVU644
 2491 0466 FFF7FEFF 		bl	HAL_GetTick
 2492              	.LVL191:
 484:App/Src/task.c ****             g_lastFreq.recordTime = lastTestTime;
 2493              		.loc 1 484 26 view .LVU645
 2494 046a 4B4B     		ldr	r3, .L188+24
 2495 046c 1860     		str	r0, [r3]
 485:App/Src/task.c ****             DevicePrintf(":MEAS?\n");
 2496              		.loc 1 485 13 is_stmt 1 view .LVU646
 485:App/Src/task.c ****             DevicePrintf(":MEAS?\n");
 2497              		.loc 1 485 35 is_stmt 0 view .LVU647
 2498 046e 4F4B     		ldr	r3, .L188+44
 2499 0470 1860     		str	r0, [r3]
 486:App/Src/task.c ****             responseCount = 0;
 2500              		.loc 1 486 13 is_stmt 1 view .LVU648
 2501 0472 4F48     		ldr	r0, .L188+48
 2502 0474 FFF7FEFF 		bl	DevicePrintf
 2503              	.LVL192:
 487:App/Src/task.c ****             testState++;
 2504              		.loc 1 487 13 view .LVU649
 487:App/Src/task.c ****             testState++;
 2505              		.loc 1 487 27 is_stmt 0 view .LVU650
 2506 0478 434B     		ldr	r3, .L188+8
 2507 047a 0022     		movs	r2, #0
 2508 047c 1A70     		strb	r2, [r3]
 488:App/Src/task.c ****         break;
ARM GAS  C:\Users\86158\AppData\Local\Temp\cc7PXljM.s 			page 63


 2509              		.loc 1 488 13 is_stmt 1 view .LVU651
 488:App/Src/task.c ****         break;
 2510              		.loc 1 488 22 is_stmt 0 view .LVU652
 2511 047e 434A     		ldr	r2, .L188+12
 2512 0480 1368     		ldr	r3, [r2]
 2513 0482 0133     		adds	r3, r3, #1
 2514 0484 1360     		str	r3, [r2]
 489:App/Src/task.c ****         case 6:
 2515              		.loc 1 489 9 is_stmt 1 view .LVU653
 2516 0486 D6E5     		b	.L110
 2517              	.LVL193:
 2518              	.L114:
 491:App/Src/task.c ****                 ppm = (g_lastFreq.freq / CENTER_FREQENCY - 1) * 1000000;
 2519              		.loc 1 491 13 view .LVU654
 491:App/Src/task.c ****                 ppm = (g_lastFreq.freq / CENTER_FREQENCY - 1) * 1000000;
 2520              		.loc 1 491 27 is_stmt 0 view .LVU655
 2521 0488 484B     		ldr	r3, .L188+44
 2522 048a 1A68     		ldr	r2, [r3]
 491:App/Src/task.c ****                 ppm = (g_lastFreq.freq / CENTER_FREQENCY - 1) * 1000000;
 2523              		.loc 1 491 39 view .LVU656
 2524 048c 424B     		ldr	r3, .L188+24
 2525 048e 1C68     		ldr	r4, [r3]
 491:App/Src/task.c ****                 ppm = (g_lastFreq.freq / CENTER_FREQENCY - 1) * 1000000;
 2526              		.loc 1 491 16 view .LVU657
 2527 0490 A242     		cmp	r2, r4
 2528 0492 4FD9     		bls	.L158
 492:App/Src/task.c ****                 address = TEST_RESULT_START_ADDR + (g_capAdjust.count - 1) * TEST_RESULT_ONE_SIZE +
 2529              		.loc 1 492 17 is_stmt 1 view .LVU658
 492:App/Src/task.c ****                 address = TEST_RESULT_START_ADDR + (g_capAdjust.count - 1) * TEST_RESULT_ONE_SIZE +
 2530              		.loc 1 492 34 is_stmt 0 view .LVU659
 2531 0494 454B     		ldr	r3, .L188+44
 2532 0496 D3ED017A 		vldr.32	s15, [r3, #4]
 492:App/Src/task.c ****                 address = TEST_RESULT_START_ADDR + (g_capAdjust.count - 1) * TEST_RESULT_ONE_SIZE +
 2533              		.loc 1 492 40 view .LVU660
 2534 049a 9FED467A 		vldr.32	s14, .L188+52
 2535 049e 67EE877A 		vmul.f32	s15, s15, s14
 492:App/Src/task.c ****                 address = TEST_RESULT_START_ADDR + (g_capAdjust.count - 1) * TEST_RESULT_ONE_SIZE +
 2536              		.loc 1 492 58 view .LVU661
 2537 04a2 B7EE007A 		vmov.f32	s14, #1.0e+0
 2538 04a6 77EEC77A 		vsub.f32	s15, s15, s14
 492:App/Src/task.c ****                 address = TEST_RESULT_START_ADDR + (g_capAdjust.count - 1) * TEST_RESULT_ONE_SIZE +
 2539              		.loc 1 492 63 view .LVU662
 2540 04aa 9FED437A 		vldr.32	s14, .L188+56
 2541 04ae 67EE877A 		vmul.f32	s15, s15, s14
 492:App/Src/task.c ****                 address = TEST_RESULT_START_ADDR + (g_capAdjust.count - 1) * TEST_RESULT_ONE_SIZE +
 2542              		.loc 1 492 21 view .LVU663
 2543 04b2 CDED077A 		vstr.32	s15, [sp, #28]
 493:App/Src/task.c ****                 temp = temp_read_value(1);
 2544              		.loc 1 493 17 is_stmt 1 view .LVU664
 493:App/Src/task.c ****                 temp = temp_read_value(1);
 2545              		.loc 1 493 64 is_stmt 0 view .LVU665
 2546 04b6 3B4B     		ldr	r3, .L188+36
 2547 04b8 1C7C     		ldrb	r4, [r3, #16]	@ zero_extendqisi2
 493:App/Src/task.c ****                 temp = temp_read_value(1);
 2548              		.loc 1 493 50 view .LVU666
 2549 04ba 0734     		adds	r4, r4, #7
 2550 04bc 6402     		lsls	r4, r4, #9
ARM GAS  C:\Users\86158\AppData\Local\Temp\cc7PXljM.s 			page 64


 493:App/Src/task.c ****                 temp = temp_read_value(1);
 2551              		.loc 1 493 99 view .LVU667
 2552 04be 04F13A05 		add	r5, r4, #58
 2553              	.LVL194:
 494:App/Src/task.c ****                 if (temp > 55) { address += 4;}
 2554              		.loc 1 494 17 is_stmt 1 view .LVU668
 494:App/Src/task.c ****                 if (temp > 55) { address += 4;}
 2555              		.loc 1 494 24 is_stmt 0 view .LVU669
 2556 04c2 0120     		movs	r0, #1
 2557              	.LVL195:
 494:App/Src/task.c ****                 if (temp > 55) { address += 4;}
 2558              		.loc 1 494 24 view .LVU670
 2559 04c4 FFF7FEFF 		bl	temp_read_value
 2560              	.LVL196:
 2561 04c8 B0EE408A 		vmov.f32	s16, s0
 2562              	.LVL197:
 495:App/Src/task.c ****                 float_to_uint8(buffer, &ppm);
 2563              		.loc 1 495 17 is_stmt 1 view .LVU671
 495:App/Src/task.c ****                 float_to_uint8(buffer, &ppm);
 2564              		.loc 1 495 20 is_stmt 0 view .LVU672
 2565 04cc DFED347A 		vldr.32	s15, .L188+32
 2566 04d0 B4EEE70A 		vcmpe.f32	s0, s15
 2567 04d4 F1EE10FA 		vmrs	APSR_nzcv, FPSCR
 2568 04d8 01DD     		ble	.L159
 495:App/Src/task.c ****                 float_to_uint8(buffer, &ppm);
 2569              		.loc 1 495 34 is_stmt 1 discriminator 1 view .LVU673
 495:App/Src/task.c ****                 float_to_uint8(buffer, &ppm);
 2570              		.loc 1 495 42 is_stmt 0 discriminator 1 view .LVU674
 2571 04da 04F13E05 		add	r5, r4, #62
 2572              	.LVL198:
 2573              	.L159:
 496:App/Src/task.c ****                 flash_write_data(address, buffer, 4);
 2574              		.loc 1 496 17 is_stmt 1 view .LVU675
 2575 04de 07A9     		add	r1, sp, #28
 2576 04e0 05A8     		add	r0, sp, #20
 2577 04e2 FFF7FEFF 		bl	float_to_uint8
 2578              	.LVL199:
 497:App/Src/task.c ****                 UsbPrintf("center cap in %.1f : %.2fppm\n", temp, ppm);
 2579              		.loc 1 497 17 view .LVU676
 2580 04e6 0422     		movs	r2, #4
 2581 04e8 05A9     		add	r1, sp, #20
 2582 04ea 2846     		mov	r0, r5
 2583 04ec FFF7FEFF 		bl	flash_write_data
 2584              	.LVL200:
 498:App/Src/task.c ****                 log_printf("center cap in %.1f : %.2fppm\n", temp, ppm);
 2585              		.loc 1 498 17 view .LVU677
 2586 04f0 18EE100A 		vmov	r0, s16
 2587 04f4 FFF7FEFF 		bl	__aeabi_f2d
 2588              	.LVL201:
 2589 04f8 0446     		mov	r4, r0
 2590 04fa 0D46     		mov	r5, r1
 2591              	.LVL202:
 498:App/Src/task.c ****                 log_printf("center cap in %.1f : %.2fppm\n", temp, ppm);
 2592              		.loc 1 498 17 is_stmt 0 view .LVU678
 2593 04fc 2F4E     		ldr	r6, .L188+60
 2594 04fe 0798     		ldr	r0, [sp, #28]	@ float
 2595 0500 FFF7FEFF 		bl	__aeabi_f2d
ARM GAS  C:\Users\86158\AppData\Local\Temp\cc7PXljM.s 			page 65


 2596              	.LVL203:
 2597 0504 CDE90001 		strd	r0, [sp]
 2598 0508 2246     		mov	r2, r4
 2599 050a 2B46     		mov	r3, r5
 2600 050c 3046     		mov	r0, r6
 2601 050e FFF7FEFF 		bl	UsbPrintf
 2602              	.LVL204:
 499:App/Src/task.c ****                 g_capAdjust.flag = CAP_ADJUST_SUCCESS;
 2603              		.loc 1 499 17 is_stmt 1 view .LVU679
 2604 0512 0798     		ldr	r0, [sp, #28]	@ float
 2605 0514 FFF7FEFF 		bl	__aeabi_f2d
 2606              	.LVL205:
 2607 0518 CDE90001 		strd	r0, [sp]
 2608 051c 2246     		mov	r2, r4
 2609 051e 2B46     		mov	r3, r5
 2610 0520 3046     		mov	r0, r6
 2611 0522 FFF7FEFF 		bl	log_printf
 2612              	.LVL206:
 500:App/Src/task.c ****                 testState = 0;
 2613              		.loc 1 500 17 view .LVU680
 500:App/Src/task.c ****                 testState = 0;
 2614              		.loc 1 500 34 is_stmt 0 view .LVU681
 2615 0526 1F4B     		ldr	r3, .L188+36
 2616 0528 0222     		movs	r2, #2
 2617 052a 1A70     		strb	r2, [r3]
 501:App/Src/task.c ****             } else if (lastTestTime + 1200 < HAL_GetTick()) {
 2618              		.loc 1 501 17 is_stmt 1 view .LVU682
 501:App/Src/task.c ****             } else if (lastTestTime + 1200 < HAL_GetTick()) {
 2619              		.loc 1 501 27 is_stmt 0 view .LVU683
 2620 052c 174B     		ldr	r3, .L188+12
 2621 052e 0022     		movs	r2, #0
 2622 0530 1A60     		str	r2, [r3]
 2623 0532 80E5     		b	.L110
 2624              	.LVL207:
 2625              	.L158:
 502:App/Src/task.c ****                 UsbPrintf("device no response\n");
 2626              		.loc 1 502 20 is_stmt 1 view .LVU684
 502:App/Src/task.c ****                 UsbPrintf("device no response\n");
 2627              		.loc 1 502 37 is_stmt 0 view .LVU685
 2628 0534 04F59664 		add	r4, r4, #1200
 502:App/Src/task.c ****                 UsbPrintf("device no response\n");
 2629              		.loc 1 502 46 view .LVU686
 2630 0538 FFF7FEFF 		bl	HAL_GetTick
 2631              	.LVL208:
 502:App/Src/task.c ****                 UsbPrintf("device no response\n");
 2632              		.loc 1 502 23 view .LVU687
 2633 053c 8442     		cmp	r4, r0
 2634 053e BFF47AAD 		bcs	.L110
 503:App/Src/task.c ****                 log_printf("device no response\n");             
 2635              		.loc 1 503 17 is_stmt 1 view .LVU688
 2636 0542 104C     		ldr	r4, .L188+4
 2637 0544 2046     		mov	r0, r4
 2638 0546 FFF7FEFF 		bl	UsbPrintf
 2639              	.LVL209:
 504:App/Src/task.c ****                 responseCount++;
 2640              		.loc 1 504 17 view .LVU689
 2641 054a 2046     		mov	r0, r4
ARM GAS  C:\Users\86158\AppData\Local\Temp\cc7PXljM.s 			page 66


 2642 054c FFF7FEFF 		bl	log_printf
 2643              	.LVL210:
 505:App/Src/task.c ****                 if (responseCount >= 3) {//stop test
 2644              		.loc 1 505 17 view .LVU690
 505:App/Src/task.c ****                 if (responseCount >= 3) {//stop test
 2645              		.loc 1 505 30 is_stmt 0 view .LVU691
 2646 0550 0D4A     		ldr	r2, .L188+8
 2647 0552 1378     		ldrb	r3, [r2]	@ zero_extendqisi2
 2648 0554 0133     		adds	r3, r3, #1
 2649 0556 DBB2     		uxtb	r3, r3
 2650 0558 1370     		strb	r3, [r2]
 506:App/Src/task.c ****                     testState = 0;
 2651              		.loc 1 506 17 is_stmt 1 view .LVU692
 506:App/Src/task.c ****                     testState = 0;
 2652              		.loc 1 506 20 is_stmt 0 view .LVU693
 2653 055a 022B     		cmp	r3, #2
 2654 055c 0AD9     		bls	.L161
 507:App/Src/task.c ****                     rtc_freq_save(CAP_ADJUST_ERROR, 0, 1000);
 2655              		.loc 1 507 21 is_stmt 1 view .LVU694
 507:App/Src/task.c ****                     rtc_freq_save(CAP_ADJUST_ERROR, 0, 1000);
 2656              		.loc 1 507 31 is_stmt 0 view .LVU695
 2657 055e 0B4B     		ldr	r3, .L188+12
 2658 0560 0022     		movs	r2, #0
 2659 0562 1A60     		str	r2, [r3]
 508:App/Src/task.c ****                 } else {
 2660              		.loc 1 508 21 is_stmt 1 view .LVU696
 2661 0564 DFED0A0A 		vldr.32	s1, .L188+16
 2662 0568 9FED0A0A 		vldr.32	s0, .L188+20
 2663 056c 0120     		movs	r0, #1
 2664 056e FFF7FEFF 		bl	rtc_freq_save
 2665              	.LVL211:
 2666 0572 60E5     		b	.L110
 2667              	.L161:
 510:App/Src/task.c ****                 }
 2668              		.loc 1 510 21 view .LVU697
 510:App/Src/task.c ****                 }
 2669              		.loc 1 510 36 is_stmt 0 view .LVU698
 2670 0574 FFF7FEFF 		bl	HAL_GetTick
 2671              	.LVL212:
 510:App/Src/task.c ****                 }
 2672              		.loc 1 510 34 view .LVU699
 2673 0578 074B     		ldr	r3, .L188+24
 2674 057a 1860     		str	r0, [r3]
 2675 057c 5BE5     		b	.L110
 2676              	.L189:
 2677 057e 00BF     		.align	2
 2678              	.L188:
 2679 0580 00000000 		.word	.LANCHOR17
 2680 0584 70000000 		.word	.LC16
 2681 0588 00000000 		.word	.LANCHOR21
 2682 058c 00000000 		.word	.LANCHOR16
 2683 0590 00007A44 		.word	1148846080
 2684 0594 00000000 		.word	0
 2685 0598 00000000 		.word	.LANCHOR20
 2686 059c 00008242 		.word	1115815936
 2687 05a0 00005C42 		.word	1113325568
 2688 05a4 00000000 		.word	g_capAdjust
ARM GAS  C:\Users\86158\AppData\Local\Temp\cc7PXljM.s 			page 67


 2689 05a8 00000000 		.word	.LANCHOR18
 2690 05ac 00000000 		.word	.LANCHOR9
 2691 05b0 3C000000 		.word	.LC5
 2692 05b4 0000803C 		.word	1015021568
 2693 05b8 00247449 		.word	1232348160
 2694 05bc 84000000 		.word	.LC17
 2695              		.cfi_endproc
 2696              	.LFE244:
 2698              		.section	.rodata.system_machine_test_one.str1.4,"aMS",%progbits,1
 2699              		.align	2
 2700              	.LC18:
 2701 0000 6D616368 		.ascii	"machine test chip:%d\012\000"
 2701      696E6520 
 2701      74657374 
 2701      20636869 
 2701      703A2564 
 2702 0016 0000     		.align	2
 2703              	.LC19:
 2704 0018 25662C20 		.ascii	"%f, ppm:%.2f\012\000"
 2704      70706D3A 
 2704      252E3266 
 2704      0A00
 2705 0026 0000     		.align	2
 2706              	.LC20:
 2707 0028 76626174 		.ascii	"vbat = %dmV\012\000"
 2707      203D2025 
 2707      646D560A 
 2707      00
 2708 0035 000000   		.align	2
 2709              	.LC21:
 2710 0038 63686172 		.ascii	"charge = %dmV\012\000"
 2710      6765203D 
 2710      2025646D 
 2710      560A00
 2711 0047 00       		.align	2
 2712              	.LC22:
 2713 0048 7664643A 		.ascii	"vdd:%dnA\012\000"
 2713      25646E41 
 2713      0A00
 2714 0052 0000     		.align	2
 2715              	.LC23:
 2716 0054 6261743A 		.ascii	"bat:%dnA\012\000"
 2716      25646E41 
 2716      0A00
 2717 005e 0000     		.align	2
 2718              	.LC24:
 2719 0060 74657374 		.ascii	"test all end, chip %d NG\012\000"
 2719      20616C6C 
 2719      20656E64 
 2719      2C206368 
 2719      69702025 
 2720 007a 0000     		.align	2
 2721              	.LC25:
 2722 007c 74657374 		.ascii	"test all end, chip %d OK\012\000"
 2722      20616C6C 
 2722      20656E64 
 2722      2C206368 
ARM GAS  C:\Users\86158\AppData\Local\Temp\cc7PXljM.s 			page 68


 2722      69702025 
 2723              		.section	.text.system_machine_test_one,"ax",%progbits
 2724              		.align	1
 2725              		.global	system_machine_test_one
 2726              		.syntax unified
 2727              		.thumb
 2728              		.thumb_func
 2730              	system_machine_test_one:
 2731              	.LVL213:
 2732              	.LFB245:
 517:App/Src/task.c **** 
 518:App/Src/task.c **** //---------------------------------------------
 519:App/Src/task.c **** //system_machine_test_one函数，机台测试一个芯片
 520:App/Src/task.c **** //number选定芯片序号，mode分为启动模式和运转模式
 521:App/Src/task.c **** //配置温度config9才会测试温度误差
 522:App/Src/task.c **** //配置电池configC才会测试电池
 523:App/Src/task.c **** //除非是I2C不通，否则不管什么状态的芯片都会测试电流
 524:App/Src/task.c **** //---------------------------------------------
 525:App/Src/task.c **** int system_machine_test_one(uint8_t number, uint8_t mode)
 526:App/Src/task.c **** {
 2733              		.loc 1 526 1 is_stmt 1 view -0
 2734              		.cfi_startproc
 2735              		@ args = 0, pretend = 0, frame = 8
 2736              		@ frame_needed = 0, uses_anonymous_args = 0
 2737              		.loc 1 526 1 is_stmt 0 view .LVU701
 2738 0000 F0B5     		push	{r4, r5, r6, r7, lr}
 2739              	.LCFI32:
 2740              		.cfi_def_cfa_offset 20
 2741              		.cfi_offset 4, -20
 2742              		.cfi_offset 5, -16
 2743              		.cfi_offset 6, -12
 2744              		.cfi_offset 7, -8
 2745              		.cfi_offset 14, -4
 2746 0002 2DED028B 		vpush.64	{d8}
 2747              	.LCFI33:
 2748              		.cfi_def_cfa_offset 28
 2749              		.cfi_offset 80, -28
 2750              		.cfi_offset 81, -24
 2751 0006 85B0     		sub	sp, sp, #20
 2752              	.LCFI34:
 2753              		.cfi_def_cfa_offset 48
 527:App/Src/task.c **** 	float ppm4096, cur;
 2754              		.loc 1 527 2 is_stmt 1 view .LVU702
 528:App/Src/task.c **** 	// uint8_t buffer[16] = {0};
 529:App/Src/task.c **** 	int vbat = 0;
 2755              		.loc 1 529 2 view .LVU703
 2756              		.loc 1 529 6 is_stmt 0 view .LVU704
 2757 0008 0023     		movs	r3, #0
 2758 000a 0393     		str	r3, [sp, #12]
 530:App/Src/task.c **** 	// uint8_t i2c_result;
 531:App/Src/task.c **** 	static uint8_t result = 1;
 2759              		.loc 1 531 2 is_stmt 1 view .LVU705
 532:App/Src/task.c ****     static uint8_t state = 0;
 2760              		.loc 1 532 5 view .LVU706
 533:App/Src/task.c ****     static uint32_t timeout;
 2761              		.loc 1 533 5 view .LVU707
 534:App/Src/task.c ****     static uint8_t testNumber = 0;
ARM GAS  C:\Users\86158\AppData\Local\Temp\cc7PXljM.s 			page 69


 2762              		.loc 1 534 5 view .LVU708
 535:App/Src/task.c ****     static uint32_t startTime;
 2763              		.loc 1 535 5 view .LVU709
 536:App/Src/task.c **** 
 537:App/Src/task.c ****     if (mode == 1) {//在设置开始时就设定测试序号，后续不能变更
 2764              		.loc 1 537 5 view .LVU710
 2765              		.loc 1 537 8 is_stmt 0 view .LVU711
 2766 000c 0129     		cmp	r1, #1
 2767 000e 11D0     		beq	.L223
 2768              	.LVL214:
 2769              	.L191:
 538:App/Src/task.c ****         state = 1;
 539:App/Src/task.c ****         testNumber = number;
 540:App/Src/task.c ****         g_machineTest.machine.Ivdd = 0;
 541:App/Src/task.c ****         g_machineTest.machine.Ivbat = 0;
 542:App/Src/task.c ****         g_machineTest.machine.config9 = 0xff;
 543:App/Src/task.c ****         g_machineTest.machine.configC = 0xff;
 544:App/Src/task.c ****         g_machineTest.machine.sysTemp = 0;
 545:App/Src/task.c ****         g_machineTest.machine.rtcTemp = 0;
 546:App/Src/task.c ****         g_machineTest.machine.testFreq = 0;
 547:App/Src/task.c ****         g_machineTest.machine.vbat_2V5 = 0;
 548:App/Src/task.c ****         g_machineTest.machine.charge = 0;
 549:App/Src/task.c ****         startTime = HAL_GetTick();
 550:App/Src/task.c ****         UsbPrintf("machine test chip:%d\n", number);
 551:App/Src/task.c ****         log_printf("machine test chip:%d\n", number);
 552:App/Src/task.c ****     }
 553:App/Src/task.c **** 
 554:App/Src/task.c ****     switch (state) {
 2770              		.loc 1 554 5 is_stmt 1 view .LVU712
 2771 0010 B44B     		ldr	r3, .L227
 2772 0012 1B78     		ldrb	r3, [r3]	@ zero_extendqisi2
 2773 0014 013B     		subs	r3, r3, #1
 2774 0016 0A2B     		cmp	r3, #10
 2775 0018 45D8     		bhi	.L192
 2776 001a DFE813F0 		tbh	[pc, r3, lsl #1]
 2777              	.L194:
 2778 001e 3400     		.2byte	(.L203-.L194)/2
 2779 0020 4400     		.2byte	(.L192-.L194)/2
 2780 0022 5A00     		.2byte	(.L202-.L194)/2
 2781 0024 6900     		.2byte	(.L201-.L194)/2
 2782 0026 7E00     		.2byte	(.L200-.L194)/2
 2783 0028 E300     		.2byte	(.L199-.L194)/2
 2784 002a 2C01     		.2byte	(.L198-.L194)/2
 2785 002c 5301     		.2byte	(.L197-.L194)/2
 2786 002e 8501     		.2byte	(.L196-.L194)/2
 2787 0030 C001     		.2byte	(.L195-.L194)/2
 2788 0032 F701     		.2byte	(.L193-.L194)/2
 2789              	.LVL215:
 2790              		.p2align 1
 2791              	.L223:
 2792              		.loc 1 554 5 is_stmt 0 view .LVU713
 2793 0034 0446     		mov	r4, r0
 538:App/Src/task.c ****         state = 1;
 2794              		.loc 1 538 9 is_stmt 1 view .LVU714
 538:App/Src/task.c ****         state = 1;
 2795              		.loc 1 538 15 is_stmt 0 view .LVU715
 2796 0036 AB4B     		ldr	r3, .L227
ARM GAS  C:\Users\86158\AppData\Local\Temp\cc7PXljM.s 			page 70


 2797 0038 0122     		movs	r2, #1
 2798 003a 1A70     		strb	r2, [r3]
 539:App/Src/task.c ****         g_machineTest.machine.Ivdd = 0;
 2799              		.loc 1 539 9 is_stmt 1 view .LVU716
 539:App/Src/task.c ****         g_machineTest.machine.Ivdd = 0;
 2800              		.loc 1 539 20 is_stmt 0 view .LVU717
 2801 003c AA4B     		ldr	r3, .L227+4
 2802 003e 1870     		strb	r0, [r3]
 540:App/Src/task.c ****         g_machineTest.machine.Ivbat = 0;
 2803              		.loc 1 540 9 is_stmt 1 view .LVU718
 540:App/Src/task.c ****         g_machineTest.machine.Ivbat = 0;
 2804              		.loc 1 540 36 is_stmt 0 view .LVU719
 2805 0040 AA4B     		ldr	r3, .L227+8
 2806 0042 0022     		movs	r2, #0
 2807 0044 A3F84420 		strh	r2, [r3, #68]	@ movhi
 541:App/Src/task.c ****         g_machineTest.machine.config9 = 0xff;
 2808              		.loc 1 541 9 is_stmt 1 view .LVU720
 541:App/Src/task.c ****         g_machineTest.machine.config9 = 0xff;
 2809              		.loc 1 541 37 is_stmt 0 view .LVU721
 2810 0048 A3F84620 		strh	r2, [r3, #70]	@ movhi
 542:App/Src/task.c ****         g_machineTest.machine.configC = 0xff;
 2811              		.loc 1 542 9 is_stmt 1 view .LVU722
 542:App/Src/task.c ****         g_machineTest.machine.configC = 0xff;
 2812              		.loc 1 542 39 is_stmt 0 view .LVU723
 2813 004c FF21     		movs	r1, #255
 2814              	.LVL216:
 542:App/Src/task.c ****         g_machineTest.machine.configC = 0xff;
 2815              		.loc 1 542 39 view .LVU724
 2816 004e 83F84810 		strb	r1, [r3, #72]
 543:App/Src/task.c ****         g_machineTest.machine.sysTemp = 0;
 2817              		.loc 1 543 9 is_stmt 1 view .LVU725
 543:App/Src/task.c ****         g_machineTest.machine.sysTemp = 0;
 2818              		.loc 1 543 39 is_stmt 0 view .LVU726
 2819 0052 83F84910 		strb	r1, [r3, #73]
 544:App/Src/task.c ****         g_machineTest.machine.rtcTemp = 0;
 2820              		.loc 1 544 9 is_stmt 1 view .LVU727
 544:App/Src/task.c ****         g_machineTest.machine.rtcTemp = 0;
 2821              		.loc 1 544 39 is_stmt 0 view .LVU728
 2822 0056 83F84A20 		strb	r2, [r3, #74]
 545:App/Src/task.c ****         g_machineTest.machine.testFreq = 0;
 2823              		.loc 1 545 9 is_stmt 1 view .LVU729
 545:App/Src/task.c ****         g_machineTest.machine.testFreq = 0;
 2824              		.loc 1 545 39 is_stmt 0 view .LVU730
 2825 005a 83F84B20 		strb	r2, [r3, #75]
 546:App/Src/task.c ****         g_machineTest.machine.vbat_2V5 = 0;
 2826              		.loc 1 546 9 is_stmt 1 view .LVU731
 546:App/Src/task.c ****         g_machineTest.machine.vbat_2V5 = 0;
 2827              		.loc 1 546 40 is_stmt 0 view .LVU732
 2828 005e 0021     		movs	r1, #0
 2829 0060 D964     		str	r1, [r3, #76]	@ float
 547:App/Src/task.c ****         g_machineTest.machine.charge = 0;
 2830              		.loc 1 547 9 is_stmt 1 view .LVU733
 547:App/Src/task.c ****         g_machineTest.machine.charge = 0;
 2831              		.loc 1 547 40 is_stmt 0 view .LVU734
 2832 0062 A3F85020 		strh	r2, [r3, #80]	@ movhi
 548:App/Src/task.c ****         startTime = HAL_GetTick();
 2833              		.loc 1 548 9 is_stmt 1 view .LVU735
ARM GAS  C:\Users\86158\AppData\Local\Temp\cc7PXljM.s 			page 71


 548:App/Src/task.c ****         startTime = HAL_GetTick();
 2834              		.loc 1 548 38 is_stmt 0 view .LVU736
 2835 0066 A3F85220 		strh	r2, [r3, #82]	@ movhi
 549:App/Src/task.c ****         UsbPrintf("machine test chip:%d\n", number);
 2836              		.loc 1 549 9 is_stmt 1 view .LVU737
 549:App/Src/task.c ****         UsbPrintf("machine test chip:%d\n", number);
 2837              		.loc 1 549 21 is_stmt 0 view .LVU738
 2838 006a FFF7FEFF 		bl	HAL_GetTick
 2839              	.LVL217:
 549:App/Src/task.c ****         UsbPrintf("machine test chip:%d\n", number);
 2840              		.loc 1 549 19 view .LVU739
 2841 006e A04B     		ldr	r3, .L227+12
 2842 0070 1860     		str	r0, [r3]
 550:App/Src/task.c ****         log_printf("machine test chip:%d\n", number);
 2843              		.loc 1 550 9 is_stmt 1 view .LVU740
 2844 0072 A04D     		ldr	r5, .L227+16
 2845 0074 2146     		mov	r1, r4
 2846 0076 2846     		mov	r0, r5
 2847 0078 FFF7FEFF 		bl	UsbPrintf
 2848              	.LVL218:
 551:App/Src/task.c ****     }
 2849              		.loc 1 551 9 view .LVU741
 2850 007c 2146     		mov	r1, r4
 2851 007e 2846     		mov	r0, r5
 2852 0080 FFF7FEFF 		bl	log_printf
 2853              	.LVL219:
 2854 0084 C4E7     		b	.L191
 2855              	.L203:
 555:App/Src/task.c ****         case 1:
 556:App/Src/task.c **** 	        rtc_group_power(testNumber, POWER_I2C);
 2856              		.loc 1 556 10 view .LVU742
 2857 0086 0121     		movs	r1, #1
 2858 0088 974B     		ldr	r3, .L227+4
 2859 008a 1878     		ldrb	r0, [r3]	@ zero_extendqisi2
 2860 008c FFF7FEFF 		bl	rtc_group_power
 2861              	.LVL220:
 557:App/Src/task.c ****             result = 1; 
 2862              		.loc 1 557 13 view .LVU743
 2863              		.loc 1 557 20 is_stmt 0 view .LVU744
 2864 0090 994B     		ldr	r3, .L227+20
 2865 0092 0122     		movs	r2, #1
 2866 0094 1A70     		strb	r2, [r3]
 558:App/Src/task.c ****             timeout = HAL_GetTick();
 2867              		.loc 1 558 13 is_stmt 1 view .LVU745
 2868              		.loc 1 558 23 is_stmt 0 view .LVU746
 2869 0096 FFF7FEFF 		bl	HAL_GetTick
 2870              	.LVL221:
 2871              		.loc 1 558 21 view .LVU747
 2872 009a 984B     		ldr	r3, .L227+24
 2873 009c 1860     		str	r0, [r3]
 559:App/Src/task.c ****             state++;
 2874              		.loc 1 559 13 is_stmt 1 view .LVU748
 2875              		.loc 1 559 18 is_stmt 0 view .LVU749
 2876 009e 914A     		ldr	r2, .L227
 2877 00a0 1378     		ldrb	r3, [r2]	@ zero_extendqisi2
 2878 00a2 0133     		adds	r3, r3, #1
 2879 00a4 1370     		strb	r3, [r2]
ARM GAS  C:\Users\86158\AppData\Local\Temp\cc7PXljM.s 			page 72


 560:App/Src/task.c ****         break;
 2880              		.loc 1 560 9 is_stmt 1 view .LVU750
 2881              	.L192:
 561:App/Src/task.c ****         case 2:
 562:App/Src/task.c ****             // if (HAL_GetTick() < (timeout + 800)) {
 563:App/Src/task.c ****             //     break;
 564:App/Src/task.c ****             // }
 565:App/Src/task.c ****             // i2c_result = rtc_read_otp_data(buffer, SD3900_CONFIG0_ADDR, 16);
 566:App/Src/task.c ****             // if (i2c_result != I2C_OK) {
 567:App/Src/task.c ****             //     UsbPrintf("chip%d i2c error, test end!\n", testNumber);
 568:App/Src/task.c ****             //     log_printf("chip%d i2c error!\n", testNumber);
 569:App/Src/task.c ****             //     return -1;
 570:App/Src/task.c ****             // }
 571:App/Src/task.c ****             // g_machineTest.machine.config9 = buffer[9];
 572:App/Src/task.c ****             // g_machineTest.machine.configC = buffer[0xC];
 573:App/Src/task.c ****             // UsbPrintf("config9:0x%02X, configC:0x%02X\n", g_machineTest.machine.config9, g_machi
 574:App/Src/task.c ****             // log_printf("config9:0x%02X, configC:0x%02X\n", g_machineTest.machine.config9, g_mach
 575:App/Src/task.c ****             // rtc_set_testmode();
 576:App/Src/task.c ****             // if (g_machineTest.machine.config9 != 0xff) {//温度计配置了，测试温度
 577:App/Src/task.c ****             //     g_machineTest.machine.sysTemp = (int)temp_read_value(1);
 578:App/Src/task.c ****             //     UsbPrintf("system temp:%d, ", g_machineTest.machine.sysTemp);
 579:App/Src/task.c ****             //     rtc_read_temp(&g_machineTest.machine.rtcTemp);
 580:App/Src/task.c ****             //     UsbPrintf("temp:%d\n", g_machineTest.machine.rtcTemp);
 581:App/Src/task.c ****             //     log_printf("temp:%d\n", g_machineTest.machine.rtcTemp);
 582:App/Src/task.c ****             //     if (g_machineTest.machine.rtcTemp > (g_machineTest.machine.sysTemp + 5) 
 583:App/Src/task.c ****             //         || g_machineTest.machine.rtcTemp < (g_machineTest.machine.sysTemp - 5)) {
 584:App/Src/task.c ****             //         result = 0;
 585:App/Src/task.c ****             //     }
 586:App/Src/task.c ****             //     state++;
 587:App/Src/task.c ****             // } else {//如果温度计没有配置，就不必测试频率误差了
 588:App/Src/task.c ****             //     if (g_machineTest.machine.configC != 0xff) {//没有配置configC就不测试电池
 589:App/Src/task.c ****             //         state = 6;
 590:App/Src/task.c ****             //     } else {
 591:App/Src/task.c ****             //         state = 8;
 592:App/Src/task.c ****             //         result = 0;
 593:App/Src/task.c ****             //     }
 594:App/Src/task.c ****             // }
 595:App/Src/task.c ****         break;
 596:App/Src/task.c **** //-----------------------------测试频率------------------------------------------
 597:App/Src/task.c ****         case 3:	
 598:App/Src/task.c ****             rtc_set_int_channel(testNumber);
 599:App/Src/task.c **** 	        rtc_out_4096();            
 600:App/Src/task.c ****             timeout = HAL_GetTick();
 601:App/Src/task.c ****             state++;
 602:App/Src/task.c ****         break;
 603:App/Src/task.c ****         case 4:
 604:App/Src/task.c ****             if (HAL_GetTick() > timeout + 100) {
 605:App/Src/task.c **** 	            DevicePrintf(":MEAS?\n");
 606:App/Src/task.c ****                 timeout = HAL_GetTick();
 607:App/Src/task.c ****                 g_lastFreq.recordTime = timeout;
 608:App/Src/task.c ****                 state++;
 609:App/Src/task.c ****             }
 610:App/Src/task.c ****         break;
 611:App/Src/task.c ****         case 5:
 612:App/Src/task.c ****             if (g_lastFreq.recordTime > timeout) {//有新的数据更新，计算误差
 613:App/Src/task.c ****                 g_machineTest.machine.testFreq = g_lastFreq.freq;
 614:App/Src/task.c ****                 ppm4096 = (g_machineTest.machine.testFreq / CENTER_FREQENCY - 1) * 1000000;
ARM GAS  C:\Users\86158\AppData\Local\Temp\cc7PXljM.s 			page 73


 615:App/Src/task.c ****                 UsbPrintf("%f, ppm:%.2f\n", g_machineTest.machine.testFreq, ppm4096);
 616:App/Src/task.c ****                 log_printf("%f, ppm:%.2f\n", g_machineTest.machine.testFreq, ppm4096);
 617:App/Src/task.c ****                 if (ppm4096 < -3 || ppm4096 > 3) {
 618:App/Src/task.c ****                     result = 0;
 619:App/Src/task.c ****                 }
 620:App/Src/task.c **** 	            rtc_disable_int();
 621:App/Src/task.c ****                 state++;
 622:App/Src/task.c ****             }
 623:App/Src/task.c ****             if (HAL_GetTick() > timeout + 1500) {//1.5s超时
 624:App/Src/task.c ****                 UsbPrintf("device no respose!\n");
 625:App/Src/task.c ****                 log_printf("device no respose!\n");
 626:App/Src/task.c ****                 result = 0;
 627:App/Src/task.c **** 	            rtc_disable_int();
 628:App/Src/task.c ****                 state++;
 629:App/Src/task.c ****             }
 630:App/Src/task.c ****         break;
 631:App/Src/task.c **** //---------------------------测试电池--------------------------------------------------
 632:App/Src/task.c ****         case 6://测试电池功能，电池电压
 633:App/Src/task.c ****             HAL_GPIO_WritePin(GPIOB, GPIO_PIN_2 << ((testNumber - 1) / 14), GPIO_PIN_RESET);
 634:App/Src/task.c ****             HAL_Delay(5);
 635:App/Src/task.c ****             rtc_read_vbat(&vbat);
 636:App/Src/task.c ****             g_machineTest.machine.vbat_2V5 = vbat * 10;
 637:App/Src/task.c ****             UsbPrintf("vbat = %dmV\n", g_machineTest.machine.vbat_2V5);
 638:App/Src/task.c ****             log_printf("vbat = %dmV\n", g_machineTest.machine.vbat_2V5);
 639:App/Src/task.c ****             if (g_machineTest.machine.vbat_2V5 < 2300 || g_machineTest.machine.vbat_2V5 > 2700) {
 640:App/Src/task.c ****                 result = 0;
 641:App/Src/task.c ****             }
 642:App/Src/task.c ****             HAL_GPIO_WritePin(GPIOB, GPIO_PIN_2 << ((testNumber - 1) / 14), GPIO_PIN_SET);
 643:App/Src/task.c ****             state++;
 644:App/Src/task.c ****         break;
 645:App/Src/task.c ****         case 7://充电电压
 646:App/Src/task.c ****             rtc_set_bat_charge(1);
 647:App/Src/task.c ****             HAL_Delay(5);
 648:App/Src/task.c ****             rtc_read_vbat(&vbat);
 649:App/Src/task.c ****             g_machineTest.machine.charge = vbat * 10;
 650:App/Src/task.c ****             UsbPrintf("charge = %dmV\n", g_machineTest.machine.charge);
 651:App/Src/task.c ****             if (g_machineTest.machine.charge < 2800 || g_machineTest.machine.charge > 3500) {//检查
 652:App/Src/task.c ****                 result = 0;
 653:App/Src/task.c ****             }
 654:App/Src/task.c ****             rtc_set_bat_charge(0);//关闭充电功能
 655:App/Src/task.c ****             state++;
 656:App/Src/task.c ****         break;
 657:App/Src/task.c **** //----------------------------测试电流----------------------------------------------------
 658:App/Src/task.c ****         case 8:	
 659:App/Src/task.c ****             rtc_set_testmode();
 660:App/Src/task.c ****             rtc_group_power(testNumber, POWER_VDD_I);
 661:App/Src/task.c ****             timeout = HAL_GetTick();
 662:App/Src/task.c ****             state++;
 663:App/Src/task.c ****         break;
 664:App/Src/task.c ****         case 9:	
 665:App/Src/task.c ****             if (HAL_GetTick() > (timeout + 1000)) {
 666:App/Src/task.c ****                 cur = CS1237Current();
 667:App/Src/task.c ****                 if (cur < 0) {cur = 0;}
 668:App/Src/task.c ****                 g_machineTest.machine.Ivdd = (int)cur;
 669:App/Src/task.c ****                 UsbPrintf("vdd:%dnA\n", g_machineTest.machine.Ivdd);
 670:App/Src/task.c ****                 log_printf("vdd:%dnA\n", g_machineTest.machine.Ivdd);
 671:App/Src/task.c ****                 if (g_machineTest.machine.Ivdd > 1500) {
ARM GAS  C:\Users\86158\AppData\Local\Temp\cc7PXljM.s 			page 74


 672:App/Src/task.c ****                     result = 0;
 673:App/Src/task.c ****                 }
 674:App/Src/task.c ****                 rtc_group_power(testNumber, POWER_BAT_I);
 675:App/Src/task.c ****                 timeout = HAL_GetTick();
 676:App/Src/task.c ****                 state++;
 677:App/Src/task.c ****             }
 678:App/Src/task.c ****         break;
 679:App/Src/task.c ****         case 10:
 680:App/Src/task.c ****             if (HAL_GetTick() > (timeout + 1000)) {
 681:App/Src/task.c ****                 cur = CS1237Current();
 682:App/Src/task.c ****                 if (cur < 0) {cur = 0;}
 683:App/Src/task.c ****                 g_machineTest.machine.Ivbat =(int)cur;
 684:App/Src/task.c ****                 UsbPrintf("bat:%dnA\n", g_machineTest.machine.Ivbat);
 685:App/Src/task.c ****                 log_printf("bat:%dnA\n", g_machineTest.machine.Ivbat);
 686:App/Src/task.c ****                 if (g_machineTest.machine.Ivbat > 1500) {
 687:App/Src/task.c ****                     result = 0;
 688:App/Src/task.c ****                 }
 689:App/Src/task.c ****                 rtc_group_power(testNumber, POWER_I2C);
 690:App/Src/task.c ****                 // rtc_exit_testmode();
 691:App/Src/task.c ****                 state++;
 692:App/Src/task.c ****             }
 693:App/Src/task.c ****         break;
 694:App/Src/task.c ****         case 11:
 695:App/Src/task.c ****             //-----------------------------测试结束------------------------------------------------
 696:App/Src/task.c ****             if (result == 0) {
 697:App/Src/task.c ****                 UsbPrintf("test all end, chip %d NG\n", testNumber);
 698:App/Src/task.c ****                 log_printf("test all end, chip %d NG\n", testNumber);
 699:App/Src/task.c ****             } else {
 700:App/Src/task.c ****                 UsbPrintf("test all end, chip %d OK\n", testNumber);
 701:App/Src/task.c ****                 log_printf("test all end, chip %d OK\n", testNumber);
 702:App/Src/task.c ****             }
 703:App/Src/task.c ****             state = 0;
 704:App/Src/task.c ****         break;
 705:App/Src/task.c ****         default:  break;
 706:App/Src/task.c ****     }
 707:App/Src/task.c ****     if (HAL_GetTick() > startTime + 20000) { return -1; }//单个芯片测试时间超过20s时，强制判定ng；
 2882              		.loc 1 707 5 view .LVU751
 2883              		.loc 1 707 9 is_stmt 0 view .LVU752
 2884 00a6 FFF7FEFF 		bl	HAL_GetTick
 2885              	.LVL222:
 2886              		.loc 1 707 35 view .LVU753
 2887 00aa 914B     		ldr	r3, .L227+12
 2888 00ac 1B68     		ldr	r3, [r3]
 2889 00ae 03F59C43 		add	r3, r3, #19968
 2890 00b2 2033     		adds	r3, r3, #32
 2891              		.loc 1 707 8 view .LVU754
 2892 00b4 9842     		cmp	r0, r3
 2893 00b6 00F2C581 		bhi	.L219
 708:App/Src/task.c ****     if (state == 0) {
 2894              		.loc 1 708 5 is_stmt 1 view .LVU755
 2895              		.loc 1 708 15 is_stmt 0 view .LVU756
 2896 00ba 8A4B     		ldr	r3, .L227
 2897 00bc 1B78     		ldrb	r3, [r3]	@ zero_extendqisi2
 2898              		.loc 1 708 8 view .LVU757
 2899 00be 002B     		cmp	r3, #0
 2900 00c0 40F0C681 		bne	.L220
 709:App/Src/task.c ****         if (result != 0) {
ARM GAS  C:\Users\86158\AppData\Local\Temp\cc7PXljM.s 			page 75


 2901              		.loc 1 709 9 is_stmt 1 view .LVU758
 2902              		.loc 1 709 20 is_stmt 0 view .LVU759
 2903 00c4 8C4B     		ldr	r3, .L227+20
 2904 00c6 1B78     		ldrb	r3, [r3]	@ zero_extendqisi2
 2905              		.loc 1 709 12 view .LVU760
 2906 00c8 002B     		cmp	r3, #0
 2907 00ca 00F0C381 		beq	.L221
 710:App/Src/task.c ****             return 1;
 2908              		.loc 1 710 20 view .LVU761
 2909 00ce 0120     		movs	r0, #1
 2910 00d0 BAE1     		b	.L190
 2911              	.L202:
 598:App/Src/task.c **** 	        rtc_out_4096();            
 2912              		.loc 1 598 13 is_stmt 1 view .LVU762
 2913 00d2 854B     		ldr	r3, .L227+4
 2914 00d4 1878     		ldrb	r0, [r3]	@ zero_extendqisi2
 2915 00d6 FFF7FEFF 		bl	rtc_set_int_channel
 2916              	.LVL223:
 599:App/Src/task.c ****             timeout = HAL_GetTick();
 2917              		.loc 1 599 10 view .LVU763
 2918 00da FFF7FEFF 		bl	rtc_out_4096
 2919              	.LVL224:
 600:App/Src/task.c ****             state++;
 2920              		.loc 1 600 13 view .LVU764
 600:App/Src/task.c ****             state++;
 2921              		.loc 1 600 23 is_stmt 0 view .LVU765
 2922 00de FFF7FEFF 		bl	HAL_GetTick
 2923              	.LVL225:
 600:App/Src/task.c ****             state++;
 2924              		.loc 1 600 21 view .LVU766
 2925 00e2 864B     		ldr	r3, .L227+24
 2926 00e4 1860     		str	r0, [r3]
 601:App/Src/task.c ****         break;
 2927              		.loc 1 601 13 is_stmt 1 view .LVU767
 601:App/Src/task.c ****         break;
 2928              		.loc 1 601 18 is_stmt 0 view .LVU768
 2929 00e6 7F4A     		ldr	r2, .L227
 2930 00e8 1378     		ldrb	r3, [r2]	@ zero_extendqisi2
 2931 00ea 0133     		adds	r3, r3, #1
 2932 00ec 1370     		strb	r3, [r2]
 602:App/Src/task.c ****         case 4:
 2933              		.loc 1 602 9 is_stmt 1 view .LVU769
 2934 00ee DAE7     		b	.L192
 2935              	.L201:
 604:App/Src/task.c **** 	            DevicePrintf(":MEAS?\n");
 2936              		.loc 1 604 13 view .LVU770
 604:App/Src/task.c **** 	            DevicePrintf(":MEAS?\n");
 2937              		.loc 1 604 17 is_stmt 0 view .LVU771
 2938 00f0 FFF7FEFF 		bl	HAL_GetTick
 2939              	.LVL226:
 604:App/Src/task.c **** 	            DevicePrintf(":MEAS?\n");
 2940              		.loc 1 604 41 view .LVU772
 2941 00f4 814B     		ldr	r3, .L227+24
 2942 00f6 1B68     		ldr	r3, [r3]
 2943 00f8 6433     		adds	r3, r3, #100
 604:App/Src/task.c **** 	            DevicePrintf(":MEAS?\n");
 2944              		.loc 1 604 16 view .LVU773
ARM GAS  C:\Users\86158\AppData\Local\Temp\cc7PXljM.s 			page 76


 2945 00fa 9842     		cmp	r0, r3
 2946 00fc D3D9     		bls	.L192
 605:App/Src/task.c ****                 timeout = HAL_GetTick();
 2947              		.loc 1 605 14 is_stmt 1 view .LVU774
 2948 00fe 8048     		ldr	r0, .L227+28
 2949 0100 FFF7FEFF 		bl	DevicePrintf
 2950              	.LVL227:
 606:App/Src/task.c ****                 g_lastFreq.recordTime = timeout;
 2951              		.loc 1 606 17 view .LVU775
 606:App/Src/task.c ****                 g_lastFreq.recordTime = timeout;
 2952              		.loc 1 606 27 is_stmt 0 view .LVU776
 2953 0104 FFF7FEFF 		bl	HAL_GetTick
 2954              	.LVL228:
 606:App/Src/task.c ****                 g_lastFreq.recordTime = timeout;
 2955              		.loc 1 606 25 view .LVU777
 2956 0108 7C4B     		ldr	r3, .L227+24
 2957 010a 1860     		str	r0, [r3]
 607:App/Src/task.c ****                 state++;
 2958              		.loc 1 607 17 is_stmt 1 view .LVU778
 607:App/Src/task.c ****                 state++;
 2959              		.loc 1 607 39 is_stmt 0 view .LVU779
 2960 010c 7D4B     		ldr	r3, .L227+32
 2961 010e 1860     		str	r0, [r3]
 608:App/Src/task.c ****             }
 2962              		.loc 1 608 17 is_stmt 1 view .LVU780
 608:App/Src/task.c ****             }
 2963              		.loc 1 608 22 is_stmt 0 view .LVU781
 2964 0110 744A     		ldr	r2, .L227
 2965 0112 1378     		ldrb	r3, [r2]	@ zero_extendqisi2
 2966 0114 0133     		adds	r3, r3, #1
 2967 0116 1370     		strb	r3, [r2]
 2968 0118 C5E7     		b	.L192
 2969              	.L200:
 612:App/Src/task.c ****                 g_machineTest.machine.testFreq = g_lastFreq.freq;
 2970              		.loc 1 612 13 is_stmt 1 view .LVU782
 612:App/Src/task.c ****                 g_machineTest.machine.testFreq = g_lastFreq.freq;
 2971              		.loc 1 612 27 is_stmt 0 view .LVU783
 2972 011a 7A4B     		ldr	r3, .L227+32
 2973 011c 1A68     		ldr	r2, [r3]
 612:App/Src/task.c ****                 g_machineTest.machine.testFreq = g_lastFreq.freq;
 2974              		.loc 1 612 39 view .LVU784
 2975 011e 774B     		ldr	r3, .L227+24
 2976 0120 1B68     		ldr	r3, [r3]
 612:App/Src/task.c ****                 g_machineTest.machine.testFreq = g_lastFreq.freq;
 2977              		.loc 1 612 16 view .LVU785
 2978 0122 9A42     		cmp	r2, r3
 2979 0124 18D8     		bhi	.L224
 2980              	.L204:
 623:App/Src/task.c ****                 UsbPrintf("device no respose!\n");
 2981              		.loc 1 623 13 is_stmt 1 view .LVU786
 623:App/Src/task.c ****                 UsbPrintf("device no respose!\n");
 2982              		.loc 1 623 17 is_stmt 0 view .LVU787
 2983 0126 FFF7FEFF 		bl	HAL_GetTick
 2984              	.LVL229:
 623:App/Src/task.c ****                 UsbPrintf("device no respose!\n");
 2985              		.loc 1 623 41 view .LVU788
 2986 012a 744B     		ldr	r3, .L227+24
ARM GAS  C:\Users\86158\AppData\Local\Temp\cc7PXljM.s 			page 77


 2987 012c 1B68     		ldr	r3, [r3]
 2988 012e 03F2DC53 		addw	r3, r3, #1500
 623:App/Src/task.c ****                 UsbPrintf("device no respose!\n");
 2989              		.loc 1 623 16 view .LVU789
 2990 0132 9842     		cmp	r0, r3
 2991 0134 B7D9     		bls	.L192
 624:App/Src/task.c ****                 log_printf("device no respose!\n");
 2992              		.loc 1 624 17 is_stmt 1 view .LVU790
 2993 0136 744C     		ldr	r4, .L227+36
 2994 0138 2046     		mov	r0, r4
 2995 013a FFF7FEFF 		bl	UsbPrintf
 2996              	.LVL230:
 625:App/Src/task.c ****                 result = 0;
 2997              		.loc 1 625 17 view .LVU791
 2998 013e 2046     		mov	r0, r4
 2999 0140 FFF7FEFF 		bl	log_printf
 3000              	.LVL231:
 626:App/Src/task.c **** 	            rtc_disable_int();
 3001              		.loc 1 626 17 view .LVU792
 626:App/Src/task.c **** 	            rtc_disable_int();
 3002              		.loc 1 626 24 is_stmt 0 view .LVU793
 3003 0144 6C4B     		ldr	r3, .L227+20
 3004 0146 0022     		movs	r2, #0
 3005 0148 1A70     		strb	r2, [r3]
 627:App/Src/task.c ****                 state++;
 3006              		.loc 1 627 14 is_stmt 1 view .LVU794
 3007 014a FFF7FEFF 		bl	rtc_disable_int
 3008              	.LVL232:
 628:App/Src/task.c ****             }
 3009              		.loc 1 628 17 view .LVU795
 628:App/Src/task.c ****             }
 3010              		.loc 1 628 22 is_stmt 0 view .LVU796
 3011 014e 654A     		ldr	r2, .L227
 3012 0150 1378     		ldrb	r3, [r2]	@ zero_extendqisi2
 3013 0152 0133     		adds	r3, r3, #1
 3014 0154 1370     		strb	r3, [r2]
 3015 0156 A6E7     		b	.L192
 3016              	.L224:
 613:App/Src/task.c ****                 ppm4096 = (g_machineTest.machine.testFreq / CENTER_FREQENCY - 1) * 1000000;
 3017              		.loc 1 613 17 is_stmt 1 view .LVU797
 613:App/Src/task.c ****                 ppm4096 = (g_machineTest.machine.testFreq / CENTER_FREQENCY - 1) * 1000000;
 3018              		.loc 1 613 60 is_stmt 0 view .LVU798
 3019 0158 6A4B     		ldr	r3, .L227+32
 3020 015a D3ED018A 		vldr.32	s17, [r3, #4]
 613:App/Src/task.c ****                 ppm4096 = (g_machineTest.machine.testFreq / CENTER_FREQENCY - 1) * 1000000;
 3021              		.loc 1 613 48 view .LVU799
 3022 015e 634F     		ldr	r7, .L227+8
 3023 0160 C7ED138A 		vstr.32	s17, [r7, #76]
 614:App/Src/task.c ****                 UsbPrintf("%f, ppm:%.2f\n", g_machineTest.machine.testFreq, ppm4096);
 3024              		.loc 1 614 17 is_stmt 1 view .LVU800
 614:App/Src/task.c ****                 UsbPrintf("%f, ppm:%.2f\n", g_machineTest.machine.testFreq, ppm4096);
 3025              		.loc 1 614 59 is_stmt 0 view .LVU801
 3026 0164 9FED698A 		vldr.32	s16, .L227+40
 3027 0168 28EE888A 		vmul.f32	s16, s17, s16
 614:App/Src/task.c ****                 UsbPrintf("%f, ppm:%.2f\n", g_machineTest.machine.testFreq, ppm4096);
 3028              		.loc 1 614 77 view .LVU802
 3029 016c F7EE007A 		vmov.f32	s15, #1.0e+0
ARM GAS  C:\Users\86158\AppData\Local\Temp\cc7PXljM.s 			page 78


 3030 0170 38EE678A 		vsub.f32	s16, s16, s15
 614:App/Src/task.c ****                 UsbPrintf("%f, ppm:%.2f\n", g_machineTest.machine.testFreq, ppm4096);
 3031              		.loc 1 614 25 view .LVU803
 3032 0174 DFED667A 		vldr.32	s15, .L227+44
 3033 0178 28EE278A 		vmul.f32	s16, s16, s15
 3034              	.LVL233:
 615:App/Src/task.c ****                 log_printf("%f, ppm:%.2f\n", g_machineTest.machine.testFreq, ppm4096);
 3035              		.loc 1 615 17 is_stmt 1 view .LVU804
 3036 017c 18EE100A 		vmov	r0, s16
 3037 0180 FFF7FEFF 		bl	__aeabi_f2d
 3038              	.LVL234:
 3039 0184 0446     		mov	r4, r0
 3040 0186 0D46     		mov	r5, r1
 3041 0188 18EE900A 		vmov	r0, s17
 3042 018c FFF7FEFF 		bl	__aeabi_f2d
 3043              	.LVL235:
 3044 0190 0246     		mov	r2, r0
 3045 0192 0B46     		mov	r3, r1
 3046 0194 5F4E     		ldr	r6, .L227+48
 3047 0196 CDE90045 		strd	r4, [sp]
 3048 019a 3046     		mov	r0, r6
 3049 019c FFF7FEFF 		bl	UsbPrintf
 3050              	.LVL236:
 616:App/Src/task.c ****                 if (ppm4096 < -3 || ppm4096 > 3) {
 3051              		.loc 1 616 17 view .LVU805
 3052 01a0 F86C     		ldr	r0, [r7, #76]	@ float
 3053 01a2 FFF7FEFF 		bl	__aeabi_f2d
 3054              	.LVL237:
 3055 01a6 0246     		mov	r2, r0
 3056 01a8 0B46     		mov	r3, r1
 3057 01aa CDE90045 		strd	r4, [sp]
 3058 01ae 3046     		mov	r0, r6
 3059 01b0 FFF7FEFF 		bl	log_printf
 3060              	.LVL238:
 617:App/Src/task.c ****                     result = 0;
 3061              		.loc 1 617 17 view .LVU806
 617:App/Src/task.c ****                     result = 0;
 3062              		.loc 1 617 20 is_stmt 0 view .LVU807
 3063 01b4 F8EE087A 		vmov.f32	s15, #-3.0e+0
 3064 01b8 B4EEE78A 		vcmpe.f32	s16, s15
 3065 01bc F1EE10FA 		vmrs	APSR_nzcv, FPSCR
 3066 01c0 06D4     		bmi	.L205
 617:App/Src/task.c ****                     result = 0;
 3067              		.loc 1 617 34 discriminator 1 view .LVU808
 3068 01c2 F0EE087A 		vmov.f32	s15, #3.0e+0
 3069 01c6 B4EEE78A 		vcmpe.f32	s16, s15
 3070 01ca F1EE10FA 		vmrs	APSR_nzcv, FPSCR
 3071 01ce 02DD     		ble	.L206
 3072              	.L205:
 618:App/Src/task.c ****                 }
 3073              		.loc 1 618 21 is_stmt 1 view .LVU809
 618:App/Src/task.c ****                 }
 3074              		.loc 1 618 28 is_stmt 0 view .LVU810
 3075 01d0 494B     		ldr	r3, .L227+20
 3076 01d2 0022     		movs	r2, #0
 3077 01d4 1A70     		strb	r2, [r3]
 3078              	.L206:
ARM GAS  C:\Users\86158\AppData\Local\Temp\cc7PXljM.s 			page 79


 620:App/Src/task.c ****                 state++;
 3079              		.loc 1 620 14 is_stmt 1 view .LVU811
 3080 01d6 FFF7FEFF 		bl	rtc_disable_int
 3081              	.LVL239:
 621:App/Src/task.c ****             }
 3082              		.loc 1 621 17 view .LVU812
 621:App/Src/task.c ****             }
 3083              		.loc 1 621 22 is_stmt 0 view .LVU813
 3084 01da 424A     		ldr	r2, .L227
 3085 01dc 1378     		ldrb	r3, [r2]	@ zero_extendqisi2
 3086 01de 0133     		adds	r3, r3, #1
 3087 01e0 1370     		strb	r3, [r2]
 3088 01e2 A0E7     		b	.L204
 3089              	.LVL240:
 3090              	.L199:
 633:App/Src/task.c ****             HAL_Delay(5);
 3091              		.loc 1 633 13 is_stmt 1 view .LVU814
 633:App/Src/task.c ****             HAL_Delay(5);
 3092              		.loc 1 633 65 is_stmt 0 view .LVU815
 3093 01e4 404B     		ldr	r3, .L227+4
 3094 01e6 1B78     		ldrb	r3, [r3]	@ zero_extendqisi2
 3095 01e8 013B     		subs	r3, r3, #1
 633:App/Src/task.c ****             HAL_Delay(5);
 3096              		.loc 1 633 70 view .LVU816
 3097 01ea 4B49     		ldr	r1, .L227+52
 3098 01ec 81FB0321 		smull	r2, r1, r1, r3
 3099 01f0 1944     		add	r1, r1, r3
 3100 01f2 DB17     		asrs	r3, r3, #31
 3101 01f4 C3EBE103 		rsb	r3, r3, r1, asr #3
 633:App/Src/task.c ****             HAL_Delay(5);
 3102              		.loc 1 633 49 view .LVU817
 3103 01f8 0421     		movs	r1, #4
 3104 01fa 9940     		lsls	r1, r1, r3
 633:App/Src/task.c ****             HAL_Delay(5);
 3105              		.loc 1 633 13 view .LVU818
 3106 01fc 0022     		movs	r2, #0
 3107 01fe 89B2     		uxth	r1, r1
 3108 0200 4648     		ldr	r0, .L227+56
 3109 0202 FFF7FEFF 		bl	HAL_GPIO_WritePin
 3110              	.LVL241:
 634:App/Src/task.c ****             rtc_read_vbat(&vbat);
 3111              		.loc 1 634 13 is_stmt 1 view .LVU819
 3112 0206 0520     		movs	r0, #5
 3113 0208 FFF7FEFF 		bl	HAL_Delay
 3114              	.LVL242:
 635:App/Src/task.c ****             g_machineTest.machine.vbat_2V5 = vbat * 10;
 3115              		.loc 1 635 13 view .LVU820
 3116 020c 03A8     		add	r0, sp, #12
 3117 020e FFF7FEFF 		bl	rtc_read_vbat
 3118              	.LVL243:
 636:App/Src/task.c ****             UsbPrintf("vbat = %dmV\n", g_machineTest.machine.vbat_2V5);
 3119              		.loc 1 636 13 view .LVU821
 636:App/Src/task.c ****             UsbPrintf("vbat = %dmV\n", g_machineTest.machine.vbat_2V5);
 3120              		.loc 1 636 44 is_stmt 0 view .LVU822
 3121 0212 0399     		ldr	r1, [sp, #12]
 3122 0214 01EB8101 		add	r1, r1, r1, lsl #2
 3123 0218 4900     		lsls	r1, r1, #1
ARM GAS  C:\Users\86158\AppData\Local\Temp\cc7PXljM.s 			page 80


 3124 021a 89B2     		uxth	r1, r1
 3125 021c 334C     		ldr	r4, .L227+8
 3126 021e A4F85010 		strh	r1, [r4, #80]	@ movhi
 637:App/Src/task.c ****             log_printf("vbat = %dmV\n", g_machineTest.machine.vbat_2V5);
 3127              		.loc 1 637 13 is_stmt 1 view .LVU823
 3128 0222 3F4D     		ldr	r5, .L227+60
 3129 0224 2846     		mov	r0, r5
 3130 0226 FFF7FEFF 		bl	UsbPrintf
 3131              	.LVL244:
 638:App/Src/task.c ****             if (g_machineTest.machine.vbat_2V5 < 2300 || g_machineTest.machine.vbat_2V5 > 2700) {
 3132              		.loc 1 638 13 view .LVU824
 3133 022a B4F85010 		ldrh	r1, [r4, #80]
 3134 022e 2846     		mov	r0, r5
 3135 0230 FFF7FEFF 		bl	log_printf
 3136              	.LVL245:
 639:App/Src/task.c ****                 result = 0;
 3137              		.loc 1 639 13 view .LVU825
 639:App/Src/task.c ****                 result = 0;
 3138              		.loc 1 639 38 is_stmt 0 view .LVU826
 3139 0234 B4F85030 		ldrh	r3, [r4, #80]
 639:App/Src/task.c ****                 result = 0;
 3140              		.loc 1 639 55 view .LVU827
 3141 0238 A3F6FC03 		subw	r3, r3, #2300
 3142 023c 9BB2     		uxth	r3, r3
 639:App/Src/task.c ****                 result = 0;
 3143              		.loc 1 639 16 view .LVU828
 3144 023e B3F5C87F 		cmp	r3, #400
 3145 0242 02D9     		bls	.L208
 640:App/Src/task.c ****             }
 3146              		.loc 1 640 17 is_stmt 1 view .LVU829
 640:App/Src/task.c ****             }
 3147              		.loc 1 640 24 is_stmt 0 view .LVU830
 3148 0244 2C4B     		ldr	r3, .L227+20
 3149 0246 0022     		movs	r2, #0
 3150 0248 1A70     		strb	r2, [r3]
 3151              	.L208:
 642:App/Src/task.c ****             state++;
 3152              		.loc 1 642 13 is_stmt 1 view .LVU831
 642:App/Src/task.c ****             state++;
 3153              		.loc 1 642 65 is_stmt 0 view .LVU832
 3154 024a 274B     		ldr	r3, .L227+4
 3155 024c 1B78     		ldrb	r3, [r3]	@ zero_extendqisi2
 3156 024e 013B     		subs	r3, r3, #1
 642:App/Src/task.c ****             state++;
 3157              		.loc 1 642 70 view .LVU833
 3158 0250 3149     		ldr	r1, .L227+52
 3159 0252 81FB0321 		smull	r2, r1, r1, r3
 3160 0256 1944     		add	r1, r1, r3
 3161 0258 DB17     		asrs	r3, r3, #31
 3162 025a C3EBE103 		rsb	r3, r3, r1, asr #3
 642:App/Src/task.c ****             state++;
 3163              		.loc 1 642 49 view .LVU834
 3164 025e 0421     		movs	r1, #4
 3165 0260 9940     		lsls	r1, r1, r3
 642:App/Src/task.c ****             state++;
 3166              		.loc 1 642 13 view .LVU835
 3167 0262 0122     		movs	r2, #1
ARM GAS  C:\Users\86158\AppData\Local\Temp\cc7PXljM.s 			page 81


 3168 0264 89B2     		uxth	r1, r1
 3169 0266 2D48     		ldr	r0, .L227+56
 3170 0268 FFF7FEFF 		bl	HAL_GPIO_WritePin
 3171              	.LVL246:
 643:App/Src/task.c ****         break;
 3172              		.loc 1 643 13 is_stmt 1 view .LVU836
 643:App/Src/task.c ****         break;
 3173              		.loc 1 643 18 is_stmt 0 view .LVU837
 3174 026c 1D4A     		ldr	r2, .L227
 3175 026e 1378     		ldrb	r3, [r2]	@ zero_extendqisi2
 3176 0270 0133     		adds	r3, r3, #1
 3177 0272 1370     		strb	r3, [r2]
 644:App/Src/task.c ****         case 7://充电电压
 3178              		.loc 1 644 9 is_stmt 1 view .LVU838
 3179 0274 17E7     		b	.L192
 3180              	.L198:
 646:App/Src/task.c ****             HAL_Delay(5);
 3181              		.loc 1 646 13 view .LVU839
 3182 0276 0120     		movs	r0, #1
 3183 0278 FFF7FEFF 		bl	rtc_set_bat_charge
 3184              	.LVL247:
 647:App/Src/task.c ****             rtc_read_vbat(&vbat);
 3185              		.loc 1 647 13 view .LVU840
 3186 027c 0520     		movs	r0, #5
 3187 027e FFF7FEFF 		bl	HAL_Delay
 3188              	.LVL248:
 648:App/Src/task.c ****             g_machineTest.machine.charge = vbat * 10;
 3189              		.loc 1 648 13 view .LVU841
 3190 0282 03A8     		add	r0, sp, #12
 3191 0284 FFF7FEFF 		bl	rtc_read_vbat
 3192              	.LVL249:
 649:App/Src/task.c ****             UsbPrintf("charge = %dmV\n", g_machineTest.machine.charge);
 3193              		.loc 1 649 13 view .LVU842
 649:App/Src/task.c ****             UsbPrintf("charge = %dmV\n", g_machineTest.machine.charge);
 3194              		.loc 1 649 42 is_stmt 0 view .LVU843
 3195 0288 0399     		ldr	r1, [sp, #12]
 3196 028a 01EB8101 		add	r1, r1, r1, lsl #2
 3197 028e 4900     		lsls	r1, r1, #1
 3198 0290 89B2     		uxth	r1, r1
 3199 0292 164C     		ldr	r4, .L227+8
 3200 0294 A4F85210 		strh	r1, [r4, #82]	@ movhi
 650:App/Src/task.c ****             if (g_machineTest.machine.charge < 2800 || g_machineTest.machine.charge > 3500) {//检查
 3201              		.loc 1 650 13 is_stmt 1 view .LVU844
 3202 0298 2248     		ldr	r0, .L227+64
 3203 029a FFF7FEFF 		bl	UsbPrintf
 3204              	.LVL250:
 651:App/Src/task.c ****                 result = 0;
 3205              		.loc 1 651 13 view .LVU845
 651:App/Src/task.c ****                 result = 0;
 3206              		.loc 1 651 38 is_stmt 0 view .LVU846
 3207 029e B4F85230 		ldrh	r3, [r4, #82]
 651:App/Src/task.c ****                 result = 0;
 3208              		.loc 1 651 53 view .LVU847
 3209 02a2 A3F52F63 		sub	r3, r3, #2800
 3210 02a6 9BB2     		uxth	r3, r3
 651:App/Src/task.c ****                 result = 0;
 3211              		.loc 1 651 16 view .LVU848
ARM GAS  C:\Users\86158\AppData\Local\Temp\cc7PXljM.s 			page 82


 3212 02a8 B3F52F7F 		cmp	r3, #700
 3213 02ac 02D9     		bls	.L209
 652:App/Src/task.c ****             }
 3214              		.loc 1 652 17 is_stmt 1 view .LVU849
 652:App/Src/task.c ****             }
 3215              		.loc 1 652 24 is_stmt 0 view .LVU850
 3216 02ae 124B     		ldr	r3, .L227+20
 3217 02b0 0022     		movs	r2, #0
 3218 02b2 1A70     		strb	r2, [r3]
 3219              	.L209:
 654:App/Src/task.c ****             state++;
 3220              		.loc 1 654 13 is_stmt 1 view .LVU851
 3221 02b4 0020     		movs	r0, #0
 3222 02b6 FFF7FEFF 		bl	rtc_set_bat_charge
 3223              	.LVL251:
 655:App/Src/task.c ****         break;
 3224              		.loc 1 655 13 view .LVU852
 655:App/Src/task.c ****         break;
 3225              		.loc 1 655 18 is_stmt 0 view .LVU853
 3226 02ba 0A4A     		ldr	r2, .L227
 3227 02bc 1378     		ldrb	r3, [r2]	@ zero_extendqisi2
 3228 02be 0133     		adds	r3, r3, #1
 3229 02c0 1370     		strb	r3, [r2]
 656:App/Src/task.c **** //----------------------------测试电流----------------------------------------------------
 3230              		.loc 1 656 9 is_stmt 1 view .LVU854
 3231 02c2 F0E6     		b	.L192
 3232              	.L197:
 659:App/Src/task.c ****             rtc_group_power(testNumber, POWER_VDD_I);
 3233              		.loc 1 659 13 view .LVU855
 3234 02c4 FFF7FEFF 		bl	rtc_set_testmode
 3235              	.LVL252:
 660:App/Src/task.c ****             timeout = HAL_GetTick();
 3236              		.loc 1 660 13 view .LVU856
 3237 02c8 0321     		movs	r1, #3
 3238 02ca 074B     		ldr	r3, .L227+4
 3239 02cc 1878     		ldrb	r0, [r3]	@ zero_extendqisi2
 3240 02ce FFF7FEFF 		bl	rtc_group_power
 3241              	.LVL253:
 661:App/Src/task.c ****             state++;
 3242              		.loc 1 661 13 view .LVU857
 661:App/Src/task.c ****             state++;
 3243              		.loc 1 661 23 is_stmt 0 view .LVU858
 3244 02d2 FFF7FEFF 		bl	HAL_GetTick
 3245              	.LVL254:
 661:App/Src/task.c ****             state++;
 3246              		.loc 1 661 21 view .LVU859
 3247 02d6 094B     		ldr	r3, .L227+24
 3248 02d8 1860     		str	r0, [r3]
 662:App/Src/task.c ****         break;
 3249              		.loc 1 662 13 is_stmt 1 view .LVU860
 662:App/Src/task.c ****         break;
 3250              		.loc 1 662 18 is_stmt 0 view .LVU861
 3251 02da 024A     		ldr	r2, .L227
 3252 02dc 1378     		ldrb	r3, [r2]	@ zero_extendqisi2
 3253 02de 0133     		adds	r3, r3, #1
 3254 02e0 1370     		strb	r3, [r2]
 663:App/Src/task.c ****         case 9:	
ARM GAS  C:\Users\86158\AppData\Local\Temp\cc7PXljM.s 			page 83


 3255              		.loc 1 663 9 is_stmt 1 view .LVU862
 3256 02e2 E0E6     		b	.L192
 3257              	.L228:
 3258              		.align	2
 3259              	.L227:
 3260 02e4 00000000 		.word	.LANCHOR23
 3261 02e8 00000000 		.word	.LANCHOR24
 3262 02ec 00000000 		.word	.LANCHOR25
 3263 02f0 00000000 		.word	.LANCHOR26
 3264 02f4 00000000 		.word	.LC18
 3265 02f8 00000000 		.word	.LANCHOR27
 3266 02fc 00000000 		.word	.LANCHOR28
 3267 0300 3C000000 		.word	.LC5
 3268 0304 00000000 		.word	.LANCHOR9
 3269 0308 58000000 		.word	.LC7
 3270 030c 0000803C 		.word	1015021568
 3271 0310 00247449 		.word	1232348160
 3272 0314 18000000 		.word	.LC19
 3273 0318 93244992 		.word	-1840700269
 3274 031c 00040240 		.word	1073873920
 3275 0320 28000000 		.word	.LC20
 3276 0324 38000000 		.word	.LC21
 3277              	.L196:
 665:App/Src/task.c ****                 cur = CS1237Current();
 3278              		.loc 1 665 13 view .LVU863
 665:App/Src/task.c ****                 cur = CS1237Current();
 3279              		.loc 1 665 17 is_stmt 0 view .LVU864
 3280 0328 FFF7FEFF 		bl	HAL_GetTick
 3281              	.LVL255:
 665:App/Src/task.c ****                 cur = CS1237Current();
 3282              		.loc 1 665 42 view .LVU865
 3283 032c 4B4B     		ldr	r3, .L229
 3284 032e 1B68     		ldr	r3, [r3]
 3285 0330 03F57A73 		add	r3, r3, #1000
 665:App/Src/task.c ****                 cur = CS1237Current();
 3286              		.loc 1 665 16 view .LVU866
 3287 0334 9842     		cmp	r0, r3
 3288 0336 7FF6B6AE 		bls	.L192
 666:App/Src/task.c ****                 if (cur < 0) {cur = 0;}
 3289              		.loc 1 666 17 is_stmt 1 view .LVU867
 666:App/Src/task.c ****                 if (cur < 0) {cur = 0;}
 3290              		.loc 1 666 23 is_stmt 0 view .LVU868
 3291 033a FFF7FEFF 		bl	CS1237Current
 3292              	.LVL256:
 667:App/Src/task.c ****                 g_machineTest.machine.Ivdd = (int)cur;
 3293              		.loc 1 667 17 is_stmt 1 view .LVU869
 667:App/Src/task.c ****                 g_machineTest.machine.Ivdd = (int)cur;
 3294              		.loc 1 667 20 is_stmt 0 view .LVU870
 3295 033e B5EEC00A 		vcmpe.f32	s0, #0
 3296 0342 F1EE10FA 		vmrs	APSR_nzcv, FPSCR
 3297 0346 27D4     		bmi	.L225
 3298              	.LVL257:
 3299              	.L210:
 668:App/Src/task.c ****                 UsbPrintf("vdd:%dnA\n", g_machineTest.machine.Ivdd);
 3300              		.loc 1 668 17 is_stmt 1 view .LVU871
 668:App/Src/task.c ****                 UsbPrintf("vdd:%dnA\n", g_machineTest.machine.Ivdd);
 3301              		.loc 1 668 46 is_stmt 0 view .LVU872
ARM GAS  C:\Users\86158\AppData\Local\Temp\cc7PXljM.s 			page 84


 3302 0348 BDEEC00A 		vcvt.s32.f32	s0, s0
 3303              	.LVL258:
 668:App/Src/task.c ****                 UsbPrintf("vdd:%dnA\n", g_machineTest.machine.Ivdd);
 3304              		.loc 1 668 44 view .LVU873
 3305 034c 10EE103A 		vmov	r3, s0	@ int
 3306 0350 99B2     		uxth	r1, r3
 3307 0352 434C     		ldr	r4, .L229+4
 3308 0354 A4F84410 		strh	r1, [r4, #68]	@ movhi
 669:App/Src/task.c ****                 log_printf("vdd:%dnA\n", g_machineTest.machine.Ivdd);
 3309              		.loc 1 669 17 is_stmt 1 view .LVU874
 3310 0358 424D     		ldr	r5, .L229+8
 3311 035a 2846     		mov	r0, r5
 3312 035c FFF7FEFF 		bl	UsbPrintf
 3313              	.LVL259:
 670:App/Src/task.c ****                 if (g_machineTest.machine.Ivdd > 1500) {
 3314              		.loc 1 670 17 view .LVU875
 3315 0360 B4F84410 		ldrh	r1, [r4, #68]
 3316 0364 2846     		mov	r0, r5
 3317 0366 FFF7FEFF 		bl	log_printf
 3318              	.LVL260:
 671:App/Src/task.c ****                     result = 0;
 3319              		.loc 1 671 17 view .LVU876
 671:App/Src/task.c ****                     result = 0;
 3320              		.loc 1 671 42 is_stmt 0 view .LVU877
 3321 036a B4F84420 		ldrh	r2, [r4, #68]
 671:App/Src/task.c ****                     result = 0;
 3322              		.loc 1 671 20 view .LVU878
 3323 036e 40F2DC53 		movw	r3, #1500
 3324 0372 9A42     		cmp	r2, r3
 3325 0374 02D9     		bls	.L211
 672:App/Src/task.c ****                 }
 3326              		.loc 1 672 21 is_stmt 1 view .LVU879
 672:App/Src/task.c ****                 }
 3327              		.loc 1 672 28 is_stmt 0 view .LVU880
 3328 0376 3C4B     		ldr	r3, .L229+12
 3329 0378 0022     		movs	r2, #0
 3330 037a 1A70     		strb	r2, [r3]
 3331              	.L211:
 674:App/Src/task.c ****                 timeout = HAL_GetTick();
 3332              		.loc 1 674 17 is_stmt 1 view .LVU881
 3333 037c 0221     		movs	r1, #2
 3334 037e 3B4B     		ldr	r3, .L229+16
 3335 0380 1878     		ldrb	r0, [r3]	@ zero_extendqisi2
 3336 0382 FFF7FEFF 		bl	rtc_group_power
 3337              	.LVL261:
 675:App/Src/task.c ****                 state++;
 3338              		.loc 1 675 17 view .LVU882
 675:App/Src/task.c ****                 state++;
 3339              		.loc 1 675 27 is_stmt 0 view .LVU883
 3340 0386 FFF7FEFF 		bl	HAL_GetTick
 3341              	.LVL262:
 675:App/Src/task.c ****                 state++;
 3342              		.loc 1 675 25 view .LVU884
 3343 038a 344B     		ldr	r3, .L229
 3344 038c 1860     		str	r0, [r3]
 676:App/Src/task.c ****             }
 3345              		.loc 1 676 17 is_stmt 1 view .LVU885
ARM GAS  C:\Users\86158\AppData\Local\Temp\cc7PXljM.s 			page 85


 676:App/Src/task.c ****             }
 3346              		.loc 1 676 22 is_stmt 0 view .LVU886
 3347 038e 384A     		ldr	r2, .L229+20
 3348 0390 1378     		ldrb	r3, [r2]	@ zero_extendqisi2
 3349 0392 0133     		adds	r3, r3, #1
 3350 0394 1370     		strb	r3, [r2]
 3351 0396 86E6     		b	.L192
 3352              	.LVL263:
 3353              	.L225:
 667:App/Src/task.c ****                 g_machineTest.machine.Ivdd = (int)cur;
 3354              		.loc 1 667 35 view .LVU887
 3355 0398 9FED360A 		vldr.32	s0, .L229+24
 3356              	.LVL264:
 667:App/Src/task.c ****                 g_machineTest.machine.Ivdd = (int)cur;
 3357              		.loc 1 667 35 view .LVU888
 3358 039c D4E7     		b	.L210
 3359              	.L195:
 680:App/Src/task.c ****                 cur = CS1237Current();
 3360              		.loc 1 680 13 is_stmt 1 view .LVU889
 680:App/Src/task.c ****                 cur = CS1237Current();
 3361              		.loc 1 680 17 is_stmt 0 view .LVU890
 3362 039e FFF7FEFF 		bl	HAL_GetTick
 3363              	.LVL265:
 680:App/Src/task.c ****                 cur = CS1237Current();
 3364              		.loc 1 680 42 view .LVU891
 3365 03a2 2E4B     		ldr	r3, .L229
 3366 03a4 1B68     		ldr	r3, [r3]
 3367 03a6 03F57A73 		add	r3, r3, #1000
 680:App/Src/task.c ****                 cur = CS1237Current();
 3368              		.loc 1 680 16 view .LVU892
 3369 03aa 9842     		cmp	r0, r3
 3370 03ac 7FF67BAE 		bls	.L192
 681:App/Src/task.c ****                 if (cur < 0) {cur = 0;}
 3371              		.loc 1 681 17 is_stmt 1 view .LVU893
 681:App/Src/task.c ****                 if (cur < 0) {cur = 0;}
 3372              		.loc 1 681 23 is_stmt 0 view .LVU894
 3373 03b0 FFF7FEFF 		bl	CS1237Current
 3374              	.LVL266:
 682:App/Src/task.c ****                 g_machineTest.machine.Ivbat =(int)cur;
 3375              		.loc 1 682 17 is_stmt 1 view .LVU895
 682:App/Src/task.c ****                 g_machineTest.machine.Ivbat =(int)cur;
 3376              		.loc 1 682 20 is_stmt 0 view .LVU896
 3377 03b4 B5EEC00A 		vcmpe.f32	s0, #0
 3378 03b8 F1EE10FA 		vmrs	APSR_nzcv, FPSCR
 3379 03bc 23D4     		bmi	.L226
 3380              	.LVL267:
 3381              	.L212:
 683:App/Src/task.c ****                 UsbPrintf("bat:%dnA\n", g_machineTest.machine.Ivbat);
 3382              		.loc 1 683 17 is_stmt 1 view .LVU897
 683:App/Src/task.c ****                 UsbPrintf("bat:%dnA\n", g_machineTest.machine.Ivbat);
 3383              		.loc 1 683 46 is_stmt 0 view .LVU898
 3384 03be BDEEC00A 		vcvt.s32.f32	s0, s0
 3385              	.LVL268:
 683:App/Src/task.c ****                 UsbPrintf("bat:%dnA\n", g_machineTest.machine.Ivbat);
 3386              		.loc 1 683 45 view .LVU899
 3387 03c2 10EE103A 		vmov	r3, s0	@ int
 3388 03c6 99B2     		uxth	r1, r3
ARM GAS  C:\Users\86158\AppData\Local\Temp\cc7PXljM.s 			page 86


 3389 03c8 254C     		ldr	r4, .L229+4
 3390 03ca A4F84610 		strh	r1, [r4, #70]	@ movhi
 684:App/Src/task.c ****                 log_printf("bat:%dnA\n", g_machineTest.machine.Ivbat);
 3391              		.loc 1 684 17 is_stmt 1 view .LVU900
 3392 03ce 2A4D     		ldr	r5, .L229+28
 3393 03d0 2846     		mov	r0, r5
 3394 03d2 FFF7FEFF 		bl	UsbPrintf
 3395              	.LVL269:
 685:App/Src/task.c ****                 if (g_machineTest.machine.Ivbat > 1500) {
 3396              		.loc 1 685 17 view .LVU901
 3397 03d6 B4F84610 		ldrh	r1, [r4, #70]
 3398 03da 2846     		mov	r0, r5
 3399 03dc FFF7FEFF 		bl	log_printf
 3400              	.LVL270:
 686:App/Src/task.c ****                     result = 0;
 3401              		.loc 1 686 17 view .LVU902
 686:App/Src/task.c ****                     result = 0;
 3402              		.loc 1 686 42 is_stmt 0 view .LVU903
 3403 03e0 B4F84620 		ldrh	r2, [r4, #70]
 686:App/Src/task.c ****                     result = 0;
 3404              		.loc 1 686 20 view .LVU904
 3405 03e4 40F2DC53 		movw	r3, #1500
 3406 03e8 9A42     		cmp	r2, r3
 3407 03ea 02D9     		bls	.L213
 687:App/Src/task.c ****                 }
 3408              		.loc 1 687 21 is_stmt 1 view .LVU905
 687:App/Src/task.c ****                 }
 3409              		.loc 1 687 28 is_stmt 0 view .LVU906
 3410 03ec 1E4B     		ldr	r3, .L229+12
 3411 03ee 0022     		movs	r2, #0
 3412 03f0 1A70     		strb	r2, [r3]
 3413              	.L213:
 689:App/Src/task.c ****                 // rtc_exit_testmode();
 3414              		.loc 1 689 17 is_stmt 1 view .LVU907
 3415 03f2 0121     		movs	r1, #1
 3416 03f4 1D4B     		ldr	r3, .L229+16
 3417 03f6 1878     		ldrb	r0, [r3]	@ zero_extendqisi2
 3418 03f8 FFF7FEFF 		bl	rtc_group_power
 3419              	.LVL271:
 691:App/Src/task.c ****             }
 3420              		.loc 1 691 17 view .LVU908
 691:App/Src/task.c ****             }
 3421              		.loc 1 691 22 is_stmt 0 view .LVU909
 3422 03fc 1C4A     		ldr	r2, .L229+20
 3423 03fe 1378     		ldrb	r3, [r2]	@ zero_extendqisi2
 3424 0400 0133     		adds	r3, r3, #1
 3425 0402 1370     		strb	r3, [r2]
 3426 0404 4FE6     		b	.L192
 3427              	.LVL272:
 3428              	.L226:
 682:App/Src/task.c ****                 g_machineTest.machine.Ivbat =(int)cur;
 3429              		.loc 1 682 35 view .LVU910
 3430 0406 9FED1B0A 		vldr.32	s0, .L229+24
 3431              	.LVL273:
 682:App/Src/task.c ****                 g_machineTest.machine.Ivbat =(int)cur;
 3432              		.loc 1 682 35 view .LVU911
 3433 040a D8E7     		b	.L212
ARM GAS  C:\Users\86158\AppData\Local\Temp\cc7PXljM.s 			page 87


 3434              	.L193:
 696:App/Src/task.c ****                 UsbPrintf("test all end, chip %d NG\n", testNumber);
 3435              		.loc 1 696 13 is_stmt 1 view .LVU912
 696:App/Src/task.c ****                 UsbPrintf("test all end, chip %d NG\n", testNumber);
 3436              		.loc 1 696 24 is_stmt 0 view .LVU913
 3437 040c 164B     		ldr	r3, .L229+12
 3438 040e 1B78     		ldrb	r3, [r3]	@ zero_extendqisi2
 696:App/Src/task.c ****                 UsbPrintf("test all end, chip %d NG\n", testNumber);
 3439              		.loc 1 696 16 view .LVU914
 3440 0410 6BB9     		cbnz	r3, .L214
 697:App/Src/task.c ****                 log_printf("test all end, chip %d NG\n", testNumber);
 3441              		.loc 1 697 17 is_stmt 1 view .LVU915
 3442 0412 164D     		ldr	r5, .L229+16
 3443 0414 194C     		ldr	r4, .L229+32
 3444 0416 2978     		ldrb	r1, [r5]	@ zero_extendqisi2
 3445 0418 2046     		mov	r0, r4
 3446 041a FFF7FEFF 		bl	UsbPrintf
 3447              	.LVL274:
 698:App/Src/task.c ****             } else {
 3448              		.loc 1 698 17 view .LVU916
 3449 041e 2978     		ldrb	r1, [r5]	@ zero_extendqisi2
 3450 0420 2046     		mov	r0, r4
 3451 0422 FFF7FEFF 		bl	log_printf
 3452              	.LVL275:
 3453              	.L215:
 703:App/Src/task.c ****         break;
 3454              		.loc 1 703 13 view .LVU917
 703:App/Src/task.c ****         break;
 3455              		.loc 1 703 19 is_stmt 0 view .LVU918
 3456 0426 124B     		ldr	r3, .L229+20
 3457 0428 0022     		movs	r2, #0
 3458 042a 1A70     		strb	r2, [r3]
 704:App/Src/task.c ****         default:  break;
 3459              		.loc 1 704 9 is_stmt 1 view .LVU919
 3460 042c 3BE6     		b	.L192
 3461              	.L214:
 700:App/Src/task.c ****                 log_printf("test all end, chip %d OK\n", testNumber);
 3462              		.loc 1 700 17 view .LVU920
 3463 042e 0F4D     		ldr	r5, .L229+16
 3464 0430 134C     		ldr	r4, .L229+36
 3465 0432 2978     		ldrb	r1, [r5]	@ zero_extendqisi2
 3466 0434 2046     		mov	r0, r4
 3467 0436 FFF7FEFF 		bl	UsbPrintf
 3468              	.LVL276:
 701:App/Src/task.c ****             }
 3469              		.loc 1 701 17 view .LVU921
 3470 043a 2978     		ldrb	r1, [r5]	@ zero_extendqisi2
 3471 043c 2046     		mov	r0, r4
 3472 043e FFF7FEFF 		bl	log_printf
 3473              	.LVL277:
 3474 0442 F0E7     		b	.L215
 3475              	.L219:
 707:App/Src/task.c ****     if (state == 0) {
 3476              		.loc 1 707 53 is_stmt 0 view .LVU922
 3477 0444 4FF0FF30 		mov	r0, #-1
 3478              	.L190:
 711:App/Src/task.c ****         } else {
ARM GAS  C:\Users\86158\AppData\Local\Temp\cc7PXljM.s 			page 88


 712:App/Src/task.c ****             return -1;
 713:App/Src/task.c ****         }
 714:App/Src/task.c ****     } else {
 715:App/Src/task.c ****         return 0;
 716:App/Src/task.c ****     }
 717:App/Src/task.c **** }
 3479              		.loc 1 717 1 view .LVU923
 3480 0448 05B0     		add	sp, sp, #20
 3481              	.LCFI35:
 3482              		.cfi_remember_state
 3483              		.cfi_def_cfa_offset 28
 3484              		@ sp needed
 3485 044a BDEC028B 		vldm	sp!, {d8}
 3486              	.LCFI36:
 3487              		.cfi_restore 80
 3488              		.cfi_restore 81
 3489              		.cfi_def_cfa_offset 20
 3490 044e F0BD     		pop	{r4, r5, r6, r7, pc}
 3491              	.L220:
 3492              	.LCFI37:
 3493              		.cfi_restore_state
 715:App/Src/task.c ****     }
 3494              		.loc 1 715 16 view .LVU924
 3495 0450 0020     		movs	r0, #0
 3496 0452 F9E7     		b	.L190
 3497              	.L221:
 712:App/Src/task.c ****         }
 3498              		.loc 1 712 20 view .LVU925
 3499 0454 4FF0FF30 		mov	r0, #-1
 3500 0458 F6E7     		b	.L190
 3501              	.L230:
 3502 045a 00BF     		.align	2
 3503              	.L229:
 3504 045c 00000000 		.word	.LANCHOR28
 3505 0460 00000000 		.word	.LANCHOR25
 3506 0464 48000000 		.word	.LC22
 3507 0468 00000000 		.word	.LANCHOR27
 3508 046c 00000000 		.word	.LANCHOR24
 3509 0470 00000000 		.word	.LANCHOR23
 3510 0474 00000000 		.word	0
 3511 0478 54000000 		.word	.LC23
 3512 047c 60000000 		.word	.LC24
 3513 0480 7C000000 		.word	.LC25
 3514              		.cfi_endproc
 3515              	.LFE245:
 3517              		.section	.text.make_chip_ID,"ax",%progbits
 3518              		.align	1
 3519              		.global	make_chip_ID
 3520              		.syntax unified
 3521              		.thumb
 3522              		.thumb_func
 3524              	make_chip_ID:
 3525              	.LVL278:
 3526              	.LFB246:
 718:App/Src/task.c **** 
 719:App/Src/task.c **** void make_chip_ID(uint8_t* buffer, uint8_t number)
 720:App/Src/task.c **** {
ARM GAS  C:\Users\86158\AppData\Local\Temp\cc7PXljM.s 			page 89


 3527              		.loc 1 720 1 is_stmt 1 view -0
 3528              		.cfi_startproc
 3529              		@ args = 0, pretend = 0, frame = 0
 3530              		@ frame_needed = 0, uses_anonymous_args = 0
 3531              		@ link register save eliminated.
 721:App/Src/task.c ****     buffer[0] = 0x23;
 3532              		.loc 1 721 5 view .LVU927
 3533              		.loc 1 721 15 is_stmt 0 view .LVU928
 3534 0000 2322     		movs	r2, #35
 3535 0002 0270     		strb	r2, [r0]
 722:App/Src/task.c ****     buffer[1] = 0x10;
 3536              		.loc 1 722 5 is_stmt 1 view .LVU929
 3537              		.loc 1 722 15 is_stmt 0 view .LVU930
 3538 0004 1023     		movs	r3, #16
 3539 0006 4370     		strb	r3, [r0, #1]
 723:App/Src/task.c ****     buffer[2] = 0x09;
 3540              		.loc 1 723 5 is_stmt 1 view .LVU931
 3541              		.loc 1 723 15 is_stmt 0 view .LVU932
 3542 0008 0923     		movs	r3, #9
 3543 000a 8370     		strb	r3, [r0, #2]
 724:App/Src/task.c ****     buffer[3] = 0x00;
 3544              		.loc 1 724 5 is_stmt 1 view .LVU933
 3545              		.loc 1 724 15 is_stmt 0 view .LVU934
 3546 000c 0023     		movs	r3, #0
 3547 000e C370     		strb	r3, [r0, #3]
 725:App/Src/task.c ****     buffer[4] = 0x23;
 3548              		.loc 1 725 5 is_stmt 1 view .LVU935
 3549              		.loc 1 725 15 is_stmt 0 view .LVU936
 3550 0010 0271     		strb	r2, [r0, #4]
 726:App/Src/task.c ****     buffer[5] = 0x41;
 3551              		.loc 1 726 5 is_stmt 1 view .LVU937
 3552              		.loc 1 726 15 is_stmt 0 view .LVU938
 3553 0012 4122     		movs	r2, #65
 3554 0014 4271     		strb	r2, [r0, #5]
 727:App/Src/task.c ****     buffer[6] = 0x00;
 3555              		.loc 1 727 5 is_stmt 1 view .LVU939
 3556              		.loc 1 727 15 is_stmt 0 view .LVU940
 3557 0016 8371     		strb	r3, [r0, #6]
 728:App/Src/task.c ****     buffer[7] = ((number / 10) * 16) + (number % 10);
 3558              		.loc 1 728 5 is_stmt 1 view .LVU941
 3559              		.loc 1 728 38 is_stmt 0 view .LVU942
 3560 0018 A3F13333 		sub	r3, r3, #858993459
 3561 001c A3FB0123 		umull	r2, r3, r3, r1
 3562 0020 DB08     		lsrs	r3, r3, #3
 3563 0022 03EB8302 		add	r2, r3, r3, lsl #2
 3564 0026 A1EB4201 		sub	r1, r1, r2, lsl #1
 3565              	.LVL279:
 3566              		.loc 1 728 38 view .LVU943
 3567 002a 01EB0311 		add	r1, r1, r3, lsl #4
 3568              		.loc 1 728 15 view .LVU944
 3569 002e C171     		strb	r1, [r0, #7]
 729:App/Src/task.c **** }
 3570              		.loc 1 729 1 view .LVU945
 3571 0030 7047     		bx	lr
 3572              		.cfi_endproc
 3573              	.LFE246:
 3575              		.section	.rodata.system_machine_write_one.str1.4,"aMS",%progbits,1
ARM GAS  C:\Users\86158\AppData\Local\Temp\cc7PXljM.s 			page 90


 3576              		.align	2
 3577              	.LC26:
 3578 0000 6D616368 		.ascii	"machine test chip:%d start\012\000"
 3578      696E6520 
 3578      74657374 
 3578      20636869 
 3578      703A2564 
 3579              		.align	2
 3580              	.LC27:
 3581 001c 636F6E66 		.ascii	"config9:0x%02X, configC:0x%02X\012\000"
 3581      6967393A 
 3581      30782530 
 3581      32582C20 
 3581      636F6E66 
 3582              		.align	2
 3583              	.LC28:
 3584 003c 63686970 		.ascii	"chip%d config9 not set, test end!\012\000"
 3584      25642063 
 3584      6F6E6669 
 3584      6739206E 
 3584      6F742073 
 3585 005f 00       		.align	2
 3586              	.LC29:
 3587 0060 73797374 		.ascii	"system temp:%d, \000"
 3587      656D2074 
 3587      656D703A 
 3587      25642C20 
 3587      00
 3588 0071 000000   		.align	2
 3589              	.LC30:
 3590 0074 72746320 		.ascii	"rtc temp:%d\012\000"
 3590      74656D70 
 3590      3A25640A 
 3590      00
 3591 0081 000000   		.align	2
 3592              	.LC31:
 3593 0084 63616C63 		.ascii	"calculate configC:0x%02x\012\000"
 3593      756C6174 
 3593      6520636F 
 3593      6E666967 
 3593      433A3078 
 3594 009e 0000     		.align	2
 3595              	.LC32:
 3596 00a0 6F747020 		.ascii	"otp lock!\012\000"
 3596      6C6F636B 
 3596      210A00
 3597 00ab 00       		.align	2
 3598              	.LC33:
 3599 00ac 63686970 		.ascii	"chip %d otp download error, i2c[%d], config[0x%02x]"
 3599      20256420 
 3599      6F747020 
 3599      646F776E 
 3599      6C6F6164 
 3600 00df 0A00     		.ascii	"\012\000"
 3601 00e1 000000   		.align	2
 3602              	.LC34:
 3603 00e4 63686970 		.ascii	"chip %d otp download error\012\000"
ARM GAS  C:\Users\86158\AppData\Local\Temp\cc7PXljM.s 			page 91


 3603      20256420 
 3603      6F747020 
 3603      646F776E 
 3603      6C6F6164 
 3604              		.align	2
 3605              	.LC35:
 3606 0100 63686970 		.ascii	"chip %d otp download success\012\000"
 3606      20256420 
 3606      6F747020 
 3606      646F776E 
 3606      6C6F6164 
 3607 011e 0000     		.align	2
 3608              	.LC36:
 3609 0120 77616974 		.ascii	"waiting 1s for power off, then renew otp\012\000"
 3609      696E6720 
 3609      31732066 
 3609      6F722070 
 3609      6F776572 
 3610              		.section	.text.system_machine_write_one,"ax",%progbits
 3611              		.align	1
 3612              		.global	system_machine_write_one
 3613              		.syntax unified
 3614              		.thumb
 3615              		.thumb_func
 3617              	system_machine_write_one:
 3618              	.LVL280:
 3619              	.LFB247:
 730:App/Src/task.c **** 
 731:App/Src/task.c **** 
 732:App/Src/task.c **** 
 733:App/Src/task.c **** //-------------------检烧模式-----------------------------------------------
 734:App/Src/task.c **** //即若configc为空，需要烧录otp
 735:App/Src/task.c **** #define TASK_MCHAINE_TEST_END   20
 736:App/Src/task.c **** int system_machine_write_one(uint8_t number, uint8_t mode)
 737:App/Src/task.c **** {
 3620              		.loc 1 737 1 is_stmt 1 view -0
 3621              		.cfi_startproc
 3622              		@ args = 0, pretend = 0, frame = 32
 3623              		@ frame_needed = 0, uses_anonymous_args = 0
 3624              		.loc 1 737 1 is_stmt 0 view .LVU947
 3625 0000 2DE9F043 		push	{r4, r5, r6, r7, r8, r9, lr}
 3626              	.LCFI38:
 3627              		.cfi_def_cfa_offset 28
 3628              		.cfi_offset 4, -28
 3629              		.cfi_offset 5, -24
 3630              		.cfi_offset 6, -20
 3631              		.cfi_offset 7, -16
 3632              		.cfi_offset 8, -12
 3633              		.cfi_offset 9, -8
 3634              		.cfi_offset 14, -4
 3635 0004 2DED028B 		vpush.64	{d8}
 3636              	.LCFI39:
 3637              		.cfi_def_cfa_offset 36
 3638              		.cfi_offset 80, -36
 3639              		.cfi_offset 81, -32
 3640 0008 8BB0     		sub	sp, sp, #44
 3641              	.LCFI40:
ARM GAS  C:\Users\86158\AppData\Local\Temp\cc7PXljM.s 			page 92


 3642              		.cfi_def_cfa_offset 80
 3643 000a 0446     		mov	r4, r0
 738:App/Src/task.c **** 	float ppm4096, cur;
 3644              		.loc 1 738 2 is_stmt 1 view .LVU948
 739:App/Src/task.c **** 	uint8_t buffer[16] = {0};
 3645              		.loc 1 739 2 view .LVU949
 3646              		.loc 1 739 10 is_stmt 0 view .LVU950
 3647 000c 0023     		movs	r3, #0
 3648 000e 0693     		str	r3, [sp, #24]
 3649 0010 0793     		str	r3, [sp, #28]
 3650 0012 0893     		str	r3, [sp, #32]
 3651 0014 0993     		str	r3, [sp, #36]
 740:App/Src/task.c **** 	int vbat = 0;
 3652              		.loc 1 740 2 is_stmt 1 view .LVU951
 3653              		.loc 1 740 6 is_stmt 0 view .LVU952
 3654 0016 0593     		str	r3, [sp, #20]
 741:App/Src/task.c **** 	uint8_t i2c_result;
 3655              		.loc 1 741 2 is_stmt 1 view .LVU953
 742:App/Src/task.c ****     static uint8_t testConfigC = 0;
 3656              		.loc 1 742 5 view .LVU954
 743:App/Src/task.c **** 	static uint8_t result = 1;
 3657              		.loc 1 743 2 view .LVU955
 744:App/Src/task.c ****     static uint8_t state = 0;
 3658              		.loc 1 744 5 view .LVU956
 745:App/Src/task.c ****     static uint32_t timeout;
 3659              		.loc 1 745 5 view .LVU957
 746:App/Src/task.c ****     uint32_t address;	
 3660              		.loc 1 746 5 view .LVU958
 747:App/Src/task.c ****     static uint8_t testNumber = 0;
 3661              		.loc 1 747 5 view .LVU959
 748:App/Src/task.c ****     uint8_t readConfig = 0;
 3662              		.loc 1 748 5 view .LVU960
 3663              	.LVL281:
 749:App/Src/task.c ****     static uint32_t startTime;
 3664              		.loc 1 749 5 view .LVU961
 750:App/Src/task.c **** 
 751:App/Src/task.c ****     if (mode == 1) {//在设置开始时就设定测试序号，后续不能变更
 3665              		.loc 1 751 5 view .LVU962
 3666              		.loc 1 751 8 is_stmt 0 view .LVU963
 3667 0018 0129     		cmp	r1, #1
 3668 001a 1AD0     		beq	.L281
 3669              	.LVL282:
 3670              	.L233:
 752:App/Src/task.c ****         address = TEST_RESULT_START_ADDR + (number - 1) * TEST_RESULT_ONE_SIZE + MACHINE_TEST_ALL +
 753:App/Src/task.c ****         flash_read_data(address, buffer, 4);
 754:App/Src/task.c ****         if (buffer[0] != 0xff || buffer[1] != 0xff || buffer[2] != 0xff || buffer[3] != 0xff) { 
 755:App/Src/task.c ****             state = 0;
 756:App/Src/task.c ****             return 1;
 757:App/Src/task.c ****         }//先读取flash数据，若有数据，表示已测试成功，不会覆盖；
 758:App/Src/task.c ****         state = 1;
 759:App/Src/task.c ****         testNumber = number;
