ARM GAS  C:\Users\84759\AppData\Local\Temp\cciPJLHt.s 			page 1


   1              		.cpu cortex-m3
   2              		.arch armv7-m
   3              		.fpu softvfp
   4              		.eabi_attribute 20, 1
   5              		.eabi_attribute 21, 1
   6              		.eabi_attribute 23, 3
   7              		.eabi_attribute 24, 1
   8              		.eabi_attribute 25, 1
   9              		.eabi_attribute 26, 1
  10              		.eabi_attribute 30, 1
  11              		.eabi_attribute 34, 1
  12              		.eabi_attribute 18, 4
  13              		.file	"command.c"
  14              		.text
  15              	.Ltext0:
  16              		.cfi_sections	.debug_frame
  17              		.section	.text.UsbPrintf,"ax",%progbits
  18              		.align	1
  19              		.global	UsbPrintf
  20              		.syntax unified
  21              		.thumb
  22              		.thumb_func
  24              	UsbPrintf:
  25              	.LVL0:
  26              	.LFB68:
  27              		.file 1 "User/Src/command.c"
   1:User/Src/command.c **** /*
   2:User/Src/command.c ****  * @Author: Liang 
   3:User/Src/command.c ****  * @Date: 2025-03-06 15:18:51
   4:User/Src/command.c ****  * @LastEditors: HA HA 
   5:User/Src/command.c ****  * @LastEditTime: 2025-04-07 09:23:51
   6:User/Src/command.c ****  * @Description: 
   7:User/Src/command.c ****  * 
   8:User/Src/command.c ****  * Copyright (c) 2025 by ${git_name_email}, All Rights Reserved.
   9:User/Src/command.c ****  */
  10:User/Src/command.c **** #include "command.h"
  11:User/Src/command.c **** 
  12:User/Src/command.c **** #define UART_RECEIVE_BUFF_NUMBER    200
  13:User/Src/command.c **** #define UART_TRANSMIT_BUFF_NUMBER   300
  14:User/Src/command.c **** #define USB_UART_TICK_CLEAR         100
  15:User/Src/command.c **** 
  16:User/Src/command.c **** // extern UART_HandleTypeDef huart1;
  17:User/Src/command.c **** // extern UART_HandleTypeDef huart2;
  18:User/Src/command.c **** 
  19:User/Src/command.c **** uint16_t usb_Rx_Cnt = 0;		
  20:User/Src/command.c **** uint8_t usbRxBuf;
  21:User/Src/command.c **** uint8_t g_UsbRxBuff[UART_RECEIVE_BUFF_NUMBER] = {0};
  22:User/Src/command.c **** uint8_t g_UsbTxBuff[UART_TRANSMIT_BUFF_NUMBER] = {0};
  23:User/Src/command.c **** uint8_t g_UsbATStatus = 0;
  24:User/Src/command.c **** 
  25:User/Src/command.c **** uint16_t device_Rx_Cnt = 0;		
  26:User/Src/command.c **** uint8_t deviceRxBuf;
  27:User/Src/command.c **** uint8_t g_DeviceRxBuff[UART_RECEIVE_BUFF_NUMBER] = {0};
  28:User/Src/command.c **** uint8_t g_DeviceTxBuff[UART_TRANSMIT_BUFF_NUMBER] = {0};
  29:User/Src/command.c **** uint8_t g_DeviceATStatus = 0;
  30:User/Src/command.c **** 
  31:User/Src/command.c **** 
ARM GAS  C:\Users\84759\AppData\Local\Temp\cciPJLHt.s 			page 2


  32:User/Src/command.c **** #define RXBUFFERSIZE  1024         //最大接收字节数
  33:User/Src/command.c **** 
  34:User/Src/command.c **** 
  35:User/Src/command.c **** uint8_t  wifiRxBuf;                //接收中断缓冲
  36:User/Src/command.c **** uint32_t Uart3_Rx_Cnt = 0;         //接收缓冲计数
  37:User/Src/command.c **** uint8_t  RxBuffer3[RXBUFFERSIZE];      //接收数据
  38:User/Src/command.c **** 
  39:User/Src/command.c **** 
  40:User/Src/command.c **** #define MAX_COMMAND_NUMBER  40
  41:User/Src/command.c **** #define MAX_COMMAND_LENGTH  20
  42:User/Src/command.c **** static char CommandList[MAX_COMMAND_NUMBER][MAX_COMMAND_LENGTH] = {
  43:User/Src/command.c **** 	"AT^HELP",
  44:User/Src/command.c **** 	"AT^TEST",
  45:User/Src/command.c **** 	"AT^READDATA",
  46:User/Src/command.c **** 	"AT^IICINT",
  47:User/Src/command.c **** 	"AT^SETTIME",
  48:User/Src/command.c **** 	"AT^WIFICMD",
  49:User/Src/command.c **** };
  50:User/Src/command.c **** 
  51:User/Src/command.c **** void UsbPrintf(char* fmt,...)  
  52:User/Src/command.c **** {  
  28              		.loc 1 52 1 view -0
  29              		.cfi_startproc
  30              		@ args = 4, pretend = 16, frame = 8
  31              		@ frame_needed = 0, uses_anonymous_args = 1
  32              		.loc 1 52 1 is_stmt 0 view .LVU1
  33 0000 0FB4     		push	{r0, r1, r2, r3}
  34              	.LCFI0:
  35              		.cfi_def_cfa_offset 16
  36              		.cfi_offset 0, -16
  37              		.cfi_offset 1, -12
  38              		.cfi_offset 2, -8
  39              		.cfi_offset 3, -4
  40 0002 F0B5     		push	{r4, r5, r6, r7, lr}
  41              	.LCFI1:
  42              		.cfi_def_cfa_offset 36
  43              		.cfi_offset 4, -36
  44              		.cfi_offset 5, -32
  45              		.cfi_offset 6, -28
  46              		.cfi_offset 7, -24
  47              		.cfi_offset 14, -20
  48 0004 83B0     		sub	sp, sp, #12
  49              	.LCFI2:
  50              		.cfi_def_cfa_offset 48
  51 0006 08AD     		add	r5, sp, #32
  52 0008 55F8047B 		ldr	r7, [r5], #4
  53:User/Src/command.c **** 	va_list ap;
  53              		.loc 1 53 2 is_stmt 1 view .LVU2
  54:User/Src/command.c **** 	memset(g_UsbTxBuff, 0, UART_TRANSMIT_BUFF_NUMBER);
  54              		.loc 1 54 2 view .LVU3
  55 000c 0E4C     		ldr	r4, .L3
  56 000e 4FF49676 		mov	r6, #300
  57 0012 3246     		mov	r2, r6
  58 0014 0021     		movs	r1, #0
  59 0016 2046     		mov	r0, r4
  60 0018 FFF7FEFF 		bl	memset
  61              	.LVL1:
ARM GAS  C:\Users\84759\AppData\Local\Temp\cciPJLHt.s 			page 3


  55:User/Src/command.c **** 	va_start(ap, fmt);
  62              		.loc 1 55 2 view .LVU4
  63 001c 0195     		str	r5, [sp, #4]
  56:User/Src/command.c **** 	vsnprintf((char*)g_UsbTxBuff, UART_TRANSMIT_BUFF_NUMBER, fmt, ap);
  64              		.loc 1 56 2 view .LVU5
  65 001e 2B46     		mov	r3, r5
  66 0020 3A46     		mov	r2, r7
  67 0022 3146     		mov	r1, r6
  68 0024 2046     		mov	r0, r4
  69 0026 FFF7FEFF 		bl	vsnprintf
  70              	.LVL2:
  57:User/Src/command.c **** 	va_end(ap);
  71              		.loc 1 57 2 view .LVU6
  58:User/Src/command.c **** 	HAL_UART_Transmit(&huart1, g_UsbTxBuff, strlen((char*)g_UsbTxBuff), 1000);
  72              		.loc 1 58 2 view .LVU7
  73              		.loc 1 58 42 is_stmt 0 view .LVU8
  74 002a 2046     		mov	r0, r4
  75 002c FFF7FEFF 		bl	strlen
  76              	.LVL3:
  77              		.loc 1 58 2 view .LVU9
  78 0030 4FF47A73 		mov	r3, #1000
  79 0034 82B2     		uxth	r2, r0
  80 0036 2146     		mov	r1, r4
  81 0038 0448     		ldr	r0, .L3+4
  82 003a FFF7FEFF 		bl	HAL_UART_Transmit
  83              	.LVL4:
  59:User/Src/command.c **** }
  84              		.loc 1 59 1 view .LVU10
  85 003e 03B0     		add	sp, sp, #12
  86              	.LCFI3:
  87              		.cfi_def_cfa_offset 36
  88              		@ sp needed
  89 0040 BDE8F040 		pop	{r4, r5, r6, r7, lr}
  90              	.LCFI4:
  91              		.cfi_restore 14
  92              		.cfi_restore 7
  93              		.cfi_restore 6
  94              		.cfi_restore 5
  95              		.cfi_restore 4
  96              		.cfi_def_cfa_offset 16
  97 0044 04B0     		add	sp, sp, #16
  98              	.LCFI5:
  99              		.cfi_restore 3
 100              		.cfi_restore 2
 101              		.cfi_restore 1
 102              		.cfi_restore 0
 103              		.cfi_def_cfa_offset 0
 104 0046 7047     		bx	lr
 105              	.L4:
 106              		.align	2
 107              	.L3:
 108 0048 00000000 		.word	.LANCHOR0
 109 004c 00000000 		.word	huart1
 110              		.cfi_endproc
 111              	.LFE68:
 113              		.section	.rodata.AT_HELP_Handle.str1.4,"aMS",%progbits,1
 114              		.align	2
ARM GAS  C:\Users\84759\AppData\Local\Temp\cciPJLHt.s 			page 4


 115              	.LC0:
 116 0000 0A00     		.ascii	"\012\000"
 117 0002 0000     		.align	2
 118              	.LC1:
 119 0004 25642E20 		.ascii	"%d. %s\012\000"
 119      25730A00 
 120              		.align	2
 121              	.LC2:
 122 000c 636F6D6D 		.ascii	"command number: %d\012\000"
 122      616E6420 
 122      6E756D62 
 122      65723A20 
 122      25640A00 
 123              		.section	.text.AT_HELP_Handle,"ax",%progbits
 124              		.align	1
 125              		.global	AT_HELP_Handle
 126              		.syntax unified
 127              		.thumb
 128              		.thumb_func
 130              	AT_HELP_Handle:
 131              	.LVL5:
 132              	.LFB74:
  60:User/Src/command.c **** 
  61:User/Src/command.c **** void DevicePrintf(char* fmt,...)  
  62:User/Src/command.c **** {  
  63:User/Src/command.c **** 	va_list ap;
  64:User/Src/command.c **** 	memset(g_DeviceTxBuff, 0, UART_TRANSMIT_BUFF_NUMBER);
  65:User/Src/command.c **** 	va_start(ap, fmt);
  66:User/Src/command.c **** 	vsnprintf((char*)g_DeviceTxBuff, UART_TRANSMIT_BUFF_NUMBER, fmt, ap);
  67:User/Src/command.c **** 	va_end(ap);
  68:User/Src/command.c **** 	HAL_UART_Transmit(&huart2, g_DeviceTxBuff, strlen((char*)g_DeviceTxBuff), 1000);
  69:User/Src/command.c **** }
  70:User/Src/command.c **** 
  71:User/Src/command.c **** int strSearch(char* source, char* target)
  72:User/Src/command.c **** {
  73:User/Src/command.c **** 	int len_source = strlen(source);
  74:User/Src/command.c **** 	int len_target = strlen(target);
  75:User/Src/command.c **** 	int i, j;
  76:User/Src/command.c **** 	if (len_source < len_target) {
  77:User/Src/command.c **** 		return -1;
  78:User/Src/command.c **** 	}		
  79:User/Src/command.c **** 	for (i = 0; i <= len_source - len_target; i++) {
  80:User/Src/command.c **** 		for (j = 0; j < len_target; j++) {
  81:User/Src/command.c **** 			if (source[i + j] != target[j]) { break;}
  82:User/Src/command.c **** 		}
  83:User/Src/command.c **** 		if (j == len_target) { return i;}
  84:User/Src/command.c **** 	}
  85:User/Src/command.c **** 	return -1;	
  86:User/Src/command.c **** }
  87:User/Src/command.c **** 
  88:User/Src/command.c **** uint8_t CharToInt(char* source, uint8_t start, int* number)
  89:User/Src/command.c **** {
  90:User/Src/command.c **** 	uint8_t length;
  91:User/Src/command.c **** 	uint8_t i;
  92:User/Src/command.c **** 	int sum = 0;
  93:User/Src/command.c **** 	int state = 0;
  94:User/Src/command.c **** 	uint8_t hex = 0;
ARM GAS  C:\Users\84759\AppData\Local\Temp\cciPJLHt.s 			page 5


  95:User/Src/command.c **** 	length = strlen(source);
  96:User/Src/command.c **** 	if (start >= length) {
  97:User/Src/command.c **** 		*number = 0;
  98:User/Src/command.c **** 		return 0;
  99:User/Src/command.c **** 	}
 100:User/Src/command.c **** 	if (source[start] == '-') {
 101:User/Src/command.c **** 		state = -1;
 102:User/Src/command.c **** 		start++;
 103:User/Src/command.c **** 	} else {
 104:User/Src/command.c **** 		state = 1;
 105:User/Src/command.c **** 		if (start + 1 < length ) {
 106:User/Src/command.c **** 			if (source[start] == '0' && (source[start + 1] == 'x' ||source[start + 1] == 'X')) {
 107:User/Src/command.c **** 				start += 2;
 108:User/Src/command.c **** 				hex = 1;
 109:User/Src/command.c **** 			}
 110:User/Src/command.c **** 		}
 111:User/Src/command.c **** 	}
 112:User/Src/command.c **** 	for (i = start; i < length; i++) {
 113:User/Src/command.c **** 		if (source[i] >= '0' && source[i] <= '9') {
 114:User/Src/command.c **** 			if (hex == 1) {
 115:User/Src/command.c **** 				sum = sum * 16 + source[i] - '0';
 116:User/Src/command.c **** 			} else {
 117:User/Src/command.c **** 				sum = sum * 10 + source[i] - '0';
 118:User/Src/command.c **** 			}
 119:User/Src/command.c **** 		} else if (source[i] >= 'a' && source[i] <= 'f') {
 120:User/Src/command.c **** 			if (hex == 1) {
 121:User/Src/command.c **** 				sum = sum * 16  + source[i] - 'a' + 10;
 122:User/Src/command.c **** 			} else {
 123:User/Src/command.c **** 				*number = 0;
 124:User/Src/command.c **** 				return 0;
 125:User/Src/command.c **** 			}
 126:User/Src/command.c **** 		}else if (source[i] >= 'A' && source[i] <= 'F') {
 127:User/Src/command.c **** 			if (hex == 1) {
 128:User/Src/command.c **** 				sum = sum * 16  + source[i] - 'A' + 10;
 129:User/Src/command.c **** 			} else {
 130:User/Src/command.c **** 				*number = 0;
 131:User/Src/command.c **** 				return 0;
 132:User/Src/command.c **** 			}
 133:User/Src/command.c **** 		} else if (source[i] == ' ' || source[i] == ',') {
 134:User/Src/command.c **** 			break;
 135:User/Src/command.c **** 		}
 136:User/Src/command.c **** 	}
 137:User/Src/command.c **** 	*number = state * sum;
 138:User/Src/command.c **** 	return 1;
 139:User/Src/command.c **** }
 140:User/Src/command.c **** 
 141:User/Src/command.c **** uint8_t CharToFloat(char* source, uint8_t start, float* number)
 142:User/Src/command.c **** {
 143:User/Src/command.c **** 		uint8_t length;
 144:User/Src/command.c **** 		uint8_t i;
 145:User/Src/command.c **** 		float sum = 0;
 146:User/Src/command.c **** 		int state = 1;
 147:User/Src/command.c **** 		float smallNumber = 0.1;
 148:User/Src/command.c **** 		length = strlen(source);
 149:User/Src/command.c **** 		if (length <= start) {
 150:User/Src/command.c **** 				*number = 0;
 151:User/Src/command.c **** 				return 0;
ARM GAS  C:\Users\84759\AppData\Local\Temp\cciPJLHt.s 			page 6


 152:User/Src/command.c **** 		}
 153:User/Src/command.c **** 		
 154:User/Src/command.c **** 		if (source[start] == '-') {
 155:User/Src/command.c **** 				state = -1;
 156:User/Src/command.c **** 				start++;
 157:User/Src/command.c **** 		}
 158:User/Src/command.c **** 		for (i = start; i < length; i++){
 159:User/Src/command.c **** 				if (source[i] >= '0' && source[i] <= '9') {
 160:User/Src/command.c **** 						sum = sum * 10 + source[i] - '0';
 161:User/Src/command.c **** 				} else if (source[i] == '.') {
 162:User/Src/command.c **** 						i++;
 163:User/Src/command.c **** 						break;
 164:User/Src/command.c **** 				} else if (source[i] == ' ' || source[i] == ',') {
 165:User/Src/command.c **** 						break;
 166:User/Src/command.c **** 				}	else {
 167:User/Src/command.c **** 						*number = 0;
 168:User/Src/command.c **** 						return 0;
 169:User/Src/command.c **** 				}					
 170:User/Src/command.c **** 		}
 171:User/Src/command.c **** 		for (; i < length; i++) {
 172:User/Src/command.c **** 				if (source[i] >= '0' && source[i] <= '9') {
 173:User/Src/command.c **** 						sum += smallNumber * (source[i] - '0');
 174:User/Src/command.c **** 						smallNumber = smallNumber * 0.1;
 175:User/Src/command.c **** 				} else if (source[i] == ' ' || source[i] == ',') {
 176:User/Src/command.c **** 						break;
 177:User/Src/command.c **** 				}	else {
 178:User/Src/command.c **** 						*number = 0;
 179:User/Src/command.c **** 						return 0;
 180:User/Src/command.c **** 				}	
 181:User/Src/command.c **** 		}
 182:User/Src/command.c **** 		*number = state * sum;
 183:User/Src/command.c **** 		return 1;
 184:User/Src/command.c **** }
 185:User/Src/command.c **** 
 186:User/Src/command.c **** int CopyPointString(char* dest, char* src, int start, int length) {
 187:User/Src/command.c ****     int srcLength = strlen(src);
 188:User/Src/command.c ****     if (start >= srcLength)
 189:User/Src/command.c ****         {return -1;}
 190:User/Src/command.c **** 	
 191:User/Src/command.c ****     int i;
 192:User/Src/command.c ****     for (i = 0; i < length && (start + i) < srcLength; i++) {
 193:User/Src/command.c ****         dest[i] = src[start + i];
 194:User/Src/command.c ****     }
 195:User/Src/command.c ****     dest[i] = '\0';
 196:User/Src/command.c **** 	return 1;
 197:User/Src/command.c **** }
 198:User/Src/command.c **** 
 199:User/Src/command.c **** void  AT_HELP_Handle(char* command)
 200:User/Src/command.c **** {
 133              		.loc 1 200 1 is_stmt 1 view -0
 134              		.cfi_startproc
 135              		@ args = 0, pretend = 0, frame = 0
 136              		@ frame_needed = 0, uses_anonymous_args = 0
 137              		.loc 1 200 1 is_stmt 0 view .LVU12
 138 0000 70B5     		push	{r4, r5, r6, lr}
 139              	.LCFI6:
 140              		.cfi_def_cfa_offset 16
ARM GAS  C:\Users\84759\AppData\Local\Temp\cciPJLHt.s 			page 7


 141              		.cfi_offset 4, -16
 142              		.cfi_offset 5, -12
 143              		.cfi_offset 6, -8
 144              		.cfi_offset 14, -4
 201:User/Src/command.c ****     int i = 0, number = 0;
 145              		.loc 1 201 5 is_stmt 1 view .LVU13
 146              	.LVL6:
 202:User/Src/command.c ****     command = NULL;
 147              		.loc 1 202 5 view .LVU14
 203:User/Src/command.c ****     for (i = 0; i < MAX_COMMAND_NUMBER; i++) {
 148              		.loc 1 203 5 view .LVU15
 201:User/Src/command.c ****     int i = 0, number = 0;
 149              		.loc 1 201 16 is_stmt 0 view .LVU16
 150 0002 0025     		movs	r5, #0
 151              		.loc 1 203 12 view .LVU17
 152 0004 2C46     		mov	r4, r5
 153              		.loc 1 203 5 view .LVU18
 154 0006 06E0     		b	.L6
 155              	.LVL7:
 156              	.L8:
 204:User/Src/command.c **** 		if (strlen(CommandList[i]) > 0) {
 205:User/Src/command.c ****             if(i==0)    { UsbPrintf("\n"); }
 206:User/Src/command.c ****         	UsbPrintf("%d. %s\n", number, CommandList[i]);
 157              		.loc 1 206 10 is_stmt 1 view .LVU19
 158 0008 3246     		mov	r2, r6
 159 000a 2946     		mov	r1, r5
 160 000c 0C48     		ldr	r0, .L12
 161 000e FFF7FEFF 		bl	UsbPrintf
 162              	.LVL8:
 207:User/Src/command.c **** 			number++;
 163              		.loc 1 207 4 view .LVU20
 164              		.loc 1 207 10 is_stmt 0 view .LVU21
 165 0012 0135     		adds	r5, r5, #1
 166              	.LVL9:
 167              	.L7:
 203:User/Src/command.c ****     for (i = 0; i < MAX_COMMAND_NUMBER; i++) {
 168              		.loc 1 203 41 is_stmt 1 discriminator 2 view .LVU22
 203:User/Src/command.c ****     for (i = 0; i < MAX_COMMAND_NUMBER; i++) {
 169              		.loc 1 203 42 is_stmt 0 discriminator 2 view .LVU23
 170 0014 0134     		adds	r4, r4, #1
 171              	.LVL10:
 172              	.L6:
 203:User/Src/command.c ****     for (i = 0; i < MAX_COMMAND_NUMBER; i++) {
 173              		.loc 1 203 17 is_stmt 1 discriminator 1 view .LVU24
 203:User/Src/command.c ****     for (i = 0; i < MAX_COMMAND_NUMBER; i++) {
 174              		.loc 1 203 5 is_stmt 0 discriminator 1 view .LVU25
 175 0016 272C     		cmp	r4, #39
 176 0018 0DDC     		bgt	.L11
 204:User/Src/command.c **** 		if (strlen(CommandList[i]) > 0) {
 177              		.loc 1 204 3 is_stmt 1 view .LVU26
 204:User/Src/command.c **** 		if (strlen(CommandList[i]) > 0) {
 178              		.loc 1 204 25 is_stmt 0 view .LVU27
 179 001a 0A4A     		ldr	r2, .L12+4
 180 001c 04EB8401 		add	r1, r4, r4, lsl #2
 181 0020 8B00     		lsls	r3, r1, #2
 182 0022 D618     		adds	r6, r2, r3
 204:User/Src/command.c **** 		if (strlen(CommandList[i]) > 0) {
ARM GAS  C:\Users\84759\AppData\Local\Temp\cciPJLHt.s 			page 8


 183              		.loc 1 204 30 view .LVU28
 184 0024 D35C     		ldrb	r3, [r2, r3]	@ zero_extendqisi2
 204:User/Src/command.c **** 		if (strlen(CommandList[i]) > 0) {
 185              		.loc 1 204 6 view .LVU29
 186 0026 002B     		cmp	r3, #0
 187 0028 F4D0     		beq	.L7
 205:User/Src/command.c ****         	UsbPrintf("%d. %s\n", number, CommandList[i]);
 188              		.loc 1 205 13 is_stmt 1 view .LVU30
 205:User/Src/command.c ****         	UsbPrintf("%d. %s\n", number, CommandList[i]);
 189              		.loc 1 205 15 is_stmt 0 view .LVU31
 190 002a 002C     		cmp	r4, #0
 191 002c ECD1     		bne	.L8
 205:User/Src/command.c ****         	UsbPrintf("%d. %s\n", number, CommandList[i]);
 192              		.loc 1 205 27 is_stmt 1 discriminator 1 view .LVU32
 193 002e 0648     		ldr	r0, .L12+8
 194 0030 FFF7FEFF 		bl	UsbPrintf
 195              	.LVL11:
 196 0034 E8E7     		b	.L8
 197              	.L11:
 208:User/Src/command.c **** 		}
 209:User/Src/command.c ****     }
 210:User/Src/command.c **** 	UsbPrintf("command number: %d\n", number);
 198              		.loc 1 210 2 view .LVU33
 199 0036 2946     		mov	r1, r5
 200 0038 0448     		ldr	r0, .L12+12
 201 003a FFF7FEFF 		bl	UsbPrintf
 202              	.LVL12:
 211:User/Src/command.c **** }
 203              		.loc 1 211 1 is_stmt 0 view .LVU34
 204 003e 70BD     		pop	{r4, r5, r6, pc}
 205              	.LVL13:
 206              	.L13:
 207              		.loc 1 211 1 view .LVU35
 208              		.align	2
 209              	.L12:
 210 0040 04000000 		.word	.LC1
 211 0044 00000000 		.word	.LANCHOR1
 212 0048 00000000 		.word	.LC0
 213 004c 0C000000 		.word	.LC2
 214              		.cfi_endproc
 215              	.LFE74:
 217              		.section	.rodata.AT_IICINT_Handle.str1.4,"aMS",%progbits,1
 218              		.align	2
 219              	.LC3:
 220 0000 2D2D4F4B 		.ascii	"--OK ! \015\012\000"
 220      2021200D 
 220      0A00
 221 000a 0000     		.align	2
 222              	.LC4:
 223 000c 332E3134 		.ascii	"3.1415926357989\015\012\000"
 223      31353932 
 223      36333537 
 223      3938390D 
 223      0A00
 224              		.section	.text.AT_IICINT_Handle,"ax",%progbits
 225              		.align	1
 226              		.global	AT_IICINT_Handle
ARM GAS  C:\Users\84759\AppData\Local\Temp\cciPJLHt.s 			page 9


 227              		.syntax unified
 228              		.thumb
 229              		.thumb_func
 231              	AT_IICINT_Handle:
 232              	.LVL14:
 233              	.LFB77:
 212:User/Src/command.c **** 
 213:User/Src/command.c **** void AT_TEST_Handle(char* command)
 214:User/Src/command.c **** {
 215:User/Src/command.c **** 	
 216:User/Src/command.c **** 	char cmd3[]="AT+CIPSTART=\"TCP\",\"192.168.137.1\",8080\r\n";
 217:User/Src/command.c **** 	wifi_send_to(cmd3);
 218:User/Src/command.c **** 	HAL_Delay(1000);
 219:User/Src/command.c **** 	show_wifi_Message();
 220:User/Src/command.c **** 
 221:User/Src/command.c **** }
 222:User/Src/command.c **** 
 223:User/Src/command.c **** void  AT_READDATA_Handle(char* command)
 224:User/Src/command.c **** {
 225:User/Src/command.c **** 	uint8_t buffer[7]={0};
 226:User/Src/command.c **** 	int num = 0,reg = 0;
 227:User/Src/command.c **** 	num = strSearch(command, "reg:");
 228:User/Src/command.c **** 	if (num != -1) {
 229:User/Src/command.c **** 		num += strlen("reg:");
 230:User/Src/command.c **** 		if (CharToInt(command, num, &reg) == 0 ) {	return; }
 231:User/Src/command.c **** 	}
 232:User/Src/command.c **** 
 233:User/Src/command.c **** 	if(num == -1){
 234:User/Src/command.c **** 		UsbPrintf("reg error !\n");
 235:User/Src/command.c **** 	}
 236:User/Src/command.c **** 	else{
 237:User/Src/command.c **** 		switch (reg)
 238:User/Src/command.c **** 		{
 239:User/Src/command.c **** 		case 0X00:
 240:User/Src/command.c **** 			if (i2c_read_multi_bytes(0x64, reg, buffer, 7) == I2C_OK) {
 241:User/Src/command.c **** 				UsbPrintf("%02X年 %02X月 %02X日 星期%02X %02X:%02X:%02X\n", buffer[6], buffer[5], buffer[4], bu
 242:User/Src/command.c **** 			}
 243:User/Src/command.c **** 			else {
 244:User/Src/command.c **** 				uint8_t flag=6;
 245:User/Src/command.c **** 				flag=i2c_read_multi_bytes(0x64, reg, buffer, 8);
 246:User/Src/command.c **** 				UsbPrintf("read error flag=%d !\n",flag);
 247:User/Src/command.c **** 			}
 248:User/Src/command.c **** 			break;
 249:User/Src/command.c **** 		case 0XB2:
 250:User/Src/command.c **** 			if (i2c_read_multi_bytes(0x64, reg, buffer, 8) == I2C_OK) {
 251:User/Src/command.c **** 				UsbPrintf("id:%02X%02X%02X%02X%02X%02X%02X%02X\n", buffer[0], buffer[1], buffer[2], buffer[3], 
 252:User/Src/command.c **** 			}else if(i2c_read_multi_bytes(0xD0, reg, buffer, 8) == I2C_OK){
 253:User/Src/command.c **** 				UsbPrintf("id:%02X%02X%02X%02X%02X%02X%02X%02X\n", buffer[0], buffer[1], buffer[2], buffer[3], 
 254:User/Src/command.c **** 			}
 255:User/Src/command.c **** 			break;
 256:User/Src/command.c **** 
 257:User/Src/command.c **** 		default:
 258:User/Src/command.c **** 			UsbPrintf("reg error !\n");
 259:User/Src/command.c **** 			break;
 260:User/Src/command.c **** 		}
 261:User/Src/command.c **** 	}
 262:User/Src/command.c **** }
ARM GAS  C:\Users\84759\AppData\Local\Temp\cciPJLHt.s 			page 10


 263:User/Src/command.c **** 
 264:User/Src/command.c **** void AT_IICINT_Handle(char* command)
 265:User/Src/command.c **** {
 234              		.loc 1 265 1 is_stmt 1 view -0
 235              		.cfi_startproc
 236              		@ args = 0, pretend = 0, frame = 0
 237              		@ frame_needed = 0, uses_anonymous_args = 0
 238              		.loc 1 265 1 is_stmt 0 view .LVU37
 239 0000 08B5     		push	{r3, lr}
 240              	.LCFI7:
 241              		.cfi_def_cfa_offset 8
 242              		.cfi_offset 3, -8
 243              		.cfi_offset 14, -4
 266:User/Src/command.c **** 	UsbPrintf("--OK ! \r\n");	
 244              		.loc 1 266 2 is_stmt 1 view .LVU38
 245 0002 0348     		ldr	r0, .L16
 246              	.LVL15:
 247              		.loc 1 266 2 is_stmt 0 view .LVU39
 248 0004 FFF7FEFF 		bl	UsbPrintf
 249              	.LVL16:
 267:User/Src/command.c **** 	UsbPrintf("3.1415926357989\r\n");	
 250              		.loc 1 267 2 is_stmt 1 view .LVU40
 251 0008 0248     		ldr	r0, .L16+4
 252 000a FFF7FEFF 		bl	UsbPrintf
 253              	.LVL17:
 268:User/Src/command.c **** }
 254              		.loc 1 268 1 is_stmt 0 view .LVU41
 255 000e 08BD     		pop	{r3, pc}
 256              	.L17:
 257              		.align	2
 258              	.L16:
 259 0010 00000000 		.word	.LC3
 260 0014 0C000000 		.word	.LC4
 261              		.cfi_endproc
 262              	.LFE77:
 264              		.section	.text.DevicePrintf,"ax",%progbits
 265              		.align	1
 266              		.global	DevicePrintf
 267              		.syntax unified
 268              		.thumb
 269              		.thumb_func
 271              	DevicePrintf:
 272              	.LVL18:
 273              	.LFB69:
  62:User/Src/command.c **** 	va_list ap;
 274              		.loc 1 62 1 is_stmt 1 view -0
 275              		.cfi_startproc
 276              		@ args = 4, pretend = 16, frame = 8
 277              		@ frame_needed = 0, uses_anonymous_args = 1
  62:User/Src/command.c **** 	va_list ap;
 278              		.loc 1 62 1 is_stmt 0 view .LVU43
 279 0000 0FB4     		push	{r0, r1, r2, r3}
 280              	.LCFI8:
 281              		.cfi_def_cfa_offset 16
 282              		.cfi_offset 0, -16
 283              		.cfi_offset 1, -12
 284              		.cfi_offset 2, -8
ARM GAS  C:\Users\84759\AppData\Local\Temp\cciPJLHt.s 			page 11


 285              		.cfi_offset 3, -4
 286 0002 F0B5     		push	{r4, r5, r6, r7, lr}
 287              	.LCFI9:
 288              		.cfi_def_cfa_offset 36
 289              		.cfi_offset 4, -36
 290              		.cfi_offset 5, -32
 291              		.cfi_offset 6, -28
 292              		.cfi_offset 7, -24
 293              		.cfi_offset 14, -20
 294 0004 83B0     		sub	sp, sp, #12
 295              	.LCFI10:
 296              		.cfi_def_cfa_offset 48
 297 0006 08AD     		add	r5, sp, #32
 298 0008 55F8047B 		ldr	r7, [r5], #4
  63:User/Src/command.c **** 	memset(g_DeviceTxBuff, 0, UART_TRANSMIT_BUFF_NUMBER);
 299              		.loc 1 63 2 is_stmt 1 view .LVU44
  64:User/Src/command.c **** 	va_start(ap, fmt);
 300              		.loc 1 64 2 view .LVU45
 301 000c 0E4C     		ldr	r4, .L20
 302 000e 4FF49676 		mov	r6, #300
 303 0012 3246     		mov	r2, r6
 304 0014 0021     		movs	r1, #0
 305 0016 2046     		mov	r0, r4
 306 0018 FFF7FEFF 		bl	memset
 307              	.LVL19:
  65:User/Src/command.c **** 	vsnprintf((char*)g_DeviceTxBuff, UART_TRANSMIT_BUFF_NUMBER, fmt, ap);
 308              		.loc 1 65 2 view .LVU46
 309 001c 0195     		str	r5, [sp, #4]
  66:User/Src/command.c **** 	va_end(ap);
 310              		.loc 1 66 2 view .LVU47
 311 001e 2B46     		mov	r3, r5
 312 0020 3A46     		mov	r2, r7
 313 0022 3146     		mov	r1, r6
 314 0024 2046     		mov	r0, r4
 315 0026 FFF7FEFF 		bl	vsnprintf
 316              	.LVL20:
  67:User/Src/command.c **** 	HAL_UART_Transmit(&huart2, g_DeviceTxBuff, strlen((char*)g_DeviceTxBuff), 1000);
 317              		.loc 1 67 2 view .LVU48
  68:User/Src/command.c **** }
 318              		.loc 1 68 2 view .LVU49
  68:User/Src/command.c **** }
 319              		.loc 1 68 45 is_stmt 0 view .LVU50
 320 002a 2046     		mov	r0, r4
 321 002c FFF7FEFF 		bl	strlen
 322              	.LVL21:
  68:User/Src/command.c **** }
 323              		.loc 1 68 2 view .LVU51
 324 0030 4FF47A73 		mov	r3, #1000
 325 0034 82B2     		uxth	r2, r0
 326 0036 2146     		mov	r1, r4
 327 0038 0448     		ldr	r0, .L20+4
 328 003a FFF7FEFF 		bl	HAL_UART_Transmit
 329              	.LVL22:
  69:User/Src/command.c **** 
 330              		.loc 1 69 1 view .LVU52
 331 003e 03B0     		add	sp, sp, #12
 332              	.LCFI11:
ARM GAS  C:\Users\84759\AppData\Local\Temp\cciPJLHt.s 			page 12


 333              		.cfi_def_cfa_offset 36
 334              		@ sp needed
 335 0040 BDE8F040 		pop	{r4, r5, r6, r7, lr}
 336              	.LCFI12:
 337              		.cfi_restore 14
 338              		.cfi_restore 7
 339              		.cfi_restore 6
 340              		.cfi_restore 5
 341              		.cfi_restore 4
 342              		.cfi_def_cfa_offset 16
 343 0044 04B0     		add	sp, sp, #16
 344              	.LCFI13:
 345              		.cfi_restore 3
 346              		.cfi_restore 2
 347              		.cfi_restore 1
 348              		.cfi_restore 0
 349              		.cfi_def_cfa_offset 0
 350 0046 7047     		bx	lr
 351              	.L21:
 352              		.align	2
 353              	.L20:
 354 0048 00000000 		.word	.LANCHOR2
 355 004c 00000000 		.word	huart2
 356              		.cfi_endproc
 357              	.LFE69:
 359              		.section	.text.strSearch,"ax",%progbits
 360              		.align	1
 361              		.global	strSearch
 362              		.syntax unified
 363              		.thumb
 364              		.thumb_func
 366              	strSearch:
 367              	.LVL23:
 368              	.LFB70:
  72:User/Src/command.c **** 	int len_source = strlen(source);
 369              		.loc 1 72 1 is_stmt 1 view -0
 370              		.cfi_startproc
 371              		@ args = 0, pretend = 0, frame = 0
 372              		@ frame_needed = 0, uses_anonymous_args = 0
  72:User/Src/command.c **** 	int len_source = strlen(source);
 373              		.loc 1 72 1 is_stmt 0 view .LVU54
 374 0000 70B5     		push	{r4, r5, r6, lr}
 375              	.LCFI14:
 376              		.cfi_def_cfa_offset 16
 377              		.cfi_offset 4, -16
 378              		.cfi_offset 5, -12
 379              		.cfi_offset 6, -8
 380              		.cfi_offset 14, -4
 381 0002 0546     		mov	r5, r0
 382 0004 0C46     		mov	r4, r1
  73:User/Src/command.c **** 	int len_target = strlen(target);
 383              		.loc 1 73 2 is_stmt 1 view .LVU55
  73:User/Src/command.c **** 	int len_target = strlen(target);
 384              		.loc 1 73 19 is_stmt 0 view .LVU56
 385 0006 FFF7FEFF 		bl	strlen
 386              	.LVL24:
  73:User/Src/command.c **** 	int len_target = strlen(target);
ARM GAS  C:\Users\84759\AppData\Local\Temp\cciPJLHt.s 			page 13


 387              		.loc 1 73 19 view .LVU57
 388 000a 0646     		mov	r6, r0
 389              	.LVL25:
  74:User/Src/command.c **** 	int i, j;
 390              		.loc 1 74 2 is_stmt 1 view .LVU58
  74:User/Src/command.c **** 	int i, j;
 391              		.loc 1 74 19 is_stmt 0 view .LVU59
 392 000c 2046     		mov	r0, r4
 393              	.LVL26:
  74:User/Src/command.c **** 	int i, j;
 394              		.loc 1 74 19 view .LVU60
 395 000e FFF7FEFF 		bl	strlen
 396              	.LVL27:
  75:User/Src/command.c **** 	if (len_source < len_target) {
 397              		.loc 1 75 2 is_stmt 1 view .LVU61
  76:User/Src/command.c **** 		return -1;
 398              		.loc 1 76 2 view .LVU62
  76:User/Src/command.c **** 		return -1;
 399              		.loc 1 76 5 is_stmt 0 view .LVU63
 400 0012 8642     		cmp	r6, r0
 401 0014 16DB     		blt	.L28
 402 0016 0146     		mov	r1, r0
  79:User/Src/command.c **** 		for (j = 0; j < len_target; j++) {
 403              		.loc 1 79 9 view .LVU64
 404 0018 0020     		movs	r0, #0
 405              	.LVL28:
  79:User/Src/command.c **** 		for (j = 0; j < len_target; j++) {
 406              		.loc 1 79 9 view .LVU65
 407 001a 02E0     		b	.L24
 408              	.LVL29:
 409              	.L25:
  83:User/Src/command.c **** 	}
 410              		.loc 1 83 3 is_stmt 1 view .LVU66
  83:User/Src/command.c **** 	}
 411              		.loc 1 83 6 is_stmt 0 view .LVU67
 412 001c 8B42     		cmp	r3, r1
 413 001e 10D0     		beq	.L22
  79:User/Src/command.c **** 		for (j = 0; j < len_target; j++) {
 414              		.loc 1 79 44 is_stmt 1 discriminator 2 view .LVU68
  79:User/Src/command.c **** 		for (j = 0; j < len_target; j++) {
 415              		.loc 1 79 45 is_stmt 0 discriminator 2 view .LVU69
 416 0020 0130     		adds	r0, r0, #1
 417              	.LVL30:
 418              	.L24:
  79:User/Src/command.c **** 		for (j = 0; j < len_target; j++) {
 419              		.loc 1 79 14 is_stmt 1 discriminator 1 view .LVU70
  79:User/Src/command.c **** 		for (j = 0; j < len_target; j++) {
 420              		.loc 1 79 30 is_stmt 0 discriminator 1 view .LVU71
 421 0022 731A     		subs	r3, r6, r1
  79:User/Src/command.c **** 		for (j = 0; j < len_target; j++) {
 422              		.loc 1 79 2 discriminator 1 view .LVU72
 423 0024 8342     		cmp	r3, r0
 424 0026 0ADB     		blt	.L31
  80:User/Src/command.c **** 			if (source[i + j] != target[j]) { break;}
 425              		.loc 1 80 10 view .LVU73
 426 0028 0023     		movs	r3, #0
 427              	.L27:
ARM GAS  C:\Users\84759\AppData\Local\Temp\cciPJLHt.s 			page 14


 428              	.LVL31:
  80:User/Src/command.c **** 			if (source[i + j] != target[j]) { break;}
 429              		.loc 1 80 15 is_stmt 1 discriminator 1 view .LVU74
  80:User/Src/command.c **** 			if (source[i + j] != target[j]) { break;}
 430              		.loc 1 80 3 is_stmt 0 discriminator 1 view .LVU75
 431 002a 8B42     		cmp	r3, r1
 432 002c F6DA     		bge	.L25
  81:User/Src/command.c **** 		}
 433              		.loc 1 81 4 is_stmt 1 view .LVU76
  81:User/Src/command.c **** 		}
 434              		.loc 1 81 17 is_stmt 0 view .LVU77
 435 002e C218     		adds	r2, r0, r3
  81:User/Src/command.c **** 		}
 436              		.loc 1 81 14 view .LVU78
 437 0030 15F802C0 		ldrb	ip, [r5, r2]	@ zero_extendqisi2
  81:User/Src/command.c **** 		}
 438              		.loc 1 81 31 view .LVU79
 439 0034 E25C     		ldrb	r2, [r4, r3]	@ zero_extendqisi2
  81:User/Src/command.c **** 		}
 440              		.loc 1 81 7 view .LVU80
 441 0036 9445     		cmp	ip, r2
 442 0038 F0D1     		bne	.L25
  80:User/Src/command.c **** 			if (source[i + j] != target[j]) { break;}
 443              		.loc 1 80 31 is_stmt 1 discriminator 2 view .LVU81
  80:User/Src/command.c **** 			if (source[i + j] != target[j]) { break;}
 444              		.loc 1 80 32 is_stmt 0 discriminator 2 view .LVU82
 445 003a 0133     		adds	r3, r3, #1
 446              	.LVL32:
  80:User/Src/command.c **** 			if (source[i + j] != target[j]) { break;}
 447              		.loc 1 80 32 discriminator 2 view .LVU83
 448 003c F5E7     		b	.L27
 449              	.LVL33:
 450              	.L31:
  85:User/Src/command.c **** }
 451              		.loc 1 85 9 view .LVU84
 452 003e 4FF0FF30 		mov	r0, #-1
 453              	.LVL34:
 454              	.L22:
  86:User/Src/command.c **** 
 455              		.loc 1 86 1 view .LVU85
 456 0042 70BD     		pop	{r4, r5, r6, pc}
 457              	.LVL35:
 458              	.L28:
  77:User/Src/command.c **** 	}		
 459              		.loc 1 77 10 view .LVU86
 460 0044 4FF0FF30 		mov	r0, #-1
 461              	.LVL36:
  77:User/Src/command.c **** 	}		
 462              		.loc 1 77 10 view .LVU87
 463 0048 FBE7     		b	.L22
 464              		.cfi_endproc
 465              	.LFE70:
 467              		.section	.text.CharToInt,"ax",%progbits
 468              		.align	1
 469              		.global	CharToInt
 470              		.syntax unified
 471              		.thumb
ARM GAS  C:\Users\84759\AppData\Local\Temp\cciPJLHt.s 			page 15


 472              		.thumb_func
 474              	CharToInt:
 475              	.LVL37:
 476              	.LFB71:
  89:User/Src/command.c **** 	uint8_t length;
 477              		.loc 1 89 1 is_stmt 1 view -0
 478              		.cfi_startproc
 479              		@ args = 0, pretend = 0, frame = 0
 480              		@ frame_needed = 0, uses_anonymous_args = 0
  89:User/Src/command.c **** 	uint8_t length;
 481              		.loc 1 89 1 is_stmt 0 view .LVU89
 482 0000 70B5     		push	{r4, r5, r6, lr}
 483              	.LCFI15:
 484              		.cfi_def_cfa_offset 16
 485              		.cfi_offset 4, -16
 486              		.cfi_offset 5, -12
 487              		.cfi_offset 6, -8
 488              		.cfi_offset 14, -4
 489 0002 0646     		mov	r6, r0
 490 0004 0C46     		mov	r4, r1
 491 0006 1546     		mov	r5, r2
  90:User/Src/command.c **** 	uint8_t i;
 492              		.loc 1 90 2 is_stmt 1 view .LVU90
  91:User/Src/command.c **** 	int sum = 0;
 493              		.loc 1 91 2 view .LVU91
  92:User/Src/command.c **** 	int state = 0;
 494              		.loc 1 92 2 view .LVU92
 495              	.LVL38:
  93:User/Src/command.c **** 	uint8_t hex = 0;
 496              		.loc 1 93 2 view .LVU93
  94:User/Src/command.c **** 	length = strlen(source);
 497              		.loc 1 94 2 view .LVU94
  95:User/Src/command.c **** 	if (start >= length) {
 498              		.loc 1 95 2 view .LVU95
  95:User/Src/command.c **** 	if (start >= length) {
 499              		.loc 1 95 11 is_stmt 0 view .LVU96
 500 0008 FFF7FEFF 		bl	strlen
 501              	.LVL39:
  95:User/Src/command.c **** 	if (start >= length) {
 502              		.loc 1 95 9 view .LVU97
 503 000c C2B2     		uxtb	r2, r0
 504              	.LVL40:
  96:User/Src/command.c **** 		*number = 0;
 505              		.loc 1 96 2 is_stmt 1 view .LVU98
  96:User/Src/command.c **** 		*number = 0;
 506              		.loc 1 96 5 is_stmt 0 view .LVU99
 507 000e A242     		cmp	r2, r4
 508 0010 15D9     		bls	.L52
 100:User/Src/command.c **** 		state = -1;
 509              		.loc 1 100 2 is_stmt 1 view .LVU100
 100:User/Src/command.c **** 		state = -1;
 510              		.loc 1 100 12 is_stmt 0 view .LVU101
 511 0012 A446     		mov	ip, r4
 512 0014 315D     		ldrb	r1, [r6, r4]	@ zero_extendqisi2
 100:User/Src/command.c **** 		state = -1;
 513              		.loc 1 100 5 view .LVU102
 514 0016 2D29     		cmp	r1, #45
ARM GAS  C:\Users\84759\AppData\Local\Temp\cciPJLHt.s 			page 16


 515 0018 14D0     		beq	.L53
 104:User/Src/command.c **** 		if (start + 1 < length ) {
 516              		.loc 1 104 3 is_stmt 1 view .LVU103
 517              	.LVL41:
 105:User/Src/command.c **** 			if (source[start] == '0' && (source[start + 1] == 'x' ||source[start + 1] == 'X')) {
 518              		.loc 1 105 3 view .LVU104
 105:User/Src/command.c **** 			if (source[start] == '0' && (source[start + 1] == 'x' ||source[start + 1] == 'X')) {
 519              		.loc 1 105 13 is_stmt 0 view .LVU105
 520 001a 631C     		adds	r3, r4, #1
 105:User/Src/command.c **** 			if (source[start] == '0' && (source[start + 1] == 'x' ||source[start + 1] == 'X')) {
 521              		.loc 1 105 17 view .LVU106
 522 001c C0B2     		uxtb	r0, r0
 105:User/Src/command.c **** 			if (source[start] == '0' && (source[start + 1] == 'x' ||source[start + 1] == 'X')) {
 523              		.loc 1 105 6 view .LVU107
 524 001e 8342     		cmp	r3, r0
 525 0020 17DA     		bge	.L48
 106:User/Src/command.c **** 				start += 2;
 526              		.loc 1 106 4 is_stmt 1 view .LVU108
 106:User/Src/command.c **** 				start += 2;
 527              		.loc 1 106 7 is_stmt 0 view .LVU109
 528 0022 3029     		cmp	r1, #48
 529 0024 19D1     		bne	.L49
 106:User/Src/command.c **** 				start += 2;
 530              		.loc 1 106 39 discriminator 1 view .LVU110
 531 0026 B444     		add	ip, ip, r6
 532 0028 9CF80130 		ldrb	r3, [ip, #1]	@ zero_extendqisi2
 106:User/Src/command.c **** 				start += 2;
 533              		.loc 1 106 29 discriminator 1 view .LVU111
 534 002c 782B     		cmp	r3, #120
 535 002e 01D0     		beq	.L37
 106:User/Src/command.c **** 				start += 2;
 536              		.loc 1 106 58 discriminator 2 view .LVU112
 537 0030 582B     		cmp	r3, #88
 538 0032 16D1     		bne	.L50
 539              	.L37:
 107:User/Src/command.c **** 				hex = 1;
 540              		.loc 1 107 5 is_stmt 1 view .LVU113
 107:User/Src/command.c **** 				hex = 1;
 541              		.loc 1 107 11 is_stmt 0 view .LVU114
 542 0034 0234     		adds	r4, r4, #2
 543 0036 E4B2     		uxtb	r4, r4
 544              	.LVL42:
 108:User/Src/command.c **** 			}
 545              		.loc 1 108 5 is_stmt 1 view .LVU115
 108:User/Src/command.c **** 			}
 546              		.loc 1 108 9 is_stmt 0 view .LVU116
 547 0038 0120     		movs	r0, #1
 104:User/Src/command.c **** 		if (start + 1 < length ) {
 548              		.loc 1 104 9 view .LVU117
 549 003a 8446     		mov	ip, r0
 550 003c 07E0     		b	.L36
 551              	.LVL43:
 552              	.L52:
  97:User/Src/command.c **** 		return 0;
 553              		.loc 1 97 3 is_stmt 1 view .LVU118
  97:User/Src/command.c **** 		return 0;
 554              		.loc 1 97 11 is_stmt 0 view .LVU119
ARM GAS  C:\Users\84759\AppData\Local\Temp\cciPJLHt.s 			page 17


 555 003e 0020     		movs	r0, #0
 556 0040 2860     		str	r0, [r5]
  98:User/Src/command.c **** 	}
 557              		.loc 1 98 3 is_stmt 1 view .LVU120
  98:User/Src/command.c **** 	}
 558              		.loc 1 98 10 is_stmt 0 view .LVU121
 559 0042 4CE0     		b	.L34
 560              	.L53:
 101:User/Src/command.c **** 		start++;
 561              		.loc 1 101 3 is_stmt 1 view .LVU122
 562              	.LVL44:
 102:User/Src/command.c **** 	} else {
 563              		.loc 1 102 3 view .LVU123
 102:User/Src/command.c **** 	} else {
 564              		.loc 1 102 8 is_stmt 0 view .LVU124
 565 0044 0134     		adds	r4, r4, #1
 566 0046 E4B2     		uxtb	r4, r4
 567              	.LVL45:
  94:User/Src/command.c **** 	length = strlen(source);
 568              		.loc 1 94 10 view .LVU125
 569 0048 0020     		movs	r0, #0
 101:User/Src/command.c **** 		start++;
 570              		.loc 1 101 9 view .LVU126
 571 004a 4FF0FF3C 		mov	ip, #-1
 572              	.LVL46:
 573              	.L36:
 112:User/Src/command.c **** 		if (source[i] >= '0' && source[i] <= '9') {
 574              		.loc 1 112 2 is_stmt 1 view .LVU127
  92:User/Src/command.c **** 	int state = 0;
 575              		.loc 1 92 6 is_stmt 0 view .LVU128
 576 004e 0023     		movs	r3, #0
 112:User/Src/command.c **** 		if (source[i] >= '0' && source[i] <= '9') {
 577              		.loc 1 112 2 view .LVU129
 578 0050 12E0     		b	.L38
 579              	.LVL47:
 580              	.L48:
  94:User/Src/command.c **** 	length = strlen(source);
 581              		.loc 1 94 10 view .LVU130
 582 0052 0020     		movs	r0, #0
 104:User/Src/command.c **** 		if (start + 1 < length ) {
 583              		.loc 1 104 9 view .LVU131
 584 0054 4FF0010C 		mov	ip, #1
 585 0058 F9E7     		b	.L36
 586              	.L49:
  94:User/Src/command.c **** 	length = strlen(source);
 587              		.loc 1 94 10 view .LVU132
 588 005a 0020     		movs	r0, #0
 104:User/Src/command.c **** 		if (start + 1 < length ) {
 589              		.loc 1 104 9 view .LVU133
 590 005c 4FF0010C 		mov	ip, #1
 591 0060 F5E7     		b	.L36
 592              	.L50:
  94:User/Src/command.c **** 	length = strlen(source);
 593              		.loc 1 94 10 view .LVU134
 594 0062 0020     		movs	r0, #0
 104:User/Src/command.c **** 		if (start + 1 < length ) {
 595              		.loc 1 104 9 view .LVU135
ARM GAS  C:\Users\84759\AppData\Local\Temp\cciPJLHt.s 			page 18


 596 0064 4FF0010C 		mov	ip, #1
 597 0068 F1E7     		b	.L36
 598              	.LVL48:
 599              	.L40:
 117:User/Src/command.c **** 			}
 600              		.loc 1 117 5 is_stmt 1 view .LVU136
 117:User/Src/command.c **** 			}
 601              		.loc 1 117 15 is_stmt 0 view .LVU137
 602 006a 03EB8303 		add	r3, r3, r3, lsl #2
 603              	.LVL49:
 117:User/Src/command.c **** 			}
 604              		.loc 1 117 20 view .LVU138
 605 006e 0EEB4303 		add	r3, lr, r3, lsl #1
 117:User/Src/command.c **** 			}
 606              		.loc 1 117 9 view .LVU139
 607 0072 303B     		subs	r3, r3, #48
 608              	.LVL50:
 609              	.L41:
 112:User/Src/command.c **** 		if (source[i] >= '0' && source[i] <= '9') {
 610              		.loc 1 112 30 is_stmt 1 discriminator 2 view .LVU140
 112:User/Src/command.c **** 		if (source[i] >= '0' && source[i] <= '9') {
 611              		.loc 1 112 31 is_stmt 0 discriminator 2 view .LVU141
 612 0074 0134     		adds	r4, r4, #1
 613              	.LVL51:
 112:User/Src/command.c **** 		if (source[i] >= '0' && source[i] <= '9') {
 614              		.loc 1 112 31 discriminator 2 view .LVU142
 615 0076 E4B2     		uxtb	r4, r4
 616              	.LVL52:
 617              	.L38:
 112:User/Src/command.c **** 		if (source[i] >= '0' && source[i] <= '9') {
 618              		.loc 1 112 18 is_stmt 1 discriminator 1 view .LVU143
 112:User/Src/command.c **** 		if (source[i] >= '0' && source[i] <= '9') {
 619              		.loc 1 112 2 is_stmt 0 discriminator 1 view .LVU144
 620 0078 9442     		cmp	r4, r2
 621 007a 2CD2     		bcs	.L46
 113:User/Src/command.c **** 			if (hex == 1) {
 622              		.loc 1 113 3 is_stmt 1 view .LVU145
 113:User/Src/command.c **** 			if (hex == 1) {
 623              		.loc 1 113 13 is_stmt 0 view .LVU146
 624 007c 16F804E0 		ldrb	lr, [r6, r4]	@ zero_extendqisi2
 113:User/Src/command.c **** 			if (hex == 1) {
 625              		.loc 1 113 24 view .LVU147
 626 0080 AEF13001 		sub	r1, lr, #48
 627 0084 C9B2     		uxtb	r1, r1
 113:User/Src/command.c **** 			if (hex == 1) {
 628              		.loc 1 113 6 view .LVU148
 629 0086 0929     		cmp	r1, #9
 630 0088 05D8     		bhi	.L39
 114:User/Src/command.c **** 				sum = sum * 16 + source[i] - '0';
 631              		.loc 1 114 4 is_stmt 1 view .LVU149
 114:User/Src/command.c **** 				sum = sum * 16 + source[i] - '0';
 632              		.loc 1 114 7 is_stmt 0 view .LVU150
 633 008a 0028     		cmp	r0, #0
 634 008c EDD0     		beq	.L40
 115:User/Src/command.c **** 			} else {
 635              		.loc 1 115 5 is_stmt 1 view .LVU151
 115:User/Src/command.c **** 			} else {
ARM GAS  C:\Users\84759\AppData\Local\Temp\cciPJLHt.s 			page 19


 636              		.loc 1 115 20 is_stmt 0 view .LVU152
 637 008e 0EEB0313 		add	r3, lr, r3, lsl #4
 638              	.LVL53:
 115:User/Src/command.c **** 			} else {
 639              		.loc 1 115 9 view .LVU153
 640 0092 303B     		subs	r3, r3, #48
 641              	.LVL54:
 115:User/Src/command.c **** 			} else {
 642              		.loc 1 115 9 view .LVU154
 643 0094 EEE7     		b	.L41
 644              	.L39:
 119:User/Src/command.c **** 			if (hex == 1) {
 645              		.loc 1 119 10 is_stmt 1 view .LVU155
 119:User/Src/command.c **** 			if (hex == 1) {
 646              		.loc 1 119 31 is_stmt 0 view .LVU156
 647 0096 AEF16101 		sub	r1, lr, #97
 648 009a C9B2     		uxtb	r1, r1
 119:User/Src/command.c **** 			if (hex == 1) {
 649              		.loc 1 119 13 view .LVU157
 650 009c 0529     		cmp	r1, #5
 651 009e 07D8     		bhi	.L42
 120:User/Src/command.c **** 				sum = sum * 16  + source[i] - 'a' + 10;
 652              		.loc 1 120 4 is_stmt 1 view .LVU158
 120:User/Src/command.c **** 				sum = sum * 16  + source[i] - 'a' + 10;
 653              		.loc 1 120 7 is_stmt 0 view .LVU159
 654 00a0 18B1     		cbz	r0, .L43
 121:User/Src/command.c **** 			} else {
 655              		.loc 1 121 5 is_stmt 1 view .LVU160
 121:User/Src/command.c **** 			} else {
 656              		.loc 1 121 21 is_stmt 0 view .LVU161
 657 00a2 0EEB0313 		add	r3, lr, r3, lsl #4
 658              	.LVL55:
 121:User/Src/command.c **** 			} else {
 659              		.loc 1 121 9 view .LVU162
 660 00a6 573B     		subs	r3, r3, #87
 661              	.LVL56:
 121:User/Src/command.c **** 			} else {
 662              		.loc 1 121 9 view .LVU163
 663 00a8 E4E7     		b	.L41
 664              	.L43:
 123:User/Src/command.c **** 				return 0;
 665              		.loc 1 123 5 is_stmt 1 view .LVU164
 123:User/Src/command.c **** 				return 0;
 666              		.loc 1 123 13 is_stmt 0 view .LVU165
 667 00aa 0023     		movs	r3, #0
 668              	.LVL57:
 123:User/Src/command.c **** 				return 0;
 669              		.loc 1 123 13 view .LVU166
 670 00ac 2B60     		str	r3, [r5]
 124:User/Src/command.c **** 			}
 671              		.loc 1 124 5 is_stmt 1 view .LVU167
 124:User/Src/command.c **** 			}
 672              		.loc 1 124 12 is_stmt 0 view .LVU168
 673 00ae 16E0     		b	.L34
 674              	.LVL58:
 675              	.L42:
 126:User/Src/command.c **** 			if (hex == 1) {
ARM GAS  C:\Users\84759\AppData\Local\Temp\cciPJLHt.s 			page 20


 676              		.loc 1 126 9 is_stmt 1 view .LVU169
 126:User/Src/command.c **** 			if (hex == 1) {
 677              		.loc 1 126 30 is_stmt 0 view .LVU170
 678 00b0 AEF14101 		sub	r1, lr, #65
 679 00b4 C9B2     		uxtb	r1, r1
 126:User/Src/command.c **** 			if (hex == 1) {
 680              		.loc 1 126 12 view .LVU171
 681 00b6 0529     		cmp	r1, #5
 682 00b8 07D8     		bhi	.L44
 127:User/Src/command.c **** 				sum = sum * 16  + source[i] - 'A' + 10;
 683              		.loc 1 127 4 is_stmt 1 view .LVU172
 127:User/Src/command.c **** 				sum = sum * 16  + source[i] - 'A' + 10;
 684              		.loc 1 127 7 is_stmt 0 view .LVU173
 685 00ba 18B1     		cbz	r0, .L45
 128:User/Src/command.c **** 			} else {
 686              		.loc 1 128 5 is_stmt 1 view .LVU174
 128:User/Src/command.c **** 			} else {
 687              		.loc 1 128 21 is_stmt 0 view .LVU175
 688 00bc 0EEB0313 		add	r3, lr, r3, lsl #4
 689              	.LVL59:
 128:User/Src/command.c **** 			} else {
 690              		.loc 1 128 9 view .LVU176
 691 00c0 373B     		subs	r3, r3, #55
 692              	.LVL60:
 128:User/Src/command.c **** 			} else {
 693              		.loc 1 128 9 view .LVU177
 694 00c2 D7E7     		b	.L41
 695              	.L45:
 130:User/Src/command.c **** 				return 0;
 696              		.loc 1 130 5 is_stmt 1 view .LVU178
 130:User/Src/command.c **** 				return 0;
 697              		.loc 1 130 13 is_stmt 0 view .LVU179
 698 00c4 0023     		movs	r3, #0
 699              	.LVL61:
 130:User/Src/command.c **** 				return 0;
 700              		.loc 1 130 13 view .LVU180
 701 00c6 2B60     		str	r3, [r5]
 131:User/Src/command.c **** 			}
 702              		.loc 1 131 5 is_stmt 1 view .LVU181
 131:User/Src/command.c **** 			}
 703              		.loc 1 131 12 is_stmt 0 view .LVU182
 704 00c8 09E0     		b	.L34
 705              	.LVL62:
 706              	.L44:
 133:User/Src/command.c **** 			break;
 707              		.loc 1 133 10 is_stmt 1 view .LVU183
 133:User/Src/command.c **** 			break;
 708              		.loc 1 133 13 is_stmt 0 view .LVU184
 709 00ca BEF1200F 		cmp	lr, #32
 710 00ce 02D0     		beq	.L46
 133:User/Src/command.c **** 			break;
 711              		.loc 1 133 31 discriminator 1 view .LVU185
 712 00d0 BEF12C0F 		cmp	lr, #44
 713 00d4 CED1     		bne	.L41
 714              	.L46:
 137:User/Src/command.c **** 	return 1;
 715              		.loc 1 137 2 is_stmt 1 view .LVU186
ARM GAS  C:\Users\84759\AppData\Local\Temp\cciPJLHt.s 			page 21


 137:User/Src/command.c **** 	return 1;
 716              		.loc 1 137 18 is_stmt 0 view .LVU187
 717 00d6 0CFB03F3 		mul	r3, ip, r3
 718              	.LVL63:
 137:User/Src/command.c **** 	return 1;
 719              		.loc 1 137 10 view .LVU188
 720 00da 2B60     		str	r3, [r5]
 138:User/Src/command.c **** }
 721              		.loc 1 138 2 is_stmt 1 view .LVU189
 138:User/Src/command.c **** }
 722              		.loc 1 138 9 is_stmt 0 view .LVU190
 723 00dc 0120     		movs	r0, #1
 724              	.LVL64:
 725              	.L34:
 139:User/Src/command.c **** 
 726              		.loc 1 139 1 view .LVU191
 727 00de 70BD     		pop	{r4, r5, r6, pc}
 139:User/Src/command.c **** 
 728              		.loc 1 139 1 view .LVU192
 729              		.cfi_endproc
 730              	.LFE71:
 732              		.section	.rodata.AT_READDATA_Handle.str1.4,"aMS",%progbits,1
 733              		.align	2
 734              	.LC5:
 735 0000 7265673A 		.ascii	"reg:\000"
 735      00
 736 0005 000000   		.align	2
 737              	.LC6:
 738 0008 72656720 		.ascii	"reg error !\012\000"
 738      6572726F 
 738      7220210A 
 738      00
 739 0015 000000   		.align	2
 740              	.LC7:
 741 0018 25303258 		.ascii	"%02X\304\352 %02X\324\302 %02X\310\325 \320\307\306"
 741      C4EA2025 
 741      303258D4 
 741      C2202530 
 741      3258C8D5 
 742 0030 DA253032 		.ascii	"\332%02X %02X:%02X:%02X\012\000"
 742      58202530 
 742      32583A25 
 742      3032583A 
 742      25303258 
 743 0046 0000     		.align	2
 744              	.LC8:
 745 0048 72656164 		.ascii	"read error flag=%d !\012\000"
 745      20657272 
 745      6F722066 
 745      6C61673D 
 745      25642021 
 746 005e 0000     		.align	2
 747              	.LC9:
 748 0060 69643A25 		.ascii	"id:%02X%02X%02X%02X%02X%02X%02X%02X\012\000"
 748      30325825 
 748      30325825 
 748      30325825 
ARM GAS  C:\Users\84759\AppData\Local\Temp\cciPJLHt.s 			page 22


 748      30325825 
 749              		.section	.text.AT_READDATA_Handle,"ax",%progbits
 750              		.align	1
 751              		.global	AT_READDATA_Handle
 752              		.syntax unified
 753              		.thumb
 754              		.thumb_func
 756              	AT_READDATA_Handle:
 757              	.LVL65:
 758              	.LFB76:
 224:User/Src/command.c **** 	uint8_t buffer[7]={0};
 759              		.loc 1 224 1 is_stmt 1 view -0
 760              		.cfi_startproc
 761              		@ args = 0, pretend = 0, frame = 16
 762              		@ frame_needed = 0, uses_anonymous_args = 0
 224:User/Src/command.c **** 	uint8_t buffer[7]={0};
 763              		.loc 1 224 1 is_stmt 0 view .LVU194
 764 0000 30B5     		push	{r4, r5, lr}
 765              	.LCFI16:
 766              		.cfi_def_cfa_offset 12
 767              		.cfi_offset 4, -12
 768              		.cfi_offset 5, -8
 769              		.cfi_offset 14, -4
 770 0002 8BB0     		sub	sp, sp, #44
 771              	.LCFI17:
 772              		.cfi_def_cfa_offset 56
 773 0004 0546     		mov	r5, r0
 225:User/Src/command.c **** 	int num = 0,reg = 0;
 774              		.loc 1 225 2 is_stmt 1 view .LVU195
 225:User/Src/command.c **** 	int num = 0,reg = 0;
 775              		.loc 1 225 10 is_stmt 0 view .LVU196
 776 0006 0023     		movs	r3, #0
 777 0008 0893     		str	r3, [sp, #32]
 778 000a ADF82430 		strh	r3, [sp, #36]	@ movhi
 779 000e 8DF82630 		strb	r3, [sp, #38]
 226:User/Src/command.c **** 	num = strSearch(command, "reg:");
 780              		.loc 1 226 2 is_stmt 1 view .LVU197
 781              	.LVL66:
 226:User/Src/command.c **** 	num = strSearch(command, "reg:");
 782              		.loc 1 226 14 is_stmt 0 view .LVU198
 783 0012 0793     		str	r3, [sp, #28]
 227:User/Src/command.c **** 	if (num != -1) {
 784              		.loc 1 227 2 is_stmt 1 view .LVU199
 227:User/Src/command.c **** 	if (num != -1) {
 785              		.loc 1 227 8 is_stmt 0 view .LVU200
 786 0014 4549     		ldr	r1, .L68
 787 0016 FFF7FEFF 		bl	strSearch
 788              	.LVL67:
 227:User/Src/command.c **** 	if (num != -1) {
 789              		.loc 1 227 8 view .LVU201
 790 001a 0446     		mov	r4, r0
 791              	.LVL68:
 228:User/Src/command.c **** 		num += strlen("reg:");
 792              		.loc 1 228 2 is_stmt 1 view .LVU202
 228:User/Src/command.c **** 		num += strlen("reg:");
 793              		.loc 1 228 5 is_stmt 0 view .LVU203
 794 001c B0F1FF3F 		cmp	r0, #-1
ARM GAS  C:\Users\84759\AppData\Local\Temp\cciPJLHt.s 			page 23


 795 0020 0BD1     		bne	.L66
 796              	.LVL69:
 797              	.L55:
 233:User/Src/command.c **** 		UsbPrintf("reg error !\n");
 798              		.loc 1 233 2 is_stmt 1 view .LVU204
 233:User/Src/command.c **** 		UsbPrintf("reg error !\n");
 799              		.loc 1 233 4 is_stmt 0 view .LVU205
 800 0022 B4F1FF3F 		cmp	r4, #-1
 801 0026 11D0     		beq	.L67
 237:User/Src/command.c **** 		{
 802              		.loc 1 237 3 is_stmt 1 view .LVU206
 803 0028 0799     		ldr	r1, [sp, #28]
 804 002a 99B1     		cbz	r1, .L59
 805 002c B229     		cmp	r1, #178
 806 002e 3AD0     		beq	.L60
 258:User/Src/command.c **** 			break;
 807              		.loc 1 258 4 view .LVU207
 808 0030 3F48     		ldr	r0, .L68+4
 809 0032 FFF7FEFF 		bl	UsbPrintf
 810              	.LVL70:
 259:User/Src/command.c **** 		}
 811              		.loc 1 259 4 view .LVU208
 812              	.L54:
 262:User/Src/command.c **** 
 813              		.loc 1 262 1 is_stmt 0 view .LVU209
 814 0036 0BB0     		add	sp, sp, #44
 815              	.LCFI18:
 816              		.cfi_remember_state
 817              		.cfi_def_cfa_offset 12
 818              		@ sp needed
 819 0038 30BD     		pop	{r4, r5, pc}
 820              	.LVL71:
 821              	.L66:
 822              	.LCFI19:
 823              		.cfi_restore_state
 229:User/Src/command.c **** 		if (CharToInt(command, num, &reg) == 0 ) {	return; }
 824              		.loc 1 229 3 is_stmt 1 view .LVU210
 229:User/Src/command.c **** 		if (CharToInt(command, num, &reg) == 0 ) {	return; }
 825              		.loc 1 229 7 is_stmt 0 view .LVU211
 826 003a 0434     		adds	r4, r4, #4
 827              	.LVL72:
 230:User/Src/command.c **** 	}
 828              		.loc 1 230 3 is_stmt 1 view .LVU212
 230:User/Src/command.c **** 	}
 829              		.loc 1 230 7 is_stmt 0 view .LVU213
 830 003c 07AA     		add	r2, sp, #28
 831 003e E1B2     		uxtb	r1, r4
 832 0040 2846     		mov	r0, r5
 833 0042 FFF7FEFF 		bl	CharToInt
 834              	.LVL73:
 230:User/Src/command.c **** 	}
 835              		.loc 1 230 6 view .LVU214
 836 0046 0028     		cmp	r0, #0
 837 0048 EBD1     		bne	.L55
 838 004a F4E7     		b	.L54
 839              	.L67:
 234:User/Src/command.c **** 	}
ARM GAS  C:\Users\84759\AppData\Local\Temp\cciPJLHt.s 			page 24


 840              		.loc 1 234 3 is_stmt 1 view .LVU215
 841 004c 3848     		ldr	r0, .L68+4
 842 004e FFF7FEFF 		bl	UsbPrintf
 843              	.LVL74:
 844 0052 F0E7     		b	.L54
 845              	.L59:
 240:User/Src/command.c **** 				UsbPrintf("%02X年 %02X月 %02X日 星期%02X %02X:%02X:%02X\n", buffer[6], buffer[5], buffer[4], bu
 846              		.loc 1 240 4 view .LVU216
 240:User/Src/command.c **** 				UsbPrintf("%02X年 %02X月 %02X日 星期%02X %02X:%02X:%02X\n", buffer[6], buffer[5], buffer[4], bu
 847              		.loc 1 240 8 is_stmt 0 view .LVU217
 848 0054 0723     		movs	r3, #7
 849 0056 08AA     		add	r2, sp, #32
 850 0058 C9B2     		uxtb	r1, r1
 851 005a 6420     		movs	r0, #100
 852 005c FFF7FEFF 		bl	i2c_read_multi_bytes
 853              	.LVL75:
 240:User/Src/command.c **** 				UsbPrintf("%02X年 %02X月 %02X日 星期%02X %02X:%02X:%02X\n", buffer[6], buffer[5], buffer[4], bu
 854              		.loc 1 240 7 view .LVU218
 855 0060 A8B9     		cbnz	r0, .L62
 241:User/Src/command.c **** 			}
 856              		.loc 1 241 5 is_stmt 1 view .LVU219
 241:User/Src/command.c **** 			}
 857              		.loc 1 241 104 is_stmt 0 view .LVU220
 858 0062 9DF82330 		ldrb	r3, [sp, #35]	@ zero_extendqisi2
 241:User/Src/command.c **** 			}
 859              		.loc 1 241 115 view .LVU221
 860 0066 9DF82220 		ldrb	r2, [sp, #34]	@ zero_extendqisi2
 241:User/Src/command.c **** 			}
 861              		.loc 1 241 126 view .LVU222
 862 006a 9DF82110 		ldrb	r1, [sp, #33]	@ zero_extendqisi2
 241:User/Src/command.c **** 			}
 863              		.loc 1 241 137 view .LVU223
 864 006e 9DF82000 		ldrb	r0, [sp, #32]	@ zero_extendqisi2
 241:User/Src/command.c **** 			}
 865              		.loc 1 241 5 view .LVU224
 866 0072 0390     		str	r0, [sp, #12]
 867 0074 0291     		str	r1, [sp, #8]
 868 0076 0192     		str	r2, [sp, #4]
 869 0078 0093     		str	r3, [sp]
 870 007a 9DF82430 		ldrb	r3, [sp, #36]	@ zero_extendqisi2
 871 007e 9DF82520 		ldrb	r2, [sp, #37]	@ zero_extendqisi2
 872 0082 9DF82610 		ldrb	r1, [sp, #38]	@ zero_extendqisi2
 873 0086 2B48     		ldr	r0, .L68+8
 874 0088 FFF7FEFF 		bl	UsbPrintf
 875              	.LVL76:
 876 008c D3E7     		b	.L54
 877              	.L62:
 878              	.LBB2:
 244:User/Src/command.c **** 				flag=i2c_read_multi_bytes(0x64, reg, buffer, 8);
 879              		.loc 1 244 5 is_stmt 1 view .LVU225
 880              	.LVL77:
 245:User/Src/command.c **** 				UsbPrintf("read error flag=%d !\n",flag);
 881              		.loc 1 245 5 view .LVU226
 245:User/Src/command.c **** 				UsbPrintf("read error flag=%d !\n",flag);
 882              		.loc 1 245 10 is_stmt 0 view .LVU227
 883 008e 0823     		movs	r3, #8
 884 0090 08AA     		add	r2, sp, #32
ARM GAS  C:\Users\84759\AppData\Local\Temp\cciPJLHt.s 			page 25


 885 0092 9DF81C10 		ldrb	r1, [sp, #28]	@ zero_extendqisi2
 886 0096 6420     		movs	r0, #100
 887 0098 FFF7FEFF 		bl	i2c_read_multi_bytes
 888              	.LVL78:
 889 009c 0146     		mov	r1, r0
 890              	.LVL79:
 246:User/Src/command.c **** 			}
 891              		.loc 1 246 5 is_stmt 1 view .LVU228
 892 009e 2648     		ldr	r0, .L68+12
 893 00a0 FFF7FEFF 		bl	UsbPrintf
 894              	.LVL80:
 246:User/Src/command.c **** 			}
 895              		.loc 1 246 5 is_stmt 0 view .LVU229
 896 00a4 C7E7     		b	.L54
 897              	.L60:
 246:User/Src/command.c **** 			}
 898              		.loc 1 246 5 view .LVU230
 899              	.LBE2:
 250:User/Src/command.c **** 				UsbPrintf("id:%02X%02X%02X%02X%02X%02X%02X%02X\n", buffer[0], buffer[1], buffer[2], buffer[3], 
 900              		.loc 1 250 4 is_stmt 1 view .LVU231
 250:User/Src/command.c **** 				UsbPrintf("id:%02X%02X%02X%02X%02X%02X%02X%02X\n", buffer[0], buffer[1], buffer[2], buffer[3], 
 901              		.loc 1 250 8 is_stmt 0 view .LVU232
 902 00a6 0823     		movs	r3, #8
 903 00a8 08AA     		add	r2, sp, #32
 904 00aa C9B2     		uxtb	r1, r1
 905 00ac 6420     		movs	r0, #100
 906 00ae FFF7FEFF 		bl	i2c_read_multi_bytes
 907              	.LVL81:
 250:User/Src/command.c **** 				UsbPrintf("id:%02X%02X%02X%02X%02X%02X%02X%02X\n", buffer[0], buffer[1], buffer[2], buffer[3], 
 908              		.loc 1 250 7 view .LVU233
 909 00b2 C0B9     		cbnz	r0, .L63
 251:User/Src/command.c **** 			}else if(i2c_read_multi_bytes(0xD0, reg, buffer, 8) == I2C_OK){
 910              		.loc 1 251 5 is_stmt 1 view .LVU234
 251:User/Src/command.c **** 			}else if(i2c_read_multi_bytes(0xD0, reg, buffer, 8) == I2C_OK){
 911              		.loc 1 251 95 is_stmt 0 view .LVU235
 912 00b4 9DF82330 		ldrb	r3, [sp, #35]	@ zero_extendqisi2
 251:User/Src/command.c **** 			}else if(i2c_read_multi_bytes(0xD0, reg, buffer, 8) == I2C_OK){
 913              		.loc 1 251 106 view .LVU236
 914 00b8 9DF82420 		ldrb	r2, [sp, #36]	@ zero_extendqisi2
 251:User/Src/command.c **** 			}else if(i2c_read_multi_bytes(0xD0, reg, buffer, 8) == I2C_OK){
 915              		.loc 1 251 117 view .LVU237
 916 00bc 9DF82510 		ldrb	r1, [sp, #37]	@ zero_extendqisi2
 251:User/Src/command.c **** 			}else if(i2c_read_multi_bytes(0xD0, reg, buffer, 8) == I2C_OK){
 917              		.loc 1 251 128 view .LVU238
 918 00c0 9DF82600 		ldrb	r0, [sp, #38]	@ zero_extendqisi2
 251:User/Src/command.c **** 			}else if(i2c_read_multi_bytes(0xD0, reg, buffer, 8) == I2C_OK){
 919              		.loc 1 251 139 view .LVU239
 920 00c4 9DF82740 		ldrb	r4, [sp, #39]	@ zero_extendqisi2
 921              	.LVL82:
 251:User/Src/command.c **** 			}else if(i2c_read_multi_bytes(0xD0, reg, buffer, 8) == I2C_OK){
 922              		.loc 1 251 5 view .LVU240
 923 00c8 0494     		str	r4, [sp, #16]
 924 00ca 0390     		str	r0, [sp, #12]
 925 00cc 0291     		str	r1, [sp, #8]
 926 00ce 0192     		str	r2, [sp, #4]
 927 00d0 0093     		str	r3, [sp]
 928 00d2 9DF82230 		ldrb	r3, [sp, #34]	@ zero_extendqisi2
ARM GAS  C:\Users\84759\AppData\Local\Temp\cciPJLHt.s 			page 26


 929 00d6 9DF82120 		ldrb	r2, [sp, #33]	@ zero_extendqisi2
 930 00da 9DF82010 		ldrb	r1, [sp, #32]	@ zero_extendqisi2
 931 00de 1748     		ldr	r0, .L68+16
 932 00e0 FFF7FEFF 		bl	UsbPrintf
 933              	.LVL83:
 934 00e4 A7E7     		b	.L54
 935              	.LVL84:
 936              	.L63:
 252:User/Src/command.c **** 				UsbPrintf("id:%02X%02X%02X%02X%02X%02X%02X%02X\n", buffer[0], buffer[1], buffer[2], buffer[3], 
 937              		.loc 1 252 10 is_stmt 1 view .LVU241
 252:User/Src/command.c **** 				UsbPrintf("id:%02X%02X%02X%02X%02X%02X%02X%02X\n", buffer[0], buffer[1], buffer[2], buffer[3], 
 938              		.loc 1 252 13 is_stmt 0 view .LVU242
 939 00e6 0823     		movs	r3, #8
 940 00e8 08AA     		add	r2, sp, #32
 941 00ea 9DF81C10 		ldrb	r1, [sp, #28]	@ zero_extendqisi2
 942 00ee D020     		movs	r0, #208
 943 00f0 FFF7FEFF 		bl	i2c_read_multi_bytes
 944              	.LVL85:
 252:User/Src/command.c **** 				UsbPrintf("id:%02X%02X%02X%02X%02X%02X%02X%02X\n", buffer[0], buffer[1], buffer[2], buffer[3], 
 945              		.loc 1 252 12 view .LVU243
 946 00f4 0028     		cmp	r0, #0
 947 00f6 9ED1     		bne	.L54
 253:User/Src/command.c **** 			}
 948              		.loc 1 253 5 is_stmt 1 view .LVU244
 253:User/Src/command.c **** 			}
 949              		.loc 1 253 95 is_stmt 0 view .LVU245
 950 00f8 9DF82330 		ldrb	r3, [sp, #35]	@ zero_extendqisi2
 253:User/Src/command.c **** 			}
 951              		.loc 1 253 106 view .LVU246
 952 00fc 9DF82420 		ldrb	r2, [sp, #36]	@ zero_extendqisi2
 253:User/Src/command.c **** 			}
 953              		.loc 1 253 117 view .LVU247
 954 0100 9DF82510 		ldrb	r1, [sp, #37]	@ zero_extendqisi2
 253:User/Src/command.c **** 			}
 955              		.loc 1 253 128 view .LVU248
 956 0104 9DF82600 		ldrb	r0, [sp, #38]	@ zero_extendqisi2
 253:User/Src/command.c **** 			}
 957              		.loc 1 253 139 view .LVU249
 958 0108 9DF82740 		ldrb	r4, [sp, #39]	@ zero_extendqisi2
 959              	.LVL86:
 253:User/Src/command.c **** 			}
 960              		.loc 1 253 5 view .LVU250
 961 010c 0494     		str	r4, [sp, #16]
 962 010e 0390     		str	r0, [sp, #12]
 963 0110 0291     		str	r1, [sp, #8]
 964 0112 0192     		str	r2, [sp, #4]
 965 0114 0093     		str	r3, [sp]
 966 0116 9DF82230 		ldrb	r3, [sp, #34]	@ zero_extendqisi2
 967 011a 9DF82120 		ldrb	r2, [sp, #33]	@ zero_extendqisi2
 968 011e 9DF82010 		ldrb	r1, [sp, #32]	@ zero_extendqisi2
 969 0122 0648     		ldr	r0, .L68+16
 970 0124 FFF7FEFF 		bl	UsbPrintf
 971              	.LVL87:
 972 0128 85E7     		b	.L54
 973              	.L69:
 974 012a 00BF     		.align	2
 975              	.L68:
ARM GAS  C:\Users\84759\AppData\Local\Temp\cciPJLHt.s 			page 27


 976 012c 00000000 		.word	.LC5
 977 0130 08000000 		.word	.LC6
 978 0134 18000000 		.word	.LC7
 979 0138 48000000 		.word	.LC8
 980 013c 60000000 		.word	.LC9
 981              		.cfi_endproc
 982              	.LFE76:
 984              		.section	.rodata.AT_SETTIME_Handle.str1.4,"aMS",%progbits,1
 985              		.align	2
 986              	.LC10:
 987 0000 79656172 		.ascii	"year:\000"
 987      3A00
 988 0006 0000     		.align	2
 989              	.LC11:
 990 0008 6D6F6E3A 		.ascii	"mon:\000"
 990      00
 991 000d 000000   		.align	2
 992              	.LC12:
 993 0010 6461793A 		.ascii	"day:\000"
 993      00
 994 0015 000000   		.align	2
 995              	.LC13:
 996 0018 686F7572 		.ascii	"hour:\000"
 996      3A00
 997 001e 0000     		.align	2
 998              	.LC14:
 999 0020 6D696E3A 		.ascii	"min:\000"
 999      00
 1000 0025 000000   		.align	2
 1001              	.LC15:
 1002 0028 7365633A 		.ascii	"sec:\000"
 1002      00
 1003 002d 000000   		.align	2
 1004              	.LC16:
 1005 0030 64617465 		.ascii	"date set success!\015\012\000"
 1005      20736574 
 1005      20737563 
 1005      63657373 
 1005      210D0A00 
 1006              		.align	2
 1007              	.LC17:
 1008 0044 64617465 		.ascii	"date set error!\012OK!\015\012\000"
 1008      20736574 
 1008      20657272 
 1008      6F72210A 
 1008      4F4B210D 
 1009              		.section	.text.AT_SETTIME_Handle,"ax",%progbits
 1010              		.align	1
 1011              		.global	AT_SETTIME_Handle
 1012              		.syntax unified
 1013              		.thumb
 1014              		.thumb_func
 1016              	AT_SETTIME_Handle:
 1017              	.LVL88:
 1018              	.LFB78:
 269:User/Src/command.c **** 
 270:User/Src/command.c **** void  AT_SETTIME_Handle(char* command)
ARM GAS  C:\Users\84759\AppData\Local\Temp\cciPJLHt.s 			page 28


 271:User/Src/command.c **** {
 1019              		.loc 1 271 1 is_stmt 1 view -0
 1020              		.cfi_startproc
 1021              		@ args = 0, pretend = 0, frame = 24
 1022              		@ frame_needed = 0, uses_anonymous_args = 0
 1023              		.loc 1 271 1 is_stmt 0 view .LVU252
 1024 0000 10B5     		push	{r4, lr}
 1025              	.LCFI20:
 1026              		.cfi_def_cfa_offset 8
 1027              		.cfi_offset 4, -8
 1028              		.cfi_offset 14, -4
 1029 0002 86B0     		sub	sp, sp, #24
 1030              	.LCFI21:
 1031              		.cfi_def_cfa_offset 32
 1032 0004 0446     		mov	r4, r0
 272:User/Src/command.c **** 	RealTime_S rtc = {0};
 1033              		.loc 1 272 2 is_stmt 1 view .LVU253
 1034              		.loc 1 272 13 is_stmt 0 view .LVU254
 1035 0006 0023     		movs	r3, #0
 1036 0008 0393     		str	r3, [sp, #12]
 1037 000a 0493     		str	r3, [sp, #16]
 1038 000c ADF81430 		strh	r3, [sp, #20]	@ movhi
 273:User/Src/command.c **** 	int num = 0;
 1039              		.loc 1 273 2 is_stmt 1 view .LVU255
 1040              	.LVL89:
 274:User/Src/command.c **** 	int inNumber = 0;
 1041              		.loc 1 274 2 view .LVU256
 1042              		.loc 1 274 6 is_stmt 0 view .LVU257
 1043 0010 0293     		str	r3, [sp, #8]
 275:User/Src/command.c **** 
 276:User/Src/command.c **** 	num = strSearch(command, "year:");
 1044              		.loc 1 276 2 is_stmt 1 view .LVU258
 1045              		.loc 1 276 8 is_stmt 0 view .LVU259
 1046 0012 6949     		ldr	r1, .L87
 1047 0014 FFF7FEFF 		bl	strSearch
 1048              	.LVL90:
 277:User/Src/command.c **** 	if (num != -1) {
 1049              		.loc 1 277 2 is_stmt 1 view .LVU260
 1050              		.loc 1 277 5 is_stmt 0 view .LVU261
 1051 0018 B0F1FF3F 		cmp	r0, #-1
 1052 001c 5ED1     		bne	.L82
 1053              	.LVL91:
 1054              	.L71:
 278:User/Src/command.c **** 		num += strlen("year:");
 279:User/Src/command.c **** 		if (CharToInt(command, num, &inNumber) == 0 ) {	return; }
 280:User/Src/command.c **** 		rtc.year = inNumber % 100;
 281:User/Src/command.c **** 	}
 282:User/Src/command.c **** 	num = strSearch(command, "mon:");
 1055              		.loc 1 282 2 is_stmt 1 view .LVU262
 1056              		.loc 1 282 8 is_stmt 0 view .LVU263
 1057 001e 6749     		ldr	r1, .L87+4
 1058 0020 2046     		mov	r0, r4
 1059 0022 FFF7FEFF 		bl	strSearch
 1060              	.LVL92:
 283:User/Src/command.c **** 	if (num != -1) {
 1061              		.loc 1 283 2 is_stmt 1 view .LVU264
 1062              		.loc 1 283 5 is_stmt 0 view .LVU265
ARM GAS  C:\Users\84759\AppData\Local\Temp\cciPJLHt.s 			page 29


 1063 0026 B0F1FF3F 		cmp	r0, #-1
 1064 002a 6CD1     		bne	.L83
 1065              	.LVL93:
 1066              	.L73:
 284:User/Src/command.c **** 		num += strlen("mon:");
 285:User/Src/command.c **** 		if (CharToInt(command, num, &inNumber) == 0 ) {	return; }
 286:User/Src/command.c **** 		rtc.mon = inNumber % 100;
 287:User/Src/command.c **** 	}	
 288:User/Src/command.c **** 	num = strSearch(command, "day:");
 1067              		.loc 1 288 2 is_stmt 1 view .LVU266
 1068              		.loc 1 288 8 is_stmt 0 view .LVU267
 1069 002c 6449     		ldr	r1, .L87+8
 1070 002e 2046     		mov	r0, r4
 1071 0030 FFF7FEFF 		bl	strSearch
 1072              	.LVL94:
 289:User/Src/command.c **** 	if (num != -1) {
 1073              		.loc 1 289 2 is_stmt 1 view .LVU268
 1074              		.loc 1 289 5 is_stmt 0 view .LVU269
 1075 0034 B0F1FF3F 		cmp	r0, #-1
 1076 0038 7AD1     		bne	.L84
 1077              	.LVL95:
 1078              	.L74:
 290:User/Src/command.c **** 		num += strlen("day:");
 291:User/Src/command.c **** 		if (CharToInt(command, num, &inNumber) == 0 ) {	return; }
 292:User/Src/command.c **** 		rtc.day = inNumber % 100;
 293:User/Src/command.c **** 	}	
 294:User/Src/command.c **** 	num = strSearch(command, "hour:");
 1079              		.loc 1 294 2 is_stmt 1 view .LVU270
 1080              		.loc 1 294 8 is_stmt 0 view .LVU271
 1081 003a 6249     		ldr	r1, .L87+12
 1082 003c 2046     		mov	r0, r4
 1083 003e FFF7FEFF 		bl	strSearch
 1084              	.LVL96:
 295:User/Src/command.c **** 	if (num != -1) {
 1085              		.loc 1 295 2 is_stmt 1 view .LVU272
 1086              		.loc 1 295 5 is_stmt 0 view .LVU273
 1087 0042 B0F1FF3F 		cmp	r0, #-1
 1088 0046 40F08880 		bne	.L85
 1089              	.LVL97:
 1090              	.L75:
 296:User/Src/command.c **** 		num += strlen("hour:");
 297:User/Src/command.c **** 		if (CharToInt(command, num, &inNumber) == 0 ) {	return; }
 298:User/Src/command.c **** 		rtc.hour = inNumber % 100;
 299:User/Src/command.c **** 	}	
 300:User/Src/command.c **** 	num = strSearch(command, "min:");
 1091              		.loc 1 300 2 is_stmt 1 view .LVU274
 1092              		.loc 1 300 8 is_stmt 0 view .LVU275
 1093 004a 5F49     		ldr	r1, .L87+16
 1094 004c 2046     		mov	r0, r4
 1095 004e FFF7FEFF 		bl	strSearch
 1096              	.LVL98:
 301:User/Src/command.c **** 	if (num != -1) {
 1097              		.loc 1 301 2 is_stmt 1 view .LVU276
 1098              		.loc 1 301 5 is_stmt 0 view .LVU277
 1099 0052 B0F1FF3F 		cmp	r0, #-1
 1100 0056 40F09580 		bne	.L86
 1101              	.LVL99:
ARM GAS  C:\Users\84759\AppData\Local\Temp\cciPJLHt.s 			page 30


 1102              	.L76:
 302:User/Src/command.c **** 		num += strlen("min:");
 303:User/Src/command.c **** 		if (CharToInt(command, num, &inNumber) == 0 ) {	return; }
 304:User/Src/command.c **** 		rtc.min = inNumber % 100;
 305:User/Src/command.c **** 	}	
 306:User/Src/command.c **** 	num = strSearch(command, "sec:");
 1103              		.loc 1 306 2 is_stmt 1 view .LVU278
 1104              		.loc 1 306 8 is_stmt 0 view .LVU279
 1105 005a 5C49     		ldr	r1, .L87+20
 1106 005c 2046     		mov	r0, r4
 1107 005e FFF7FEFF 		bl	strSearch
 1108              	.LVL100:
 307:User/Src/command.c **** 	if (num != -1) {
 1109              		.loc 1 307 2 is_stmt 1 view .LVU280
 1110              		.loc 1 307 5 is_stmt 0 view .LVU281
 1111 0062 B0F1FF3F 		cmp	r0, #-1
 1112 0066 12D0     		beq	.L77
 308:User/Src/command.c **** 		num += strlen("sec:");
 1113              		.loc 1 308 3 is_stmt 1 view .LVU282
 1114              		.loc 1 308 7 is_stmt 0 view .LVU283
 1115 0068 0430     		adds	r0, r0, #4
 1116              	.LVL101:
 309:User/Src/command.c **** 		if (CharToInt(command, num, &inNumber) == 0 ) {	return; }
 1117              		.loc 1 309 3 is_stmt 1 view .LVU284
 1118              		.loc 1 309 7 is_stmt 0 view .LVU285
 1119 006a 02AA     		add	r2, sp, #8
 1120 006c C1B2     		uxtb	r1, r0
 1121 006e 2046     		mov	r0, r4
 1122              	.LVL102:
 1123              		.loc 1 309 7 view .LVU286
 1124 0070 FFF7FEFF 		bl	CharToInt
 1125              	.LVL103:
 1126              		.loc 1 309 6 view .LVU287
 1127 0074 80B3     		cbz	r0, .L70
 310:User/Src/command.c **** 		rtc.sec = inNumber % 100;
 1128              		.loc 1 310 3 is_stmt 1 view .LVU288
 1129              		.loc 1 310 22 is_stmt 0 view .LVU289
 1130 0076 029A     		ldr	r2, [sp, #8]
 1131 0078 5549     		ldr	r1, .L87+24
 1132 007a 81FB0231 		smull	r3, r1, r1, r2
 1133 007e D317     		asrs	r3, r2, #31
 1134 0080 C3EB6113 		rsb	r3, r3, r1, asr #5
 1135 0084 6421     		movs	r1, #100
 1136 0086 01FB1323 		mls	r3, r1, r3, r2
 1137              		.loc 1 310 11 view .LVU290
 1138 008a 8DF81230 		strb	r3, [sp, #18]
 1139              	.L77:
 311:User/Src/command.c **** 	}
 312:User/Src/command.c **** 
 313:User/Src/command.c **** 	uint8_t data[7]={rtc.sec, rtc.min, rtc.hour, rtc.week, rtc.day, rtc.mon, rtc.year};
 1140              		.loc 1 313 2 is_stmt 1 view .LVU291
 1141              		.loc 1 313 22 is_stmt 0 view .LVU292
 1142 008e 9DF81230 		ldrb	r3, [sp, #18]	@ zero_extendqisi2
 1143              		.loc 1 313 10 view .LVU293
 1144 0092 8DF80030 		strb	r3, [sp]
 1145              		.loc 1 313 31 view .LVU294
 1146 0096 9DF81130 		ldrb	r3, [sp, #17]	@ zero_extendqisi2
ARM GAS  C:\Users\84759\AppData\Local\Temp\cciPJLHt.s 			page 31


 1147              		.loc 1 313 10 view .LVU295
 1148 009a 8DF80130 		strb	r3, [sp, #1]
 1149              		.loc 1 313 40 view .LVU296
 1150 009e 9DF81030 		ldrb	r3, [sp, #16]	@ zero_extendqisi2
 1151              		.loc 1 313 10 view .LVU297
 1152 00a2 8DF80230 		strb	r3, [sp, #2]
 1153 00a6 0021     		movs	r1, #0
 1154 00a8 8DF80310 		strb	r1, [sp, #3]
 1155              		.loc 1 313 60 view .LVU298
 1156 00ac 9DF80E30 		ldrb	r3, [sp, #14]	@ zero_extendqisi2
 1157              		.loc 1 313 10 view .LVU299
 1158 00b0 8DF80430 		strb	r3, [sp, #4]
 1159              		.loc 1 313 69 view .LVU300
 1160 00b4 9DF80D30 		ldrb	r3, [sp, #13]	@ zero_extendqisi2
 1161              		.loc 1 313 10 view .LVU301
 1162 00b8 8DF80530 		strb	r3, [sp, #5]
 1163              		.loc 1 313 78 view .LVU302
 1164 00bc 9DF80C30 		ldrb	r3, [sp, #12]	@ zero_extendqisi2
 1165              		.loc 1 313 10 view .LVU303
 1166 00c0 8DF80630 		strb	r3, [sp, #6]
 314:User/Src/command.c **** 
 315:User/Src/command.c **** 
 316:User/Src/command.c **** 	if (i2c_write_multi_bytes(0x64, 0x00, data, 7) == I2C_OK) {
 1167              		.loc 1 316 2 is_stmt 1 view .LVU304
 1168              		.loc 1 316 6 is_stmt 0 view .LVU305
 1169 00c4 0723     		movs	r3, #7
 1170 00c6 6A46     		mov	r2, sp
 1171 00c8 6420     		movs	r0, #100
 1172 00ca FFF7FEFF 		bl	i2c_write_multi_bytes
 1173              	.LVL104:
 1174              		.loc 1 316 5 view .LVU306
 1175 00ce 0028     		cmp	r0, #0
 1176 00d0 6DD1     		bne	.L78
 317:User/Src/command.c **** 		UsbPrintf("date set success!\r\n");
 1177              		.loc 1 317 3 is_stmt 1 view .LVU307
 1178 00d2 4048     		ldr	r0, .L87+28
 1179 00d4 FFF7FEFF 		bl	UsbPrintf
 1180              	.LVL105:
 1181              	.L70:
 318:User/Src/command.c **** 
 319:User/Src/command.c **** 	}else {
 320:User/Src/command.c **** 		UsbPrintf("date set error!\nOK!\r\n");
 321:User/Src/command.c **** 	}
 322:User/Src/command.c **** 
 323:User/Src/command.c **** }
 1182              		.loc 1 323 1 is_stmt 0 view .LVU308
 1183 00d8 06B0     		add	sp, sp, #24
 1184              	.LCFI22:
 1185              		.cfi_remember_state
 1186              		.cfi_def_cfa_offset 8
 1187              		@ sp needed
 1188 00da 10BD     		pop	{r4, pc}
 1189              	.LVL106:
 1190              	.L82:
 1191              	.LCFI23:
 1192              		.cfi_restore_state
 278:User/Src/command.c **** 		if (CharToInt(command, num, &inNumber) == 0 ) {	return; }
ARM GAS  C:\Users\84759\AppData\Local\Temp\cciPJLHt.s 			page 32


 1193              		.loc 1 278 3 is_stmt 1 view .LVU309
 278:User/Src/command.c **** 		if (CharToInt(command, num, &inNumber) == 0 ) {	return; }
 1194              		.loc 1 278 7 is_stmt 0 view .LVU310
 1195 00dc 0530     		adds	r0, r0, #5
 1196              	.LVL107:
 279:User/Src/command.c **** 		rtc.year = inNumber % 100;
 1197              		.loc 1 279 3 is_stmt 1 view .LVU311
 279:User/Src/command.c **** 		rtc.year = inNumber % 100;
 1198              		.loc 1 279 7 is_stmt 0 view .LVU312
 1199 00de 02AA     		add	r2, sp, #8
 1200 00e0 C1B2     		uxtb	r1, r0
 1201 00e2 2046     		mov	r0, r4
 1202              	.LVL108:
 279:User/Src/command.c **** 		rtc.year = inNumber % 100;
 1203              		.loc 1 279 7 view .LVU313
 1204 00e4 FFF7FEFF 		bl	CharToInt
 1205              	.LVL109:
 279:User/Src/command.c **** 		rtc.year = inNumber % 100;
 1206              		.loc 1 279 6 view .LVU314
 1207 00e8 0028     		cmp	r0, #0
 1208 00ea F5D0     		beq	.L70
 280:User/Src/command.c **** 	}
 1209              		.loc 1 280 3 is_stmt 1 view .LVU315
 280:User/Src/command.c **** 	}
 1210              		.loc 1 280 23 is_stmt 0 view .LVU316
 1211 00ec 029A     		ldr	r2, [sp, #8]
 1212 00ee 3849     		ldr	r1, .L87+24
 1213 00f0 81FB0231 		smull	r3, r1, r1, r2
 1214 00f4 D317     		asrs	r3, r2, #31
 1215 00f6 C3EB6113 		rsb	r3, r3, r1, asr #5
 1216 00fa 6421     		movs	r1, #100
 1217 00fc 01FB1323 		mls	r3, r1, r3, r2
 280:User/Src/command.c **** 	}
 1218              		.loc 1 280 12 view .LVU317
 1219 0100 8DF80C30 		strb	r3, [sp, #12]
 1220 0104 8BE7     		b	.L71
 1221              	.LVL110:
 1222              	.L83:
 284:User/Src/command.c **** 		if (CharToInt(command, num, &inNumber) == 0 ) {	return; }
 1223              		.loc 1 284 3 is_stmt 1 view .LVU318
 284:User/Src/command.c **** 		if (CharToInt(command, num, &inNumber) == 0 ) {	return; }
 1224              		.loc 1 284 7 is_stmt 0 view .LVU319
 1225 0106 0430     		adds	r0, r0, #4
 1226              	.LVL111:
 285:User/Src/command.c **** 		rtc.mon = inNumber % 100;
 1227              		.loc 1 285 3 is_stmt 1 view .LVU320
 285:User/Src/command.c **** 		rtc.mon = inNumber % 100;
 1228              		.loc 1 285 7 is_stmt 0 view .LVU321
 1229 0108 02AA     		add	r2, sp, #8
 1230 010a C1B2     		uxtb	r1, r0
 1231 010c 2046     		mov	r0, r4
 1232              	.LVL112:
 285:User/Src/command.c **** 		rtc.mon = inNumber % 100;
 1233              		.loc 1 285 7 view .LVU322
 1234 010e FFF7FEFF 		bl	CharToInt
 1235              	.LVL113:
 285:User/Src/command.c **** 		rtc.mon = inNumber % 100;
ARM GAS  C:\Users\84759\AppData\Local\Temp\cciPJLHt.s 			page 33


 1236              		.loc 1 285 6 view .LVU323
 1237 0112 0028     		cmp	r0, #0
 1238 0114 E0D0     		beq	.L70
 286:User/Src/command.c **** 	}	
 1239              		.loc 1 286 3 is_stmt 1 view .LVU324
 286:User/Src/command.c **** 	}	
 1240              		.loc 1 286 22 is_stmt 0 view .LVU325
 1241 0116 029A     		ldr	r2, [sp, #8]
 1242 0118 2D49     		ldr	r1, .L87+24
 1243 011a 81FB0231 		smull	r3, r1, r1, r2
 1244 011e D317     		asrs	r3, r2, #31
 1245 0120 C3EB6113 		rsb	r3, r3, r1, asr #5
 1246 0124 6421     		movs	r1, #100
 1247 0126 01FB1323 		mls	r3, r1, r3, r2
 286:User/Src/command.c **** 	}	
 1248              		.loc 1 286 11 view .LVU326
 1249 012a 8DF80D30 		strb	r3, [sp, #13]
 1250 012e 7DE7     		b	.L73
 1251              	.LVL114:
 1252              	.L84:
 290:User/Src/command.c **** 		if (CharToInt(command, num, &inNumber) == 0 ) {	return; }
 1253              		.loc 1 290 3 is_stmt 1 view .LVU327
 290:User/Src/command.c **** 		if (CharToInt(command, num, &inNumber) == 0 ) {	return; }
 1254              		.loc 1 290 7 is_stmt 0 view .LVU328
 1255 0130 0430     		adds	r0, r0, #4
 1256              	.LVL115:
 291:User/Src/command.c **** 		rtc.day = inNumber % 100;
 1257              		.loc 1 291 3 is_stmt 1 view .LVU329
 291:User/Src/command.c **** 		rtc.day = inNumber % 100;
 1258              		.loc 1 291 7 is_stmt 0 view .LVU330
 1259 0132 02AA     		add	r2, sp, #8
 1260 0134 C1B2     		uxtb	r1, r0
 1261 0136 2046     		mov	r0, r4
 1262              	.LVL116:
 291:User/Src/command.c **** 		rtc.day = inNumber % 100;
 1263              		.loc 1 291 7 view .LVU331
 1264 0138 FFF7FEFF 		bl	CharToInt
 1265              	.LVL117:
 291:User/Src/command.c **** 		rtc.day = inNumber % 100;
 1266              		.loc 1 291 6 view .LVU332
 1267 013c 0028     		cmp	r0, #0
 1268 013e CBD0     		beq	.L70
 292:User/Src/command.c **** 	}	
 1269              		.loc 1 292 3 is_stmt 1 view .LVU333
 292:User/Src/command.c **** 	}	
 1270              		.loc 1 292 22 is_stmt 0 view .LVU334
 1271 0140 029A     		ldr	r2, [sp, #8]
 1272 0142 2349     		ldr	r1, .L87+24
 1273 0144 81FB0231 		smull	r3, r1, r1, r2
 1274 0148 D317     		asrs	r3, r2, #31
 1275 014a C3EB6113 		rsb	r3, r3, r1, asr #5
 1276 014e 6421     		movs	r1, #100
 1277 0150 01FB1323 		mls	r3, r1, r3, r2
 292:User/Src/command.c **** 	}	
 1278              		.loc 1 292 11 view .LVU335
 1279 0154 8DF80E30 		strb	r3, [sp, #14]
 1280 0158 6FE7     		b	.L74
ARM GAS  C:\Users\84759\AppData\Local\Temp\cciPJLHt.s 			page 34


 1281              	.LVL118:
 1282              	.L85:
 296:User/Src/command.c **** 		if (CharToInt(command, num, &inNumber) == 0 ) {	return; }
 1283              		.loc 1 296 3 is_stmt 1 view .LVU336
 296:User/Src/command.c **** 		if (CharToInt(command, num, &inNumber) == 0 ) {	return; }
 1284              		.loc 1 296 7 is_stmt 0 view .LVU337
 1285 015a 0530     		adds	r0, r0, #5
 1286              	.LVL119:
 297:User/Src/command.c **** 		rtc.hour = inNumber % 100;
 1287              		.loc 1 297 3 is_stmt 1 view .LVU338
 297:User/Src/command.c **** 		rtc.hour = inNumber % 100;
 1288              		.loc 1 297 7 is_stmt 0 view .LVU339
 1289 015c 02AA     		add	r2, sp, #8
 1290 015e C1B2     		uxtb	r1, r0
 1291 0160 2046     		mov	r0, r4
 1292              	.LVL120:
 297:User/Src/command.c **** 		rtc.hour = inNumber % 100;
 1293              		.loc 1 297 7 view .LVU340
 1294 0162 FFF7FEFF 		bl	CharToInt
 1295              	.LVL121:
 297:User/Src/command.c **** 		rtc.hour = inNumber % 100;
 1296              		.loc 1 297 6 view .LVU341
 1297 0166 0028     		cmp	r0, #0
 1298 0168 B6D0     		beq	.L70
 298:User/Src/command.c **** 	}	
 1299              		.loc 1 298 3 is_stmt 1 view .LVU342
 298:User/Src/command.c **** 	}	
 1300              		.loc 1 298 23 is_stmt 0 view .LVU343
 1301 016a 029A     		ldr	r2, [sp, #8]
 1302 016c 1849     		ldr	r1, .L87+24
 1303 016e 81FB0231 		smull	r3, r1, r1, r2
 1304 0172 D317     		asrs	r3, r2, #31
 1305 0174 C3EB6113 		rsb	r3, r3, r1, asr #5
 1306 0178 6421     		movs	r1, #100
 1307 017a 01FB1323 		mls	r3, r1, r3, r2
 298:User/Src/command.c **** 	}	
 1308              		.loc 1 298 12 view .LVU344
 1309 017e 8DF81030 		strb	r3, [sp, #16]
 1310 0182 62E7     		b	.L75
 1311              	.LVL122:
 1312              	.L86:
 302:User/Src/command.c **** 		if (CharToInt(command, num, &inNumber) == 0 ) {	return; }
 1313              		.loc 1 302 3 is_stmt 1 view .LVU345
 302:User/Src/command.c **** 		if (CharToInt(command, num, &inNumber) == 0 ) {	return; }
 1314              		.loc 1 302 7 is_stmt 0 view .LVU346
 1315 0184 0430     		adds	r0, r0, #4
 1316              	.LVL123:
 303:User/Src/command.c **** 		rtc.min = inNumber % 100;
 1317              		.loc 1 303 3 is_stmt 1 view .LVU347
 303:User/Src/command.c **** 		rtc.min = inNumber % 100;
 1318              		.loc 1 303 7 is_stmt 0 view .LVU348
 1319 0186 02AA     		add	r2, sp, #8
 1320 0188 C1B2     		uxtb	r1, r0
 1321 018a 2046     		mov	r0, r4
 1322              	.LVL124:
 303:User/Src/command.c **** 		rtc.min = inNumber % 100;
 1323              		.loc 1 303 7 view .LVU349
ARM GAS  C:\Users\84759\AppData\Local\Temp\cciPJLHt.s 			page 35


 1324 018c FFF7FEFF 		bl	CharToInt
 1325              	.LVL125:
 303:User/Src/command.c **** 		rtc.min = inNumber % 100;
 1326              		.loc 1 303 6 view .LVU350
 1327 0190 0028     		cmp	r0, #0
 1328 0192 A1D0     		beq	.L70
 304:User/Src/command.c **** 	}	
 1329              		.loc 1 304 3 is_stmt 1 view .LVU351
 304:User/Src/command.c **** 	}	
 1330              		.loc 1 304 22 is_stmt 0 view .LVU352
 1331 0194 029A     		ldr	r2, [sp, #8]
 1332 0196 0E49     		ldr	r1, .L87+24
 1333 0198 81FB0231 		smull	r3, r1, r1, r2
 1334 019c D317     		asrs	r3, r2, #31
 1335 019e C3EB6113 		rsb	r3, r3, r1, asr #5
 1336 01a2 6421     		movs	r1, #100
 1337 01a4 01FB1323 		mls	r3, r1, r3, r2
 304:User/Src/command.c **** 	}	
 1338              		.loc 1 304 11 view .LVU353
 1339 01a8 8DF81130 		strb	r3, [sp, #17]
 1340 01ac 55E7     		b	.L76
 1341              	.L78:
 320:User/Src/command.c **** 	}
 1342              		.loc 1 320 3 is_stmt 1 view .LVU354
 1343 01ae 0A48     		ldr	r0, .L87+32
 1344 01b0 FFF7FEFF 		bl	UsbPrintf
 1345              	.LVL126:
 1346 01b4 90E7     		b	.L70
 1347              	.L88:
 1348 01b6 00BF     		.align	2
 1349              	.L87:
 1350 01b8 00000000 		.word	.LC10
 1351 01bc 08000000 		.word	.LC11
 1352 01c0 10000000 		.word	.LC12
 1353 01c4 18000000 		.word	.LC13
 1354 01c8 20000000 		.word	.LC14
 1355 01cc 28000000 		.word	.LC15
 1356 01d0 1F85EB51 		.word	1374389535
 1357 01d4 30000000 		.word	.LC16
 1358 01d8 44000000 		.word	.LC17
 1359              		.cfi_endproc
 1360              	.LFE78:
 1362              		.global	__aeabi_fmul
 1363              		.global	__aeabi_i2f
 1364              		.global	__aeabi_fadd
 1365              		.global	__aeabi_fsub
 1366              		.global	__aeabi_f2d
 1367              		.global	__aeabi_dmul
 1368              		.global	__aeabi_d2f
 1369              		.section	.text.CharToFloat,"ax",%progbits
 1370              		.align	1
 1371              		.global	CharToFloat
 1372              		.syntax unified
 1373              		.thumb
 1374              		.thumb_func
 1376              	CharToFloat:
 1377              	.LVL127:
ARM GAS  C:\Users\84759\AppData\Local\Temp\cciPJLHt.s 			page 36


 1378              	.LFB72:
 142:User/Src/command.c **** 		uint8_t length;
 1379              		.loc 1 142 1 view -0
 1380              		.cfi_startproc
 1381              		@ args = 0, pretend = 0, frame = 0
 1382              		@ frame_needed = 0, uses_anonymous_args = 0
 142:User/Src/command.c **** 		uint8_t length;
 1383              		.loc 1 142 1 is_stmt 0 view .LVU356
 1384 0000 2DE9F047 		push	{r4, r5, r6, r7, r8, r9, r10, lr}
 1385              	.LCFI24:
 1386              		.cfi_def_cfa_offset 32
 1387              		.cfi_offset 4, -32
 1388              		.cfi_offset 5, -28
 1389              		.cfi_offset 6, -24
 1390              		.cfi_offset 7, -20
 1391              		.cfi_offset 8, -16
 1392              		.cfi_offset 9, -12
 1393              		.cfi_offset 10, -8
 1394              		.cfi_offset 14, -4
 1395 0004 8046     		mov	r8, r0
 1396 0006 0C46     		mov	r4, r1
 1397 0008 9146     		mov	r9, r2
 143:User/Src/command.c **** 		uint8_t i;
 1398              		.loc 1 143 3 is_stmt 1 view .LVU357
 144:User/Src/command.c **** 		float sum = 0;
 1399              		.loc 1 144 3 view .LVU358
 145:User/Src/command.c **** 		int state = 1;
 1400              		.loc 1 145 3 view .LVU359
 1401              	.LVL128:
 146:User/Src/command.c **** 		float smallNumber = 0.1;
 1402              		.loc 1 146 3 view .LVU360
 147:User/Src/command.c **** 		length = strlen(source);
 1403              		.loc 1 147 3 view .LVU361
 148:User/Src/command.c **** 		if (length <= start) {
 1404              		.loc 1 148 3 view .LVU362
 148:User/Src/command.c **** 		if (length <= start) {
 1405              		.loc 1 148 12 is_stmt 0 view .LVU363
 1406 000a FFF7FEFF 		bl	strlen
 1407              	.LVL129:
 148:User/Src/command.c **** 		if (length <= start) {
 1408              		.loc 1 148 10 view .LVU364
 1409 000e C7B2     		uxtb	r7, r0
 1410              	.LVL130:
 149:User/Src/command.c **** 				*number = 0;
 1411              		.loc 1 149 3 is_stmt 1 view .LVU365
 149:User/Src/command.c **** 				*number = 0;
 1412              		.loc 1 149 6 is_stmt 0 view .LVU366
 1413 0010 A742     		cmp	r7, r4
 1414 0012 21D9     		bls	.L104
 154:User/Src/command.c **** 				state = -1;
 1415              		.loc 1 154 3 is_stmt 1 view .LVU367
 154:User/Src/command.c **** 				state = -1;
 1416              		.loc 1 154 13 is_stmt 0 view .LVU368
 1417 0014 18F80430 		ldrb	r3, [r8, r4]	@ zero_extendqisi2
 154:User/Src/command.c **** 				state = -1;
 1418              		.loc 1 154 6 view .LVU369
 1419 0018 2D2B     		cmp	r3, #45
ARM GAS  C:\Users\84759\AppData\Local\Temp\cciPJLHt.s 			page 37


 1420 001a 22D0     		beq	.L105
 146:User/Src/command.c **** 		float smallNumber = 0.1;
 1421              		.loc 1 146 7 view .LVU370
 1422 001c 4FF0010A 		mov	r10, #1
 1423              	.LVL131:
 1424              	.L92:
 158:User/Src/command.c **** 				if (source[i] >= '0' && source[i] <= '9') {
 1425              		.loc 1 158 3 is_stmt 1 view .LVU371
 145:User/Src/command.c **** 		int state = 1;
 1426              		.loc 1 145 9 is_stmt 0 view .LVU372
 1427 0020 0025     		movs	r5, #0
 1428              	.LVL132:
 1429              	.L93:
 158:User/Src/command.c **** 				if (source[i] >= '0' && source[i] <= '9') {
 1430              		.loc 1 158 19 is_stmt 1 discriminator 1 view .LVU373
 158:User/Src/command.c **** 				if (source[i] >= '0' && source[i] <= '9') {
 1431              		.loc 1 158 3 is_stmt 0 discriminator 1 view .LVU374
 1432 0022 BC42     		cmp	r4, r7
 1433 0024 2FD2     		bcs	.L97
 159:User/Src/command.c **** 						sum = sum * 10 + source[i] - '0';
 1434              		.loc 1 159 5 is_stmt 1 view .LVU375
 159:User/Src/command.c **** 						sum = sum * 10 + source[i] - '0';
 1435              		.loc 1 159 15 is_stmt 0 view .LVU376
 1436 0026 18F80460 		ldrb	r6, [r8, r4]	@ zero_extendqisi2
 159:User/Src/command.c **** 						sum = sum * 10 + source[i] - '0';
 1437              		.loc 1 159 26 view .LVU377
 1438 002a A6F13003 		sub	r3, r6, #48
 1439 002e DBB2     		uxtb	r3, r3
 159:User/Src/command.c **** 						sum = sum * 10 + source[i] - '0';
 1440              		.loc 1 159 8 view .LVU378
 1441 0030 092B     		cmp	r3, #9
 1442 0032 1BD8     		bhi	.L94
 160:User/Src/command.c **** 				} else if (source[i] == '.') {
 1443              		.loc 1 160 7 is_stmt 1 view .LVU379
 160:User/Src/command.c **** 				} else if (source[i] == '.') {
 1444              		.loc 1 160 17 is_stmt 0 view .LVU380
 1445 0034 3249     		ldr	r1, .L108+8
 1446 0036 2846     		mov	r0, r5
 1447 0038 FFF7FEFF 		bl	__aeabi_fmul
 1448              	.LVL133:
 1449 003c 0546     		mov	r5, r0
 1450              	.LVL134:
 160:User/Src/command.c **** 				} else if (source[i] == '.') {
 1451              		.loc 1 160 22 view .LVU381
 1452 003e 3046     		mov	r0, r6
 1453 0040 FFF7FEFF 		bl	__aeabi_i2f
 1454              	.LVL135:
 1455 0044 2946     		mov	r1, r5
 1456 0046 FFF7FEFF 		bl	__aeabi_fadd
 1457              	.LVL136:
 160:User/Src/command.c **** 				} else if (source[i] == '.') {
 1458              		.loc 1 160 11 view .LVU382
 1459 004a 2E49     		ldr	r1, .L108+12
 1460 004c FFF7FEFF 		bl	__aeabi_fsub
 1461              	.LVL137:
 1462 0050 0546     		mov	r5, r0
 1463              	.LVL138:
ARM GAS  C:\Users\84759\AppData\Local\Temp\cciPJLHt.s 			page 38


 158:User/Src/command.c **** 				if (source[i] >= '0' && source[i] <= '9') {
 1464              		.loc 1 158 31 is_stmt 1 view .LVU383
 158:User/Src/command.c **** 				if (source[i] >= '0' && source[i] <= '9') {
 1465              		.loc 1 158 32 is_stmt 0 view .LVU384
 1466 0052 0134     		adds	r4, r4, #1
 1467              	.LVL139:
 158:User/Src/command.c **** 				if (source[i] >= '0' && source[i] <= '9') {
 1468              		.loc 1 158 32 view .LVU385
 1469 0054 E4B2     		uxtb	r4, r4
 1470              	.LVL140:
 158:User/Src/command.c **** 				if (source[i] >= '0' && source[i] <= '9') {
 1471              		.loc 1 158 32 view .LVU386
 1472 0056 E4E7     		b	.L93
 1473              	.LVL141:
 1474              	.L104:
 150:User/Src/command.c **** 				return 0;
 1475              		.loc 1 150 5 is_stmt 1 view .LVU387
 150:User/Src/command.c **** 				return 0;
 1476              		.loc 1 150 13 is_stmt 0 view .LVU388
 1477 0058 0023     		movs	r3, #0
 1478 005a C9F80030 		str	r3, [r9]	@ float
 151:User/Src/command.c **** 		}
 1479              		.loc 1 151 5 is_stmt 1 view .LVU389
 151:User/Src/command.c **** 		}
 1480              		.loc 1 151 12 is_stmt 0 view .LVU390
 1481 005e 0020     		movs	r0, #0
 1482 0060 46E0     		b	.L91
 1483              	.L105:
 155:User/Src/command.c **** 				start++;
 1484              		.loc 1 155 5 is_stmt 1 view .LVU391
 1485              	.LVL142:
 156:User/Src/command.c **** 		}
 1486              		.loc 1 156 5 view .LVU392
 156:User/Src/command.c **** 		}
 1487              		.loc 1 156 10 is_stmt 0 view .LVU393
 1488 0062 0134     		adds	r4, r4, #1
 1489 0064 E4B2     		uxtb	r4, r4
 1490              	.LVL143:
 155:User/Src/command.c **** 				start++;
 1491              		.loc 1 155 11 view .LVU394
 1492 0066 4FF0FF3A 		mov	r10, #-1
 1493 006a D9E7     		b	.L92
 1494              	.LVL144:
 1495              	.L94:
 161:User/Src/command.c **** 						i++;
 1496              		.loc 1 161 12 is_stmt 1 view .LVU395
 161:User/Src/command.c **** 						i++;
 1497              		.loc 1 161 15 is_stmt 0 view .LVU396
 1498 006c 2E2E     		cmp	r6, #46
 1499 006e 08D0     		beq	.L106
 164:User/Src/command.c **** 						break;
 1500              		.loc 1 164 12 is_stmt 1 view .LVU397
 164:User/Src/command.c **** 						break;
 1501              		.loc 1 164 15 is_stmt 0 view .LVU398
 1502 0070 202E     		cmp	r6, #32
 1503 0072 08D0     		beq	.L97
 164:User/Src/command.c **** 						break;
ARM GAS  C:\Users\84759\AppData\Local\Temp\cciPJLHt.s 			page 39


 1504              		.loc 1 164 33 discriminator 1 view .LVU399
 1505 0074 2C2E     		cmp	r6, #44
 1506 0076 06D0     		beq	.L97
 167:User/Src/command.c **** 						return 0;
 1507              		.loc 1 167 7 is_stmt 1 view .LVU400
 167:User/Src/command.c **** 						return 0;
 1508              		.loc 1 167 15 is_stmt 0 view .LVU401
 1509 0078 0023     		movs	r3, #0
 1510 007a C9F80030 		str	r3, [r9]	@ float
 168:User/Src/command.c **** 				}					
 1511              		.loc 1 168 7 is_stmt 1 view .LVU402
 168:User/Src/command.c **** 				}					
 1512              		.loc 1 168 14 is_stmt 0 view .LVU403
 1513 007e 0020     		movs	r0, #0
 1514 0080 36E0     		b	.L91
 1515              	.L106:
 162:User/Src/command.c **** 						break;
 1516              		.loc 1 162 7 is_stmt 1 view .LVU404
 162:User/Src/command.c **** 						break;
 1517              		.loc 1 162 8 is_stmt 0 view .LVU405
 1518 0082 0134     		adds	r4, r4, #1
 1519              	.LVL145:
 162:User/Src/command.c **** 						break;
 1520              		.loc 1 162 8 view .LVU406
 1521 0084 E4B2     		uxtb	r4, r4
 1522              	.LVL146:
 163:User/Src/command.c **** 				} else if (source[i] == ' ' || source[i] == ',') {
 1523              		.loc 1 163 7 is_stmt 1 view .LVU407
 1524              	.L97:
 145:User/Src/command.c **** 		int state = 1;
 1525              		.loc 1 145 9 is_stmt 0 discriminator 1 view .LVU408
 1526 0086 204E     		ldr	r6, .L108+16
 1527 0088 17E0     		b	.L96
 1528              	.LVL147:
 1529              	.L107:
 173:User/Src/command.c **** 						smallNumber = smallNumber * 0.1;
 1530              		.loc 1 173 7 is_stmt 1 view .LVU409
 173:User/Src/command.c **** 						smallNumber = smallNumber * 0.1;
 1531              		.loc 1 173 26 is_stmt 0 view .LVU410
 1532 008a 3038     		subs	r0, r0, #48
 1533 008c FFF7FEFF 		bl	__aeabi_i2f
 1534              	.LVL148:
 1535 0090 3146     		mov	r1, r6
 1536 0092 FFF7FEFF 		bl	__aeabi_fmul
 1537              	.LVL149:
 1538 0096 0146     		mov	r1, r0
 173:User/Src/command.c **** 						smallNumber = smallNumber * 0.1;
 1539              		.loc 1 173 11 view .LVU411
 1540 0098 2846     		mov	r0, r5
 1541 009a FFF7FEFF 		bl	__aeabi_fadd
 1542              	.LVL150:
 1543 009e 0546     		mov	r5, r0
 1544              	.LVL151:
 174:User/Src/command.c **** 				} else if (source[i] == ' ' || source[i] == ',') {
 1545              		.loc 1 174 7 is_stmt 1 view .LVU412
 174:User/Src/command.c **** 				} else if (source[i] == ' ' || source[i] == ',') {
 1546              		.loc 1 174 33 is_stmt 0 view .LVU413
ARM GAS  C:\Users\84759\AppData\Local\Temp\cciPJLHt.s 			page 40


 1547 00a0 3046     		mov	r0, r6
 1548              	.LVL152:
 174:User/Src/command.c **** 				} else if (source[i] == ' ' || source[i] == ',') {
 1549              		.loc 1 174 33 view .LVU414
 1550 00a2 FFF7FEFF 		bl	__aeabi_f2d
 1551              	.LVL153:
 1552 00a6 14A3     		adr	r3, .L108
 1553 00a8 D3E90023 		ldrd	r2, [r3]
 1554 00ac FFF7FEFF 		bl	__aeabi_dmul
 1555              	.LVL154:
 174:User/Src/command.c **** 				} else if (source[i] == ' ' || source[i] == ',') {
 1556              		.loc 1 174 19 view .LVU415
 1557 00b0 FFF7FEFF 		bl	__aeabi_d2f
 1558              	.LVL155:
 1559 00b4 0646     		mov	r6, r0
 1560              	.LVL156:
 171:User/Src/command.c **** 				if (source[i] >= '0' && source[i] <= '9') {
 1561              		.loc 1 171 22 is_stmt 1 view .LVU416
 171:User/Src/command.c **** 				if (source[i] >= '0' && source[i] <= '9') {
 1562              		.loc 1 171 23 is_stmt 0 view .LVU417
 1563 00b6 0134     		adds	r4, r4, #1
 1564              	.LVL157:
 171:User/Src/command.c **** 				if (source[i] >= '0' && source[i] <= '9') {
 1565              		.loc 1 171 23 view .LVU418
 1566 00b8 E4B2     		uxtb	r4, r4
 1567              	.LVL158:
 1568              	.L96:
 171:User/Src/command.c **** 				if (source[i] >= '0' && source[i] <= '9') {
 1569              		.loc 1 171 10 is_stmt 1 discriminator 1 view .LVU419
 171:User/Src/command.c **** 				if (source[i] >= '0' && source[i] <= '9') {
 1570              		.loc 1 171 3 is_stmt 0 discriminator 1 view .LVU420
 1571 00ba BC42     		cmp	r4, r7
 1572 00bc 0FD2     		bcs	.L100
 172:User/Src/command.c **** 						sum += smallNumber * (source[i] - '0');
 1573              		.loc 1 172 5 is_stmt 1 view .LVU421
 172:User/Src/command.c **** 						sum += smallNumber * (source[i] - '0');
 1574              		.loc 1 172 15 is_stmt 0 view .LVU422
 1575 00be 18F80400 		ldrb	r0, [r8, r4]	@ zero_extendqisi2
 172:User/Src/command.c **** 						sum += smallNumber * (source[i] - '0');
 1576              		.loc 1 172 26 view .LVU423
 1577 00c2 A0F13003 		sub	r3, r0, #48
 1578 00c6 DBB2     		uxtb	r3, r3
 172:User/Src/command.c **** 						sum += smallNumber * (source[i] - '0');
 1579              		.loc 1 172 8 view .LVU424
 1580 00c8 092B     		cmp	r3, #9
 1581 00ca DED9     		bls	.L107
 175:User/Src/command.c **** 						break;
 1582              		.loc 1 175 12 is_stmt 1 view .LVU425
 175:User/Src/command.c **** 						break;
 1583              		.loc 1 175 15 is_stmt 0 view .LVU426
 1584 00cc 2028     		cmp	r0, #32
 1585 00ce 06D0     		beq	.L100
 175:User/Src/command.c **** 						break;
 1586              		.loc 1 175 33 discriminator 1 view .LVU427
 1587 00d0 2C28     		cmp	r0, #44
 1588 00d2 04D0     		beq	.L100
 178:User/Src/command.c **** 						return 0;
ARM GAS  C:\Users\84759\AppData\Local\Temp\cciPJLHt.s 			page 41


 1589              		.loc 1 178 7 is_stmt 1 view .LVU428
 178:User/Src/command.c **** 						return 0;
 1590              		.loc 1 178 15 is_stmt 0 view .LVU429
 1591 00d4 0023     		movs	r3, #0
 1592 00d6 C9F80030 		str	r3, [r9]	@ float
 179:User/Src/command.c **** 				}	
 1593              		.loc 1 179 7 is_stmt 1 view .LVU430
 179:User/Src/command.c **** 				}	
 1594              		.loc 1 179 14 is_stmt 0 view .LVU431
 1595 00da 0020     		movs	r0, #0
 1596 00dc 08E0     		b	.L91
 1597              	.L100:
 182:User/Src/command.c **** 		return 1;
 1598              		.loc 1 182 3 is_stmt 1 view .LVU432
 182:User/Src/command.c **** 		return 1;
 1599              		.loc 1 182 19 is_stmt 0 view .LVU433
 1600 00de 5046     		mov	r0, r10
 1601 00e0 FFF7FEFF 		bl	__aeabi_i2f
 1602              	.LVL159:
 1603 00e4 2946     		mov	r1, r5
 1604 00e6 FFF7FEFF 		bl	__aeabi_fmul
 1605              	.LVL160:
 182:User/Src/command.c **** 		return 1;
 1606              		.loc 1 182 11 view .LVU434
 1607 00ea C9F80000 		str	r0, [r9]	@ float
 183:User/Src/command.c **** }
 1608              		.loc 1 183 3 is_stmt 1 view .LVU435
 183:User/Src/command.c **** }
 1609              		.loc 1 183 10 is_stmt 0 view .LVU436
 1610 00ee 0120     		movs	r0, #1
 1611              	.LVL161:
 1612              	.L91:
 184:User/Src/command.c **** 
 1613              		.loc 1 184 1 view .LVU437
 1614 00f0 BDE8F087 		pop	{r4, r5, r6, r7, r8, r9, r10, pc}
 1615              	.LVL162:
 1616              	.L109:
 184:User/Src/command.c **** 
 1617              		.loc 1 184 1 view .LVU438
 1618 00f4 AFF30080 		.align	3
 1619              	.L108:
 1620 00f8 9A999999 		.word	-1717986918
 1621 00fc 9999B93F 		.word	1069128089
 1622 0100 00002041 		.word	1092616192
 1623 0104 00004042 		.word	1111490560
 1624 0108 CDCCCC3D 		.word	1036831949
 1625              		.cfi_endproc
 1626              	.LFE72:
 1628              		.section	.text.CopyPointString,"ax",%progbits
 1629              		.align	1
 1630              		.global	CopyPointString
 1631              		.syntax unified
 1632              		.thumb
 1633              		.thumb_func
 1635              	CopyPointString:
 1636              	.LVL163:
 1637              	.LFB73:
ARM GAS  C:\Users\84759\AppData\Local\Temp\cciPJLHt.s 			page 42


 186:User/Src/command.c ****     int srcLength = strlen(src);
 1638              		.loc 1 186 67 is_stmt 1 view -0
 1639              		.cfi_startproc
 1640              		@ args = 0, pretend = 0, frame = 0
 1641              		@ frame_needed = 0, uses_anonymous_args = 0
 186:User/Src/command.c ****     int srcLength = strlen(src);
 1642              		.loc 1 186 67 is_stmt 0 view .LVU440
 1643 0000 F8B5     		push	{r3, r4, r5, r6, r7, lr}
 1644              	.LCFI25:
 1645              		.cfi_def_cfa_offset 24
 1646              		.cfi_offset 3, -24
 1647              		.cfi_offset 4, -20
 1648              		.cfi_offset 5, -16
 1649              		.cfi_offset 6, -12
 1650              		.cfi_offset 7, -8
 1651              		.cfi_offset 14, -4
 1652 0002 0646     		mov	r6, r0
 1653 0004 0D46     		mov	r5, r1
 1654 0006 1446     		mov	r4, r2
 1655 0008 1F46     		mov	r7, r3
 187:User/Src/command.c ****     if (start >= srcLength)
 1656              		.loc 1 187 5 is_stmt 1 view .LVU441
 187:User/Src/command.c ****     if (start >= srcLength)
 1657              		.loc 1 187 21 is_stmt 0 view .LVU442
 1658 000a 0846     		mov	r0, r1
 1659              	.LVL164:
 187:User/Src/command.c ****     if (start >= srcLength)
 1660              		.loc 1 187 21 view .LVU443
 1661 000c FFF7FEFF 		bl	strlen
 1662              	.LVL165:
 188:User/Src/command.c ****         {return -1;}
 1663              		.loc 1 188 5 is_stmt 1 view .LVU444
 188:User/Src/command.c ****         {return -1;}
 1664              		.loc 1 188 8 is_stmt 0 view .LVU445
 1665 0010 A042     		cmp	r0, r4
 1666 0012 13DD     		ble	.L115
 192:User/Src/command.c ****         dest[i] = src[start + i];
 1667              		.loc 1 192 12 view .LVU446
 1668 0014 4FF0000C 		mov	ip, #0
 1669              	.L112:
 1670              	.LVL166:
 192:User/Src/command.c ****         dest[i] = src[start + i];
 1671              		.loc 1 192 17 is_stmt 1 discriminator 1 view .LVU447
 192:User/Src/command.c ****         dest[i] = src[start + i];
 1672              		.loc 1 192 5 is_stmt 0 discriminator 1 view .LVU448
 1673 0018 BC45     		cmp	ip, r7
 1674 001a 0ADA     		bge	.L113
 192:User/Src/command.c ****         dest[i] = src[start + i];
 1675              		.loc 1 192 38 discriminator 3 view .LVU449
 1676 001c 0CEB040E 		add	lr, ip, r4
 192:User/Src/command.c ****         dest[i] = src[start + i];
 1677              		.loc 1 192 28 discriminator 3 view .LVU450
 1678 0020 8645     		cmp	lr, r0
 1679 0022 06DA     		bge	.L113
 193:User/Src/command.c ****     }
 1680              		.loc 1 193 9 is_stmt 1 discriminator 4 view .LVU451
 193:User/Src/command.c ****     }
ARM GAS  C:\Users\84759\AppData\Local\Temp\cciPJLHt.s 			page 43


 1681              		.loc 1 193 22 is_stmt 0 discriminator 4 view .LVU452
 1682 0024 15F80EE0 		ldrb	lr, [r5, lr]	@ zero_extendqisi2
 193:User/Src/command.c ****     }
 1683              		.loc 1 193 17 discriminator 4 view .LVU453
 1684 0028 06F80CE0 		strb	lr, [r6, ip]
 192:User/Src/command.c ****         dest[i] = src[start + i];
 1685              		.loc 1 192 56 is_stmt 1 discriminator 4 view .LVU454
 192:User/Src/command.c ****         dest[i] = src[start + i];
 1686              		.loc 1 192 57 is_stmt 0 discriminator 4 view .LVU455
 1687 002c 0CF1010C 		add	ip, ip, #1
 1688              	.LVL167:
 192:User/Src/command.c ****         dest[i] = src[start + i];
 1689              		.loc 1 192 57 discriminator 4 view .LVU456
 1690 0030 F2E7     		b	.L112
 1691              	.L113:
 195:User/Src/command.c **** 	return 1;
 1692              		.loc 1 195 5 is_stmt 1 view .LVU457
 195:User/Src/command.c **** 	return 1;
 1693              		.loc 1 195 13 is_stmt 0 view .LVU458
 1694 0032 0023     		movs	r3, #0
 1695 0034 06F80C30 		strb	r3, [r6, ip]
 196:User/Src/command.c **** }
 1696              		.loc 1 196 2 is_stmt 1 view .LVU459
 196:User/Src/command.c **** }
 1697              		.loc 1 196 9 is_stmt 0 view .LVU460
 1698 0038 0120     		movs	r0, #1
 1699              	.LVL168:
 1700              	.L110:
 197:User/Src/command.c **** 
 1701              		.loc 1 197 1 view .LVU461
 1702 003a F8BD     		pop	{r3, r4, r5, r6, r7, pc}
 1703              	.LVL169:
 1704              	.L115:
 189:User/Src/command.c **** 	
 1705              		.loc 1 189 17 view .LVU462
 1706 003c 4FF0FF30 		mov	r0, #-1
 1707              	.LVL170:
 189:User/Src/command.c **** 	
 1708              		.loc 1 189 17 view .LVU463
 1709 0040 FBE7     		b	.L110
 1710              		.cfi_endproc
 1711              	.LFE73:
 1713              		.section	.text.AT_WIFICMD_Handle,"ax",%progbits
 1714              		.align	1
 1715              		.global	AT_WIFICMD_Handle
 1716              		.syntax unified
 1717              		.thumb
 1718              		.thumb_func
 1720              	AT_WIFICMD_Handle:
 1721              	.LVL171:
 1722              	.LFB79:
 324:User/Src/command.c **** 
 325:User/Src/command.c **** void  AT_WIFICMD_Handle(char* command)
 326:User/Src/command.c **** {
 1723              		.loc 1 326 1 is_stmt 1 view -0
 1724              		.cfi_startproc
 1725              		@ args = 0, pretend = 0, frame = 64
ARM GAS  C:\Users\84759\AppData\Local\Temp\cciPJLHt.s 			page 44


 1726              		@ frame_needed = 0, uses_anonymous_args = 0
 1727              		.loc 1 326 1 is_stmt 0 view .LVU465
 1728 0000 10B5     		push	{r4, lr}
 1729              	.LCFI26:
 1730              		.cfi_def_cfa_offset 8
 1731              		.cfi_offset 4, -8
 1732              		.cfi_offset 14, -4
 1733 0002 90B0     		sub	sp, sp, #64
 1734              	.LCFI27:
 1735              		.cfi_def_cfa_offset 72
 1736 0004 0446     		mov	r4, r0
 327:User/Src/command.c **** 	// int num = 0,reg = 0;
 328:User/Src/command.c **** 	// num = strSearch(command, "=");
 329:User/Src/command.c **** 	// if (num != -1) {
 330:User/Src/command.c **** 	// 	num += strlen("=");
 331:User/Src/command.c **** 	// }
 332:User/Src/command.c **** 	char WifiBuf[64]={0};
 1737              		.loc 1 332 2 is_stmt 1 view .LVU466
 1738              		.loc 1 332 7 is_stmt 0 view .LVU467
 1739 0006 0021     		movs	r1, #0
 1740 0008 0091     		str	r1, [sp]
 1741 000a 3C22     		movs	r2, #60
 1742 000c 01A8     		add	r0, sp, #4
 1743              	.LVL172:
 1744              		.loc 1 332 7 view .LVU468
 1745 000e FFF7FEFF 		bl	memset
 1746              	.LVL173:
 333:User/Src/command.c **** 	//int flag = 0;
 334:User/Src/command.c **** 	//flag=CopyPointString(WifiBuf,command,11,(strlen(command)-11));
 335:User/Src/command.c **** 	//UsbPrintf("wificmd=%s\n",WifiBuf);
 336:User/Src/command.c **** 	//UsbPrintf("flag=%d\n",flag);
 337:User/Src/command.c **** 
 338:User/Src/command.c **** 	CopyPointString(WifiBuf,command,11,(strlen(command)-11));
 1747              		.loc 1 338 2 is_stmt 1 view .LVU469
 1748              		.loc 1 338 38 is_stmt 0 view .LVU470
 1749 0012 2046     		mov	r0, r4
 1750 0014 FFF7FEFF 		bl	strlen
 1751              	.LVL174:
 1752              		.loc 1 338 2 view .LVU471
 1753 0018 A0F10B03 		sub	r3, r0, #11
 1754 001c 0B22     		movs	r2, #11
 1755 001e 2146     		mov	r1, r4
 1756 0020 6846     		mov	r0, sp
 1757 0022 FFF7FEFF 		bl	CopyPointString
 1758              	.LVL175:
 339:User/Src/command.c **** 	wifi_send_to(WifiBuf);
 1759              		.loc 1 339 2 is_stmt 1 view .LVU472
 1760 0026 6846     		mov	r0, sp
 1761 0028 FFF7FEFF 		bl	wifi_send_to
 1762              	.LVL176:
 340:User/Src/command.c **** 	
 341:User/Src/command.c **** 
 342:User/Src/command.c **** 
 343:User/Src/command.c **** }
 1763              		.loc 1 343 1 is_stmt 0 view .LVU473
 1764 002c 10B0     		add	sp, sp, #64
 1765              	.LCFI28:
ARM GAS  C:\Users\84759\AppData\Local\Temp\cciPJLHt.s 			page 45


 1766              		.cfi_def_cfa_offset 8
 1767              		@ sp needed
 1768 002e 10BD     		pop	{r4, pc}
 1769              		.loc 1 343 1 view .LVU474
 1770              		.cfi_endproc
 1771              	.LFE79:
 1773              		.section	.rodata.HAL_UART_RxCpltCallback.str1.4,"aMS",%progbits,1
 1774              		.align	2
 1775              	.LC18:
 1776 0000 57494649 		.ascii	"WIFI BUF ERROR !\000"
 1776      20425546 
 1776      20455252 
 1776      4F522021 
 1776      00
 1777              		.section	.text.HAL_UART_RxCpltCallback,"ax",%progbits
 1778              		.align	1
 1779              		.global	HAL_UART_RxCpltCallback
 1780              		.syntax unified
 1781              		.thumb
 1782              		.thumb_func
 1784              	HAL_UART_RxCpltCallback:
 1785              	.LVL177:
 1786              	.LFB80:
 344:User/Src/command.c **** 
 345:User/Src/command.c **** 
 346:User/Src/command.c **** 
 347:User/Src/command.c **** 
 348:User/Src/command.c **** 
 349:User/Src/command.c **** typedef void(*function)(char* s);
 350:User/Src/command.c **** function UsbCommand[MAX_COMMAND_NUMBER] = {
 351:User/Src/command.c ****     AT_HELP_Handle,
 352:User/Src/command.c **** 	AT_TEST_Handle,
 353:User/Src/command.c ****     AT_READDATA_Handle,
 354:User/Src/command.c ****     AT_IICINT_Handle,
 355:User/Src/command.c **** 	AT_SETTIME_Handle,
 356:User/Src/command.c **** 	AT_WIFICMD_Handle,
 357:User/Src/command.c **** };
 358:User/Src/command.c **** 
 359:User/Src/command.c **** 
 360:User/Src/command.c **** 
 361:User/Src/command.c **** 
 362:User/Src/command.c **** void HAL_UART_RxCpltCallback(UART_HandleTypeDef *huart)
 363:User/Src/command.c **** {
 1787              		.loc 1 363 1 is_stmt 1 view -0
 1788              		.cfi_startproc
 1789              		@ args = 0, pretend = 0, frame = 0
 1790              		@ frame_needed = 0, uses_anonymous_args = 0
 1791              		.loc 1 363 1 is_stmt 0 view .LVU476
 1792 0000 10B5     		push	{r4, lr}
 1793              	.LCFI29:
 1794              		.cfi_def_cfa_offset 8
 1795              		.cfi_offset 4, -8
 1796              		.cfi_offset 14, -4
 1797 0002 0446     		mov	r4, r0
 364:User/Src/command.c ****     if (huart->Instance == USART1) {
 1798              		.loc 1 364 5 is_stmt 1 view .LVU477
 1799              		.loc 1 364 14 is_stmt 0 view .LVU478
ARM GAS  C:\Users\84759\AppData\Local\Temp\cciPJLHt.s 			page 46


 1800 0004 0268     		ldr	r2, [r0]
 1801              		.loc 1 364 8 view .LVU479
 1802 0006 3D4B     		ldr	r3, .L138
 1803 0008 9A42     		cmp	r2, r3
 1804 000a 08D0     		beq	.L134
 1805              	.LVL178:
 1806              	.L120:
 365:User/Src/command.c ****         if (usb_Rx_Cnt < UART_RECEIVE_BUFF_NUMBER && g_UsbATStatus == 0) {
 366:User/Src/command.c ****             g_UsbRxBuff[usb_Rx_Cnt] = usbRxBuf;
 367:User/Src/command.c ****         	usb_Rx_Cnt++;
 368:User/Src/command.c ****         }
 369:User/Src/command.c ****         if (usb_Rx_Cnt >= UART_RECEIVE_BUFF_NUMBER || usbRxBuf == ' ') {
 370:User/Src/command.c **** 			g_UsbATStatus = 1;
 371:User/Src/command.c ****         } 
 372:User/Src/command.c ****         HAL_UART_Receive_IT(&huart1, &usbRxBuf, 1);
 373:User/Src/command.c ****     }
 374:User/Src/command.c **** 
 375:User/Src/command.c **** 	if (huart->Instance == USART2) {
 1807              		.loc 1 375 2 is_stmt 1 view .LVU480
 1808              		.loc 1 375 11 is_stmt 0 view .LVU481
 1809 000c 2268     		ldr	r2, [r4]
 1810              		.loc 1 375 5 view .LVU482
 1811 000e 3C4B     		ldr	r3, .L138+4
 1812 0010 9A42     		cmp	r2, r3
 1813 0012 23D0     		beq	.L135
 1814              	.L124:
 376:User/Src/command.c **** 		if (device_Rx_Cnt == 0 && (deviceRxBuf == ' ' || deviceRxBuf == '\r' || deviceRxBuf == '\n')) {
 377:User/Src/command.c **** 			HAL_UART_Receive_IT(&huart2, &deviceRxBuf, 1);
 378:User/Src/command.c **** 			return;
 379:User/Src/command.c **** 		}
 380:User/Src/command.c **** 		if (device_Rx_Cnt < UART_RECEIVE_BUFF_NUMBER && g_DeviceATStatus == 0) {
 381:User/Src/command.c **** 			g_DeviceRxBuff[device_Rx_Cnt] = deviceRxBuf;
 382:User/Src/command.c **** 			device_Rx_Cnt++;
 383:User/Src/command.c **** 		}
 384:User/Src/command.c **** 		if (device_Rx_Cnt >= UART_RECEIVE_BUFF_NUMBER ||  deviceRxBuf == '\0') {
 385:User/Src/command.c **** 			g_DeviceATStatus = 1;
 386:User/Src/command.c **** 		}    
 387:User/Src/command.c **** 		HAL_UART_Receive_IT(&huart2, &deviceRxBuf, 1);
 388:User/Src/command.c **** 	}
 389:User/Src/command.c **** 
 390:User/Src/command.c **** 	if(huart->Instance==USART3){
 1815              		.loc 1 390 2 is_stmt 1 view .LVU483
 1816              		.loc 1 390 10 is_stmt 0 view .LVU484
 1817 0014 2268     		ldr	r2, [r4]
 1818              		.loc 1 390 4 view .LVU485
 1819 0016 3B4B     		ldr	r3, .L138+8
 1820 0018 9A42     		cmp	r2, r3
 1821 001a 4CD0     		beq	.L136
 1822              	.L119:
 391:User/Src/command.c ****         if(Uart3_Rx_Cnt >= (RXBUFFERSIZE-1)){  //溢出判断
 392:User/Src/command.c ****             Uart3_Rx_Cnt = 0;
 393:User/Src/command.c ****             memset(RxBuffer3,0x00,sizeof(RxBuffer3));
 394:User/Src/command.c ****             HAL_UART_Transmit(&huart1, (uint8_t *)"WIFI BUF ERROR !", 100,0xFFFF);     
 395:User/Src/command.c ****         }else{
 396:User/Src/command.c ****             RxBuffer3[Uart3_Rx_Cnt++] = wifiRxBuf;   //接收数据转存
 397:User/Src/command.c ****             
 398:User/Src/command.c **** 			/*
ARM GAS  C:\Users\84759\AppData\Local\Temp\cciPJLHt.s 			page 47


 399:User/Src/command.c ****             if(((RxBuffer3[Uart3_Rx_Cnt-1] == 0x0A)&&(RxBuffer3[Uart3_Rx_Cnt-2] == 0x0D))){ //判断
 400:User/Src/command.c ****                 HAL_UART_Transmit(&huart1, (uint8_t *)&RxBuffer3, Uart3_Rx_Cnt,0xFFFF); //将收到的
 401:User/Src/command.c ****                 //while(HAL_UART_GetState(&huart1) == HAL_UART_STATE_BUSY_TX);//检测UART发送结束
 402:User/Src/command.c ****                 Uart3_Rx_Cnt = 0;
 403:User/Src/command.c ****                 memset(RxBuffer3,0x00,sizeof(RxBuffer3)); //清空数组
 404:User/Src/command.c ****             }
 405:User/Src/command.c ****             */
 406:User/Src/command.c ****         }
 407:User/Src/command.c **** 		
 408:User/Src/command.c ****         HAL_UART_Receive_IT(&huart3, (uint8_t *)&wifiRxBuf, 1);   //再开启接收中断
 409:User/Src/command.c ****     }
 410:User/Src/command.c **** 
 411:User/Src/command.c **** }
 1823              		.loc 1 411 1 view .LVU486
 1824 001c 10BD     		pop	{r4, pc}
 1825              	.LVL179:
 1826              	.L134:
 365:User/Src/command.c ****             g_UsbRxBuff[usb_Rx_Cnt] = usbRxBuf;
 1827              		.loc 1 365 9 is_stmt 1 view .LVU487
 365:User/Src/command.c ****             g_UsbRxBuff[usb_Rx_Cnt] = usbRxBuf;
 1828              		.loc 1 365 24 is_stmt 0 view .LVU488
 1829 001e 3A4B     		ldr	r3, .L138+12
 1830 0020 1B88     		ldrh	r3, [r3]
 365:User/Src/command.c ****             g_UsbRxBuff[usb_Rx_Cnt] = usbRxBuf;
 1831              		.loc 1 365 12 view .LVU489
 1832 0022 C72B     		cmp	r3, #199
 1833 0024 09D8     		bhi	.L121
 365:User/Src/command.c ****             g_UsbRxBuff[usb_Rx_Cnt] = usbRxBuf;
 1834              		.loc 1 365 68 discriminator 1 view .LVU490
 1835 0026 394A     		ldr	r2, .L138+16
 1836 0028 1278     		ldrb	r2, [r2]	@ zero_extendqisi2
 365:User/Src/command.c ****             g_UsbRxBuff[usb_Rx_Cnt] = usbRxBuf;
 1837              		.loc 1 365 51 discriminator 1 view .LVU491
 1838 002a 32B9     		cbnz	r2, .L121
 366:User/Src/command.c ****         	usb_Rx_Cnt++;
 1839              		.loc 1 366 13 is_stmt 1 view .LVU492
 366:User/Src/command.c ****         	usb_Rx_Cnt++;
 1840              		.loc 1 366 37 is_stmt 0 view .LVU493
 1841 002c 384A     		ldr	r2, .L138+20
 1842 002e 1178     		ldrb	r1, [r2]	@ zero_extendqisi2
 1843 0030 384A     		ldr	r2, .L138+24
 1844 0032 D154     		strb	r1, [r2, r3]
 367:User/Src/command.c ****         }
 1845              		.loc 1 367 10 is_stmt 1 view .LVU494
 367:User/Src/command.c ****         }
 1846              		.loc 1 367 20 is_stmt 0 view .LVU495
 1847 0034 0133     		adds	r3, r3, #1
 1848 0036 344A     		ldr	r2, .L138+12
 1849 0038 1380     		strh	r3, [r2]	@ movhi
 1850              	.L121:
 369:User/Src/command.c **** 			g_UsbATStatus = 1;
 1851              		.loc 1 369 9 is_stmt 1 view .LVU496
 369:User/Src/command.c **** 			g_UsbATStatus = 1;
 1852              		.loc 1 369 24 is_stmt 0 view .LVU497
 1853 003a 334B     		ldr	r3, .L138+12
 1854 003c 1B88     		ldrh	r3, [r3]
 369:User/Src/command.c **** 			g_UsbATStatus = 1;
ARM GAS  C:\Users\84759\AppData\Local\Temp\cciPJLHt.s 			page 48


 1855              		.loc 1 369 12 view .LVU498
 1856 003e C72B     		cmp	r3, #199
 1857 0040 03D8     		bhi	.L122
 369:User/Src/command.c **** 			g_UsbATStatus = 1;
 1858              		.loc 1 369 64 discriminator 1 view .LVU499
 1859 0042 334B     		ldr	r3, .L138+20
 1860 0044 1B78     		ldrb	r3, [r3]	@ zero_extendqisi2
 369:User/Src/command.c **** 			g_UsbATStatus = 1;
 1861              		.loc 1 369 52 discriminator 1 view .LVU500
 1862 0046 202B     		cmp	r3, #32
 1863 0048 02D1     		bne	.L123
 1864              	.L122:
 370:User/Src/command.c ****         } 
 1865              		.loc 1 370 4 is_stmt 1 view .LVU501
 370:User/Src/command.c ****         } 
 1866              		.loc 1 370 18 is_stmt 0 view .LVU502
 1867 004a 304B     		ldr	r3, .L138+16
 1868 004c 0122     		movs	r2, #1
 1869 004e 1A70     		strb	r2, [r3]
 1870              	.L123:
 372:User/Src/command.c ****     }
 1871              		.loc 1 372 9 is_stmt 1 view .LVU503
 1872 0050 0122     		movs	r2, #1
 1873 0052 2F49     		ldr	r1, .L138+20
 1874 0054 3048     		ldr	r0, .L138+28
 1875              	.LVL180:
 372:User/Src/command.c ****     }
 1876              		.loc 1 372 9 is_stmt 0 view .LVU504
 1877 0056 FFF7FEFF 		bl	HAL_UART_Receive_IT
 1878              	.LVL181:
 1879 005a D7E7     		b	.L120
 1880              	.L135:
 376:User/Src/command.c **** 			HAL_UART_Receive_IT(&huart2, &deviceRxBuf, 1);
 1881              		.loc 1 376 3 is_stmt 1 view .LVU505
 376:User/Src/command.c **** 			HAL_UART_Receive_IT(&huart2, &deviceRxBuf, 1);
 1882              		.loc 1 376 21 is_stmt 0 view .LVU506
 1883 005c 2F4B     		ldr	r3, .L138+32
 1884 005e 1B88     		ldrh	r3, [r3]
 376:User/Src/command.c **** 			HAL_UART_Receive_IT(&huart2, &deviceRxBuf, 1);
 1885              		.loc 1 376 6 view .LVU507
 1886 0060 3BB9     		cbnz	r3, .L125
 376:User/Src/command.c **** 			HAL_UART_Receive_IT(&huart2, &deviceRxBuf, 1);
 1887              		.loc 1 376 42 discriminator 1 view .LVU508
 1888 0062 2F4A     		ldr	r2, .L138+36
 1889 0064 1278     		ldrb	r2, [r2]	@ zero_extendqisi2
 376:User/Src/command.c **** 			HAL_UART_Receive_IT(&huart2, &deviceRxBuf, 1);
 1890              		.loc 1 376 26 discriminator 1 view .LVU509
 1891 0066 202A     		cmp	r2, #32
 1892 0068 1FD0     		beq	.L126
 376:User/Src/command.c **** 			HAL_UART_Receive_IT(&huart2, &deviceRxBuf, 1);
 1893              		.loc 1 376 49 discriminator 2 view .LVU510
 1894 006a 0D2A     		cmp	r2, #13
 1895 006c 1DD0     		beq	.L126
 376:User/Src/command.c **** 			HAL_UART_Receive_IT(&huart2, &deviceRxBuf, 1);
 1896              		.loc 1 376 72 discriminator 3 view .LVU511
 1897 006e 0A2A     		cmp	r2, #10
 1898 0070 1BD0     		beq	.L126
ARM GAS  C:\Users\84759\AppData\Local\Temp\cciPJLHt.s 			page 49


 1899              	.L125:
 380:User/Src/command.c **** 			g_DeviceRxBuff[device_Rx_Cnt] = deviceRxBuf;
 1900              		.loc 1 380 3 is_stmt 1 view .LVU512
 380:User/Src/command.c **** 			g_DeviceRxBuff[device_Rx_Cnt] = deviceRxBuf;
 1901              		.loc 1 380 6 is_stmt 0 view .LVU513
 1902 0072 C72B     		cmp	r3, #199
 1903 0074 09D8     		bhi	.L128
 380:User/Src/command.c **** 			g_DeviceRxBuff[device_Rx_Cnt] = deviceRxBuf;
 1904              		.loc 1 380 68 discriminator 1 view .LVU514
 1905 0076 2B4A     		ldr	r2, .L138+40
 1906 0078 1278     		ldrb	r2, [r2]	@ zero_extendqisi2
 380:User/Src/command.c **** 			g_DeviceRxBuff[device_Rx_Cnt] = deviceRxBuf;
 1907              		.loc 1 380 48 discriminator 1 view .LVU515
 1908 007a 32B9     		cbnz	r2, .L128
 381:User/Src/command.c **** 			device_Rx_Cnt++;
 1909              		.loc 1 381 4 is_stmt 1 view .LVU516
 381:User/Src/command.c **** 			device_Rx_Cnt++;
 1910              		.loc 1 381 34 is_stmt 0 view .LVU517
 1911 007c 284A     		ldr	r2, .L138+36
 1912 007e 1178     		ldrb	r1, [r2]	@ zero_extendqisi2
 1913 0080 294A     		ldr	r2, .L138+44
 1914 0082 D154     		strb	r1, [r2, r3]
 382:User/Src/command.c **** 		}
 1915              		.loc 1 382 4 is_stmt 1 view .LVU518
 382:User/Src/command.c **** 		}
 1916              		.loc 1 382 17 is_stmt 0 view .LVU519
 1917 0084 0133     		adds	r3, r3, #1
 1918 0086 254A     		ldr	r2, .L138+32
 1919 0088 1380     		strh	r3, [r2]	@ movhi
 1920              	.L128:
 384:User/Src/command.c **** 			g_DeviceATStatus = 1;
 1921              		.loc 1 384 3 is_stmt 1 view .LVU520
 384:User/Src/command.c **** 			g_DeviceATStatus = 1;
 1922              		.loc 1 384 21 is_stmt 0 view .LVU521
 1923 008a 244B     		ldr	r3, .L138+32
 1924 008c 1B88     		ldrh	r3, [r3]
 384:User/Src/command.c **** 			g_DeviceATStatus = 1;
 1925              		.loc 1 384 6 view .LVU522
 1926 008e C72B     		cmp	r3, #199
 1927 0090 02D8     		bhi	.L129
 384:User/Src/command.c **** 			g_DeviceATStatus = 1;
 1928              		.loc 1 384 65 discriminator 1 view .LVU523
 1929 0092 234B     		ldr	r3, .L138+36
 1930 0094 1B78     		ldrb	r3, [r3]	@ zero_extendqisi2
 384:User/Src/command.c **** 			g_DeviceATStatus = 1;
 1931              		.loc 1 384 49 discriminator 1 view .LVU524
 1932 0096 13B9     		cbnz	r3, .L130
 1933              	.L129:
 385:User/Src/command.c **** 		}    
 1934              		.loc 1 385 4 is_stmt 1 view .LVU525
 385:User/Src/command.c **** 		}    
 1935              		.loc 1 385 21 is_stmt 0 view .LVU526
 1936 0098 224B     		ldr	r3, .L138+40
 1937 009a 0122     		movs	r2, #1
 1938 009c 1A70     		strb	r2, [r3]
 1939              	.L130:
 387:User/Src/command.c **** 	}
ARM GAS  C:\Users\84759\AppData\Local\Temp\cciPJLHt.s 			page 50


 1940              		.loc 1 387 3 is_stmt 1 view .LVU527
 1941 009e 0122     		movs	r2, #1
 1942 00a0 1F49     		ldr	r1, .L138+36
 1943 00a2 2248     		ldr	r0, .L138+48
 1944 00a4 FFF7FEFF 		bl	HAL_UART_Receive_IT
 1945              	.LVL182:
 1946 00a8 B4E7     		b	.L124
 1947              	.L126:
 377:User/Src/command.c **** 			return;
 1948              		.loc 1 377 4 view .LVU528
 1949 00aa 0122     		movs	r2, #1
 1950 00ac 1C49     		ldr	r1, .L138+36
 1951 00ae 1F48     		ldr	r0, .L138+48
 1952 00b0 FFF7FEFF 		bl	HAL_UART_Receive_IT
 1953              	.LVL183:
 378:User/Src/command.c **** 		}
 1954              		.loc 1 378 4 view .LVU529
 1955 00b4 B2E7     		b	.L119
 1956              	.L136:
 391:User/Src/command.c ****             Uart3_Rx_Cnt = 0;
 1957              		.loc 1 391 9 view .LVU530
 391:User/Src/command.c ****             Uart3_Rx_Cnt = 0;
 1958              		.loc 1 391 25 is_stmt 0 view .LVU531
 1959 00b6 1E4B     		ldr	r3, .L138+52
 1960 00b8 1B68     		ldr	r3, [r3]
 391:User/Src/command.c ****             Uart3_Rx_Cnt = 0;
 1961              		.loc 1 391 11 view .LVU532
 1962 00ba 40F2FE32 		movw	r2, #1022
 1963 00be 9342     		cmp	r3, r2
 1964 00c0 0CD8     		bhi	.L137
 396:User/Src/command.c ****             
 1965              		.loc 1 396 13 is_stmt 1 view .LVU533
 396:User/Src/command.c ****             
 1966              		.loc 1 396 35 is_stmt 0 view .LVU534
 1967 00c2 591C     		adds	r1, r3, #1
 1968 00c4 1A4A     		ldr	r2, .L138+52
 1969 00c6 1160     		str	r1, [r2]
 396:User/Src/command.c ****             
 1970              		.loc 1 396 39 view .LVU535
 1971 00c8 1A4A     		ldr	r2, .L138+56
 1972 00ca 1178     		ldrb	r1, [r2]	@ zero_extendqisi2
 1973 00cc 1A4A     		ldr	r2, .L138+60
 1974 00ce D154     		strb	r1, [r2, r3]
 1975              	.L132:
 408:User/Src/command.c ****     }
 1976              		.loc 1 408 9 is_stmt 1 view .LVU536
 1977 00d0 0122     		movs	r2, #1
 1978 00d2 1849     		ldr	r1, .L138+56
 1979 00d4 1948     		ldr	r0, .L138+64
 1980 00d6 FFF7FEFF 		bl	HAL_UART_Receive_IT
 1981              	.LVL184:
 1982 00da 9FE7     		b	.L119
 1983              	.L137:
 392:User/Src/command.c ****             memset(RxBuffer3,0x00,sizeof(RxBuffer3));
 1984              		.loc 1 392 13 view .LVU537
 392:User/Src/command.c ****             memset(RxBuffer3,0x00,sizeof(RxBuffer3));
 1985              		.loc 1 392 26 is_stmt 0 view .LVU538
ARM GAS  C:\Users\84759\AppData\Local\Temp\cciPJLHt.s 			page 51


 1986 00dc 0021     		movs	r1, #0
 1987 00de 144B     		ldr	r3, .L138+52
 1988 00e0 1960     		str	r1, [r3]
 393:User/Src/command.c ****             HAL_UART_Transmit(&huart1, (uint8_t *)"WIFI BUF ERROR !", 100,0xFFFF);     
 1989              		.loc 1 393 13 is_stmt 1 view .LVU539
 1990 00e2 4FF48062 		mov	r2, #1024
 1991 00e6 1448     		ldr	r0, .L138+60
 1992 00e8 FFF7FEFF 		bl	memset
 1993              	.LVL185:
 394:User/Src/command.c ****         }else{
 1994              		.loc 1 394 13 view .LVU540
 1995 00ec 4FF6FF73 		movw	r3, #65535
 1996 00f0 6422     		movs	r2, #100
 1997 00f2 1349     		ldr	r1, .L138+68
 1998 00f4 0848     		ldr	r0, .L138+28
 1999 00f6 FFF7FEFF 		bl	HAL_UART_Transmit
 2000              	.LVL186:
 2001 00fa E9E7     		b	.L132
 2002              	.L139:
 2003              		.align	2
 2004              	.L138:
 2005 00fc 00380140 		.word	1073821696
 2006 0100 00440040 		.word	1073759232
 2007 0104 00480040 		.word	1073760256
 2008 0108 00000000 		.word	.LANCHOR3
 2009 010c 00000000 		.word	.LANCHOR4
 2010 0110 00000000 		.word	.LANCHOR6
 2011 0114 00000000 		.word	.LANCHOR5
 2012 0118 00000000 		.word	huart1
 2013 011c 00000000 		.word	.LANCHOR7
 2014 0120 00000000 		.word	.LANCHOR8
 2015 0124 00000000 		.word	.LANCHOR9
 2016 0128 00000000 		.word	.LANCHOR10
 2017 012c 00000000 		.word	huart2
 2018 0130 00000000 		.word	.LANCHOR11
 2019 0134 00000000 		.word	.LANCHOR13
 2020 0138 00000000 		.word	.LANCHOR12
 2021 013c 00000000 		.word	huart3
 2022 0140 00000000 		.word	.LC18
 2023              		.cfi_endproc
 2024              	.LFE80:
 2026              		.section	.text.show_wifi_Message,"ax",%progbits
 2027              		.align	1
 2028              		.global	show_wifi_Message
 2029              		.syntax unified
 2030              		.thumb
 2031              		.thumb_func
 2033              	show_wifi_Message:
 2034              	.LFB81:
 412:User/Src/command.c **** 
 413:User/Src/command.c **** void show_wifi_Message(void)
 414:User/Src/command.c **** {
 2035              		.loc 1 414 1 view -0
 2036              		.cfi_startproc
 2037              		@ args = 0, pretend = 0, frame = 0
 2038              		@ frame_needed = 0, uses_anonymous_args = 0
 2039 0000 08B5     		push	{r3, lr}
ARM GAS  C:\Users\84759\AppData\Local\Temp\cciPJLHt.s 			page 52


 2040              	.LCFI30:
 2041              		.cfi_def_cfa_offset 8
 2042              		.cfi_offset 3, -8
 2043              		.cfi_offset 14, -4
 415:User/Src/command.c ****     HAL_UART_Transmit(&huart1, (uint8_t *)&RxBuffer3, Uart3_Rx_Cnt,0xFFFF); //将收到的信息发送出去
 2044              		.loc 1 415 5 view .LVU542
 2045 0002 4FF6FF73 		movw	r3, #65535
 2046 0006 0A4A     		ldr	r2, .L143
 2047 0008 1288     		ldrh	r2, [r2]
 2048 000a 0A49     		ldr	r1, .L143+4
 2049 000c 0A48     		ldr	r0, .L143+8
 2050 000e FFF7FEFF 		bl	HAL_UART_Transmit
 2051              	.LVL187:
 416:User/Src/command.c ****     while(HAL_UART_GetState(&huart1) == HAL_UART_STATE_BUSY_TX);//检测UART发送结束
 2052              		.loc 1 416 5 view .LVU543
 2053              	.L141:
 2054              		.loc 1 416 64 discriminator 1 view .LVU544
 2055              		.loc 1 416 10 discriminator 1 view .LVU545
 2056              		.loc 1 416 11 is_stmt 0 discriminator 1 view .LVU546
 2057 0012 0948     		ldr	r0, .L143+8
 2058 0014 FFF7FEFF 		bl	HAL_UART_GetState
 2059              	.LVL188:
 2060              		.loc 1 416 10 discriminator 1 view .LVU547
 2061 0018 2128     		cmp	r0, #33
 2062 001a FAD0     		beq	.L141
 417:User/Src/command.c ****     Uart3_Rx_Cnt = 0;
 2063              		.loc 1 417 5 is_stmt 1 view .LVU548
 2064              		.loc 1 417 18 is_stmt 0 view .LVU549
 2065 001c 0021     		movs	r1, #0
 2066 001e 044B     		ldr	r3, .L143
 2067 0020 1960     		str	r1, [r3]
 418:User/Src/command.c ****     memset(RxBuffer3,0x00,sizeof(RxBuffer3)); //清空数组
 2068              		.loc 1 418 5 is_stmt 1 view .LVU550
 2069 0022 4FF48062 		mov	r2, #1024
 2070 0026 0348     		ldr	r0, .L143+4
 2071 0028 FFF7FEFF 		bl	memset
 2072              	.LVL189:
 419:User/Src/command.c **** }
 2073              		.loc 1 419 1 is_stmt 0 view .LVU551
 2074 002c 08BD     		pop	{r3, pc}
 2075              	.L144:
 2076 002e 00BF     		.align	2
 2077              	.L143:
 2078 0030 00000000 		.word	.LANCHOR11
 2079 0034 00000000 		.word	.LANCHOR12
 2080 0038 00000000 		.word	huart1
 2081              		.cfi_endproc
 2082              	.LFE81:
 2084              		.section	.rodata.AT_TEST_Handle.str1.4,"aMS",%progbits,1
 2085              		.align	2
 2086              	.LC19:
 2087 0000 41542B43 		.ascii	"AT+CIPSTART=\"TCP\",\"192.168.137.1\",8080\015\012\000"
 2087      49505354 
 2087      4152543D 
 2087      22544350 
 2087      222C2231 
 2088              		.section	.text.AT_TEST_Handle,"ax",%progbits
ARM GAS  C:\Users\84759\AppData\Local\Temp\cciPJLHt.s 			page 53


 2089              		.align	1
 2090              		.global	AT_TEST_Handle
 2091              		.syntax unified
 2092              		.thumb
 2093              		.thumb_func
 2095              	AT_TEST_Handle:
 2096              	.LVL190:
 2097              	.LFB75:
 214:User/Src/command.c **** 	
 2098              		.loc 1 214 1 is_stmt 1 view -0
 2099              		.cfi_startproc
 2100              		@ args = 0, pretend = 0, frame = 48
 2101              		@ frame_needed = 0, uses_anonymous_args = 0
 214:User/Src/command.c **** 	
 2102              		.loc 1 214 1 is_stmt 0 view .LVU553
 2103 0000 10B5     		push	{r4, lr}
 2104              	.LCFI31:
 2105              		.cfi_def_cfa_offset 8
 2106              		.cfi_offset 4, -8
 2107              		.cfi_offset 14, -4
 2108 0002 8CB0     		sub	sp, sp, #48
 2109              	.LCFI32:
 2110              		.cfi_def_cfa_offset 56
 216:User/Src/command.c **** 	wifi_send_to(cmd3);
 2111              		.loc 1 216 2 is_stmt 1 view .LVU554
 216:User/Src/command.c **** 	wifi_send_to(cmd3);
 2112              		.loc 1 216 7 is_stmt 0 view .LVU555
 2113 0004 0DF1040C 		add	ip, sp, #4
 2114 0008 0B4C     		ldr	r4, .L147
 2115 000a 0FCC     		ldmia	r4!, {r0, r1, r2, r3}
 2116              	.LVL191:
 216:User/Src/command.c **** 	wifi_send_to(cmd3);
 2117              		.loc 1 216 7 view .LVU556
 2118 000c ACE80F00 		stmia	ip!, {r0, r1, r2, r3}
 2119 0010 0FCC     		ldmia	r4!, {r0, r1, r2, r3}
 2120 0012 ACE80F00 		stmia	ip!, {r0, r1, r2, r3}
 2121 0016 94E80700 		ldm	r4, {r0, r1, r2}
 2122 001a ACE80300 		stmia	ip!, {r0, r1}
 2123 001e 8CF80020 		strb	r2, [ip]
 217:User/Src/command.c **** 	HAL_Delay(1000);
 2124              		.loc 1 217 2 is_stmt 1 view .LVU557
 2125 0022 01A8     		add	r0, sp, #4
 2126 0024 FFF7FEFF 		bl	wifi_send_to
 2127              	.LVL192:
 218:User/Src/command.c **** 	show_wifi_Message();
 2128              		.loc 1 218 2 view .LVU558
 2129 0028 4FF47A70 		mov	r0, #1000
 2130 002c FFF7FEFF 		bl	HAL_Delay
 2131              	.LVL193:
 219:User/Src/command.c **** 
 2132              		.loc 1 219 2 view .LVU559
 2133 0030 FFF7FEFF 		bl	show_wifi_Message
 2134              	.LVL194:
 221:User/Src/command.c **** 
 2135              		.loc 1 221 1 is_stmt 0 view .LVU560
 2136 0034 0CB0     		add	sp, sp, #48
 2137              	.LCFI33:
ARM GAS  C:\Users\84759\AppData\Local\Temp\cciPJLHt.s 			page 54


 2138              		.cfi_def_cfa_offset 8
 2139              		@ sp needed
 2140 0036 10BD     		pop	{r4, pc}
 2141              	.L148:
 2142              		.align	2
 2143              	.L147:
 2144 0038 00000000 		.word	.LC19
 2145              		.cfi_endproc
 2146              	.LFE75:
 2148              		.section	.rodata.CheckCommandList.str1.4,"aMS",%progbits,1
 2149              		.align	2
 2150              	.LC20:
 2151 0000 0A4E6F20 		.ascii	"\012No this commmand !\012\000"
 2151      74686973 
 2151      20636F6D 
 2151      6D6D616E 
 2151      6420210A 
 2152              		.section	.text.CheckCommandList,"ax",%progbits
 2153              		.align	1
 2154              		.global	CheckCommandList
 2155              		.syntax unified
 2156              		.thumb
 2157              		.thumb_func
 2159              	CheckCommandList:
 2160              	.LFB82:
 420:User/Src/command.c **** 
 421:User/Src/command.c **** void CheckCommandList(void)
 422:User/Src/command.c **** {
 2161              		.loc 1 422 1 is_stmt 1 view -0
 2162              		.cfi_startproc
 2163              		@ args = 0, pretend = 0, frame = 0
 2164              		@ frame_needed = 0, uses_anonymous_args = 0
 2165 0000 38B5     		push	{r3, r4, r5, lr}
 2166              	.LCFI34:
 2167              		.cfi_def_cfa_offset 16
 2168              		.cfi_offset 3, -16
 2169              		.cfi_offset 4, -12
 2170              		.cfi_offset 5, -8
 2171              		.cfi_offset 14, -4
 423:User/Src/command.c ****     uint8_t i;
 2172              		.loc 1 423 5 view .LVU562
 424:User/Src/command.c ****     static uint16_t usbTick = 0;
 2173              		.loc 1 424 5 view .LVU563
 425:User/Src/command.c ****     static uint16_t lastUsbRx = 0;
 2174              		.loc 1 425 5 view .LVU564
 426:User/Src/command.c ****     if (g_UsbATStatus == 0 && usb_Rx_Cnt == 0) {
 2175              		.loc 1 426 5 view .LVU565
 2176              		.loc 1 426 23 is_stmt 0 view .LVU566
 2177 0002 284B     		ldr	r3, .L165
 2178 0004 1B78     		ldrb	r3, [r3]	@ zero_extendqisi2
 2179              		.loc 1 426 8 view .LVU567
 2180 0006 13B9     		cbnz	r3, .L150
 2181              		.loc 1 426 42 discriminator 1 view .LVU568
 2182 0008 274A     		ldr	r2, .L165+4
 2183 000a 1288     		ldrh	r2, [r2]
 2184              		.loc 1 426 28 discriminator 1 view .LVU569
 2185 000c 92B1     		cbz	r2, .L163
ARM GAS  C:\Users\84759\AppData\Local\Temp\cciPJLHt.s 			page 55


 2186              	.L150:
 427:User/Src/command.c ****         usbTick = 0;
 428:User/Src/command.c ****         lastUsbRx = 0;
 429:User/Src/command.c ****         return;
 430:User/Src/command.c ****     }
 431:User/Src/command.c ****     if (usb_Rx_Cnt > lastUsbRx) {
 2187              		.loc 1 431 5 is_stmt 1 view .LVU570
 2188              		.loc 1 431 20 is_stmt 0 view .LVU571
 2189 000e 264A     		ldr	r2, .L165+4
 2190 0010 1288     		ldrh	r2, [r2]
 2191 0012 2649     		ldr	r1, .L165+8
 2192 0014 0988     		ldrh	r1, [r1]
 2193              		.loc 1 431 8 view .LVU572
 2194 0016 8A42     		cmp	r2, r1
 2195 0018 11D9     		bls	.L152
 432:User/Src/command.c ****         lastUsbRx = usb_Rx_Cnt;
 2196              		.loc 1 432 9 is_stmt 1 view .LVU573
 2197              		.loc 1 432 19 is_stmt 0 view .LVU574
 2198 001a 2449     		ldr	r1, .L165+8
 2199 001c 0A80     		strh	r2, [r1]	@ movhi
 433:User/Src/command.c ****         usbTick = 0;
 2200              		.loc 1 433 9 is_stmt 1 view .LVU575
 2201              		.loc 1 433 17 is_stmt 0 view .LVU576
 2202 001e 244A     		ldr	r2, .L165+12
 2203 0020 0021     		movs	r1, #0
 2204 0022 1180     		strh	r1, [r2]	@ movhi
 2205              	.L153:
 434:User/Src/command.c ****     } else {
 435:User/Src/command.c ****         usbTick++;
 436:User/Src/command.c ****     }
 437:User/Src/command.c ****     if (usbTick >= USB_UART_TICK_CLEAR || g_UsbATStatus == 1) {
 2206              		.loc 1 437 5 is_stmt 1 view .LVU577
 2207              		.loc 1 437 17 is_stmt 0 view .LVU578
 2208 0024 224A     		ldr	r2, .L165+12
 2209 0026 1288     		ldrh	r2, [r2]
 2210              		.loc 1 437 8 view .LVU579
 2211 0028 632A     		cmp	r2, #99
 2212 002a 35D8     		bhi	.L160
 2213              		.loc 1 437 40 discriminator 1 view .LVU580
 2214 002c 012B     		cmp	r3, #1
 2215 002e 32D1     		bne	.L149
 2216 0030 0024     		movs	r4, #0
 2217 0032 0BE0     		b	.L157
 2218              	.L163:
 427:User/Src/command.c ****         lastUsbRx = 0;
 2219              		.loc 1 427 9 is_stmt 1 view .LVU581
 427:User/Src/command.c ****         lastUsbRx = 0;
 2220              		.loc 1 427 17 is_stmt 0 view .LVU582
 2221 0034 1E4A     		ldr	r2, .L165+12
 2222 0036 1380     		strh	r3, [r2]	@ movhi
 428:User/Src/command.c ****         return;
 2223              		.loc 1 428 9 is_stmt 1 view .LVU583
 428:User/Src/command.c ****         return;
 2224              		.loc 1 428 19 is_stmt 0 view .LVU584
 2225 0038 1C4A     		ldr	r2, .L165+8
 2226 003a 1380     		strh	r3, [r2]	@ movhi
 429:User/Src/command.c ****     }
ARM GAS  C:\Users\84759\AppData\Local\Temp\cciPJLHt.s 			page 56


 2227              		.loc 1 429 9 is_stmt 1 view .LVU585
 2228 003c 2BE0     		b	.L149
 2229              	.L152:
 435:User/Src/command.c ****     }
 2230              		.loc 1 435 9 view .LVU586
 435:User/Src/command.c ****     }
 2231              		.loc 1 435 16 is_stmt 0 view .LVU587
 2232 003e 1C49     		ldr	r1, .L165+12
 2233 0040 0A88     		ldrh	r2, [r1]
 2234 0042 0132     		adds	r2, r2, #1
 2235 0044 0A80     		strh	r2, [r1]	@ movhi
 2236 0046 EDE7     		b	.L153
 2237              	.LVL195:
 2238              	.L155:
 438:User/Src/command.c ****         for (i = 0; i < MAX_COMMAND_NUMBER; i++) {
 2239              		.loc 1 438 45 is_stmt 1 discriminator 2 view .LVU588
 2240              		.loc 1 438 46 is_stmt 0 discriminator 2 view .LVU589
 2241 0048 0134     		adds	r4, r4, #1
 2242              	.LVL196:
 2243              		.loc 1 438 46 discriminator 2 view .LVU590
 2244 004a E4B2     		uxtb	r4, r4
 2245              	.LVL197:
 2246              	.L157:
 2247              		.loc 1 438 21 is_stmt 1 discriminator 1 view .LVU591
 2248              		.loc 1 438 9 is_stmt 0 discriminator 1 view .LVU592
 2249 004c 272C     		cmp	r4, #39
 2250 004e 12D8     		bhi	.L156
 439:User/Src/command.c ****             if (strlen(CommandList[i]) > 0 && strSearch((char*)g_UsbRxBuff, CommandList[i]) == 0) {
 2251              		.loc 1 439 13 is_stmt 1 view .LVU593
 2252              		.loc 1 439 35 is_stmt 0 view .LVU594
 2253 0050 184B     		ldr	r3, .L165+16
 2254 0052 04EB8402 		add	r2, r4, r4, lsl #2
 2255 0056 03EB8201 		add	r1, r3, r2, lsl #2
 2256              		.loc 1 439 40 view .LVU595
 2257 005a 13F82230 		ldrb	r3, [r3, r2, lsl #2]	@ zero_extendqisi2
 2258              		.loc 1 439 16 view .LVU596
 2259 005e 002B     		cmp	r3, #0
 2260 0060 F2D0     		beq	.L155
 2261              		.loc 1 439 47 discriminator 1 view .LVU597
 2262 0062 1548     		ldr	r0, .L165+20
 2263 0064 FFF7FEFF 		bl	strSearch
 2264              	.LVL198:
 2265              		.loc 1 439 44 discriminator 1 view .LVU598
 2266 0068 0028     		cmp	r0, #0
 2267 006a EDD1     		bne	.L155
 440:User/Src/command.c ****                 UsbCommand[i]((char*)g_UsbRxBuff);
 2268              		.loc 1 440 17 is_stmt 1 view .LVU599
 2269              		.loc 1 440 27 is_stmt 0 view .LVU600
 2270 006c 134B     		ldr	r3, .L165+24
 2271 006e 53F82430 		ldr	r3, [r3, r4, lsl #2]
 2272              		.loc 1 440 17 view .LVU601
 2273 0072 1148     		ldr	r0, .L165+20
 2274 0074 9847     		blx	r3
 2275              	.LVL199:
 441:User/Src/command.c ****                 break;
 2276              		.loc 1 441 17 is_stmt 1 view .LVU602
 2277              	.L156:
ARM GAS  C:\Users\84759\AppData\Local\Temp\cciPJLHt.s 			page 57


 442:User/Src/command.c ****             }
 443:User/Src/command.c ****         }				
 444:User/Src/command.c ****         if (i == MAX_COMMAND_NUMBER) {
 2278              		.loc 1 444 9 view .LVU603
 2279              		.loc 1 444 12 is_stmt 0 view .LVU604
 2280 0076 282C     		cmp	r4, #40
 2281 0078 10D0     		beq	.L164
 2282              	.L159:
 445:User/Src/command.c ****            UsbPrintf("\nNo this commmand !\n");
 446:User/Src/command.c ****         }
 447:User/Src/command.c ****         memset(g_UsbRxBuff, 0, UART_RECEIVE_BUFF_NUMBER);
 2283              		.loc 1 447 9 is_stmt 1 view .LVU605
 2284 007a C822     		movs	r2, #200
 2285 007c 0021     		movs	r1, #0
 2286 007e 0E48     		ldr	r0, .L165+20
 2287 0080 FFF7FEFF 		bl	memset
 2288              	.LVL200:
 448:User/Src/command.c ****         usb_Rx_Cnt = 0;
 2289              		.loc 1 448 9 view .LVU606
 2290              		.loc 1 448 20 is_stmt 0 view .LVU607
 2291 0084 0023     		movs	r3, #0
 2292 0086 084A     		ldr	r2, .L165+4
 2293 0088 1380     		strh	r3, [r2]	@ movhi
 449:User/Src/command.c ****         g_UsbATStatus = 0;
 2294              		.loc 1 449 9 is_stmt 1 view .LVU608
 2295              		.loc 1 449 23 is_stmt 0 view .LVU609
 2296 008a 064A     		ldr	r2, .L165
 2297 008c 1370     		strb	r3, [r2]
 450:User/Src/command.c ****         usbTick = 0;
 2298              		.loc 1 450 9 is_stmt 1 view .LVU610
 2299              		.loc 1 450 17 is_stmt 0 view .LVU611
 2300 008e 084A     		ldr	r2, .L165+12
 2301 0090 1380     		strh	r3, [r2]	@ movhi
 451:User/Src/command.c ****         lastUsbRx = 0;
 2302              		.loc 1 451 9 is_stmt 1 view .LVU612
 2303              		.loc 1 451 19 is_stmt 0 view .LVU613
 2304 0092 064A     		ldr	r2, .L165+8
 2305 0094 1380     		strh	r3, [r2]	@ movhi
 2306              	.LVL201:
 2307              	.L149:
 452:User/Src/command.c ****     }
 453:User/Src/command.c **** }
 2308              		.loc 1 453 1 view .LVU614
 2309 0096 38BD     		pop	{r3, r4, r5, pc}
 2310              	.L160:
 2311 0098 0024     		movs	r4, #0
 2312 009a D7E7     		b	.L157
 2313              	.LVL202:
 2314              	.L164:
 445:User/Src/command.c ****         }
 2315              		.loc 1 445 12 is_stmt 1 view .LVU615
 2316 009c 0848     		ldr	r0, .L165+28
 2317 009e FFF7FEFF 		bl	UsbPrintf
 2318              	.LVL203:
 2319 00a2 EAE7     		b	.L159
 2320              	.L166:
 2321              		.align	2
ARM GAS  C:\Users\84759\AppData\Local\Temp\cciPJLHt.s 			page 58


 2322              	.L165:
 2323 00a4 00000000 		.word	.LANCHOR4
 2324 00a8 00000000 		.word	.LANCHOR3
 2325 00ac 00000000 		.word	.LANCHOR15
 2326 00b0 00000000 		.word	.LANCHOR14
 2327 00b4 00000000 		.word	.LANCHOR1
 2328 00b8 00000000 		.word	.LANCHOR5
 2329 00bc 00000000 		.word	.LANCHOR16
 2330 00c0 00000000 		.word	.LC20
 2331              		.cfi_endproc
 2332              	.LFE82:
 2334              		.section	.text.DeviceMassage,"ax",%progbits
 2335              		.align	1
 2336              		.global	DeviceMassage
 2337              		.syntax unified
 2338              		.thumb
 2339              		.thumb_func
 2341              	DeviceMassage:
 2342              	.LFB83:
 454:User/Src/command.c **** 
 455:User/Src/command.c **** void DeviceMassage(void)
 456:User/Src/command.c **** {
 2343              		.loc 1 456 1 view -0
 2344              		.cfi_startproc
 2345              		@ args = 0, pretend = 0, frame = 0
 2346              		@ frame_needed = 0, uses_anonymous_args = 0
 2347 0000 08B5     		push	{r3, lr}
 2348              	.LCFI35:
 2349              		.cfi_def_cfa_offset 8
 2350              		.cfi_offset 3, -8
 2351              		.cfi_offset 14, -4
 457:User/Src/command.c ****     static uint16_t deviceTick = 0;
 2352              		.loc 1 457 5 view .LVU617
 458:User/Src/command.c ****     static uint16_t lastDeviceRx = 0;
 2353              		.loc 1 458 5 view .LVU618
 459:User/Src/command.c ****     if (g_DeviceATStatus == 0 && device_Rx_Cnt == 0) {
 2354              		.loc 1 459 5 view .LVU619
 2355              		.loc 1 459 26 is_stmt 0 view .LVU620
 2356 0002 184B     		ldr	r3, .L175
 2357 0004 1B78     		ldrb	r3, [r3]	@ zero_extendqisi2
 2358              		.loc 1 459 8 view .LVU621
 2359 0006 13B9     		cbnz	r3, .L168
 2360              		.loc 1 459 48 discriminator 1 view .LVU622
 2361 0008 174A     		ldr	r2, .L175+4
 2362 000a 1288     		ldrh	r2, [r2]
 2363              		.loc 1 459 31 discriminator 1 view .LVU623
 2364 000c FAB1     		cbz	r2, .L174
 2365              	.L168:
 460:User/Src/command.c ****         deviceTick = 0;
 461:User/Src/command.c ****         lastDeviceRx = 0;
 462:User/Src/command.c ****         return;
 463:User/Src/command.c ****     }
 464:User/Src/command.c ****     if (device_Rx_Cnt > lastDeviceRx) {
 2366              		.loc 1 464 5 is_stmt 1 view .LVU624
 2367              		.loc 1 464 23 is_stmt 0 view .LVU625
 2368 000e 164A     		ldr	r2, .L175+4
 2369 0010 1288     		ldrh	r2, [r2]
ARM GAS  C:\Users\84759\AppData\Local\Temp\cciPJLHt.s 			page 59


 2370 0012 1649     		ldr	r1, .L175+8
 2371 0014 0988     		ldrh	r1, [r1]
 2372              		.loc 1 464 8 view .LVU626
 2373 0016 8A42     		cmp	r2, r1
 2374 0018 1ED9     		bls	.L170
 465:User/Src/command.c ****         lastDeviceRx = device_Rx_Cnt;
 2375              		.loc 1 465 9 is_stmt 1 view .LVU627
 2376              		.loc 1 465 22 is_stmt 0 view .LVU628
 2377 001a 1449     		ldr	r1, .L175+8
 2378 001c 0A80     		strh	r2, [r1]	@ movhi
 466:User/Src/command.c ****         deviceTick = 0;
 2379              		.loc 1 466 9 is_stmt 1 view .LVU629
 2380              		.loc 1 466 20 is_stmt 0 view .LVU630
 2381 001e 144A     		ldr	r2, .L175+12
 2382 0020 0021     		movs	r1, #0
 2383 0022 1180     		strh	r1, [r2]	@ movhi
 2384              	.L171:
 467:User/Src/command.c ****     } else {
 468:User/Src/command.c ****         deviceTick++;
 469:User/Src/command.c ****     }
 470:User/Src/command.c **** 
 471:User/Src/command.c **** 	if (deviceTick >= USB_UART_TICK_CLEAR || g_DeviceATStatus == 1) {
 2385              		.loc 1 471 2 is_stmt 1 view .LVU631
 2386              		.loc 1 471 17 is_stmt 0 view .LVU632
 2387 0024 124A     		ldr	r2, .L175+12
 2388 0026 1288     		ldrh	r2, [r2]
 2389              		.loc 1 471 5 view .LVU633
 2390 0028 632A     		cmp	r2, #99
 2391 002a 01D8     		bhi	.L172
 2392              		.loc 1 471 40 discriminator 1 view .LVU634
 2393 002c 012B     		cmp	r3, #1
 2394 002e 0DD1     		bne	.L167
 2395              	.L172:
 472:User/Src/command.c **** 
 473:User/Src/command.c **** 		if(g_DeviceRxBuff[0] == 0xFA && g_DeviceRxBuff[1] == 0xFB && g_DeviceRxBuff[device_Rx_Cnt]=='\0' 
 2396              		.loc 1 473 3 is_stmt 1 view .LVU635
 474:User/Src/command.c **** 		{
 475:User/Src/command.c **** 			//Command_analyse(g_DeviceRxBuff);
 476:User/Src/command.c **** 		}
 2397              		.loc 1 476 3 view .LVU636
 477:User/Src/command.c ****         memset(g_DeviceRxBuff, 0, UART_RECEIVE_BUFF_NUMBER);
 2398              		.loc 1 477 9 view .LVU637
 2399 0030 C822     		movs	r2, #200
 2400 0032 0021     		movs	r1, #0
 2401 0034 0F48     		ldr	r0, .L175+16
 2402 0036 FFF7FEFF 		bl	memset
 2403              	.LVL204:
 478:User/Src/command.c ****         device_Rx_Cnt = 0;
 2404              		.loc 1 478 9 view .LVU638
 2405              		.loc 1 478 23 is_stmt 0 view .LVU639
 2406 003a 0023     		movs	r3, #0
 2407 003c 0A4A     		ldr	r2, .L175+4
 2408 003e 1380     		strh	r3, [r2]	@ movhi
 479:User/Src/command.c ****         g_DeviceATStatus = 0;
 2409              		.loc 1 479 9 is_stmt 1 view .LVU640
 2410              		.loc 1 479 26 is_stmt 0 view .LVU641
 2411 0040 084A     		ldr	r2, .L175
ARM GAS  C:\Users\84759\AppData\Local\Temp\cciPJLHt.s 			page 60


 2412 0042 1370     		strb	r3, [r2]
 480:User/Src/command.c ****         deviceTick = 0;
 2413              		.loc 1 480 9 is_stmt 1 view .LVU642
 2414              		.loc 1 480 20 is_stmt 0 view .LVU643
 2415 0044 0A4A     		ldr	r2, .L175+12
 2416 0046 1380     		strh	r3, [r2]	@ movhi
 481:User/Src/command.c ****         lastDeviceRx = 0;
 2417              		.loc 1 481 9 is_stmt 1 view .LVU644
 2418              		.loc 1 481 22 is_stmt 0 view .LVU645
 2419 0048 084A     		ldr	r2, .L175+8
 2420 004a 1380     		strh	r3, [r2]	@ movhi
 2421              	.L167:
 482:User/Src/command.c **** 	 }
 483:User/Src/command.c **** }
 2422              		.loc 1 483 1 view .LVU646
 2423 004c 08BD     		pop	{r3, pc}
 2424              	.L174:
 460:User/Src/command.c ****         lastDeviceRx = 0;
 2425              		.loc 1 460 9 is_stmt 1 view .LVU647
 460:User/Src/command.c ****         lastDeviceRx = 0;
 2426              		.loc 1 460 20 is_stmt 0 view .LVU648
 2427 004e 084A     		ldr	r2, .L175+12
 2428 0050 1380     		strh	r3, [r2]	@ movhi
 461:User/Src/command.c ****         return;
 2429              		.loc 1 461 9 is_stmt 1 view .LVU649
 461:User/Src/command.c ****         return;
 2430              		.loc 1 461 22 is_stmt 0 view .LVU650
 2431 0052 064A     		ldr	r2, .L175+8
 2432 0054 1380     		strh	r3, [r2]	@ movhi
 462:User/Src/command.c ****     }
 2433              		.loc 1 462 9 is_stmt 1 view .LVU651
 2434 0056 F9E7     		b	.L167
 2435              	.L170:
 468:User/Src/command.c ****     }
 2436              		.loc 1 468 9 view .LVU652
 468:User/Src/command.c ****     }
 2437              		.loc 1 468 19 is_stmt 0 view .LVU653
 2438 0058 0549     		ldr	r1, .L175+12
 2439 005a 0A88     		ldrh	r2, [r1]
 2440 005c 0132     		adds	r2, r2, #1
 2441 005e 0A80     		strh	r2, [r1]	@ movhi
 2442 0060 E0E7     		b	.L171
 2443              	.L176:
 2444 0062 00BF     		.align	2
 2445              	.L175:
 2446 0064 00000000 		.word	.LANCHOR9
 2447 0068 00000000 		.word	.LANCHOR7
 2448 006c 00000000 		.word	.LANCHOR18
 2449 0070 00000000 		.word	.LANCHOR17
 2450 0074 00000000 		.word	.LANCHOR10
 2451              		.cfi_endproc
 2452              	.LFE83:
 2454              		.global	UsbCommand
 2455              		.global	RxBuffer3
 2456              		.global	Uart3_Rx_Cnt
 2457              		.global	wifiRxBuf
 2458              		.global	g_DeviceATStatus
ARM GAS  C:\Users\84759\AppData\Local\Temp\cciPJLHt.s 			page 61


 2459              		.global	g_DeviceTxBuff
 2460              		.global	g_DeviceRxBuff
 2461              		.global	deviceRxBuf
 2462              		.global	device_Rx_Cnt
 2463              		.global	g_UsbATStatus
 2464              		.global	g_UsbTxBuff
 2465              		.global	g_UsbRxBuff
 2466              		.global	usbRxBuf
 2467              		.global	usb_Rx_Cnt
 2468              		.section	.bss.RxBuffer3,"aw",%nobits
 2469              		.align	2
 2470              		.set	.LANCHOR12,. + 0
 2473              	RxBuffer3:
 2474 0000 00000000 		.space	1024
 2474      00000000 
 2474      00000000 
 2474      00000000 
 2474      00000000 
 2475              		.section	.bss.Uart3_Rx_Cnt,"aw",%nobits
 2476              		.align	2
 2477              		.set	.LANCHOR11,. + 0
 2480              	Uart3_Rx_Cnt:
 2481 0000 00000000 		.space	4
 2482              		.section	.bss.deviceRxBuf,"aw",%nobits
 2483              		.set	.LANCHOR8,. + 0
 2486              	deviceRxBuf:
 2487 0000 00       		.space	1
 2488              		.section	.bss.deviceTick.1,"aw",%nobits
 2489              		.align	1
 2490              		.set	.LANCHOR17,. + 0
 2493              	deviceTick.1:
 2494 0000 0000     		.space	2
 2495              		.section	.bss.device_Rx_Cnt,"aw",%nobits
 2496              		.align	1
 2497              		.set	.LANCHOR7,. + 0
 2500              	device_Rx_Cnt:
 2501 0000 0000     		.space	2
 2502              		.section	.bss.g_DeviceATStatus,"aw",%nobits
 2503              		.set	.LANCHOR9,. + 0
 2506              	g_DeviceATStatus:
 2507 0000 00       		.space	1
 2508              		.section	.bss.g_DeviceRxBuff,"aw",%nobits
 2509              		.align	2
 2510              		.set	.LANCHOR10,. + 0
 2513              	g_DeviceRxBuff:
 2514 0000 00000000 		.space	200
 2514      00000000 
 2514      00000000 
 2514      00000000 
 2514      00000000 
 2515              		.section	.bss.g_DeviceTxBuff,"aw",%nobits
 2516              		.align	2
 2517              		.set	.LANCHOR2,. + 0
 2520              	g_DeviceTxBuff:
 2521 0000 00000000 		.space	300
 2521      00000000 
 2521      00000000 
ARM GAS  C:\Users\84759\AppData\Local\Temp\cciPJLHt.s 			page 62


 2521      00000000 
 2521      00000000 
 2522              		.section	.bss.g_UsbATStatus,"aw",%nobits
 2523              		.set	.LANCHOR4,. + 0
 2526              	g_UsbATStatus:
 2527 0000 00       		.space	1
 2528              		.section	.bss.g_UsbRxBuff,"aw",%nobits
 2529              		.align	2
 2530              		.set	.LANCHOR5,. + 0
 2533              	g_UsbRxBuff:
 2534 0000 00000000 		.space	200
 2534      00000000 
 2534      00000000 
 2534      00000000 
 2534      00000000 
 2535              		.section	.bss.g_UsbTxBuff,"aw",%nobits
 2536              		.align	2
 2537              		.set	.LANCHOR0,. + 0
 2540              	g_UsbTxBuff:
 2541 0000 00000000 		.space	300
 2541      00000000 
 2541      00000000 
 2541      00000000 
 2541      00000000 
 2542              		.section	.bss.lastDeviceRx.0,"aw",%nobits
 2543              		.align	1
 2544              		.set	.LANCHOR18,. + 0
 2547              	lastDeviceRx.0:
 2548 0000 0000     		.space	2
 2549              		.section	.bss.lastUsbRx.2,"aw",%nobits
 2550              		.align	1
 2551              		.set	.LANCHOR15,. + 0
 2554              	lastUsbRx.2:
 2555 0000 0000     		.space	2
 2556              		.section	.bss.usbRxBuf,"aw",%nobits
 2557              		.set	.LANCHOR6,. + 0
 2560              	usbRxBuf:
 2561 0000 00       		.space	1
 2562              		.section	.bss.usbTick.3,"aw",%nobits
 2563              		.align	1
 2564              		.set	.LANCHOR14,. + 0
 2567              	usbTick.3:
 2568 0000 0000     		.space	2
 2569              		.section	.bss.usb_Rx_Cnt,"aw",%nobits
 2570              		.align	1
 2571              		.set	.LANCHOR3,. + 0
 2574              	usb_Rx_Cnt:
 2575 0000 0000     		.space	2
 2576              		.section	.bss.wifiRxBuf,"aw",%nobits
 2577              		.set	.LANCHOR13,. + 0
 2580              	wifiRxBuf:
 2581 0000 00       		.space	1
 2582              		.section	.data.CommandList,"aw"
 2583              		.align	2
 2584              		.set	.LANCHOR1,. + 0
 2587              	CommandList:
 2588 0000 41545E48 		.ascii	"AT^HELP\000"
ARM GAS  C:\Users\84759\AppData\Local\Temp\cciPJLHt.s 			page 63


 2588      454C5000 
 2589 0008 00000000 		.space	12
 2589      00000000 
 2589      00000000 
 2590 0014 41545E54 		.ascii	"AT^TEST\000"
 2590      45535400 
 2591 001c 00000000 		.space	12
 2591      00000000 
 2591      00000000 
 2592 0028 41545E52 		.ascii	"AT^READDATA\000"
 2592      45414444 
 2592      41544100 
 2593 0034 00000000 		.space	8
 2593      00000000 
 2594 003c 41545E49 		.ascii	"AT^IICINT\000"
 2594      4943494E 
 2594      5400
 2595 0046 00000000 		.space	10
 2595      00000000 
 2595      0000
 2596 0050 41545E53 		.ascii	"AT^SETTIME\000"
 2596      45545449 
 2596      4D4500
 2597 005b 00000000 		.space	9
 2597      00000000 
 2597      00
 2598 0064 41545E57 		.ascii	"AT^WIFICMD\000"
 2598      49464943 
 2598      4D4400
 2599 006f 00000000 		.space	9
 2599      00000000 
 2599      00
 2600 0078 00000000 		.space	680
 2600      00000000 
 2600      00000000 
 2600      00000000 
 2600      00000000 
 2601              		.section	.data.UsbCommand,"aw"
 2602              		.align	2
 2603              		.set	.LANCHOR16,. + 0
 2606              	UsbCommand:
 2607 0000 00000000 		.word	AT_HELP_Handle
 2608 0004 00000000 		.word	AT_TEST_Handle
 2609 0008 00000000 		.word	AT_READDATA_Handle
 2610 000c 00000000 		.word	AT_IICINT_Handle
 2611 0010 00000000 		.word	AT_SETTIME_Handle
 2612 0014 00000000 		.word	AT_WIFICMD_Handle
 2613 0018 00000000 		.space	136
 2613      00000000 
 2613      00000000 
 2613      00000000 
 2613      00000000 
 2614              		.text
 2615              	.Letext0:
 2616              		.file 2 "d:\\mingw\\gcc-arm-none-eabi-10.3-2021.10-win32\\gcc-arm-none-eabi-10.3-2021.10\\arm-none
 2617              		.file 3 "d:\\mingw\\gcc-arm-none-eabi-10.3-2021.10-win32\\gcc-arm-none-eabi-10.3-2021.10\\arm-none
 2618              		.file 4 "Drivers/CMSIS/Device/ST/STM32F1xx/Include/stm32f103xe.h"
ARM GAS  C:\Users\84759\AppData\Local\Temp\cciPJLHt.s 			page 64


 2619              		.file 5 "Drivers/STM32F1xx_HAL_Driver/Inc/stm32f1xx_hal_def.h"
 2620              		.file 6 "Drivers/STM32F1xx_HAL_Driver/Inc/stm32f1xx_hal_dma.h"
 2621              		.file 7 "Drivers/STM32F1xx_HAL_Driver/Inc/stm32f1xx_hal_uart.h"
 2622              		.file 8 "d:\\mingw\\gcc-arm-none-eabi-10.3-2021.10-win32\\gcc-arm-none-eabi-10.3-2021.10\\lib\\gcc
 2623              		.file 9 "d:\\mingw\\gcc-arm-none-eabi-10.3-2021.10-win32\\gcc-arm-none-eabi-10.3-2021.10\\arm-none
 2624              		.file 10 "Core/Inc/usart.h"
 2625              		.file 11 "User/Inc/soft_i2c.h"
 2626              		.file 12 "User/Inc/multi_button.h"
 2627              		.file 13 "User/Inc/command.h"
 2628              		.file 14 "d:\\mingw\\gcc-arm-none-eabi-10.3-2021.10-win32\\gcc-arm-none-eabi-10.3-2021.10\\arm-non
 2629              		.file 15 "User/Inc/esp8266.h"
 2630              		.file 16 "Drivers/STM32F1xx_HAL_Driver/Inc/stm32f1xx_hal.h"
 2631              		.file 17 "<built-in>"
ARM GAS  C:\Users\84759\AppData\Local\Temp\cciPJLHt.s 			page 65

