ARM GAS  C:\Users\84759\AppData\Local\Temp\ccVSdzbq.s 			page 1


   1              		.cpu cortex-m3
   2              		.arch armv7-m
   3              		.fpu softvfp
   4              		.eabi_attribute 20, 1
   5              		.eabi_attribute 21, 1
   6              		.eabi_attribute 23, 3
   7              		.eabi_attribute 24, 1
   8              		.eabi_attribute 25, 1
   9              		.eabi_attribute 26, 1
  10              		.eabi_attribute 30, 1
  11              		.eabi_attribute 34, 1
  12              		.eabi_attribute 18, 4
  13              		.file	"command.c"
  14              		.text
  15              	.Ltext0:
  16              		.cfi_sections	.debug_frame
  17              		.section	.text.AT_TEST_Handle,"ax",%progbits
  18              		.align	1
  19              		.global	AT_TEST_Handle
  20              		.syntax unified
  21              		.thumb
  22              		.thumb_func
  24              	AT_TEST_Handle:
  25              	.LVL0:
  26              	.LFB74:
  27              		.file 1 "User/Src/command.c"
   1:User/Src/command.c **** #include "command.h"
   2:User/Src/command.c **** #include "usart.h"
   3:User/Src/command.c **** #include "flash.h"
   4:User/Src/command.c **** #include "storage.h"
   5:User/Src/command.c **** #include "fatfs.h"
   6:User/Src/command.c **** #include "rtc.h"
   7:User/Src/command.c **** 
   8:User/Src/command.c **** extern UART_HandleTypeDef huart1;
   9:User/Src/command.c **** extern UART_HandleTypeDef huart2;
  10:User/Src/command.c **** 
  11:User/Src/command.c **** extern FATFS   USERFatFS;
  12:User/Src/command.c **** extern FIL     USERFile;
  13:User/Src/command.c **** extern FRESULT retUSER;
  14:User/Src/command.c **** extern FatFs_Time_t g_fatfs_time;
  15:User/Src/command.c **** 
  16:User/Src/command.c **** #define MAX_FILENAME_LEN     31
  17:User/Src/command.c **** #define MAX_WRITE_DATA_LEN   511
  18:User/Src/command.c **** #define INVALID_CHARS        "/\\:*?\"<>|"
  19:User/Src/command.c **** 
  20:User/Src/command.c **** // USB USART1 ˝ÓĘŐ
  21:User/Src/command.c **** uint16_t usb_Rx_Cnt = 0;
  22:User/Src/command.c **** uint8_t  usbRxBuf = 0;
  23:User/Src/command.c **** uint8_t  g_UsbRxBuff[UART_RECEIVE_BUFF_NUMBER] = {0};
  24:User/Src/command.c **** uint8_t  g_UsbTxBuff[UART_TRANSMIT_BUFF_NUMBER] = {0};
  25:User/Src/command.c **** uint8_t  g_UsbATStatus = 0;
  26:User/Src/command.c **** 
  27:User/Src/command.c **** char Command_buf[200] = {0};
  28:User/Src/command.c **** 
  29:User/Src/command.c **** #define MAX_COMMAND_NUMBER    40
  30:User/Src/command.c **** #define MAX_COMMAND_LENGTH    20
  31:User/Src/command.c **** 
ARM GAS  C:\Users\84759\AppData\Local\Temp\ccVSdzbq.s 			page 2


  32:User/Src/command.c **** static char CommandList[MAX_COMMAND_NUMBER][MAX_COMMAND_LENGTH] = {
  33:User/Src/command.c ****     "AT^HELP",
  34:User/Src/command.c ****     "AT^TEST",
  35:User/Src/command.c ****     "AT^W25Q64_EraseChip",
  36:User/Src/command.c ****     "AT^FATFS_ListDir",
  37:User/Src/command.c ****     "AT^FATFS_DelFile",
  38:User/Src/command.c ****     "AT^FATFS_MOUNT",
  39:User/Src/command.c ****     "AT^FATFS_FORMAT",
  40:User/Src/command.c ****     "AT^FATFS_WRITE",
  41:User/Src/command.c ****     "AT^FATFS_READ",
  42:User/Src/command.c ****     "AT^FATFS_CluWrite",
  43:User/Src/command.c ****     "AT^FATFS_GetTime",
  44:User/Src/command.c **** };
  45:User/Src/command.c **** 
  46:User/Src/command.c **** 
  47:User/Src/command.c **** int  strSearch(const char* source, const char* target)
  48:User/Src/command.c **** {
  49:User/Src/command.c ****     int len_source = strlen(source);
  50:User/Src/command.c ****     int len_target = strlen(target);
  51:User/Src/command.c ****     int i, j;
  52:User/Src/command.c **** 
  53:User/Src/command.c ****     if (len_source < len_target || len_target == 0)
  54:User/Src/command.c ****         return -1;
  55:User/Src/command.c **** 
  56:User/Src/command.c ****     for (i = 0; i <= len_source - len_target; i++)
  57:User/Src/command.c ****     {
  58:User/Src/command.c ****         for (j = 0; j < len_target; j++)
  59:User/Src/command.c ****         {
  60:User/Src/command.c ****             if (source[i + j] != target[j])
  61:User/Src/command.c ****                 break;
  62:User/Src/command.c ****         }
  63:User/Src/command.c ****         if (j == len_target)
  64:User/Src/command.c ****             return i;
  65:User/Src/command.c ****     }
  66:User/Src/command.c ****     return -1;
  67:User/Src/command.c **** }
  68:User/Src/command.c **** 
  69:User/Src/command.c **** uint16_t CharToInt(char* source, uint8_t start, int* number)
  70:User/Src/command.c **** {
  71:User/Src/command.c ****     uint16_t length = strlen(source);
  72:User/Src/command.c ****     uint16_t i;
  73:User/Src/command.c ****     int sum = 0;
  74:User/Src/command.c ****     int state = 1;
  75:User/Src/command.c ****     uint8_t hex = 0;
  76:User/Src/command.c **** 
  77:User/Src/command.c ****     *number = 0;
  78:User/Src/command.c ****     if (start >= length) return 0;
  79:User/Src/command.c **** 
  80:User/Src/command.c ****     if (source[start] == '-')
  81:User/Src/command.c ****     {
  82:User/Src/command.c ****         state = -1;
  83:User/Src/command.c ****         start++;
  84:User/Src/command.c ****     }
  85:User/Src/command.c **** 
  86:User/Src/command.c ****     if (start + 1 < length)
  87:User/Src/command.c ****     {
  88:User/Src/command.c ****         if (source[start] == '0' && (source[start + 1] == 'x' || source[start + 1] == 'X'))
ARM GAS  C:\Users\84759\AppData\Local\Temp\ccVSdzbq.s 			page 3


  89:User/Src/command.c ****         {
  90:User/Src/command.c ****             start += 2;
  91:User/Src/command.c ****             hex = 1;
  92:User/Src/command.c ****         }
  93:User/Src/command.c ****     }
  94:User/Src/command.c **** 
  95:User/Src/command.c ****     for (i = start; i < length; i++)
  96:User/Src/command.c ****     {
  97:User/Src/command.c ****         if (source[i] >= '0' && source[i] <= '9')
  98:User/Src/command.c ****         {
  99:User/Src/command.c ****             sum = hex ? (sum * 16 + (source[i] - '0')) : (sum * 10 + (source[i] - '0'));
 100:User/Src/command.c ****         }
 101:User/Src/command.c ****         else if (source[i] >= 'a' && source[i] <= 'f')
 102:User/Src/command.c ****         {
 103:User/Src/command.c ****             if (!hex) return 0;
 104:User/Src/command.c ****             sum = sum * 16 + (source[i] - 'a' + 10);
 105:User/Src/command.c ****         }
 106:User/Src/command.c ****         else if (source[i] >= 'A' && source[i] <= 'F')
 107:User/Src/command.c ****         {
 108:User/Src/command.c ****             if (!hex) return 0;
 109:User/Src/command.c ****             sum = sum * 16 + (source[i] - 'A' + 10);
 110:User/Src/command.c ****         }
 111:User/Src/command.c ****         else if (source[i] == ' ' || source[i] == ',')
 112:User/Src/command.c ****         {
 113:User/Src/command.c ****             break;
 114:User/Src/command.c ****         }
 115:User/Src/command.c ****         else
 116:User/Src/command.c ****         {
 117:User/Src/command.c ****             return 0;
 118:User/Src/command.c ****         }
 119:User/Src/command.c ****     }
 120:User/Src/command.c **** 
 121:User/Src/command.c ****     *number = state * sum;
 122:User/Src/command.c ****     return 1;
 123:User/Src/command.c **** }
 124:User/Src/command.c **** 
 125:User/Src/command.c **** uint8_t CharToFloat(char* source, uint8_t start, float* number)
 126:User/Src/command.c **** {
 127:User/Src/command.c ****     uint8_t length = strlen(source);
 128:User/Src/command.c ****     uint8_t i;
 129:User/Src/command.c ****     float sum = 0;
 130:User/Src/command.c ****     int state = 1;
 131:User/Src/command.c ****     float small_num = 0.1f;
 132:User/Src/command.c **** 
 133:User/Src/command.c ****     *number = 0.0f;
 134:User/Src/command.c ****     if (length <= start) return 0;
 135:User/Src/command.c **** 
 136:User/Src/command.c ****     if (source[start] == '-')
 137:User/Src/command.c ****     {
 138:User/Src/command.c ****         state = -1;
 139:User/Src/command.c ****         start++;
 140:User/Src/command.c ****     }
 141:User/Src/command.c **** 
 142:User/Src/command.c ****     for (i = start; i < length; i++)
 143:User/Src/command.c ****     {
 144:User/Src/command.c ****         if (source[i] >= '0' && source[i] <= '9')
 145:User/Src/command.c ****         {
ARM GAS  C:\Users\84759\AppData\Local\Temp\ccVSdzbq.s 			page 4


 146:User/Src/command.c ****             sum = sum * 10 + (source[i] - '0');
 147:User/Src/command.c ****         }
 148:User/Src/command.c ****         else if (source[i] == '.')
 149:User/Src/command.c ****         {
 150:User/Src/command.c ****             i++;
 151:User/Src/command.c ****             break;
 152:User/Src/command.c ****         }
 153:User/Src/command.c ****         else if (source[i] == ' ' || source[i] == ',')
 154:User/Src/command.c ****         {
 155:User/Src/command.c ****             break;
 156:User/Src/command.c ****         }
 157:User/Src/command.c ****         else
 158:User/Src/command.c ****         {
 159:User/Src/command.c ****             return 0;
 160:User/Src/command.c ****         }
 161:User/Src/command.c ****     }
 162:User/Src/command.c **** 
 163:User/Src/command.c ****     for (; i < length; i++)
 164:User/Src/command.c ****     {
 165:User/Src/command.c ****         if (source[i] >= '0' && source[i] <= '9')
 166:User/Src/command.c ****         {
 167:User/Src/command.c ****             sum += small_num * (source[i] - '0');
 168:User/Src/command.c ****             small_num *= 0.1f;
 169:User/Src/command.c ****         }
 170:User/Src/command.c ****         else if (source[i] == ' ' || source[i] == ',')
 171:User/Src/command.c ****         {
 172:User/Src/command.c ****             break;
 173:User/Src/command.c ****         }
 174:User/Src/command.c ****         else
 175:User/Src/command.c ****         {
 176:User/Src/command.c ****             return 0;
 177:User/Src/command.c ****         }
 178:User/Src/command.c ****     }
 179:User/Src/command.c **** 
 180:User/Src/command.c ****     *number = state * sum;
 181:User/Src/command.c ****     return 1;
 182:User/Src/command.c **** }
 183:User/Src/command.c **** 
 184:User/Src/command.c **** uint8_t Data_copy_from_pos(char *dest, const char *src, uint16_t start_pos, uint16_t copy_len)
 185:User/Src/command.c **** {
 186:User/Src/command.c ****     if (dest == NULL || src == NULL)
 187:User/Src/command.c ****     {
 188:User/Src/command.c ****         UsbPrintf("[command] error: pointer null !\r\n");
 189:User/Src/command.c ****         return 0;
 190:User/Src/command.c ****     }
 191:User/Src/command.c **** 
 192:User/Src/command.c ****     int src_len = strlen(src);
 193:User/Src/command.c ****     if (start_pos < 0 || start_pos >= src_len)
 194:User/Src/command.c ****     {
 195:User/Src/command.c ****         UsbPrintf("[command] error: start pos invalid !\r\n");
 196:User/Src/command.c ****         return 0;
 197:User/Src/command.c ****     }
 198:User/Src/command.c **** 
 199:User/Src/command.c ****     if (copy_len < 0 || (start_pos + copy_len) > src_len)
 200:User/Src/command.c ****     {
 201:User/Src/command.c ****         UsbPrintf("[command] error: copy len invalid !\r\n");
 202:User/Src/command.c ****         return 0;
ARM GAS  C:\Users\84759\AppData\Local\Temp\ccVSdzbq.s 			page 5


 203:User/Src/command.c ****     }
 204:User/Src/command.c **** 
 205:User/Src/command.c ****     memcpy(dest, src + start_pos, copy_len);
 206:User/Src/command.c ****     dest[copy_len] = '\0';
 207:User/Src/command.c ****     return 1;
 208:User/Src/command.c **** }
 209:User/Src/command.c **** 
 210:User/Src/command.c **** uint8_t isFilenameValid(const char* filename)
 211:User/Src/command.c **** {
 212:User/Src/command.c ****     if (filename == NULL || strlen(filename) == 0)
 213:User/Src/command.c ****         return 0;
 214:User/Src/command.c **** 
 215:User/Src/command.c ****     for (int i = 0; filename[i] != '\0'; i++)
 216:User/Src/command.c ****     {
 217:User/Src/command.c ****         if (strchr(INVALID_CHARS, filename[i]))
 218:User/Src/command.c ****             return 0;
 219:User/Src/command.c ****     }
 220:User/Src/command.c ****     return 1;
 221:User/Src/command.c **** }
 222:User/Src/command.c **** 
 223:User/Src/command.c **** void AT_HELP_Handle(char* command)
 224:User/Src/command.c **** {
 225:User/Src/command.c ****     (void)command;
 226:User/Src/command.c ****     int i = 0;
 227:User/Src/command.c ****     int num = 0;
 228:User/Src/command.c **** 
 229:User/Src/command.c ****     UsbPrintf("\r\n===== AT Command List =====\r\n");
 230:User/Src/command.c ****     for (i = 0; i < MAX_COMMAND_NUMBER; i++)
 231:User/Src/command.c ****     {
 232:User/Src/command.c ****         if (strlen(CommandList[i]) > 0)
 233:User/Src/command.c ****         {
 234:User/Src/command.c ****             UsbPrintf("%d. %s\r\n", num++, CommandList[i]);
 235:User/Src/command.c ****         }
 236:User/Src/command.c ****     }
 237:User/Src/command.c ****     UsbPrintf("===========================\r\n");
 238:User/Src/command.c ****     UsbPrintf("Total command number: %d\r\n", num);
 239:User/Src/command.c **** }
 240:User/Src/command.c **** 
 241:User/Src/command.c **** void AT_TEST_Handle(char* command)
 242:User/Src/command.c **** {
  28              		.loc 1 242 1 view -0
  29              		.cfi_startproc
  30              		@ args = 0, pretend = 0, frame = 0
  31              		@ frame_needed = 0, uses_anonymous_args = 0
  32              		@ link register save eliminated.
 243:User/Src/command.c ****     (void)command;
  33              		.loc 1 243 5 view .LVU1
 244:User/Src/command.c **** }
  34              		.loc 1 244 1 is_stmt 0 view .LVU2
  35 0000 7047     		bx	lr
  36              		.cfi_endproc
  37              	.LFE74:
  39              		.section	.text.is_leap_year,"ax",%progbits
  40              		.align	1
  41              		.syntax unified
  42              		.thumb
  43              		.thumb_func
ARM GAS  C:\Users\84759\AppData\Local\Temp\ccVSdzbq.s 			page 6


  45              	is_leap_year:
  46              	.LVL1:
  47              	.LFB83:
 245:User/Src/command.c **** 
 246:User/Src/command.c **** void AT_W25Q64_EraseChip_Handle(char* command)
 247:User/Src/command.c **** {
 248:User/Src/command.c ****     (void)command;
 249:User/Src/command.c ****     W25Q64_ChipErase();
 250:User/Src/command.c **** }
 251:User/Src/command.c **** 
 252:User/Src/command.c **** void AT_FATFS_ListDir_Handle(char* command)
 253:User/Src/command.c **** {
 254:User/Src/command.c ****     (void)command;
 255:User/Src/command.c ****     uint8_t hh, mm, ss;
 256:User/Src/command.c ****     RTC_GetCurrentTime(&hh, &mm, &ss);
 257:User/Src/command.c ****     UsbPrintf("\r\n--- Ę±ĽäŁş%02d:%02d:%02d ---", hh, mm, ss);
 258:User/Src/command.c ****     FatFs_ListDir();
 259:User/Src/command.c **** }
 260:User/Src/command.c **** 
 261:User/Src/command.c **** void AT_FATFS_DelFile_Handle(char* command)
 262:User/Src/command.c **** {
 263:User/Src/command.c ****     // 1. żŐÖ¸ÁîĽě˛é
 264:User/Src/command.c ****     if (command == NULL || strlen(command) == 0)
 265:User/Src/command.c ****     {
 266:User/Src/command.c ****         UsbPrintf("[command] ´íÎóŁşÖ¸ÁîÎŞżŐŁˇ\r\n");
 267:User/Src/command.c ****         return;
 268:User/Src/command.c ****     }
 269:User/Src/command.c **** 
 270:User/Src/command.c ****     // 2. ¶¨ŇĺÖ¸ÁîÍ·˛˘ĐŁŃé¸ńĘ˝
 271:User/Src/command.c ****     char cmd_header[] = "AT^FATFS_DelFile=";
 272:User/Src/command.c ****     uint16_t header_len = strlen(cmd_header);
 273:User/Src/command.c ****     
 274:User/Src/command.c ****     if (strSearch(command, cmd_header) != 0)
 275:User/Src/command.c ****     {
 276:User/Src/command.c ****         UsbPrintf("[command] ´íÎóŁşÎŢĐ§¸ńĘ˝Łˇ\r\n");
 277:User/Src/command.c ****         UsbPrintf("[command] ÓĂ·¨ŁşAT^FATFS_DelFile=<filename>\r\n");
 278:User/Src/command.c ****         return;
 279:User/Src/command.c ****     }
 280:User/Src/command.c **** 
 281:User/Src/command.c ****     // 3. ĚáČˇÎÄĽţĂű˛ÎĘý
 282:User/Src/command.c ****     uint16_t filename_start = header_len;
 283:User/Src/command.c ****     uint16_t cmd_len = strlen(command);
 284:User/Src/command.c ****     
 285:User/Src/command.c ****     if (filename_start >= cmd_len)
 286:User/Src/command.c ****     {
 287:User/Src/command.c ****         UsbPrintf("[command] ´íÎóŁş˛ÎĘýÎŞżŐŁˇ\r\n");
 288:User/Src/command.c ****         return;
 289:User/Src/command.c ****     }
 290:User/Src/command.c **** 
 291:User/Src/command.c ****     // 4. ¶ÁČˇ˛˘ĐŁŃéÎÄĽţĂű
 292:User/Src/command.c ****     char filename[MAX_FILENAME_LEN + 1] = {0};
 293:User/Src/command.c ****     if (!Data_copy_from_pos(filename, command, filename_start, cmd_len - filename_start))
 294:User/Src/command.c ****     {
 295:User/Src/command.c ****         UsbPrintf("[command] ´íÎóŁşĚáČˇÎÄĽţĂűĘ§°Ü\r\n");
 296:User/Src/command.c ****         return;
 297:User/Src/command.c ****     }
 298:User/Src/command.c **** 
ARM GAS  C:\Users\84759\AppData\Local\Temp\ccVSdzbq.s 			page 7


 299:User/Src/command.c ****     // 5. ĐŁŃéÎÄĽţĂűşĎ·¨ĐÔ
 300:User/Src/command.c ****     if (!isFilenameValid(filename))
 301:User/Src/command.c ****     {
 302:User/Src/command.c ****         UsbPrintf("[command] ´íÎóŁşÎÄĽţĂű°üş¬·Ç·¨×Ö·űŁ¨/\\:*?\"<>|Ł©\r\n");
 303:User/Src/command.c ****         return;
 304:User/Src/command.c ****     }
 305:User/Src/command.c **** 
 306:User/Src/command.c ****     // 6. Ľě˛éFATFSĘÇ·ńąŇÔŘ
 307:User/Src/command.c ****     FatFs_Info_t fs_info = {0};
 308:User/Src/command.c ****     if (!FatFs_GetInfo(&fs_info))
 309:User/Src/command.c ****     {
 310:User/Src/command.c ****         UsbPrintf("[command] ´íÎóŁşFATFS Î´ąŇÔŘŁˇ\r\n");
 311:User/Src/command.c ****         return;
 312:User/Src/command.c ****     }
 313:User/Src/command.c **** 
 314:User/Src/command.c ****     // 7. ąŘ±ŐÎÄĽţŁ¨·ŔÖąÎÄĽţ±»ŐĽÓĂŁ©
 315:User/Src/command.c ****     f_close(&USERFile);
 316:User/Src/command.c **** 
 317:User/Src/command.c ****     // 8. Ö´ĐĐÉľłý˛Ů×÷
 318:User/Src/command.c ****     UsbPrintf("\r\n******[command] żŞĘĽÎÄĽţÉľłý ******\r\n");
 319:User/Src/command.c ****     UsbPrintf("[command] ´ýÉľłýÎÄĽţĂű: %s\r\n", filename);
 320:User/Src/command.c **** 
 321:User/Src/command.c ****     FRESULT del_result = FatFs_DeleteFile(filename); // µ÷ÓĂÎÄĽţÉľłýşŻĘý
 322:User/Src/command.c ****     if (del_result == FR_OK)
 323:User/Src/command.c ****     {
 324:User/Src/command.c ****         UsbPrintf("[command] ÎÄĽţÉľłýłÉą¦Łˇ\r\n");
 325:User/Src/command.c ****         UsbPrintf("******[command] ÉľłýÍęłÉ ******\r\n");
 326:User/Src/command.c ****     }
 327:User/Src/command.c ****     else
 328:User/Src/command.c ****     {
 329:User/Src/command.c ****         UsbPrintf("[command] ÎÄĽţÉľłýĘ§°ÜŁˇerr=%d \r\n", del_result);
 330:User/Src/command.c ****         UsbPrintf("******[command] ÉľłýĘ§°Ü ******\r\n");
 331:User/Src/command.c ****     }
 332:User/Src/command.c **** }
 333:User/Src/command.c **** 
 334:User/Src/command.c **** 
 335:User/Src/command.c **** void AT_FATFS_MOUNT_Handle(char* command)
 336:User/Src/command.c **** {
 337:User/Src/command.c ****     (void)command;
 338:User/Src/command.c ****     FatFs_Mount();
 339:User/Src/command.c **** }
 340:User/Src/command.c **** 
 341:User/Src/command.c **** void AT_FATFS_FORMAT_Handle(char* command)
 342:User/Src/command.c **** {
 343:User/Src/command.c ****     (void)command;
 344:User/Src/command.c ****     FatFs_Format();
 345:User/Src/command.c **** }
 346:User/Src/command.c **** 
 347:User/Src/command.c **** void AT_FATFS_WRITE_Handle(char* command)
 348:User/Src/command.c **** {
 349:User/Src/command.c ****     if (command == NULL || strlen(command) == 0)
 350:User/Src/command.c ****     {
 351:User/Src/command.c ****         UsbPrintf("[command] ´íÎóŁşÖ¸ÁîÎŞżŐŁˇ\r\n");
 352:User/Src/command.c ****         return;
 353:User/Src/command.c ****     }
 354:User/Src/command.c **** 
 355:User/Src/command.c ****     char cmd_header[] = "AT^FATFS_WRITE=";
ARM GAS  C:\Users\84759\AppData\Local\Temp\ccVSdzbq.s 			page 8


 356:User/Src/command.c ****     uint16_t header_len = strlen(cmd_header);
 357:User/Src/command.c **** 
 358:User/Src/command.c ****     if (strSearch(command, cmd_header) != 0)
 359:User/Src/command.c ****     {
 360:User/Src/command.c ****         UsbPrintf("[command] ´íÎóŁşÎŢĐ§¸ńĘ˝Łˇ\r\n");
 361:User/Src/command.c ****         UsbPrintf("[command] ÓĂ·¨ŁşAT^FATFS_WRITE=<filename>,<data>\r\n");
 362:User/Src/command.c ****         return;
 363:User/Src/command.c ****     }
 364:User/Src/command.c **** 
 365:User/Src/command.c ****     uint16_t cmd_len = strlen(command);
 366:User/Src/command.c ****     uint16_t data_start = header_len;
 367:User/Src/command.c **** 
 368:User/Src/command.c ****     if (data_start >= cmd_len)
 369:User/Src/command.c ****     {
 370:User/Src/command.c ****         UsbPrintf("[command] ´íÎóŁş˛ÎĘýÎŞżŐŁˇ\r\n");
 371:User/Src/command.c ****         return;
 372:User/Src/command.c ****     }
 373:User/Src/command.c **** 
 374:User/Src/command.c ****     char* param_part = command + data_start;
 375:User/Src/command.c ****     if (strlen(param_part) == 0)
 376:User/Src/command.c ****     {
 377:User/Src/command.c ****         UsbPrintf("[command] ´íÎóŁşČ±ÉŮ˛ÎĘýŁˇ\r\n");
 378:User/Src/command.c ****         return;
 379:User/Src/command.c ****     }
 380:User/Src/command.c **** 
 381:User/Src/command.c ****     int comma_pos = strSearch(param_part, ",");
 382:User/Src/command.c ****     if (comma_pos == -1)
 383:User/Src/command.c ****     {
 384:User/Src/command.c ****         UsbPrintf("[command] ´íÎóŁşČ±ÉŮ¶şşĹ·Ö¸ô·űŁˇ\r\n");
 385:User/Src/command.c ****         return;
 386:User/Src/command.c ****     }
 387:User/Src/command.c **** 
 388:User/Src/command.c ****     char filename[MAX_FILENAME_LEN + 1] = {0};
 389:User/Src/command.c ****     if (comma_pos > MAX_FILENAME_LEN)
 390:User/Src/command.c ****     {
 391:User/Src/command.c ****         UsbPrintf("[command] ´íÎóŁşÎÄĽţĂűąýł¤Ł¨×î´ó %dŁ©\r\n", MAX_FILENAME_LEN);
 392:User/Src/command.c ****         return;
 393:User/Src/command.c ****     }
 394:User/Src/command.c **** 
 395:User/Src/command.c ****     if (!Data_copy_from_pos(filename, command, data_start, comma_pos))
 396:User/Src/command.c ****     {
 397:User/Src/command.c ****         UsbPrintf("[command] ´íÎóŁşĚáČˇÎÄĽţĂűĘ§°Ü\r\n");
 398:User/Src/command.c ****         return;
 399:User/Src/command.c ****     }
 400:User/Src/command.c **** 
 401:User/Src/command.c ****     if (!isFilenameValid(filename))
 402:User/Src/command.c ****     {
 403:User/Src/command.c ****         UsbPrintf("[command] ´íÎóŁşÎÄĽţĂű°üş¬·Ç·¨×Ö·ű\r\n");
 404:User/Src/command.c ****         return;
 405:User/Src/command.c ****     }
 406:User/Src/command.c **** 
 407:User/Src/command.c ****     uint16_t data_pos = data_start + comma_pos + 1;
 408:User/Src/command.c ****     uint16_t data_len = cmd_len - data_pos;
 409:User/Src/command.c **** 
 410:User/Src/command.c ****     if (data_len == 0)
 411:User/Src/command.c ****     {
 412:User/Src/command.c ****         UsbPrintf("[command] ´íÎóŁşĐ´ČëĘýľÝÎŞżŐ\r\n");
ARM GAS  C:\Users\84759\AppData\Local\Temp\ccVSdzbq.s 			page 9


 413:User/Src/command.c ****         return;
 414:User/Src/command.c ****     }
 415:User/Src/command.c **** 
 416:User/Src/command.c ****     if (data_len > MAX_WRITE_DATA_LEN)
 417:User/Src/command.c ****     {
 418:User/Src/command.c ****         UsbPrintf("[command] ľŻ¸ćŁşĘýľÝąýł¤Ł¬×Ô¶Ż˝Ř¶Ď\r\n");
 419:User/Src/command.c ****         data_len = MAX_WRITE_DATA_LEN;
 420:User/Src/command.c ****     }
 421:User/Src/command.c **** 
 422:User/Src/command.c ****     char write_data[MAX_WRITE_DATA_LEN + 1] = {0};
 423:User/Src/command.c ****     if (!Data_copy_from_pos(write_data, command, data_pos, data_len))
 424:User/Src/command.c ****     {
 425:User/Src/command.c ****         UsbPrintf("[command] ´íÎóŁşĚáČˇĘýľÝĘ§°Ü\r\n");
 426:User/Src/command.c ****         return;
 427:User/Src/command.c ****     }
 428:User/Src/command.c **** 
 429:User/Src/command.c ****     FatFs_Info_t fs_info = {0};
 430:User/Src/command.c ****     if (!FatFs_GetInfo(&fs_info))
 431:User/Src/command.c ****     {
 432:User/Src/command.c ****         UsbPrintf("[command] ´íÎóŁşFATFS Î´ąŇÔŘŁˇ\r\n");
 433:User/Src/command.c ****         return;
 434:User/Src/command.c ****     }
 435:User/Src/command.c **** 
 436:User/Src/command.c ****     UsbPrintf("\r\n******[command] żŞĘĽÎÄĽţĐ´Čë ******\r\n");
 437:User/Src/command.c ****     UsbPrintf("[command] ÎÄĽţĂű: %s\r\n", filename);
 438:User/Src/command.c ****     UsbPrintf("[command] ĘýľÝ: %s\r\n", write_data);
 439:User/Src/command.c ****     UsbPrintf("[command] ł¤¶Č: %d ×Ö˝Ú\r\n", data_len);
 440:User/Src/command.c **** 
 441:User/Src/command.c ****     f_close(&USERFile);
 442:User/Src/command.c ****     File_Write_Result_t write_result = {0};
 443:User/Src/command.c ****     retUSER = FatFs_FileWrite(filename, write_data, (UINT)data_len, &write_result);
 444:User/Src/command.c **** 
 445:User/Src/command.c ****     if (retUSER == FR_OK)
 446:User/Src/command.c ****     {
 447:User/Src/command.c ****         UsbPrintf("[command] Đ´ČëłÉą¦Łˇ×Ö˝ÚŁş%u\r\n", write_result.write_len);
 448:User/Src/command.c ****         UsbPrintf("[command] ÎÄĽţĆđĘĽ´ŘşĹŁş%lu  µ±Ç°Đ´Čë´ŘşĹŁş%lu\r\n",
 449:User/Src/command.c ****                   write_result.start_cluster, write_result.curr_cluster);
 450:User/Src/command.c ****         UsbPrintf("******[command] Đ´ČëÍęłÉ ******\r\n");
 451:User/Src/command.c ****     }
 452:User/Src/command.c ****     else
 453:User/Src/command.c ****     {
 454:User/Src/command.c ****         UsbPrintf("[command] Đ´ČëĘ§°ÜŁˇerr=%d \r\n", retUSER);
 455:User/Src/command.c ****         UsbPrintf("******[command] Đ´ČëĘ§°Ü ******\r\n");
 456:User/Src/command.c ****     }
 457:User/Src/command.c **** }
 458:User/Src/command.c **** 
 459:User/Src/command.c **** void AT_FATFS_READ_Handle(char* command)
 460:User/Src/command.c **** {
 461:User/Src/command.c ****     if (command == NULL || strlen(command) == 0)
 462:User/Src/command.c ****     {
 463:User/Src/command.c ****         UsbPrintf("[command] ´íÎóŁşÖ¸ÁîÎŞżŐŁˇ\r\n");
 464:User/Src/command.c ****         return;
 465:User/Src/command.c ****     }
 466:User/Src/command.c **** 
 467:User/Src/command.c ****     char filename[32] = {0};
 468:User/Src/command.c ****     if (!FatFs_ParseReadCmd(command, filename, sizeof(filename)))
 469:User/Src/command.c ****     {
ARM GAS  C:\Users\84759\AppData\Local\Temp\ccVSdzbq.s 			page 10


 470:User/Src/command.c ****         UsbPrintf("[command] ´íÎóŁşÖ¸Áî˝âÎöĘ§°Ü\r\n");
 471:User/Src/command.c ****         return;
 472:User/Src/command.c ****     }
 473:User/Src/command.c **** 
 474:User/Src/command.c ****     FatFs_Info_t fs_info = {0};
 475:User/Src/command.c ****     if (!FatFs_GetInfo(&fs_info))
 476:User/Src/command.c ****     {
 477:User/Src/command.c ****         UsbPrintf("[command] ´íÎóŁşFATFS Î´ąŇÔŘ\r\n");
 478:User/Src/command.c ****         return;
 479:User/Src/command.c ****     }
 480:User/Src/command.c **** 
 481:User/Src/command.c ****     f_close(&USERFile);
 482:User/Src/command.c ****     File_Read_Result_t read_result = {0};
 483:User/Src/command.c **** 
 484:User/Src/command.c ****     if (!FatFs_ReadFile(filename, &read_result, &fs_info))
 485:User/Src/command.c ****     {
 486:User/Src/command.c ****         UsbPrintf("[command] ¶ÁČˇÎÄĽţĘ§°ÜŁ¬´íÎóÂëŁş%d \r\n", read_result.res);
 487:User/Src/command.c ****         return;
 488:User/Src/command.c ****     }
 489:User/Src/command.c **** 
 490:User/Src/command.c ****     FatFs_PrintReadResult(filename, &fs_info, &read_result);
 491:User/Src/command.c **** }
 492:User/Src/command.c **** 
 493:User/Src/command.c **** void AT_FATFS_CluWrite_Handle(char* command)
 494:User/Src/command.c **** {
 495:User/Src/command.c ****     // 1. żŐÖ¸ÁîĽě˛é
 496:User/Src/command.c ****     if (command == NULL || strlen(command) == 0)
 497:User/Src/command.c ****     {
 498:User/Src/command.c ****         UsbPrintf("[command] ´íÎóŁşÖ¸ÁîÎŞżŐŁˇ\r\n");
 499:User/Src/command.c ****         return;
 500:User/Src/command.c ****     }
 501:User/Src/command.c **** 
 502:User/Src/command.c ****     // 2. Ö¸ÁîÍ·ĐŁŃé
 503:User/Src/command.c ****     char cmd_header[] = "AT^FATFS_CluWrite=";
 504:User/Src/command.c ****     uint16_t header_len = strlen(cmd_header);
 505:User/Src/command.c ****     if (strSearch(command, cmd_header) != 0)
 506:User/Src/command.c ****     {
 507:User/Src/command.c ****         UsbPrintf("[command] ´íÎóŁşÎŢĐ§¸ńĘ˝Łˇ\r\n");
 508:User/Src/command.c ****         UsbPrintf("[command] ÓĂ·¨ŁşAT^FATFS_CluWrite=<´ŘşĹ>,<ÎÄĽţĂű>,<ĘýľÝ>\r\n");
 509:User/Src/command.c ****         UsbPrintf("[command] ĘľŔýŁşAT^FATFS_CluWrite=2,test.txt,hello_fatfs\r\n");
 510:User/Src/command.c ****         return;
 511:User/Src/command.c ****     }
 512:User/Src/command.c **** 
 513:User/Src/command.c ****     // 3. ĚáČˇ˛ÎĘý¶Î˛˘Ľě˛é·Ö¸ô·ű
 514:User/Src/command.c ****     char* param_part = command + header_len;
 515:User/Src/command.c ****     if (strlen(param_part) == 0)
 516:User/Src/command.c ****     {
 517:User/Src/command.c ****         UsbPrintf("[command] ´íÎóŁş˛ÎĘýÎŞżŐŁˇ\r\n");
 518:User/Src/command.c ****         return;
 519:User/Src/command.c ****     }
 520:User/Src/command.c **** 
 521:User/Src/command.c ****     // ˛éŐŇÁ˝¸ö¶şşĹ·Ö¸ô·ű
 522:User/Src/command.c ****     char* comma1 = strchr(param_part, ',');
 523:User/Src/command.c ****     if (comma1 == NULL)
 524:User/Src/command.c ****     {
 525:User/Src/command.c ****         UsbPrintf("[command] ´íÎóŁşČ±ÉŮµÚŇ»¸ö¶şşĹ·Ö¸ô·űŁˇ\r\n");
 526:User/Src/command.c ****         return;
ARM GAS  C:\Users\84759\AppData\Local\Temp\ccVSdzbq.s 			page 11


 527:User/Src/command.c ****     }
 528:User/Src/command.c ****     char* comma2 = strchr(comma1 + 1, ',');
 529:User/Src/command.c ****     if (comma2 == NULL)
 530:User/Src/command.c ****     {
 531:User/Src/command.c ****         UsbPrintf("[command] ´íÎóŁşČ±ÉŮµÚ¶ţ¸ö¶şşĹ·Ö¸ô·űŁˇ\r\n");
 532:User/Src/command.c ****         return;
 533:User/Src/command.c ****     }
 534:User/Src/command.c **** 
 535:User/Src/command.c ****     // Ľě˛é˛ÎĘý¶ÎÍęŐűĐÔŁ¨·ŔÖą×îşóŇ»¶ÎĘýľÝÎŞżŐŁ©
 536:User/Src/command.c ****     if (strlen(comma2 + 1) == 0)
 537:User/Src/command.c ****     {
 538:User/Src/command.c ****         UsbPrintf("[command] ´íÎóŁşĐ´ČëĘýľÝ˛»ÄÜÎŞżŐŁˇ\r\n");
 539:User/Src/command.c ****         return;
 540:User/Src/command.c ****     }
 541:User/Src/command.c **** 
 542:User/Src/command.c ****     // 4. ĚáČˇ˛˘ĐŁŃé´ŘşĹŁ¨¸´ÓĂCharToIntą¤ľßşŻĘýŁ¬Ö§łÖĘ®˝řÖĆ/Ę®Áů˝řÖĆŁ©
 543:User/Src/command.c ****     int cluster_num = 0;
 544:User/Src/command.c ****     uint16_t cluster_valid = CharToInt(param_part, 0, &cluster_num);
 545:User/Src/command.c ****     if (!cluster_valid || cluster_num < 0)
 546:User/Src/command.c ****     {
 547:User/Src/command.c ****         UsbPrintf("[command] ´íÎóŁş´ŘşĹ¸ńĘ˝ÎŢĐ§Łˇ˝öÖ§łÖĘý×Ö/Ę®Áů˝řÖĆŁ¨0xżŞÍ·Ł©\r\n");
 548:User/Src/command.c ****         return;
 549:User/Src/command.c ****     }
 550:User/Src/command.c ****     DWORD cluster = (DWORD)cluster_num;
 551:User/Src/command.c **** 
 552:User/Src/command.c ****     // 5. ĚáČˇ˛˘ĐŁŃéÎÄĽţĂű
 553:User/Src/command.c ****     char filename[MAX_FILENAME_LEN + 1] = {0};
 554:User/Src/command.c ****     uint16_t filename_start = (uint16_t)(comma1 - param_part + 1);
 555:User/Src/command.c ****     uint16_t filename_len = (uint16_t)(comma2 - comma1 - 1);
 556:User/Src/command.c ****     
 557:User/Src/command.c ****     // Ľě˛éÎÄĽţĂűł¤¶Č
 558:User/Src/command.c ****     if (filename_len == 0 || filename_len > MAX_FILENAME_LEN)
 559:User/Src/command.c ****     {
 560:User/Src/command.c ****         UsbPrintf("[command] ´íÎóŁşÎÄĽţĂűł¤¶ČÎŢĐ§Ł¨×î´ó%d×Ö·űŁ©Łˇ\r\n", MAX_FILENAME_LEN);
 561:User/Src/command.c ****         return;
 562:User/Src/command.c ****     }
 563:User/Src/command.c ****     
 564:User/Src/command.c ****     // ż˝±´˛˘ĐŁŃéÎÄĽţĂű
 565:User/Src/command.c ****     if (!Data_copy_from_pos(filename, param_part, filename_start, filename_len))
 566:User/Src/command.c ****     {
 567:User/Src/command.c ****         UsbPrintf("[command] ´íÎóŁşĚáČˇÎÄĽţĂűĘ§°ÜŁˇ\r\n");
 568:User/Src/command.c ****         return;
 569:User/Src/command.c ****     }
 570:User/Src/command.c ****     if (!isFilenameValid(filename))
 571:User/Src/command.c ****     {
 572:User/Src/command.c ****         UsbPrintf("[command] ´íÎóŁşÎÄĽţĂű°üş¬·Ç·¨×Ö·űŁ¨/\\:*?\"<>|Ł©\r\n");
 573:User/Src/command.c ****         return;
 574:User/Src/command.c ****     }
 575:User/Src/command.c **** 
 576:User/Src/command.c ****     // 6. ĚáČˇ˛˘ĐŁŃéĐ´ČëĘýľÝ
 577:User/Src/command.c ****     uint16_t data_start = (uint16_t)(comma2 - param_part + 1);
 578:User/Src/command.c ****     uint16_t data_len = (uint16_t)strlen(param_part) - data_start;
 579:User/Src/command.c ****     
 580:User/Src/command.c ****     if (data_len == 0)
 581:User/Src/command.c ****     {
 582:User/Src/command.c ****         UsbPrintf("[command] ´íÎóŁşĐ´ČëĘýľÝÎŞżŐŁˇ\r\n");
 583:User/Src/command.c ****         return;
ARM GAS  C:\Users\84759\AppData\Local\Temp\ccVSdzbq.s 			page 12


 584:User/Src/command.c ****     }
 585:User/Src/command.c ****     if (data_len > MAX_WRITE_DATA_LEN)
 586:User/Src/command.c ****     {
 587:User/Src/command.c ****         UsbPrintf("[command] ľŻ¸ćŁşĘýľÝąýł¤Ł¬×Ô¶Ż˝Ř¶ĎÎŞ%d×Ö˝Ú\r\n", MAX_WRITE_DATA_LEN);
 588:User/Src/command.c ****         data_len = MAX_WRITE_DATA_LEN;
 589:User/Src/command.c ****     }
 590:User/Src/command.c ****     
 591:User/Src/command.c ****     char write_data[MAX_WRITE_DATA_LEN + 1] = {0};
 592:User/Src/command.c ****     if (!Data_copy_from_pos(write_data, param_part, data_start, data_len))
 593:User/Src/command.c ****     {
 594:User/Src/command.c ****         UsbPrintf("[command] ´íÎóŁşĚáČˇĐ´ČëĘýľÝĘ§°ÜŁˇ\r\n");
 595:User/Src/command.c ****         return;
 596:User/Src/command.c ****     }
 597:User/Src/command.c **** 
 598:User/Src/command.c ****     // 7. Ľě˛éFATFSąŇÔŘ×´Ě¬
 599:User/Src/command.c ****     FatFs_Info_t fs_info = {0};
 600:User/Src/command.c ****     if (!FatFs_GetInfo(&fs_info))
 601:User/Src/command.c ****     {
 602:User/Src/command.c ****         UsbPrintf("[command] ´íÎóŁşFATFS Î´ąŇÔŘŁˇ\r\n");
 603:User/Src/command.c ****         return;
 604:User/Src/command.c ****     }
 605:User/Src/command.c **** 
 606:User/Src/command.c ****     // 8. ´ŘşĹşĎ·¨ĐÔĐŁŃéŁ¨»ůÓÚFATFSĐĹĎ˘Ł©
 607:User/Src/command.c ****     if (cluster < 2 || cluster > fs_info.last_cluster)
 608:User/Src/command.c ****     {
 609:User/Src/command.c ****         UsbPrintf("[command] ľŻ¸ćŁş´ŘşĹ%luÔ˝˝çŁ¨ÓĐĐ§·¶Î§2~%luŁ©Ł¬×Ô¶ŻĘąÓĂ´Ř2\r\n", 
 610:User/Src/command.c ****                   cluster, fs_info.last_cluster);
 611:User/Src/command.c ****         cluster = 2;
 612:User/Src/command.c ****     }
 613:User/Src/command.c **** 
 614:User/Src/command.c ****     // 9. Ö´ĐĐ´ŘĐ´Čë˛Ů×÷
 615:User/Src/command.c ****     UsbPrintf("\r\n******[command] żŞĘĽ´ŘĐ´Čë˛Ů×÷ ******\r\n");
 616:User/Src/command.c ****     UsbPrintf("[command] Äż±ę´ŘşĹŁş%lu\r\n", cluster);
 617:User/Src/command.c ****     UsbPrintf("[command] Äż±ęÎÄĽţŁş%s\r\n", filename);
 618:User/Src/command.c ****     UsbPrintf("[command] Đ´ČëĘýľÝŁş%s\r\n", write_data);
 619:User/Src/command.c ****     UsbPrintf("[command] ĘýľÝł¤¶ČŁş%d ×Ö˝Ú\r\n", data_len);
 620:User/Src/command.c **** 
 621:User/Src/command.c ****     // ąŘ±ŐÎÄĽţ·ŔÖąŐĽÓĂ
 622:User/Src/command.c ****     f_close(&USERFile);
 623:User/Src/command.c ****     
 624:User/Src/command.c ****     File_Write_Result_t write_result = {0};
 625:User/Src/command.c ****     FRESULT write_res = FatFs_FileWrite_Cluster(filename, write_data, (UINT)data_len, cluster, &wri
 626:User/Src/command.c **** 
 627:User/Src/command.c ****     // 10. ˝áąű·´Ŕˇ
 628:User/Src/command.c ****     if (write_res == FR_OK && write_result.write_len > 0)
 629:User/Src/command.c ****     {
 630:User/Src/command.c ****         UsbPrintf("[command] ´ŘĐ´ČëłÉą¦Łˇ\r\n");
 631:User/Src/command.c ****         UsbPrintf("[command] ĘµĽĘĐ´Čë×Ö˝ÚŁş%u\r\n", write_result.write_len);
 632:User/Src/command.c ****         UsbPrintf("[command] ÎÄĽţĆđĘĽ´ŘşĹŁş%lu  µ±Ç°Đ´Čë´ŘşĹŁş%lu\r\n",
 633:User/Src/command.c ****                   write_result.start_cluster, write_result.curr_cluster);
 634:User/Src/command.c ****         UsbPrintf("******[command] ´ŘĐ´ČëÍęłÉ ******\r\n");
 635:User/Src/command.c ****     }
 636:User/Src/command.c ****     else
 637:User/Src/command.c ****     {
 638:User/Src/command.c ****         UsbPrintf("[command] ´ŘĐ´ČëĘ§°ÜŁˇ´íÎóÂëŁş%d\r\n", write_res);
 639:User/Src/command.c ****         UsbPrintf("******[command] ´ŘĐ´ČëĘ§°Ü ******\r\n");
 640:User/Src/command.c ****     }
ARM GAS  C:\Users\84759\AppData\Local\Temp\ccVSdzbq.s 			page 13


 641:User/Src/command.c **** }
 642:User/Src/command.c **** 
 643:User/Src/command.c **** static uint8_t is_leap_year(uint16_t year)
 644:User/Src/command.c **** {
  48              		.loc 1 644 1 is_stmt 1 view -0
  49              		.cfi_startproc
  50              		@ args = 0, pretend = 0, frame = 0
  51              		@ frame_needed = 0, uses_anonymous_args = 0
  52              		@ link register save eliminated.
 645:User/Src/command.c ****     return ((year % 4 == 0 && year % 100 != 0) || (year % 400 == 0)) ? 1 : 0;
  53              		.loc 1 645 5 view .LVU4
  54              		.loc 1 645 74 is_stmt 0 view .LVU5
  55 0000 10F0030F 		tst	r0, #3
  56 0004 08D1     		bne	.L3
  57              		.loc 1 645 42 discriminator 1 view .LVU6
  58 0006 0C4B     		ldr	r3, .L7
  59 0008 A3FB0023 		umull	r2, r3, r3, r0
  60 000c 5B09     		lsrs	r3, r3, #5
  61 000e 6422     		movs	r2, #100
  62 0010 02FB1303 		mls	r3, r2, r3, r0
  63 0014 9BB2     		uxth	r3, r3
  64              		.loc 1 645 28 discriminator 1 view .LVU7
  65 0016 5BB9     		cbnz	r3, .L5
  66              	.L3:
  67              		.loc 1 645 63 discriminator 4 view .LVU8
  68 0018 074B     		ldr	r3, .L7
  69 001a A3FB0023 		umull	r2, r3, r3, r0
  70 001e DB09     		lsrs	r3, r3, #7
  71 0020 4FF4C872 		mov	r2, #400
  72 0024 02FB1300 		mls	r0, r2, r3, r0
  73              	.LVL2:
  74              		.loc 1 645 63 discriminator 4 view .LVU9
  75 0028 80B2     		uxth	r0, r0
  76              		.loc 1 645 74 discriminator 4 view .LVU10
  77 002a 18B9     		cbnz	r0, .L6
  78              		.loc 1 645 74 view .LVU11
  79 002c 0120     		movs	r0, #1
  80 002e 7047     		bx	lr
  81              	.LVL3:
  82              	.L5:
  83              		.loc 1 645 74 view .LVU12
  84 0030 0120     		movs	r0, #1
  85              	.LVL4:
  86              		.loc 1 645 74 view .LVU13
  87 0032 7047     		bx	lr
  88              	.L6:
  89 0034 0020     		movs	r0, #0
 646:User/Src/command.c **** }
  90              		.loc 1 646 1 view .LVU14
  91 0036 7047     		bx	lr
  92              	.L8:
  93              		.align	2
  94              	.L7:
  95 0038 1F85EB51 		.word	1374389535
  96              		.cfi_endproc
  97              	.LFE83:
  99              		.section	.rodata.get_month_max_day.str1.4,"aMS",%progbits,1
ARM GAS  C:\Users\84759\AppData\Local\Temp\ccVSdzbq.s 			page 14


 100              		.align	2
 101              	.LC0:
 102 0000 1F1C1F1E 		.ascii	"\037\034\037\036\037\036\037\037\036\037\036\037\000"
 102      1F1E1F1F 
 102      1E1F1E1F 
 102      00
 103              		.section	.text.get_month_max_day,"ax",%progbits
 104              		.align	1
 105              		.syntax unified
 106              		.thumb
 107              		.thumb_func
 109              	get_month_max_day:
 110              	.LVL5:
 111              	.LFB84:
 647:User/Src/command.c **** 
 648:User/Src/command.c **** static uint8_t get_month_max_day(uint16_t year, uint8_t month)
 649:User/Src/command.c **** {
 112              		.loc 1 649 1 is_stmt 1 view -0
 113              		.cfi_startproc
 114              		@ args = 0, pretend = 0, frame = 16
 115              		@ frame_needed = 0, uses_anonymous_args = 0
 116              		.loc 1 649 1 is_stmt 0 view .LVU16
 117 0000 10B5     		push	{r4, lr}
 118              	.LCFI0:
 119              		.cfi_def_cfa_offset 8
 120              		.cfi_offset 4, -8
 121              		.cfi_offset 14, -4
 122 0002 84B0     		sub	sp, sp, #16
 123              	.LCFI1:
 124              		.cfi_def_cfa_offset 24
 125 0004 8446     		mov	ip, r0
 126 0006 0C46     		mov	r4, r1
 650:User/Src/command.c ****     const uint8_t day_max_table[12] = {31,28,31,30,31,30,31,31,30,31,30,31};
 127              		.loc 1 650 5 is_stmt 1 view .LVU17
 128              		.loc 1 650 19 is_stmt 0 view .LVU18
 129 0008 0E4B     		ldr	r3, .L16
 130 000a 93E80700 		ldm	r3, {r0, r1, r2}
 131              	.LVL6:
 132              		.loc 1 650 19 view .LVU19
 133 000e 04AB     		add	r3, sp, #16
 134 0010 03E90700 		stmdb	r3, {r0, r1, r2}
 651:User/Src/command.c ****     if (month < 1 || month > 12) return 0;
 135              		.loc 1 651 5 is_stmt 1 view .LVU20
 136              		.loc 1 651 19 is_stmt 0 view .LVU21
 137 0014 631E     		subs	r3, r4, #1
 138 0016 DBB2     		uxtb	r3, r3
 139              		.loc 1 651 8 view .LVU22
 140 0018 0B2B     		cmp	r3, #11
 141 001a 10D8     		bhi	.L12
 652:User/Src/command.c ****     if (month == 2 && is_leap_year(year)) return 29;
 142              		.loc 1 652 5 is_stmt 1 view .LVU23
 143              		.loc 1 652 8 is_stmt 0 view .LVU24
 144 001c 022C     		cmp	r4, #2
 145 001e 07D0     		beq	.L15
 146              	.L11:
 653:User/Src/command.c ****     return day_max_table[month - 1];
 147              		.loc 1 653 5 is_stmt 1 view .LVU25
ARM GAS  C:\Users\84759\AppData\Local\Temp\ccVSdzbq.s 			page 15


 148              		.loc 1 653 25 is_stmt 0 view .LVU26
 149 0020 04F10F03 		add	r3, r4, #15
 150 0024 0DEB0304 		add	r4, sp, r3
 151 0028 14F80C0C 		ldrb	r0, [r4, #-12]	@ zero_extendqisi2
 152              	.L10:
 654:User/Src/command.c **** }
 153              		.loc 1 654 1 view .LVU27
 154 002c 04B0     		add	sp, sp, #16
 155              	.LCFI2:
 156              		.cfi_remember_state
 157              		.cfi_def_cfa_offset 8
 158              		@ sp needed
 159 002e 10BD     		pop	{r4, pc}
 160              	.L15:
 161              	.LCFI3:
 162              		.cfi_restore_state
 652:User/Src/command.c ****     if (month == 2 && is_leap_year(year)) return 29;
 163              		.loc 1 652 23 discriminator 1 view .LVU28
 164 0030 6046     		mov	r0, ip
 165 0032 FFF7FEFF 		bl	is_leap_year
 166              	.LVL7:
 652:User/Src/command.c ****     if (month == 2 && is_leap_year(year)) return 29;
 167              		.loc 1 652 20 discriminator 1 view .LVU29
 168 0036 0028     		cmp	r0, #0
 169 0038 F2D0     		beq	.L11
 652:User/Src/command.c ****     if (month == 2 && is_leap_year(year)) return 29;
 170              		.loc 1 652 50 view .LVU30
 171 003a 1D20     		movs	r0, #29
 172 003c F6E7     		b	.L10
 173              	.L12:
 651:User/Src/command.c ****     if (month == 2 && is_leap_year(year)) return 29;
 174              		.loc 1 651 41 view .LVU31
 175 003e 0020     		movs	r0, #0
 176 0040 F4E7     		b	.L10
 177              	.L17:
 178 0042 00BF     		.align	2
 179              	.L16:
 180 0044 00000000 		.word	.LC0
 181              		.cfi_endproc
 182              	.LFE84:
 184              		.section	.rodata.AT_HELP_Handle.str1.4,"aMS",%progbits,1
 185              		.align	2
 186              	.LC1:
 187 0000 0D0A3D3D 		.ascii	"\015\012===== AT Command List =====\015\012\000"
 187      3D3D3D20 
 187      41542043 
 187      6F6D6D61 
 187      6E64204C 
 188              		.align	2
 189              	.LC2:
 190 0020 25642E20 		.ascii	"%d. %s\015\012\000"
 190      25730D0A 
 190      00
 191 0029 000000   		.align	2
 192              	.LC3:
 193 002c 3D3D3D3D 		.ascii	"===========================\015\012\000"
 193      3D3D3D3D 
ARM GAS  C:\Users\84759\AppData\Local\Temp\ccVSdzbq.s 			page 16


 193      3D3D3D3D 
 193      3D3D3D3D 
 193      3D3D3D3D 
 194 004a 0000     		.align	2
 195              	.LC4:
 196 004c 546F7461 		.ascii	"Total command number: %d\015\012\000"
 196      6C20636F 
 196      6D6D616E 
 196      64206E75 
 196      6D626572 
 197              		.section	.text.AT_HELP_Handle,"ax",%progbits
 198              		.align	1
 199              		.global	AT_HELP_Handle
 200              		.syntax unified
 201              		.thumb
 202              		.thumb_func
 204              	AT_HELP_Handle:
 205              	.LVL8:
 206              	.LFB73:
 224:User/Src/command.c ****     (void)command;
 207              		.loc 1 224 1 is_stmt 1 view -0
 208              		.cfi_startproc
 209              		@ args = 0, pretend = 0, frame = 0
 210              		@ frame_needed = 0, uses_anonymous_args = 0
 224:User/Src/command.c ****     (void)command;
 211              		.loc 1 224 1 is_stmt 0 view .LVU33
 212 0000 70B5     		push	{r4, r5, r6, lr}
 213              	.LCFI4:
 214              		.cfi_def_cfa_offset 16
 215              		.cfi_offset 4, -16
 216              		.cfi_offset 5, -12
 217              		.cfi_offset 6, -8
 218              		.cfi_offset 14, -4
 225:User/Src/command.c ****     int i = 0;
 219              		.loc 1 225 5 is_stmt 1 view .LVU34
 226:User/Src/command.c ****     int num = 0;
 220              		.loc 1 226 5 view .LVU35
 221              	.LVL9:
 227:User/Src/command.c **** 
 222              		.loc 1 227 5 view .LVU36
 229:User/Src/command.c ****     for (i = 0; i < MAX_COMMAND_NUMBER; i++)
 223              		.loc 1 229 5 view .LVU37
 224 0002 1048     		ldr	r0, .L24
 225              	.LVL10:
 229:User/Src/command.c ****     for (i = 0; i < MAX_COMMAND_NUMBER; i++)
 226              		.loc 1 229 5 is_stmt 0 view .LVU38
 227 0004 FFF7FEFF 		bl	UsbPrintf
 228              	.LVL11:
 230:User/Src/command.c ****     {
 229              		.loc 1 230 5 is_stmt 1 view .LVU39
 227:User/Src/command.c **** 
 230              		.loc 1 227 9 is_stmt 0 view .LVU40
 231 0008 0025     		movs	r5, #0
 230:User/Src/command.c ****     {
 232              		.loc 1 230 12 view .LVU41
 233 000a 2C46     		mov	r4, r5
 230:User/Src/command.c ****     {
ARM GAS  C:\Users\84759\AppData\Local\Temp\ccVSdzbq.s 			page 17


 234              		.loc 1 230 5 view .LVU42
 235 000c 00E0     		b	.L19
 236              	.LVL12:
 237              	.L20:
 230:User/Src/command.c ****     {
 238              		.loc 1 230 41 is_stmt 1 discriminator 2 view .LVU43
 230:User/Src/command.c ****     {
 239              		.loc 1 230 42 is_stmt 0 discriminator 2 view .LVU44
 240 000e 0134     		adds	r4, r4, #1
 241              	.LVL13:
 242              	.L19:
 230:User/Src/command.c ****     {
 243              		.loc 1 230 17 is_stmt 1 discriminator 1 view .LVU45
 230:User/Src/command.c ****     {
 244              		.loc 1 230 5 is_stmt 0 discriminator 1 view .LVU46
 245 0010 272C     		cmp	r4, #39
 246 0012 0EDC     		bgt	.L23
 232:User/Src/command.c ****         {
 247              		.loc 1 232 9 is_stmt 1 view .LVU47
 232:User/Src/command.c ****         {
 248              		.loc 1 232 31 is_stmt 0 view .LVU48
 249 0014 0C49     		ldr	r1, .L24+4
 250 0016 04EB8402 		add	r2, r4, r4, lsl #2
 251 001a 9300     		lsls	r3, r2, #2
 252 001c CA18     		adds	r2, r1, r3
 232:User/Src/command.c ****         {
 253              		.loc 1 232 36 view .LVU49
 254 001e CB5C     		ldrb	r3, [r1, r3]	@ zero_extendqisi2
 232:User/Src/command.c ****         {
 255              		.loc 1 232 12 view .LVU50
 256 0020 002B     		cmp	r3, #0
 257 0022 F4D0     		beq	.L20
 234:User/Src/command.c ****         }
 258              		.loc 1 234 13 is_stmt 1 view .LVU51
 259 0024 6E1C     		adds	r6, r5, #1
 260              	.LVL14:
 234:User/Src/command.c ****         }
 261              		.loc 1 234 13 is_stmt 0 view .LVU52
 262 0026 2946     		mov	r1, r5
 263 0028 0848     		ldr	r0, .L24+8
 264 002a FFF7FEFF 		bl	UsbPrintf
 265              	.LVL15:
 266 002e 3546     		mov	r5, r6
 267 0030 EDE7     		b	.L20
 268              	.LVL16:
 269              	.L23:
 237:User/Src/command.c ****     UsbPrintf("Total command number: %d\r\n", num);
 270              		.loc 1 237 5 is_stmt 1 view .LVU53
 271 0032 0748     		ldr	r0, .L24+12
 272 0034 FFF7FEFF 		bl	UsbPrintf
 273              	.LVL17:
 238:User/Src/command.c **** }
 274              		.loc 1 238 5 view .LVU54
 275 0038 2946     		mov	r1, r5
 276 003a 0648     		ldr	r0, .L24+16
 277 003c FFF7FEFF 		bl	UsbPrintf
 278              	.LVL18:
ARM GAS  C:\Users\84759\AppData\Local\Temp\ccVSdzbq.s 			page 18


 239:User/Src/command.c **** 
 279              		.loc 1 239 1 is_stmt 0 view .LVU55
 280 0040 70BD     		pop	{r4, r5, r6, pc}
 281              	.LVL19:
 282              	.L25:
 239:User/Src/command.c **** 
 283              		.loc 1 239 1 view .LVU56
 284 0042 00BF     		.align	2
 285              	.L24:
 286 0044 00000000 		.word	.LC1
 287 0048 00000000 		.word	.LANCHOR0
 288 004c 20000000 		.word	.LC2
 289 0050 2C000000 		.word	.LC3
 290 0054 4C000000 		.word	.LC4
 291              		.cfi_endproc
 292              	.LFE73:
 294              		.section	.text.AT_W25Q64_EraseChip_Handle,"ax",%progbits
 295              		.align	1
 296              		.global	AT_W25Q64_EraseChip_Handle
 297              		.syntax unified
 298              		.thumb
 299              		.thumb_func
 301              	AT_W25Q64_EraseChip_Handle:
 302              	.LVL20:
 303              	.LFB75:
 247:User/Src/command.c ****     (void)command;
 304              		.loc 1 247 1 is_stmt 1 view -0
 305              		.cfi_startproc
 306              		@ args = 0, pretend = 0, frame = 0
 307              		@ frame_needed = 0, uses_anonymous_args = 0
 247:User/Src/command.c ****     (void)command;
 308              		.loc 1 247 1 is_stmt 0 view .LVU58
 309 0000 08B5     		push	{r3, lr}
 310              	.LCFI5:
 311              		.cfi_def_cfa_offset 8
 312              		.cfi_offset 3, -8
 313              		.cfi_offset 14, -4
 248:User/Src/command.c ****     W25Q64_ChipErase();
 314              		.loc 1 248 5 is_stmt 1 view .LVU59
 249:User/Src/command.c **** }
 315              		.loc 1 249 5 view .LVU60
 316 0002 FFF7FEFF 		bl	W25Q64_ChipErase
 317              	.LVL21:
 250:User/Src/command.c **** 
 318              		.loc 1 250 1 is_stmt 0 view .LVU61
 319 0006 08BD     		pop	{r3, pc}
 320              		.cfi_endproc
 321              	.LFE75:
 323              		.section	.rodata.AT_FATFS_ListDir_Handle.str1.4,"aMS",%progbits,1
 324              		.align	2
 325              	.LC5:
 326 0000 0D0A2D2D 		.ascii	"\015\012--- \312\261\274\344\243\272%02d:%02d:%02d "
 326      2D20CAB1 
 326      BCE4A3BA 
 326      25303264 
 326      3A253032 
 327 001b 2D2D2D00 		.ascii	"---\000"
ARM GAS  C:\Users\84759\AppData\Local\Temp\ccVSdzbq.s 			page 19


 328              		.section	.text.AT_FATFS_ListDir_Handle,"ax",%progbits
 329              		.align	1
 330              		.global	AT_FATFS_ListDir_Handle
 331              		.syntax unified
 332              		.thumb
 333              		.thumb_func
 335              	AT_FATFS_ListDir_Handle:
 336              	.LVL22:
 337              	.LFB76:
 253:User/Src/command.c ****     (void)command;
 338              		.loc 1 253 1 is_stmt 1 view -0
 339              		.cfi_startproc
 340              		@ args = 0, pretend = 0, frame = 8
 341              		@ frame_needed = 0, uses_anonymous_args = 0
 253:User/Src/command.c ****     (void)command;
 342              		.loc 1 253 1 is_stmt 0 view .LVU63
 343 0000 00B5     		push	{lr}
 344              	.LCFI6:
 345              		.cfi_def_cfa_offset 4
 346              		.cfi_offset 14, -4
 347 0002 83B0     		sub	sp, sp, #12
 348              	.LCFI7:
 349              		.cfi_def_cfa_offset 16
 254:User/Src/command.c ****     uint8_t hh, mm, ss;
 350              		.loc 1 254 5 is_stmt 1 view .LVU64
 255:User/Src/command.c ****     RTC_GetCurrentTime(&hh, &mm, &ss);
 351              		.loc 1 255 5 view .LVU65
 256:User/Src/command.c ****     UsbPrintf("\r\n--- Ę±ĽäŁş%02d:%02d:%02d ---", hh, mm, ss);
 352              		.loc 1 256 5 view .LVU66
 353 0004 0DF10502 		add	r2, sp, #5
 354 0008 0DF10601 		add	r1, sp, #6
 355 000c 0DF10700 		add	r0, sp, #7
 356              	.LVL23:
 256:User/Src/command.c ****     UsbPrintf("\r\n--- Ę±ĽäŁş%02d:%02d:%02d ---", hh, mm, ss);
 357              		.loc 1 256 5 is_stmt 0 view .LVU67
 358 0010 FFF7FEFF 		bl	RTC_GetCurrentTime
 359              	.LVL24:
 257:User/Src/command.c ****     FatFs_ListDir();
 360              		.loc 1 257 5 is_stmt 1 view .LVU68
 361 0014 9DF80530 		ldrb	r3, [sp, #5]	@ zero_extendqisi2
 362 0018 9DF80620 		ldrb	r2, [sp, #6]	@ zero_extendqisi2
 363 001c 9DF80710 		ldrb	r1, [sp, #7]	@ zero_extendqisi2
 364 0020 0348     		ldr	r0, .L30
 365 0022 FFF7FEFF 		bl	UsbPrintf
 366              	.LVL25:
 258:User/Src/command.c **** }
 367              		.loc 1 258 5 view .LVU69
 368 0026 FFF7FEFF 		bl	FatFs_ListDir
 369              	.LVL26:
 259:User/Src/command.c **** 
 370              		.loc 1 259 1 is_stmt 0 view .LVU70
 371 002a 03B0     		add	sp, sp, #12
 372              	.LCFI8:
 373              		.cfi_def_cfa_offset 4
 374              		@ sp needed
 375 002c 5DF804FB 		ldr	pc, [sp], #4
 376              	.L31:
ARM GAS  C:\Users\84759\AppData\Local\Temp\ccVSdzbq.s 			page 20


 377              		.align	2
 378              	.L30:
 379 0030 00000000 		.word	.LC5
 380              		.cfi_endproc
 381              	.LFE76:
 383              		.section	.text.AT_FATFS_MOUNT_Handle,"ax",%progbits
 384              		.align	1
 385              		.global	AT_FATFS_MOUNT_Handle
 386              		.syntax unified
 387              		.thumb
 388              		.thumb_func
 390              	AT_FATFS_MOUNT_Handle:
 391              	.LVL27:
 392              	.LFB78:
 336:User/Src/command.c ****     (void)command;
 393              		.loc 1 336 1 is_stmt 1 view -0
 394              		.cfi_startproc
 395              		@ args = 0, pretend = 0, frame = 0
 396              		@ frame_needed = 0, uses_anonymous_args = 0
 336:User/Src/command.c ****     (void)command;
 397              		.loc 1 336 1 is_stmt 0 view .LVU72
 398 0000 08B5     		push	{r3, lr}
 399              	.LCFI9:
 400              		.cfi_def_cfa_offset 8
 401              		.cfi_offset 3, -8
 402              		.cfi_offset 14, -4
 337:User/Src/command.c ****     FatFs_Mount();
 403              		.loc 1 337 5 is_stmt 1 view .LVU73
 338:User/Src/command.c **** }
 404              		.loc 1 338 5 view .LVU74
 405 0002 FFF7FEFF 		bl	FatFs_Mount
 406              	.LVL28:
 339:User/Src/command.c **** 
 407              		.loc 1 339 1 is_stmt 0 view .LVU75
 408 0006 08BD     		pop	{r3, pc}
 409              		.cfi_endproc
 410              	.LFE78:
 412              		.section	.text.AT_FATFS_FORMAT_Handle,"ax",%progbits
 413              		.align	1
 414              		.global	AT_FATFS_FORMAT_Handle
 415              		.syntax unified
 416              		.thumb
 417              		.thumb_func
 419              	AT_FATFS_FORMAT_Handle:
 420              	.LVL29:
 421              	.LFB79:
 342:User/Src/command.c ****     (void)command;
 422              		.loc 1 342 1 is_stmt 1 view -0
 423              		.cfi_startproc
 424              		@ args = 0, pretend = 0, frame = 0
 425              		@ frame_needed = 0, uses_anonymous_args = 0
 342:User/Src/command.c ****     (void)command;
 426              		.loc 1 342 1 is_stmt 0 view .LVU77
 427 0000 08B5     		push	{r3, lr}
 428              	.LCFI10:
 429              		.cfi_def_cfa_offset 8
 430              		.cfi_offset 3, -8
ARM GAS  C:\Users\84759\AppData\Local\Temp\ccVSdzbq.s 			page 21


 431              		.cfi_offset 14, -4
 343:User/Src/command.c ****     FatFs_Format();
 432              		.loc 1 343 5 is_stmt 1 view .LVU78
 344:User/Src/command.c **** }
 433              		.loc 1 344 5 view .LVU79
 434 0002 FFF7FEFF 		bl	FatFs_Format
 435              	.LVL30:
 345:User/Src/command.c **** 
 436              		.loc 1 345 1 is_stmt 0 view .LVU80
 437 0006 08BD     		pop	{r3, pc}
 438              		.cfi_endproc
 439              	.LFE79:
 441              		.section	.rodata.AT_FATFS_READ_Handle.str1.4,"aMS",%progbits,1
 442              		.align	2
 443              	.LC6:
 444 0000 5B636F6D 		.ascii	"[command] \264\355\316\363\243\272\326\270\301\356\316"
 444      6D616E64 
 444      5D20B4ED 
 444      CEF3A3BA 
 444      D6B8C1EE 
 445 0015 AABFD5A3 		.ascii	"\252\277\325\243\241\015\012\000"
 445      A10D0A00 
 446 001d 000000   		.align	2
 447              	.LC7:
 448 0020 5B636F6D 		.ascii	"[command] \264\355\316\363\243\272\326\270\301\356\275"
 448      6D616E64 
 448      5D20B4ED 
 448      CEF3A3BA 
 448      D6B8C1EE 
 449 0035 E2CEF6CA 		.ascii	"\342\316\366\312\247\260\334\015\012\000"
 449      A7B0DC0D 
 449      0A00
 450 003f 00       		.align	2
 451              	.LC8:
 452 0040 5B636F6D 		.ascii	"[command] \264\355\316\363\243\272FATFS \316\264\271"
 452      6D616E64 
 452      5D20B4ED 
 452      CEF3A3BA 
 452      46415446 
 453 0059 D2D4D80D 		.ascii	"\322\324\330\015\012\000"
 453      0A00
 454 005f 00       		.align	2
 455              	.LC9:
 456 0060 5B636F6D 		.ascii	"[command] \266\301\310\241\316\304\274\376\312\247\260"
 456      6D616E64 
 456      5D20B6C1 
 456      C8A1CEC4 
 456      BCFECAA7 
 457 0075 DCA3ACB4 		.ascii	"\334\243\254\264\355\316\363\302\353\243\272%d \015"
 457      EDCEF3C2 
 457      EBA3BA25 
 457      64200D
 458 0084 0A00     		.ascii	"\012\000"
 459              		.section	.text.AT_FATFS_READ_Handle,"ax",%progbits
 460              		.align	1
 461              		.global	AT_FATFS_READ_Handle
 462              		.syntax unified
ARM GAS  C:\Users\84759\AppData\Local\Temp\ccVSdzbq.s 			page 22


 463              		.thumb
 464              		.thumb_func
 466              	AT_FATFS_READ_Handle:
 467              	.LVL31:
 468              	.LFB81:
 460:User/Src/command.c ****     if (command == NULL || strlen(command) == 0)
 469              		.loc 1 460 1 is_stmt 1 view -0
 470              		.cfi_startproc
 471              		@ args = 0, pretend = 0, frame = 4184
 472              		@ frame_needed = 0, uses_anonymous_args = 0
 460:User/Src/command.c ****     if (command == NULL || strlen(command) == 0)
 473              		.loc 1 460 1 is_stmt 0 view .LVU82
 474 0000 00B5     		push	{lr}
 475              	.LCFI11:
 476              		.cfi_def_cfa_offset 4
 477              		.cfi_offset 14, -4
 478 0002 ADF5825D 		sub	sp, sp, #4160
 479              	.LCFI12:
 480              		.cfi_def_cfa_offset 4164
 481 0006 87B0     		sub	sp, sp, #28
 482              	.LCFI13:
 483              		.cfi_def_cfa_offset 4192
 461:User/Src/command.c ****     {
 484              		.loc 1 461 5 is_stmt 1 view .LVU83
 461:User/Src/command.c ****     {
 485              		.loc 1 461 8 is_stmt 0 view .LVU84
 486 0008 08B1     		cbz	r0, .L37
 461:User/Src/command.c ****     {
 487              		.loc 1 461 44 discriminator 1 view .LVU85
 488 000a 0378     		ldrb	r3, [r0]	@ zero_extendqisi2
 461:User/Src/command.c ****     {
 489              		.loc 1 461 25 discriminator 1 view .LVU86
 490 000c 3BB9     		cbnz	r3, .L38
 491              	.L37:
 463:User/Src/command.c ****         return;
 492              		.loc 1 463 9 is_stmt 1 view .LVU87
 493 000e 2B48     		ldr	r0, .L48
 494              	.LVL32:
 463:User/Src/command.c ****         return;
 495              		.loc 1 463 9 is_stmt 0 view .LVU88
 496 0010 FFF7FEFF 		bl	UsbPrintf
 497              	.LVL33:
 464:User/Src/command.c ****     }
 498              		.loc 1 464 9 is_stmt 1 view .LVU89
 499              	.L36:
 491:User/Src/command.c **** 
 500              		.loc 1 491 1 is_stmt 0 view .LVU90
 501 0014 0DF5825D 		add	sp, sp, #4160
 502 0018 07B0     		add	sp, sp, #28
 503              	.LCFI14:
 504              		.cfi_remember_state
 505              		.cfi_def_cfa_offset 4
 506              		@ sp needed
 507 001a 5DF804FB 		ldr	pc, [sp], #4
 508              	.LVL34:
 509              	.L38:
 510              	.LCFI15:
ARM GAS  C:\Users\84759\AppData\Local\Temp\ccVSdzbq.s 			page 23


 511              		.cfi_restore_state
 467:User/Src/command.c ****     if (!FatFs_ParseReadCmd(command, filename, sizeof(filename)))
 512              		.loc 1 467 5 is_stmt 1 view .LVU91
 467:User/Src/command.c ****     if (!FatFs_ParseReadCmd(command, filename, sizeof(filename)))
 513              		.loc 1 467 10 is_stmt 0 view .LVU92
 514 001e 0023     		movs	r3, #0
 515 0020 0DF58152 		add	r2, sp, #4128
 516 0024 1832     		adds	r2, r2, #24
 517 0026 1360     		str	r3, [r2]
 518 0028 0DF58152 		add	r2, sp, #4128
 519 002c 1C32     		adds	r2, r2, #28
 520 002e 1360     		str	r3, [r2]
 521 0030 5360     		str	r3, [r2, #4]
 522 0032 9360     		str	r3, [r2, #8]
 523 0034 D360     		str	r3, [r2, #12]
 524 0036 1361     		str	r3, [r2, #16]
 525 0038 5361     		str	r3, [r2, #20]
 526 003a 9361     		str	r3, [r2, #24]
 468:User/Src/command.c ****     {
 527              		.loc 1 468 5 is_stmt 1 view .LVU93
 468:User/Src/command.c ****     {
 528              		.loc 1 468 10 is_stmt 0 view .LVU94
 529 003c 2022     		movs	r2, #32
 530 003e 0DF58151 		add	r1, sp, #4128
 531 0042 1831     		adds	r1, r1, #24
 532 0044 FFF7FEFF 		bl	FatFs_ParseReadCmd
 533              	.LVL35:
 468:User/Src/command.c ****     {
 534              		.loc 1 468 8 view .LVU95
 535 0048 48B3     		cbz	r0, .L45
 474:User/Src/command.c ****     if (!FatFs_GetInfo(&fs_info))
 536              		.loc 1 474 5 is_stmt 1 view .LVU96
 474:User/Src/command.c ****     if (!FatFs_GetInfo(&fs_info))
 537              		.loc 1 474 18 is_stmt 0 view .LVU97
 538 004a 2022     		movs	r2, #32
 539 004c 0021     		movs	r1, #0
 540 004e 0DF58050 		add	r0, sp, #4096
 541 0052 1830     		adds	r0, r0, #24
 542 0054 FFF7FEFF 		bl	memset
 543              	.LVL36:
 475:User/Src/command.c ****     {
 544              		.loc 1 475 5 is_stmt 1 view .LVU98
 475:User/Src/command.c ****     {
 545              		.loc 1 475 10 is_stmt 0 view .LVU99
 546 0058 0DF58050 		add	r0, sp, #4096
 547 005c 1830     		adds	r0, r0, #24
 548 005e FFF7FEFF 		bl	FatFs_GetInfo
 549              	.LVL37:
 475:User/Src/command.c ****     {
 550              		.loc 1 475 8 view .LVU100
 551 0062 00B3     		cbz	r0, .L46
 481:User/Src/command.c ****     File_Read_Result_t read_result = {0};
 552              		.loc 1 481 5 is_stmt 1 view .LVU101
 553 0064 1648     		ldr	r0, .L48+4
 554 0066 FFF7FEFF 		bl	f_close
 555              	.LVL38:
 482:User/Src/command.c **** 
ARM GAS  C:\Users\84759\AppData\Local\Temp\ccVSdzbq.s 			page 24


 556              		.loc 1 482 5 view .LVU102
 482:User/Src/command.c **** 
 557              		.loc 1 482 24 is_stmt 0 view .LVU103
 558 006a 41F21802 		movw	r2, #4120
 559 006e 0021     		movs	r1, #0
 560 0070 6846     		mov	r0, sp
 561 0072 FFF7FEFF 		bl	memset
 562              	.LVL39:
 484:User/Src/command.c ****     {
 563              		.loc 1 484 5 is_stmt 1 view .LVU104
 484:User/Src/command.c ****     {
 564              		.loc 1 484 10 is_stmt 0 view .LVU105
 565 0076 0DF58052 		add	r2, sp, #4096
 566 007a 1832     		adds	r2, r2, #24
 567 007c 6946     		mov	r1, sp
 568 007e 0DF58150 		add	r0, sp, #4128
 569 0082 1830     		adds	r0, r0, #24
 570 0084 FFF7FEFF 		bl	FatFs_ReadFile
 571              	.LVL40:
 484:User/Src/command.c ****     {
 572              		.loc 1 484 8 view .LVU106
 573 0088 88B1     		cbz	r0, .L47
 490:User/Src/command.c **** }
 574              		.loc 1 490 5 is_stmt 1 view .LVU107
 575 008a 6A46     		mov	r2, sp
 576 008c 0DF58051 		add	r1, sp, #4096
 577 0090 1831     		adds	r1, r1, #24
 578 0092 0DF58150 		add	r0, sp, #4128
 579 0096 1830     		adds	r0, r0, #24
 580 0098 FFF7FEFF 		bl	FatFs_PrintReadResult
 581              	.LVL41:
 582 009c BAE7     		b	.L36
 583              	.L45:
 470:User/Src/command.c ****         return;
 584              		.loc 1 470 9 view .LVU108
 585 009e 0948     		ldr	r0, .L48+8
 586 00a0 FFF7FEFF 		bl	UsbPrintf
 587              	.LVL42:
 471:User/Src/command.c ****     }
 588              		.loc 1 471 9 view .LVU109
 589 00a4 B6E7     		b	.L36
 590              	.L46:
 477:User/Src/command.c ****         return;
 591              		.loc 1 477 9 view .LVU110
 592 00a6 0848     		ldr	r0, .L48+12
 593 00a8 FFF7FEFF 		bl	UsbPrintf
 594              	.LVL43:
 478:User/Src/command.c ****     }
 595              		.loc 1 478 9 view .LVU111
 596 00ac B2E7     		b	.L36
 597              	.L47:
 486:User/Src/command.c ****         return;
 598              		.loc 1 486 9 view .LVU112
 599 00ae 9DF80010 		ldrb	r1, [sp, #0]	@ zero_extendqisi2
 600 00b2 0648     		ldr	r0, .L48+16
 601 00b4 FFF7FEFF 		bl	UsbPrintf
 602              	.LVL44:
ARM GAS  C:\Users\84759\AppData\Local\Temp\ccVSdzbq.s 			page 25


 487:User/Src/command.c ****     }
 603              		.loc 1 487 9 view .LVU113
 604 00b8 ACE7     		b	.L36
 605              	.L49:
 606 00ba 00BF     		.align	2
 607              	.L48:
 608 00bc 00000000 		.word	.LC6
 609 00c0 00000000 		.word	USERFile
 610 00c4 20000000 		.word	.LC7
 611 00c8 40000000 		.word	.LC8
 612 00cc 60000000 		.word	.LC9
 613              		.cfi_endproc
 614              	.LFE81:
 616              		.section	.text.strSearch,"ax",%progbits
 617              		.align	1
 618              		.global	strSearch
 619              		.syntax unified
 620              		.thumb
 621              		.thumb_func
 623              	strSearch:
 624              	.LVL45:
 625              	.LFB68:
  48:User/Src/command.c ****     int len_source = strlen(source);
 626              		.loc 1 48 1 view -0
 627              		.cfi_startproc
 628              		@ args = 0, pretend = 0, frame = 0
 629              		@ frame_needed = 0, uses_anonymous_args = 0
  48:User/Src/command.c ****     int len_source = strlen(source);
 630              		.loc 1 48 1 is_stmt 0 view .LVU115
 631 0000 70B5     		push	{r4, r5, r6, lr}
 632              	.LCFI16:
 633              		.cfi_def_cfa_offset 16
 634              		.cfi_offset 4, -16
 635              		.cfi_offset 5, -12
 636              		.cfi_offset 6, -8
 637              		.cfi_offset 14, -4
 638 0002 0546     		mov	r5, r0
 639 0004 0C46     		mov	r4, r1
  49:User/Src/command.c ****     int len_target = strlen(target);
 640              		.loc 1 49 5 is_stmt 1 view .LVU116
  49:User/Src/command.c ****     int len_target = strlen(target);
 641              		.loc 1 49 22 is_stmt 0 view .LVU117
 642 0006 FFF7FEFF 		bl	strlen
 643              	.LVL46:
  49:User/Src/command.c ****     int len_target = strlen(target);
 644              		.loc 1 49 22 view .LVU118
 645 000a 0646     		mov	r6, r0
 646              	.LVL47:
  50:User/Src/command.c ****     int i, j;
 647              		.loc 1 50 5 is_stmt 1 view .LVU119
  50:User/Src/command.c ****     int i, j;
 648              		.loc 1 50 22 is_stmt 0 view .LVU120
 649 000c 2046     		mov	r0, r4
 650              	.LVL48:
  50:User/Src/command.c ****     int i, j;
 651              		.loc 1 50 22 view .LVU121
 652 000e FFF7FEFF 		bl	strlen
ARM GAS  C:\Users\84759\AppData\Local\Temp\ccVSdzbq.s 			page 26


 653              	.LVL49:
  51:User/Src/command.c **** 
 654              		.loc 1 51 5 is_stmt 1 view .LVU122
  53:User/Src/command.c ****         return -1;
 655              		.loc 1 53 5 view .LVU123
  53:User/Src/command.c ****         return -1;
 656              		.loc 1 53 8 is_stmt 0 view .LVU124
 657 0012 8642     		cmp	r6, r0
 658 0014 17DB     		blt	.L56
 659 0016 0146     		mov	r1, r0
  53:User/Src/command.c ****         return -1;
 660              		.loc 1 53 33 discriminator 1 view .LVU125
 661 0018 C0B1     		cbz	r0, .L57
  56:User/Src/command.c ****     {
 662              		.loc 1 56 12 view .LVU126
 663 001a 0020     		movs	r0, #0
 664              	.LVL50:
  56:User/Src/command.c ****     {
 665              		.loc 1 56 12 view .LVU127
 666 001c 02E0     		b	.L52
 667              	.LVL51:
 668              	.L53:
  63:User/Src/command.c ****             return i;
 669              		.loc 1 63 9 is_stmt 1 view .LVU128
  63:User/Src/command.c ****             return i;
 670              		.loc 1 63 12 is_stmt 0 view .LVU129
 671 001e 8B42     		cmp	r3, r1
 672 0020 10D0     		beq	.L50
  56:User/Src/command.c ****     {
 673              		.loc 1 56 47 is_stmt 1 discriminator 2 view .LVU130
  56:User/Src/command.c ****     {
 674              		.loc 1 56 48 is_stmt 0 discriminator 2 view .LVU131
 675 0022 0130     		adds	r0, r0, #1
 676              	.LVL52:
 677              	.L52:
  56:User/Src/command.c ****     {
 678              		.loc 1 56 17 is_stmt 1 discriminator 1 view .LVU132
  56:User/Src/command.c ****     {
 679              		.loc 1 56 33 is_stmt 0 discriminator 1 view .LVU133
 680 0024 731A     		subs	r3, r6, r1
  56:User/Src/command.c ****     {
 681              		.loc 1 56 5 discriminator 1 view .LVU134
 682 0026 8342     		cmp	r3, r0
 683 0028 0ADB     		blt	.L60
  58:User/Src/command.c ****         {
 684              		.loc 1 58 16 view .LVU135
 685 002a 0023     		movs	r3, #0
 686              	.L55:
 687              	.LVL53:
  58:User/Src/command.c ****         {
 688              		.loc 1 58 21 is_stmt 1 discriminator 1 view .LVU136
  58:User/Src/command.c ****         {
 689              		.loc 1 58 9 is_stmt 0 discriminator 1 view .LVU137
 690 002c 8B42     		cmp	r3, r1
 691 002e F6DA     		bge	.L53
  60:User/Src/command.c ****                 break;
 692              		.loc 1 60 13 is_stmt 1 view .LVU138
ARM GAS  C:\Users\84759\AppData\Local\Temp\ccVSdzbq.s 			page 27


  60:User/Src/command.c ****                 break;
 693              		.loc 1 60 26 is_stmt 0 view .LVU139
 694 0030 C218     		adds	r2, r0, r3
  60:User/Src/command.c ****                 break;
 695              		.loc 1 60 23 view .LVU140
 696 0032 15F802C0 		ldrb	ip, [r5, r2]	@ zero_extendqisi2
  60:User/Src/command.c ****                 break;
 697              		.loc 1 60 40 view .LVU141
 698 0036 E25C     		ldrb	r2, [r4, r3]	@ zero_extendqisi2
  60:User/Src/command.c ****                 break;
 699              		.loc 1 60 16 view .LVU142
 700 0038 9445     		cmp	ip, r2
 701 003a F0D1     		bne	.L53
  58:User/Src/command.c ****         {
 702              		.loc 1 58 37 is_stmt 1 discriminator 2 view .LVU143
  58:User/Src/command.c ****         {
 703              		.loc 1 58 38 is_stmt 0 discriminator 2 view .LVU144
 704 003c 0133     		adds	r3, r3, #1
 705              	.LVL54:
  58:User/Src/command.c ****         {
 706              		.loc 1 58 38 discriminator 2 view .LVU145
 707 003e F5E7     		b	.L55
 708              	.LVL55:
 709              	.L60:
  66:User/Src/command.c **** }
 710              		.loc 1 66 12 view .LVU146
 711 0040 4FF0FF30 		mov	r0, #-1
 712              	.LVL56:
 713              	.L50:
  67:User/Src/command.c **** 
 714              		.loc 1 67 1 view .LVU147
 715 0044 70BD     		pop	{r4, r5, r6, pc}
 716              	.LVL57:
 717              	.L56:
  54:User/Src/command.c **** 
 718              		.loc 1 54 16 view .LVU148
 719 0046 4FF0FF30 		mov	r0, #-1
 720              	.LVL58:
  54:User/Src/command.c **** 
 721              		.loc 1 54 16 view .LVU149
 722 004a FBE7     		b	.L50
 723              	.LVL59:
 724              	.L57:
  54:User/Src/command.c **** 
 725              		.loc 1 54 16 view .LVU150
 726 004c 4FF0FF30 		mov	r0, #-1
 727              	.LVL60:
  54:User/Src/command.c **** 
 728              		.loc 1 54 16 view .LVU151
 729 0050 F8E7     		b	.L50
 730              		.cfi_endproc
 731              	.LFE68:
 733              		.section	.rodata.AT_FATFS_GetTime_Handle.str1.4,"aMS",%progbits,1
 734              		.align	2
 735              	.LC11:
 736 0000 5B636F6D 		.ascii	"[command] \264\355\316\363\243\272\270\361\312\275\264"
 736      6D616E64 
ARM GAS  C:\Users\84759\AppData\Local\Temp\ccVSdzbq.s 			page 28


 736      5D20B4ED 
 736      CEF3A3BA 
 736      B8F1CABD 
 737 0015 EDCEF3A3 		.ascii	"\355\316\363\243\241\323\303\267\250\243\272\015\012"
 737      A1D3C3B7 
 737      A8A3BA0D 
 737      0A
 738 0022 00       		.ascii	"\000"
 739 0023 00       		.align	2
 740              	.LC12:
 741 0024 2020CDEA 		.ascii	"  \315\352\325\373\270\361\312\275\243\272AT^FATFS_"
 741      D5FBB8F1 
 741      CABDA3BA 
 741      41545E46 
 741      41544653 
 742 0039 47657454 		.ascii	"GetTime=\304\352,\324\302,\310\325,\312\261,\267\326"
 742      696D653D 
 742      C4EA2CD4 
 742      C22CC8D5 
 742      2CCAB12C 
 743 004f 2CC3EB0D 		.ascii	",\303\353\015\012\000"
 743      0A00
 744 0055 000000   		.align	2
 745              	.LC13:
 746 0058 2020BCF2 		.ascii	"  \274\362\273\257\270\361\312\275\243\272AT^FATFS_"
 746      BBAFB8F1 
 746      CABDA3BA 
 746      41545E46 
 746      41544653 
 747 006d 47657454 		.ascii	"GetTime=\304\352,\324\302,\310\325\243\250\312\261\267"
 747      696D653D 
 747      C4EA2CD4 
 747      C22CC8D5 
 747      A3A8CAB1 
 748 0082 D6C3EBC4 		.ascii	"\326\303\353\304\254\310\3170\243\251\015\012\000"
 748      ACC8CF30 
 748      A3A90D0A 
 748      00
 749 008f 00       		.align	2
 750              	.LC14:
 751 0090 5B636F6D 		.ascii	"[command] \264\355\316\363\243\272\326\301\311\331\314"
 751      6D616E64 
 751      5D20B4ED 
 751      CEF3A3BA 
 751      D6C1C9D9 
 752 00a5 EED0B4C4 		.ascii	"\356\320\264\304\352,\324\302,\310\325\243\241\015\012"
 752      EA2CD4C2 
 752      2CC8D5A3 
 752      A10D0A
 753 00b4 00       		.ascii	"\000"
 754 00b5 000000   		.align	2
 755              	.LC15:
 756 00b8 5B636F6D 		.ascii	"[command] \264\355\316\363\243\272\262\316\312\375\270"
 756      6D616E64 
 756      5D20B4ED 
 756      CEF3A3BA 
 756      B2CECAFD 
ARM GAS  C:\Users\84759\AppData\Local\Temp\ccVSdzbq.s 			page 29


 757 00cd F6CAFDB4 		.ascii	"\366\312\375\264\355\316\363\243\241\015\012\000"
 757      EDCEF3A3 
 757      A10D0A00 
 758 00d9 000000   		.align	2
 759              	.LC16:
 760 00dc 5B636F6D 		.ascii	"[command] \264\355\316\363\243\272\304\352\267\335\316"
 760      6D616E64 
 760      5D20B4ED 
 760      CEF3A3BA 
 760      C4EAB7DD 
 761 00f1 DED0A7A3 		.ascii	"\336\320\247\243\241\267\266\316\2471980~2107\015\012"
 761      A1B7B6CE 
 761      A7313938 
 761      307E3231 
 761      30370D0A 
 762 0105 00       		.ascii	"\000"
 763 0106 0000     		.align	2
 764              	.LC17:
 765 0108 5B636F6D 		.ascii	"[command] \264\355\316\363\243\272\324\302\267\335\316"
 765      6D616E64 
 765      5D20B4ED 
 765      CEF3A3BA 
 765      D4C2B7DD 
 766 011d DED0A7A3 		.ascii	"\336\320\247\243\241\267\266\316\2471~12\015\012\000"
 766      A1B7B6CE 
 766      A7317E31 
 766      320D0A00 
 767 012d 000000   		.align	2
 768              	.LC18:
 769 0130 5B636F6D 		.ascii	"[command] \264\355\316\363\243\272\310\325\306\332\316"
 769      6D616E64 
 769      5D20B4ED 
 769      CEF3A3BA 
 769      C8D5C6DA 
 770 0145 DED0A7A3 		.ascii	"\336\320\247\243\241%d\304\352%d\324\302\327\356\264"
 770      A12564C4 
 770      EA2564D4 
 770      C2D7EEB4 
 771 0155 F3CCECCA 		.ascii	"\363\314\354\312\375\316\252%d\015\012\000"
 771      FDCEAA25 
 771      640D0A00 
 772 0161 000000   		.align	2
 773              	.LC19:
 774 0164 5B636F6D 		.ascii	"[command] \264\355\316\363\243\272\312\261\274\344\263"
 774      6D616E64 
 774      5D20B4ED 
 774      CEF3A3BA 
 774      CAB1BCE4 
 775 0179 ACB3F6B7 		.ascii	"\254\263\366\267\266\316\247\243\241\015\012\000"
 775      B6CEA7A3 
 775      A10D0A00 
 776 0185 000000   		.align	2
 777              	.LC20:
 778 0188 5B636F6D 		.ascii	"[command] \312\261\274\344\311\350\326\303\263\311\271"
 778      6D616E64 
 778      5D20CAB1 
 778      BCE4C9E8 
ARM GAS  C:\Users\84759\AppData\Local\Temp\ccVSdzbq.s 			page 30


 778      D6C3B3C9 
 779 019d A6A3A10D 		.ascii	"\246\243\241\015\012\000"
 779      0A00
 780 01a3 00       		.align	2
 781              	.LC21:
 782 01a4 5B636F6D 		.ascii	"[command] \265\261\307\260\312\261\274\344\243\272%"
 782      6D616E64 
 782      5D20B5B1 
 782      C7B0CAB1 
 782      BCE4A3BA 
 783 01b9 3034642D 		.ascii	"04d-%02d-%02d %02d:%02d:%02d\015\012\000"
 783      25303264 
 783      2D253032 
 783      64202530 
 783      32643A25 
 784              		.align	2
 785              	.LC10:
 786 01d8 41545E46 		.ascii	"AT^FATFS_GetTime=\000"
 786      41544653 
 786      5F476574 
 786      54696D65 
 786      3D00
 787              		.section	.text.AT_FATFS_GetTime_Handle,"ax",%progbits
 788              		.align	1
 789              		.global	AT_FATFS_GetTime_Handle
 790              		.syntax unified
 791              		.thumb
 792              		.thumb_func
 794              	AT_FATFS_GetTime_Handle:
 795              	.LVL61:
 796              	.LFB85:
 655:User/Src/command.c **** 
 656:User/Src/command.c **** void AT_FATFS_GetTime_Handle(char* command)
 657:User/Src/command.c **** {
 797              		.loc 1 657 1 is_stmt 1 view -0
 798              		.cfi_startproc
 799              		@ args = 0, pretend = 0, frame = 56
 800              		@ frame_needed = 0, uses_anonymous_args = 0
 801              		.loc 1 657 1 is_stmt 0 view .LVU153
 802 0000 2DE9F04F 		push	{r4, r5, r6, r7, r8, r9, r10, fp, lr}
 803              	.LCFI17:
 804              		.cfi_def_cfa_offset 36
 805              		.cfi_offset 4, -36
 806              		.cfi_offset 5, -32
 807              		.cfi_offset 6, -28
 808              		.cfi_offset 7, -24
 809              		.cfi_offset 8, -20
 810              		.cfi_offset 9, -16
 811              		.cfi_offset 10, -12
 812              		.cfi_offset 11, -8
 813              		.cfi_offset 14, -4
 814 0004 93B0     		sub	sp, sp, #76
 815              	.LCFI18:
 816              		.cfi_def_cfa_offset 112
 658:User/Src/command.c ****     if (command == NULL || strlen(command) == 0)
 817              		.loc 1 658 5 is_stmt 1 view .LVU154
 818              		.loc 1 658 8 is_stmt 0 view .LVU155
ARM GAS  C:\Users\84759\AppData\Local\Temp\ccVSdzbq.s 			page 31


 819 0006 E0B1     		cbz	r0, .L62
 820 0008 0646     		mov	r6, r0
 821              		.loc 1 658 44 discriminator 1 view .LVU156
 822 000a 0378     		ldrb	r3, [r0]	@ zero_extendqisi2
 823              		.loc 1 658 25 discriminator 1 view .LVU157
 824 000c CBB1     		cbz	r3, .L62
 659:User/Src/command.c ****     {
 660:User/Src/command.c ****         UsbPrintf("[command] ´íÎóŁşÖ¸ÁîÎŞżŐŁˇ\r\n");
 661:User/Src/command.c ****         return;
 662:User/Src/command.c ****     }
 663:User/Src/command.c **** 
 664:User/Src/command.c ****     const char cmd_header[] = "AT^FATFS_GetTime=";
 825              		.loc 1 664 5 is_stmt 1 view .LVU158
 826              		.loc 1 664 16 is_stmt 0 view .LVU159
 827 000e 0DAC     		add	r4, sp, #52
 828 0010 814D     		ldr	r5, .L90
 829 0012 0FCD     		ldmia	r5!, {r0, r1, r2, r3}
 830              	.LVL62:
 831              		.loc 1 664 16 view .LVU160
 832 0014 0FC4     		stmia	r4!, {r0, r1, r2, r3}
 833 0016 2B68     		ldr	r3, [r5]
 834 0018 2380     		strh	r3, [r4]	@ movhi
 665:User/Src/command.c ****     const uint16_t header_len = strlen(cmd_header);
 835              		.loc 1 665 5 is_stmt 1 view .LVU161
 836              		.loc 1 665 33 is_stmt 0 view .LVU162
 837 001a 0DA8     		add	r0, sp, #52
 838 001c FFF7FEFF 		bl	strlen
 839              	.LVL63:
 840 0020 0446     		mov	r4, r0
 841              	.LVL64:
 666:User/Src/command.c **** 
 667:User/Src/command.c ****     if (strSearch(command, cmd_header) != 0)
 842              		.loc 1 667 5 is_stmt 1 view .LVU163
 843              		.loc 1 667 9 is_stmt 0 view .LVU164
 844 0022 0DA9     		add	r1, sp, #52
 845 0024 3046     		mov	r0, r6
 846 0026 FFF7FEFF 		bl	strSearch
 847              	.LVL65:
 848              		.loc 1 667 8 view .LVU165
 849 002a 80B9     		cbnz	r0, .L85
 668:User/Src/command.c ****     {
 669:User/Src/command.c ****         UsbPrintf("[command] ´íÎóŁş¸ńĘ˝´íÎóŁˇÓĂ·¨Łş\r\n");
 670:User/Src/command.c ****         UsbPrintf("  ÍęŐű¸ńĘ˝ŁşAT^FATFS_GetTime=Äę,ÔÂ,ČŐ,Ę±,·Ö,Ăë\r\n");
 671:User/Src/command.c ****         UsbPrintf("  Ľň»Ż¸ńĘ˝ŁşAT^FATFS_GetTime=Äę,ÔÂ,ČŐŁ¨Ę±·ÖĂëÄ¬ČĎ0Ł©\r\n");
 672:User/Src/command.c ****         return;
 673:User/Src/command.c ****     }
 674:User/Src/command.c **** 
 675:User/Src/command.c ****     char* param_start = command + header_len;
 850              		.loc 1 675 5 is_stmt 1 view .LVU166
 851              		.loc 1 675 11 is_stmt 0 view .LVU167
 852 002c 3519     		adds	r5, r6, r4
 853              	.LVL66:
 676:User/Src/command.c ****     if (strlen(param_start) == 0)
 854              		.loc 1 676 5 is_stmt 1 view .LVU168
 855              		.loc 1 676 29 is_stmt 0 view .LVU169
 856 002e 335D     		ldrb	r3, [r6, r4]	@ zero_extendqisi2
 857              		.loc 1 676 8 view .LVU170
ARM GAS  C:\Users\84759\AppData\Local\Temp\ccVSdzbq.s 			page 32


 858 0030 BBB1     		cbz	r3, .L86
 677:User/Src/command.c ****     {
 678:User/Src/command.c ****         UsbPrintf("[command] ´íÎóŁşÖÁÉŮĚîĐ´Äę,ÔÂ,ČŐŁˇ\r\n");
 679:User/Src/command.c ****         return;
 680:User/Src/command.c ****     }
 681:User/Src/command.c **** 
 682:User/Src/command.c ****     char* p = param_start;
 859              		.loc 1 682 5 is_stmt 1 view .LVU171
 860              	.LVL67:
 683:User/Src/command.c ****     char* comma[5] = {NULL};
 861              		.loc 1 683 5 view .LVU172
 862              		.loc 1 683 11 is_stmt 0 view .LVU173
 863 0032 0024     		movs	r4, #0
 864              	.LVL68:
 865              		.loc 1 683 11 view .LVU174
 866 0034 0894     		str	r4, [sp, #32]
 867 0036 0994     		str	r4, [sp, #36]
 868 0038 0A94     		str	r4, [sp, #40]
 869 003a 0B94     		str	r4, [sp, #44]
 870 003c 0C94     		str	r4, [sp, #48]
 684:User/Src/command.c ****     uint8_t comma_cnt = 0;
 871              		.loc 1 684 5 is_stmt 1 view .LVU175
 872              	.LVL69:
 685:User/Src/command.c **** 
 686:User/Src/command.c ****     while ((p = strchr(p, ',')) != NULL && comma_cnt < 5)
 873              		.loc 1 686 5 view .LVU176
 682:User/Src/command.c ****     char* comma[5] = {NULL};
 874              		.loc 1 682 11 is_stmt 0 view .LVU177
 875 003e 2846     		mov	r0, r5
 876              		.loc 1 686 11 view .LVU178
 877 0040 1BE0     		b	.L67
 878              	.LVL70:
 879              	.L62:
 660:User/Src/command.c ****         return;
 880              		.loc 1 660 9 is_stmt 1 view .LVU179
 881 0042 7648     		ldr	r0, .L90+4
 882              	.LVL71:
 660:User/Src/command.c ****         return;
 883              		.loc 1 660 9 is_stmt 0 view .LVU180
 884 0044 FFF7FEFF 		bl	UsbPrintf
 885              	.LVL72:
 661:User/Src/command.c ****     }
 886              		.loc 1 661 9 is_stmt 1 view .LVU181
 887              	.L61:
 687:User/Src/command.c ****     {
 688:User/Src/command.c ****         comma[comma_cnt++] = p;
 689:User/Src/command.c ****         p++;
 690:User/Src/command.c ****     }
 691:User/Src/command.c **** 
 692:User/Src/command.c ****     FatFs_Time_t temp_time;
 693:User/Src/command.c ****     temp_time.hour = 0;
 694:User/Src/command.c ****     temp_time.minute = 0;
 695:User/Src/command.c ****     temp_time.second = 0;
 696:User/Src/command.c **** 
 697:User/Src/command.c ****     if (comma_cnt == 2)
 698:User/Src/command.c ****     {
 699:User/Src/command.c ****         char* comma1 = comma[0];
ARM GAS  C:\Users\84759\AppData\Local\Temp\ccVSdzbq.s 			page 33


 700:User/Src/command.c ****         char* comma2 = comma[1];
 701:User/Src/command.c ****         char bak1 = *comma1;
 702:User/Src/command.c ****         char bak2 = *comma2;
 703:User/Src/command.c **** 
 704:User/Src/command.c ****         *comma1 = '\0';
 705:User/Src/command.c ****         *comma2 = '\0';
 706:User/Src/command.c **** 
 707:User/Src/command.c ****         temp_time.year = atoi(param_start);
 708:User/Src/command.c ****         temp_time.month = atoi(comma1 + 1);
 709:User/Src/command.c ****         temp_time.day = atoi(comma2 + 1);
 710:User/Src/command.c **** 
 711:User/Src/command.c ****         *comma1 = bak1;
 712:User/Src/command.c ****         *comma2 = bak2;
 713:User/Src/command.c ****     }
 714:User/Src/command.c ****     else if (comma_cnt == 5)
 715:User/Src/command.c ****     {
 716:User/Src/command.c ****         char bak[5] = {0};
 717:User/Src/command.c ****         for (uint8_t i=0; i<5; i++)
 718:User/Src/command.c ****         {
 719:User/Src/command.c ****             bak[i] = *comma[i];
 720:User/Src/command.c ****             *comma[i] = '\0';
 721:User/Src/command.c ****         }
 722:User/Src/command.c **** 
 723:User/Src/command.c ****         temp_time.year = atoi(param_start);
 724:User/Src/command.c ****         temp_time.month = atoi(comma[0] + 1);
 725:User/Src/command.c ****         temp_time.day = atoi(comma[1] + 1);
 726:User/Src/command.c ****         temp_time.hour = atoi(comma[2] + 1);
 727:User/Src/command.c ****         temp_time.minute = atoi(comma[3] + 1);
 728:User/Src/command.c ****         temp_time.second = atoi(comma[4] + 1);
 729:User/Src/command.c **** 
 730:User/Src/command.c ****         for (uint8_t i=0; i<5; i++)
 731:User/Src/command.c ****         {
 732:User/Src/command.c ****             *comma[i] = bak[i];
 733:User/Src/command.c ****         }
 734:User/Src/command.c ****     }
 735:User/Src/command.c ****     else
 736:User/Src/command.c ****     {
 737:User/Src/command.c ****         UsbPrintf("[command] ´íÎóŁş˛ÎĘý¸öĘý´íÎóŁˇ\r\n");
 738:User/Src/command.c ****         return;
 739:User/Src/command.c ****     }
 740:User/Src/command.c **** 
 741:User/Src/command.c ****     if (temp_time.year < 1980 || temp_time.year > 2107)
 742:User/Src/command.c ****     {
 743:User/Src/command.c ****         UsbPrintf("[command] ´íÎóŁşÄę·ÝÎŢĐ§Łˇ·¶Î§1980~2107\r\n");
 744:User/Src/command.c ****         return;
 745:User/Src/command.c ****     }
 746:User/Src/command.c **** 
 747:User/Src/command.c ****     if (temp_time.month < 1 || temp_time.month > 12)
 748:User/Src/command.c ****     {
 749:User/Src/command.c ****         UsbPrintf("[command] ´íÎóŁşÔÂ·ÝÎŢĐ§Łˇ·¶Î§1~12\r\n");
 750:User/Src/command.c ****         return;
 751:User/Src/command.c ****     }
 752:User/Src/command.c **** 
 753:User/Src/command.c ****     uint8_t max_day = get_month_max_day(temp_time.year, temp_time.month);
 754:User/Src/command.c ****     if (temp_time.day < 1 || temp_time.day > max_day)
 755:User/Src/command.c ****     {
 756:User/Src/command.c ****         UsbPrintf("[command] ´íÎóŁşČŐĆÚÎŢĐ§Łˇ%dÄę%dÔÂ×î´óĚěĘýÎŞ%d\r\n",
ARM GAS  C:\Users\84759\AppData\Local\Temp\ccVSdzbq.s 			page 34


 757:User/Src/command.c ****                   temp_time.year, temp_time.month, max_day);
 758:User/Src/command.c ****         return;
 759:User/Src/command.c ****     }
 760:User/Src/command.c **** 
 761:User/Src/command.c ****     if (comma_cnt == 5)
 762:User/Src/command.c ****     {
 763:User/Src/command.c ****         if (temp_time.hour > 23 || temp_time.minute > 59 || temp_time.second > 59)
 764:User/Src/command.c ****         {
 765:User/Src/command.c ****             UsbPrintf("[command] ´íÎóŁşĘ±Ľäł¬łö·¶Î§Łˇ\r\n");
 766:User/Src/command.c ****             return;
 767:User/Src/command.c ****         }
 768:User/Src/command.c ****     }
 769:User/Src/command.c **** 
 770:User/Src/command.c ****     g_fatfs_time = temp_time;
 771:User/Src/command.c ****     UsbPrintf("[command] Ę±ĽäÉčÖĂłÉą¦Łˇ\r\n");
 772:User/Src/command.c ****     UsbPrintf("[command] µ±Ç°Ę±ĽäŁş%04d-%02d-%02d %02d:%02d:%02d\r\n",
 773:User/Src/command.c ****               g_fatfs_time.year, g_fatfs_time.month, g_fatfs_time.day,
 774:User/Src/command.c ****               g_fatfs_time.hour, g_fatfs_time.minute, g_fatfs_time.second);
 775:User/Src/command.c **** }
 888              		.loc 1 775 1 is_stmt 0 view .LVU182
 889 0048 13B0     		add	sp, sp, #76
 890              	.LCFI19:
 891              		.cfi_remember_state
 892              		.cfi_def_cfa_offset 36
 893              		@ sp needed
 894 004a BDE8F08F 		pop	{r4, r5, r6, r7, r8, r9, r10, fp, pc}
 895              	.LVL73:
 896              	.L85:
 897              	.LCFI20:
 898              		.cfi_restore_state
 669:User/Src/command.c ****         UsbPrintf("  ÍęŐű¸ńĘ˝ŁşAT^FATFS_GetTime=Äę,ÔÂ,ČŐ,Ę±,·Ö,Ăë\r\n");
 899              		.loc 1 669 9 is_stmt 1 view .LVU183
 900 004e 7448     		ldr	r0, .L90+8
 901 0050 FFF7FEFF 		bl	UsbPrintf
 902              	.LVL74:
 670:User/Src/command.c ****         UsbPrintf("  Ľň»Ż¸ńĘ˝ŁşAT^FATFS_GetTime=Äę,ÔÂ,ČŐŁ¨Ę±·ÖĂëÄ¬ČĎ0Ł©\r\n");
 903              		.loc 1 670 9 view .LVU184
 904 0054 7348     		ldr	r0, .L90+12
 905 0056 FFF7FEFF 		bl	UsbPrintf
 906              	.LVL75:
 671:User/Src/command.c ****         return;
 907              		.loc 1 671 9 view .LVU185
 908 005a 7348     		ldr	r0, .L90+16
 909 005c FFF7FEFF 		bl	UsbPrintf
 910              	.LVL76:
 672:User/Src/command.c ****     }
 911              		.loc 1 672 9 view .LVU186
 912 0060 F2E7     		b	.L61
 913              	.LVL77:
 914              	.L86:
 678:User/Src/command.c ****         return;
 915              		.loc 1 678 9 view .LVU187
 916 0062 7248     		ldr	r0, .L90+20
 917 0064 FFF7FEFF 		bl	UsbPrintf
 918              	.LVL78:
 679:User/Src/command.c ****     }
 919              		.loc 1 679 9 view .LVU188
ARM GAS  C:\Users\84759\AppData\Local\Temp\ccVSdzbq.s 			page 35


 920 0068 EEE7     		b	.L61
 921              	.LVL79:
 922              	.L69:
 688:User/Src/command.c ****         p++;
 923              		.loc 1 688 9 view .LVU189
 688:User/Src/command.c ****         p++;
 924              		.loc 1 688 24 is_stmt 0 view .LVU190
 925 006a 621C     		adds	r2, r4, #1
 926              	.LVL80:
 688:User/Src/command.c ****         p++;
 927              		.loc 1 688 28 view .LVU191
 928 006c 12A9     		add	r1, sp, #72
 929 006e 01EB8404 		add	r4, r1, r4, lsl #2
 930 0072 44F8283C 		str	r3, [r4, #-40]
 689:User/Src/command.c ****     }
 931              		.loc 1 689 9 is_stmt 1 view .LVU192
 689:User/Src/command.c ****     }
 932              		.loc 1 689 10 is_stmt 0 view .LVU193
 933 0076 581C     		adds	r0, r3, #1
 934              	.LVL81:
 688:User/Src/command.c ****         p++;
 935              		.loc 1 688 24 view .LVU194
 936 0078 D4B2     		uxtb	r4, r2
 937              	.LVL82:
 938              	.L67:
 686:User/Src/command.c ****     {
 939              		.loc 1 686 11 is_stmt 1 view .LVU195
 686:User/Src/command.c ****     {
 940              		.loc 1 686 17 is_stmt 0 view .LVU196
 941 007a 2C21     		movs	r1, #44
 942 007c FFF7FEFF 		bl	strchr
 943              	.LVL83:
 686:User/Src/command.c ****     {
 944              		.loc 1 686 11 view .LVU197
 945 0080 0346     		mov	r3, r0
 946 0082 08B1     		cbz	r0, .L68
 686:User/Src/command.c ****     {
 947              		.loc 1 686 41 discriminator 1 view .LVU198
 948 0084 042C     		cmp	r4, #4
 949 0086 F0D9     		bls	.L69
 950              	.L68:
 692:User/Src/command.c ****     temp_time.hour = 0;
 951              		.loc 1 692 5 is_stmt 1 view .LVU199
 693:User/Src/command.c ****     temp_time.minute = 0;
 952              		.loc 1 693 5 view .LVU200
 693:User/Src/command.c ****     temp_time.minute = 0;
 953              		.loc 1 693 20 is_stmt 0 view .LVU201
 954 0088 0023     		movs	r3, #0
 955 008a 8DF81C30 		strb	r3, [sp, #28]
 694:User/Src/command.c ****     temp_time.second = 0;
 956              		.loc 1 694 5 is_stmt 1 view .LVU202
 694:User/Src/command.c ****     temp_time.second = 0;
 957              		.loc 1 694 22 is_stmt 0 view .LVU203
 958 008e 8DF81D30 		strb	r3, [sp, #29]
 695:User/Src/command.c **** 
 959              		.loc 1 695 5 is_stmt 1 view .LVU204
 695:User/Src/command.c **** 
ARM GAS  C:\Users\84759\AppData\Local\Temp\ccVSdzbq.s 			page 36


 960              		.loc 1 695 22 is_stmt 0 view .LVU205
 961 0092 8DF81E30 		strb	r3, [sp, #30]
 697:User/Src/command.c ****     {
 962              		.loc 1 697 5 is_stmt 1 view .LVU206
 697:User/Src/command.c ****     {
 963              		.loc 1 697 8 is_stmt 0 view .LVU207
 964 0096 022C     		cmp	r4, #2
 965 0098 07D0     		beq	.L87
 714:User/Src/command.c ****     {
 966              		.loc 1 714 10 is_stmt 1 view .LVU208
 714:User/Src/command.c ****     {
 967              		.loc 1 714 13 is_stmt 0 view .LVU209
 968 009a 052C     		cmp	r4, #5
 969 009c 40F0A480 		bne	.L72
 970              	.LBB2:
 716:User/Src/command.c ****         for (uint8_t i=0; i<5; i++)
 971              		.loc 1 716 9 is_stmt 1 view .LVU210
 716:User/Src/command.c ****         for (uint8_t i=0; i<5; i++)
 972              		.loc 1 716 14 is_stmt 0 view .LVU211
 973 00a0 0023     		movs	r3, #0
 974 00a2 0493     		str	r3, [sp, #16]
 975 00a4 8DF81430 		strb	r3, [sp, #20]
 717:User/Src/command.c ****         {
 976              		.loc 1 717 9 is_stmt 1 view .LVU212
 977              	.LBB3:
 717:User/Src/command.c ****         {
 978              		.loc 1 717 14 view .LVU213
 979              	.LVL84:
 717:User/Src/command.c ****         {
 980              		.loc 1 717 9 is_stmt 0 view .LVU214
 981 00a8 2EE0     		b	.L73
 982              	.LVL85:
 983              	.L87:
 717:User/Src/command.c ****         {
 984              		.loc 1 717 9 view .LVU215
 985              	.LBE3:
 986              	.LBE2:
 987              	.LBB6:
 699:User/Src/command.c ****         char* comma2 = comma[1];
 988              		.loc 1 699 9 is_stmt 1 view .LVU216
 699:User/Src/command.c ****         char* comma2 = comma[1];
 989              		.loc 1 699 15 is_stmt 0 view .LVU217
 990 00aa 089F     		ldr	r7, [sp, #32]
 991              	.LVL86:
 700:User/Src/command.c ****         char bak1 = *comma1;
 992              		.loc 1 700 9 is_stmt 1 view .LVU218
 700:User/Src/command.c ****         char bak1 = *comma1;
 993              		.loc 1 700 15 is_stmt 0 view .LVU219
 994 00ac 099E     		ldr	r6, [sp, #36]
 995              	.LVL87:
 701:User/Src/command.c ****         char bak2 = *comma2;
 996              		.loc 1 701 9 is_stmt 1 view .LVU220
 701:User/Src/command.c ****         char bak2 = *comma2;
 997              		.loc 1 701 14 is_stmt 0 view .LVU221
 998 00ae 97F800B0 		ldrb	fp, [r7]	@ zero_extendqisi2
 999              	.LVL88:
 702:User/Src/command.c **** 
ARM GAS  C:\Users\84759\AppData\Local\Temp\ccVSdzbq.s 			page 37


 1000              		.loc 1 702 9 is_stmt 1 view .LVU222
 702:User/Src/command.c **** 
 1001              		.loc 1 702 14 is_stmt 0 view .LVU223
 1002 00b2 96F800A0 		ldrb	r10, [r6]	@ zero_extendqisi2
 1003              	.LVL89:
 704:User/Src/command.c ****         *comma2 = '\0';
 1004              		.loc 1 704 9 is_stmt 1 view .LVU224
 704:User/Src/command.c ****         *comma2 = '\0';
 1005              		.loc 1 704 17 is_stmt 0 view .LVU225
 1006 00b6 B946     		mov	r9, r7
 1007 00b8 09F8013B 		strb	r3, [r9], #1
 705:User/Src/command.c **** 
 1008              		.loc 1 705 9 is_stmt 1 view .LVU226
 705:User/Src/command.c **** 
 1009              		.loc 1 705 17 is_stmt 0 view .LVU227
 1010 00bc B046     		mov	r8, r6
 1011 00be 08F8013B 		strb	r3, [r8], #1
 707:User/Src/command.c ****         temp_time.month = atoi(comma1 + 1);
 1012              		.loc 1 707 9 is_stmt 1 view .LVU228
 707:User/Src/command.c ****         temp_time.month = atoi(comma1 + 1);
 1013              		.loc 1 707 26 is_stmt 0 view .LVU229
 1014 00c2 2846     		mov	r0, r5
 1015              	.LVL90:
 707:User/Src/command.c ****         temp_time.month = atoi(comma1 + 1);
 1016              		.loc 1 707 26 view .LVU230
 1017 00c4 FFF7FEFF 		bl	atoi
 1018              	.LVL91:
 707:User/Src/command.c ****         temp_time.month = atoi(comma1 + 1);
 1019              		.loc 1 707 24 view .LVU231
 1020 00c8 ADF81800 		strh	r0, [sp, #24]	@ movhi
 708:User/Src/command.c ****         temp_time.day = atoi(comma2 + 1);
 1021              		.loc 1 708 9 is_stmt 1 view .LVU232
 708:User/Src/command.c ****         temp_time.day = atoi(comma2 + 1);
 1022              		.loc 1 708 27 is_stmt 0 view .LVU233
 1023 00cc 4846     		mov	r0, r9
 1024 00ce FFF7FEFF 		bl	atoi
 1025              	.LVL92:
 708:User/Src/command.c ****         temp_time.day = atoi(comma2 + 1);
 1026              		.loc 1 708 25 view .LVU234
 1027 00d2 8DF81A00 		strb	r0, [sp, #26]
 709:User/Src/command.c **** 
 1028              		.loc 1 709 9 is_stmt 1 view .LVU235
 709:User/Src/command.c **** 
 1029              		.loc 1 709 25 is_stmt 0 view .LVU236
 1030 00d6 4046     		mov	r0, r8
 1031 00d8 FFF7FEFF 		bl	atoi
 1032              	.LVL93:
 709:User/Src/command.c **** 
 1033              		.loc 1 709 23 view .LVU237
 1034 00dc 8DF81B00 		strb	r0, [sp, #27]
 711:User/Src/command.c ****         *comma2 = bak2;
 1035              		.loc 1 711 9 is_stmt 1 view .LVU238
 711:User/Src/command.c ****         *comma2 = bak2;
 1036              		.loc 1 711 17 is_stmt 0 view .LVU239
 1037 00e0 87F800B0 		strb	fp, [r7]
 712:User/Src/command.c ****     }
 1038              		.loc 1 712 9 is_stmt 1 view .LVU240
ARM GAS  C:\Users\84759\AppData\Local\Temp\ccVSdzbq.s 			page 38


 712:User/Src/command.c ****     }
 1039              		.loc 1 712 17 is_stmt 0 view .LVU241
 1040 00e4 86F800A0 		strb	r10, [r6]
 1041              	.LBE6:
 1042 00e8 44E0     		b	.L71
 1043              	.LVL94:
 1044              	.L74:
 1045              	.LBB7:
 1046              	.LBB4:
 719:User/Src/command.c ****             *comma[i] = '\0';
 1047              		.loc 1 719 13 is_stmt 1 discriminator 3 view .LVU242
 719:User/Src/command.c ****             *comma[i] = '\0';
 1048              		.loc 1 719 28 is_stmt 0 discriminator 3 view .LVU243
 1049 00ea 12AA     		add	r2, sp, #72
 1050 00ec 02EB8302 		add	r2, r2, r3, lsl #2
 1051 00f0 52F8282C 		ldr	r2, [r2, #-40]
 719:User/Src/command.c ****             *comma[i] = '\0';
 1052              		.loc 1 719 22 discriminator 3 view .LVU244
 1053 00f4 1078     		ldrb	r0, [r2]	@ zero_extendqisi2
 719:User/Src/command.c ****             *comma[i] = '\0';
 1054              		.loc 1 719 20 discriminator 3 view .LVU245
 1055 00f6 03F14801 		add	r1, r3, #72
 1056 00fa 6944     		add	r1, sp, r1
 1057 00fc 01F8380C 		strb	r0, [r1, #-56]
 720:User/Src/command.c ****         }
 1058              		.loc 1 720 13 is_stmt 1 discriminator 3 view .LVU246
 720:User/Src/command.c ****         }
 1059              		.loc 1 720 23 is_stmt 0 discriminator 3 view .LVU247
 1060 0100 0021     		movs	r1, #0
 1061 0102 1170     		strb	r1, [r2]
 717:User/Src/command.c ****         {
 1062              		.loc 1 717 32 is_stmt 1 discriminator 3 view .LVU248
 717:User/Src/command.c ****         {
 1063              		.loc 1 717 33 is_stmt 0 discriminator 3 view .LVU249
 1064 0104 0133     		adds	r3, r3, #1
 1065              	.LVL95:
 717:User/Src/command.c ****         {
 1066              		.loc 1 717 33 discriminator 3 view .LVU250
 1067 0106 DBB2     		uxtb	r3, r3
 1068              	.LVL96:
 1069              	.L73:
 717:User/Src/command.c ****         {
 1070              		.loc 1 717 27 is_stmt 1 discriminator 1 view .LVU251
 717:User/Src/command.c ****         {
 1071              		.loc 1 717 9 is_stmt 0 discriminator 1 view .LVU252
 1072 0108 042B     		cmp	r3, #4
 1073 010a EED9     		bls	.L74
 1074              	.LBE4:
 723:User/Src/command.c ****         temp_time.month = atoi(comma[0] + 1);
 1075              		.loc 1 723 9 is_stmt 1 view .LVU253
 723:User/Src/command.c ****         temp_time.month = atoi(comma[0] + 1);
 1076              		.loc 1 723 26 is_stmt 0 view .LVU254
 1077 010c 2846     		mov	r0, r5
 1078 010e FFF7FEFF 		bl	atoi
 1079              	.LVL97:
 723:User/Src/command.c ****         temp_time.month = atoi(comma[0] + 1);
 1080              		.loc 1 723 24 view .LVU255
ARM GAS  C:\Users\84759\AppData\Local\Temp\ccVSdzbq.s 			page 39


 1081 0112 ADF81800 		strh	r0, [sp, #24]	@ movhi
 724:User/Src/command.c ****         temp_time.day = atoi(comma[1] + 1);
 1082              		.loc 1 724 9 is_stmt 1 view .LVU256
 724:User/Src/command.c ****         temp_time.day = atoi(comma[1] + 1);
 1083              		.loc 1 724 27 is_stmt 0 view .LVU257
 1084 0116 0898     		ldr	r0, [sp, #32]
 1085 0118 0130     		adds	r0, r0, #1
 1086 011a FFF7FEFF 		bl	atoi
 1087              	.LVL98:
 724:User/Src/command.c ****         temp_time.day = atoi(comma[1] + 1);
 1088              		.loc 1 724 25 view .LVU258
 1089 011e 8DF81A00 		strb	r0, [sp, #26]
 725:User/Src/command.c ****         temp_time.hour = atoi(comma[2] + 1);
 1090              		.loc 1 725 9 is_stmt 1 view .LVU259
 725:User/Src/command.c ****         temp_time.hour = atoi(comma[2] + 1);
 1091              		.loc 1 725 25 is_stmt 0 view .LVU260
 1092 0122 0998     		ldr	r0, [sp, #36]
 1093 0124 0130     		adds	r0, r0, #1
 1094 0126 FFF7FEFF 		bl	atoi
 1095              	.LVL99:
 725:User/Src/command.c ****         temp_time.hour = atoi(comma[2] + 1);
 1096              		.loc 1 725 23 view .LVU261
 1097 012a 8DF81B00 		strb	r0, [sp, #27]
 726:User/Src/command.c ****         temp_time.minute = atoi(comma[3] + 1);
 1098              		.loc 1 726 9 is_stmt 1 view .LVU262
 726:User/Src/command.c ****         temp_time.minute = atoi(comma[3] + 1);
 1099              		.loc 1 726 26 is_stmt 0 view .LVU263
 1100 012e 0A98     		ldr	r0, [sp, #40]
 1101 0130 0130     		adds	r0, r0, #1
 1102 0132 FFF7FEFF 		bl	atoi
 1103              	.LVL100:
 726:User/Src/command.c ****         temp_time.minute = atoi(comma[3] + 1);
 1104              		.loc 1 726 24 view .LVU264
 1105 0136 8DF81C00 		strb	r0, [sp, #28]
 727:User/Src/command.c ****         temp_time.second = atoi(comma[4] + 1);
 1106              		.loc 1 727 9 is_stmt 1 view .LVU265
 727:User/Src/command.c ****         temp_time.second = atoi(comma[4] + 1);
 1107              		.loc 1 727 28 is_stmt 0 view .LVU266
 1108 013a 0B98     		ldr	r0, [sp, #44]
 1109 013c 0130     		adds	r0, r0, #1
 1110 013e FFF7FEFF 		bl	atoi
 1111              	.LVL101:
 727:User/Src/command.c ****         temp_time.second = atoi(comma[4] + 1);
 1112              		.loc 1 727 26 view .LVU267
 1113 0142 8DF81D00 		strb	r0, [sp, #29]
 728:User/Src/command.c **** 
 1114              		.loc 1 728 9 is_stmt 1 view .LVU268
 728:User/Src/command.c **** 
 1115              		.loc 1 728 28 is_stmt 0 view .LVU269
 1116 0146 0C98     		ldr	r0, [sp, #48]
 1117 0148 0130     		adds	r0, r0, #1
 1118 014a FFF7FEFF 		bl	atoi
 1119              	.LVL102:
 728:User/Src/command.c **** 
 1120              		.loc 1 728 26 view .LVU270
 1121 014e 8DF81E00 		strb	r0, [sp, #30]
 730:User/Src/command.c ****         {
ARM GAS  C:\Users\84759\AppData\Local\Temp\ccVSdzbq.s 			page 40


 1122              		.loc 1 730 9 is_stmt 1 view .LVU271
 1123              	.LBB5:
 730:User/Src/command.c ****         {
 1124              		.loc 1 730 14 view .LVU272
 1125              	.LVL103:
 730:User/Src/command.c ****         {
 1126              		.loc 1 730 22 is_stmt 0 view .LVU273
 1127 0152 0023     		movs	r3, #0
 730:User/Src/command.c ****         {
 1128              		.loc 1 730 9 view .LVU274
 1129 0154 0CE0     		b	.L75
 1130              	.LVL104:
 1131              	.L76:
 732:User/Src/command.c ****         }
 1132              		.loc 1 732 13 is_stmt 1 discriminator 3 view .LVU275
 732:User/Src/command.c ****         }
 1133              		.loc 1 732 19 is_stmt 0 discriminator 3 view .LVU276
 1134 0156 12AA     		add	r2, sp, #72
 1135 0158 02EB8302 		add	r2, r2, r3, lsl #2
 1136 015c 52F8282C 		ldr	r2, [r2, #-40]
 732:User/Src/command.c ****         }
 1137              		.loc 1 732 28 discriminator 3 view .LVU277
 1138 0160 03F14801 		add	r1, r3, #72
 1139 0164 6944     		add	r1, sp, r1
 1140 0166 11F8381C 		ldrb	r1, [r1, #-56]	@ zero_extendqisi2
 732:User/Src/command.c ****         }
 1141              		.loc 1 732 23 discriminator 3 view .LVU278
 1142 016a 1170     		strb	r1, [r2]
 730:User/Src/command.c ****         {
 1143              		.loc 1 730 32 is_stmt 1 discriminator 3 view .LVU279
 730:User/Src/command.c ****         {
 1144              		.loc 1 730 33 is_stmt 0 discriminator 3 view .LVU280
 1145 016c 0133     		adds	r3, r3, #1
 1146              	.LVL105:
 730:User/Src/command.c ****         {
 1147              		.loc 1 730 33 discriminator 3 view .LVU281
 1148 016e DBB2     		uxtb	r3, r3
 1149              	.LVL106:
 1150              	.L75:
 730:User/Src/command.c ****         {
 1151              		.loc 1 730 27 is_stmt 1 discriminator 1 view .LVU282
 730:User/Src/command.c ****         {
 1152              		.loc 1 730 9 is_stmt 0 discriminator 1 view .LVU283
 1153 0170 042B     		cmp	r3, #4
 1154 0172 F0D9     		bls	.L76
 1155              	.LVL107:
 1156              	.L71:
 730:User/Src/command.c ****         {
 1157              		.loc 1 730 9 discriminator 1 view .LVU284
 1158              	.LBE5:
 1159              	.LBE7:
 741:User/Src/command.c ****     {
 1160              		.loc 1 741 5 is_stmt 1 view .LVU285
 741:User/Src/command.c ****     {
 1161              		.loc 1 741 18 is_stmt 0 view .LVU286
 1162 0174 BDF81850 		ldrh	r5, [sp, #24]
 1163              	.LVL108:
ARM GAS  C:\Users\84759\AppData\Local\Temp\ccVSdzbq.s 			page 41


 741:User/Src/command.c ****     {
 1164              		.loc 1 741 31 view .LVU287
 1165 0178 A5F2BC73 		subw	r3, r5, #1980
 1166 017c 9BB2     		uxth	r3, r3
 741:User/Src/command.c ****     {
 1167              		.loc 1 741 8 view .LVU288
 1168 017e 7F2B     		cmp	r3, #127
 1169 0180 36D8     		bhi	.L88
 747:User/Src/command.c ****     {
 1170              		.loc 1 747 5 is_stmt 1 view .LVU289
 747:User/Src/command.c ****     {
 1171              		.loc 1 747 18 is_stmt 0 view .LVU290
 1172 0182 9DF81A60 		ldrb	r6, [sp, #26]	@ zero_extendqisi2
 747:User/Src/command.c ****     {
 1173              		.loc 1 747 29 view .LVU291
 1174 0186 731E     		subs	r3, r6, #1
 1175 0188 DBB2     		uxtb	r3, r3
 747:User/Src/command.c ****     {
 1176              		.loc 1 747 8 view .LVU292
 1177 018a 0B2B     		cmp	r3, #11
 1178 018c 34D8     		bhi	.L89
 753:User/Src/command.c ****     if (temp_time.day < 1 || temp_time.day > max_day)
 1179              		.loc 1 753 5 is_stmt 1 view .LVU293
 753:User/Src/command.c ****     if (temp_time.day < 1 || temp_time.day > max_day)
 1180              		.loc 1 753 23 is_stmt 0 view .LVU294
 1181 018e 3146     		mov	r1, r6
 1182 0190 2846     		mov	r0, r5
 1183 0192 FFF7FEFF 		bl	get_month_max_day
 1184              	.LVL109:
 754:User/Src/command.c ****     {
 1185              		.loc 1 754 5 is_stmt 1 view .LVU295
 754:User/Src/command.c ****     {
 1186              		.loc 1 754 18 is_stmt 0 view .LVU296
 1187 0196 9DF81B20 		ldrb	r2, [sp, #27]	@ zero_extendqisi2
 754:User/Src/command.c ****     {
 1188              		.loc 1 754 8 view .LVU297
 1189 019a 002A     		cmp	r2, #0
 1190 019c 30D0     		beq	.L79
 754:User/Src/command.c ****     {
 1191              		.loc 1 754 27 discriminator 1 view .LVU298
 1192 019e 8242     		cmp	r2, r0
 1193 01a0 2ED8     		bhi	.L79
 761:User/Src/command.c ****     {
 1194              		.loc 1 761 5 is_stmt 1 view .LVU299
 761:User/Src/command.c ****     {
 1195              		.loc 1 761 8 is_stmt 0 view .LVU300
 1196 01a2 052C     		cmp	r4, #5
 1197 01a4 0BD1     		bne	.L81
 763:User/Src/command.c ****         {
 1198              		.loc 1 763 9 is_stmt 1 view .LVU301
 763:User/Src/command.c ****         {
 1199              		.loc 1 763 22 is_stmt 0 view .LVU302
 1200 01a6 9DF81C30 		ldrb	r3, [sp, #28]	@ zero_extendqisi2
 763:User/Src/command.c ****         {
 1201              		.loc 1 763 12 view .LVU303
 1202 01aa 172B     		cmp	r3, #23
 1203 01ac 2FD8     		bhi	.L82
ARM GAS  C:\Users\84759\AppData\Local\Temp\ccVSdzbq.s 			page 42


 763:User/Src/command.c ****         {
 1204              		.loc 1 763 45 discriminator 1 view .LVU304
 1205 01ae 9DF81D30 		ldrb	r3, [sp, #29]	@ zero_extendqisi2
 763:User/Src/command.c ****         {
 1206              		.loc 1 763 33 discriminator 1 view .LVU305
 1207 01b2 3B2B     		cmp	r3, #59
 1208 01b4 2BD8     		bhi	.L82
 763:User/Src/command.c ****         {
 1209              		.loc 1 763 70 discriminator 2 view .LVU306
 1210 01b6 9DF81E30 		ldrb	r3, [sp, #30]	@ zero_extendqisi2
 763:User/Src/command.c ****         {
 1211              		.loc 1 763 58 discriminator 2 view .LVU307
 1212 01ba 3B2B     		cmp	r3, #59
 1213 01bc 27D8     		bhi	.L82
 1214              	.L81:
 770:User/Src/command.c ****     UsbPrintf("[command] Ę±ĽäÉčÖĂłÉą¦Łˇ\r\n");
 1215              		.loc 1 770 5 is_stmt 1 view .LVU308
 770:User/Src/command.c ****     UsbPrintf("[command] Ę±ĽäÉčÖĂłÉą¦Łˇ\r\n");
 1216              		.loc 1 770 18 is_stmt 0 view .LVU309
 1217 01be 1C4C     		ldr	r4, .L90+24
 1218              	.LVL110:
 770:User/Src/command.c ****     UsbPrintf("[command] Ę±ĽäÉčÖĂłÉą¦Łˇ\r\n");
 1219              		.loc 1 770 18 view .LVU310
 1220 01c0 06AB     		add	r3, sp, #24
 1221 01c2 03CB     		ldmia	r3!, {r0, r1}
 1222              	.LVL111:
 770:User/Src/command.c ****     UsbPrintf("[command] Ę±ĽäÉčÖĂłÉą¦Łˇ\r\n");
 1223              		.loc 1 770 18 view .LVU311
 1224 01c4 2060     		str	r0, [r4]	@ unaligned
 1225 01c6 6160     		str	r1, [r4, #4]	@ unaligned
 771:User/Src/command.c ****     UsbPrintf("[command] µ±Ç°Ę±ĽäŁş%04d-%02d-%02d %02d:%02d:%02d\r\n",
 1226              		.loc 1 771 5 is_stmt 1 view .LVU312
 1227 01c8 1A48     		ldr	r0, .L90+28
 1228 01ca FFF7FEFF 		bl	UsbPrintf
 1229              	.LVL112:
 772:User/Src/command.c ****               g_fatfs_time.year, g_fatfs_time.month, g_fatfs_time.day,
 1230              		.loc 1 772 5 view .LVU313
 774:User/Src/command.c **** }
 1231              		.loc 1 774 27 is_stmt 0 view .LVU314
 1232 01ce 2379     		ldrb	r3, [r4, #4]	@ zero_extendqisi2
 774:User/Src/command.c **** }
 1233              		.loc 1 774 46 view .LVU315
 1234 01d0 6279     		ldrb	r2, [r4, #5]	@ zero_extendqisi2
 774:User/Src/command.c **** }
 1235              		.loc 1 774 67 view .LVU316
 1236 01d2 A179     		ldrb	r1, [r4, #6]	@ zero_extendqisi2
 772:User/Src/command.c ****               g_fatfs_time.year, g_fatfs_time.month, g_fatfs_time.day,
 1237              		.loc 1 772 5 view .LVU317
 1238 01d4 0291     		str	r1, [sp, #8]
 1239 01d6 0192     		str	r2, [sp, #4]
 1240 01d8 0093     		str	r3, [sp]
 1241 01da E378     		ldrb	r3, [r4, #3]	@ zero_extendqisi2
 1242 01dc A278     		ldrb	r2, [r4, #2]	@ zero_extendqisi2
 1243 01de 2188     		ldrh	r1, [r4]
 1244 01e0 1548     		ldr	r0, .L90+32
 1245 01e2 FFF7FEFF 		bl	UsbPrintf
 1246              	.LVL113:
ARM GAS  C:\Users\84759\AppData\Local\Temp\ccVSdzbq.s 			page 43


 1247 01e6 2FE7     		b	.L61
 1248              	.LVL114:
 1249              	.L72:
 737:User/Src/command.c ****         return;
 1250              		.loc 1 737 9 is_stmt 1 view .LVU318
 1251 01e8 1448     		ldr	r0, .L90+36
 1252              	.LVL115:
 737:User/Src/command.c ****         return;
 1253              		.loc 1 737 9 is_stmt 0 view .LVU319
 1254 01ea FFF7FEFF 		bl	UsbPrintf
 1255              	.LVL116:
 738:User/Src/command.c ****     }
 1256              		.loc 1 738 9 is_stmt 1 view .LVU320
 1257 01ee 2BE7     		b	.L61
 1258              	.LVL117:
 1259              	.L88:
 743:User/Src/command.c ****         return;
 1260              		.loc 1 743 9 view .LVU321
 1261 01f0 1348     		ldr	r0, .L90+40
 1262 01f2 FFF7FEFF 		bl	UsbPrintf
 1263              	.LVL118:
 744:User/Src/command.c ****     }
 1264              		.loc 1 744 9 view .LVU322
 1265 01f6 27E7     		b	.L61
 1266              	.L89:
 749:User/Src/command.c ****         return;
 1267              		.loc 1 749 9 view .LVU323
 1268 01f8 1248     		ldr	r0, .L90+44
 1269 01fa FFF7FEFF 		bl	UsbPrintf
 1270              	.LVL119:
 750:User/Src/command.c ****     }
 1271              		.loc 1 750 9 view .LVU324
 1272 01fe 23E7     		b	.L61
 1273              	.LVL120:
 1274              	.L79:
 756:User/Src/command.c ****                   temp_time.year, temp_time.month, max_day);
 1275              		.loc 1 756 9 view .LVU325
 1276 0200 0346     		mov	r3, r0
 1277 0202 3246     		mov	r2, r6
 1278 0204 2946     		mov	r1, r5
 1279 0206 1048     		ldr	r0, .L90+48
 1280              	.LVL121:
 756:User/Src/command.c ****                   temp_time.year, temp_time.month, max_day);
 1281              		.loc 1 756 9 is_stmt 0 view .LVU326
 1282 0208 FFF7FEFF 		bl	UsbPrintf
 1283              	.LVL122:
 758:User/Src/command.c ****     }
 1284              		.loc 1 758 9 is_stmt 1 view .LVU327
 1285 020c 1CE7     		b	.L61
 1286              	.LVL123:
 1287              	.L82:
 765:User/Src/command.c ****             return;
 1288              		.loc 1 765 13 view .LVU328
 1289 020e 0F48     		ldr	r0, .L90+52
 1290              	.LVL124:
 765:User/Src/command.c ****             return;
 1291              		.loc 1 765 13 is_stmt 0 view .LVU329
ARM GAS  C:\Users\84759\AppData\Local\Temp\ccVSdzbq.s 			page 44


 1292 0210 FFF7FEFF 		bl	UsbPrintf
 1293              	.LVL125:
 766:User/Src/command.c ****         }
 1294              		.loc 1 766 13 is_stmt 1 view .LVU330
 1295 0214 18E7     		b	.L61
 1296              	.L91:
 1297 0216 00BF     		.align	2
 1298              	.L90:
 1299 0218 D8010000 		.word	.LC10
 1300 021c 00000000 		.word	.LC6
 1301 0220 00000000 		.word	.LC11
 1302 0224 24000000 		.word	.LC12
 1303 0228 58000000 		.word	.LC13
 1304 022c 90000000 		.word	.LC14
 1305 0230 00000000 		.word	g_fatfs_time
 1306 0234 88010000 		.word	.LC20
 1307 0238 A4010000 		.word	.LC21
 1308 023c B8000000 		.word	.LC15
 1309 0240 DC000000 		.word	.LC16
 1310 0244 08010000 		.word	.LC17
 1311 0248 30010000 		.word	.LC18
 1312 024c 64010000 		.word	.LC19
 1313              		.cfi_endproc
 1314              	.LFE85:
 1316              		.section	.text.CharToInt,"ax",%progbits
 1317              		.align	1
 1318              		.global	CharToInt
 1319              		.syntax unified
 1320              		.thumb
 1321              		.thumb_func
 1323              	CharToInt:
 1324              	.LVL126:
 1325              	.LFB69:
  70:User/Src/command.c ****     uint16_t length = strlen(source);
 1326              		.loc 1 70 1 view -0
 1327              		.cfi_startproc
 1328              		@ args = 0, pretend = 0, frame = 0
 1329              		@ frame_needed = 0, uses_anonymous_args = 0
  70:User/Src/command.c ****     uint16_t length = strlen(source);
 1330              		.loc 1 70 1 is_stmt 0 view .LVU332
 1331 0000 F8B5     		push	{r3, r4, r5, r6, r7, lr}
 1332              	.LCFI21:
 1333              		.cfi_def_cfa_offset 24
 1334              		.cfi_offset 3, -24
 1335              		.cfi_offset 4, -20
 1336              		.cfi_offset 5, -16
 1337              		.cfi_offset 6, -12
 1338              		.cfi_offset 7, -8
 1339              		.cfi_offset 14, -4
 1340 0002 0546     		mov	r5, r0
 1341 0004 0F46     		mov	r7, r1
 1342 0006 1446     		mov	r4, r2
  71:User/Src/command.c ****     uint16_t i;
 1343              		.loc 1 71 5 is_stmt 1 view .LVU333
  71:User/Src/command.c ****     uint16_t i;
 1344              		.loc 1 71 23 is_stmt 0 view .LVU334
 1345 0008 FFF7FEFF 		bl	strlen
ARM GAS  C:\Users\84759\AppData\Local\Temp\ccVSdzbq.s 			page 45


 1346              	.LVL127:
  71:User/Src/command.c ****     uint16_t i;
 1347              		.loc 1 71 14 view .LVU335
 1348 000c 1FFA80FE 		uxth	lr, r0
 1349              	.LVL128:
  72:User/Src/command.c ****     int sum = 0;
 1350              		.loc 1 72 5 is_stmt 1 view .LVU336
  73:User/Src/command.c ****     int state = 1;
 1351              		.loc 1 73 5 view .LVU337
  74:User/Src/command.c ****     uint8_t hex = 0;
 1352              		.loc 1 74 5 view .LVU338
  75:User/Src/command.c **** 
 1353              		.loc 1 75 5 view .LVU339
  77:User/Src/command.c ****     if (start >= length) return 0;
 1354              		.loc 1 77 5 view .LVU340
  77:User/Src/command.c ****     if (start >= length) return 0;
 1355              		.loc 1 77 13 is_stmt 0 view .LVU341
 1356 0010 0023     		movs	r3, #0
 1357 0012 2360     		str	r3, [r4]
  78:User/Src/command.c **** 
 1358              		.loc 1 78 5 is_stmt 1 view .LVU342
  78:User/Src/command.c **** 
 1359              		.loc 1 78 15 is_stmt 0 view .LVU343
 1360 0014 BBB2     		uxth	r3, r7
  78:User/Src/command.c **** 
 1361              		.loc 1 78 8 view .LVU344
 1362 0016 7345     		cmp	r3, lr
 1363 0018 5BD2     		bcs	.L105
  80:User/Src/command.c ****     {
 1364              		.loc 1 80 5 is_stmt 1 view .LVU345
  80:User/Src/command.c ****     {
 1365              		.loc 1 80 15 is_stmt 0 view .LVU346
 1366 001a EB5D     		ldrb	r3, [r5, r7]	@ zero_extendqisi2
  80:User/Src/command.c ****     {
 1367              		.loc 1 80 8 view .LVU347
 1368 001c 2D2B     		cmp	r3, #45
 1369 001e 13D0     		beq	.L113
  74:User/Src/command.c ****     uint8_t hex = 0;
 1370              		.loc 1 74 9 view .LVU348
 1371 0020 0126     		movs	r6, #1
 1372              	.LVL129:
 1373              	.L94:
  86:User/Src/command.c ****     {
 1374              		.loc 1 86 5 is_stmt 1 view .LVU349
  86:User/Src/command.c ****     {
 1375              		.loc 1 86 15 is_stmt 0 view .LVU350
 1376 0022 7B1C     		adds	r3, r7, #1
  86:User/Src/command.c ****     {
 1377              		.loc 1 86 19 view .LVU351
 1378 0024 80B2     		uxth	r0, r0
  86:User/Src/command.c ****     {
 1379              		.loc 1 86 8 view .LVU352
 1380 0026 8342     		cmp	r3, r0
 1381 0028 13DA     		bge	.L107
  88:User/Src/command.c ****         {
 1382              		.loc 1 88 9 is_stmt 1 view .LVU353
  88:User/Src/command.c ****         {
ARM GAS  C:\Users\84759\AppData\Local\Temp\ccVSdzbq.s 			page 46


 1383              		.loc 1 88 19 is_stmt 0 view .LVU354
 1384 002a EB5D     		ldrb	r3, [r5, r7]	@ zero_extendqisi2
  88:User/Src/command.c ****         {
 1385              		.loc 1 88 12 view .LVU355
 1386 002c 302B     		cmp	r3, #48
 1387 002e 12D1     		bne	.L108
  88:User/Src/command.c ****         {
 1388              		.loc 1 88 44 discriminator 1 view .LVU356
 1389 0030 EB19     		adds	r3, r5, r7
 1390 0032 5B78     		ldrb	r3, [r3, #1]	@ zero_extendqisi2
  88:User/Src/command.c ****         {
 1391              		.loc 1 88 34 discriminator 1 view .LVU357
 1392 0034 782B     		cmp	r3, #120
 1393 0036 01D0     		beq	.L96
  88:User/Src/command.c ****         {
 1394              		.loc 1 88 63 discriminator 2 view .LVU358
 1395 0038 582B     		cmp	r3, #88
 1396 003a 0ED1     		bne	.L109
 1397              	.L96:
  90:User/Src/command.c ****             hex = 1;
 1398              		.loc 1 90 13 is_stmt 1 view .LVU359
  90:User/Src/command.c ****             hex = 1;
 1399              		.loc 1 90 19 is_stmt 0 view .LVU360
 1400 003c BB1C     		adds	r3, r7, #2
 1401 003e DFB2     		uxtb	r7, r3
 1402              	.LVL130:
  91:User/Src/command.c ****         }
 1403              		.loc 1 91 13 is_stmt 1 view .LVU361
  91:User/Src/command.c ****         }
 1404              		.loc 1 91 17 is_stmt 0 view .LVU362
 1405 0040 0120     		movs	r0, #1
 1406              	.LVL131:
 1407              	.L95:
  95:User/Src/command.c ****     {
 1408              		.loc 1 95 5 is_stmt 1 view .LVU363
  95:User/Src/command.c ****     {
 1409              		.loc 1 95 12 is_stmt 0 view .LVU364
 1410 0042 BBB2     		uxth	r3, r7
 1411              	.LVL132:
  73:User/Src/command.c ****     int state = 1;
 1412              		.loc 1 73 9 view .LVU365
 1413 0044 0022     		movs	r2, #0
  95:User/Src/command.c ****     {
 1414              		.loc 1 95 5 view .LVU366
 1415 0046 11E0     		b	.L97
 1416              	.LVL133:
 1417              	.L113:
  82:User/Src/command.c ****         start++;
 1418              		.loc 1 82 9 is_stmt 1 view .LVU367
  83:User/Src/command.c ****     }
 1419              		.loc 1 83 9 view .LVU368
  83:User/Src/command.c ****     }
 1420              		.loc 1 83 14 is_stmt 0 view .LVU369
 1421 0048 7B1C     		adds	r3, r7, #1
 1422 004a DFB2     		uxtb	r7, r3
 1423              	.LVL134:
  82:User/Src/command.c ****         start++;
ARM GAS  C:\Users\84759\AppData\Local\Temp\ccVSdzbq.s 			page 47


 1424              		.loc 1 82 15 view .LVU370
 1425 004c 4FF0FF36 		mov	r6, #-1
 1426 0050 E7E7     		b	.L94
 1427              	.LVL135:
 1428              	.L107:
  75:User/Src/command.c **** 
 1429              		.loc 1 75 13 view .LVU371
 1430 0052 0020     		movs	r0, #0
 1431 0054 F5E7     		b	.L95
 1432              	.L108:
  75:User/Src/command.c **** 
 1433              		.loc 1 75 13 view .LVU372
 1434 0056 0020     		movs	r0, #0
 1435 0058 F3E7     		b	.L95
 1436              	.L109:
 1437 005a 0020     		movs	r0, #0
 1438 005c F1E7     		b	.L95
 1439              	.LVL136:
 1440              	.L99:
  99:User/Src/command.c ****         }
 1441              		.loc 1 99 63 discriminator 2 view .LVU373
 1442 005e 02EB8202 		add	r2, r2, r2, lsl #2
 1443              	.LVL137:
  99:User/Src/command.c ****         }
 1444              		.loc 1 99 81 discriminator 2 view .LVU374
 1445 0062 3039     		subs	r1, r1, #48
  99:User/Src/command.c ****         }
 1446              		.loc 1 99 56 discriminator 2 view .LVU375
 1447 0064 01EB4202 		add	r2, r1, r2, lsl #1
 1448              	.L100:
 1449              	.LVL138:
  95:User/Src/command.c ****     {
 1450              		.loc 1 95 33 is_stmt 1 discriminator 2 view .LVU376
  95:User/Src/command.c ****     {
 1451              		.loc 1 95 34 is_stmt 0 discriminator 2 view .LVU377
 1452 0068 0133     		adds	r3, r3, #1
 1453              	.LVL139:
  95:User/Src/command.c ****     {
 1454              		.loc 1 95 34 discriminator 2 view .LVU378
 1455 006a 9BB2     		uxth	r3, r3
 1456              	.LVL140:
 1457              	.L97:
  95:User/Src/command.c ****     {
 1458              		.loc 1 95 21 is_stmt 1 discriminator 1 view .LVU379
  95:User/Src/command.c ****     {
 1459              		.loc 1 95 5 is_stmt 0 discriminator 1 view .LVU380
 1460 006c 7345     		cmp	r3, lr
 1461 006e 2BD2     		bcs	.L103
  97:User/Src/command.c ****         {
 1462              		.loc 1 97 9 is_stmt 1 view .LVU381
  97:User/Src/command.c ****         {
 1463              		.loc 1 97 19 is_stmt 0 view .LVU382
 1464 0070 E95C     		ldrb	r1, [r5, r3]	@ zero_extendqisi2
  97:User/Src/command.c ****         {
 1465              		.loc 1 97 30 view .LVU383
 1466 0072 A1F1300C 		sub	ip, r1, #48
 1467 0076 5FFA8CFC 		uxtb	ip, ip
ARM GAS  C:\Users\84759\AppData\Local\Temp\ccVSdzbq.s 			page 48


  97:User/Src/command.c ****         {
 1468              		.loc 1 97 12 view .LVU384
 1469 007a BCF1090F 		cmp	ip, #9
 1470 007e 05D8     		bhi	.L98
  99:User/Src/command.c ****         }
 1471              		.loc 1 99 13 is_stmt 1 view .LVU385
  99:User/Src/command.c ****         }
 1472              		.loc 1 99 56 is_stmt 0 view .LVU386
 1473 0080 0028     		cmp	r0, #0
 1474 0082 ECD0     		beq	.L99
  99:User/Src/command.c ****         }
 1475              		.loc 1 99 48 discriminator 1 view .LVU387
 1476 0084 3039     		subs	r1, r1, #48
  99:User/Src/command.c ****         }
 1477              		.loc 1 99 56 discriminator 1 view .LVU388
 1478 0086 01EB0212 		add	r2, r1, r2, lsl #4
 1479              	.LVL141:
  99:User/Src/command.c ****         }
 1480              		.loc 1 99 56 discriminator 1 view .LVU389
 1481 008a EDE7     		b	.L100
 1482              	.LVL142:
 1483              	.L98:
 101:User/Src/command.c ****         {
 1484              		.loc 1 101 14 is_stmt 1 view .LVU390
 101:User/Src/command.c ****         {
 1485              		.loc 1 101 35 is_stmt 0 view .LVU391
 1486 008c A1F1610C 		sub	ip, r1, #97
 1487 0090 5FFA8CFC 		uxtb	ip, ip
 101:User/Src/command.c ****         {
 1488              		.loc 1 101 17 view .LVU392
 1489 0094 BCF1050F 		cmp	ip, #5
 1490 0098 04D8     		bhi	.L101
 103:User/Src/command.c ****             sum = sum * 16 + (source[i] - 'a' + 10);
 1491              		.loc 1 103 13 is_stmt 1 view .LVU393
 103:User/Src/command.c ****             sum = sum * 16 + (source[i] - 'a' + 10);
 1492              		.loc 1 103 16 is_stmt 0 view .LVU394
 1493 009a E0B1     		cbz	r0, .L110
 104:User/Src/command.c ****         }
 1494              		.loc 1 104 13 is_stmt 1 view .LVU395
 104:User/Src/command.c ****         }
 1495              		.loc 1 104 47 is_stmt 0 view .LVU396
 1496 009c 5739     		subs	r1, r1, #87
 104:User/Src/command.c ****         }
 1497              		.loc 1 104 17 view .LVU397
 1498 009e 01EB0212 		add	r2, r1, r2, lsl #4
 1499              	.LVL143:
 104:User/Src/command.c ****         }
 1500              		.loc 1 104 17 view .LVU398
 1501 00a2 E1E7     		b	.L100
 1502              	.L101:
 106:User/Src/command.c ****         {
 1503              		.loc 1 106 14 is_stmt 1 view .LVU399
 106:User/Src/command.c ****         {
 1504              		.loc 1 106 35 is_stmt 0 view .LVU400
 1505 00a4 A1F1410C 		sub	ip, r1, #65
 1506 00a8 5FFA8CFC 		uxtb	ip, ip
 106:User/Src/command.c ****         {
ARM GAS  C:\Users\84759\AppData\Local\Temp\ccVSdzbq.s 			page 49


 1507              		.loc 1 106 17 view .LVU401
 1508 00ac BCF1050F 		cmp	ip, #5
 1509 00b0 04D8     		bhi	.L102
 108:User/Src/command.c ****             sum = sum * 16 + (source[i] - 'A' + 10);
 1510              		.loc 1 108 13 is_stmt 1 view .LVU402
 108:User/Src/command.c ****             sum = sum * 16 + (source[i] - 'A' + 10);
 1511              		.loc 1 108 16 is_stmt 0 view .LVU403
 1512 00b2 90B1     		cbz	r0, .L111
 109:User/Src/command.c ****         }
 1513              		.loc 1 109 13 is_stmt 1 view .LVU404
 109:User/Src/command.c ****         }
 1514              		.loc 1 109 47 is_stmt 0 view .LVU405
 1515 00b4 3739     		subs	r1, r1, #55
 109:User/Src/command.c ****         }
 1516              		.loc 1 109 17 view .LVU406
 1517 00b6 01EB0212 		add	r2, r1, r2, lsl #4
 1518              	.LVL144:
 109:User/Src/command.c ****         }
 1519              		.loc 1 109 17 view .LVU407
 1520 00ba D5E7     		b	.L100
 1521              	.L102:
 111:User/Src/command.c ****         {
 1522              		.loc 1 111 14 is_stmt 1 view .LVU408
 111:User/Src/command.c ****         {
 1523              		.loc 1 111 17 is_stmt 0 view .LVU409
 1524 00bc 2029     		cmp	r1, #32
 1525 00be 03D0     		beq	.L103
 111:User/Src/command.c ****         {
 1526              		.loc 1 111 35 discriminator 1 view .LVU410
 1527 00c0 2C29     		cmp	r1, #44
 1528 00c2 01D0     		beq	.L103
 117:User/Src/command.c ****         }
 1529              		.loc 1 117 20 view .LVU411
 1530 00c4 0020     		movs	r0, #0
 1531              	.LVL145:
 117:User/Src/command.c ****         }
 1532              		.loc 1 117 20 view .LVU412
 1533 00c6 03E0     		b	.L93
 1534              	.LVL146:
 1535              	.L103:
 121:User/Src/command.c ****     return 1;
 1536              		.loc 1 121 5 is_stmt 1 view .LVU413
 121:User/Src/command.c ****     return 1;
 1537              		.loc 1 121 21 is_stmt 0 view .LVU414
 1538 00c8 06FB02F2 		mul	r2, r6, r2
 1539              	.LVL147:
 121:User/Src/command.c ****     return 1;
 1540              		.loc 1 121 13 view .LVU415
 1541 00cc 2260     		str	r2, [r4]
 122:User/Src/command.c **** }
 1542              		.loc 1 122 5 is_stmt 1 view .LVU416
 122:User/Src/command.c **** }
 1543              		.loc 1 122 12 is_stmt 0 view .LVU417
 1544 00ce 0120     		movs	r0, #1
 1545              	.LVL148:
 1546              	.L93:
 123:User/Src/command.c **** 
ARM GAS  C:\Users\84759\AppData\Local\Temp\ccVSdzbq.s 			page 50


 1547              		.loc 1 123 1 view .LVU418
 1548 00d0 F8BD     		pop	{r3, r4, r5, r6, r7, pc}
 1549              	.LVL149:
 1550              	.L105:
  78:User/Src/command.c **** 
 1551              		.loc 1 78 33 view .LVU419
 1552 00d2 0020     		movs	r0, #0
 1553 00d4 FCE7     		b	.L93
 1554              	.LVL150:
 1555              	.L110:
 103:User/Src/command.c ****             sum = sum * 16 + (source[i] - 'a' + 10);
 1556              		.loc 1 103 30 view .LVU420
 1557 00d6 0020     		movs	r0, #0
 1558              	.LVL151:
 103:User/Src/command.c ****             sum = sum * 16 + (source[i] - 'a' + 10);
 1559              		.loc 1 103 30 view .LVU421
 1560 00d8 FAE7     		b	.L93
 1561              	.LVL152:
 1562              	.L111:
 108:User/Src/command.c ****             sum = sum * 16 + (source[i] - 'A' + 10);
 1563              		.loc 1 108 30 view .LVU422
 1564 00da 0020     		movs	r0, #0
 1565              	.LVL153:
 108:User/Src/command.c ****             sum = sum * 16 + (source[i] - 'A' + 10);
 1566              		.loc 1 108 30 view .LVU423
 1567 00dc F8E7     		b	.L93
 1568              		.cfi_endproc
 1569              	.LFE69:
 1571              		.global	__aeabi_fmul
 1572              		.global	__aeabi_i2f
 1573              		.global	__aeabi_fadd
 1574              		.section	.text.CharToFloat,"ax",%progbits
 1575              		.align	1
 1576              		.global	CharToFloat
 1577              		.syntax unified
 1578              		.thumb
 1579              		.thumb_func
 1581              	CharToFloat:
 1582              	.LVL154:
 1583              	.LFB70:
 126:User/Src/command.c ****     uint8_t length = strlen(source);
 1584              		.loc 1 126 1 is_stmt 1 view -0
 1585              		.cfi_startproc
 1586              		@ args = 0, pretend = 0, frame = 0
 1587              		@ frame_needed = 0, uses_anonymous_args = 0
 126:User/Src/command.c ****     uint8_t length = strlen(source);
 1588              		.loc 1 126 1 is_stmt 0 view .LVU425
 1589 0000 2DE9F047 		push	{r4, r5, r6, r7, r8, r9, r10, lr}
 1590              	.LCFI22:
 1591              		.cfi_def_cfa_offset 32
 1592              		.cfi_offset 4, -32
 1593              		.cfi_offset 5, -28
 1594              		.cfi_offset 6, -24
 1595              		.cfi_offset 7, -20
 1596              		.cfi_offset 8, -16
 1597              		.cfi_offset 9, -12
 1598              		.cfi_offset 10, -8
ARM GAS  C:\Users\84759\AppData\Local\Temp\ccVSdzbq.s 			page 51


 1599              		.cfi_offset 14, -4
 1600 0004 8046     		mov	r8, r0
 1601 0006 0C46     		mov	r4, r1
 1602 0008 9146     		mov	r9, r2
 127:User/Src/command.c ****     uint8_t i;
 1603              		.loc 1 127 5 is_stmt 1 view .LVU426
 127:User/Src/command.c ****     uint8_t i;
 1604              		.loc 1 127 22 is_stmt 0 view .LVU427
 1605 000a FFF7FEFF 		bl	strlen
 1606              	.LVL155:
 127:User/Src/command.c ****     uint8_t i;
 1607              		.loc 1 127 13 view .LVU428
 1608 000e C7B2     		uxtb	r7, r0
 1609              	.LVL156:
 128:User/Src/command.c ****     float sum = 0;
 1610              		.loc 1 128 5 is_stmt 1 view .LVU429
 129:User/Src/command.c ****     int state = 1;
 1611              		.loc 1 129 5 view .LVU430
 130:User/Src/command.c ****     float small_num = 0.1f;
 1612              		.loc 1 130 5 view .LVU431
 131:User/Src/command.c **** 
 1613              		.loc 1 131 5 view .LVU432
 133:User/Src/command.c ****     if (length <= start) return 0;
 1614              		.loc 1 133 5 view .LVU433
 133:User/Src/command.c ****     if (length <= start) return 0;
 1615              		.loc 1 133 13 is_stmt 0 view .LVU434
 1616 0010 0023     		movs	r3, #0
 1617 0012 C9F80030 		str	r3, [r9]	@ float
 134:User/Src/command.c **** 
 1618              		.loc 1 134 5 is_stmt 1 view .LVU435
 134:User/Src/command.c **** 
 1619              		.loc 1 134 8 is_stmt 0 view .LVU436
 1620 0016 A742     		cmp	r7, r4
 1621 0018 5DD9     		bls	.L126
 136:User/Src/command.c ****     {
 1622              		.loc 1 136 5 is_stmt 1 view .LVU437
 136:User/Src/command.c ****     {
 1623              		.loc 1 136 15 is_stmt 0 view .LVU438
 1624 001a 18F80430 		ldrb	r3, [r8, r4]	@ zero_extendqisi2
 136:User/Src/command.c ****     {
 1625              		.loc 1 136 8 view .LVU439
 1626 001e 2D2B     		cmp	r3, #45
 1627 0020 1CD0     		beq	.L129
 130:User/Src/command.c ****     float small_num = 0.1f;
 1628              		.loc 1 130 9 view .LVU440
 1629 0022 4FF0010A 		mov	r10, #1
 1630              	.LVL157:
 1631              	.L116:
 142:User/Src/command.c ****     {
 1632              		.loc 1 142 5 is_stmt 1 view .LVU441
 129:User/Src/command.c ****     int state = 1;
 1633              		.loc 1 129 11 is_stmt 0 view .LVU442
 1634 0026 0025     		movs	r5, #0
 1635              	.LVL158:
 1636              	.L117:
 142:User/Src/command.c ****     {
 1637              		.loc 1 142 21 is_stmt 1 discriminator 1 view .LVU443
ARM GAS  C:\Users\84759\AppData\Local\Temp\ccVSdzbq.s 			page 52


 142:User/Src/command.c ****     {
 1638              		.loc 1 142 5 is_stmt 0 discriminator 1 view .LVU444
 1639 0028 BC42     		cmp	r4, r7
 1640 002a 26D2     		bcs	.L121
 144:User/Src/command.c ****         {
 1641              		.loc 1 144 9 is_stmt 1 view .LVU445
 144:User/Src/command.c ****         {
 1642              		.loc 1 144 19 is_stmt 0 view .LVU446
 1643 002c 18F80460 		ldrb	r6, [r8, r4]	@ zero_extendqisi2
 144:User/Src/command.c ****         {
 1644              		.loc 1 144 30 view .LVU447
 1645 0030 A6F13003 		sub	r3, r6, #48
 1646 0034 DBB2     		uxtb	r3, r3
 144:User/Src/command.c ****         {
 1647              		.loc 1 144 12 view .LVU448
 1648 0036 092B     		cmp	r3, #9
 1649 0038 15D8     		bhi	.L118
 146:User/Src/command.c ****         }
 1650              		.loc 1 146 13 is_stmt 1 view .LVU449
 146:User/Src/command.c ****         }
 1651              		.loc 1 146 23 is_stmt 0 view .LVU450
 1652 003a 2849     		ldr	r1, .L132
 1653 003c 2846     		mov	r0, r5
 1654 003e FFF7FEFF 		bl	__aeabi_fmul
 1655              	.LVL159:
 1656 0042 0546     		mov	r5, r0
 1657              	.LVL160:
 146:User/Src/command.c ****         }
 1658              		.loc 1 146 28 view .LVU451
 1659 0044 A6F13000 		sub	r0, r6, #48
 1660 0048 FFF7FEFF 		bl	__aeabi_i2f
 1661              	.LVL161:
 1662 004c 0146     		mov	r1, r0
 146:User/Src/command.c ****         }
 1663              		.loc 1 146 17 view .LVU452
 1664 004e 2846     		mov	r0, r5
 1665 0050 FFF7FEFF 		bl	__aeabi_fadd
 1666              	.LVL162:
 1667 0054 0546     		mov	r5, r0
 1668              	.LVL163:
 142:User/Src/command.c ****     {
 1669              		.loc 1 142 33 is_stmt 1 view .LVU453
 142:User/Src/command.c ****     {
 1670              		.loc 1 142 34 is_stmt 0 view .LVU454
 1671 0056 0134     		adds	r4, r4, #1
 1672              	.LVL164:
 142:User/Src/command.c ****     {
 1673              		.loc 1 142 34 view .LVU455
 1674 0058 E4B2     		uxtb	r4, r4
 1675              	.LVL165:
 142:User/Src/command.c ****     {
 1676              		.loc 1 142 34 view .LVU456
 1677 005a E5E7     		b	.L117
 1678              	.LVL166:
 1679              	.L129:
 138:User/Src/command.c ****         start++;
 1680              		.loc 1 138 9 is_stmt 1 view .LVU457
ARM GAS  C:\Users\84759\AppData\Local\Temp\ccVSdzbq.s 			page 53


 139:User/Src/command.c ****     }
 1681              		.loc 1 139 9 view .LVU458
 139:User/Src/command.c ****     }
 1682              		.loc 1 139 14 is_stmt 0 view .LVU459
 1683 005c 0134     		adds	r4, r4, #1
 1684 005e E4B2     		uxtb	r4, r4
 1685              	.LVL167:
 138:User/Src/command.c ****         start++;
 1686              		.loc 1 138 15 view .LVU460
 1687 0060 4FF0FF3A 		mov	r10, #-1
 1688 0064 DFE7     		b	.L116
 1689              	.LVL168:
 1690              	.L118:
 148:User/Src/command.c ****         {
 1691              		.loc 1 148 14 is_stmt 1 view .LVU461
 148:User/Src/command.c ****         {
 1692              		.loc 1 148 17 is_stmt 0 view .LVU462
 1693 0066 2E2E     		cmp	r6, #46
 1694 0068 05D0     		beq	.L130
 153:User/Src/command.c ****         {
 1695              		.loc 1 153 14 is_stmt 1 view .LVU463
 153:User/Src/command.c ****         {
 1696              		.loc 1 153 17 is_stmt 0 view .LVU464
 1697 006a 202E     		cmp	r6, #32
 1698 006c 05D0     		beq	.L121
 153:User/Src/command.c ****         {
 1699              		.loc 1 153 35 discriminator 1 view .LVU465
 1700 006e 2C2E     		cmp	r6, #44
 1701 0070 03D0     		beq	.L121
 159:User/Src/command.c ****         }
 1702              		.loc 1 159 20 view .LVU466
 1703 0072 0020     		movs	r0, #0
 1704 0074 2DE0     		b	.L115
 1705              	.L130:
 150:User/Src/command.c ****             break;
 1706              		.loc 1 150 13 is_stmt 1 view .LVU467
 150:User/Src/command.c ****             break;
 1707              		.loc 1 150 14 is_stmt 0 view .LVU468
 1708 0076 0134     		adds	r4, r4, #1
 1709              	.LVL169:
 150:User/Src/command.c ****             break;
 1710              		.loc 1 150 14 view .LVU469
 1711 0078 E4B2     		uxtb	r4, r4
 1712              	.LVL170:
 151:User/Src/command.c ****         }
 1713              		.loc 1 151 13 is_stmt 1 view .LVU470
 1714              	.L121:
 129:User/Src/command.c ****     int state = 1;
 1715              		.loc 1 129 11 is_stmt 0 discriminator 1 view .LVU471
 1716 007a 194E     		ldr	r6, .L132+4
 1717 007c 11E0     		b	.L120
 1718              	.LVL171:
 1719              	.L131:
 167:User/Src/command.c ****             small_num *= 0.1f;
 1720              		.loc 1 167 13 is_stmt 1 view .LVU472
 167:User/Src/command.c ****             small_num *= 0.1f;
 1721              		.loc 1 167 30 is_stmt 0 view .LVU473
ARM GAS  C:\Users\84759\AppData\Local\Temp\ccVSdzbq.s 			page 54


 1722 007e 3038     		subs	r0, r0, #48
 1723 0080 FFF7FEFF 		bl	__aeabi_i2f
 1724              	.LVL172:
 1725 0084 3146     		mov	r1, r6
 1726 0086 FFF7FEFF 		bl	__aeabi_fmul
 1727              	.LVL173:
 1728 008a 0146     		mov	r1, r0
 167:User/Src/command.c ****             small_num *= 0.1f;
 1729              		.loc 1 167 17 view .LVU474
 1730 008c 2846     		mov	r0, r5
 1731 008e FFF7FEFF 		bl	__aeabi_fadd
 1732              	.LVL174:
 1733 0092 0546     		mov	r5, r0
 1734              	.LVL175:
 168:User/Src/command.c ****         }
 1735              		.loc 1 168 13 is_stmt 1 view .LVU475
 168:User/Src/command.c ****         }
 1736              		.loc 1 168 23 is_stmt 0 view .LVU476
 1737 0094 1249     		ldr	r1, .L132+4
 1738 0096 3046     		mov	r0, r6
 1739              	.LVL176:
 168:User/Src/command.c ****         }
 1740              		.loc 1 168 23 view .LVU477
 1741 0098 FFF7FEFF 		bl	__aeabi_fmul
 1742              	.LVL177:
 1743 009c 0646     		mov	r6, r0
 1744              	.LVL178:
 163:User/Src/command.c ****     {
 1745              		.loc 1 163 24 is_stmt 1 view .LVU478
 163:User/Src/command.c ****     {
 1746              		.loc 1 163 25 is_stmt 0 view .LVU479
 1747 009e 0134     		adds	r4, r4, #1
 1748              	.LVL179:
 163:User/Src/command.c ****     {
 1749              		.loc 1 163 25 view .LVU480
 1750 00a0 E4B2     		uxtb	r4, r4
 1751              	.LVL180:
 1752              	.L120:
 163:User/Src/command.c ****     {
 1753              		.loc 1 163 12 is_stmt 1 discriminator 1 view .LVU481
 163:User/Src/command.c ****     {
 1754              		.loc 1 163 5 is_stmt 0 discriminator 1 view .LVU482
 1755 00a2 BC42     		cmp	r4, r7
 1756 00a4 0CD2     		bcs	.L124
 165:User/Src/command.c ****         {
 1757              		.loc 1 165 9 is_stmt 1 view .LVU483
 165:User/Src/command.c ****         {
 1758              		.loc 1 165 19 is_stmt 0 view .LVU484
 1759 00a6 18F80400 		ldrb	r0, [r8, r4]	@ zero_extendqisi2
 165:User/Src/command.c ****         {
 1760              		.loc 1 165 30 view .LVU485
 1761 00aa A0F13003 		sub	r3, r0, #48
 1762 00ae DBB2     		uxtb	r3, r3
 165:User/Src/command.c ****         {
 1763              		.loc 1 165 12 view .LVU486
 1764 00b0 092B     		cmp	r3, #9
 1765 00b2 E4D9     		bls	.L131
ARM GAS  C:\Users\84759\AppData\Local\Temp\ccVSdzbq.s 			page 55


 170:User/Src/command.c ****         {
 1766              		.loc 1 170 14 is_stmt 1 view .LVU487
 170:User/Src/command.c ****         {
 1767              		.loc 1 170 17 is_stmt 0 view .LVU488
 1768 00b4 2028     		cmp	r0, #32
 1769 00b6 03D0     		beq	.L124
 170:User/Src/command.c ****         {
 1770              		.loc 1 170 35 discriminator 1 view .LVU489
 1771 00b8 2C28     		cmp	r0, #44
 1772 00ba 01D0     		beq	.L124
 176:User/Src/command.c ****         }
 1773              		.loc 1 176 20 view .LVU490
 1774 00bc 0020     		movs	r0, #0
 1775 00be 08E0     		b	.L115
 1776              	.L124:
 180:User/Src/command.c ****     return 1;
 1777              		.loc 1 180 5 is_stmt 1 view .LVU491
 180:User/Src/command.c ****     return 1;
 1778              		.loc 1 180 21 is_stmt 0 view .LVU492
 1779 00c0 5046     		mov	r0, r10
 1780 00c2 FFF7FEFF 		bl	__aeabi_i2f
 1781              	.LVL181:
 1782 00c6 2946     		mov	r1, r5
 1783 00c8 FFF7FEFF 		bl	__aeabi_fmul
 1784              	.LVL182:
 180:User/Src/command.c ****     return 1;
 1785              		.loc 1 180 13 view .LVU493
 1786 00cc C9F80000 		str	r0, [r9]	@ float
 181:User/Src/command.c **** }
 1787              		.loc 1 181 5 is_stmt 1 view .LVU494
 181:User/Src/command.c **** }
 1788              		.loc 1 181 12 is_stmt 0 view .LVU495
 1789 00d0 0120     		movs	r0, #1
 1790              	.LVL183:
 1791              	.L115:
 182:User/Src/command.c **** 
 1792              		.loc 1 182 1 view .LVU496
 1793 00d2 BDE8F087 		pop	{r4, r5, r6, r7, r8, r9, r10, pc}
 1794              	.LVL184:
 1795              	.L126:
 134:User/Src/command.c **** 
 1796              		.loc 1 134 33 view .LVU497
 1797 00d6 0020     		movs	r0, #0
 1798 00d8 FBE7     		b	.L115
 1799              	.L133:
 1800 00da 00BF     		.align	2
 1801              	.L132:
 1802 00dc 00002041 		.word	1092616192
 1803 00e0 CDCCCC3D 		.word	1036831949
 1804              		.cfi_endproc
 1805              	.LFE70:
 1807              		.section	.rodata.Data_copy_from_pos.str1.4,"aMS",%progbits,1
 1808              		.align	2
 1809              	.LC22:
 1810 0000 5B636F6D 		.ascii	"[command] error: pointer null !\015\012\000"
 1810      6D616E64 
 1810      5D206572 
ARM GAS  C:\Users\84759\AppData\Local\Temp\ccVSdzbq.s 			page 56


 1810      726F723A 
 1810      20706F69 
 1811 0022 0000     		.align	2
 1812              	.LC23:
 1813 0024 5B636F6D 		.ascii	"[command] error: start pos invalid !\015\012\000"
 1813      6D616E64 
 1813      5D206572 
 1813      726F723A 
 1813      20737461 
 1814 004b 00       		.align	2
 1815              	.LC24:
 1816 004c 5B636F6D 		.ascii	"[command] error: copy len invalid !\015\012\000"
 1816      6D616E64 
 1816      5D206572 
 1816      726F723A 
 1816      20636F70 
 1817              		.section	.text.Data_copy_from_pos,"ax",%progbits
 1818              		.align	1
 1819              		.global	Data_copy_from_pos
 1820              		.syntax unified
 1821              		.thumb
 1822              		.thumb_func
 1824              	Data_copy_from_pos:
 1825              	.LVL185:
 1826              	.LFB71:
 185:User/Src/command.c ****     if (dest == NULL || src == NULL)
 1827              		.loc 1 185 1 is_stmt 1 view -0
 1828              		.cfi_startproc
 1829              		@ args = 0, pretend = 0, frame = 0
 1830              		@ frame_needed = 0, uses_anonymous_args = 0
 185:User/Src/command.c ****     if (dest == NULL || src == NULL)
 1831              		.loc 1 185 1 is_stmt 0 view .LVU499
 1832 0000 F8B5     		push	{r3, r4, r5, r6, r7, lr}
 1833              	.LCFI23:
 1834              		.cfi_def_cfa_offset 24
 1835              		.cfi_offset 3, -24
 1836              		.cfi_offset 4, -20
 1837              		.cfi_offset 5, -16
 1838              		.cfi_offset 6, -12
 1839              		.cfi_offset 7, -8
 1840              		.cfi_offset 14, -4
 186:User/Src/command.c ****     {
 1841              		.loc 1 186 5 is_stmt 1 view .LVU500
 186:User/Src/command.c ****     {
 1842              		.loc 1 186 8 is_stmt 0 view .LVU501
 1843 0002 A8B1     		cbz	r0, .L135
 1844 0004 0C46     		mov	r4, r1
 1845 0006 1546     		mov	r5, r2
 1846 0008 1E46     		mov	r6, r3
 1847 000a 0746     		mov	r7, r0
 186:User/Src/command.c ****     {
 1848              		.loc 1 186 22 discriminator 1 view .LVU502
 1849 000c 81B1     		cbz	r1, .L135
 192:User/Src/command.c ****     if (start_pos < 0 || start_pos >= src_len)
 1850              		.loc 1 192 5 is_stmt 1 view .LVU503
 192:User/Src/command.c ****     if (start_pos < 0 || start_pos >= src_len)
 1851              		.loc 1 192 19 is_stmt 0 view .LVU504
ARM GAS  C:\Users\84759\AppData\Local\Temp\ccVSdzbq.s 			page 57


 1852 000e 0846     		mov	r0, r1
 1853              	.LVL186:
 192:User/Src/command.c ****     if (start_pos < 0 || start_pos >= src_len)
 1854              		.loc 1 192 19 view .LVU505
 1855 0010 FFF7FEFF 		bl	strlen
 1856              	.LVL187:
 193:User/Src/command.c ****     {
 1857              		.loc 1 193 5 is_stmt 1 view .LVU506
 193:User/Src/command.c ****     {
 1858              		.loc 1 193 8 is_stmt 0 view .LVU507
 1859 0014 8542     		cmp	r5, r0
 1860 0016 10DA     		bge	.L141
 199:User/Src/command.c ****     {
 1861              		.loc 1 199 5 is_stmt 1 view .LVU508
 199:User/Src/command.c ****     {
 1862              		.loc 1 199 36 is_stmt 0 view .LVU509
 1863 0018 7319     		adds	r3, r6, r5
 199:User/Src/command.c ****     {
 1864              		.loc 1 199 8 view .LVU510
 1865 001a 8342     		cmp	r3, r0
 1866 001c 12DC     		bgt	.L142
 205:User/Src/command.c ****     dest[copy_len] = '\0';
 1867              		.loc 1 205 5 is_stmt 1 view .LVU511
 1868 001e 3246     		mov	r2, r6
 1869 0020 6119     		adds	r1, r4, r5
 1870 0022 3846     		mov	r0, r7
 1871              	.LVL188:
 205:User/Src/command.c ****     dest[copy_len] = '\0';
 1872              		.loc 1 205 5 is_stmt 0 view .LVU512
 1873 0024 FFF7FEFF 		bl	memcpy
 1874              	.LVL189:
 206:User/Src/command.c ****     return 1;
 1875              		.loc 1 206 5 is_stmt 1 view .LVU513
 206:User/Src/command.c ****     return 1;
 1876              		.loc 1 206 20 is_stmt 0 view .LVU514
 1877 0028 0023     		movs	r3, #0
 1878 002a BB55     		strb	r3, [r7, r6]
 207:User/Src/command.c **** }
 1879              		.loc 1 207 5 is_stmt 1 view .LVU515
 207:User/Src/command.c **** }
 1880              		.loc 1 207 12 is_stmt 0 view .LVU516
 1881 002c 0120     		movs	r0, #1
 1882              	.LVL190:
 1883              	.L137:
 208:User/Src/command.c **** 
 1884              		.loc 1 208 1 view .LVU517
 1885 002e F8BD     		pop	{r3, r4, r5, r6, r7, pc}
 1886              	.LVL191:
 1887              	.L135:
 188:User/Src/command.c ****         return 0;
 1888              		.loc 1 188 9 is_stmt 1 view .LVU518
 1889 0030 0748     		ldr	r0, .L143
 1890              	.LVL192:
 188:User/Src/command.c ****         return 0;
 1891              		.loc 1 188 9 is_stmt 0 view .LVU519
 1892 0032 FFF7FEFF 		bl	UsbPrintf
 1893              	.LVL193:
ARM GAS  C:\Users\84759\AppData\Local\Temp\ccVSdzbq.s 			page 58


 189:User/Src/command.c ****     }
 1894              		.loc 1 189 9 is_stmt 1 view .LVU520
 189:User/Src/command.c ****     }
 1895              		.loc 1 189 16 is_stmt 0 view .LVU521
 1896 0036 0020     		movs	r0, #0
 1897 0038 F9E7     		b	.L137
 1898              	.LVL194:
 1899              	.L141:
 195:User/Src/command.c ****         return 0;
 1900              		.loc 1 195 9 is_stmt 1 view .LVU522
 1901 003a 0648     		ldr	r0, .L143+4
 1902              	.LVL195:
 195:User/Src/command.c ****         return 0;
 1903              		.loc 1 195 9 is_stmt 0 view .LVU523
 1904 003c FFF7FEFF 		bl	UsbPrintf
 1905              	.LVL196:
 196:User/Src/command.c ****     }
 1906              		.loc 1 196 9 is_stmt 1 view .LVU524
 196:User/Src/command.c ****     }
 1907              		.loc 1 196 16 is_stmt 0 view .LVU525
 1908 0040 0020     		movs	r0, #0
 1909 0042 F4E7     		b	.L137
 1910              	.LVL197:
 1911              	.L142:
 201:User/Src/command.c ****         return 0;
 1912              		.loc 1 201 9 is_stmt 1 view .LVU526
 1913 0044 0448     		ldr	r0, .L143+8
 1914              	.LVL198:
 201:User/Src/command.c ****         return 0;
 1915              		.loc 1 201 9 is_stmt 0 view .LVU527
 1916 0046 FFF7FEFF 		bl	UsbPrintf
 1917              	.LVL199:
 202:User/Src/command.c ****     }
 1918              		.loc 1 202 9 is_stmt 1 view .LVU528
 202:User/Src/command.c ****     }
 1919              		.loc 1 202 16 is_stmt 0 view .LVU529
 1920 004a 0020     		movs	r0, #0
 1921 004c EFE7     		b	.L137
 1922              	.L144:
 1923 004e 00BF     		.align	2
 1924              	.L143:
 1925 0050 00000000 		.word	.LC22
 1926 0054 24000000 		.word	.LC23
 1927 0058 4C000000 		.word	.LC24
 1928              		.cfi_endproc
 1929              	.LFE71:
 1931              		.section	.rodata.isFilenameValid.str1.4,"aMS",%progbits,1
 1932              		.align	2
 1933              	.LC25:
 1934 0000 2F5C3A2A 		.ascii	"/\\:*?\"<>|\000"
 1934      3F223C3E 
 1934      7C00
 1935              		.section	.text.isFilenameValid,"ax",%progbits
 1936              		.align	1
 1937              		.global	isFilenameValid
 1938              		.syntax unified
 1939              		.thumb
ARM GAS  C:\Users\84759\AppData\Local\Temp\ccVSdzbq.s 			page 59


 1940              		.thumb_func
 1942              	isFilenameValid:
 1943              	.LVL200:
 1944              	.LFB72:
 211:User/Src/command.c ****     if (filename == NULL || strlen(filename) == 0)
 1945              		.loc 1 211 1 is_stmt 1 view -0
 1946              		.cfi_startproc
 1947              		@ args = 0, pretend = 0, frame = 0
 1948              		@ frame_needed = 0, uses_anonymous_args = 0
 212:User/Src/command.c ****         return 0;
 1949              		.loc 1 212 5 view .LVU531
 212:User/Src/command.c ****         return 0;
 1950              		.loc 1 212 8 is_stmt 0 view .LVU532
 1951 0000 88B1     		cbz	r0, .L149
 211:User/Src/command.c ****     if (filename == NULL || strlen(filename) == 0)
 1952              		.loc 1 211 1 discriminator 1 view .LVU533
 1953 0002 38B5     		push	{r3, r4, r5, lr}
 1954              	.LCFI24:
 1955              		.cfi_def_cfa_offset 16
 1956              		.cfi_offset 3, -16
 1957              		.cfi_offset 4, -12
 1958              		.cfi_offset 5, -8
 1959              		.cfi_offset 14, -4
 1960 0004 0546     		mov	r5, r0
 212:User/Src/command.c ****         return 0;
 1961              		.loc 1 212 46 discriminator 1 view .LVU534
 1962 0006 0078     		ldrb	r0, [r0]	@ zero_extendqisi2
 1963              	.LVL201:
 212:User/Src/command.c ****         return 0;
 1964              		.loc 1 212 26 discriminator 1 view .LVU535
 1965 0008 60B1     		cbz	r0, .L146
 1966              	.LBB8:
 215:User/Src/command.c ****     {
 1967              		.loc 1 215 14 view .LVU536
 1968 000a 0024     		movs	r4, #0
 1969 000c 00E0     		b	.L147
 1970              	.LVL202:
 1971              	.L156:
 215:User/Src/command.c ****     {
 1972              		.loc 1 215 42 is_stmt 1 discriminator 2 view .LVU537
 215:User/Src/command.c ****     {
 1973              		.loc 1 215 43 is_stmt 0 discriminator 2 view .LVU538
 1974 000e 0134     		adds	r4, r4, #1
 1975              	.LVL203:
 1976              	.L147:
 215:User/Src/command.c ****     {
 1977              		.loc 1 215 21 is_stmt 1 discriminator 1 view .LVU539
 215:User/Src/command.c ****     {
 1978              		.loc 1 215 29 is_stmt 0 discriminator 1 view .LVU540
 1979 0010 295D     		ldrb	r1, [r5, r4]	@ zero_extendqisi2
 215:User/Src/command.c ****     {
 1980              		.loc 1 215 5 discriminator 1 view .LVU541
 1981 0012 31B1     		cbz	r1, .L155
 217:User/Src/command.c ****             return 0;
 1982              		.loc 1 217 9 is_stmt 1 view .LVU542
 217:User/Src/command.c ****             return 0;
 1983              		.loc 1 217 13 is_stmt 0 view .LVU543
ARM GAS  C:\Users\84759\AppData\Local\Temp\ccVSdzbq.s 			page 60


 1984 0014 0548     		ldr	r0, .L157
 1985 0016 FFF7FEFF 		bl	strchr
 1986              	.LVL204:
 217:User/Src/command.c ****             return 0;
 1987              		.loc 1 217 12 view .LVU544
 1988 001a 0028     		cmp	r0, #0
 1989 001c F7D0     		beq	.L156
 218:User/Src/command.c ****     }
 1990              		.loc 1 218 20 view .LVU545
 1991 001e 0020     		movs	r0, #0
 1992 0020 00E0     		b	.L146
 1993              	.L155:
 1994              	.LBE8:
 220:User/Src/command.c **** }
 1995              		.loc 1 220 12 view .LVU546
 1996 0022 0120     		movs	r0, #1
 1997              	.LVL205:
 1998              	.L146:
 221:User/Src/command.c **** 
 1999              		.loc 1 221 1 view .LVU547
 2000 0024 38BD     		pop	{r3, r4, r5, pc}
 2001              	.LVL206:
 2002              	.L149:
 2003              	.LCFI25:
 2004              		.cfi_def_cfa_offset 0
 2005              		.cfi_restore 3
 2006              		.cfi_restore 4
 2007              		.cfi_restore 5
 2008              		.cfi_restore 14
 213:User/Src/command.c **** 
 2009              		.loc 1 213 16 view .LVU548
 2010 0026 0020     		movs	r0, #0
 2011              	.LVL207:
 221:User/Src/command.c **** 
 2012              		.loc 1 221 1 view .LVU549
 2013 0028 7047     		bx	lr
 2014              	.L158:
 2015 002a 00BF     		.align	2
 2016              	.L157:
 2017 002c 00000000 		.word	.LC25
 2018              		.cfi_endproc
 2019              	.LFE72:
 2021              		.section	.rodata.AT_FATFS_DelFile_Handle.str1.4,"aMS",%progbits,1
 2022              		.align	2
 2023              	.LC27:
 2024 0000 5B636F6D 		.ascii	"[command] \264\355\316\363\243\272\316\336\320\247\270"
 2024      6D616E64 
 2024      5D20B4ED 
 2024      CEF3A3BA 
 2024      CEDED0A7 
 2025 0015 F1CABDA3 		.ascii	"\361\312\275\243\241\015\012\000"
 2025      A10D0A00 
 2026 001d 000000   		.align	2
 2027              	.LC28:
 2028 0020 5B636F6D 		.ascii	"[command] \323\303\267\250\243\272AT^FATFS_DelFile="
 2028      6D616E64 
 2028      5D20D3C3 
ARM GAS  C:\Users\84759\AppData\Local\Temp\ccVSdzbq.s 			page 61


 2028      B7A8A3BA 
 2028      41545E46 
 2029 0041 3C66696C 		.ascii	"<filename>\015\012\000"
 2029      656E616D 
 2029      653E0D0A 
 2029      00
 2030 004e 0000     		.align	2
 2031              	.LC29:
 2032 0050 5B636F6D 		.ascii	"[command] \264\355\316\363\243\272\262\316\312\375\316"
 2032      6D616E64 
 2032      5D20B4ED 
 2032      CEF3A3BA 
 2032      B2CECAFD 
 2033 0065 AABFD5A3 		.ascii	"\252\277\325\243\241\015\012\000"
 2033      A10D0A00 
 2034 006d 000000   		.align	2
 2035              	.LC30:
 2036 0070 5B636F6D 		.ascii	"[command] \264\355\316\363\243\272\314\341\310\241\316"
 2036      6D616E64 
 2036      5D20B4ED 
 2036      CEF3A3BA 
 2036      CCE1C8A1 
 2037 0085 C4BCFEC3 		.ascii	"\304\274\376\303\373\312\247\260\334\015\012\000"
 2037      FBCAA7B0 
 2037      DC0D0A00 
 2038 0091 000000   		.align	2
 2039              	.LC31:
 2040 0094 5B636F6D 		.ascii	"[command] \264\355\316\363\243\272\316\304\274\376\303"
 2040      6D616E64 
 2040      5D20B4ED 
 2040      CEF3A3BA 
 2040      CEC4BCFE 
 2041 00a9 FBB0FCBA 		.ascii	"\373\260\374\272\254\267\307\267\250\327\326\267\373"
 2041      ACB7C7B7 
 2041      A8D7D6B7 
 2041      FB
 2042 00b6 A3A82F5C 		.ascii	"\243\250/\\:*?\"<>|\243\251\015\012\000"
 2042      3A2A3F22 
 2042      3C3E7CA3 
 2042      A90D0A00 
 2043 00c6 0000     		.align	2
 2044              	.LC32:
 2045 00c8 5B636F6D 		.ascii	"[command] \264\355\316\363\243\272FATFS \316\264\271"
 2045      6D616E64 
 2045      5D20B4ED 
 2045      CEF3A3BA 
 2045      46415446 
 2046 00e1 D2D4D8A3 		.ascii	"\322\324\330\243\241\015\012\000"
 2046      A10D0A00 
 2047 00e9 000000   		.align	2
 2048              	.LC33:
 2049 00ec 0D0A2A2A 		.ascii	"\015\012******[command] \277\252\312\274\316\304\274"
 2049      2A2A2A2A 
 2049      5B636F6D 
 2049      6D616E64 
 2049      5D20BFAA 
 2050 0105 FEC9BEB3 		.ascii	"\376\311\276\263\375 ******\015\012\000"
ARM GAS  C:\Users\84759\AppData\Local\Temp\ccVSdzbq.s 			page 62


 2050      FD202A2A 
 2050      2A2A2A2A 
 2050      0D0A00
 2051              		.align	2
 2052              	.LC34:
 2053 0114 5B636F6D 		.ascii	"[command] \264\375\311\276\263\375\316\304\274\376\303"
 2053      6D616E64 
 2053      5D20B4FD 
 2053      C9BEB3FD 
 2053      CEC4BCFE 
 2054 0129 FB3A2025 		.ascii	"\373: %s\015\012\000"
 2054      730D0A00 
 2055 0131 000000   		.align	2
 2056              	.LC35:
 2057 0134 5B636F6D 		.ascii	"[command] \316\304\274\376\311\276\263\375\263\311\271"
 2057      6D616E64 
 2057      5D20CEC4 
 2057      BCFEC9BE 
 2057      B3FDB3C9 
 2058 0149 A6A3A10D 		.ascii	"\246\243\241\015\012\000"
 2058      0A00
 2059 014f 00       		.align	2
 2060              	.LC36:
 2061 0150 2A2A2A2A 		.ascii	"******[command] \311\276\263\375\315\352\263\311 **"
 2061      2A2A5B63 
 2061      6F6D6D61 
 2061      6E645D20 
 2061      C9BEB3FD 
 2062 016b 2A2A2A2A 		.ascii	"****\015\012\000"
 2062      0D0A00
 2063 0172 0000     		.align	2
 2064              	.LC37:
 2065 0174 5B636F6D 		.ascii	"[command] \316\304\274\376\311\276\263\375\312\247\260"
 2065      6D616E64 
 2065      5D20CEC4 
 2065      BCFEC9BE 
 2065      B3FDCAA7 
 2066 0189 DCA3A165 		.ascii	"\334\243\241err=%d \015\012\000"
 2066      72723D25 
 2066      64200D0A 
 2066      00
 2067 0196 0000     		.align	2
 2068              	.LC38:
 2069 0198 2A2A2A2A 		.ascii	"******[command] \311\276\263\375\312\247\260\334 **"
 2069      2A2A5B63 
 2069      6F6D6D61 
 2069      6E645D20 
 2069      C9BEB3FD 
 2070 01b3 2A2A2A2A 		.ascii	"****\015\012\000"
 2070      0D0A00
 2071 01ba 0000     		.align	2
 2072              	.LC26:
 2073 01bc 41545E46 		.ascii	"AT^FATFS_DelFile=\000"
 2073      41544653 
 2073      5F44656C 
 2073      46696C65 
 2073      3D00
ARM GAS  C:\Users\84759\AppData\Local\Temp\ccVSdzbq.s 			page 63


 2074              		.section	.text.AT_FATFS_DelFile_Handle,"ax",%progbits
 2075              		.align	1
 2076              		.global	AT_FATFS_DelFile_Handle
 2077              		.syntax unified
 2078              		.thumb
 2079              		.thumb_func
 2081              	AT_FATFS_DelFile_Handle:
 2082              	.LVL208:
 2083              	.LFB77:
 262:User/Src/command.c ****     // 1. żŐÖ¸ÁîĽě˛é
 2084              		.loc 1 262 1 is_stmt 1 view -0
 2085              		.cfi_startproc
 2086              		@ args = 0, pretend = 0, frame = 88
 2087              		@ frame_needed = 0, uses_anonymous_args = 0
 262:User/Src/command.c ****     // 1. żŐÖ¸ÁîĽě˛é
 2088              		.loc 1 262 1 is_stmt 0 view .LVU551
 2089 0000 30B5     		push	{r4, r5, lr}
 2090              	.LCFI26:
 2091              		.cfi_def_cfa_offset 12
 2092              		.cfi_offset 4, -12
 2093              		.cfi_offset 5, -8
 2094              		.cfi_offset 14, -4
 2095 0002 97B0     		sub	sp, sp, #92
 2096              	.LCFI27:
 2097              		.cfi_def_cfa_offset 104
 264:User/Src/command.c ****     {
 2098              		.loc 1 264 5 is_stmt 1 view .LVU552
 264:User/Src/command.c ****     {
 2099              		.loc 1 264 8 is_stmt 0 view .LVU553
 2100 0004 0028     		cmp	r0, #0
 2101 0006 52D0     		beq	.L160
 2102 0008 0546     		mov	r5, r0
 264:User/Src/command.c ****     {
 2103              		.loc 1 264 44 discriminator 1 view .LVU554
 2104 000a 0378     		ldrb	r3, [r0]	@ zero_extendqisi2
 264:User/Src/command.c ****     {
 2105              		.loc 1 264 25 discriminator 1 view .LVU555
 2106 000c 002B     		cmp	r3, #0
 2107 000e 4ED0     		beq	.L160
 271:User/Src/command.c ****     uint16_t header_len = strlen(cmd_header);
 2108              		.loc 1 271 5 is_stmt 1 view .LVU556
 271:User/Src/command.c ****     uint16_t header_len = strlen(cmd_header);
 2109              		.loc 1 271 10 is_stmt 0 view .LVU557
 2110 0010 0DF1440C 		add	ip, sp, #68
 2111 0014 374C     		ldr	r4, .L177
 2112 0016 0FCC     		ldmia	r4!, {r0, r1, r2, r3}
 2113              	.LVL209:
 271:User/Src/command.c ****     uint16_t header_len = strlen(cmd_header);
 2114              		.loc 1 271 10 view .LVU558
 2115 0018 ACE80F00 		stmia	ip!, {r0, r1, r2, r3}
 2116 001c 2368     		ldr	r3, [r4]
 2117 001e ACF80030 		strh	r3, [ip]	@ movhi
 272:User/Src/command.c ****     
 2118              		.loc 1 272 5 is_stmt 1 view .LVU559
 272:User/Src/command.c ****     
 2119              		.loc 1 272 27 is_stmt 0 view .LVU560
 2120 0022 11A8     		add	r0, sp, #68
ARM GAS  C:\Users\84759\AppData\Local\Temp\ccVSdzbq.s 			page 64


 2121 0024 FFF7FEFF 		bl	strlen
 2122              	.LVL210:
 272:User/Src/command.c ****     
 2123              		.loc 1 272 14 view .LVU561
 2124 0028 84B2     		uxth	r4, r0
 2125              	.LVL211:
 274:User/Src/command.c ****     {
 2126              		.loc 1 274 5 is_stmt 1 view .LVU562
 274:User/Src/command.c ****     {
 2127              		.loc 1 274 9 is_stmt 0 view .LVU563
 2128 002a 11A9     		add	r1, sp, #68
 2129 002c 2846     		mov	r0, r5
 2130 002e FFF7FEFF 		bl	strSearch
 2131              	.LVL212:
 274:User/Src/command.c ****     {
 2132              		.loc 1 274 8 view .LVU564
 2133 0032 0028     		cmp	r0, #0
 2134 0034 40D1     		bne	.L172
 282:User/Src/command.c ****     uint16_t cmd_len = strlen(command);
 2135              		.loc 1 282 5 is_stmt 1 view .LVU565
 2136              	.LVL213:
 283:User/Src/command.c ****     
 2137              		.loc 1 283 5 view .LVU566
 283:User/Src/command.c ****     
 2138              		.loc 1 283 24 is_stmt 0 view .LVU567
 2139 0036 2846     		mov	r0, r5
 2140 0038 FFF7FEFF 		bl	strlen
 2141              	.LVL214:
 283:User/Src/command.c ****     
 2142              		.loc 1 283 14 view .LVU568
 2143 003c 80B2     		uxth	r0, r0
 2144              	.LVL215:
 285:User/Src/command.c ****     {
 2145              		.loc 1 285 5 is_stmt 1 view .LVU569
 285:User/Src/command.c ****     {
 2146              		.loc 1 285 8 is_stmt 0 view .LVU570
 2147 003e 8442     		cmp	r4, r0
 2148 0040 41D2     		bcs	.L173
 292:User/Src/command.c ****     if (!Data_copy_from_pos(filename, command, filename_start, cmd_len - filename_start))
 2149              		.loc 1 292 5 is_stmt 1 view .LVU571
 292:User/Src/command.c ****     if (!Data_copy_from_pos(filename, command, filename_start, cmd_len - filename_start))
 2150              		.loc 1 292 10 is_stmt 0 view .LVU572
 2151 0042 0023     		movs	r3, #0
 2152 0044 0993     		str	r3, [sp, #36]
 2153 0046 0A93     		str	r3, [sp, #40]
 2154 0048 0B93     		str	r3, [sp, #44]
 2155 004a 0C93     		str	r3, [sp, #48]
 2156 004c 0D93     		str	r3, [sp, #52]
 2157 004e 0E93     		str	r3, [sp, #56]
 2158 0050 0F93     		str	r3, [sp, #60]
 2159 0052 1093     		str	r3, [sp, #64]
 293:User/Src/command.c ****     {
 2160              		.loc 1 293 5 is_stmt 1 view .LVU573
 293:User/Src/command.c ****     {
 2161              		.loc 1 293 10 is_stmt 0 view .LVU574
 2162 0054 001B     		subs	r0, r0, r4
 2163              	.LVL216:
ARM GAS  C:\Users\84759\AppData\Local\Temp\ccVSdzbq.s 			page 65


 293:User/Src/command.c ****     {
 2164              		.loc 1 293 10 view .LVU575
 2165 0056 83B2     		uxth	r3, r0
 2166 0058 2246     		mov	r2, r4
 2167 005a 2946     		mov	r1, r5
 2168 005c 09A8     		add	r0, sp, #36
 2169 005e FFF7FEFF 		bl	Data_copy_from_pos
 2170              	.LVL217:
 293:User/Src/command.c ****     {
 2171              		.loc 1 293 8 view .LVU576
 2172 0062 0028     		cmp	r0, #0
 2173 0064 33D0     		beq	.L174
 300:User/Src/command.c ****     {
 2174              		.loc 1 300 5 is_stmt 1 view .LVU577
 300:User/Src/command.c ****     {
 2175              		.loc 1 300 10 is_stmt 0 view .LVU578
 2176 0066 09A8     		add	r0, sp, #36
 2177 0068 FFF7FEFF 		bl	isFilenameValid
 2178              	.LVL218:
 300:User/Src/command.c ****     {
 2179              		.loc 1 300 8 view .LVU579
 2180 006c 0028     		cmp	r0, #0
 2181 006e 32D0     		beq	.L175
 307:User/Src/command.c ****     if (!FatFs_GetInfo(&fs_info))
 2182              		.loc 1 307 5 is_stmt 1 view .LVU580
 307:User/Src/command.c ****     if (!FatFs_GetInfo(&fs_info))
 2183              		.loc 1 307 18 is_stmt 0 view .LVU581
 2184 0070 2022     		movs	r2, #32
 2185 0072 0021     		movs	r1, #0
 2186 0074 01A8     		add	r0, sp, #4
 2187 0076 FFF7FEFF 		bl	memset
 2188              	.LVL219:
 308:User/Src/command.c ****     {
 2189              		.loc 1 308 5 is_stmt 1 view .LVU582
 308:User/Src/command.c ****     {
 2190              		.loc 1 308 10 is_stmt 0 view .LVU583
 2191 007a 01A8     		add	r0, sp, #4
 2192 007c FFF7FEFF 		bl	FatFs_GetInfo
 2193              	.LVL220:
 308:User/Src/command.c ****     {
 2194              		.loc 1 308 8 view .LVU584
 2195 0080 68B3     		cbz	r0, .L176
 315:User/Src/command.c **** 
 2196              		.loc 1 315 5 is_stmt 1 view .LVU585
 2197 0082 1D48     		ldr	r0, .L177+4
 2198 0084 FFF7FEFF 		bl	f_close
 2199              	.LVL221:
 318:User/Src/command.c ****     UsbPrintf("[command] ´ýÉľłýÎÄĽţĂű: %s\r\n", filename);
 2200              		.loc 1 318 5 view .LVU586
 2201 0088 1C48     		ldr	r0, .L177+8
 2202 008a FFF7FEFF 		bl	UsbPrintf
 2203              	.LVL222:
 319:User/Src/command.c **** 
 2204              		.loc 1 319 5 view .LVU587
 2205 008e 09A9     		add	r1, sp, #36
 2206 0090 1B48     		ldr	r0, .L177+12
 2207 0092 FFF7FEFF 		bl	UsbPrintf
ARM GAS  C:\Users\84759\AppData\Local\Temp\ccVSdzbq.s 			page 66


 2208              	.LVL223:
 321:User/Src/command.c ****     if (del_result == FR_OK)
 2209              		.loc 1 321 5 view .LVU588
 321:User/Src/command.c ****     if (del_result == FR_OK)
 2210              		.loc 1 321 26 is_stmt 0 view .LVU589
 2211 0096 09A8     		add	r0, sp, #36
 2212 0098 FFF7FEFF 		bl	FatFs_DeleteFile
 2213              	.LVL224:
 322:User/Src/command.c ****     {
 2214              		.loc 1 322 5 is_stmt 1 view .LVU590
 322:User/Src/command.c ****     {
 2215              		.loc 1 322 8 is_stmt 0 view .LVU591
 2216 009c 0146     		mov	r1, r0
 2217 009e 10BB     		cbnz	r0, .L168
 324:User/Src/command.c ****         UsbPrintf("******[command] ÉľłýÍęłÉ ******\r\n");
 2218              		.loc 1 324 9 is_stmt 1 view .LVU592
 2219 00a0 1848     		ldr	r0, .L177+16
 2220              	.LVL225:
 324:User/Src/command.c ****         UsbPrintf("******[command] ÉľłýÍęłÉ ******\r\n");
 2221              		.loc 1 324 9 is_stmt 0 view .LVU593
 2222 00a2 FFF7FEFF 		bl	UsbPrintf
 2223              	.LVL226:
 325:User/Src/command.c ****     }
 2224              		.loc 1 325 9 is_stmt 1 view .LVU594
 2225 00a6 1848     		ldr	r0, .L177+20
 2226 00a8 FFF7FEFF 		bl	UsbPrintf
 2227              	.LVL227:
 2228 00ac 02E0     		b	.L159
 2229              	.LVL228:
 2230              	.L160:
 266:User/Src/command.c ****         return;
 2231              		.loc 1 266 9 view .LVU595
 2232 00ae 1748     		ldr	r0, .L177+24
 2233              	.LVL229:
 266:User/Src/command.c ****         return;
 2234              		.loc 1 266 9 is_stmt 0 view .LVU596
 2235 00b0 FFF7FEFF 		bl	UsbPrintf
 2236              	.LVL230:
 267:User/Src/command.c ****     }
 2237              		.loc 1 267 9 is_stmt 1 view .LVU597
 2238              	.L159:
 332:User/Src/command.c **** 
 2239              		.loc 1 332 1 is_stmt 0 view .LVU598
 2240 00b4 17B0     		add	sp, sp, #92
 2241              	.LCFI28:
 2242              		.cfi_remember_state
 2243              		.cfi_def_cfa_offset 12
 2244              		@ sp needed
 2245 00b6 30BD     		pop	{r4, r5, pc}
 2246              	.LVL231:
 2247              	.L172:
 2248              	.LCFI29:
 2249              		.cfi_restore_state
 276:User/Src/command.c ****         UsbPrintf("[command] ÓĂ·¨ŁşAT^FATFS_DelFile=<filename>\r\n");
 2250              		.loc 1 276 9 is_stmt 1 view .LVU599
 2251 00b8 1548     		ldr	r0, .L177+28
 2252 00ba FFF7FEFF 		bl	UsbPrintf
ARM GAS  C:\Users\84759\AppData\Local\Temp\ccVSdzbq.s 			page 67


 2253              	.LVL232:
 277:User/Src/command.c ****         return;
 2254              		.loc 1 277 9 view .LVU600
 2255 00be 1548     		ldr	r0, .L177+32
 2256 00c0 FFF7FEFF 		bl	UsbPrintf
 2257              	.LVL233:
 278:User/Src/command.c ****     }
 2258              		.loc 1 278 9 view .LVU601
 2259 00c4 F6E7     		b	.L159
 2260              	.LVL234:
 2261              	.L173:
 287:User/Src/command.c ****         return;
 2262              		.loc 1 287 9 view .LVU602
 2263 00c6 1448     		ldr	r0, .L177+36
 2264              	.LVL235:
 287:User/Src/command.c ****         return;
 2265              		.loc 1 287 9 is_stmt 0 view .LVU603
 2266 00c8 FFF7FEFF 		bl	UsbPrintf
 2267              	.LVL236:
 288:User/Src/command.c ****     }
 2268              		.loc 1 288 9 is_stmt 1 view .LVU604
 2269 00cc F2E7     		b	.L159
 2270              	.L174:
 295:User/Src/command.c ****         return;
 2271              		.loc 1 295 9 view .LVU605
 2272 00ce 1348     		ldr	r0, .L177+40
 2273 00d0 FFF7FEFF 		bl	UsbPrintf
 2274              	.LVL237:
 296:User/Src/command.c ****     }
 2275              		.loc 1 296 9 view .LVU606
 2276 00d4 EEE7     		b	.L159
 2277              	.L175:
 302:User/Src/command.c ****         return;
 2278              		.loc 1 302 9 view .LVU607
 2279 00d6 1248     		ldr	r0, .L177+44
 2280 00d8 FFF7FEFF 		bl	UsbPrintf
 2281              	.LVL238:
 303:User/Src/command.c ****     }
 2282              		.loc 1 303 9 view .LVU608
 2283 00dc EAE7     		b	.L159
 2284              	.L176:
 310:User/Src/command.c ****         return;
 2285              		.loc 1 310 9 view .LVU609
 2286 00de 1148     		ldr	r0, .L177+48
 2287 00e0 FFF7FEFF 		bl	UsbPrintf
 2288              	.LVL239:
 311:User/Src/command.c ****     }
 2289              		.loc 1 311 9 view .LVU610
 2290 00e4 E6E7     		b	.L159
 2291              	.LVL240:
 2292              	.L168:
 329:User/Src/command.c ****         UsbPrintf("******[command] ÉľłýĘ§°Ü ******\r\n");
 2293              		.loc 1 329 9 view .LVU611
 2294 00e6 1048     		ldr	r0, .L177+52
 2295              	.LVL241:
 329:User/Src/command.c ****         UsbPrintf("******[command] ÉľłýĘ§°Ü ******\r\n");
 2296              		.loc 1 329 9 is_stmt 0 view .LVU612
ARM GAS  C:\Users\84759\AppData\Local\Temp\ccVSdzbq.s 			page 68


 2297 00e8 FFF7FEFF 		bl	UsbPrintf
 2298              	.LVL242:
 330:User/Src/command.c ****     }
 2299              		.loc 1 330 9 is_stmt 1 view .LVU613
 2300 00ec 0F48     		ldr	r0, .L177+56
 2301 00ee FFF7FEFF 		bl	UsbPrintf
 2302              	.LVL243:
 2303 00f2 DFE7     		b	.L159
 2304              	.L178:
 2305              		.align	2
 2306              	.L177:
 2307 00f4 BC010000 		.word	.LC26
 2308 00f8 00000000 		.word	USERFile
 2309 00fc EC000000 		.word	.LC33
 2310 0100 14010000 		.word	.LC34
 2311 0104 34010000 		.word	.LC35
 2312 0108 50010000 		.word	.LC36
 2313 010c 00000000 		.word	.LC6
 2314 0110 00000000 		.word	.LC27
 2315 0114 20000000 		.word	.LC28
 2316 0118 50000000 		.word	.LC29
 2317 011c 70000000 		.word	.LC30
 2318 0120 94000000 		.word	.LC31
 2319 0124 C8000000 		.word	.LC32
 2320 0128 74010000 		.word	.LC37
 2321 012c 98010000 		.word	.LC38
 2322              		.cfi_endproc
 2323              	.LFE77:
 2325              		.section	.rodata.AT_FATFS_WRITE_Handle.str1.4,"aMS",%progbits,1
 2326              		.align	2
 2327              	.LC40:
 2328 0000 5B636F6D 		.ascii	"[command] \323\303\267\250\243\272AT^FATFS_WRITE=<f"
 2328      6D616E64 
 2328      5D20D3C3 
 2328      B7A8A3BA 
 2328      41545E46 
 2329 0021 696C656E 		.ascii	"ilename>,<data>\015\012\000"
 2329      616D653E 
 2329      2C3C6461 
 2329      74613E0D 
 2329      0A00
 2330 0033 00       		.align	2
 2331              	.LC41:
 2332 0034 5B636F6D 		.ascii	"[command] \264\355\316\363\243\272\310\261\311\331\262"
 2332      6D616E64 
 2332      5D20B4ED 
 2332      CEF3A3BA 
 2332      C8B1C9D9 
 2333 0049 CECAFDA3 		.ascii	"\316\312\375\243\241\015\012\000"
 2333      A10D0A00 
 2334 0051 000000   		.align	2
 2335              	.LC42:
 2336 0054 2C00     		.ascii	",\000"
 2337 0056 0000     		.align	2
 2338              	.LC43:
 2339 0058 5B636F6D 		.ascii	"[command] \264\355\316\363\243\272\310\261\311\331\266"
 2339      6D616E64 
ARM GAS  C:\Users\84759\AppData\Local\Temp\ccVSdzbq.s 			page 69


 2339      5D20B4ED 
 2339      CEF3A3BA 
 2339      C8B1C9D9 
 2340 006d BABAC5B7 		.ascii	"\272\272\305\267\326\270\364\267\373\243\241\015\012"
 2340      D6B8F4B7 
 2340      FBA3A10D 
 2340      0A
 2341 007a 00       		.ascii	"\000"
 2342 007b 00       		.align	2
 2343              	.LC44:
 2344 007c 5B636F6D 		.ascii	"[command] \264\355\316\363\243\272\316\304\274\376\303"
 2344      6D616E64 
 2344      5D20B4ED 
 2344      CEF3A3BA 
 2344      CEC4BCFE 
 2345 0091 FBB9FDB3 		.ascii	"\373\271\375\263\244\243\250\327\356\264\363 %d\243"
 2345      A4A3A8D7 
 2345      EEB4F320 
 2345      2564A3
 2346 00a0 A90D0A00 		.ascii	"\251\015\012\000"
 2347              		.align	2
 2348              	.LC45:
 2349 00a4 5B636F6D 		.ascii	"[command] \264\355\316\363\243\272\316\304\274\376\303"
 2349      6D616E64 
 2349      5D20B4ED 
 2349      CEF3A3BA 
 2349      CEC4BCFE 
 2350 00b9 FBB0FCBA 		.ascii	"\373\260\374\272\254\267\307\267\250\327\326\267\373"
 2350      ACB7C7B7 
 2350      A8D7D6B7 
 2350      FB
 2351 00c6 0D0A00   		.ascii	"\015\012\000"
 2352 00c9 000000   		.align	2
 2353              	.LC46:
 2354 00cc 5B636F6D 		.ascii	"[command] \264\355\316\363\243\272\320\264\310\353\312"
 2354      6D616E64 
 2354      5D20B4ED 
 2354      CEF3A3BA 
 2354      D0B4C8EB 
 2355 00e1 FDBEDDCE 		.ascii	"\375\276\335\316\252\277\325\015\012\000"
 2355      AABFD50D 
 2355      0A00
 2356 00eb 00       		.align	2
 2357              	.LC47:
 2358 00ec 5B636F6D 		.ascii	"[command] \276\257\270\346\243\272\312\375\276\335\271"
 2358      6D616E64 
 2358      5D20BEAF 
 2358      B8E6A3BA 
 2358      CAFDBEDD 
 2359 0101 FDB3A4A3 		.ascii	"\375\263\244\243\254\327\324\266\257\275\330\266\317"
 2359      ACD7D4B6 
 2359      AFBDD8B6 
 2359      CF
 2360 010e 0D0A00   		.ascii	"\015\012\000"
 2361 0111 000000   		.align	2
 2362              	.LC48:
 2363 0114 5B636F6D 		.ascii	"[command] \264\355\316\363\243\272\314\341\310\241\312"
ARM GAS  C:\Users\84759\AppData\Local\Temp\ccVSdzbq.s 			page 70


 2363      6D616E64 
 2363      5D20B4ED 
 2363      CEF3A3BA 
 2363      CCE1C8A1 
 2364 0129 FDBEDDCA 		.ascii	"\375\276\335\312\247\260\334\015\012\000"
 2364      A7B0DC0D 
 2364      0A00
 2365 0133 00       		.align	2
 2366              	.LC49:
 2367 0134 0D0A2A2A 		.ascii	"\015\012******[command] \277\252\312\274\316\304\274"
 2367      2A2A2A2A 
 2367      5B636F6D 
 2367      6D616E64 
 2367      5D20BFAA 
 2368 014d FED0B4C8 		.ascii	"\376\320\264\310\353 ******\015\012\000"
 2368      EB202A2A 
 2368      2A2A2A2A 
 2368      0D0A00
 2369              		.align	2
 2370              	.LC50:
 2371 015c 5B636F6D 		.ascii	"[command] \316\304\274\376\303\373: %s\015\012\000"
 2371      6D616E64 
 2371      5D20CEC4 
 2371      BCFEC3FB 
 2371      3A202573 
 2372 0173 00       		.align	2
 2373              	.LC51:
 2374 0174 5B636F6D 		.ascii	"[command] \312\375\276\335: %s\015\012\000"
 2374      6D616E64 
 2374      5D20CAFD 
 2374      BEDD3A20 
 2374      25730D0A 
 2375 0189 000000   		.align	2
 2376              	.LC52:
 2377 018c 5B636F6D 		.ascii	"[command] \263\244\266\310: %d \327\326\275\332\015"
 2377      6D616E64 
 2377      5D20B3A4 
 2377      B6C83A20 
 2377      256420D7 
 2378 01a4 0A00     		.ascii	"\012\000"
 2379 01a6 0000     		.align	2
 2380              	.LC53:
 2381 01a8 5B636F6D 		.ascii	"[command] \320\264\310\353\263\311\271\246\243\241\327"
 2381      6D616E64 
 2381      5D20D0B4 
 2381      C8EBB3C9 
 2381      B9A6A3A1 
 2382 01bd D6BDDAA3 		.ascii	"\326\275\332\243\272%u\015\012\000"
 2382      BA25750D 
 2382      0A00
 2383 01c7 00       		.align	2
 2384              	.LC54:
 2385 01c8 5B636F6D 		.ascii	"[command] \316\304\274\376\306\360\312\274\264\330\272"
 2385      6D616E64 
 2385      5D20CEC4 
 2385      BCFEC6F0 
 2385      CABCB4D8 
ARM GAS  C:\Users\84759\AppData\Local\Temp\ccVSdzbq.s 			page 71


 2386 01dd C5A3BA25 		.ascii	"\305\243\272%lu  \265\261\307\260\320\264\310\353\264"
 2386      6C752020 
 2386      B5B1C7B0 
 2386      D0B4C8EB 
 2386      B4
 2387 01ee D8BAC5A3 		.ascii	"\330\272\305\243\272%lu\015\012\000"
 2387      BA256C75 
 2387      0D0A00
 2388 01f9 000000   		.align	2
 2389              	.LC55:
 2390 01fc 2A2A2A2A 		.ascii	"******[command] \320\264\310\353\315\352\263\311 **"
 2390      2A2A5B63 
 2390      6F6D6D61 
 2390      6E645D20 
 2390      D0B4C8EB 
 2391 0217 2A2A2A2A 		.ascii	"****\015\012\000"
 2391      0D0A00
 2392 021e 0000     		.align	2
 2393              	.LC56:
 2394 0220 5B636F6D 		.ascii	"[command] \320\264\310\353\312\247\260\334\243\241e"
 2394      6D616E64 
 2394      5D20D0B4 
 2394      C8EBCAA7 
 2394      B0DCA3A1 
 2395 0235 72723D25 		.ascii	"rr=%d \015\012\000"
 2395      64200D0A 
 2395      00
 2396 023e 0000     		.align	2
 2397              	.LC57:
 2398 0240 2A2A2A2A 		.ascii	"******[command] \320\264\310\353\312\247\260\334 **"
 2398      2A2A5B63 
 2398      6F6D6D61 
 2398      6E645D20 
 2398      D0B4C8EB 
 2399 025b 2A2A2A2A 		.ascii	"****\015\012\000"
 2399      0D0A00
 2400 0262 0000     		.align	2
 2401              	.LC39:
 2402 0264 41545E46 		.ascii	"AT^FATFS_WRITE=\000"
 2402      41544653 
 2402      5F575249 
 2402      54453D00 
 2403              		.section	.text.AT_FATFS_WRITE_Handle,"ax",%progbits
 2404              		.align	1
 2405              		.global	AT_FATFS_WRITE_Handle
 2406              		.syntax unified
 2407              		.thumb
 2408              		.thumb_func
 2410              	AT_FATFS_WRITE_Handle:
 2411              	.LVL244:
 2412              	.LFB80:
 348:User/Src/command.c ****     if (command == NULL || strlen(command) == 0)
 2413              		.loc 1 348 1 view -0
 2414              		.cfi_startproc
 2415              		@ args = 0, pretend = 0, frame = 608
 2416              		@ frame_needed = 0, uses_anonymous_args = 0
 348:User/Src/command.c ****     if (command == NULL || strlen(command) == 0)
ARM GAS  C:\Users\84759\AppData\Local\Temp\ccVSdzbq.s 			page 72


 2417              		.loc 1 348 1 is_stmt 0 view .LVU615
 2418 0000 2DE9F041 		push	{r4, r5, r6, r7, r8, lr}
 2419              	.LCFI30:
 2420              		.cfi_def_cfa_offset 24
 2421              		.cfi_offset 4, -24
 2422              		.cfi_offset 5, -20
 2423              		.cfi_offset 6, -16
 2424              		.cfi_offset 7, -12
 2425              		.cfi_offset 8, -8
 2426              		.cfi_offset 14, -4
 2427 0004 ADF5187D 		sub	sp, sp, #608
 2428              	.LCFI31:
 2429              		.cfi_def_cfa_offset 632
 349:User/Src/command.c ****     {
 2430              		.loc 1 349 5 is_stmt 1 view .LVU616
 349:User/Src/command.c ****     {
 2431              		.loc 1 349 8 is_stmt 0 view .LVU617
 2432 0008 0028     		cmp	r0, #0
 2433 000a 00F09580 		beq	.L180
 2434 000e 0546     		mov	r5, r0
 349:User/Src/command.c ****     {
 2435              		.loc 1 349 44 discriminator 1 view .LVU618
 2436 0010 0378     		ldrb	r3, [r0]	@ zero_extendqisi2
 349:User/Src/command.c ****     {
 2437              		.loc 1 349 25 discriminator 1 view .LVU619
 2438 0012 002B     		cmp	r3, #0
 2439 0014 00F09080 		beq	.L180
 355:User/Src/command.c ****     uint16_t header_len = strlen(cmd_header);
 2440              		.loc 1 355 5 is_stmt 1 view .LVU620
 355:User/Src/command.c ****     uint16_t header_len = strlen(cmd_header);
 2441              		.loc 1 355 10 is_stmt 0 view .LVU621
 2442 0018 684B     		ldr	r3, .L209
 2443 001a 94AC     		add	r4, sp, #592
 2444 001c 0FCB     		ldm	r3, {r0, r1, r2, r3}
 2445              	.LVL245:
 355:User/Src/command.c ****     uint16_t header_len = strlen(cmd_header);
 2446              		.loc 1 355 10 view .LVU622
 2447 001e 84E80F00 		stm	r4, {r0, r1, r2, r3}
 356:User/Src/command.c **** 
 2448              		.loc 1 356 5 is_stmt 1 view .LVU623
 356:User/Src/command.c **** 
 2449              		.loc 1 356 27 is_stmt 0 view .LVU624
 2450 0022 2046     		mov	r0, r4
 2451 0024 FFF7FEFF 		bl	strlen
 2452              	.LVL246:
 2453 0028 0646     		mov	r6, r0
 356:User/Src/command.c **** 
 2454              		.loc 1 356 14 view .LVU625
 2455 002a 1FFA80F8 		uxth	r8, r0
 2456              	.LVL247:
 358:User/Src/command.c ****     {
 2457              		.loc 1 358 5 is_stmt 1 view .LVU626
 358:User/Src/command.c ****     {
 2458              		.loc 1 358 9 is_stmt 0 view .LVU627
 2459 002e 2146     		mov	r1, r4
 2460 0030 2846     		mov	r0, r5
 2461 0032 FFF7FEFF 		bl	strSearch
ARM GAS  C:\Users\84759\AppData\Local\Temp\ccVSdzbq.s 			page 73


 2462              	.LVL248:
 358:User/Src/command.c ****     {
 2463              		.loc 1 358 8 view .LVU628
 2464 0036 0028     		cmp	r0, #0
 2465 0038 40F08580 		bne	.L198
 365:User/Src/command.c ****     uint16_t data_start = header_len;
 2466              		.loc 1 365 5 is_stmt 1 view .LVU629
 365:User/Src/command.c ****     uint16_t data_start = header_len;
 2467              		.loc 1 365 24 is_stmt 0 view .LVU630
 2468 003c 2846     		mov	r0, r5
 2469 003e FFF7FEFF 		bl	strlen
 2470              	.LVL249:
 365:User/Src/command.c ****     uint16_t data_start = header_len;
 2471              		.loc 1 365 14 view .LVU631
 2472 0042 87B2     		uxth	r7, r0
 2473              	.LVL250:
 366:User/Src/command.c **** 
 2474              		.loc 1 366 5 is_stmt 1 view .LVU632
 368:User/Src/command.c ****     {
 2475              		.loc 1 368 5 view .LVU633
 368:User/Src/command.c ****     {
 2476              		.loc 1 368 8 is_stmt 0 view .LVU634
 2477 0044 B845     		cmp	r8, r7
 2478 0046 80F08580 		bcs	.L199
 374:User/Src/command.c ****     if (strlen(param_part) == 0)
 2479              		.loc 1 374 5 is_stmt 1 view .LVU635
 374:User/Src/command.c ****     if (strlen(param_part) == 0)
 2480              		.loc 1 374 11 is_stmt 0 view .LVU636
 2481 004a A819     		adds	r0, r5, r6
 2482              	.LVL251:
 375:User/Src/command.c ****     {
 2483              		.loc 1 375 5 is_stmt 1 view .LVU637
 375:User/Src/command.c ****     {
 2484              		.loc 1 375 28 is_stmt 0 view .LVU638
 2485 004c AB5D     		ldrb	r3, [r5, r6]	@ zero_extendqisi2
 375:User/Src/command.c ****     {
 2486              		.loc 1 375 8 view .LVU639
 2487 004e 002B     		cmp	r3, #0
 2488 0050 00F08480 		beq	.L200
 381:User/Src/command.c ****     if (comma_pos == -1)
 2489              		.loc 1 381 5 is_stmt 1 view .LVU640
 381:User/Src/command.c ****     if (comma_pos == -1)
 2490              		.loc 1 381 21 is_stmt 0 view .LVU641
 2491 0054 5A49     		ldr	r1, .L209+4
 2492 0056 FFF7FEFF 		bl	strSearch
 2493              	.LVL252:
 382:User/Src/command.c ****     {
 2494              		.loc 1 382 5 is_stmt 1 view .LVU642
 382:User/Src/command.c ****     {
 2495              		.loc 1 382 8 is_stmt 0 view .LVU643
 2496 005a B0F1FF3F 		cmp	r0, #-1
 2497 005e 00F08180 		beq	.L201
 388:User/Src/command.c ****     if (comma_pos > MAX_FILENAME_LEN)
 2498              		.loc 1 388 5 is_stmt 1 view .LVU644
 388:User/Src/command.c ****     if (comma_pos > MAX_FILENAME_LEN)
 2499              		.loc 1 388 10 is_stmt 0 view .LVU645
 2500 0062 0023     		movs	r3, #0
ARM GAS  C:\Users\84759\AppData\Local\Temp\ccVSdzbq.s 			page 74


 2501 0064 8C93     		str	r3, [sp, #560]
 2502 0066 8D93     		str	r3, [sp, #564]
 2503 0068 8E93     		str	r3, [sp, #568]
 2504 006a 8F93     		str	r3, [sp, #572]
 2505 006c 9093     		str	r3, [sp, #576]
 2506 006e 9193     		str	r3, [sp, #580]
 2507 0070 9293     		str	r3, [sp, #584]
 2508 0072 9393     		str	r3, [sp, #588]
 389:User/Src/command.c ****     {
 2509              		.loc 1 389 5 is_stmt 1 view .LVU646
 389:User/Src/command.c ****     {
 2510              		.loc 1 389 8 is_stmt 0 view .LVU647
 2511 0074 1F28     		cmp	r0, #31
 2512 0076 79DC     		bgt	.L202
 395:User/Src/command.c ****     {
 2513              		.loc 1 395 5 is_stmt 1 view .LVU648
 395:User/Src/command.c ****     {
 2514              		.loc 1 395 10 is_stmt 0 view .LVU649
 2515 0078 84B2     		uxth	r4, r0
 2516 007a 2346     		mov	r3, r4
 2517 007c 4246     		mov	r2, r8
 2518 007e 2946     		mov	r1, r5
 2519 0080 8CA8     		add	r0, sp, #560
 2520              	.LVL253:
 395:User/Src/command.c ****     {
 2521              		.loc 1 395 10 view .LVU650
 2522 0082 FFF7FEFF 		bl	Data_copy_from_pos
 2523              	.LVL254:
 395:User/Src/command.c ****     {
 2524              		.loc 1 395 8 view .LVU651
 2525 0086 0028     		cmp	r0, #0
 2526 0088 75D0     		beq	.L203
 401:User/Src/command.c ****     {
 2527              		.loc 1 401 5 is_stmt 1 view .LVU652
 401:User/Src/command.c ****     {
 2528              		.loc 1 401 10 is_stmt 0 view .LVU653
 2529 008a 8CA8     		add	r0, sp, #560
 2530 008c FFF7FEFF 		bl	isFilenameValid
 2531              	.LVL255:
 401:User/Src/command.c ****     {
 2532              		.loc 1 401 8 view .LVU654
 2533 0090 0028     		cmp	r0, #0
 2534 0092 74D0     		beq	.L204
 407:User/Src/command.c ****     uint16_t data_len = cmd_len - data_pos;
 2535              		.loc 1 407 5 is_stmt 1 view .LVU655
 407:User/Src/command.c ****     uint16_t data_len = cmd_len - data_pos;
 2536              		.loc 1 407 36 is_stmt 0 view .LVU656
 2537 0094 4444     		add	r4, r4, r8
 2538 0096 A4B2     		uxth	r4, r4
 407:User/Src/command.c ****     uint16_t data_len = cmd_len - data_pos;
 2539              		.loc 1 407 14 view .LVU657
 2540 0098 0134     		adds	r4, r4, #1
 2541 009a A4B2     		uxth	r4, r4
 2542              	.LVL256:
 408:User/Src/command.c **** 
 2543              		.loc 1 408 5 is_stmt 1 view .LVU658
 408:User/Src/command.c **** 
ARM GAS  C:\Users\84759\AppData\Local\Temp\ccVSdzbq.s 			page 75


 2544              		.loc 1 408 14 is_stmt 0 view .LVU659
 2545 009c 3F1B     		subs	r7, r7, r4
 2546              	.LVL257:
 408:User/Src/command.c **** 
 2547              		.loc 1 408 14 view .LVU660
 2548 009e BFB2     		uxth	r7, r7
 2549              	.LVL258:
 410:User/Src/command.c ****     {
 2550              		.loc 1 410 5 is_stmt 1 view .LVU661
 410:User/Src/command.c ****     {
 2551              		.loc 1 410 8 is_stmt 0 view .LVU662
 2552 00a0 002F     		cmp	r7, #0
 2553 00a2 70D0     		beq	.L205
 416:User/Src/command.c ****     {
 2554              		.loc 1 416 5 is_stmt 1 view .LVU663
 416:User/Src/command.c ****     {
 2555              		.loc 1 416 8 is_stmt 0 view .LVU664
 2556 00a4 B7F5007F 		cmp	r7, #512
 2557 00a8 71D2     		bcs	.L206
 2558              	.LVL259:
 2559              	.L191:
 422:User/Src/command.c ****     if (!Data_copy_from_pos(write_data, command, data_pos, data_len))
 2560              		.loc 1 422 5 is_stmt 1 view .LVU665
 422:User/Src/command.c ****     if (!Data_copy_from_pos(write_data, command, data_pos, data_len))
 2561              		.loc 1 422 10 is_stmt 0 view .LVU666
 2562 00aa 0021     		movs	r1, #0
 2563 00ac 0C91     		str	r1, [sp, #48]
 2564 00ae 4FF4FE72 		mov	r2, #508
 2565 00b2 0DA8     		add	r0, sp, #52
 2566 00b4 FFF7FEFF 		bl	memset
 2567              	.LVL260:
 423:User/Src/command.c ****     {
 2568              		.loc 1 423 5 is_stmt 1 view .LVU667
 423:User/Src/command.c ****     {
 2569              		.loc 1 423 10 is_stmt 0 view .LVU668
 2570 00b8 3B46     		mov	r3, r7
 2571 00ba 2246     		mov	r2, r4
 2572 00bc 2946     		mov	r1, r5
 2573 00be 0CA8     		add	r0, sp, #48
 2574 00c0 FFF7FEFF 		bl	Data_copy_from_pos
 2575              	.LVL261:
 423:User/Src/command.c ****     {
 2576              		.loc 1 423 8 view .LVU669
 2577 00c4 0028     		cmp	r0, #0
 2578 00c6 68D0     		beq	.L207
 429:User/Src/command.c ****     if (!FatFs_GetInfo(&fs_info))
 2579              		.loc 1 429 5 is_stmt 1 view .LVU670
 429:User/Src/command.c ****     if (!FatFs_GetInfo(&fs_info))
 2580              		.loc 1 429 18 is_stmt 0 view .LVU671
 2581 00c8 2022     		movs	r2, #32
 2582 00ca 0021     		movs	r1, #0
 2583 00cc 04A8     		add	r0, sp, #16
 2584 00ce FFF7FEFF 		bl	memset
 2585              	.LVL262:
 430:User/Src/command.c ****     {
 2586              		.loc 1 430 5 is_stmt 1 view .LVU672
 430:User/Src/command.c ****     {
ARM GAS  C:\Users\84759\AppData\Local\Temp\ccVSdzbq.s 			page 76


 2587              		.loc 1 430 10 is_stmt 0 view .LVU673
 2588 00d2 04A8     		add	r0, sp, #16
 2589 00d4 FFF7FEFF 		bl	FatFs_GetInfo
 2590              	.LVL263:
 430:User/Src/command.c ****     {
 2591              		.loc 1 430 8 view .LVU674
 2592 00d8 0028     		cmp	r0, #0
 2593 00da 62D0     		beq	.L208
 436:User/Src/command.c ****     UsbPrintf("[command] ÎÄĽţĂű: %s\r\n", filename);
 2594              		.loc 1 436 5 is_stmt 1 view .LVU675
 2595 00dc 3948     		ldr	r0, .L209+8
 2596 00de FFF7FEFF 		bl	UsbPrintf
 2597              	.LVL264:
 437:User/Src/command.c ****     UsbPrintf("[command] ĘýľÝ: %s\r\n", write_data);
 2598              		.loc 1 437 5 view .LVU676
 2599 00e2 8CA9     		add	r1, sp, #560
 2600 00e4 3848     		ldr	r0, .L209+12
 2601 00e6 FFF7FEFF 		bl	UsbPrintf
 2602              	.LVL265:
 438:User/Src/command.c ****     UsbPrintf("[command] ł¤¶Č: %d ×Ö˝Ú\r\n", data_len);
 2603              		.loc 1 438 5 view .LVU677
 2604 00ea 0CA9     		add	r1, sp, #48
 2605 00ec 3748     		ldr	r0, .L209+16
 2606 00ee FFF7FEFF 		bl	UsbPrintf
 2607              	.LVL266:
 439:User/Src/command.c **** 
 2608              		.loc 1 439 5 view .LVU678
 2609 00f2 3946     		mov	r1, r7
 2610 00f4 3648     		ldr	r0, .L209+20
 2611 00f6 FFF7FEFF 		bl	UsbPrintf
 2612              	.LVL267:
 441:User/Src/command.c ****     File_Write_Result_t write_result = {0};
 2613              		.loc 1 441 5 view .LVU679
 2614 00fa 3648     		ldr	r0, .L209+24
 2615 00fc FFF7FEFF 		bl	f_close
 2616              	.LVL268:
 442:User/Src/command.c ****     retUSER = FatFs_FileWrite(filename, write_data, (UINT)data_len, &write_result);
 2617              		.loc 1 442 5 view .LVU680
 442:User/Src/command.c ****     retUSER = FatFs_FileWrite(filename, write_data, (UINT)data_len, &write_result);
 2618              		.loc 1 442 25 is_stmt 0 view .LVU681
 2619 0100 0023     		movs	r3, #0
 2620 0102 0093     		str	r3, [sp]
 2621 0104 0193     		str	r3, [sp, #4]
 2622 0106 0293     		str	r3, [sp, #8]
 2623 0108 0393     		str	r3, [sp, #12]
 443:User/Src/command.c **** 
 2624              		.loc 1 443 5 is_stmt 1 view .LVU682
 443:User/Src/command.c **** 
 2625              		.loc 1 443 15 is_stmt 0 view .LVU683
 2626 010a 6B46     		mov	r3, sp
 2627 010c 3A46     		mov	r2, r7
 2628 010e 0CA9     		add	r1, sp, #48
 2629 0110 8CA8     		add	r0, sp, #560
 2630 0112 FFF7FEFF 		bl	FatFs_FileWrite
 2631              	.LVL269:
 443:User/Src/command.c **** 
 2632              		.loc 1 443 13 view .LVU684
ARM GAS  C:\Users\84759\AppData\Local\Temp\ccVSdzbq.s 			page 77


 2633 0116 304B     		ldr	r3, .L209+28
 2634 0118 1870     		strb	r0, [r3]
 445:User/Src/command.c ****     {
 2635              		.loc 1 445 5 is_stmt 1 view .LVU685
 445:User/Src/command.c ****     {
 2636              		.loc 1 445 8 is_stmt 0 view .LVU686
 2637 011a 0028     		cmp	r0, #0
 2638 011c 45D1     		bne	.L194
 447:User/Src/command.c ****         UsbPrintf("[command] ÎÄĽţĆđĘĽ´ŘşĹŁş%lu  µ±Ç°Đ´Čë´ŘşĹŁş%lu\r\n",
 2639              		.loc 1 447 9 is_stmt 1 view .LVU687
 2640 011e 0199     		ldr	r1, [sp, #4]
 2641 0120 2E48     		ldr	r0, .L209+32
 2642 0122 FFF7FEFF 		bl	UsbPrintf
 2643              	.LVL270:
 448:User/Src/command.c ****                   write_result.start_cluster, write_result.curr_cluster);
 2644              		.loc 1 448 9 view .LVU688
 2645 0126 039A     		ldr	r2, [sp, #12]
 2646 0128 0299     		ldr	r1, [sp, #8]
 2647 012a 2D48     		ldr	r0, .L209+36
 2648 012c FFF7FEFF 		bl	UsbPrintf
 2649              	.LVL271:
 450:User/Src/command.c ****     }
 2650              		.loc 1 450 9 view .LVU689
 2651 0130 2C48     		ldr	r0, .L209+40
 2652 0132 FFF7FEFF 		bl	UsbPrintf
 2653              	.LVL272:
 2654 0136 02E0     		b	.L179
 2655              	.LVL273:
 2656              	.L180:
 351:User/Src/command.c ****         return;
 2657              		.loc 1 351 9 view .LVU690
 2658 0138 2B48     		ldr	r0, .L209+44
 2659              	.LVL274:
 351:User/Src/command.c ****         return;
 2660              		.loc 1 351 9 is_stmt 0 view .LVU691
 2661 013a FFF7FEFF 		bl	UsbPrintf
 2662              	.LVL275:
 352:User/Src/command.c ****     }
 2663              		.loc 1 352 9 is_stmt 1 view .LVU692
 2664              	.L179:
 457:User/Src/command.c **** 
 2665              		.loc 1 457 1 is_stmt 0 view .LVU693
 2666 013e 0DF5187D 		add	sp, sp, #608
 2667              	.LCFI32:
 2668              		.cfi_remember_state
 2669              		.cfi_def_cfa_offset 24
 2670              		@ sp needed
 2671 0142 BDE8F081 		pop	{r4, r5, r6, r7, r8, pc}
 2672              	.LVL276:
 2673              	.L198:
 2674              	.LCFI33:
 2675              		.cfi_restore_state
 360:User/Src/command.c ****         UsbPrintf("[command] ÓĂ·¨ŁşAT^FATFS_WRITE=<filename>,<data>\r\n");
 2676              		.loc 1 360 9 is_stmt 1 view .LVU694
 2677 0146 2948     		ldr	r0, .L209+48
 2678 0148 FFF7FEFF 		bl	UsbPrintf
 2679              	.LVL277:
ARM GAS  C:\Users\84759\AppData\Local\Temp\ccVSdzbq.s 			page 78


 361:User/Src/command.c ****         return;
 2680              		.loc 1 361 9 view .LVU695
 2681 014c 2848     		ldr	r0, .L209+52
 2682 014e FFF7FEFF 		bl	UsbPrintf
 2683              	.LVL278:
 362:User/Src/command.c ****     }
 2684              		.loc 1 362 9 view .LVU696
 2685 0152 F4E7     		b	.L179
 2686              	.LVL279:
 2687              	.L199:
 370:User/Src/command.c ****         return;
 2688              		.loc 1 370 9 view .LVU697
 2689 0154 2748     		ldr	r0, .L209+56
 2690 0156 FFF7FEFF 		bl	UsbPrintf
 2691              	.LVL280:
 371:User/Src/command.c ****     }
 2692              		.loc 1 371 9 view .LVU698
 2693 015a F0E7     		b	.L179
 2694              	.LVL281:
 2695              	.L200:
 377:User/Src/command.c ****         return;
 2696              		.loc 1 377 9 view .LVU699
 2697 015c 2648     		ldr	r0, .L209+60
 2698              	.LVL282:
 377:User/Src/command.c ****         return;
 2699              		.loc 1 377 9 is_stmt 0 view .LVU700
 2700 015e FFF7FEFF 		bl	UsbPrintf
 2701              	.LVL283:
 378:User/Src/command.c ****     }
 2702              		.loc 1 378 9 is_stmt 1 view .LVU701
 2703 0162 ECE7     		b	.L179
 2704              	.LVL284:
 2705              	.L201:
 384:User/Src/command.c ****         return;
 2706              		.loc 1 384 9 view .LVU702
 2707 0164 2548     		ldr	r0, .L209+64
 2708              	.LVL285:
 384:User/Src/command.c ****         return;
 2709              		.loc 1 384 9 is_stmt 0 view .LVU703
 2710 0166 FFF7FEFF 		bl	UsbPrintf
 2711              	.LVL286:
 385:User/Src/command.c ****     }
 2712              		.loc 1 385 9 is_stmt 1 view .LVU704
 2713 016a E8E7     		b	.L179
 2714              	.LVL287:
 2715              	.L202:
 391:User/Src/command.c ****         return;
 2716              		.loc 1 391 9 view .LVU705
 2717 016c 1F21     		movs	r1, #31
 2718 016e 2448     		ldr	r0, .L209+68
 2719              	.LVL288:
 391:User/Src/command.c ****         return;
 2720              		.loc 1 391 9 is_stmt 0 view .LVU706
 2721 0170 FFF7FEFF 		bl	UsbPrintf
 2722              	.LVL289:
 392:User/Src/command.c ****     }
 2723              		.loc 1 392 9 is_stmt 1 view .LVU707
ARM GAS  C:\Users\84759\AppData\Local\Temp\ccVSdzbq.s 			page 79


 2724 0174 E3E7     		b	.L179
 2725              	.L203:
 397:User/Src/command.c ****         return;
 2726              		.loc 1 397 9 view .LVU708
 2727 0176 2348     		ldr	r0, .L209+72
 2728 0178 FFF7FEFF 		bl	UsbPrintf
 2729              	.LVL290:
 398:User/Src/command.c ****     }
 2730              		.loc 1 398 9 view .LVU709
 2731 017c DFE7     		b	.L179
 2732              	.L204:
 403:User/Src/command.c ****         return;
 2733              		.loc 1 403 9 view .LVU710
 2734 017e 2248     		ldr	r0, .L209+76
 2735 0180 FFF7FEFF 		bl	UsbPrintf
 2736              	.LVL291:
 404:User/Src/command.c ****     }
 2737              		.loc 1 404 9 view .LVU711
 2738 0184 DBE7     		b	.L179
 2739              	.LVL292:
 2740              	.L205:
 412:User/Src/command.c ****         return;
 2741              		.loc 1 412 9 view .LVU712
 2742 0186 2148     		ldr	r0, .L209+80
 2743 0188 FFF7FEFF 		bl	UsbPrintf
 2744              	.LVL293:
 413:User/Src/command.c ****     }
 2745              		.loc 1 413 9 view .LVU713
 2746 018c D7E7     		b	.L179
 2747              	.L206:
 418:User/Src/command.c ****         data_len = MAX_WRITE_DATA_LEN;
 2748              		.loc 1 418 9 view .LVU714
 2749 018e 2048     		ldr	r0, .L209+84
 2750 0190 FFF7FEFF 		bl	UsbPrintf
 2751              	.LVL294:
 419:User/Src/command.c ****     }
 2752              		.loc 1 419 9 view .LVU715
 419:User/Src/command.c ****     }
 2753              		.loc 1 419 18 is_stmt 0 view .LVU716
 2754 0194 40F2FF17 		movw	r7, #511
 2755 0198 87E7     		b	.L191
 2756              	.LVL295:
 2757              	.L207:
 425:User/Src/command.c ****         return;
 2758              		.loc 1 425 9 is_stmt 1 view .LVU717
 2759 019a 1E48     		ldr	r0, .L209+88
 2760 019c FFF7FEFF 		bl	UsbPrintf
 2761              	.LVL296:
 426:User/Src/command.c ****     }
 2762              		.loc 1 426 9 view .LVU718
 2763 01a0 CDE7     		b	.L179
 2764              	.L208:
 432:User/Src/command.c ****         return;
 2765              		.loc 1 432 9 view .LVU719
 2766 01a2 1D48     		ldr	r0, .L209+92
 2767 01a4 FFF7FEFF 		bl	UsbPrintf
 2768              	.LVL297:
ARM GAS  C:\Users\84759\AppData\Local\Temp\ccVSdzbq.s 			page 80


 433:User/Src/command.c ****     }
 2769              		.loc 1 433 9 view .LVU720
 2770 01a8 C9E7     		b	.L179
 2771              	.L194:
 454:User/Src/command.c ****         UsbPrintf("******[command] Đ´ČëĘ§°Ü ******\r\n");
 2772              		.loc 1 454 9 view .LVU721
 2773 01aa 0146     		mov	r1, r0
 2774 01ac 1B48     		ldr	r0, .L209+96
 2775 01ae FFF7FEFF 		bl	UsbPrintf
 2776              	.LVL298:
 455:User/Src/command.c ****     }
 2777              		.loc 1 455 9 view .LVU722
 2778 01b2 1B48     		ldr	r0, .L209+100
 2779 01b4 FFF7FEFF 		bl	UsbPrintf
 2780              	.LVL299:
 2781 01b8 C1E7     		b	.L179
 2782              	.L210:
 2783 01ba 00BF     		.align	2
 2784              	.L209:
 2785 01bc 64020000 		.word	.LC39
 2786 01c0 54000000 		.word	.LC42
 2787 01c4 34010000 		.word	.LC49
 2788 01c8 5C010000 		.word	.LC50
 2789 01cc 74010000 		.word	.LC51
 2790 01d0 8C010000 		.word	.LC52
 2791 01d4 00000000 		.word	USERFile
 2792 01d8 00000000 		.word	retUSER
 2793 01dc A8010000 		.word	.LC53
 2794 01e0 C8010000 		.word	.LC54
 2795 01e4 FC010000 		.word	.LC55
 2796 01e8 00000000 		.word	.LC6
 2797 01ec 00000000 		.word	.LC27
 2798 01f0 00000000 		.word	.LC40
 2799 01f4 50000000 		.word	.LC29
 2800 01f8 34000000 		.word	.LC41
 2801 01fc 58000000 		.word	.LC43
 2802 0200 7C000000 		.word	.LC44
 2803 0204 70000000 		.word	.LC30
 2804 0208 A4000000 		.word	.LC45
 2805 020c CC000000 		.word	.LC46
 2806 0210 EC000000 		.word	.LC47
 2807 0214 14010000 		.word	.LC48
 2808 0218 C8000000 		.word	.LC32
 2809 021c 20020000 		.word	.LC56
 2810 0220 40020000 		.word	.LC57
 2811              		.cfi_endproc
 2812              	.LFE80:
 2814              		.section	.rodata.AT_FATFS_CluWrite_Handle.str1.4,"aMS",%progbits,1
 2815              		.align	2
 2816              	.LC59:
 2817 0000 5B636F6D 		.ascii	"[command] \323\303\267\250\243\272AT^FATFS_CluWrite"
 2817      6D616E64 
 2817      5D20D3C3 
 2817      B7A8A3BA 
 2817      41545E46 
 2818 0021 3D3CB4D8 		.ascii	"=<\264\330\272\305>,<\316\304\274\376\303\373>,<\312"
 2818      BAC53E2C 
ARM GAS  C:\Users\84759\AppData\Local\Temp\ccVSdzbq.s 			page 81


 2818      3CCEC4BC 
 2818      FEC3FB3E 
 2818      2C3CCA
 2819 0034 FDBEDD3E 		.ascii	"\375\276\335>\015\012\000"
 2819      0D0A00
 2820 003b 00       		.align	2
 2821              	.LC60:
 2822 003c 5B636F6D 		.ascii	"[command] \312\276\300\375\243\272AT^FATFS_CluWrite"
 2822      6D616E64 
 2822      5D20CABE 
 2822      C0FDA3BA 
 2822      41545E46 
 2823 005d 3D322C74 		.ascii	"=2,test.txt,hello_fatfs\015\012\000"
 2823      6573742E 
 2823      7478742C 
 2823      68656C6C 
 2823      6F5F6661 
 2824 0077 00       		.align	2
 2825              	.LC61:
 2826 0078 5B636F6D 		.ascii	"[command] \264\355\316\363\243\272\310\261\311\331\265"
 2826      6D616E64 
 2826      5D20B4ED 
 2826      CEF3A3BA 
 2826      C8B1C9D9 
 2827 008d DAD2BBB8 		.ascii	"\332\322\273\270\366\266\272\272\305\267\326\270\364"
 2827      F6B6BABA 
 2827      C5B7D6B8 
 2827      F4
 2828 009a B7FBA3A1 		.ascii	"\267\373\243\241\015\012\000"
 2828      0D0A00
 2829 00a1 000000   		.align	2
 2830              	.LC62:
 2831 00a4 5B636F6D 		.ascii	"[command] \264\355\316\363\243\272\310\261\311\331\265"
 2831      6D616E64 
 2831      5D20B4ED 
 2831      CEF3A3BA 
 2831      C8B1C9D9 
 2832 00b9 DAB6FEB8 		.ascii	"\332\266\376\270\366\266\272\272\305\267\326\270\364"
 2832      F6B6BABA 
 2832      C5B7D6B8 
 2832      F4
 2833 00c6 B7FBA3A1 		.ascii	"\267\373\243\241\015\012\000"
 2833      0D0A00
 2834 00cd 000000   		.align	2
 2835              	.LC63:
 2836 00d0 5B636F6D 		.ascii	"[command] \264\355\316\363\243\272\320\264\310\353\312"
 2836      6D616E64 
 2836      5D20B4ED 
 2836      CEF3A3BA 
 2836      D0B4C8EB 
 2837 00e5 FDBEDDB2 		.ascii	"\375\276\335\262\273\304\334\316\252\277\325\243\241"
 2837      BBC4DCCE 
 2837      AABFD5A3 
 2837      A1
 2838 00f2 0D0A00   		.ascii	"\015\012\000"
 2839 00f5 000000   		.align	2
 2840              	.LC64:
ARM GAS  C:\Users\84759\AppData\Local\Temp\ccVSdzbq.s 			page 82


 2841 00f8 5B636F6D 		.ascii	"[command] \264\355\316\363\243\272\264\330\272\305\270"
 2841      6D616E64 
 2841      5D20B4ED 
 2841      CEF3A3BA 
 2841      B4D8BAC5 
 2842 010d F1CABDCE 		.ascii	"\361\312\275\316\336\320\247\243\241\275\366\326\247"
 2842      DED0A7A3 
 2842      A1BDF6D6 
 2842      A7
 2843 011a B3D6CAFD 		.ascii	"\263\326\312\375\327\326/\312\256\301\371\275\370\326"
 2843      D7D62FCA 
 2843      AEC1F9BD 
 2843      F8D6
 2844 0128 C6A3A830 		.ascii	"\306\243\2500x\277\252\315\267\243\251\015\012\000"
 2844      78BFAACD 
 2844      B7A3A90D 
 2844      0A00
 2845 0136 0000     		.align	2
 2846              	.LC65:
 2847 0138 5B636F6D 		.ascii	"[command] \264\355\316\363\243\272\316\304\274\376\303"
 2847      6D616E64 
 2847      5D20B4ED 
 2847      CEF3A3BA 
 2847      CEC4BCFE 
 2848 014d FBB3A4B6 		.ascii	"\373\263\244\266\310\316\336\320\247\243\250\327\356"
 2848      C8CEDED0 
 2848      A7A3A8D7 
 2848      EE
 2849 015a B4F32564 		.ascii	"\264\363%d\327\326\267\373\243\251\243\241\015\012\000"
 2849      D7D6B7FB 
 2849      A3A9A3A1 
 2849      0D0A00
 2850 0169 000000   		.align	2
 2851              	.LC66:
 2852 016c 5B636F6D 		.ascii	"[command] \264\355\316\363\243\272\314\341\310\241\316"
 2852      6D616E64 
 2852      5D20B4ED 
 2852      CEF3A3BA 
 2852      CCE1C8A1 
 2853 0181 C4BCFEC3 		.ascii	"\304\274\376\303\373\312\247\260\334\243\241\015\012"
 2853      FBCAA7B0 
 2853      DCA3A10D 
 2853      0A
 2854 018e 00       		.ascii	"\000"
 2855 018f 00       		.align	2
 2856              	.LC67:
 2857 0190 5B636F6D 		.ascii	"[command] \264\355\316\363\243\272\320\264\310\353\312"
 2857      6D616E64 
 2857      5D20B4ED 
 2857      CEF3A3BA 
 2857      D0B4C8EB 
 2858 01a5 FDBEDDCE 		.ascii	"\375\276\335\316\252\277\325\243\241\015\012\000"
 2858      AABFD5A3 
 2858      A10D0A00 
 2859 01b1 000000   		.align	2
 2860              	.LC68:
 2861 01b4 5B636F6D 		.ascii	"[command] \276\257\270\346\243\272\312\375\276\335\271"
ARM GAS  C:\Users\84759\AppData\Local\Temp\ccVSdzbq.s 			page 83


 2861      6D616E64 
 2861      5D20BEAF 
 2861      B8E6A3BA 
 2861      CAFDBEDD 
 2862 01c9 FDB3A4A3 		.ascii	"\375\263\244\243\254\327\324\266\257\275\330\266\317"
 2862      ACD7D4B6 
 2862      AFBDD8B6 
 2862      CF
 2863 01d6 CEAA2564 		.ascii	"\316\252%d\327\326\275\332\015\012\000"
 2863      D7D6BDDA 
 2863      0D0A00
 2864 01e1 000000   		.align	2
 2865              	.LC69:
 2866 01e4 5B636F6D 		.ascii	"[command] \264\355\316\363\243\272\314\341\310\241\320"
 2866      6D616E64 
 2866      5D20B4ED 
 2866      CEF3A3BA 
 2866      CCE1C8A1 
 2867 01f9 B4C8EBCA 		.ascii	"\264\310\353\312\375\276\335\312\247\260\334\243\241"
 2867      FDBEDDCA 
 2867      A7B0DCA3 
 2867      A1
 2868 0206 0D0A00   		.ascii	"\015\012\000"
 2869 0209 000000   		.align	2
 2870              	.LC70:
 2871 020c 5B636F6D 		.ascii	"[command] \276\257\270\346\243\272\264\330\272\305%"
 2871      6D616E64 
 2871      5D20BEAF 
 2871      B8E6A3BA 
 2871      B4D8BAC5 
 2872 0221 6C75D4BD 		.ascii	"lu\324\275\275\347\243\250\323\320\320\247\267\266\316"
 2872      BDE7A3A8 
 2872      D3D0D0A7 
 2872      B7B6CE
 2873 0230 A7327E25 		.ascii	"\2472~%lu\243\251\243\254\327\324\266\257\312\271\323"
 2873      6C75A3A9 
 2873      A3ACD7D4 
 2873      B6AFCAB9 
 2873      D3
 2874 0241 C3B4D832 		.ascii	"\303\264\3302\015\012\000"
 2874      0D0A00
 2875              		.align	2
 2876              	.LC71:
 2877 0248 0D0A2A2A 		.ascii	"\015\012******[command] \277\252\312\274\264\330\320"
 2877      2A2A2A2A 
 2877      5B636F6D 
 2877      6D616E64 
 2877      5D20BFAA 
 2878 0261 B4C8EBB2 		.ascii	"\264\310\353\262\331\327\367 ******\015\012\000"
 2878      D9D7F720 
 2878      2A2A2A2A 
 2878      2A2A0D0A 
 2878      00
 2879 0272 0000     		.align	2
 2880              	.LC72:
 2881 0274 5B636F6D 		.ascii	"[command] \304\277\261\352\264\330\272\305\243\272%"
 2881      6D616E64 
ARM GAS  C:\Users\84759\AppData\Local\Temp\ccVSdzbq.s 			page 84


 2881      5D20C4BF 
 2881      B1EAB4D8 
 2881      BAC5A3BA 
 2882 0289 6C750D0A 		.ascii	"lu\015\012\000"
 2882      00
 2883 028e 0000     		.align	2
 2884              	.LC73:
 2885 0290 5B636F6D 		.ascii	"[command] \304\277\261\352\316\304\274\376\243\272%"
 2885      6D616E64 
 2885      5D20C4BF 
 2885      B1EACEC4 
 2885      BCFEA3BA 
 2886 02a5 730D0A00 		.ascii	"s\015\012\000"
 2887 02a9 000000   		.align	2
 2888              	.LC74:
 2889 02ac 5B636F6D 		.ascii	"[command] \320\264\310\353\312\375\276\335\243\272%"
 2889      6D616E64 
 2889      5D20D0B4 
 2889      C8EBCAFD 
 2889      BEDDA3BA 
 2890 02c1 730D0A00 		.ascii	"s\015\012\000"
 2891 02c5 000000   		.align	2
 2892              	.LC75:
 2893 02c8 5B636F6D 		.ascii	"[command] \312\375\276\335\263\244\266\310\243\272%"
 2893      6D616E64 
 2893      5D20CAFD 
 2893      BEDDB3A4 
 2893      B6C8A3BA 
 2894 02dd 6420D7D6 		.ascii	"d \327\326\275\332\015\012\000"
 2894      BDDA0D0A 
 2894      00
 2895 02e6 0000     		.align	2
 2896              	.LC76:
 2897 02e8 5B636F6D 		.ascii	"[command] \264\330\320\264\310\353\263\311\271\246\243"
 2897      6D616E64 
 2897      5D20B4D8 
 2897      D0B4C8EB 
 2897      B3C9B9A6 
 2898 02fd A10D0A00 		.ascii	"\241\015\012\000"
 2899 0301 000000   		.align	2
 2900              	.LC77:
 2901 0304 5B636F6D 		.ascii	"[command] \312\265\274\312\320\264\310\353\327\326\275"
 2901      6D616E64 
 2901      5D20CAB5 
 2901      BCCAD0B4 
 2901      C8EBD7D6 
 2902 0319 DAA3BA25 		.ascii	"\332\243\272%u\015\012\000"
 2902      750D0A00 
 2903 0321 000000   		.align	2
 2904              	.LC78:
 2905 0324 2A2A2A2A 		.ascii	"******[command] \264\330\320\264\310\353\315\352\263"
 2905      2A2A5B63 
 2905      6F6D6D61 
 2905      6E645D20 
 2905      B4D8D0B4 
 2906 033d C9202A2A 		.ascii	"\311 ******\015\012\000"
 2906      2A2A2A2A 
ARM GAS  C:\Users\84759\AppData\Local\Temp\ccVSdzbq.s 			page 85


 2906      0D0A00
 2907              		.align	2
 2908              	.LC79:
 2909 0348 5B636F6D 		.ascii	"[command] \264\330\320\264\310\353\312\247\260\334\243"
 2909      6D616E64 
 2909      5D20B4D8 
 2909      D0B4C8EB 
 2909      CAA7B0DC 
 2910 035d A1B4EDCE 		.ascii	"\241\264\355\316\363\302\353\243\272%d\015\012\000"
 2910      F3C2EBA3 
 2910      BA25640D 
 2910      0A00
 2911 036b 00       		.align	2
 2912              	.LC80:
 2913 036c 2A2A2A2A 		.ascii	"******[command] \264\330\320\264\310\353\312\247\260"
 2913      2A2A5B63 
 2913      6F6D6D61 
 2913      6E645D20 
 2913      B4D8D0B4 
 2914 0385 DC202A2A 		.ascii	"\334 ******\015\012\000"
 2914      2A2A2A2A 
 2914      0D0A00
 2915              		.align	2
 2916              	.LC58:
 2917 0390 41545E46 		.ascii	"AT^FATFS_CluWrite=\000"
 2917      41544653 
 2917      5F436C75 
 2917      57726974 
 2917      653D00
 2918              		.section	.text.AT_FATFS_CluWrite_Handle,"ax",%progbits
 2919              		.align	1
 2920              		.global	AT_FATFS_CluWrite_Handle
 2921              		.syntax unified
 2922              		.thumb
 2923              		.thumb_func
 2925              	AT_FATFS_CluWrite_Handle:
 2926              	.LVL300:
 2927              	.LFB82:
 494:User/Src/command.c ****     // 1. żŐÖ¸ÁîĽě˛é
 2928              		.loc 1 494 1 view -0
 2929              		.cfi_startproc
 2930              		@ args = 0, pretend = 0, frame = 616
 2931              		@ frame_needed = 0, uses_anonymous_args = 0
 494:User/Src/command.c ****     // 1. żŐÖ¸ÁîĽě˛é
 2932              		.loc 1 494 1 is_stmt 0 view .LVU724
 2933 0000 2DE9F041 		push	{r4, r5, r6, r7, r8, lr}
 2934              	.LCFI34:
 2935              		.cfi_def_cfa_offset 24
 2936              		.cfi_offset 4, -24
 2937              		.cfi_offset 5, -20
 2938              		.cfi_offset 6, -16
 2939              		.cfi_offset 7, -12
 2940              		.cfi_offset 8, -8
 2941              		.cfi_offset 14, -4
 2942 0004 ADF51C7D 		sub	sp, sp, #624
 2943              	.LCFI35:
 2944              		.cfi_def_cfa_offset 648
ARM GAS  C:\Users\84759\AppData\Local\Temp\ccVSdzbq.s 			page 86


 496:User/Src/command.c ****     {
 2945              		.loc 1 496 5 is_stmt 1 view .LVU725
 496:User/Src/command.c ****     {
 2946              		.loc 1 496 8 is_stmt 0 view .LVU726
 2947 0008 0028     		cmp	r0, #0
 2948 000a 00F0CC80 		beq	.L212
 2949 000e 0546     		mov	r5, r0
 496:User/Src/command.c ****     {
 2950              		.loc 1 496 44 discriminator 1 view .LVU727
 2951 0010 0378     		ldrb	r3, [r0]	@ zero_extendqisi2
 496:User/Src/command.c ****     {
 2952              		.loc 1 496 25 discriminator 1 view .LVU728
 2953 0012 002B     		cmp	r3, #0
 2954 0014 00F0C780 		beq	.L212
 503:User/Src/command.c ****     uint16_t header_len = strlen(cmd_header);
 2955              		.loc 1 503 5 is_stmt 1 view .LVU729
 503:User/Src/command.c ****     uint16_t header_len = strlen(cmd_header);
 2956              		.loc 1 503 10 is_stmt 0 view .LVU730
 2957 0018 0DF5177C 		add	ip, sp, #604
 2958 001c 8D4C     		ldr	r4, .L248
 2959 001e 0FCC     		ldmia	r4!, {r0, r1, r2, r3}
 2960              	.LVL301:
 503:User/Src/command.c ****     uint16_t header_len = strlen(cmd_header);
 2961              		.loc 1 503 10 view .LVU731
 2962 0020 ACE80F00 		stmia	ip!, {r0, r1, r2, r3}
 2963 0024 2368     		ldr	r3, [r4]
 2964 0026 2CF8023B 		strh	r3, [ip], #2	@ movhi
 2965 002a 1B0C     		lsrs	r3, r3, #16
 2966 002c 8CF80030 		strb	r3, [ip]
 504:User/Src/command.c ****     if (strSearch(command, cmd_header) != 0)
 2967              		.loc 1 504 5 is_stmt 1 view .LVU732
 504:User/Src/command.c ****     if (strSearch(command, cmd_header) != 0)
 2968              		.loc 1 504 27 is_stmt 0 view .LVU733
 2969 0030 97A8     		add	r0, sp, #604
 2970 0032 FFF7FEFF 		bl	strlen
 2971              	.LVL302:
 2972 0036 0446     		mov	r4, r0
 2973              	.LVL303:
 505:User/Src/command.c ****     {
 2974              		.loc 1 505 5 is_stmt 1 view .LVU734
 505:User/Src/command.c ****     {
 2975              		.loc 1 505 9 is_stmt 0 view .LVU735
 2976 0038 97A9     		add	r1, sp, #604
 2977 003a 2846     		mov	r0, r5
 2978 003c FFF7FEFF 		bl	strSearch
 2979              	.LVL304:
 505:User/Src/command.c ****     {
 2980              		.loc 1 505 8 view .LVU736
 2981 0040 0028     		cmp	r0, #0
 2982 0042 40F0B780 		bne	.L235
 514:User/Src/command.c ****     if (strlen(param_part) == 0)
 2983              		.loc 1 514 5 is_stmt 1 view .LVU737
 514:User/Src/command.c ****     if (strlen(param_part) == 0)
 2984              		.loc 1 514 11 is_stmt 0 view .LVU738
 2985 0046 2E19     		adds	r6, r5, r4
 2986              	.LVL305:
 515:User/Src/command.c ****     {
ARM GAS  C:\Users\84759\AppData\Local\Temp\ccVSdzbq.s 			page 87


 2987              		.loc 1 515 5 is_stmt 1 view .LVU739
 515:User/Src/command.c ****     {
 2988              		.loc 1 515 28 is_stmt 0 view .LVU740
 2989 0048 2B5D     		ldrb	r3, [r5, r4]	@ zero_extendqisi2
 515:User/Src/command.c ****     {
 2990              		.loc 1 515 8 view .LVU741
 2991 004a 002B     		cmp	r3, #0
 2992 004c 00F0BC80 		beq	.L236
 522:User/Src/command.c ****     if (comma1 == NULL)
 2993              		.loc 1 522 5 is_stmt 1 view .LVU742
 522:User/Src/command.c ****     if (comma1 == NULL)
 2994              		.loc 1 522 20 is_stmt 0 view .LVU743
 2995 0050 2C21     		movs	r1, #44
 2996 0052 3046     		mov	r0, r6
 2997 0054 FFF7FEFF 		bl	strchr
 2998              	.LVL306:
 523:User/Src/command.c ****     {
 2999              		.loc 1 523 5 is_stmt 1 view .LVU744
 523:User/Src/command.c ****     {
 3000              		.loc 1 523 8 is_stmt 0 view .LVU745
 3001 0058 0446     		mov	r4, r0
 3002              	.LVL307:
 523:User/Src/command.c ****     {
 3003              		.loc 1 523 8 view .LVU746
 3004 005a 0028     		cmp	r0, #0
 3005 005c 00F0B880 		beq	.L237
 528:User/Src/command.c ****     if (comma2 == NULL)
 3006              		.loc 1 528 5 is_stmt 1 view .LVU747
 528:User/Src/command.c ****     if (comma2 == NULL)
 3007              		.loc 1 528 20 is_stmt 0 view .LVU748
 3008 0060 2C21     		movs	r1, #44
 3009 0062 0130     		adds	r0, r0, #1
 3010              	.LVL308:
 528:User/Src/command.c ****     if (comma2 == NULL)
 3011              		.loc 1 528 20 view .LVU749
 3012 0064 FFF7FEFF 		bl	strchr
 3013              	.LVL309:
 529:User/Src/command.c ****     {
 3014              		.loc 1 529 5 is_stmt 1 view .LVU750
 529:User/Src/command.c ****     {
 3015              		.loc 1 529 8 is_stmt 0 view .LVU751
 3016 0068 0546     		mov	r5, r0
 3017              	.LVL310:
 529:User/Src/command.c ****     {
 3018              		.loc 1 529 8 view .LVU752
 3019 006a 0028     		cmp	r0, #0
 3020 006c 00F0B480 		beq	.L238
 536:User/Src/command.c ****     {
 3021              		.loc 1 536 5 is_stmt 1 view .LVU753
 536:User/Src/command.c ****     {
 3022              		.loc 1 536 28 is_stmt 0 view .LVU754
 3023 0070 4378     		ldrb	r3, [r0, #1]	@ zero_extendqisi2
 536:User/Src/command.c ****     {
 3024              		.loc 1 536 8 view .LVU755
 3025 0072 002B     		cmp	r3, #0
 3026 0074 00F0B480 		beq	.L239
 543:User/Src/command.c ****     uint16_t cluster_valid = CharToInt(param_part, 0, &cluster_num);
ARM GAS  C:\Users\84759\AppData\Local\Temp\ccVSdzbq.s 			page 88


 3027              		.loc 1 543 5 is_stmt 1 view .LVU756
 543:User/Src/command.c ****     uint16_t cluster_valid = CharToInt(param_part, 0, &cluster_num);
 3028              		.loc 1 543 9 is_stmt 0 view .LVU757
 3029 0078 0021     		movs	r1, #0
 3030 007a 9691     		str	r1, [sp, #600]
 544:User/Src/command.c ****     if (!cluster_valid || cluster_num < 0)
 3031              		.loc 1 544 5 is_stmt 1 view .LVU758
 544:User/Src/command.c ****     if (!cluster_valid || cluster_num < 0)
 3032              		.loc 1 544 30 is_stmt 0 view .LVU759
 3033 007c 96AA     		add	r2, sp, #600
 3034 007e 3046     		mov	r0, r6
 3035              	.LVL311:
 544:User/Src/command.c ****     if (!cluster_valid || cluster_num < 0)
 3036              		.loc 1 544 30 view .LVU760
 3037 0080 FFF7FEFF 		bl	CharToInt
 3038              	.LVL312:
 545:User/Src/command.c ****     {
 3039              		.loc 1 545 5 is_stmt 1 view .LVU761
 545:User/Src/command.c ****     {
 3040              		.loc 1 545 8 is_stmt 0 view .LVU762
 3041 0084 0028     		cmp	r0, #0
 3042 0086 00F0AF80 		beq	.L220
 545:User/Src/command.c ****     {
 3043              		.loc 1 545 39 discriminator 1 view .LVU763
 3044 008a 969F     		ldr	r7, [sp, #600]
 545:User/Src/command.c ****     {
 3045              		.loc 1 545 24 discriminator 1 view .LVU764
 3046 008c 002F     		cmp	r7, #0
 3047 008e C0F2AB80 		blt	.L220
 550:User/Src/command.c **** 
 3048              		.loc 1 550 5 is_stmt 1 view .LVU765
 550:User/Src/command.c **** 
 3049              		.loc 1 550 11 is_stmt 0 view .LVU766
 3050 0092 B846     		mov	r8, r7
 3051              	.LVL313:
 553:User/Src/command.c ****     uint16_t filename_start = (uint16_t)(comma1 - param_part + 1);
 3052              		.loc 1 553 5 is_stmt 1 view .LVU767
 553:User/Src/command.c ****     uint16_t filename_start = (uint16_t)(comma1 - param_part + 1);
 3053              		.loc 1 553 10 is_stmt 0 view .LVU768
 3054 0094 0023     		movs	r3, #0
 3055 0096 8E93     		str	r3, [sp, #568]
 3056 0098 8F93     		str	r3, [sp, #572]
 3057 009a 9093     		str	r3, [sp, #576]
 3058 009c 9193     		str	r3, [sp, #580]
 3059 009e 9293     		str	r3, [sp, #584]
 3060 00a0 9393     		str	r3, [sp, #588]
 3061 00a2 9493     		str	r3, [sp, #592]
 3062 00a4 9593     		str	r3, [sp, #596]
 554:User/Src/command.c ****     uint16_t filename_len = (uint16_t)(comma2 - comma1 - 1);
 3063              		.loc 1 554 5 is_stmt 1 view .LVU769
 554:User/Src/command.c ****     uint16_t filename_len = (uint16_t)(comma2 - comma1 - 1);
 3064              		.loc 1 554 49 is_stmt 0 view .LVU770
 3065 00a6 A21B     		subs	r2, r4, r6
 554:User/Src/command.c ****     uint16_t filename_len = (uint16_t)(comma2 - comma1 - 1);
 3066              		.loc 1 554 31 view .LVU771
 3067 00a8 92B2     		uxth	r2, r2
 554:User/Src/command.c ****     uint16_t filename_len = (uint16_t)(comma2 - comma1 - 1);
ARM GAS  C:\Users\84759\AppData\Local\Temp\ccVSdzbq.s 			page 89


 3068              		.loc 1 554 14 view .LVU772
 3069 00aa 0132     		adds	r2, r2, #1
 3070 00ac 92B2     		uxth	r2, r2
 3071              	.LVL314:
 555:User/Src/command.c ****     
 3072              		.loc 1 555 5 is_stmt 1 view .LVU773
 555:User/Src/command.c ****     
 3073              		.loc 1 555 47 is_stmt 0 view .LVU774
 3074 00ae 2C1B     		subs	r4, r5, r4
 3075              	.LVL315:
 555:User/Src/command.c ****     
 3076              		.loc 1 555 29 view .LVU775
 3077 00b0 A4B2     		uxth	r4, r4
 555:User/Src/command.c ****     
 3078              		.loc 1 555 14 view .LVU776
 3079 00b2 631E     		subs	r3, r4, #1
 3080 00b4 9BB2     		uxth	r3, r3
 3081              	.LVL316:
 558:User/Src/command.c ****     {
 3082              		.loc 1 558 5 is_stmt 1 view .LVU777
 558:User/Src/command.c ****     {
 3083              		.loc 1 558 27 is_stmt 0 view .LVU778
 3084 00b6 023C     		subs	r4, r4, #2
 3085 00b8 A4B2     		uxth	r4, r4
 558:User/Src/command.c ****     {
 3086              		.loc 1 558 8 view .LVU779
 3087 00ba 1E2C     		cmp	r4, #30
 3088 00bc 00F29880 		bhi	.L240
 565:User/Src/command.c ****     {
 3089              		.loc 1 565 5 is_stmt 1 view .LVU780
 565:User/Src/command.c ****     {
 3090              		.loc 1 565 10 is_stmt 0 view .LVU781
 3091 00c0 3146     		mov	r1, r6
 3092 00c2 8EA8     		add	r0, sp, #568
 3093              	.LVL317:
 565:User/Src/command.c ****     {
 3094              		.loc 1 565 10 view .LVU782
 3095 00c4 FFF7FEFF 		bl	Data_copy_from_pos
 3096              	.LVL318:
 565:User/Src/command.c ****     {
 3097              		.loc 1 565 8 view .LVU783
 3098 00c8 0028     		cmp	r0, #0
 3099 00ca 00F09680 		beq	.L241
 570:User/Src/command.c ****     {
 3100              		.loc 1 570 5 is_stmt 1 view .LVU784
 570:User/Src/command.c ****     {
 3101              		.loc 1 570 10 is_stmt 0 view .LVU785
 3102 00ce 8EA8     		add	r0, sp, #568
 3103 00d0 FFF7FEFF 		bl	isFilenameValid
 3104              	.LVL319:
 570:User/Src/command.c ****     {
 3105              		.loc 1 570 8 view .LVU786
 3106 00d4 0028     		cmp	r0, #0
 3107 00d6 00F09480 		beq	.L242
 577:User/Src/command.c ****     uint16_t data_len = (uint16_t)strlen(param_part) - data_start;
 3108              		.loc 1 577 5 is_stmt 1 view .LVU787
 577:User/Src/command.c ****     uint16_t data_len = (uint16_t)strlen(param_part) - data_start;
ARM GAS  C:\Users\84759\AppData\Local\Temp\ccVSdzbq.s 			page 90


 3109              		.loc 1 577 45 is_stmt 0 view .LVU788
 3110 00da AC1B     		subs	r4, r5, r6
 577:User/Src/command.c ****     uint16_t data_len = (uint16_t)strlen(param_part) - data_start;
 3111              		.loc 1 577 27 view .LVU789
 3112 00dc A4B2     		uxth	r4, r4
 577:User/Src/command.c ****     uint16_t data_len = (uint16_t)strlen(param_part) - data_start;
 3113              		.loc 1 577 14 view .LVU790
 3114 00de 0134     		adds	r4, r4, #1
 3115 00e0 A4B2     		uxth	r4, r4
 3116              	.LVL320:
 578:User/Src/command.c ****     
 3117              		.loc 1 578 5 is_stmt 1 view .LVU791
 578:User/Src/command.c ****     
 3118              		.loc 1 578 35 is_stmt 0 view .LVU792
 3119 00e2 3046     		mov	r0, r6
 3120 00e4 FFF7FEFF 		bl	strlen
 3121              	.LVL321:
 578:User/Src/command.c ****     
 3122              		.loc 1 578 25 view .LVU793
 3123 00e8 85B2     		uxth	r5, r0
 3124              	.LVL322:
 578:User/Src/command.c ****     
 3125              		.loc 1 578 14 view .LVU794
 3126 00ea 2D1B     		subs	r5, r5, r4
 3127 00ec ADB2     		uxth	r5, r5
 3128              	.LVL323:
 580:User/Src/command.c ****     {
 3129              		.loc 1 580 5 is_stmt 1 view .LVU795
 580:User/Src/command.c ****     {
 3130              		.loc 1 580 8 is_stmt 0 view .LVU796
 3131 00ee 002D     		cmp	r5, #0
 3132 00f0 00F08B80 		beq	.L243
 585:User/Src/command.c ****     {
 3133              		.loc 1 585 5 is_stmt 1 view .LVU797
 585:User/Src/command.c ****     {
 3134              		.loc 1 585 8 is_stmt 0 view .LVU798
 3135 00f4 B5F5007F 		cmp	r5, #512
 3136 00f8 80F08B80 		bcs	.L244
 3137              	.LVL324:
 3138              	.L226:
 591:User/Src/command.c ****     if (!Data_copy_from_pos(write_data, param_part, data_start, data_len))
 3139              		.loc 1 591 5 is_stmt 1 view .LVU799
 591:User/Src/command.c ****     if (!Data_copy_from_pos(write_data, param_part, data_start, data_len))
 3140              		.loc 1 591 10 is_stmt 0 view .LVU800
 3141 00fc 0021     		movs	r1, #0
 3142 00fe 0E91     		str	r1, [sp, #56]
 3143 0100 4FF4FE72 		mov	r2, #508
 3144 0104 0FA8     		add	r0, sp, #60
 3145 0106 FFF7FEFF 		bl	memset
 3146              	.LVL325:
 592:User/Src/command.c ****     {
 3147              		.loc 1 592 5 is_stmt 1 view .LVU801
 592:User/Src/command.c ****     {
 3148              		.loc 1 592 10 is_stmt 0 view .LVU802
 3149 010a 2B46     		mov	r3, r5
 3150 010c 2246     		mov	r2, r4
 3151 010e 3146     		mov	r1, r6
ARM GAS  C:\Users\84759\AppData\Local\Temp\ccVSdzbq.s 			page 91


 3152 0110 0EA8     		add	r0, sp, #56
 3153 0112 FFF7FEFF 		bl	Data_copy_from_pos
 3154              	.LVL326:
 592:User/Src/command.c ****     {
 3155              		.loc 1 592 8 view .LVU803
 3156 0116 0028     		cmp	r0, #0
 3157 0118 00F08380 		beq	.L245
 599:User/Src/command.c ****     if (!FatFs_GetInfo(&fs_info))
 3158              		.loc 1 599 5 is_stmt 1 view .LVU804
 599:User/Src/command.c ****     if (!FatFs_GetInfo(&fs_info))
 3159              		.loc 1 599 18 is_stmt 0 view .LVU805
 3160 011c 2022     		movs	r2, #32
 3161 011e 0021     		movs	r1, #0
 3162 0120 06A8     		add	r0, sp, #24
 3163 0122 FFF7FEFF 		bl	memset
 3164              	.LVL327:
 600:User/Src/command.c ****     {
 3165              		.loc 1 600 5 is_stmt 1 view .LVU806
 600:User/Src/command.c ****     {
 3166              		.loc 1 600 10 is_stmt 0 view .LVU807
 3167 0126 06A8     		add	r0, sp, #24
 3168 0128 FFF7FEFF 		bl	FatFs_GetInfo
 3169              	.LVL328:
 600:User/Src/command.c ****     {
 3170              		.loc 1 600 8 view .LVU808
 3171 012c 0028     		cmp	r0, #0
 3172 012e 7CD0     		beq	.L246
 607:User/Src/command.c ****     {
 3173              		.loc 1 607 5 is_stmt 1 view .LVU809
 607:User/Src/command.c ****     {
 3174              		.loc 1 607 8 is_stmt 0 view .LVU810
 3175 0130 012F     		cmp	r7, #1
 3176 0132 02D9     		bls	.L229
 607:User/Src/command.c ****     {
 3177              		.loc 1 607 41 discriminator 1 view .LVU811
 3178 0134 0D9B     		ldr	r3, [sp, #52]
 607:User/Src/command.c ****     {
 3179              		.loc 1 607 21 discriminator 1 view .LVU812
 3180 0136 BB42     		cmp	r3, r7
 3181 0138 06D2     		bcs	.L230
 3182              	.L229:
 609:User/Src/command.c ****                   cluster, fs_info.last_cluster);
 3183              		.loc 1 609 9 is_stmt 1 view .LVU813
 3184 013a 0D9A     		ldr	r2, [sp, #52]
 3185 013c 3946     		mov	r1, r7
 3186 013e 4648     		ldr	r0, .L248+4
 3187 0140 FFF7FEFF 		bl	UsbPrintf
 3188              	.LVL329:
 611:User/Src/command.c ****     }
 3189              		.loc 1 611 9 view .LVU814
 611:User/Src/command.c ****     }
 3190              		.loc 1 611 17 is_stmt 0 view .LVU815
 3191 0144 4FF00208 		mov	r8, #2
 3192              	.LVL330:
 3193              	.L230:
 615:User/Src/command.c ****     UsbPrintf("[command] Äż±ę´ŘşĹŁş%lu\r\n", cluster);
 3194              		.loc 1 615 5 is_stmt 1 view .LVU816
ARM GAS  C:\Users\84759\AppData\Local\Temp\ccVSdzbq.s 			page 92


 3195 0148 4448     		ldr	r0, .L248+8
 3196 014a FFF7FEFF 		bl	UsbPrintf
 3197              	.LVL331:
 616:User/Src/command.c ****     UsbPrintf("[command] Äż±ęÎÄĽţŁş%s\r\n", filename);
 3198              		.loc 1 616 5 view .LVU817
 3199 014e 4146     		mov	r1, r8
 3200 0150 4348     		ldr	r0, .L248+12
 3201 0152 FFF7FEFF 		bl	UsbPrintf
 3202              	.LVL332:
 617:User/Src/command.c ****     UsbPrintf("[command] Đ´ČëĘýľÝŁş%s\r\n", write_data);
 3203              		.loc 1 617 5 view .LVU818
 3204 0156 8EA9     		add	r1, sp, #568
 3205 0158 4248     		ldr	r0, .L248+16
 3206 015a FFF7FEFF 		bl	UsbPrintf
 3207              	.LVL333:
 618:User/Src/command.c ****     UsbPrintf("[command] ĘýľÝł¤¶ČŁş%d ×Ö˝Ú\r\n", data_len);
 3208              		.loc 1 618 5 view .LVU819
 3209 015e 0EA9     		add	r1, sp, #56
 3210 0160 4148     		ldr	r0, .L248+20
 3211 0162 FFF7FEFF 		bl	UsbPrintf
 3212              	.LVL334:
 619:User/Src/command.c **** 
 3213              		.loc 1 619 5 view .LVU820
 3214 0166 2946     		mov	r1, r5
 3215 0168 4048     		ldr	r0, .L248+24
 3216 016a FFF7FEFF 		bl	UsbPrintf
 3217              	.LVL335:
 622:User/Src/command.c ****     
 3218              		.loc 1 622 5 view .LVU821
 3219 016e 4048     		ldr	r0, .L248+28
 3220 0170 FFF7FEFF 		bl	f_close
 3221              	.LVL336:
 624:User/Src/command.c ****     FRESULT write_res = FatFs_FileWrite_Cluster(filename, write_data, (UINT)data_len, cluster, &wri
 3222              		.loc 1 624 5 view .LVU822
 624:User/Src/command.c ****     FRESULT write_res = FatFs_FileWrite_Cluster(filename, write_data, (UINT)data_len, cluster, &wri
 3223              		.loc 1 624 25 is_stmt 0 view .LVU823
 3224 0174 02AB     		add	r3, sp, #8
 3225 0176 0022     		movs	r2, #0
 3226 0178 0292     		str	r2, [sp, #8]
 3227 017a 0392     		str	r2, [sp, #12]
 3228 017c 0492     		str	r2, [sp, #16]
 3229 017e 0592     		str	r2, [sp, #20]
 625:User/Src/command.c **** 
 3230              		.loc 1 625 5 is_stmt 1 view .LVU824
 625:User/Src/command.c **** 
 3231              		.loc 1 625 25 is_stmt 0 view .LVU825
 3232 0180 0093     		str	r3, [sp]
 3233 0182 4346     		mov	r3, r8
 3234 0184 2A46     		mov	r2, r5
 3235 0186 0EA9     		add	r1, sp, #56
 3236 0188 8EA8     		add	r0, sp, #568
 3237 018a FFF7FEFF 		bl	FatFs_FileWrite_Cluster
 3238              	.LVL337:
 628:User/Src/command.c ****     {
 3239              		.loc 1 628 5 is_stmt 1 view .LVU826
 628:User/Src/command.c ****     {
 3240              		.loc 1 628 8 is_stmt 0 view .LVU827
ARM GAS  C:\Users\84759\AppData\Local\Temp\ccVSdzbq.s 			page 93


 3241 018e 0146     		mov	r1, r0
 3242 0190 10B9     		cbnz	r0, .L231
 628:User/Src/command.c ****     {
 3243              		.loc 1 628 43 discriminator 1 view .LVU828
 3244 0192 039B     		ldr	r3, [sp, #12]
 628:User/Src/command.c ****     {
 3245              		.loc 1 628 28 discriminator 1 view .LVU829
 3246 0194 002B     		cmp	r3, #0
 3247 0196 4CD1     		bne	.L247
 3248              	.L231:
 638:User/Src/command.c ****         UsbPrintf("******[command] ´ŘĐ´ČëĘ§°Ü ******\r\n");
 3249              		.loc 1 638 9 is_stmt 1 view .LVU830
 3250 0198 3648     		ldr	r0, .L248+32
 3251              	.LVL338:
 638:User/Src/command.c ****         UsbPrintf("******[command] ´ŘĐ´ČëĘ§°Ü ******\r\n");
 3252              		.loc 1 638 9 is_stmt 0 view .LVU831
 3253 019a FFF7FEFF 		bl	UsbPrintf
 3254              	.LVL339:
 639:User/Src/command.c ****     }
 3255              		.loc 1 639 9 is_stmt 1 view .LVU832
 3256 019e 3648     		ldr	r0, .L248+36
 3257 01a0 FFF7FEFF 		bl	UsbPrintf
 3258              	.LVL340:
 3259 01a4 02E0     		b	.L211
 3260              	.LVL341:
 3261              	.L212:
 498:User/Src/command.c ****         return;
 3262              		.loc 1 498 9 view .LVU833
 3263 01a6 3548     		ldr	r0, .L248+40
 3264              	.LVL342:
 498:User/Src/command.c ****         return;
 3265              		.loc 1 498 9 is_stmt 0 view .LVU834
 3266 01a8 FFF7FEFF 		bl	UsbPrintf
 3267              	.LVL343:
 499:User/Src/command.c ****     }
 3268              		.loc 1 499 9 is_stmt 1 view .LVU835
 3269              	.L211:
 641:User/Src/command.c **** 
 3270              		.loc 1 641 1 is_stmt 0 view .LVU836
 3271 01ac 0DF51C7D 		add	sp, sp, #624
 3272              	.LCFI36:
 3273              		.cfi_remember_state
 3274              		.cfi_def_cfa_offset 24
 3275              		@ sp needed
 3276 01b0 BDE8F081 		pop	{r4, r5, r6, r7, r8, pc}
 3277              	.LVL344:
 3278              	.L235:
 3279              	.LCFI37:
 3280              		.cfi_restore_state
 507:User/Src/command.c ****         UsbPrintf("[command] ÓĂ·¨ŁşAT^FATFS_CluWrite=<´ŘşĹ>,<ÎÄĽţĂű>,<ĘýľÝ>\r\n");
 3281              		.loc 1 507 9 is_stmt 1 view .LVU837
 3282 01b4 3248     		ldr	r0, .L248+44
 3283 01b6 FFF7FEFF 		bl	UsbPrintf
 3284              	.LVL345:
 508:User/Src/command.c ****         UsbPrintf("[command] ĘľŔýŁşAT^FATFS_CluWrite=2,test.txt,hello_fatfs\r\n");
 3285              		.loc 1 508 9 view .LVU838
 3286 01ba 3248     		ldr	r0, .L248+48
ARM GAS  C:\Users\84759\AppData\Local\Temp\ccVSdzbq.s 			page 94


 3287 01bc FFF7FEFF 		bl	UsbPrintf
 3288              	.LVL346:
 509:User/Src/command.c ****         return;
 3289              		.loc 1 509 9 view .LVU839
 3290 01c0 3148     		ldr	r0, .L248+52
 3291 01c2 FFF7FEFF 		bl	UsbPrintf
 3292              	.LVL347:
 510:User/Src/command.c ****     }
 3293              		.loc 1 510 9 view .LVU840
 3294 01c6 F1E7     		b	.L211
 3295              	.LVL348:
 3296              	.L236:
 517:User/Src/command.c ****         return;
 3297              		.loc 1 517 9 view .LVU841
 3298 01c8 3048     		ldr	r0, .L248+56
 3299 01ca FFF7FEFF 		bl	UsbPrintf
 3300              	.LVL349:
 518:User/Src/command.c ****     }
 3301              		.loc 1 518 9 view .LVU842
 3302 01ce EDE7     		b	.L211
 3303              	.LVL350:
 3304              	.L237:
 525:User/Src/command.c ****         return;
 3305              		.loc 1 525 9 view .LVU843
 3306 01d0 2F48     		ldr	r0, .L248+60
 3307              	.LVL351:
 525:User/Src/command.c ****         return;
 3308              		.loc 1 525 9 is_stmt 0 view .LVU844
 3309 01d2 FFF7FEFF 		bl	UsbPrintf
 3310              	.LVL352:
 526:User/Src/command.c ****     }
 3311              		.loc 1 526 9 is_stmt 1 view .LVU845
 3312 01d6 E9E7     		b	.L211
 3313              	.LVL353:
 3314              	.L238:
 531:User/Src/command.c ****         return;
 3315              		.loc 1 531 9 view .LVU846
 3316 01d8 2E48     		ldr	r0, .L248+64
 3317              	.LVL354:
 531:User/Src/command.c ****         return;
 3318              		.loc 1 531 9 is_stmt 0 view .LVU847
 3319 01da FFF7FEFF 		bl	UsbPrintf
 3320              	.LVL355:
 532:User/Src/command.c ****     }
 3321              		.loc 1 532 9 is_stmt 1 view .LVU848
 3322 01de E5E7     		b	.L211
 3323              	.LVL356:
 3324              	.L239:
 538:User/Src/command.c ****         return;
 3325              		.loc 1 538 9 view .LVU849
 3326 01e0 2D48     		ldr	r0, .L248+68
 3327              	.LVL357:
 538:User/Src/command.c ****         return;
 3328              		.loc 1 538 9 is_stmt 0 view .LVU850
 3329 01e2 FFF7FEFF 		bl	UsbPrintf
 3330              	.LVL358:
 539:User/Src/command.c ****     }
ARM GAS  C:\Users\84759\AppData\Local\Temp\ccVSdzbq.s 			page 95


 3331              		.loc 1 539 9 is_stmt 1 view .LVU851
 3332 01e6 E1E7     		b	.L211
 3333              	.LVL359:
 3334              	.L220:
 547:User/Src/command.c ****         return;
 3335              		.loc 1 547 9 view .LVU852
 3336 01e8 2C48     		ldr	r0, .L248+72
 3337              	.LVL360:
 547:User/Src/command.c ****         return;
 3338              		.loc 1 547 9 is_stmt 0 view .LVU853
 3339 01ea FFF7FEFF 		bl	UsbPrintf
 3340              	.LVL361:
 548:User/Src/command.c ****     }
 3341              		.loc 1 548 9 is_stmt 1 view .LVU854
 3342 01ee DDE7     		b	.L211
 3343              	.LVL362:
 3344              	.L240:
 560:User/Src/command.c ****         return;
 3345              		.loc 1 560 9 view .LVU855
 3346 01f0 1F21     		movs	r1, #31
 3347 01f2 2B48     		ldr	r0, .L248+76
 3348              	.LVL363:
 560:User/Src/command.c ****         return;
 3349              		.loc 1 560 9 is_stmt 0 view .LVU856
 3350 01f4 FFF7FEFF 		bl	UsbPrintf
 3351              	.LVL364:
 561:User/Src/command.c ****     }
 3352              		.loc 1 561 9 is_stmt 1 view .LVU857
 3353 01f8 D8E7     		b	.L211
 3354              	.L241:
 567:User/Src/command.c ****         return;
 3355              		.loc 1 567 9 view .LVU858
 3356 01fa 2A48     		ldr	r0, .L248+80
 3357 01fc FFF7FEFF 		bl	UsbPrintf
 3358              	.LVL365:
 568:User/Src/command.c ****     }
 3359              		.loc 1 568 9 view .LVU859
 3360 0200 D4E7     		b	.L211
 3361              	.L242:
 572:User/Src/command.c ****         return;
 3362              		.loc 1 572 9 view .LVU860
 3363 0202 2948     		ldr	r0, .L248+84
 3364 0204 FFF7FEFF 		bl	UsbPrintf
 3365              	.LVL366:
 573:User/Src/command.c ****     }
 3366              		.loc 1 573 9 view .LVU861
 3367 0208 D0E7     		b	.L211
 3368              	.LVL367:
 3369              	.L243:
 582:User/Src/command.c ****         return;
 3370              		.loc 1 582 9 view .LVU862
 3371 020a 2848     		ldr	r0, .L248+88
 3372 020c FFF7FEFF 		bl	UsbPrintf
 3373              	.LVL368:
 583:User/Src/command.c ****     }
 3374              		.loc 1 583 9 view .LVU863
 3375 0210 CCE7     		b	.L211
ARM GAS  C:\Users\84759\AppData\Local\Temp\ccVSdzbq.s 			page 96


 3376              	.L244:
 587:User/Src/command.c ****         data_len = MAX_WRITE_DATA_LEN;
 3377              		.loc 1 587 9 view .LVU864
 3378 0212 40F2FF11 		movw	r1, #511
 3379 0216 2648     		ldr	r0, .L248+92
 3380 0218 FFF7FEFF 		bl	UsbPrintf
 3381              	.LVL369:
 588:User/Src/command.c ****     }
 3382              		.loc 1 588 9 view .LVU865
 588:User/Src/command.c ****     }
 3383              		.loc 1 588 18 is_stmt 0 view .LVU866
 3384 021c 40F2FF15 		movw	r5, #511
 3385 0220 6CE7     		b	.L226
 3386              	.LVL370:
 3387              	.L245:
 594:User/Src/command.c ****         return;
 3388              		.loc 1 594 9 is_stmt 1 view .LVU867
 3389 0222 2448     		ldr	r0, .L248+96
 3390 0224 FFF7FEFF 		bl	UsbPrintf
 3391              	.LVL371:
 595:User/Src/command.c ****     }
 3392              		.loc 1 595 9 view .LVU868
 3393 0228 C0E7     		b	.L211
 3394              	.L246:
 602:User/Src/command.c ****         return;
 3395              		.loc 1 602 9 view .LVU869
 3396 022a 2348     		ldr	r0, .L248+100
 3397 022c FFF7FEFF 		bl	UsbPrintf
 3398              	.LVL372:
 603:User/Src/command.c ****     }
 3399              		.loc 1 603 9 view .LVU870
 3400 0230 BCE7     		b	.L211
 3401              	.LVL373:
 3402              	.L247:
 630:User/Src/command.c ****         UsbPrintf("[command] ĘµĽĘĐ´Čë×Ö˝ÚŁş%u\r\n", write_result.write_len);
 3403              		.loc 1 630 9 view .LVU871
 3404 0232 2248     		ldr	r0, .L248+104
 3405              	.LVL374:
 630:User/Src/command.c ****         UsbPrintf("[command] ĘµĽĘĐ´Čë×Ö˝ÚŁş%u\r\n", write_result.write_len);
 3406              		.loc 1 630 9 is_stmt 0 view .LVU872
 3407 0234 FFF7FEFF 		bl	UsbPrintf
 3408              	.LVL375:
 631:User/Src/command.c ****         UsbPrintf("[command] ÎÄĽţĆđĘĽ´ŘşĹŁş%lu  µ±Ç°Đ´Čë´ŘşĹŁş%lu\r\n",
 3409              		.loc 1 631 9 is_stmt 1 view .LVU873
 3410 0238 0399     		ldr	r1, [sp, #12]
 3411 023a 2148     		ldr	r0, .L248+108
 3412 023c FFF7FEFF 		bl	UsbPrintf
 3413              	.LVL376:
 632:User/Src/command.c ****                   write_result.start_cluster, write_result.curr_cluster);
 3414              		.loc 1 632 9 view .LVU874
 3415 0240 059A     		ldr	r2, [sp, #20]
 3416 0242 0499     		ldr	r1, [sp, #16]
 3417 0244 1F48     		ldr	r0, .L248+112
 3418 0246 FFF7FEFF 		bl	UsbPrintf
 3419              	.LVL377:
 634:User/Src/command.c ****     }
 3420              		.loc 1 634 9 view .LVU875
ARM GAS  C:\Users\84759\AppData\Local\Temp\ccVSdzbq.s 			page 97


 3421 024a 1F48     		ldr	r0, .L248+116
 3422 024c FFF7FEFF 		bl	UsbPrintf
 3423              	.LVL378:
 3424 0250 ACE7     		b	.L211
 3425              	.L249:
 3426 0252 00BF     		.align	2
 3427              	.L248:
 3428 0254 90030000 		.word	.LC58
 3429 0258 0C020000 		.word	.LC70
 3430 025c 48020000 		.word	.LC71
 3431 0260 74020000 		.word	.LC72
 3432 0264 90020000 		.word	.LC73
 3433 0268 AC020000 		.word	.LC74
 3434 026c C8020000 		.word	.LC75
 3435 0270 00000000 		.word	USERFile
 3436 0274 48030000 		.word	.LC79
 3437 0278 6C030000 		.word	.LC80
 3438 027c 00000000 		.word	.LC6
 3439 0280 00000000 		.word	.LC27
 3440 0284 00000000 		.word	.LC59
 3441 0288 3C000000 		.word	.LC60
 3442 028c 50000000 		.word	.LC29
 3443 0290 78000000 		.word	.LC61
 3444 0294 A4000000 		.word	.LC62
 3445 0298 D0000000 		.word	.LC63
 3446 029c F8000000 		.word	.LC64
 3447 02a0 38010000 		.word	.LC65
 3448 02a4 6C010000 		.word	.LC66
 3449 02a8 94000000 		.word	.LC31
 3450 02ac 90010000 		.word	.LC67
 3451 02b0 B4010000 		.word	.LC68
 3452 02b4 E4010000 		.word	.LC69
 3453 02b8 C8000000 		.word	.LC32
 3454 02bc E8020000 		.word	.LC76
 3455 02c0 04030000 		.word	.LC77
 3456 02c4 C8010000 		.word	.LC54
 3457 02c8 24030000 		.word	.LC78
 3458              		.cfi_endproc
 3459              	.LFE82:
 3461              		.section	.text.HAL_UART_RxCpltCallback,"ax",%progbits
 3462              		.align	1
 3463              		.global	HAL_UART_RxCpltCallback
 3464              		.syntax unified
 3465              		.thumb
 3466              		.thumb_func
 3468              	HAL_UART_RxCpltCallback:
 3469              	.LVL379:
 3470              	.LFB86:
 776:User/Src/command.c **** 
 777:User/Src/command.c **** typedef void(*CmdFunc)(char*);
 778:User/Src/command.c **** 
 779:User/Src/command.c **** static CmdFunc UsbCommand[MAX_COMMAND_NUMBER] = {
 780:User/Src/command.c ****     AT_HELP_Handle,
 781:User/Src/command.c ****     AT_TEST_Handle,
 782:User/Src/command.c ****     AT_W25Q64_EraseChip_Handle,
 783:User/Src/command.c ****     AT_FATFS_ListDir_Handle,
 784:User/Src/command.c ****     AT_FATFS_DelFile_Handle,
ARM GAS  C:\Users\84759\AppData\Local\Temp\ccVSdzbq.s 			page 98


 785:User/Src/command.c ****     AT_FATFS_MOUNT_Handle,
 786:User/Src/command.c ****     AT_FATFS_FORMAT_Handle,
 787:User/Src/command.c ****     AT_FATFS_WRITE_Handle,
 788:User/Src/command.c ****     AT_FATFS_READ_Handle,
 789:User/Src/command.c ****     AT_FATFS_CluWrite_Handle,
 790:User/Src/command.c ****     AT_FATFS_GetTime_Handle,
 791:User/Src/command.c **** };
 792:User/Src/command.c **** 
 793:User/Src/command.c **** void HAL_UART_RxCpltCallback(UART_HandleTypeDef *huart)
 794:User/Src/command.c **** {
 3471              		.loc 1 794 1 view -0
 3472              		.cfi_startproc
 3473              		@ args = 0, pretend = 0, frame = 0
 3474              		@ frame_needed = 0, uses_anonymous_args = 0
 3475              		.loc 1 794 1 is_stmt 0 view .LVU877
 3476 0000 10B5     		push	{r4, lr}
 3477              	.LCFI38:
 3478              		.cfi_def_cfa_offset 8
 3479              		.cfi_offset 4, -8
 3480              		.cfi_offset 14, -4
 3481 0002 0446     		mov	r4, r0
 795:User/Src/command.c ****     if (huart->Instance == USART1)
 3482              		.loc 1 795 5 is_stmt 1 view .LVU878
 3483              		.loc 1 795 14 is_stmt 0 view .LVU879
 3484 0004 0268     		ldr	r2, [r0]
 3485              		.loc 1 795 8 view .LVU880
 3486 0006 224B     		ldr	r3, .L260
 3487 0008 9A42     		cmp	r2, r3
 3488 000a 04D0     		beq	.L258
 3489              	.LVL380:
 3490              	.L251:
 796:User/Src/command.c ****     {
 797:User/Src/command.c ****         if (usb_Rx_Cnt < UART_RECEIVE_BUFF_NUMBER && g_UsbATStatus == 0)
 798:User/Src/command.c ****         {
 799:User/Src/command.c ****             g_UsbRxBuff[usb_Rx_Cnt++] = usbRxBuf;
 800:User/Src/command.c ****         }
 801:User/Src/command.c **** 
 802:User/Src/command.c ****         if (usb_Rx_Cnt >= UART_RECEIVE_BUFF_NUMBER || usbRxBuf == '\r' || usbRxBuf == '\n')
 803:User/Src/command.c ****         {
 804:User/Src/command.c ****             g_UsbATStatus = 1;
 805:User/Src/command.c ****         }
 806:User/Src/command.c **** 
 807:User/Src/command.c ****         HAL_UART_Receive_IT(&huart1, &usbRxBuf, 1);
 808:User/Src/command.c ****     }
 809:User/Src/command.c **** 
 810:User/Src/command.c ****     if(huart->Instance == USART2)
 3491              		.loc 1 810 5 is_stmt 1 view .LVU881
 3492              		.loc 1 810 13 is_stmt 0 view .LVU882
 3493 000c 2268     		ldr	r2, [r4]
 3494              		.loc 1 810 7 view .LVU883
 3495 000e 214B     		ldr	r3, .L260+4
 3496 0010 9A42     		cmp	r2, r3
 3497 0012 21D0     		beq	.L259
 3498              	.L250:
 811:User/Src/command.c ****     {
 812:User/Src/command.c ****         // ĽĆËăĎÂŇ»¸ö head Î»ÖĂ
 813:User/Src/command.c ****         uint16_t next_head = (uart2_rx_ringbuf.head + 1) % UART2_RX_BUF_SIZE;
ARM GAS  C:\Users\84759\AppData\Local\Temp\ccVSdzbq.s 			page 99


 814:User/Src/command.c **** 
 815:User/Src/command.c ****         // »şłĺÇř˛»ÂúľÍ´ć
 816:User/Src/command.c ****         if(next_head != uart2_rx_ringbuf.tail)
 817:User/Src/command.c ****         {
 818:User/Src/command.c ****             uart2_rx_ringbuf.head = next_head;
 819:User/Src/command.c ****         }
 820:User/Src/command.c **** 
 821:User/Src/command.c ****         // ÖŘĐÂżŞĆôĎÂŇ»´Î˝ÓĘŐ
 822:User/Src/command.c ****         HAL_UART_Receive_IT(&huart2, &uart2_rx_ringbuf.buffer[uart2_rx_ringbuf.head], 1);
 823:User/Src/command.c ****     }
 824:User/Src/command.c **** }
 3499              		.loc 1 824 1 view .LVU884
 3500 0014 10BD     		pop	{r4, pc}
 3501              	.LVL381:
 3502              	.L258:
 797:User/Src/command.c ****         {
 3503              		.loc 1 797 9 is_stmt 1 view .LVU885
 797:User/Src/command.c ****         {
 3504              		.loc 1 797 24 is_stmt 0 view .LVU886
 3505 0016 204B     		ldr	r3, .L260+8
 3506 0018 1B88     		ldrh	r3, [r3]
 797:User/Src/command.c ****         {
 3507              		.loc 1 797 12 view .LVU887
 3508 001a FF2B     		cmp	r3, #255
 3509 001c 09D8     		bhi	.L252
 797:User/Src/command.c ****         {
 3510              		.loc 1 797 68 discriminator 1 view .LVU888
 3511 001e 1F4A     		ldr	r2, .L260+12
 3512 0020 1278     		ldrb	r2, [r2]	@ zero_extendqisi2
 797:User/Src/command.c ****         {
 3513              		.loc 1 797 51 discriminator 1 view .LVU889
 3514 0022 32B9     		cbnz	r2, .L252
 799:User/Src/command.c ****         }
 3515              		.loc 1 799 13 is_stmt 1 view .LVU890
 799:User/Src/command.c ****         }
 3516              		.loc 1 799 35 is_stmt 0 view .LVU891
 3517 0024 591C     		adds	r1, r3, #1
 3518 0026 1C4A     		ldr	r2, .L260+8
 3519 0028 1180     		strh	r1, [r2]	@ movhi
 799:User/Src/command.c ****         }
 3520              		.loc 1 799 39 view .LVU892
 3521 002a 1D4A     		ldr	r2, .L260+16
 3522 002c 1178     		ldrb	r1, [r2]	@ zero_extendqisi2
 3523 002e 1D4A     		ldr	r2, .L260+20
 3524 0030 D154     		strb	r1, [r2, r3]
 3525              	.L252:
 802:User/Src/command.c ****         {
 3526              		.loc 1 802 9 is_stmt 1 view .LVU893
 802:User/Src/command.c ****         {
 3527              		.loc 1 802 24 is_stmt 0 view .LVU894
 3528 0032 194B     		ldr	r3, .L260+8
 3529 0034 1B88     		ldrh	r3, [r3]
 802:User/Src/command.c ****         {
 3530              		.loc 1 802 12 view .LVU895
 3531 0036 FF2B     		cmp	r3, #255
 3532 0038 05D8     		bhi	.L253
 802:User/Src/command.c ****         {
ARM GAS  C:\Users\84759\AppData\Local\Temp\ccVSdzbq.s 			page 100


 3533              		.loc 1 802 64 discriminator 1 view .LVU896
 3534 003a 194B     		ldr	r3, .L260+16
 3535 003c 1B78     		ldrb	r3, [r3]	@ zero_extendqisi2
 802:User/Src/command.c ****         {
 3536              		.loc 1 802 52 discriminator 1 view .LVU897
 3537 003e 0D2B     		cmp	r3, #13
 3538 0040 01D0     		beq	.L253
 802:User/Src/command.c ****         {
 3539              		.loc 1 802 72 discriminator 2 view .LVU898
 3540 0042 0A2B     		cmp	r3, #10
 3541 0044 02D1     		bne	.L254
 3542              	.L253:
 804:User/Src/command.c ****         }
 3543              		.loc 1 804 13 is_stmt 1 view .LVU899
 804:User/Src/command.c ****         }
 3544              		.loc 1 804 27 is_stmt 0 view .LVU900
 3545 0046 154B     		ldr	r3, .L260+12
 3546 0048 0122     		movs	r2, #1
 3547 004a 1A70     		strb	r2, [r3]
 3548              	.L254:
 807:User/Src/command.c ****     }
 3549              		.loc 1 807 9 is_stmt 1 view .LVU901
 3550 004c 0122     		movs	r2, #1
 3551 004e 1449     		ldr	r1, .L260+16
 3552 0050 1548     		ldr	r0, .L260+24
 3553              	.LVL382:
 807:User/Src/command.c ****     }
 3554              		.loc 1 807 9 is_stmt 0 view .LVU902
 3555 0052 FFF7FEFF 		bl	HAL_UART_Receive_IT
 3556              	.LVL383:
 3557 0056 D9E7     		b	.L251
 3558              	.L259:
 3559              	.LBB9:
 813:User/Src/command.c **** 
 3560              		.loc 1 813 9 is_stmt 1 view .LVU903
 813:User/Src/command.c **** 
 3561              		.loc 1 813 47 is_stmt 0 view .LVU904
 3562 0058 1449     		ldr	r1, .L260+28
 3563 005a B1F80031 		ldrh	r3, [r1, #256]
 3564 005e 9BB2     		uxth	r3, r3
 813:User/Src/command.c **** 
 3565              		.loc 1 813 53 view .LVU905
 3566 0060 0133     		adds	r3, r3, #1
 813:User/Src/command.c **** 
 3567              		.loc 1 813 58 view .LVU906
 3568 0062 5A42     		rsbs	r2, r3, #0
 3569 0064 DBB2     		uxtb	r3, r3
 3570 0066 D2B2     		uxtb	r2, r2
 3571 0068 58BF     		it	pl
 3572 006a 5342     		rsbpl	r3, r2, #0
 813:User/Src/command.c **** 
 3573              		.loc 1 813 18 view .LVU907
 3574 006c 9BB2     		uxth	r3, r3
 3575              	.LVL384:
 816:User/Src/command.c ****         {
 3576              		.loc 1 816 9 is_stmt 1 view .LVU908
 816:User/Src/command.c ****         {
ARM GAS  C:\Users\84759\AppData\Local\Temp\ccVSdzbq.s 			page 101


 3577              		.loc 1 816 41 is_stmt 0 view .LVU909
 3578 006e B1F80221 		ldrh	r2, [r1, #258]
 3579 0072 92B2     		uxth	r2, r2
 816:User/Src/command.c ****         {
 3580              		.loc 1 816 11 view .LVU910
 3581 0074 9A42     		cmp	r2, r3
 3582 0076 01D0     		beq	.L256
 818:User/Src/command.c ****         }
 3583              		.loc 1 818 13 is_stmt 1 view .LVU911
 818:User/Src/command.c ****         }
 3584              		.loc 1 818 35 is_stmt 0 view .LVU912
 3585 0078 A1F80031 		strh	r3, [r1, #256]	@ movhi
 3586              	.L256:
 822:User/Src/command.c ****     }
 3587              		.loc 1 822 9 is_stmt 1 view .LVU913
 822:User/Src/command.c ****     }
 3588              		.loc 1 822 79 is_stmt 0 view .LVU914
 3589 007c 0B49     		ldr	r1, .L260+28
 3590 007e B1F80031 		ldrh	r3, [r1, #256]
 3591              	.LVL385:
 822:User/Src/command.c ****     }
 3592              		.loc 1 822 79 view .LVU915
 3593 0082 9BB2     		uxth	r3, r3
 822:User/Src/command.c ****     }
 3594              		.loc 1 822 9 view .LVU916
 3595 0084 0122     		movs	r2, #1
 3596 0086 1944     		add	r1, r1, r3
 3597 0088 0948     		ldr	r0, .L260+32
 3598 008a FFF7FEFF 		bl	HAL_UART_Receive_IT
 3599              	.LVL386:
 3600              	.LBE9:
 3601              		.loc 1 824 1 view .LVU917
 3602 008e C1E7     		b	.L250
 3603              	.L261:
 3604              		.align	2
 3605              	.L260:
 3606 0090 00380140 		.word	1073821696
 3607 0094 00440040 		.word	1073759232
 3608 0098 00000000 		.word	.LANCHOR1
 3609 009c 00000000 		.word	.LANCHOR2
 3610 00a0 00000000 		.word	.LANCHOR4
 3611 00a4 00000000 		.word	.LANCHOR3
 3612 00a8 00000000 		.word	huart1
 3613 00ac 00000000 		.word	uart2_rx_ringbuf
