ARM GAS  C:\Users\86158\AppData\Local\Temp\ccWOFplP.s 			page 1


   1              		.cpu cortex-m4
   2              		.arch armv7e-m
   3              		.fpu fpv4-sp-d16
   4              		.eabi_attribute 27, 1
   5              		.eabi_attribute 28, 1
   6              		.eabi_attribute 20, 1
   7              		.eabi_attribute 21, 1
   8              		.eabi_attribute 23, 3
   9              		.eabi_attribute 24, 1
  10              		.eabi_attribute 25, 1
  11              		.eabi_attribute 26, 1
  12              		.eabi_attribute 30, 1
  13              		.eabi_attribute 34, 1
  14              		.eabi_attribute 18, 4
  15              		.file	"current.c"
  16              		.text
  17              	.Ltext0:
  18              		.cfi_sections	.debug_frame
  19              		.section	.text.adc_clk_h,"ax",%progbits
  20              		.align	1
  21              		.syntax unified
  22              		.thumb
  23              		.thumb_func
  25              	adc_clk_h:
  26              	.LFB235:
  27              		.file 1 "Device/Src/current.c"
   1:Device/Src/current.c **** #include "main.h"
   2:Device/Src/current.c **** #include "current.h"
   3:Device/Src/current.c **** 
   4:Device/Src/current.c **** #define VOLTAGE_REF			2500//mV
   5:Device/Src/current.c **** #define MEASRUE_VGA			128
   6:Device/Src/current.c **** #define SAMPLING_RESISTOR	1000//
   7:Device/Src/current.c **** 
   8:Device/Src/current.c **** 
   9:Device/Src/current.c **** static void adc_clk_h(void)
  10:Device/Src/current.c **** {
  28              		.loc 1 10 1 view -0
  29              		.cfi_startproc
  30              		@ args = 0, pretend = 0, frame = 0
  31              		@ frame_needed = 0, uses_anonymous_args = 0
  32 0000 08B5     		push	{r3, lr}
  33              	.LCFI0:
  34              		.cfi_def_cfa_offset 8
  35              		.cfi_offset 3, -8
  36              		.cfi_offset 14, -4
  11:Device/Src/current.c ****   	HAL_GPIO_WritePin(GPIOC, GPIO_PIN_15, GPIO_PIN_SET);
  37              		.loc 1 11 4 view .LVU1
  38 0002 0122     		movs	r2, #1
  39 0004 4FF40041 		mov	r1, #32768
  40 0008 0148     		ldr	r0, .L3
  41 000a FFF7FEFF 		bl	HAL_GPIO_WritePin
  42              	.LVL0:
  12:Device/Src/current.c **** }
  43              		.loc 1 12 1 is_stmt 0 view .LVU2
  44 000e 08BD     		pop	{r3, pc}
  45              	.L4:
  46              		.align	2
ARM GAS  C:\Users\86158\AppData\Local\Temp\ccWOFplP.s 			page 2


  47              	.L3:
  48 0010 00080240 		.word	1073874944
  49              		.cfi_endproc
  50              	.LFE235:
  52              		.section	.text.adc_clk_l,"ax",%progbits
  53              		.align	1
  54              		.syntax unified
  55              		.thumb
  56              		.thumb_func
  58              	adc_clk_l:
  59              	.LFB236:
  13:Device/Src/current.c **** 
  14:Device/Src/current.c **** static void adc_clk_l(void)
  15:Device/Src/current.c **** {
  60              		.loc 1 15 1 is_stmt 1 view -0
  61              		.cfi_startproc
  62              		@ args = 0, pretend = 0, frame = 0
  63              		@ frame_needed = 0, uses_anonymous_args = 0
  64 0000 08B5     		push	{r3, lr}
  65              	.LCFI1:
  66              		.cfi_def_cfa_offset 8
  67              		.cfi_offset 3, -8
  68              		.cfi_offset 14, -4
  16:Device/Src/current.c ****   	HAL_GPIO_WritePin(GPIOC, GPIO_PIN_15, GPIO_PIN_RESET);
  69              		.loc 1 16 4 view .LVU4
  70 0002 0022     		movs	r2, #0
  71 0004 4FF40041 		mov	r1, #32768
  72 0008 0148     		ldr	r0, .L7
  73 000a FFF7FEFF 		bl	HAL_GPIO_WritePin
  74              	.LVL1:
  17:Device/Src/current.c **** }
  75              		.loc 1 17 1 is_stmt 0 view .LVU5
  76 000e 08BD     		pop	{r3, pc}
  77              	.L8:
  78              		.align	2
  79              	.L7:
  80 0010 00080240 		.word	1073874944
  81              		.cfi_endproc
  82              	.LFE236:
  84              		.section	.text.adc_dout_l,"ax",%progbits
  85              		.align	1
  86              		.syntax unified
  87              		.thumb
  88              		.thumb_func
  90              	adc_dout_l:
  91              	.LFB238:
  18:Device/Src/current.c **** 
  19:Device/Src/current.c **** static void adc_dout_h(void)
  20:Device/Src/current.c **** {
  21:Device/Src/current.c ****   	HAL_GPIO_WritePin(GPIOC, GPIO_PIN_14, GPIO_PIN_SET);
  22:Device/Src/current.c **** }
  23:Device/Src/current.c **** 
  24:Device/Src/current.c **** static void adc_dout_l(void)
  25:Device/Src/current.c **** {
  92              		.loc 1 25 1 is_stmt 1 view -0
  93              		.cfi_startproc
  94              		@ args = 0, pretend = 0, frame = 0
ARM GAS  C:\Users\86158\AppData\Local\Temp\ccWOFplP.s 			page 3


  95              		@ frame_needed = 0, uses_anonymous_args = 0
  96 0000 08B5     		push	{r3, lr}
  97              	.LCFI2:
  98              		.cfi_def_cfa_offset 8
  99              		.cfi_offset 3, -8
 100              		.cfi_offset 14, -4
  26:Device/Src/current.c ****   	HAL_GPIO_WritePin(GPIOC, GPIO_PIN_14, GPIO_PIN_RESET);
 101              		.loc 1 26 4 view .LVU7
 102 0002 0022     		movs	r2, #0
 103 0004 4FF48041 		mov	r1, #16384
 104 0008 0148     		ldr	r0, .L11
 105 000a FFF7FEFF 		bl	HAL_GPIO_WritePin
 106              	.LVL2:
  27:Device/Src/current.c **** }
 107              		.loc 1 27 1 is_stmt 0 view .LVU8
 108 000e 08BD     		pop	{r3, pc}
 109              	.L12:
 110              		.align	2
 111              	.L11:
 112 0010 00080240 		.word	1073874944
 113              		.cfi_endproc
 114              	.LFE238:
 116              		.section	.text.adc_dout_h,"ax",%progbits
 117              		.align	1
 118              		.syntax unified
 119              		.thumb
 120              		.thumb_func
 122              	adc_dout_h:
 123              	.LFB237:
  20:Device/Src/current.c ****   	HAL_GPIO_WritePin(GPIOC, GPIO_PIN_14, GPIO_PIN_SET);
 124              		.loc 1 20 1 is_stmt 1 view -0
 125              		.cfi_startproc
 126              		@ args = 0, pretend = 0, frame = 0
 127              		@ frame_needed = 0, uses_anonymous_args = 0
 128 0000 08B5     		push	{r3, lr}
 129              	.LCFI3:
 130              		.cfi_def_cfa_offset 8
 131              		.cfi_offset 3, -8
 132              		.cfi_offset 14, -4
  21:Device/Src/current.c **** }
 133              		.loc 1 21 4 view .LVU10
 134 0002 0122     		movs	r2, #1
 135 0004 4FF48041 		mov	r1, #16384
 136 0008 0148     		ldr	r0, .L15
 137 000a FFF7FEFF 		bl	HAL_GPIO_WritePin
 138              	.LVL3:
  22:Device/Src/current.c **** 
 139              		.loc 1 22 1 is_stmt 0 view .LVU11
 140 000e 08BD     		pop	{r3, pc}
 141              	.L16:
 142              		.align	2
 143              	.L15:
 144 0010 00080240 		.word	1073874944
 145              		.cfi_endproc
 146              	.LFE237:
 148              		.section	.text.adc_read_din,"ax",%progbits
 149              		.align	1
ARM GAS  C:\Users\86158\AppData\Local\Temp\ccWOFplP.s 			page 4


 150              		.syntax unified
 151              		.thumb
 152              		.thumb_func
 154              	adc_read_din:
 155              	.LFB239:
  28:Device/Src/current.c **** 
  29:Device/Src/current.c **** 
  30:Device/Src/current.c **** /**
  31:Device/Src/current.c ****  * @brief Read sda pin state
  32:Device/Src/current.c ****  * 
  33:Device/Src/current.c ****  */
  34:Device/Src/current.c **** static unsigned char adc_read_din(void)
  35:Device/Src/current.c **** {
 156              		.loc 1 35 1 is_stmt 1 view -0
 157              		.cfi_startproc
 158              		@ args = 0, pretend = 0, frame = 0
 159              		@ frame_needed = 0, uses_anonymous_args = 0
 160 0000 08B5     		push	{r3, lr}
 161              	.LCFI4:
 162              		.cfi_def_cfa_offset 8
 163              		.cfi_offset 3, -8
 164              		.cfi_offset 14, -4
  36:Device/Src/current.c **** 	/*user code*/
  37:Device/Src/current.c ****     if (HAL_GPIO_ReadPin(GPIOC, GPIO_PIN_14) == GPIO_PIN_SET) {
 165              		.loc 1 37 5 view .LVU13
 166              		.loc 1 37 9 is_stmt 0 view .LVU14
 167 0002 4FF48041 		mov	r1, #16384
 168 0006 0348     		ldr	r0, .L21
 169 0008 FFF7FEFF 		bl	HAL_GPIO_ReadPin
 170              	.LVL4:
 171              		.loc 1 37 8 view .LVU15
 172 000c 0128     		cmp	r0, #1
 173 000e 00D0     		beq	.L18
  38:Device/Src/current.c ****         return 1;
  39:Device/Src/current.c ****     } else {
  40:Device/Src/current.c ****         return 0;
 174              		.loc 1 40 16 view .LVU16
 175 0010 0020     		movs	r0, #0
 176              	.L18:
  41:Device/Src/current.c ****     }
  42:Device/Src/current.c **** }
 177              		.loc 1 42 1 view .LVU17
 178 0012 08BD     		pop	{r3, pc}
 179              	.L22:
 180              		.align	2
 181              	.L21:
 182 0014 00080240 		.word	1073874944
 183              		.cfi_endproc
 184              	.LFE239:
 186              		.section	.text.CS1237OneClock,"ax",%progbits
 187              		.align	1
 188              		.global	CS1237OneClock
 189              		.syntax unified
 190              		.thumb
 191              		.thumb_func
 193              	CS1237OneClock:
 194              	.LFB243:
ARM GAS  C:\Users\86158\AppData\Local\Temp\ccWOFplP.s 			page 5


  43:Device/Src/current.c **** 
  44:Device/Src/current.c **** /**
  45:Device/Src/current.c ****  * @brief When read data, need to set sda as in
  46:Device/Src/current.c ****  * 
  47:Device/Src/current.c ****  */
  48:Device/Src/current.c **** static inline void adc_sda_in(void)
  49:Device/Src/current.c **** {
  50:Device/Src/current.c **** 	/*user code */
  51:Device/Src/current.c ****   	GPIO_InitTypeDef GPIO_InitStruct = {0};
  52:Device/Src/current.c **** 	GPIO_InitStruct.Pin = GPIO_PIN_14;
  53:Device/Src/current.c **** 	GPIO_InitStruct.Mode = GPIO_MODE_INPUT;
  54:Device/Src/current.c **** 	GPIO_InitStruct.Pull = GPIO_PULLUP;
  55:Device/Src/current.c **** 	GPIO_InitStruct.Speed = GPIO_SPEED_FREQ_LOW;
  56:Device/Src/current.c **** 	HAL_GPIO_Init(GPIOC, &GPIO_InitStruct);
  57:Device/Src/current.c **** }
  58:Device/Src/current.c **** 
  59:Device/Src/current.c **** /**
  60:Device/Src/current.c ****  * @brief When send data, need to set sda as out
  61:Device/Src/current.c ****  * 
  62:Device/Src/current.c ****  */
  63:Device/Src/current.c **** static inline void adc_sda_out(void)
  64:Device/Src/current.c **** {
  65:Device/Src/current.c **** 	/*user code */
  66:Device/Src/current.c ****   	GPIO_InitTypeDef GPIO_InitStruct = {0};
  67:Device/Src/current.c **** 	GPIO_InitStruct.Pin = GPIO_PIN_14;
  68:Device/Src/current.c **** 	GPIO_InitStruct.Mode = GPIO_MODE_OUTPUT_OD;
  69:Device/Src/current.c **** 	GPIO_InitStruct.Pull = GPIO_PULLUP;
  70:Device/Src/current.c **** 	GPIO_InitStruct.Speed = GPIO_SPEED_FREQ_LOW;
  71:Device/Src/current.c **** 	HAL_GPIO_Init(GPIOC, &GPIO_InitStruct);
  72:Device/Src/current.c ****   
  73:Device/Src/current.c **** }
  74:Device/Src/current.c **** 
  75:Device/Src/current.c **** unsigned char CS1237Init(void)
  76:Device/Src/current.c **** {
  77:Device/Src/current.c **** 	uint8_t buffer;
  78:Device/Src/current.c **** 	buffer = 0x2C;
  79:Device/Src/current.c **** 	CS1237WriteConfig(buffer);
  80:Device/Src/current.c **** 	HAL_Delay(5);
  81:Device/Src/current.c **** 	buffer = CS1237ReadConfig();
  82:Device/Src/current.c **** 	if (buffer == 0x2C) {
  83:Device/Src/current.c **** 		return 1;
  84:Device/Src/current.c **** 	} else {
  85:Device/Src/current.c **** 		return 0;
  86:Device/Src/current.c **** 	}
  87:Device/Src/current.c **** }
  88:Device/Src/current.c **** 
  89:Device/Src/current.c **** void CS1237OneClock(void)
  90:Device/Src/current.c **** {
 195              		.loc 1 90 1 is_stmt 1 view -0
 196              		.cfi_startproc
 197              		@ args = 0, pretend = 0, frame = 0
 198              		@ frame_needed = 0, uses_anonymous_args = 0
 199 0000 08B5     		push	{r3, lr}
 200              	.LCFI5:
 201              		.cfi_def_cfa_offset 8
 202              		.cfi_offset 3, -8
 203              		.cfi_offset 14, -4
ARM GAS  C:\Users\86158\AppData\Local\Temp\ccWOFplP.s 			page 6


  91:Device/Src/current.c **** 	int j = 0;
 204              		.loc 1 91 2 view .LVU19
 205              	.LVL5:
  92:Device/Src/current.c **** 	adc_clk_h();
 206              		.loc 1 92 2 view .LVU20
 207 0002 FFF7FEFF 		bl	adc_clk_h
 208              	.LVL6:
  93:Device/Src/current.c **** 	for (j = 0; j < 150; j++) {}
 209              		.loc 1 93 2 view .LVU21
 210              		.loc 1 93 9 is_stmt 0 view .LVU22
 211 0006 0023     		movs	r3, #0
 212              		.loc 1 93 2 view .LVU23
 213 0008 00E0     		b	.L24
 214              	.LVL7:
 215              	.L25:
 216              		.loc 1 93 29 is_stmt 1 discriminator 3 view .LVU24
 217              		.loc 1 93 23 discriminator 3 view .LVU25
 218              		.loc 1 93 24 is_stmt 0 discriminator 3 view .LVU26
 219 000a 0133     		adds	r3, r3, #1
 220              	.LVL8:
 221              	.L24:
 222              		.loc 1 93 14 is_stmt 1 discriminator 1 view .LVU27
 223              		.loc 1 93 2 is_stmt 0 discriminator 1 view .LVU28
 224 000c 952B     		cmp	r3, #149
 225 000e FCDD     		ble	.L25
  94:Device/Src/current.c **** 	adc_clk_l();
 226              		.loc 1 94 2 is_stmt 1 view .LVU29
 227 0010 FFF7FEFF 		bl	adc_clk_l
 228              	.LVL9:
  95:Device/Src/current.c **** 	for (j = 0; j < 150; j++) {}
 229              		.loc 1 95 2 view .LVU30
 230              		.loc 1 95 9 is_stmt 0 view .LVU31
 231 0014 0023     		movs	r3, #0
 232              		.loc 1 95 2 view .LVU32
 233 0016 00E0     		b	.L26
 234              	.LVL10:
 235              	.L27:
 236              		.loc 1 95 29 is_stmt 1 discriminator 3 view .LVU33
 237              		.loc 1 95 23 discriminator 3 view .LVU34
 238              		.loc 1 95 24 is_stmt 0 discriminator 3 view .LVU35
 239 0018 0133     		adds	r3, r3, #1
 240              	.LVL11:
 241              	.L26:
 242              		.loc 1 95 14 is_stmt 1 discriminator 1 view .LVU36
 243              		.loc 1 95 2 is_stmt 0 discriminator 1 view .LVU37
 244 001a 952B     		cmp	r3, #149
 245 001c FCDD     		ble	.L27
  96:Device/Src/current.c **** }
 246              		.loc 1 96 1 view .LVU38
 247 001e 08BD     		pop	{r3, pc}
 248              		.loc 1 96 1 view .LVU39
 249              		.cfi_endproc
 250              	.LFE243:
 252              		.section	.text.CS1237Voltage,"ax",%progbits
 253              		.align	1
 254              		.global	CS1237Voltage
 255              		.syntax unified
ARM GAS  C:\Users\86158\AppData\Local\Temp\ccWOFplP.s 			page 7


 256              		.thumb
 257              		.thumb_func
 259              	CS1237Voltage:
 260              	.LFB244:
  97:Device/Src/current.c **** 
  98:Device/Src/current.c **** long CS1237Voltage(void)
  99:Device/Src/current.c **** {
 261              		.loc 1 99 1 is_stmt 1 view -0
 262              		.cfi_startproc
 263              		@ args = 0, pretend = 0, frame = 24
 264              		@ frame_needed = 0, uses_anonymous_args = 0
 265 0000 30B5     		push	{r4, r5, lr}
 266              	.LCFI6:
 267              		.cfi_def_cfa_offset 12
 268              		.cfi_offset 4, -12
 269              		.cfi_offset 5, -8
 270              		.cfi_offset 14, -4
 271 0002 87B0     		sub	sp, sp, #28
 272              	.LCFI7:
 273              		.cfi_def_cfa_offset 40
 100:Device/Src/current.c **** 	long voltage = 0;
 274              		.loc 1 100 2 view .LVU41
 275              	.LVL12:
 101:Device/Src/current.c **** 	uint32_t time;		
 276              		.loc 1 101 2 view .LVU42
 102:Device/Src/current.c **** 	int i;
 277              		.loc 1 102 2 view .LVU43
 103:Device/Src/current.c **** 	adc_clk_l();
 278              		.loc 1 103 2 view .LVU44
 279 0004 FFF7FEFF 		bl	adc_clk_l
 280              	.LVL13:
 104:Device/Src/current.c **** 	adc_sda_in();	
 281              		.loc 1 104 2 view .LVU45
 282              	.LBB4:
 283              	.LBI4:
  48:Device/Src/current.c **** {
 284              		.loc 1 48 20 view .LVU46
 285              	.LBB5:
  51:Device/Src/current.c **** 	GPIO_InitStruct.Pin = GPIO_PIN_14;
 286              		.loc 1 51 4 view .LVU47
  51:Device/Src/current.c **** 	GPIO_InitStruct.Pin = GPIO_PIN_14;
 287              		.loc 1 51 21 is_stmt 0 view .LVU48
 288 0008 0023     		movs	r3, #0
 289 000a 0193     		str	r3, [sp, #4]
 290 000c 0293     		str	r3, [sp, #8]
 291 000e 0393     		str	r3, [sp, #12]
 292 0010 0493     		str	r3, [sp, #16]
 293 0012 0593     		str	r3, [sp, #20]
  52:Device/Src/current.c **** 	GPIO_InitStruct.Mode = GPIO_MODE_INPUT;
 294              		.loc 1 52 2 is_stmt 1 view .LVU49
  52:Device/Src/current.c **** 	GPIO_InitStruct.Mode = GPIO_MODE_INPUT;
 295              		.loc 1 52 22 is_stmt 0 view .LVU50
 296 0014 4FF48043 		mov	r3, #16384
 297 0018 0193     		str	r3, [sp, #4]
  53:Device/Src/current.c **** 	GPIO_InitStruct.Pull = GPIO_PULLUP;
 298              		.loc 1 53 2 is_stmt 1 view .LVU51
  54:Device/Src/current.c **** 	GPIO_InitStruct.Speed = GPIO_SPEED_FREQ_LOW;
ARM GAS  C:\Users\86158\AppData\Local\Temp\ccWOFplP.s 			page 8


 299              		.loc 1 54 2 view .LVU52
  54:Device/Src/current.c **** 	GPIO_InitStruct.Speed = GPIO_SPEED_FREQ_LOW;
 300              		.loc 1 54 23 is_stmt 0 view .LVU53
 301 001a 0123     		movs	r3, #1
 302 001c 0393     		str	r3, [sp, #12]
  55:Device/Src/current.c **** 	HAL_GPIO_Init(GPIOC, &GPIO_InitStruct);
 303              		.loc 1 55 2 is_stmt 1 view .LVU54
  56:Device/Src/current.c **** }
 304              		.loc 1 56 2 view .LVU55
 305 001e 01A9     		add	r1, sp, #4
 306 0020 1548     		ldr	r0, .L41
 307 0022 FFF7FEFF 		bl	HAL_GPIO_Init
 308              	.LVL14:
 309              	.LBE5:
 310              	.LBE4:
 105:Device/Src/current.c **** 	time = HAL_GetTick();
 311              		.loc 1 105 2 view .LVU56
 312              		.loc 1 105 9 is_stmt 0 view .LVU57
 313 0026 FFF7FEFF 		bl	HAL_GetTick
 314              	.LVL15:
 315 002a 0446     		mov	r4, r0
 316              	.LVL16:
 106:Device/Src/current.c **** 	while (!adc_read_din()) { 
 317              		.loc 1 106 2 is_stmt 1 view .LVU58
 318              	.L30:
 319              		.loc 1 106 8 view .LVU59
 320              		.loc 1 106 10 is_stmt 0 view .LVU60
 321 002c FFF7FEFF 		bl	adc_read_din
 322              	.LVL17:
 323              		.loc 1 106 8 view .LVU61
 324 0030 28B9     		cbnz	r0, .L34
 107:Device/Src/current.c **** 		if (HAL_GetTick() > time + 100) { break;}
 325              		.loc 1 107 3 is_stmt 1 view .LVU62
 326              		.loc 1 107 7 is_stmt 0 view .LVU63
 327 0032 FFF7FEFF 		bl	HAL_GetTick
 328              	.LVL18:
 329              		.loc 1 107 28 view .LVU64
 330 0036 04F16403 		add	r3, r4, #100
 331              		.loc 1 107 6 view .LVU65
 332 003a 9842     		cmp	r0, r3
 333 003c F6D9     		bls	.L30
 334              	.L34:
 108:Device/Src/current.c **** 	}
 109:Device/Src/current.c **** 	while (adc_read_din()) { 
 335              		.loc 1 109 8 is_stmt 1 view .LVU66
 336              		.loc 1 109 9 is_stmt 0 view .LVU67
 337 003e FFF7FEFF 		bl	adc_read_din
 338              	.LVL19:
 339              		.loc 1 109 8 view .LVU68
 340 0042 28B1     		cbz	r0, .L33
 110:Device/Src/current.c **** 		if (HAL_GetTick() > time + 100) { break;}
 341              		.loc 1 110 3 is_stmt 1 view .LVU69
 342              		.loc 1 110 7 is_stmt 0 view .LVU70
 343 0044 FFF7FEFF 		bl	HAL_GetTick
 344              	.LVL20:
 345              		.loc 1 110 28 view .LVU71
 346 0048 04F16403 		add	r3, r4, #100
ARM GAS  C:\Users\86158\AppData\Local\Temp\ccWOFplP.s 			page 9


 347              		.loc 1 110 6 view .LVU72
 348 004c 9842     		cmp	r0, r3
 349 004e F6D9     		bls	.L34
 350              	.L33:
  99:Device/Src/current.c **** 	long voltage = 0;
 351              		.loc 1 99 1 discriminator 1 view .LVU73
 352 0050 0024     		movs	r4, #0
 353              	.LVL21:
  99:Device/Src/current.c **** 	long voltage = 0;
 354              		.loc 1 99 1 discriminator 1 view .LVU74
 355 0052 2546     		mov	r5, r4
 356 0054 00E0     		b	.L36
 357              	.LVL22:
 358              	.L37:
 111:Device/Src/current.c **** 	}
 112:Device/Src/current.c **** 	for (i = 0; i < 24; i++) {
 359              		.loc 1 112 22 is_stmt 1 discriminator 2 view .LVU75
 360              		.loc 1 112 23 is_stmt 0 discriminator 2 view .LVU76
 361 0056 0134     		adds	r4, r4, #1
 362              	.LVL23:
 363              	.L36:
 364              		.loc 1 112 14 is_stmt 1 discriminator 1 view .LVU77
 365              		.loc 1 112 2 is_stmt 0 discriminator 1 view .LVU78
 366 0058 172C     		cmp	r4, #23
 367 005a 08DC     		bgt	.L40
 113:Device/Src/current.c **** 		CS1237OneClock();
 368              		.loc 1 113 3 is_stmt 1 view .LVU79
 369 005c FFF7FEFF 		bl	CS1237OneClock
 370              	.LVL24:
 114:Device/Src/current.c **** 		voltage <<= 1;
 371              		.loc 1 114 3 view .LVU80
 372              		.loc 1 114 11 is_stmt 0 view .LVU81
 373 0060 6D00     		lsls	r5, r5, #1
 374              	.LVL25:
 115:Device/Src/current.c **** 		if (adc_read_din()) { voltage += 1; }
 375              		.loc 1 115 3 is_stmt 1 view .LVU82
 376              		.loc 1 115 7 is_stmt 0 view .LVU83
 377 0062 FFF7FEFF 		bl	adc_read_din
 378              	.LVL26:
 379              		.loc 1 115 6 view .LVU84
 380 0066 0028     		cmp	r0, #0
 381 0068 F5D0     		beq	.L37
 382              		.loc 1 115 25 is_stmt 1 discriminator 1 view .LVU85
 383              		.loc 1 115 33 is_stmt 0 discriminator 1 view .LVU86
 384 006a 0135     		adds	r5, r5, #1
 385              	.LVL27:
 386              		.loc 1 115 33 discriminator 1 view .LVU87
 387 006c F3E7     		b	.L37
 388              	.L40:
 116:Device/Src/current.c **** 	}
 117:Device/Src/current.c **** 	adc_clk_l();
 389              		.loc 1 117 2 is_stmt 1 view .LVU88
 390 006e FFF7FEFF 		bl	adc_clk_l
 391              	.LVL28:
 118:Device/Src/current.c **** 	return voltage;
 392              		.loc 1 118 2 view .LVU89
 119:Device/Src/current.c **** }
ARM GAS  C:\Users\86158\AppData\Local\Temp\ccWOFplP.s 			page 10


 393              		.loc 1 119 1 is_stmt 0 view .LVU90
 394 0072 2846     		mov	r0, r5
 395 0074 07B0     		add	sp, sp, #28
 396              	.LCFI8:
 397              		.cfi_def_cfa_offset 12
 398              		@ sp needed
 399 0076 30BD     		pop	{r4, r5, pc}
 400              	.LVL29:
 401              	.L42:
 402              		.loc 1 119 1 view .LVU91
 403              		.align	2
 404              	.L41:
 405 0078 00080240 		.word	1073874944
 406              		.cfi_endproc
 407              	.LFE244:
 409              		.section	.text.CS1237Current,"ax",%progbits
 410              		.align	1
 411              		.global	CS1237Current
 412              		.syntax unified
 413              		.thumb
 414              		.thumb_func
 416              	CS1237Current:
 417              	.LFB245:
 120:Device/Src/current.c **** 
 121:Device/Src/current.c **** float CS1237Current(void)
 122:Device/Src/current.c **** {
 418              		.loc 1 122 1 is_stmt 1 view -0
 419              		.cfi_startproc
 420              		@ args = 0, pretend = 0, frame = 24
 421              		@ frame_needed = 0, uses_anonymous_args = 0
 422 0000 10B5     		push	{r4, lr}
 423              	.LCFI9:
 424              		.cfi_def_cfa_offset 8
 425              		.cfi_offset 4, -8
 426              		.cfi_offset 14, -4
 427 0002 86B0     		sub	sp, sp, #24
 428              	.LCFI10:
 429              		.cfi_def_cfa_offset 32
 123:Device/Src/current.c **** 	#define TEST_NUMBER  5
 124:Device/Src/current.c **** 	long voltage;
 430              		.loc 1 124 2 view .LVU93
 125:Device/Src/current.c **** 	float current[TEST_NUMBER] = {0};
 431              		.loc 1 125 2 view .LVU94
 432              		.loc 1 125 8 is_stmt 0 view .LVU95
 433 0004 0024     		movs	r4, #0
 434 0006 0194     		str	r4, [sp, #4]
 435 0008 0294     		str	r4, [sp, #8]
 436 000a 0394     		str	r4, [sp, #12]
 437 000c 0494     		str	r4, [sp, #16]
 438 000e 0594     		str	r4, [sp, #20]
 126:Device/Src/current.c **** 	int i, j;
 439              		.loc 1 126 2 is_stmt 1 view .LVU96
 127:Device/Src/current.c **** 	float result, min;
 440              		.loc 1 127 2 view .LVU97
 128:Device/Src/current.c **** 	for (i = 0; i < TEST_NUMBER; i++) {
 441              		.loc 1 128 2 view .LVU98
 442              	.LVL30:
ARM GAS  C:\Users\86158\AppData\Local\Temp\ccWOFplP.s 			page 11


 443              		.loc 1 128 2 is_stmt 0 view .LVU99
 444 0010 19E0     		b	.L44
 445              	.LVL31:
 446              	.L45:
 129:Device/Src/current.c **** 		HAL_Delay(4);
 130:Device/Src/current.c **** 		voltage = CS1237Voltage();
 131:Device/Src/current.c **** 		if (voltage >= 8388608L) {
 132:Device/Src/current.c **** 			voltage = voltage - 16777216L;
 133:Device/Src/current.c **** 		}
 134:Device/Src/current.c **** 		current[i] = (float)voltage * VOLTAGE_REF * SAMPLING_RESISTOR / MEASRUE_VGA / 16777216L ;
 447              		.loc 1 134 3 is_stmt 1 discriminator 2 view .LVU100
 448              		.loc 1 134 16 is_stmt 0 discriminator 2 view .LVU101
 449 0012 07EE900A 		vmov	s15, r0	@ int
 450 0016 F8EEE77A 		vcvt.f32.s32	s15, s15
 451              		.loc 1 134 31 discriminator 2 view .LVU102
 452 001a 9FED307A 		vldr.32	s14, .L60
 453 001e 67EE877A 		vmul.f32	s15, s15, s14
 454              		.loc 1 134 45 discriminator 2 view .LVU103
 455 0022 9FED2F7A 		vldr.32	s14, .L60+4
 456 0026 67EE877A 		vmul.f32	s15, s15, s14
 457              		.loc 1 134 65 discriminator 2 view .LVU104
 458 002a 9FED2E7A 		vldr.32	s14, .L60+8
 459 002e 67EE877A 		vmul.f32	s15, s15, s14
 460              		.loc 1 134 79 discriminator 2 view .LVU105
 461 0032 9FED2D7A 		vldr.32	s14, .L60+12
 462 0036 67EE877A 		vmul.f32	s15, s15, s14
 463              		.loc 1 134 14 discriminator 2 view .LVU106
 464 003a 06AB     		add	r3, sp, #24
 465 003c 03EB8403 		add	r3, r3, r4, lsl #2
 466 0040 43ED057A 		vstr.32	s15, [r3, #-20]
 128:Device/Src/current.c **** 	for (i = 0; i < TEST_NUMBER; i++) {
 467              		.loc 1 128 31 is_stmt 1 discriminator 2 view .LVU107
 128:Device/Src/current.c **** 	for (i = 0; i < TEST_NUMBER; i++) {
 468              		.loc 1 128 32 is_stmt 0 discriminator 2 view .LVU108
 469 0044 0134     		adds	r4, r4, #1
 470              	.LVL32:
 471              	.L44:
 128:Device/Src/current.c **** 	for (i = 0; i < TEST_NUMBER; i++) {
 472              		.loc 1 128 14 is_stmt 1 discriminator 1 view .LVU109
 128:Device/Src/current.c **** 	for (i = 0; i < TEST_NUMBER; i++) {
 473              		.loc 1 128 2 is_stmt 0 discriminator 1 view .LVU110
 474 0046 042C     		cmp	r4, #4
 475 0048 0ADC     		bgt	.L57
 129:Device/Src/current.c **** 		HAL_Delay(4);
 476              		.loc 1 129 3 is_stmt 1 view .LVU111
 477 004a 0420     		movs	r0, #4
 478 004c FFF7FEFF 		bl	HAL_Delay
 479              	.LVL33:
 130:Device/Src/current.c **** 		if (voltage >= 8388608L) {
 480              		.loc 1 130 3 view .LVU112
 130:Device/Src/current.c **** 		if (voltage >= 8388608L) {
 481              		.loc 1 130 13 is_stmt 0 view .LVU113
 482 0050 FFF7FEFF 		bl	CS1237Voltage
 483              	.LVL34:
 131:Device/Src/current.c **** 			voltage = voltage - 16777216L;
 484              		.loc 1 131 3 is_stmt 1 view .LVU114
 131:Device/Src/current.c **** 			voltage = voltage - 16777216L;
ARM GAS  C:\Users\86158\AppData\Local\Temp\ccWOFplP.s 			page 12


 485              		.loc 1 131 6 is_stmt 0 view .LVU115
 486 0054 B0F5000F 		cmp	r0, #8388608
 487 0058 DBDB     		blt	.L45
 132:Device/Src/current.c **** 		}
 488              		.loc 1 132 4 is_stmt 1 view .LVU116
 132:Device/Src/current.c **** 		}
 489              		.loc 1 132 12 is_stmt 0 view .LVU117
 490 005a 00F17F40 		add	r0, r0, #-16777216
 491              	.LVL35:
 132:Device/Src/current.c **** 		}
 492              		.loc 1 132 12 view .LVU118
 493 005e D8E7     		b	.L45
 494              	.LVL36:
 495              	.L57:
 135:Device/Src/current.c **** 	}
 136:Device/Src/current.c **** 	for (i = 0; i < TEST_NUMBER; i++) {
 496              		.loc 1 136 9 view .LVU119
 497 0060 0021     		movs	r1, #0
 498 0062 1CE0     		b	.L47
 499              	.LVL37:
 500              	.L49:
 137:Device/Src/current.c **** 		min = current[i];
 138:Device/Src/current.c **** 		for (j = i + 1; j < TEST_NUMBER; j++) {
 501              		.loc 1 138 36 is_stmt 1 discriminator 2 view .LVU120
 502              		.loc 1 138 37 is_stmt 0 discriminator 2 view .LVU121
 503 0064 0133     		adds	r3, r3, #1
 504              	.LVL38:
 505              	.L48:
 506              		.loc 1 138 19 is_stmt 1 discriminator 1 view .LVU122
 507              		.loc 1 138 3 is_stmt 0 discriminator 1 view .LVU123
 508 0066 042B     		cmp	r3, #4
 509 0068 18DC     		bgt	.L58
 139:Device/Src/current.c **** 			if (current[j] < min) {
 510              		.loc 1 139 4 is_stmt 1 view .LVU124
 511              		.loc 1 139 15 is_stmt 0 view .LVU125
 512 006a 06AA     		add	r2, sp, #24
 513 006c 02EB8302 		add	r2, r2, r3, lsl #2
 514 0070 52ED057A 		vldr.32	s15, [r2, #-20]
 515              		.loc 1 139 7 view .LVU126
 516 0074 F4EEC77A 		vcmpe.f32	s15, s14
 517 0078 F1EE10FA 		vmrs	APSR_nzcv, FPSCR
 518 007c F2D5     		bpl	.L49
 140:Device/Src/current.c **** 				min = current[j];
 519              		.loc 1 140 5 is_stmt 1 view .LVU127
 520              	.LVL39:
 141:Device/Src/current.c **** 				current[j] = current[i];
 521              		.loc 1 141 5 view .LVU128
 522              		.loc 1 141 25 is_stmt 0 view .LVU129
 523 007e 06AA     		add	r2, sp, #24
 524 0080 02EB8102 		add	r2, r2, r1, lsl #2
 525 0084 52F8144C 		ldr	r4, [r2, #-20]	@ float
 526              		.loc 1 141 16 view .LVU130
 527 0088 06A8     		add	r0, sp, #24
 528 008a 00EB8300 		add	r0, r0, r3, lsl #2
 529 008e 40F8144C 		str	r4, [r0, #-20]	@ float
 142:Device/Src/current.c **** 				current[i] = min;
 530              		.loc 1 142 5 is_stmt 1 view .LVU131
ARM GAS  C:\Users\86158\AppData\Local\Temp\ccWOFplP.s 			page 13


 531              		.loc 1 142 16 is_stmt 0 view .LVU132
 532 0092 42ED057A 		vstr.32	s15, [r2, #-20]
 140:Device/Src/current.c **** 				min = current[j];
 533              		.loc 1 140 9 view .LVU133
 534 0096 B0EE677A 		vmov.f32	s14, s15
 535 009a E3E7     		b	.L49
 536              	.LVL40:
 537              	.L58:
 136:Device/Src/current.c **** 		min = current[i];
 538              		.loc 1 136 32 view .LVU134
 539 009c 6146     		mov	r1, ip
 540              	.LVL41:
 541              	.L47:
 136:Device/Src/current.c **** 		min = current[i];
 542              		.loc 1 136 14 is_stmt 1 discriminator 1 view .LVU135
 136:Device/Src/current.c **** 		min = current[i];
 543              		.loc 1 136 2 is_stmt 0 discriminator 1 view .LVU136
 544 009e 0429     		cmp	r1, #4
 545 00a0 08DC     		bgt	.L59
 137:Device/Src/current.c **** 		for (j = i + 1; j < TEST_NUMBER; j++) {
 546              		.loc 1 137 3 is_stmt 1 view .LVU137
 137:Device/Src/current.c **** 		for (j = i + 1; j < TEST_NUMBER; j++) {
 547              		.loc 1 137 7 is_stmt 0 view .LVU138
 548 00a2 06AB     		add	r3, sp, #24
 549 00a4 03EB8103 		add	r3, r3, r1, lsl #2
 550 00a8 13ED057A 		vldr.32	s14, [r3, #-20]
 551              	.LVL42:
 138:Device/Src/current.c **** 			if (current[j] < min) {
 552              		.loc 1 138 3 is_stmt 1 view .LVU139
 138:Device/Src/current.c **** 			if (current[j] < min) {
 553              		.loc 1 138 10 is_stmt 0 view .LVU140
 554 00ac 01F1010C 		add	ip, r1, #1
 555              	.LVL43:
 138:Device/Src/current.c **** 			if (current[j] < min) {
 556              		.loc 1 138 10 view .LVU141
 557 00b0 6346     		mov	r3, ip
 138:Device/Src/current.c **** 			if (current[j] < min) {
 558              		.loc 1 138 3 view .LVU142
 559 00b2 D8E7     		b	.L48
 560              	.LVL44:
 561              	.L59:
 143:Device/Src/current.c **** 			}
 144:Device/Src/current.c **** 		}
 145:Device/Src/current.c **** 	}
 146:Device/Src/current.c **** 	result = 0;
 562              		.loc 1 146 9 view .LVU143
 563 00b4 DFED0D7A 		vldr.32	s15, .L60+16
 147:Device/Src/current.c **** 	for (i = 1; i < TEST_NUMBER - 1; i++) {
 564              		.loc 1 147 9 view .LVU144
 565 00b8 0123     		movs	r3, #1
 566 00ba 07E0     		b	.L53
 567              	.LVL45:
 568              	.L54:
 148:Device/Src/current.c **** 		result += current[i];
 569              		.loc 1 148 3 is_stmt 1 discriminator 3 view .LVU145
 570              		.loc 1 148 20 is_stmt 0 discriminator 3 view .LVU146
 571 00bc 06AA     		add	r2, sp, #24
ARM GAS  C:\Users\86158\AppData\Local\Temp\ccWOFplP.s 			page 14


 572 00be 02EB8302 		add	r2, r2, r3, lsl #2
 573 00c2 12ED057A 		vldr.32	s14, [r2, #-20]
 574              		.loc 1 148 10 discriminator 3 view .LVU147
 575 00c6 77EE877A 		vadd.f32	s15, s15, s14
 576              	.LVL46:
 147:Device/Src/current.c **** 	for (i = 1; i < TEST_NUMBER - 1; i++) {
 577              		.loc 1 147 35 is_stmt 1 discriminator 3 view .LVU148
 147:Device/Src/current.c **** 	for (i = 1; i < TEST_NUMBER - 1; i++) {
 578              		.loc 1 147 36 is_stmt 0 discriminator 3 view .LVU149
 579 00ca 0133     		adds	r3, r3, #1
 580              	.LVL47:
 581              	.L53:
 147:Device/Src/current.c **** 	for (i = 1; i < TEST_NUMBER - 1; i++) {
 582              		.loc 1 147 14 is_stmt 1 discriminator 1 view .LVU150
 147:Device/Src/current.c **** 	for (i = 1; i < TEST_NUMBER - 1; i++) {
 583              		.loc 1 147 2 is_stmt 0 discriminator 1 view .LVU151
 584 00cc 032B     		cmp	r3, #3
 585 00ce F5DD     		ble	.L54
 149:Device/Src/current.c **** 	}
 150:Device/Src/current.c **** 	return result / (TEST_NUMBER - 2);
 586              		.loc 1 150 2 is_stmt 1 view .LVU152
 151:Device/Src/current.c **** }
 587              		.loc 1 151 1 is_stmt 0 view .LVU153
 588 00d0 B0EE080A 		vmov.f32	s0, #3.0e+0
 589 00d4 87EE800A 		vdiv.f32	s0, s15, s0
 590 00d8 06B0     		add	sp, sp, #24
 591              	.LCFI11:
 592              		.cfi_def_cfa_offset 8
 593              		@ sp needed
 594 00da 10BD     		pop	{r4, pc}
 595              	.L61:
 596              		.align	2
 597              	.L60:
 598 00dc 00401C45 		.word	1159479296
 599 00e0 00007A44 		.word	1148846080
 600 00e4 0000003C 		.word	1006632960
 601 00e8 00008033 		.word	864026624
 602 00ec 00000000 		.word	0
 603              		.cfi_endproc
 604              	.LFE245:
 606              		.section	.text.CS1237ReadConfig,"ax",%progbits
 607              		.align	1
 608              		.global	CS1237ReadConfig
 609              		.syntax unified
 610              		.thumb
 611              		.thumb_func
 613              	CS1237ReadConfig:
 614              	.LFB246:
 152:Device/Src/current.c **** 
 153:Device/Src/current.c **** unsigned char CS1237ReadConfig(void)
 154:Device/Src/current.c **** {
 615              		.loc 1 154 1 is_stmt 1 view -0
 616              		.cfi_startproc
 617              		@ args = 0, pretend = 0, frame = 24
 618              		@ frame_needed = 0, uses_anonymous_args = 0
 619 0000 30B5     		push	{r4, r5, lr}
 620              	.LCFI12:
ARM GAS  C:\Users\86158\AppData\Local\Temp\ccWOFplP.s 			page 15


 621              		.cfi_def_cfa_offset 12
 622              		.cfi_offset 4, -12
 623              		.cfi_offset 5, -8
 624              		.cfi_offset 14, -4
 625 0002 87B0     		sub	sp, sp, #28
 626              	.LCFI13:
 627              		.cfi_def_cfa_offset 40
 155:Device/Src/current.c **** 	int i = 0;
 628              		.loc 1 155 2 view .LVU155
 629              	.LVL48:
 156:Device/Src/current.c **** 	uint32_t time;		
 630              		.loc 1 156 2 view .LVU156
 157:Device/Src/current.c **** 	unsigned char readBuffer = 0;
 631              		.loc 1 157 2 view .LVU157
 158:Device/Src/current.c **** 	unsigned char cmdWrite;
 632              		.loc 1 158 2 view .LVU158
 159:Device/Src/current.c **** 	adc_clk_l();
 633              		.loc 1 159 2 view .LVU159
 634 0004 FFF7FEFF 		bl	adc_clk_l
 635              	.LVL49:
 160:Device/Src/current.c **** 	adc_sda_in();
 636              		.loc 1 160 2 view .LVU160
 637              	.LBB14:
 638              	.LBI14:
  48:Device/Src/current.c **** {
 639              		.loc 1 48 20 view .LVU161
 640              	.LBB15:
  51:Device/Src/current.c **** 	GPIO_InitStruct.Pin = GPIO_PIN_14;
 641              		.loc 1 51 4 view .LVU162
  51:Device/Src/current.c **** 	GPIO_InitStruct.Pin = GPIO_PIN_14;
 642              		.loc 1 51 21 is_stmt 0 view .LVU163
 643 0008 0023     		movs	r3, #0
 644 000a 0193     		str	r3, [sp, #4]
 645 000c 0293     		str	r3, [sp, #8]
 646 000e 0393     		str	r3, [sp, #12]
 647 0010 0493     		str	r3, [sp, #16]
 648 0012 0593     		str	r3, [sp, #20]
  52:Device/Src/current.c **** 	GPIO_InitStruct.Mode = GPIO_MODE_INPUT;
 649              		.loc 1 52 2 is_stmt 1 view .LVU164
  52:Device/Src/current.c **** 	GPIO_InitStruct.Mode = GPIO_MODE_INPUT;
 650              		.loc 1 52 22 is_stmt 0 view .LVU165
 651 0014 4FF48043 		mov	r3, #16384
 652 0018 0193     		str	r3, [sp, #4]
  53:Device/Src/current.c **** 	GPIO_InitStruct.Pull = GPIO_PULLUP;
 653              		.loc 1 53 2 is_stmt 1 view .LVU166
  54:Device/Src/current.c **** 	GPIO_InitStruct.Speed = GPIO_SPEED_FREQ_LOW;
 654              		.loc 1 54 2 view .LVU167
  54:Device/Src/current.c **** 	GPIO_InitStruct.Speed = GPIO_SPEED_FREQ_LOW;
 655              		.loc 1 54 23 is_stmt 0 view .LVU168
 656 001a 0123     		movs	r3, #1
 657 001c 0393     		str	r3, [sp, #12]
  55:Device/Src/current.c **** 	HAL_GPIO_Init(GPIOC, &GPIO_InitStruct);
 658              		.loc 1 55 2 is_stmt 1 view .LVU169
  56:Device/Src/current.c **** }
 659              		.loc 1 56 2 view .LVU170
 660 001e 01A9     		add	r1, sp, #4
 661 0020 4048     		ldr	r0, .L81
ARM GAS  C:\Users\86158\AppData\Local\Temp\ccWOFplP.s 			page 16


 662 0022 FFF7FEFF 		bl	HAL_GPIO_Init
 663              	.LVL50:
 664              	.LBE15:
 665              	.LBE14:
 161:Device/Src/current.c **** 	time = HAL_GetTick();
 666              		.loc 1 161 2 view .LVU171
 667              		.loc 1 161 9 is_stmt 0 view .LVU172
 668 0026 FFF7FEFF 		bl	HAL_GetTick
 669              	.LVL51:
 670 002a 0446     		mov	r4, r0
 671              	.LVL52:
 162:Device/Src/current.c **** 	while (!adc_read_din()) { 
 672              		.loc 1 162 2 is_stmt 1 view .LVU173
 673              	.L63:
 674              		.loc 1 162 8 view .LVU174
 675              		.loc 1 162 10 is_stmt 0 view .LVU175
 676 002c FFF7FEFF 		bl	adc_read_din
 677              	.LVL53:
 678              		.loc 1 162 8 view .LVU176
 679 0030 28B9     		cbnz	r0, .L67
 163:Device/Src/current.c **** 		if (HAL_GetTick() > time + 100) { break;}
 680              		.loc 1 163 3 is_stmt 1 view .LVU177
 681              		.loc 1 163 7 is_stmt 0 view .LVU178
 682 0032 FFF7FEFF 		bl	HAL_GetTick
 683              	.LVL54:
 684              		.loc 1 163 28 view .LVU179
 685 0036 04F16403 		add	r3, r4, #100
 686              		.loc 1 163 6 view .LVU180
 687 003a 9842     		cmp	r0, r3
 688 003c F6D9     		bls	.L63
 689              	.L67:
 164:Device/Src/current.c **** 	}
 165:Device/Src/current.c **** 	while (adc_read_din()) { 
 690              		.loc 1 165 8 is_stmt 1 view .LVU181
 691              		.loc 1 165 9 is_stmt 0 view .LVU182
 692 003e FFF7FEFF 		bl	adc_read_din
 693              	.LVL55:
 694              		.loc 1 165 8 view .LVU183
 695 0042 28B1     		cbz	r0, .L66
 166:Device/Src/current.c **** 		if (HAL_GetTick() > time + 100) { break;}
 696              		.loc 1 166 3 is_stmt 1 view .LVU184
 697              		.loc 1 166 7 is_stmt 0 view .LVU185
 698 0044 FFF7FEFF 		bl	HAL_GetTick
 699              	.LVL56:
 700              		.loc 1 166 28 view .LVU186
 701 0048 04F16403 		add	r3, r4, #100
 702              		.loc 1 166 6 view .LVU187
 703 004c 9842     		cmp	r0, r3
 704 004e F6D9     		bls	.L67
 705              	.L66:
 154:Device/Src/current.c **** 	int i = 0;
 706              		.loc 1 154 1 discriminator 1 view .LVU188
 707 0050 0024     		movs	r4, #0
 708              	.LVL57:
 154:Device/Src/current.c **** 	int i = 0;
 709              		.loc 1 154 1 discriminator 1 view .LVU189
 710 0052 02E0     		b	.L69
ARM GAS  C:\Users\86158\AppData\Local\Temp\ccWOFplP.s 			page 17


 711              	.LVL58:
 712              	.L70:
 167:Device/Src/current.c **** 	}
 168:Device/Src/current.c **** 	for (i = 0; i < 27; i++) {
 169:Device/Src/current.c **** 		CS1237OneClock();
 713              		.loc 1 169 3 is_stmt 1 discriminator 3 view .LVU190
 714 0054 FFF7FEFF 		bl	CS1237OneClock
 715              	.LVL59:
 168:Device/Src/current.c **** 		CS1237OneClock();
 716              		.loc 1 168 22 discriminator 3 view .LVU191
 168:Device/Src/current.c **** 		CS1237OneClock();
 717              		.loc 1 168 23 is_stmt 0 discriminator 3 view .LVU192
 718 0058 0134     		adds	r4, r4, #1
 719              	.LVL60:
 720              	.L69:
 168:Device/Src/current.c **** 		CS1237OneClock();
 721              		.loc 1 168 14 is_stmt 1 discriminator 1 view .LVU193
 168:Device/Src/current.c **** 		CS1237OneClock();
 722              		.loc 1 168 2 is_stmt 0 discriminator 1 view .LVU194
 723 005a 1A2C     		cmp	r4, #26
 724 005c FADD     		ble	.L70
 170:Device/Src/current.c **** 	}
 171:Device/Src/current.c **** 	adc_sda_out();
 725              		.loc 1 171 2 is_stmt 1 view .LVU195
 726              	.LBB16:
 727              	.LBI16:
  63:Device/Src/current.c **** {
 728              		.loc 1 63 20 view .LVU196
 729              	.LBB17:
  66:Device/Src/current.c **** 	GPIO_InitStruct.Pin = GPIO_PIN_14;
 730              		.loc 1 66 4 view .LVU197
  66:Device/Src/current.c **** 	GPIO_InitStruct.Pin = GPIO_PIN_14;
 731              		.loc 1 66 21 is_stmt 0 view .LVU198
 732 005e 0025     		movs	r5, #0
 733 0060 0195     		str	r5, [sp, #4]
 734 0062 0295     		str	r5, [sp, #8]
 735 0064 0395     		str	r5, [sp, #12]
 736 0066 0495     		str	r5, [sp, #16]
 737 0068 0595     		str	r5, [sp, #20]
  67:Device/Src/current.c **** 	GPIO_InitStruct.Mode = GPIO_MODE_OUTPUT_OD;
 738              		.loc 1 67 2 is_stmt 1 view .LVU199
  67:Device/Src/current.c **** 	GPIO_InitStruct.Mode = GPIO_MODE_OUTPUT_OD;
 739              		.loc 1 67 22 is_stmt 0 view .LVU200
 740 006a 4FF48043 		mov	r3, #16384
 741 006e 0193     		str	r3, [sp, #4]
  68:Device/Src/current.c **** 	GPIO_InitStruct.Pull = GPIO_PULLUP;
 742              		.loc 1 68 2 is_stmt 1 view .LVU201
  68:Device/Src/current.c **** 	GPIO_InitStruct.Pull = GPIO_PULLUP;
 743              		.loc 1 68 23 is_stmt 0 view .LVU202
 744 0070 1123     		movs	r3, #17
 745 0072 0293     		str	r3, [sp, #8]
  69:Device/Src/current.c **** 	GPIO_InitStruct.Speed = GPIO_SPEED_FREQ_LOW;
 746              		.loc 1 69 2 is_stmt 1 view .LVU203
  69:Device/Src/current.c **** 	GPIO_InitStruct.Speed = GPIO_SPEED_FREQ_LOW;
 747              		.loc 1 69 23 is_stmt 0 view .LVU204
 748 0074 0123     		movs	r3, #1
 749 0076 0393     		str	r3, [sp, #12]
ARM GAS  C:\Users\86158\AppData\Local\Temp\ccWOFplP.s 			page 18


  70:Device/Src/current.c **** 	HAL_GPIO_Init(GPIOC, &GPIO_InitStruct);
 750              		.loc 1 70 2 is_stmt 1 view .LVU205
  71:Device/Src/current.c ****   
 751              		.loc 1 71 2 view .LVU206
 752 0078 01A9     		add	r1, sp, #4
 753 007a 2A48     		ldr	r0, .L81
 754 007c FFF7FEFF 		bl	HAL_GPIO_Init
 755              	.LVL61:
 756              	.LBE17:
 757              	.LBE16:
 172:Device/Src/current.c **** 	adc_dout_h();
 758              		.loc 1 172 2 view .LVU207
 759 0080 FFF7FEFF 		bl	adc_dout_h
 760              	.LVL62:
 173:Device/Src/current.c **** 	CS1237OneClock();
 761              		.loc 1 173 2 view .LVU208
 762 0084 FFF7FEFF 		bl	CS1237OneClock
 763              	.LVL63:
 174:Device/Src/current.c **** 	CS1237OneClock();
 764              		.loc 1 174 2 view .LVU209
 765 0088 FFF7FEFF 		bl	CS1237OneClock
 766              	.LVL64:
 175:Device/Src/current.c **** 	cmdWrite = 0x56;
 767              		.loc 1 175 2 view .LVU210
 176:Device/Src/current.c **** 	for (i = 0; i < 7; i++) {
 768              		.loc 1 176 2 view .LVU211
 175:Device/Src/current.c **** 	cmdWrite = 0x56;
 769              		.loc 1 175 11 is_stmt 0 view .LVU212
 770 008c 5624     		movs	r4, #86
 771              		.loc 1 176 2 view .LVU213
 772 008e 06E0     		b	.L71
 773              	.LVL65:
 774              	.L72:
 177:Device/Src/current.c **** 		if (cmdWrite & 0x40) { 
 178:Device/Src/current.c **** 			adc_dout_h();
 179:Device/Src/current.c **** 		} else {
 180:Device/Src/current.c **** 			adc_dout_l();
 775              		.loc 1 180 4 is_stmt 1 view .LVU214
 776 0090 FFF7FEFF 		bl	adc_dout_l
 777              	.LVL66:
 778              	.L73:
 181:Device/Src/current.c **** 		}
 182:Device/Src/current.c **** 		CS1237OneClock();
 779              		.loc 1 182 3 discriminator 2 view .LVU215
 780 0094 FFF7FEFF 		bl	CS1237OneClock
 781              	.LVL67:
 183:Device/Src/current.c **** 		cmdWrite <<= 1;
 782              		.loc 1 183 3 discriminator 2 view .LVU216
 783              		.loc 1 183 12 is_stmt 0 discriminator 2 view .LVU217
 784 0098 6400     		lsls	r4, r4, #1
 785              	.LVL68:
 786              		.loc 1 183 12 discriminator 2 view .LVU218
 787 009a E4B2     		uxtb	r4, r4
 788              	.LVL69:
 176:Device/Src/current.c **** 		if (cmdWrite & 0x40) { 
 789              		.loc 1 176 21 is_stmt 1 discriminator 2 view .LVU219
 176:Device/Src/current.c **** 		if (cmdWrite & 0x40) { 
ARM GAS  C:\Users\86158\AppData\Local\Temp\ccWOFplP.s 			page 19


 790              		.loc 1 176 22 is_stmt 0 discriminator 2 view .LVU220
 791 009c 0135     		adds	r5, r5, #1
 792              	.LVL70:
 793              	.L71:
 176:Device/Src/current.c **** 		if (cmdWrite & 0x40) { 
 794              		.loc 1 176 14 is_stmt 1 discriminator 1 view .LVU221
 176:Device/Src/current.c **** 		if (cmdWrite & 0x40) { 
 795              		.loc 1 176 2 is_stmt 0 discriminator 1 view .LVU222
 796 009e 062D     		cmp	r5, #6
 797 00a0 05DC     		bgt	.L79
 177:Device/Src/current.c **** 			adc_dout_h();
 798              		.loc 1 177 3 is_stmt 1 view .LVU223
 177:Device/Src/current.c **** 			adc_dout_h();
 799              		.loc 1 177 6 is_stmt 0 view .LVU224
 800 00a2 14F0400F 		tst	r4, #64
 801 00a6 F3D0     		beq	.L72
 178:Device/Src/current.c **** 		} else {
 802              		.loc 1 178 4 is_stmt 1 view .LVU225
 803 00a8 FFF7FEFF 		bl	adc_dout_h
 804              	.LVL71:
 805 00ac F2E7     		b	.L73
 806              	.L79:
 184:Device/Src/current.c **** 	}
 185:Device/Src/current.c **** 	adc_dout_h();
 807              		.loc 1 185 2 view .LVU226
 808 00ae FFF7FEFF 		bl	adc_dout_h
 809              	.LVL72:
 186:Device/Src/current.c **** 	adc_sda_in();
 810              		.loc 1 186 2 view .LVU227
 811              	.LBB18:
 812              	.LBI18:
  48:Device/Src/current.c **** {
 813              		.loc 1 48 20 view .LVU228
 814              	.LBB19:
  51:Device/Src/current.c **** 	GPIO_InitStruct.Pin = GPIO_PIN_14;
 815              		.loc 1 51 4 view .LVU229
  51:Device/Src/current.c **** 	GPIO_InitStruct.Pin = GPIO_PIN_14;
 816              		.loc 1 51 21 is_stmt 0 view .LVU230
 817 00b2 0025     		movs	r5, #0
 818              	.LVL73:
  51:Device/Src/current.c **** 	GPIO_InitStruct.Pin = GPIO_PIN_14;
 819              		.loc 1 51 21 view .LVU231
 820 00b4 0195     		str	r5, [sp, #4]
 821 00b6 0295     		str	r5, [sp, #8]
 822 00b8 0395     		str	r5, [sp, #12]
 823 00ba 0495     		str	r5, [sp, #16]
 824 00bc 0595     		str	r5, [sp, #20]
  52:Device/Src/current.c **** 	GPIO_InitStruct.Mode = GPIO_MODE_INPUT;
 825              		.loc 1 52 2 is_stmt 1 view .LVU232
  52:Device/Src/current.c **** 	GPIO_InitStruct.Mode = GPIO_MODE_INPUT;
 826              		.loc 1 52 22 is_stmt 0 view .LVU233
 827 00be 4FF48043 		mov	r3, #16384
 828 00c2 0193     		str	r3, [sp, #4]
  53:Device/Src/current.c **** 	GPIO_InitStruct.Pull = GPIO_PULLUP;
 829              		.loc 1 53 2 is_stmt 1 view .LVU234
  54:Device/Src/current.c **** 	GPIO_InitStruct.Speed = GPIO_SPEED_FREQ_LOW;
 830              		.loc 1 54 2 view .LVU235
ARM GAS  C:\Users\86158\AppData\Local\Temp\ccWOFplP.s 			page 20


  54:Device/Src/current.c **** 	GPIO_InitStruct.Speed = GPIO_SPEED_FREQ_LOW;
 831              		.loc 1 54 23 is_stmt 0 view .LVU236
 832 00c4 0123     		movs	r3, #1
 833 00c6 0393     		str	r3, [sp, #12]
  55:Device/Src/current.c **** 	HAL_GPIO_Init(GPIOC, &GPIO_InitStruct);
 834              		.loc 1 55 2 is_stmt 1 view .LVU237
  56:Device/Src/current.c **** }
 835              		.loc 1 56 2 view .LVU238
 836 00c8 01A9     		add	r1, sp, #4
 837 00ca 1648     		ldr	r0, .L81
 838 00cc FFF7FEFF 		bl	HAL_GPIO_Init
 839              	.LVL74:
 840              	.LBE19:
 841              	.LBE18:
 187:Device/Src/current.c **** 	CS1237OneClock();
 842              		.loc 1 187 2 view .LVU239
 843 00d0 FFF7FEFF 		bl	CS1237OneClock
 844              	.LVL75:
 188:Device/Src/current.c **** 	readBuffer = 0;
 845              		.loc 1 188 2 view .LVU240
 189:Device/Src/current.c **** 	for (i = 0; i < 8; i++) {
 846              		.loc 1 189 2 view .LVU241
 188:Device/Src/current.c **** 	readBuffer = 0;
 847              		.loc 1 188 13 is_stmt 0 view .LVU242
 848 00d4 2C46     		mov	r4, r5
 849              	.LVL76:
 850              		.loc 1 189 2 view .LVU243
 851 00d6 00E0     		b	.L75
 852              	.LVL77:
 853              	.L76:
 854              		.loc 1 189 21 is_stmt 1 discriminator 2 view .LVU244
 855              		.loc 1 189 22 is_stmt 0 discriminator 2 view .LVU245
 856 00d8 0135     		adds	r5, r5, #1
 857              	.LVL78:
 858              	.L75:
 859              		.loc 1 189 14 is_stmt 1 discriminator 1 view .LVU246
 860              		.loc 1 189 2 is_stmt 0 discriminator 1 view .LVU247
 861 00da 072D     		cmp	r5, #7
 862 00dc 0ADC     		bgt	.L80
 190:Device/Src/current.c **** 		CS1237OneClock();
 863              		.loc 1 190 3 is_stmt 1 view .LVU248
 864 00de FFF7FEFF 		bl	CS1237OneClock
 865              	.LVL79:
 191:Device/Src/current.c **** 		readBuffer <<= 1;
 866              		.loc 1 191 3 view .LVU249
 867              		.loc 1 191 14 is_stmt 0 view .LVU250
 868 00e2 6400     		lsls	r4, r4, #1
 869              	.LVL80:
 870              		.loc 1 191 14 view .LVU251
 871 00e4 E4B2     		uxtb	r4, r4
 872              	.LVL81:
 192:Device/Src/current.c **** 		if (adc_read_din()) { readBuffer += 1; }
 873              		.loc 1 192 3 is_stmt 1 view .LVU252
 874              		.loc 1 192 7 is_stmt 0 view .LVU253
 875 00e6 FFF7FEFF 		bl	adc_read_din
 876              	.LVL82:
 877              		.loc 1 192 6 view .LVU254
ARM GAS  C:\Users\86158\AppData\Local\Temp\ccWOFplP.s 			page 21


 878 00ea 0028     		cmp	r0, #0
 879 00ec F4D0     		beq	.L76
 880              		.loc 1 192 25 is_stmt 1 discriminator 1 view .LVU255
 881              		.loc 1 192 36 is_stmt 0 discriminator 1 view .LVU256
 882 00ee 0134     		adds	r4, r4, #1
 883              	.LVL83:
 884              		.loc 1 192 36 discriminator 1 view .LVU257
 885 00f0 E4B2     		uxtb	r4, r4
 886              	.LVL84:
 887              		.loc 1 192 36 discriminator 1 view .LVU258
 888 00f2 F1E7     		b	.L76
 889              	.L80:
 193:Device/Src/current.c **** 	}
 194:Device/Src/current.c **** 	adc_sda_out();
 890              		.loc 1 194 2 is_stmt 1 view .LVU259
 891              	.LBB20:
 892              	.LBI20:
  63:Device/Src/current.c **** {
 893              		.loc 1 63 20 view .LVU260
 894              	.LBB21:
  66:Device/Src/current.c **** 	GPIO_InitStruct.Pin = GPIO_PIN_14;
 895              		.loc 1 66 4 view .LVU261
  66:Device/Src/current.c **** 	GPIO_InitStruct.Pin = GPIO_PIN_14;
 896              		.loc 1 66 21 is_stmt 0 view .LVU262
 897 00f4 0023     		movs	r3, #0
 898 00f6 0193     		str	r3, [sp, #4]
 899 00f8 0293     		str	r3, [sp, #8]
 900 00fa 0393     		str	r3, [sp, #12]
 901 00fc 0493     		str	r3, [sp, #16]
 902 00fe 0593     		str	r3, [sp, #20]
  67:Device/Src/current.c **** 	GPIO_InitStruct.Mode = GPIO_MODE_OUTPUT_OD;
 903              		.loc 1 67 2 is_stmt 1 view .LVU263
  67:Device/Src/current.c **** 	GPIO_InitStruct.Mode = GPIO_MODE_OUTPUT_OD;
 904              		.loc 1 67 22 is_stmt 0 view .LVU264
 905 0100 4FF48043 		mov	r3, #16384
 906 0104 0193     		str	r3, [sp, #4]
  68:Device/Src/current.c **** 	GPIO_InitStruct.Pull = GPIO_PULLUP;
 907              		.loc 1 68 2 is_stmt 1 view .LVU265
  68:Device/Src/current.c **** 	GPIO_InitStruct.Pull = GPIO_PULLUP;
 908              		.loc 1 68 23 is_stmt 0 view .LVU266
 909 0106 1123     		movs	r3, #17
 910 0108 0293     		str	r3, [sp, #8]
  69:Device/Src/current.c **** 	GPIO_InitStruct.Speed = GPIO_SPEED_FREQ_LOW;
 911              		.loc 1 69 2 is_stmt 1 view .LVU267
  69:Device/Src/current.c **** 	GPIO_InitStruct.Speed = GPIO_SPEED_FREQ_LOW;
 912              		.loc 1 69 23 is_stmt 0 view .LVU268
 913 010a 0123     		movs	r3, #1
 914 010c 0393     		str	r3, [sp, #12]
  70:Device/Src/current.c **** 	HAL_GPIO_Init(GPIOC, &GPIO_InitStruct);
 915              		.loc 1 70 2 is_stmt 1 view .LVU269
  71:Device/Src/current.c ****   
 916              		.loc 1 71 2 view .LVU270
 917 010e 01A9     		add	r1, sp, #4
 918 0110 0448     		ldr	r0, .L81
 919 0112 FFF7FEFF 		bl	HAL_GPIO_Init
 920              	.LVL85:
 921              	.LBE21:
ARM GAS  C:\Users\86158\AppData\Local\Temp\ccWOFplP.s 			page 22


 922              	.LBE20:
 195:Device/Src/current.c **** 	adc_dout_h();
 923              		.loc 1 195 2 view .LVU271
 924 0116 FFF7FEFF 		bl	adc_dout_h
 925              	.LVL86:
 196:Device/Src/current.c **** 	CS1237OneClock();
 926              		.loc 1 196 2 view .LVU272
 927 011a FFF7FEFF 		bl	CS1237OneClock
 928              	.LVL87:
 197:Device/Src/current.c **** 	return readBuffer;
 929              		.loc 1 197 2 view .LVU273
 198:Device/Src/current.c **** }
 930              		.loc 1 198 1 is_stmt 0 view .LVU274
 931 011e 2046     		mov	r0, r4
 932 0120 07B0     		add	sp, sp, #28
 933              	.LCFI14:
 934              		.cfi_def_cfa_offset 12
 935              		@ sp needed
 936 0122 30BD     		pop	{r4, r5, pc}
 937              	.LVL88:
 938              	.L82:
 939              		.loc 1 198 1 view .LVU275
 940              		.align	2
 941              	.L81:
 942 0124 00080240 		.word	1073874944
 943              		.cfi_endproc
 944              	.LFE246:
 946              		.section	.text.CS1237WriteConfig,"ax",%progbits
 947              		.align	1
 948              		.global	CS1237WriteConfig
 949              		.syntax unified
 950              		.thumb
 951              		.thumb_func
 953              	CS1237WriteConfig:
 954              	.LVL89:
 955              	.LFB247:
 199:Device/Src/current.c **** 
 200:Device/Src/current.c **** void CS1237WriteConfig(unsigned char tem)
 201:Device/Src/current.c **** {
 956              		.loc 1 201 1 is_stmt 1 view -0
 957              		.cfi_startproc
 958              		@ args = 0, pretend = 0, frame = 24
 959              		@ frame_needed = 0, uses_anonymous_args = 0
 960              		.loc 1 201 1 is_stmt 0 view .LVU277
 961 0000 70B5     		push	{r4, r5, r6, lr}
 962              	.LCFI15:
 963              		.cfi_def_cfa_offset 16
 964              		.cfi_offset 4, -16
 965              		.cfi_offset 5, -12
 966              		.cfi_offset 6, -8
 967              		.cfi_offset 14, -4
 968 0002 86B0     		sub	sp, sp, #24
 969              	.LCFI16:
 970              		.cfi_def_cfa_offset 40
 971 0004 0546     		mov	r5, r0
 202:Device/Src/current.c **** 	int i = 0;
 972              		.loc 1 202 2 is_stmt 1 view .LVU278
ARM GAS  C:\Users\86158\AppData\Local\Temp\ccWOFplP.s 			page 23


 973              	.LVL90:
 203:Device/Src/current.c **** 	uint32_t time;
 974              		.loc 1 203 2 view .LVU279
 204:Device/Src/current.c **** 	unsigned char cmdWrite;
 975              		.loc 1 204 2 view .LVU280
 205:Device/Src/current.c **** 	adc_clk_l();
 976              		.loc 1 205 2 view .LVU281
 977 0006 FFF7FEFF 		bl	adc_clk_l
 978              	.LVL91:
 206:Device/Src/current.c **** 	adc_sda_in();
 979              		.loc 1 206 2 view .LVU282
 980              	.LBB26:
 981              	.LBI26:
  48:Device/Src/current.c **** {
 982              		.loc 1 48 20 view .LVU283
 983              	.LBB27:
  51:Device/Src/current.c **** 	GPIO_InitStruct.Pin = GPIO_PIN_14;
 984              		.loc 1 51 4 view .LVU284
  51:Device/Src/current.c **** 	GPIO_InitStruct.Pin = GPIO_PIN_14;
 985              		.loc 1 51 21 is_stmt 0 view .LVU285
 986 000a 0023     		movs	r3, #0
 987 000c 0193     		str	r3, [sp, #4]
 988 000e 0293     		str	r3, [sp, #8]
 989 0010 0393     		str	r3, [sp, #12]
 990 0012 0493     		str	r3, [sp, #16]
 991 0014 0593     		str	r3, [sp, #20]
  52:Device/Src/current.c **** 	GPIO_InitStruct.Mode = GPIO_MODE_INPUT;
 992              		.loc 1 52 2 is_stmt 1 view .LVU286
  52:Device/Src/current.c **** 	GPIO_InitStruct.Mode = GPIO_MODE_INPUT;
 993              		.loc 1 52 22 is_stmt 0 view .LVU287
 994 0016 4FF48043 		mov	r3, #16384
 995 001a 0193     		str	r3, [sp, #4]
  53:Device/Src/current.c **** 	GPIO_InitStruct.Pull = GPIO_PULLUP;
 996              		.loc 1 53 2 is_stmt 1 view .LVU288
  54:Device/Src/current.c **** 	GPIO_InitStruct.Speed = GPIO_SPEED_FREQ_LOW;
 997              		.loc 1 54 2 view .LVU289
  54:Device/Src/current.c **** 	GPIO_InitStruct.Speed = GPIO_SPEED_FREQ_LOW;
 998              		.loc 1 54 23 is_stmt 0 view .LVU290
 999 001c 0123     		movs	r3, #1
 1000 001e 0393     		str	r3, [sp, #12]
  55:Device/Src/current.c **** 	HAL_GPIO_Init(GPIOC, &GPIO_InitStruct);
 1001              		.loc 1 55 2 is_stmt 1 view .LVU291
  56:Device/Src/current.c **** }
 1002              		.loc 1 56 2 view .LVU292
 1003 0020 01A9     		add	r1, sp, #4
 1004 0022 3048     		ldr	r0, .L103
 1005 0024 FFF7FEFF 		bl	HAL_GPIO_Init
 1006              	.LVL92:
 1007              	.LBE27:
 1008              	.LBE26:
 207:Device/Src/current.c **** 	time = HAL_GetTick();
 1009              		.loc 1 207 2 view .LVU293
 1010              		.loc 1 207 9 is_stmt 0 view .LVU294
 1011 0028 FFF7FEFF 		bl	HAL_GetTick
 1012              	.LVL93:
 1013 002c 0446     		mov	r4, r0
 1014              	.LVL94:
ARM GAS  C:\Users\86158\AppData\Local\Temp\ccWOFplP.s 			page 24


 208:Device/Src/current.c **** 	while (!adc_read_din()) { 
 1015              		.loc 1 208 2 is_stmt 1 view .LVU295
 1016              	.L84:
 1017              		.loc 1 208 8 view .LVU296
 1018              		.loc 1 208 10 is_stmt 0 view .LVU297
 1019 002e FFF7FEFF 		bl	adc_read_din
 1020              	.LVL95:
 1021              		.loc 1 208 8 view .LVU298
 1022 0032 28B9     		cbnz	r0, .L88
 209:Device/Src/current.c **** 		if (HAL_GetTick() > time + 100) { break;}
 1023              		.loc 1 209 3 is_stmt 1 view .LVU299
 1024              		.loc 1 209 7 is_stmt 0 view .LVU300
 1025 0034 FFF7FEFF 		bl	HAL_GetTick
 1026              	.LVL96:
 1027              		.loc 1 209 28 view .LVU301
 1028 0038 04F16403 		add	r3, r4, #100
 1029              		.loc 1 209 6 view .LVU302
 1030 003c 9842     		cmp	r0, r3
 1031 003e F6D9     		bls	.L84
 1032              	.L88:
 210:Device/Src/current.c **** 	}
 211:Device/Src/current.c **** 	while (adc_read_din()) { 
 1033              		.loc 1 211 8 is_stmt 1 view .LVU303
 1034              		.loc 1 211 9 is_stmt 0 view .LVU304
 1035 0040 FFF7FEFF 		bl	adc_read_din
 1036              	.LVL97:
 1037              		.loc 1 211 8 view .LVU305
 1038 0044 28B1     		cbz	r0, .L87
 212:Device/Src/current.c **** 		if (HAL_GetTick() > time + 100) { break;}
 1039              		.loc 1 212 3 is_stmt 1 view .LVU306
 1040              		.loc 1 212 7 is_stmt 0 view .LVU307
 1041 0046 FFF7FEFF 		bl	HAL_GetTick
 1042              	.LVL98:
 1043              		.loc 1 212 28 view .LVU308
 1044 004a 04F16403 		add	r3, r4, #100
 1045              		.loc 1 212 6 view .LVU309
 1046 004e 9842     		cmp	r0, r3
 1047 0050 F6D9     		bls	.L88
 1048              	.L87:
 201:Device/Src/current.c **** 	int i = 0;
 1049              		.loc 1 201 1 discriminator 1 view .LVU310
 1050 0052 0024     		movs	r4, #0
 1051              	.LVL99:
 201:Device/Src/current.c **** 	int i = 0;
 1052              		.loc 1 201 1 discriminator 1 view .LVU311
 1053 0054 02E0     		b	.L90
 1054              	.LVL100:
 1055              	.L91:
 213:Device/Src/current.c **** 	}
 214:Device/Src/current.c **** 	for (i = 0; i < 27; i++) {
 215:Device/Src/current.c **** 		CS1237OneClock();
 1056              		.loc 1 215 3 is_stmt 1 discriminator 3 view .LVU312
 1057 0056 FFF7FEFF 		bl	CS1237OneClock
 1058              	.LVL101:
 214:Device/Src/current.c **** 		CS1237OneClock();
 1059              		.loc 1 214 22 discriminator 3 view .LVU313
 214:Device/Src/current.c **** 		CS1237OneClock();
ARM GAS  C:\Users\86158\AppData\Local\Temp\ccWOFplP.s 			page 25


 1060              		.loc 1 214 23 is_stmt 0 discriminator 3 view .LVU314
 1061 005a 0134     		adds	r4, r4, #1
 1062              	.LVL102:
 1063              	.L90:
 214:Device/Src/current.c **** 		CS1237OneClock();
 1064              		.loc 1 214 14 is_stmt 1 discriminator 1 view .LVU315
 214:Device/Src/current.c **** 		CS1237OneClock();
 1065              		.loc 1 214 2 is_stmt 0 discriminator 1 view .LVU316
 1066 005c 1A2C     		cmp	r4, #26
 1067 005e FADD     		ble	.L91
 216:Device/Src/current.c **** 	}
 217:Device/Src/current.c **** 	adc_sda_out();
 1068              		.loc 1 217 2 is_stmt 1 view .LVU317
 1069              	.LBB28:
 1070              	.LBI28:
  63:Device/Src/current.c **** {
 1071              		.loc 1 63 20 view .LVU318
 1072              	.LBB29:
  66:Device/Src/current.c **** 	GPIO_InitStruct.Pin = GPIO_PIN_14;
 1073              		.loc 1 66 4 view .LVU319
  66:Device/Src/current.c **** 	GPIO_InitStruct.Pin = GPIO_PIN_14;
 1074              		.loc 1 66 21 is_stmt 0 view .LVU320
 1075 0060 0026     		movs	r6, #0
 1076 0062 0196     		str	r6, [sp, #4]
 1077 0064 0296     		str	r6, [sp, #8]
 1078 0066 0396     		str	r6, [sp, #12]
 1079 0068 0496     		str	r6, [sp, #16]
 1080 006a 0596     		str	r6, [sp, #20]
  67:Device/Src/current.c **** 	GPIO_InitStruct.Mode = GPIO_MODE_OUTPUT_OD;
 1081              		.loc 1 67 2 is_stmt 1 view .LVU321
  67:Device/Src/current.c **** 	GPIO_InitStruct.Mode = GPIO_MODE_OUTPUT_OD;
 1082              		.loc 1 67 22 is_stmt 0 view .LVU322
 1083 006c 4FF48043 		mov	r3, #16384
 1084 0070 0193     		str	r3, [sp, #4]
  68:Device/Src/current.c **** 	GPIO_InitStruct.Pull = GPIO_PULLUP;
 1085              		.loc 1 68 2 is_stmt 1 view .LVU323
  68:Device/Src/current.c **** 	GPIO_InitStruct.Pull = GPIO_PULLUP;
 1086              		.loc 1 68 23 is_stmt 0 view .LVU324
 1087 0072 1123     		movs	r3, #17
 1088 0074 0293     		str	r3, [sp, #8]
  69:Device/Src/current.c **** 	GPIO_InitStruct.Speed = GPIO_SPEED_FREQ_LOW;
 1089              		.loc 1 69 2 is_stmt 1 view .LVU325
  69:Device/Src/current.c **** 	GPIO_InitStruct.Speed = GPIO_SPEED_FREQ_LOW;
 1090              		.loc 1 69 23 is_stmt 0 view .LVU326
 1091 0076 0123     		movs	r3, #1
 1092 0078 0393     		str	r3, [sp, #12]
  70:Device/Src/current.c **** 	HAL_GPIO_Init(GPIOC, &GPIO_InitStruct);
 1093              		.loc 1 70 2 is_stmt 1 view .LVU327
  71:Device/Src/current.c ****   
 1094              		.loc 1 71 2 view .LVU328
 1095 007a 01A9     		add	r1, sp, #4
 1096 007c 1948     		ldr	r0, .L103
 1097 007e FFF7FEFF 		bl	HAL_GPIO_Init
 1098              	.LVL103:
 1099              	.LBE29:
 1100              	.LBE28:
 218:Device/Src/current.c **** 	adc_dout_h();
ARM GAS  C:\Users\86158\AppData\Local\Temp\ccWOFplP.s 			page 26


 1101              		.loc 1 218 2 view .LVU329
 1102 0082 FFF7FEFF 		bl	adc_dout_h
 1103              	.LVL104:
 219:Device/Src/current.c **** 	CS1237OneClock();
 1104              		.loc 1 219 2 view .LVU330
 1105 0086 FFF7FEFF 		bl	CS1237OneClock
 1106              	.LVL105:
 220:Device/Src/current.c **** 	CS1237OneClock();
 1107              		.loc 1 220 2 view .LVU331
 1108 008a FFF7FEFF 		bl	CS1237OneClock
 1109              	.LVL106:
 221:Device/Src/current.c **** 	cmdWrite = 0x65;
 1110              		.loc 1 221 2 view .LVU332
 222:Device/Src/current.c **** 	for (i = 0; i < 7; i++) {
 1111              		.loc 1 222 2 view .LVU333
 221:Device/Src/current.c **** 	cmdWrite = 0x65;
 1112              		.loc 1 221 11 is_stmt 0 view .LVU334
 1113 008e 6524     		movs	r4, #101
 1114              		.loc 1 222 2 view .LVU335
 1115 0090 06E0     		b	.L92
 1116              	.LVL107:
 1117              	.L93:
 223:Device/Src/current.c **** 		if (cmdWrite & 0x40) { 
 224:Device/Src/current.c **** 			adc_dout_h();
 225:Device/Src/current.c **** 		} else {
 226:Device/Src/current.c **** 			adc_dout_l();
 1118              		.loc 1 226 4 is_stmt 1 view .LVU336
 1119 0092 FFF7FEFF 		bl	adc_dout_l
 1120              	.LVL108:
 1121              	.L94:
 227:Device/Src/current.c **** 		}
 228:Device/Src/current.c **** 		CS1237OneClock();
 1122              		.loc 1 228 3 discriminator 2 view .LVU337
 1123 0096 FFF7FEFF 		bl	CS1237OneClock
 1124              	.LVL109:
 229:Device/Src/current.c **** 		cmdWrite <<= 1;
 1125              		.loc 1 229 3 discriminator 2 view .LVU338
 1126              		.loc 1 229 12 is_stmt 0 discriminator 2 view .LVU339
 1127 009a 6400     		lsls	r4, r4, #1
 1128              	.LVL110:
 1129              		.loc 1 229 12 discriminator 2 view .LVU340
 1130 009c E4B2     		uxtb	r4, r4
 1131              	.LVL111:
 222:Device/Src/current.c **** 		if (cmdWrite & 0x40) { 
 1132              		.loc 1 222 21 is_stmt 1 discriminator 2 view .LVU341
 222:Device/Src/current.c **** 		if (cmdWrite & 0x40) { 
 1133              		.loc 1 222 22 is_stmt 0 discriminator 2 view .LVU342
 1134 009e 0136     		adds	r6, r6, #1
 1135              	.LVL112:
 1136              	.L92:
 222:Device/Src/current.c **** 		if (cmdWrite & 0x40) { 
 1137              		.loc 1 222 14 is_stmt 1 discriminator 1 view .LVU343
 222:Device/Src/current.c **** 		if (cmdWrite & 0x40) { 
 1138              		.loc 1 222 2 is_stmt 0 discriminator 1 view .LVU344
 1139 00a0 062E     		cmp	r6, #6
 1140 00a2 05DC     		bgt	.L101
 223:Device/Src/current.c **** 			adc_dout_h();
ARM GAS  C:\Users\86158\AppData\Local\Temp\ccWOFplP.s 			page 27


 1141              		.loc 1 223 3 is_stmt 1 view .LVU345
 223:Device/Src/current.c **** 			adc_dout_h();
 1142              		.loc 1 223 6 is_stmt 0 view .LVU346
 1143 00a4 14F0400F 		tst	r4, #64
 1144 00a8 F3D0     		beq	.L93
 224:Device/Src/current.c **** 		} else {
 1145              		.loc 1 224 4 is_stmt 1 view .LVU347
 1146 00aa FFF7FEFF 		bl	adc_dout_h
 1147              	.LVL113:
 1148 00ae F2E7     		b	.L94
 1149              	.L101:
 230:Device/Src/current.c **** 	}
 231:Device/Src/current.c **** 	adc_dout_h();	
 1150              		.loc 1 231 2 view .LVU348
 1151 00b0 FFF7FEFF 		bl	adc_dout_h
 1152              	.LVL114:
 232:Device/Src/current.c **** 	CS1237OneClock();
 1153              		.loc 1 232 2 view .LVU349
 1154 00b4 FFF7FEFF 		bl	CS1237OneClock
 1155              	.LVL115:
 233:Device/Src/current.c **** 	for (i = 0; i < 8; i++) {
 1156              		.loc 1 233 2 view .LVU350
 1157              		.loc 1 233 9 is_stmt 0 view .LVU351
 1158 00b8 0024     		movs	r4, #0
 1159              	.LVL116:
 1160              		.loc 1 233 2 view .LVU352
 1161 00ba 06E0     		b	.L96
 1162              	.LVL117:
 1163              	.L97:
 234:Device/Src/current.c **** 		if (tem & 0x80) { 
 235:Device/Src/current.c **** 			adc_dout_h();
 236:Device/Src/current.c **** 		} else {
 237:Device/Src/current.c **** 			adc_dout_l();
 1164              		.loc 1 237 4 is_stmt 1 view .LVU353
 1165 00bc FFF7FEFF 		bl	adc_dout_l
 1166              	.LVL118:
 1167              	.L98:
 238:Device/Src/current.c **** 		}
 239:Device/Src/current.c **** 		CS1237OneClock();
 1168              		.loc 1 239 3 discriminator 2 view .LVU354
 1169 00c0 FFF7FEFF 		bl	CS1237OneClock
 1170              	.LVL119:
 240:Device/Src/current.c **** 		tem <<= 1;
 1171              		.loc 1 240 3 discriminator 2 view .LVU355
 1172              		.loc 1 240 7 is_stmt 0 discriminator 2 view .LVU356
 1173 00c4 6D00     		lsls	r5, r5, #1
 1174              	.LVL120:
 1175              		.loc 1 240 7 discriminator 2 view .LVU357
 1176 00c6 EDB2     		uxtb	r5, r5
 1177              	.LVL121:
 233:Device/Src/current.c **** 		if (tem & 0x80) { 
 1178              		.loc 1 233 21 is_stmt 1 discriminator 2 view .LVU358
 233:Device/Src/current.c **** 		if (tem & 0x80) { 
 1179              		.loc 1 233 22 is_stmt 0 discriminator 2 view .LVU359
 1180 00c8 0134     		adds	r4, r4, #1
 1181              	.LVL122:
 1182              	.L96:
ARM GAS  C:\Users\86158\AppData\Local\Temp\ccWOFplP.s 			page 28


 233:Device/Src/current.c **** 		if (tem & 0x80) { 
 1183              		.loc 1 233 14 is_stmt 1 discriminator 1 view .LVU360
 233:Device/Src/current.c **** 		if (tem & 0x80) { 
 1184              		.loc 1 233 2 is_stmt 0 discriminator 1 view .LVU361
 1185 00ca 072C     		cmp	r4, #7
 1186 00cc 05DC     		bgt	.L102
 234:Device/Src/current.c **** 			adc_dout_h();
 1187              		.loc 1 234 3 is_stmt 1 view .LVU362
 234:Device/Src/current.c **** 			adc_dout_h();
 1188              		.loc 1 234 6 is_stmt 0 view .LVU363
 1189 00ce 15F0800F 		tst	r5, #128
 1190 00d2 F3D0     		beq	.L97
 235:Device/Src/current.c **** 		} else {
 1191              		.loc 1 235 4 is_stmt 1 view .LVU364
 1192 00d4 FFF7FEFF 		bl	adc_dout_h
 1193              	.LVL123:
 1194 00d8 F2E7     		b	.L98
 1195              	.L102:
 241:Device/Src/current.c **** 	}
 242:Device/Src/current.c **** 	CS1237OneClock();
 1196              		.loc 1 242 2 view .LVU365
 1197 00da FFF7FEFF 		bl	CS1237OneClock
 1198              	.LVL124:
 243:Device/Src/current.c **** }
 1199              		.loc 1 243 1 is_stmt 0 view .LVU366
 1200 00de 06B0     		add	sp, sp, #24
 1201              	.LCFI17:
 1202              		.cfi_def_cfa_offset 16
 1203              		@ sp needed
 1204 00e0 70BD     		pop	{r4, r5, r6, pc}
 1205              	.LVL125:
 1206              	.L104:
 1207              		.loc 1 243 1 view .LVU367
 1208 00e2 00BF     		.align	2
 1209              	.L103:
 1210 00e4 00080240 		.word	1073874944
 1211              		.cfi_endproc
 1212              	.LFE247:
 1214              		.section	.text.CS1237Init,"ax",%progbits
 1215              		.align	1
 1216              		.global	CS1237Init
 1217              		.syntax unified
 1218              		.thumb
 1219              		.thumb_func
 1221              	CS1237Init:
 1222              	.LFB242:
  76:Device/Src/current.c **** 	uint8_t buffer;
 1223              		.loc 1 76 1 is_stmt 1 view -0
 1224              		.cfi_startproc
 1225              		@ args = 0, pretend = 0, frame = 0
 1226              		@ frame_needed = 0, uses_anonymous_args = 0
 1227 0000 08B5     		push	{r3, lr}
 1228              	.LCFI18:
 1229              		.cfi_def_cfa_offset 8
 1230              		.cfi_offset 3, -8
 1231              		.cfi_offset 14, -4
  77:Device/Src/current.c **** 	buffer = 0x2C;
ARM GAS  C:\Users\86158\AppData\Local\Temp\ccWOFplP.s 			page 29


 1232              		.loc 1 77 2 view .LVU369
  78:Device/Src/current.c **** 	CS1237WriteConfig(buffer);
 1233              		.loc 1 78 2 view .LVU370
 1234              	.LVL126:
  79:Device/Src/current.c **** 	HAL_Delay(5);
 1235              		.loc 1 79 2 view .LVU371
 1236 0002 2C20     		movs	r0, #44
 1237 0004 FFF7FEFF 		bl	CS1237WriteConfig
 1238              	.LVL127:
  80:Device/Src/current.c **** 	buffer = CS1237ReadConfig();
 1239              		.loc 1 80 2 view .LVU372
 1240 0008 0520     		movs	r0, #5
 1241 000a FFF7FEFF 		bl	HAL_Delay
 1242              	.LVL128:
  81:Device/Src/current.c **** 	if (buffer == 0x2C) {
 1243              		.loc 1 81 2 view .LVU373
  81:Device/Src/current.c **** 	if (buffer == 0x2C) {
 1244              		.loc 1 81 11 is_stmt 0 view .LVU374
 1245 000e FFF7FEFF 		bl	CS1237ReadConfig
 1246              	.LVL129:
  82:Device/Src/current.c **** 		return 1;
 1247              		.loc 1 82 2 is_stmt 1 view .LVU375
  82:Device/Src/current.c **** 		return 1;
 1248              		.loc 1 82 5 is_stmt 0 view .LVU376
 1249 0012 2C28     		cmp	r0, #44
 1250 0014 01D0     		beq	.L109
  85:Device/Src/current.c **** 	}
 1251              		.loc 1 85 10 view .LVU377
 1252 0016 0020     		movs	r0, #0
 1253              	.LVL130:
 1254              	.L106:
  87:Device/Src/current.c **** 
 1255              		.loc 1 87 1 view .LVU378
 1256 0018 08BD     		pop	{r3, pc}
 1257              	.LVL131:
 1258              	.L109:
  83:Device/Src/current.c **** 	} else {
 1259              		.loc 1 83 10 view .LVU379
 1260 001a 0120     		movs	r0, #1
 1261              	.LVL132:
  83:Device/Src/current.c **** 	} else {
 1262              		.loc 1 83 10 view .LVU380
 1263 001c FCE7     		b	.L106
 1264              		.cfi_endproc
 1265              	.LFE242:
 1267              		.text
 1268              	.Letext0:
 1269              		.file 2 "e:\\stm32-gcc\\gcc-arm-none-eabi-10.3-2021.10\\arm-none-eabi\\include\\machine\\_default_
 1270              		.file 3 "e:\\stm32-gcc\\gcc-arm-none-eabi-10.3-2021.10\\arm-none-eabi\\include\\sys\\_stdint.h"
 1271              		.file 4 "Drivers/CMSIS/Device/ST/STM32F4xx/Include/stm32f407xx.h"
 1272              		.file 5 "Drivers/STM32F4xx_HAL_Driver/Inc/stm32f4xx_hal_gpio.h"
 1273              		.file 6 "Drivers/STM32F4xx_HAL_Driver/Inc/stm32f4xx_hal.h"
ARM GAS  C:\Users\86158\AppData\Local\Temp\ccWOFplP.s 			page 30

