ARM GAS  C:\Users\86158\AppData\Local\Temp\cco5xW5w.s 			page 1


   1              		.cpu cortex-m4
   2              		.arch armv7e-m
   3              		.fpu fpv4-sp-d16
   4              		.eabi_attribute 27, 1
   5              		.eabi_attribute 28, 1
   6              		.eabi_attribute 20, 1
   7              		.eabi_attribute 21, 1
   8              		.eabi_attribute 23, 3
   9              		.eabi_attribute 24, 1
  10              		.eabi_attribute 25, 1
  11              		.eabi_attribute 26, 1
  12              		.eabi_attribute 30, 1
  13              		.eabi_attribute 34, 1
  14              		.eabi_attribute 18, 4
  15              		.file	"rtc.c"
  16              		.text
  17              	.Ltext0:
  18              		.cfi_sections	.debug_frame
  19              		.section	.text.rtc_read_temp,"ax",%progbits
  20              		.align	1
  21              		.global	rtc_read_temp
  22              		.syntax unified
  23              		.thumb
  24              		.thumb_func
  26              	rtc_read_temp:
  27              	.LVL0:
  28              	.LFB235:
  29              		.file 1 "Device/Src/rtc.c"
   1:Device/Src/rtc.c **** #include "main.h"
   2:Device/Src/rtc.c **** #include "rtc.h"
   3:Device/Src/rtc.c **** #include <string.h>
   4:Device/Src/rtc.c **** #include "drv_wave1006.h"
   5:Device/Src/rtc.c **** 
   6:Device/Src/rtc.c **** #define OTP_LENGTH_SD3900           1024
   7:Device/Src/rtc.c **** #define CAP_STEP_2D4			16
   8:Device/Src/rtc.c **** #define CAP_STEP_1D2			61
   9:Device/Src/rtc.c **** #define CAP_STEP_0D8			118
  10:Device/Src/rtc.c **** #define CAP_STEP_0D6			185
  11:Device/Src/rtc.c **** #define CAP_STEP_0D4			SD8800_CAP_LIST_MAX
  12:Device/Src/rtc.c **** uint8_t g_otpBuffer[OTP_LENGTH_SD3900] = {0xff};
  13:Device/Src/rtc.c **** uint8_t g_capList[SD8800_CAP_LIST_MAX + 1][2] = {
  14:Device/Src/rtc.c **** 
  15:Device/Src/rtc.c **** 	{0x18,0x00},
  16:Device/Src/rtc.c **** 	{0x18,0x02},
  17:Device/Src/rtc.c **** 	{0x18,0x04},
  18:Device/Src/rtc.c **** 	{0x18,0x0a},
  19:Device/Src/rtc.c **** 	{0x18,0x07},
  20:Device/Src/rtc.c **** 	{0x18,0x18},
  21:Device/Src/rtc.c **** 	{0x18,0x0f},
  22:Device/Src/rtc.c **** 	{0x18,0x1b},
  23:Device/Src/rtc.c **** 	{0x18,0x1d},
  24:Device/Src/rtc.c **** 	{0x18,0x26},
  25:Device/Src/rtc.c **** 	{0x18,0x38},
  26:Device/Src/rtc.c **** 	{0x18,0x2e},
  27:Device/Src/rtc.c **** 	{0x18,0x36},
  28:Device/Src/rtc.c **** 	{0x18,0x37},
  29:Device/Src/rtc.c **** 	{0x18,0x3e},
ARM GAS  C:\Users\86158\AppData\Local\Temp\cco5xW5w.s 			page 2


  30:Device/Src/rtc.c **** 	{0x18,0x41},
  31:Device/Src/rtc.c **** 	{0x18,0x48},
  32:Device/Src/rtc.c **** 	{0x18,0x49},
  33:Device/Src/rtc.c **** 	{0x18,0x4a},
  34:Device/Src/rtc.c **** 	{0x18,0x51},
  35:Device/Src/rtc.c **** 	{0x18,0x52},
  36:Device/Src/rtc.c **** 	{0x18,0x4d},
  37:Device/Src/rtc.c **** 	{0x18,0x4e},
  38:Device/Src/rtc.c **** 	{0x18,0x61},
  39:Device/Src/rtc.c **** 	{0x18,0x62},
  40:Device/Src/rtc.c **** 	{0x18,0x5c},
  41:Device/Src/rtc.c **** 	{0x18,0x64},
  42:Device/Src/rtc.c **** 	{0x18,0x70},
  43:Device/Src/rtc.c **** 	{0x18,0x66},
  44:Device/Src/rtc.c **** 	{0x18,0x6b},
  45:Device/Src/rtc.c **** 	{0x18,0x78},
  46:Device/Src/rtc.c **** 	{0x18,0x73},
  47:Device/Src/rtc.c **** 	{0x18,0x79},
  48:Device/Src/rtc.c **** 	{0x18,0x6f},
  49:Device/Src/rtc.c **** 	{0x18,0x7b},
  50:Device/Src/rtc.c **** 	{0x18,0x77},
  51:Device/Src/rtc.c **** 	{0x18,0x7d},
  52:Device/Src/rtc.c **** 	{0x18,0x81},
  53:Device/Src/rtc.c **** 	{0x18,0x82},
  54:Device/Src/rtc.c **** 	{0x18,0x88},
  55:Device/Src/rtc.c **** 	{0x18,0x89},
  56:Device/Src/rtc.c **** 	{0x18,0x90},
  57:Device/Src/rtc.c **** 	{0x18,0x91},
  58:Device/Src/rtc.c **** 	{0x18,0x87},
  59:Device/Src/rtc.c **** 	{0x18,0x98},
  60:Device/Src/rtc.c **** 	{0x18,0x94},
  61:Device/Src/rtc.c **** 	{0x18,0xa1},
  62:Device/Src/rtc.c **** 	{0x18,0xa2},
  63:Device/Src/rtc.c **** 	{0x18,0x9b},
  64:Device/Src/rtc.c **** 	{0x18,0xa4},
  65:Device/Src/rtc.c **** 	{0x18,0x9d},
  66:Device/Src/rtc.c **** 	{0x18,0xa6},
  67:Device/Src/rtc.c **** 	{0x18,0xb2},
  68:Device/Src/rtc.c **** 	{0x18,0xb8},
  69:Device/Src/rtc.c **** 	{0x18,0xb9},
  70:Device/Src/rtc.c **** 	{0x18,0xba},
  71:Device/Src/rtc.c **** 	{0x18,0xb6},
  72:Device/Src/rtc.c **** 	{0x18,0xbc},
  73:Device/Src/rtc.c **** 	{0x18,0xbd},
  74:Device/Src/rtc.c **** 	{0x18,0xbe},
  75:Device/Src/rtc.c **** 	{0x18,0xbf},
  76:Device/Src/rtc.c **** 	{0x18,0xc1},
  77:Device/Src/rtc.c **** 	{0x18,0xc2},
  78:Device/Src/rtc.c **** 	{0x18,0xc8},
  79:Device/Src/rtc.c **** 	{0x18,0xc4},
  80:Device/Src/rtc.c **** 	{0x18,0xc9},
  81:Device/Src/rtc.c **** 	{0x18,0xca},
  82:Device/Src/rtc.c **** 	{0x18,0xc6},
  83:Device/Src/rtc.c **** 	{0x18,0xd1},
  84:Device/Src/rtc.c **** 	{0x18,0xd2},
  85:Device/Src/rtc.c **** 	{0x18,0xd8},
  86:Device/Src/rtc.c **** 	{0x18,0xd4},
ARM GAS  C:\Users\86158\AppData\Local\Temp\cco5xW5w.s 			page 3


  87:Device/Src/rtc.c **** 	{0x18,0xd9},
  88:Device/Src/rtc.c **** 	{0x18,0xda},
  89:Device/Src/rtc.c **** 	{0x18,0xe2},
  90:Device/Src/rtc.c **** 	{0x18,0xdb},
  91:Device/Src/rtc.c **** 	{0x18,0xe3},
  92:Device/Src/rtc.c **** 	{0x18,0xe9},
  93:Device/Src/rtc.c **** 	{0x18,0xe5},
  94:Device/Src/rtc.c **** 	{0x18,0xe6},
  95:Device/Src/rtc.c **** 	{0x18,0xeb},
  96:Device/Src/rtc.c **** 	{0x18,0xe7},
  97:Device/Src/rtc.c **** 	{0x18,0xed},
  98:Device/Src/rtc.c **** 	{0x18,0xf9},
  99:Device/Src/rtc.c **** 	{0x18,0xee},
 100:Device/Src/rtc.c **** 	{0x18,0xf5},
 101:Device/Src/rtc.c **** 	{0x18,0xef},
 102:Device/Src/rtc.c **** 	{0x18,0xfc},
 103:Device/Src/rtc.c **** 	{0x18,0xf7},
 104:Device/Src/rtc.c **** 	{0x18,0xfd},
 105:Device/Src/rtc.c **** 	{0x18,0xfe},
 106:Device/Src/rtc.c **** 	{0x19,0x08},
 107:Device/Src/rtc.c **** 	{0x18,0xff},
 108:Device/Src/rtc.c **** 	{0x19,0x10},
 109:Device/Src/rtc.c **** 	{0x19,0x0a},
 110:Device/Src/rtc.c **** 	{0x19,0x11},
 111:Device/Src/rtc.c **** 	{0x19,0x12},
 112:Device/Src/rtc.c **** 	{0x19,0x18},
 113:Device/Src/rtc.c **** 	{0x19,0x13},
 114:Device/Src/rtc.c **** 	{0x19,0x19},
 115:Device/Src/rtc.c **** 	{0x19,0x15},
 116:Device/Src/rtc.c **** 	{0x19,0x22},
 117:Device/Src/rtc.c **** 	{0x19,0x1b},
 118:Device/Src/rtc.c **** 	{0x19,0x24},
 119:Device/Src/rtc.c **** 	{0x19,0x1d},
 120:Device/Src/rtc.c **** 	{0x19,0x25},
 121:Device/Src/rtc.c **** 	{0x19,0x31},
 122:Device/Src/rtc.c **** 	{0x19,0x32},
 123:Device/Src/rtc.c **** 	{0x19,0x27},
 124:Device/Src/rtc.c **** 	{0x19,0x33},
 125:Device/Src/rtc.c **** 	{0x19,0x2e},
 126:Device/Src/rtc.c **** 	{0x19,0x3a},
 127:Device/Src/rtc.c **** 	{0x19,0x2f},
 128:Device/Src/rtc.c **** 	{0x19,0x3b},
 129:Device/Src/rtc.c **** 	{0x19,0x37},
 130:Device/Src/rtc.c **** 	{0x19,0x3d},
 131:Device/Src/rtc.c **** 	{0x19,0x3e},
 132:Device/Src/rtc.c **** 	{0x19,0x40},
 133:Device/Src/rtc.c **** 	{0x19,0x3f},
 134:Device/Src/rtc.c **** 	{0x19,0x41},
 135:Device/Src/rtc.c **** 	{0x19,0x42},
 136:Device/Src/rtc.c **** 	{0x19,0x42},
 137:Device/Src/rtc.c **** 	{0x19,0x48},
 138:Device/Src/rtc.c **** 	{0x19,0x44},
 139:Device/Src/rtc.c **** 	{0x19,0x49},
 140:Device/Src/rtc.c **** 	{0x19,0x45},
 141:Device/Src/rtc.c **** 	{0x19,0x46},
 142:Device/Src/rtc.c **** 	{0x19,0x46},
 143:Device/Src/rtc.c **** 	{0x19,0x52},
ARM GAS  C:\Users\86158\AppData\Local\Temp\cco5xW5w.s 			page 4


 144:Device/Src/rtc.c **** 	{0x19,0x47},
 145:Device/Src/rtc.c **** 	{0x19,0x60},
 146:Device/Src/rtc.c **** 	{0x19,0x54},
 147:Device/Src/rtc.c **** 	{0x19,0x59},
 148:Device/Src/rtc.c **** 	{0x19,0x5a},
 149:Device/Src/rtc.c **** 	{0x19,0x62},
 150:Device/Src/rtc.c **** 	{0x19,0x68},
 151:Device/Src/rtc.c **** 	{0x19,0x5c},
 152:Device/Src/rtc.c **** 	{0x19,0x70},
 153:Device/Src/rtc.c **** 	{0x19,0x5d},
 154:Device/Src/rtc.c **** 	{0x19,0x6a},
 155:Device/Src/rtc.c **** 	{0x19,0x66},
 156:Device/Src/rtc.c **** 	{0x19,0x6b},
 157:Device/Src/rtc.c **** 	{0x19,0x5f},
 158:Device/Src/rtc.c **** 	{0x19,0x67},
 159:Device/Src/rtc.c **** 	{0x19,0x74},
 160:Device/Src/rtc.c **** 	{0x19,0x6e},
 161:Device/Src/rtc.c **** 	{0x19,0x75},
 162:Device/Src/rtc.c **** 	{0x19,0x6f},
 163:Device/Src/rtc.c **** 	{0x19,0x76},
 164:Device/Src/rtc.c **** 	{0x19,0x7c},
 165:Device/Src/rtc.c **** 	{0x19,0x80},
 166:Device/Src/rtc.c **** 	{0x19,0x7d},
 167:Device/Src/rtc.c **** 	{0x19,0x81},
 168:Device/Src/rtc.c **** 	{0x19,0x7e},
 169:Device/Src/rtc.c **** 	{0x19,0x82},
 170:Device/Src/rtc.c **** 	{0x19,0x7f},
 171:Device/Src/rtc.c **** 	{0x19,0x83},
 172:Device/Src/rtc.c **** 	{0x19,0x89},
 173:Device/Src/rtc.c **** 	{0x19,0x90},
 174:Device/Src/rtc.c **** 	{0x19,0x8a},
 175:Device/Src/rtc.c **** 	{0x19,0x91},
 176:Device/Src/rtc.c **** 	{0x19,0x8b},
 177:Device/Src/rtc.c **** 	{0x19,0x98},
 178:Device/Src/rtc.c **** 	{0x19,0x8d},
 179:Device/Src/rtc.c **** 	{0x19,0x94},
 180:Device/Src/rtc.c **** 	{0x19,0xa1},
 181:Device/Src/rtc.c **** 	{0x19,0x9a},
 182:Device/Src/rtc.c **** 	{0x19,0x8f},
 183:Device/Src/rtc.c **** 	{0x19,0x9b},
 184:Device/Src/rtc.c **** 	{0x19,0xa4},
 185:Device/Src/rtc.c **** 	{0x19,0xb0},
 186:Device/Src/rtc.c **** 	{0x19,0xaa},
 187:Device/Src/rtc.c **** 	{0x19,0xb1},
 188:Device/Src/rtc.c **** 	{0x19,0xa6},
 189:Device/Src/rtc.c **** 	{0x19,0xb8},
 190:Device/Src/rtc.c **** 	{0x19,0xa7},
 191:Device/Src/rtc.c **** 	{0x19,0xb3},
 192:Device/Src/rtc.c **** 	{0x19,0xae},
 193:Device/Src/rtc.c **** 	{0x19,0xba},
 194:Device/Src/rtc.c **** 	{0x19,0xb5},
 195:Device/Src/rtc.c **** 	{0x19,0xbb},
 196:Device/Src/rtc.c **** 	{0x19,0xbc},
 197:Device/Src/rtc.c **** 	{0x19,0xb7},
 198:Device/Src/rtc.c **** 	{0x19,0xbd},
 199:Device/Src/rtc.c **** 	{0x19,0xc0},
 200:Device/Src/rtc.c **** 	{0x19,0xc0},
ARM GAS  C:\Users\86158\AppData\Local\Temp\cco5xW5w.s 			page 5


 201:Device/Src/rtc.c **** 	{0x19,0xbf},
 202:Device/Src/rtc.c **** 	{0x19,0xbf},
 203:Device/Src/rtc.c **** 	{0x19,0xc1},
 204:Device/Src/rtc.c **** 	{0x19,0xc2},
 205:Device/Src/rtc.c **** 	{0x19,0xc2},
 206:Device/Src/rtc.c **** 	{0x19,0xc8},
 207:Device/Src/rtc.c **** 	{0x19,0xc3},
 208:Device/Src/rtc.c **** 	{0x19,0xc4},
 209:Device/Src/rtc.c **** 	{0x19,0xc9},
 210:Device/Src/rtc.c **** 	{0x19,0xc9},
 211:Device/Src/rtc.c **** 	{0x19,0xc5},
 212:Device/Src/rtc.c **** 	{0x19,0xd1},
 213:Device/Src/rtc.c **** 	{0x19,0xc6},
 214:Device/Src/rtc.c **** 	{0x19,0xd2},
 215:Device/Src/rtc.c **** 	{0x19,0xd8},
 216:Device/Src/rtc.c **** 	{0x19,0xc7},
 217:Device/Src/rtc.c **** 	{0x19,0xd4},
 218:Device/Src/rtc.c **** 	{0x19,0xd3},
 219:Device/Src/rtc.c **** 	{0x19,0xe1},
 220:Device/Src/rtc.c **** 	{0x19,0xce},
 221:Device/Src/rtc.c **** 	{0x19,0xe2},
 222:Device/Src/rtc.c **** 	{0x19,0xe8},
 223:Device/Src/rtc.c **** 	{0x19,0xd6},
 224:Device/Src/rtc.c **** 	{0x19,0xdb},
 225:Device/Src/rtc.c **** 	{0x19,0xf0},
 226:Device/Src/rtc.c **** 	{0x19,0xd7},
 227:Device/Src/rtc.c **** 	{0x19,0xea},
 228:Device/Src/rtc.c **** 	{0x19,0xdd},
 229:Device/Src/rtc.c **** 	{0x19,0xf1},
 230:Device/Src/rtc.c **** 	{0x19,0xe6},
 231:Device/Src/rtc.c **** 	{0x19,0xf2},
 232:Device/Src/rtc.c **** 	{0x19,0xf8},
 233:Device/Src/rtc.c **** 	{0x19,0xdf},
 234:Device/Src/rtc.c **** 	{0x19,0xe7},
 235:Device/Src/rtc.c **** 	{0x19,0xf4},
 236:Device/Src/rtc.c **** 	{0x19,0xee},
 237:Device/Src/rtc.c **** 	{0x19,0xfa},
 238:Device/Src/rtc.c **** 	{0x1a,0x00},
 239:Device/Src/rtc.c **** 	{0x19,0xf6},
 240:Device/Src/rtc.c **** 	{0x19,0xef},
 241:Device/Src/rtc.c **** 	{0x1a,0x01},
 242:Device/Src/rtc.c **** 	{0x1a,0x02},
 243:Device/Src/rtc.c **** 	{0x1a,0x08},
 244:Device/Src/rtc.c **** 	{0x19,0xfd},
 245:Device/Src/rtc.c **** 	{0x19,0xfe},
 246:Device/Src/rtc.c **** 	{0x1a,0x04},
 247:Device/Src/rtc.c **** 	{0x1a,0x10},
 248:Device/Src/rtc.c **** 	{0x1a,0x0a},
 249:Device/Src/rtc.c **** 	{0x1a,0x05},
 250:Device/Src/rtc.c **** 	{0x1a,0x11},
 251:Device/Src/rtc.c **** 	{0x1a,0x06},
 252:Device/Src/rtc.c **** 	{0x1a,0x18},
 253:Device/Src/rtc.c **** 	{0x1a,0x20},
 254:Device/Src/rtc.c **** 	{0x1a,0x07},
 255:Device/Src/rtc.c **** 	{0x1a,0x14},
 256:Device/Src/rtc.c **** 	{0x1a,0x19},
 257:Device/Src/rtc.c **** 	{0x1a,0x0e},
ARM GAS  C:\Users\86158\AppData\Local\Temp\cco5xW5w.s 			page 6


 258:Device/Src/rtc.c **** 	{0x1a,0x22},
 259:Device/Src/rtc.c **** 	{0x1a,0x28},
 260:Device/Src/rtc.c **** 	{0x1a,0x0f},
 261:Device/Src/rtc.c **** 	{0x1a,0x1b},
 262:Device/Src/rtc.c **** 	{0x1a,0x24},
 263:Device/Src/rtc.c **** 	{0x1a,0x30},
 264:Device/Src/rtc.c **** 	{0x1a,0x17},
 265:Device/Src/rtc.c **** 	{0x1a,0x25},
 266:Device/Src/rtc.c **** 	{0x1a,0x1e},
 267:Device/Src/rtc.c **** 	{0x1a,0x2b},
 268:Device/Src/rtc.c **** 	{0x1a,0x38},
 269:Device/Src/rtc.c **** 	{0x1a,0x1f},
 270:Device/Src/rtc.c **** 	{0x1a,0x27},
 271:Device/Src/rtc.c **** 	{0x1a,0x39},
 272:Device/Src/rtc.c **** 	{0x1a,0x39},
 273:Device/Src/rtc.c **** 	{0x1a,0x3a},
 274:Device/Src/rtc.c **** 	{0x1a,0x35},
 275:Device/Src/rtc.c **** 	{0x1a,0x35},
 276:Device/Src/rtc.c **** 	{0x1a,0x3b},
 277:Device/Src/rtc.c **** 	{0x1a,0x3c},
 278:Device/Src/rtc.c **** 	{0x1a,0x3c},
 279:Device/Src/rtc.c **** 	{0x1a,0x37},
 280:Device/Src/rtc.c **** 	{0x1a,0x3d},
 281:Device/Src/rtc.c **** 	{0x1a,0x3e},
 282:Device/Src/rtc.c **** 	{0x1a,0x3e},
 283:Device/Src/rtc.c **** 	{0x1a,0x40},
 284:Device/Src/rtc.c **** 	{0x1a,0x40},
 285:Device/Src/rtc.c **** 	{0x1a,0x3f},
 286:Device/Src/rtc.c **** 	{0x1a,0x41},
 287:Device/Src/rtc.c **** 	{0x1a,0x41},
 288:Device/Src/rtc.c **** 	{0x1a,0x42},
 289:Device/Src/rtc.c **** 	{0x1a,0x48},
 290:Device/Src/rtc.c **** 	{0x1a,0x48},
 291:Device/Src/rtc.c **** 	{0x1a,0x43},
 292:Device/Src/rtc.c **** 	{0x1a,0x50},
 293:Device/Src/rtc.c **** 	{0x1a,0x4a},
 294:Device/Src/rtc.c **** 	{0x1a,0x45},
 295:Device/Src/rtc.c **** 	{0x1a,0x51},
 296:Device/Src/rtc.c **** 	{0x1a,0x46},
 297:Device/Src/rtc.c **** 	{0x1a,0x58},
 298:Device/Src/rtc.c **** 	{0x1a,0x60},
 299:Device/Src/rtc.c **** 	{0x1a,0x47},
 300:Device/Src/rtc.c **** 	{0x1a,0x59},
 301:Device/Src/rtc.c **** 	{0x1a,0x61},
 302:Device/Src/rtc.c **** 	{0x1a,0x5a},
 303:Device/Src/rtc.c **** 	{0x1a,0x62},
 304:Device/Src/rtc.c **** 	{0x1a,0x55},
 305:Device/Src/rtc.c **** 	{0x1a,0x5b},
 306:Device/Src/rtc.c **** 	{0x1a,0x63},
 307:Device/Src/rtc.c **** 	{0x1a,0x70},
 308:Device/Src/rtc.c **** 	{0x1a,0x6a},
 309:Device/Src/rtc.c **** 	{0x1a,0x71},
 310:Device/Src/rtc.c **** 	{0x1a,0x5e},
 311:Device/Src/rtc.c **** 	{0x1a,0x78},
 312:Device/Src/rtc.c **** 	{0x1a,0x6c},
 313:Device/Src/rtc.c **** 	{0x1a,0x5f},
 314:Device/Src/rtc.c **** 	{0x1a,0x73},
ARM GAS  C:\Users\86158\AppData\Local\Temp\cco5xW5w.s 			page 7


 315:Device/Src/rtc.c **** 	{0x1a,0x74},
 316:Device/Src/rtc.c **** 	{0x1a,0x6d},
 317:Device/Src/rtc.c **** 	{0x1a,0x7a},
 318:Device/Src/rtc.c **** 	{0x1a,0x75},
 319:Device/Src/rtc.c **** 	{0x1a,0x75},
 320:Device/Src/rtc.c **** 	{0x1a,0x7c},
 321:Device/Src/rtc.c **** 	{0x1a,0x7c},
 322:Device/Src/rtc.c **** 	{0x1a,0x80},
 323:Device/Src/rtc.c **** 	{0x1a,0x80},
 324:Device/Src/rtc.c **** 	{0x1a,0x7e},
 325:Device/Src/rtc.c **** 	{0x1a,0x81},
 326:Device/Src/rtc.c **** 	{0x1a,0x81},
 327:Device/Src/rtc.c **** 	{0x1a,0x7f},
 328:Device/Src/rtc.c **** 	{0x1a,0x88},
 329:Device/Src/rtc.c **** 	{0x1a,0x88},
 330:Device/Src/rtc.c **** 	{0x1a,0x83},
 331:Device/Src/rtc.c **** 	{0x1a,0x83},
 332:Device/Src/rtc.c **** 	{0x1a,0x90},
 333:Device/Src/rtc.c **** 	{0x1a,0x8a},
 334:Device/Src/rtc.c **** 	{0x1a,0x91},
 335:Device/Src/rtc.c **** 	{0x1a,0x86},
 336:Device/Src/rtc.c **** 	{0x1a,0x8b},
 337:Device/Src/rtc.c **** 	{0x1a,0xa0},
 338:Device/Src/rtc.c **** 	{0x1a,0x87},
 339:Device/Src/rtc.c **** 	{0x1a,0x8d},
 340:Device/Src/rtc.c **** 	{0x1a,0x9a},
 341:Device/Src/rtc.c **** 	{0x1a,0xa2},
 342:Device/Src/rtc.c **** 	{0x1a,0x95},
 343:Device/Src/rtc.c **** 	{0x1a,0x8f},
 344:Device/Src/rtc.c **** 	{0x1a,0xb0},
 345:Device/Src/rtc.c **** 	{0x1a,0xa9},
 346:Device/Src/rtc.c **** 	{0x1a,0x97},
 347:Device/Src/rtc.c **** 	{0x1a,0xb1},
 348:Device/Src/rtc.c **** 	{0x1a,0x9e},
 349:Device/Src/rtc.c **** 	{0x1a,0xb8},
 350:Device/Src/rtc.c **** 	{0x1a,0xac},
 351:Device/Src/rtc.c **** 	{0x1a,0x9f},
 352:Device/Src/rtc.c **** 	{0x1a,0xb3},
 353:Device/Src/rtc.c **** 	{0x1a,0xb4},
 354:Device/Src/rtc.c **** 	{0x1a,0xba},
 355:Device/Src/rtc.c **** 	{0x1a,0xae},
 356:Device/Src/rtc.c **** 	{0x1a,0xb5},
 357:Device/Src/rtc.c **** 	{0x1a,0xbc},
 358:Device/Src/rtc.c **** 	{0x1a,0xbc},
 359:Device/Src/rtc.c **** 	{0x1a,0xb7},
 360:Device/Src/rtc.c **** 	{0x1a,0xbd},
 361:Device/Src/rtc.c **** 	{0x1a,0xbd},
 362:Device/Src/rtc.c **** 	{0x1a,0xbe},
 363:Device/Src/rtc.c **** 	{0x1a,0xc0},
 364:Device/Src/rtc.c **** 	{0x1a,0xbf},
 365:Device/Src/rtc.c **** 	{0x1a,0xc1},
 366:Device/Src/rtc.c **** 	{0x1a,0xc1},
 367:Device/Src/rtc.c **** 	{0x1a,0xc2},
 368:Device/Src/rtc.c **** 	{0x1a,0xc8},
 369:Device/Src/rtc.c **** 	{0x1a,0xc8},
 370:Device/Src/rtc.c **** 	{0x1a,0xc3},
 371:Device/Src/rtc.c **** 	{0x1a,0xc9},
ARM GAS  C:\Users\86158\AppData\Local\Temp\cco5xW5w.s 			page 8


 372:Device/Src/rtc.c **** 	{0x1a,0xca},
 373:Device/Src/rtc.c **** 	{0x1a,0xd1},
 374:Device/Src/rtc.c **** 	{0x1a,0xc6},
 375:Device/Src/rtc.c **** 	{0x1a,0xe0},
 376:Device/Src/rtc.c **** 	{0x1a,0xe0},
 377:Device/Src/rtc.c **** 	{0x1a,0xd3},
 378:Device/Src/rtc.c **** 	{0x1a,0xe1},
 379:Device/Src/rtc.c **** 	{0x1a,0xda},
 380:Device/Src/rtc.c **** 	{0x1a,0xe8},
 381:Device/Src/rtc.c **** 	{0x1a,0xd5},
 382:Device/Src/rtc.c **** 	{0x1a,0xcf},
 383:Device/Src/rtc.c **** 	{0x1a,0xe9},
 384:Device/Src/rtc.c **** 	{0x1a,0xd7},
 385:Device/Src/rtc.c **** 	{0x1a,0xf1},
 386:Device/Src/rtc.c **** 	{0x1a,0xe5},
 387:Device/Src/rtc.c **** 	{0x1a,0xf8},
 388:Device/Src/rtc.c **** 	{0x1a,0xec},
 389:Device/Src/rtc.c **** 	{0x1a,0xf3},
 390:Device/Src/rtc.c **** 	{0x1a,0xf3},
 391:Device/Src/rtc.c **** 	{0x1a,0xfa},
 392:Device/Src/rtc.c **** 	{0x1a,0xee},
 393:Device/Src/rtc.c **** 	{0x1b,0x00},
 394:Device/Src/rtc.c **** 	{0x1a,0xfb},
 395:Device/Src/rtc.c **** 	{0x1a,0xfc},
 396:Device/Src/rtc.c **** 	{0x1b,0x01},
 397:Device/Src/rtc.c **** 	{0x1a,0xf7},
 398:Device/Src/rtc.c **** 	{0x1b,0x08},
 399:Device/Src/rtc.c **** 	{0x1a,0xfe},
 400:Device/Src/rtc.c **** 	{0x1b,0x10},
 401:Device/Src/rtc.c **** 	{0x1a,0xff},
 402:Device/Src/rtc.c **** 	{0x1b,0x0a},
 403:Device/Src/rtc.c **** 	{0x1b,0x11},
 404:Device/Src/rtc.c **** 	{0x1b,0x18},
 405:Device/Src/rtc.c **** 	{0x1b,0x20},
 406:Device/Src/rtc.c **** 	{0x1b,0x07},
 407:Device/Src/rtc.c **** 	{0x1b,0x19},
 408:Device/Src/rtc.c **** 	{0x1b,0x21},
 409:Device/Src/rtc.c **** 	{0x1b,0x0e},
 410:Device/Src/rtc.c **** 	{0x1b,0x15},
 411:Device/Src/rtc.c **** 	{0x1b,0x0f},
 412:Device/Src/rtc.c **** 	{0x1b,0x30},
 413:Device/Src/rtc.c **** 	{0x1b,0x29},
 414:Device/Src/rtc.c **** 	{0x1b,0x17},
 415:Device/Src/rtc.c **** 	{0x1b,0x25},
 416:Device/Src/rtc.c **** 	{0x1b,0x38},
 417:Device/Src/rtc.c **** 	{0x1b,0x26},
 418:Device/Src/rtc.c **** 	{0x1b,0x39},
 419:Device/Src/rtc.c **** 	{0x1b,0x34},
 420:Device/Src/rtc.c **** 	{0x1b,0x3a},
 421:Device/Src/rtc.c **** 	{0x1b,0x2e},
 422:Device/Src/rtc.c **** 	{0x1b,0x35},
 423:Device/Src/rtc.c **** 	{0x1b,0x3b},
 424:Device/Src/rtc.c **** 	{0x1b,0x3c},
 425:Device/Src/rtc.c **** 	{0x1b,0x37},
 426:Device/Src/rtc.c **** 	{0x1b,0x3d},
 427:Device/Src/rtc.c **** 	{0x1b,0x3d},
 428:Device/Src/rtc.c **** 	{0x1b,0x3e},
ARM GAS  C:\Users\86158\AppData\Local\Temp\cco5xW5w.s 			page 9


 429:Device/Src/rtc.c **** 	{0x1b,0x40},
 430:Device/Src/rtc.c **** 	{0x1b,0x40},
 431:Device/Src/rtc.c **** 	{0x1b,0x3f},
 432:Device/Src/rtc.c **** 	{0x1b,0x41},
 433:Device/Src/rtc.c **** 	{0x1b,0x42},
 434:Device/Src/rtc.c **** 	{0x1b,0x48},
 435:Device/Src/rtc.c **** 	{0x1b,0x44},
 436:Device/Src/rtc.c **** 	{0x1b,0x50},
 437:Device/Src/rtc.c **** 	{0x1b,0x43},
 438:Device/Src/rtc.c **** 	{0x1b,0x4a},
 439:Device/Src/rtc.c **** 	{0x1b,0x51},
 440:Device/Src/rtc.c **** 	{0x1b,0x60},
 441:Device/Src/rtc.c **** 	{0x1b,0x53},
 442:Device/Src/rtc.c **** 	{0x1b,0x61},
 443:Device/Src/rtc.c **** 	{0x1b,0x5a},
 444:Device/Src/rtc.c **** 	{0x1b,0x68},
 445:Device/Src/rtc.c **** 	{0x1b,0x55},
 446:Device/Src/rtc.c **** 	{0x1b,0x70},
 447:Device/Src/rtc.c **** 	{0x1b,0x64},
 448:Device/Src/rtc.c **** 	{0x1b,0x6a},
 449:Device/Src/rtc.c **** 	{0x1b,0x65},
 450:Device/Src/rtc.c **** 	{0x1b,0x78},
 451:Device/Src/rtc.c **** 	{0x1b,0x66},
 452:Device/Src/rtc.c **** 	{0x1b,0x5f},
 453:Device/Src/rtc.c **** 	{0x1b,0x74},
 454:Device/Src/rtc.c **** 	{0x1b,0x6e},
 455:Device/Src/rtc.c **** 	{0x1b,0x75},
 456:Device/Src/rtc.c **** 	{0x1b,0x7d},
 457:Device/Src/rtc.c **** 	{0x1b,0x7c},
 458:Device/Src/rtc.c **** 	{0x1b,0x6f},
 459:Device/Src/rtc.c **** 	{0x1b,0x77},
 460:Device/Src/rtc.c **** 	{0x1b,0x7e},
 461:Device/Src/rtc.c **** 	{0x1b,0x81},
 462:Device/Src/rtc.c **** 	{0x1b,0x88},
 463:Device/Src/rtc.c **** 	{0x1b,0x88},
 464:Device/Src/rtc.c **** 	{0x1b,0x83},
 465:Device/Src/rtc.c **** 	{0x1b,0x83},
 466:Device/Src/rtc.c **** 	{0x1b,0x89},
 467:Device/Src/rtc.c **** 	{0x1b,0x8a},
 468:Device/Src/rtc.c **** 	{0x1b,0x91},
 469:Device/Src/rtc.c **** 	{0x1b,0x98},
 470:Device/Src/rtc.c **** 	{0x1b,0x86},
 471:Device/Src/rtc.c **** 	{0x1b,0x8c},
 472:Device/Src/rtc.c **** 	{0x1b,0x99},
 473:Device/Src/rtc.c **** 	{0x1b,0x8d},
 474:Device/Src/rtc.c **** 	{0x1b,0x8e},
 475:Device/Src/rtc.c **** 	{0x1b,0x95},
 476:Device/Src/rtc.c **** 	{0x1b,0xa9},
 477:Device/Src/rtc.c **** 	{0x1b,0xaa},
 478:Device/Src/rtc.c **** 	{0x1b,0x97},
 479:Device/Src/rtc.c **** 	{0x1b,0xa5},
 480:Device/Src/rtc.c **** 	{0x1b,0xb2},
 481:Device/Src/rtc.c **** 	{0x1b,0xb9},
 482:Device/Src/rtc.c **** 	{0x1b,0xb3},
 483:Device/Src/rtc.c **** 	{0x1b,0xba},
 484:Device/Src/rtc.c **** 	{0x1b,0xae},
 485:Device/Src/rtc.c **** 	{0x1b,0xb5},
ARM GAS  C:\Users\86158\AppData\Local\Temp\cco5xW5w.s 			page 10


 486:Device/Src/rtc.c **** 	{0x1b,0xb6},
 487:Device/Src/rtc.c **** 	{0x1b,0xaf},
 488:Device/Src/rtc.c **** 	{0x1b,0xb7},
 489:Device/Src/rtc.c **** 	{0x1b,0xbd},
 490:Device/Src/rtc.c **** 	{0x1b,0xbe},
 491:Device/Src/rtc.c **** 	{0x1b,0xc0},
 492:Device/Src/rtc.c **** 	{0x1b,0xbf},
 493:Device/Src/rtc.c **** 	{0x1b,0xc1},
 494:Device/Src/rtc.c **** 	{0x1b,0xc2},
 495:Device/Src/rtc.c **** 	{0x1b,0xc8},
 496:Device/Src/rtc.c **** 	{0x1b,0xc9},
 497:Device/Src/rtc.c **** 	{0x1b,0xd0},
 498:Device/Src/rtc.c **** 	{0x1b,0xca},
 499:Device/Src/rtc.c **** 	{0x1b,0xc5},
 500:Device/Src/rtc.c **** 	{0x1b,0xd2},
 501:Device/Src/rtc.c **** 	{0x1b,0xcc},
 502:Device/Src/rtc.c **** 	{0x1b,0xd9},
 503:Device/Src/rtc.c **** 	{0x1b,0xe1},
 504:Device/Src/rtc.c **** 	{0x1b,0xe2},
 505:Device/Src/rtc.c **** 	{0x1b,0xd5},
 506:Device/Src/rtc.c **** 	{0x1b,0xdb},
 507:Device/Src/rtc.c **** 	{0x1b,0xe9},
 508:Device/Src/rtc.c **** 	{0x1b,0xf1},
 509:Device/Src/rtc.c **** 	{0x1b,0xdd},
 510:Device/Src/rtc.c **** 	{0x1b,0xf2},
 511:Device/Src/rtc.c **** 	{0x1b,0xf9},
 512:Device/Src/rtc.c **** 	{0x1c,0x01},
 513:Device/Src/rtc.c **** 	{0x1c,0x02},
 514:Device/Src/rtc.c **** 	{0x1b,0xee},
 515:Device/Src/rtc.c **** 	{0x1c,0x10},
 516:Device/Src/rtc.c **** 	{0x1c,0x09},
 517:Device/Src/rtc.c **** 	{0x1c,0x0a},
 518:Device/Src/rtc.c **** 	{0x1b,0xfd},
 519:Device/Src/rtc.c **** 	{0x1c,0x0b},
 520:Device/Src/rtc.c **** 	{0x1c,0x0c},
 521:Device/Src/rtc.c **** 	{0x1c,0x19},
 522:Device/Src/rtc.c **** 	{0x1c,0x1a},
 523:Device/Src/rtc.c **** 	{0x1c,0x28},
 524:Device/Src/rtc.c **** 	{0x1c,0x30},
 525:Device/Src/rtc.c **** 	{0x1c,0x1c},
 526:Device/Src/rtc.c **** 	{0x1c,0x16},
 527:Device/Src/rtc.c **** 	{0x1c,0x31},
 528:Device/Src/rtc.c **** 	{0x1c,0x32},
 529:Device/Src/rtc.c **** 	{0x1c,0x2c},
 530:Device/Src/rtc.c **** 	{0x1c,0x33},
 531:Device/Src/rtc.c **** 	{0x1c,0x3a},
 532:Device/Src/rtc.c **** 	{0x1c,0x2d},
 533:Device/Src/rtc.c **** 	{0x1c,0x2e},
 534:Device/Src/rtc.c **** 	{0x1c,0x3c},
 535:Device/Src/rtc.c **** 	{0x1c,0x2f},
 536:Device/Src/rtc.c **** 	{0x1c,0x3d},
 537:Device/Src/rtc.c **** 	{0x1c,0x37},
 538:Device/Src/rtc.c **** 	{0x1c,0x3e},
 539:Device/Src/rtc.c **** 	{0x1c,0x40},
 540:Device/Src/rtc.c **** 	{0x1c,0x3f},
 541:Device/Src/rtc.c **** 	{0x1c,0x41},
 542:Device/Src/rtc.c **** 	{0x1c,0x48},
ARM GAS  C:\Users\86158\AppData\Local\Temp\cco5xW5w.s 			page 11


 543:Device/Src/rtc.c **** 	{0x1c,0x42},
 544:Device/Src/rtc.c **** 	{0x1c,0x49},
 545:Device/Src/rtc.c **** 	{0x1c,0x43},
 546:Device/Src/rtc.c **** 	{0x1c,0x4a},
 547:Device/Src/rtc.c **** 	{0x1c,0x58},
 548:Device/Src/rtc.c **** 	{0x1c,0x46},
 549:Device/Src/rtc.c **** 	{0x1c,0x4c},
 550:Device/Src/rtc.c **** 	{0x1c,0x59},
 551:Device/Src/rtc.c **** 	{0x1c,0x68},
 552:Device/Src/rtc.c **** 	{0x1c,0x4e},
 553:Device/Src/rtc.c **** 	{0x1c,0x56},
 554:Device/Src/rtc.c **** 	{0x1c,0x69},
 555:Device/Src/rtc.c **** 	{0x1c,0x71},
 556:Device/Src/rtc.c **** 	{0x1c,0x72},
 557:Device/Src/rtc.c **** 	{0x1c,0x6c},
 558:Device/Src/rtc.c **** 	{0x1c,0x79},
 559:Device/Src/rtc.c **** 	{0x1c,0x7a},
 560:Device/Src/rtc.c **** 	{0x1c,0x6d},
 561:Device/Src/rtc.c **** 	{0x1c,0x7b},
 562:Device/Src/rtc.c **** 	{0x1c,0x7c},
 563:Device/Src/rtc.c **** 	{0x1c,0x6f},
 564:Device/Src/rtc.c **** 	{0x1c,0x80},
 565:Device/Src/rtc.c **** 	{0x1c,0x7e},
 566:Device/Src/rtc.c **** 	{0x1c,0x81},
 567:Device/Src/rtc.c **** 	{0x1c,0x88},
 568:Device/Src/rtc.c **** 	{0x1c,0x7f},
 569:Device/Src/rtc.c **** 	{0x1c,0x90},
 570:Device/Src/rtc.c **** 	{0x1c,0x89},
 571:Device/Src/rtc.c **** 	{0x1c,0x91},
 572:Device/Src/rtc.c **** 	{0x1c,0x98},
 573:Device/Src/rtc.c **** 	{0x1c,0x8c},
 574:Device/Src/rtc.c **** 	{0x1c,0xa1},
 575:Device/Src/rtc.c **** 	{0x1c,0xa8},
 576:Device/Src/rtc.c **** 	{0x1c,0xa2},
 577:Device/Src/rtc.c **** 	{0x1c,0x95},
 578:Device/Src/rtc.c **** 	{0x1c,0xa3},
 579:Device/Src/rtc.c **** 	{0x1c,0xaa},
 580:Device/Src/rtc.c **** 	{0x1c,0xb8},
 581:Device/Src/rtc.c **** 	{0x1c,0xa5},
 582:Device/Src/rtc.c **** 	{0x1c,0xb9},
 583:Device/Src/rtc.c **** 	{0x1c,0x9f},
 584:Device/Src/rtc.c **** 	{0x1c,0xa7},
 585:Device/Src/rtc.c **** 	{0x1c,0xae},
 586:Device/Src/rtc.c **** 	{0x1c,0xbc},
 587:Device/Src/rtc.c **** 	{0x1c,0xb6},
 588:Device/Src/rtc.c **** 	{0x1c,0xb7},
 589:Device/Src/rtc.c **** 	{0x1c,0xbd},
 590:Device/Src/rtc.c **** 	{0x1c,0xbe},
 591:Device/Src/rtc.c **** 	{0x1c,0xbf},
 592:Device/Src/rtc.c **** 	{0x1c,0xc1},
 593:Device/Src/rtc.c **** 	{0x1c,0xc2},
 594:Device/Src/rtc.c **** 	{0x1c,0xd0},
 595:Device/Src/rtc.c **** 	{0x1c,0xc3},
 596:Device/Src/rtc.c **** 	{0x1c,0xc4},
 597:Device/Src/rtc.c **** 	{0x1c,0xd1},
 598:Device/Src/rtc.c **** 	{0x1c,0xc6},
 599:Device/Src/rtc.c **** 	{0x1c,0xcc},
ARM GAS  C:\Users\86158\AppData\Local\Temp\cco5xW5w.s 			page 12


 600:Device/Src/rtc.c **** 	{0x1c,0xe1},
 601:Device/Src/rtc.c **** 	{0x1c,0xcd},
 602:Device/Src/rtc.c **** 	{0x1c,0xce},
 603:Device/Src/rtc.c **** 	{0x1c,0xe9},
 604:Device/Src/rtc.c **** 	{0x1c,0xea},
 605:Device/Src/rtc.c **** 	{0x1c,0xf1},
 606:Device/Src/rtc.c **** 	{0x1c,0xde},
 607:Device/Src/rtc.c **** 	{0x1c,0xf3},
 608:Device/Src/rtc.c **** 	{0x1c,0xf4},
 609:Device/Src/rtc.c **** 	{0x1c,0xee},
 610:Device/Src/rtc.c **** 	{0x1c,0xf5},
 611:Device/Src/rtc.c **** 	{0x1c,0xfc},
 612:Device/Src/rtc.c **** 	{0x1c,0xef},
 613:Device/Src/rtc.c **** 	{0x1c,0xf7},
 614:Device/Src/rtc.c **** 	{0x1d,0x02},
 615:Device/Src/rtc.c **** 	{0x1d,0x08},
 616:Device/Src/rtc.c **** 	{0x1d,0x09},
 617:Device/Src/rtc.c **** 	{0x1d,0x04},
 618:Device/Src/rtc.c **** 	{0x1d,0x11},
 619:Device/Src/rtc.c **** 	{0x1d,0x05},
 620:Device/Src/rtc.c **** 	{0x1d,0x06},
 621:Device/Src/rtc.c **** 	{0x1d,0x13},
 622:Device/Src/rtc.c **** 	{0x1d,0x28},
 623:Device/Src/rtc.c **** 	{0x1d,0x15},
 624:Device/Src/rtc.c **** 	{0x1d,0x16},
 625:Device/Src/rtc.c **** 	{0x1d,0x38},
 626:Device/Src/rtc.c **** 	{0x1d,0x1d},
 627:Device/Src/rtc.c **** 	{0x1d,0x1e},
 628:Device/Src/rtc.c **** 	{0x1d,0x33},
 629:Device/Src/rtc.c **** 	{0x1d,0x2d},
 630:Device/Src/rtc.c **** 	{0x1d,0x2e},
 631:Device/Src/rtc.c **** 	{0x1d,0x3c},
 632:Device/Src/rtc.c **** 	{0x1d,0x36},
 633:Device/Src/rtc.c **** 	{0x1d,0x3d},
 634:Device/Src/rtc.c **** 	{0x1d,0x37},
 635:Device/Src/rtc.c **** 	{0x1d,0x40},
 636:Device/Src/rtc.c **** 	{0x1d,0x3f},
 637:Device/Src/rtc.c **** 	{0x1d,0x41},
 638:Device/Src/rtc.c **** 	{0x1d,0x42},
 639:Device/Src/rtc.c **** 	{0x1d,0x50},
 640:Device/Src/rtc.c **** 	{0x1d,0x43},
 641:Device/Src/rtc.c **** 	{0x1d,0x4a},
 642:Device/Src/rtc.c **** 	{0x1d,0x45},
 643:Device/Src/rtc.c **** 	{0x1d,0x46},
 644:Device/Src/rtc.c **** 	{0x1d,0x59},
 645:Device/Src/rtc.c **** 	{0x1d,0x4d},
 646:Device/Src/rtc.c **** 	{0x1d,0x4e},
 647:Device/Src/rtc.c **** 	{0x1d,0x5b},
 648:Device/Src/rtc.c **** 	{0x1d,0x4f},
 649:Device/Src/rtc.c **** 	{0x1d,0x57},
 650:Device/Src/rtc.c **** 	{0x1d,0x5e},
 651:Device/Src/rtc.c **** 	{0x1d,0x79},
 652:Device/Src/rtc.c **** 	{0x1d,0x7a},
 653:Device/Src/rtc.c **** 	{0x1d,0x6e},
 654:Device/Src/rtc.c **** 	{0x1d,0x7b},
 655:Device/Src/rtc.c **** 	{0x1d,0x76},
 656:Device/Src/rtc.c **** 	{0x1d,0x77},
ARM GAS  C:\Users\86158\AppData\Local\Temp\cco5xW5w.s 			page 13


 657:Device/Src/rtc.c **** 	{0x1d,0x7e},
 658:Device/Src/rtc.c **** 	{0x1d,0x88},
 659:Device/Src/rtc.c **** 	{0x1d,0xa8},
 660:Device/Src/rtc.c **** 	{0x1d,0x89},
 661:Device/Src/rtc.c **** 	{0x1d,0x8a},
 662:Device/Src/rtc.c **** 	{0x1d,0xa5},
 663:Device/Src/rtc.c **** 	{0x1d,0x8b},
 664:Device/Src/rtc.c **** 	{0x1d,0x99},
 665:Device/Src/rtc.c **** 	{0x1d,0xad},
 666:Device/Src/rtc.c **** 	{0x1d,0x8e},
 667:Device/Src/rtc.c **** 	{0x1d,0x9b},
 668:Device/Src/rtc.c **** 	{0x1d,0x8f},
 669:Device/Src/rtc.c **** 	{0x1d,0x9d},
 670:Device/Src/rtc.c **** 	{0x1d,0x9e},
 671:Device/Src/rtc.c **** 	{0x1d,0xc0},
 672:Device/Src/rtc.c **** 	{0x1d,0xbf},
 673:Device/Src/rtc.c **** 	{0x1d,0xc1},
 674:Device/Src/rtc.c **** 	{0x1d,0xc8},
 675:Device/Src/rtc.c **** 	{0x1d,0xc3},
 676:Device/Src/rtc.c **** 	{0x1d,0xca},
 677:Device/Src/rtc.c **** 	{0x1d,0xc5},
 678:Device/Src/rtc.c **** 	{0x1d,0xe0},
 679:Device/Src/rtc.c **** 	{0x1d,0xd9},
 680:Device/Src/rtc.c **** 	{0x1d,0xce},
 681:Device/Src/rtc.c **** 	{0x1d,0xe8},
 682:Device/Src/rtc.c **** 	{0x1d,0xcf},
 683:Device/Src/rtc.c **** 	{0x1d,0xdd},
 684:Device/Src/rtc.c **** 	{0x1d,0xe5},
 685:Device/Src/rtc.c **** 	{0x1d,0xde},
 686:Device/Src/rtc.c **** 	{0x1d,0xf3},
 687:Device/Src/rtc.c **** 	{0x1d,0xed},
 688:Device/Src/rtc.c **** 	{0x1d,0xf5},
 689:Device/Src/rtc.c **** 	{0x1e,0x02},
 690:Device/Src/rtc.c **** 	{0x1e,0x08},
 691:Device/Src/rtc.c **** 	{0x1e,0x04},
 692:Device/Src/rtc.c **** 	{0x1e,0x05},
 693:Device/Src/rtc.c **** 	{0x1d,0xff},
 694:Device/Src/rtc.c **** 	{0x1e,0x20},
 695:Device/Src/rtc.c **** 	{0x1e,0x0d},
 696:Device/Src/rtc.c **** 	{0x1e,0x0e},
 697:Device/Src/rtc.c **** 	{0x1e,0x0f},
 698:Device/Src/rtc.c **** 	{0x1e,0x23},
 699:Device/Src/rtc.c **** 	{0x1e,0x17},
 700:Device/Src/rtc.c **** 	{0x1e,0x25},
 701:Device/Src/rtc.c **** 	{0x1e,0x26},
 702:Device/Src/rtc.c **** 	{0x1e,0x1f},
 703:Device/Src/rtc.c **** 	{0x1e,0x2e},
 704:Device/Src/rtc.c **** 	{0x1e,0x3b},
 705:Device/Src/rtc.c **** 	{0x1e,0x36},
 706:Device/Src/rtc.c **** 	{0x1e,0x37},
 707:Device/Src/rtc.c **** 	{0x1e,0x3e},
 708:Device/Src/rtc.c **** 	{0x1e,0x40},
 709:Device/Src/rtc.c **** 	{0x1e,0x41},
 710:Device/Src/rtc.c **** 	{0x1e,0x42},
 711:Device/Src/rtc.c **** 	{0x1e,0x43},
 712:Device/Src/rtc.c **** 	{0x1e,0x44},
 713:Device/Src/rtc.c **** 	{0x1e,0x4a},
ARM GAS  C:\Users\86158\AppData\Local\Temp\cco5xW5w.s 			page 14


 714:Device/Src/rtc.c **** 	{0x1e,0x46},
 715:Device/Src/rtc.c **** 	{0x1e,0x47},
 716:Device/Src/rtc.c **** 	{0x1e,0x53},
 717:Device/Src/rtc.c **** 	{0x1e,0x68},
 718:Device/Src/rtc.c **** 	{0x1e,0x4f},
 719:Device/Src/rtc.c **** 	{0x1e,0x6a},
 720:Device/Src/rtc.c **** 	{0x1e,0x71},
 721:Device/Src/rtc.c **** 	{0x1e,0x66},
 722:Device/Src/rtc.c **** 	{0x1e,0x5f},
 723:Device/Src/rtc.c **** 	{0x1e,0x67},
 724:Device/Src/rtc.c **** 	{0x1e,0x75},
 725:Device/Src/rtc.c **** 	{0x1e,0x6f},
 726:Device/Src/rtc.c **** 	{0x1e,0x7d},
 727:Device/Src/rtc.c **** 	{0x1e,0x7e},
 728:Device/Src/rtc.c **** 	{0x1e,0x81},
 729:Device/Src/rtc.c **** 	{0x1e,0x88},
 730:Device/Src/rtc.c **** 	{0x1e,0x89},
 731:Device/Src/rtc.c **** 	{0x1e,0x8a},
 732:Device/Src/rtc.c **** 	{0x1e,0x98},
 733:Device/Src/rtc.c **** 	{0x1e,0x8b},
 734:Device/Src/rtc.c **** 	{0x1e,0x8d},
 735:Device/Src/rtc.c **** 	{0x1e,0xa8},
 736:Device/Src/rtc.c **** 	{0x1e,0x95},
 737:Device/Src/rtc.c **** 	{0x1e,0x8f},
 738:Device/Src/rtc.c **** 	{0x1e,0x97},
 739:Device/Src/rtc.c **** 	{0x1e,0xac},
 740:Device/Src/rtc.c **** 	{0x1e,0x9f},
 741:Device/Src/rtc.c **** 	{0x1e,0xa7},
 742:Device/Src/rtc.c **** 	{0x1e,0xaf},
 743:Device/Src/rtc.c **** 	{0x1e,0xbc},
 744:Device/Src/rtc.c **** 	{0x1e,0xb7},
 745:Device/Src/rtc.c **** 	{0x1e,0xbe},
 746:Device/Src/rtc.c **** 	{0x1e,0xbf},
 747:Device/Src/rtc.c **** 	{0x1e,0xc8},
 748:Device/Src/rtc.c **** 	{0x1e,0xc8},
 749:Device/Src/rtc.c **** 	{0x1e,0xc9},
 750:Device/Src/rtc.c **** 	{0x1e,0xca},
 751:Device/Src/rtc.c **** 	{0x1e,0xc5},
 752:Device/Src/rtc.c **** 	{0x1e,0xe0},
 753:Device/Src/rtc.c **** 	{0x1e,0xd3},
 754:Device/Src/rtc.c **** 	{0x1e,0xce},
 755:Device/Src/rtc.c **** 	{0x1e,0xdc},
 756:Device/Src/rtc.c **** 	{0x1e,0xea},
 757:Device/Src/rtc.c **** 	{0x1e,0xd7},
 758:Device/Src/rtc.c **** 	{0x1e,0xdf},
 759:Device/Src/rtc.c **** 	{0x1e,0xed},
 760:Device/Src/rtc.c **** 	{0x1e,0xee},
 761:Device/Src/rtc.c **** 	{0x1e,0xef},
 762:Device/Src/rtc.c **** 	{0x1f,0x08},
 763:Device/Src/rtc.c **** 	{0x1f,0x02},
 764:Device/Src/rtc.c **** 	{0x1f,0x03},
 765:Device/Src/rtc.c **** 	{0x1e,0xff},
 766:Device/Src/rtc.c **** 	{0x1f,0x0b},
 767:Device/Src/rtc.c **** 	{0x1f,0x14},
 768:Device/Src/rtc.c **** 	{0x1f,0x07},
 769:Device/Src/rtc.c **** 	{0x1f,0x15},
 770:Device/Src/rtc.c **** 	{0x1f,0x24},
ARM GAS  C:\Users\86158\AppData\Local\Temp\cco5xW5w.s 			page 15


 771:Device/Src/rtc.c **** 	{0x1f,0x17},
 772:Device/Src/rtc.c **** 	{0x1f,0x1e},
 773:Device/Src/rtc.c **** 	{0x1f,0x26},
 774:Device/Src/rtc.c **** 	{0x1f,0x2d},
 775:Device/Src/rtc.c **** 	{0x1f,0x3b},
 776:Device/Src/rtc.c **** 	{0x1f,0x3c},
 777:Device/Src/rtc.c **** 	{0x1f,0x3e},
 778:Device/Src/rtc.c **** 	{0x1f,0x40},
 779:Device/Src/rtc.c **** 	{0x1f,0x3f},
 780:Device/Src/rtc.c **** 	{0x1f,0x42},
 781:Device/Src/rtc.c **** 	{0x1f,0x50},
 782:Device/Src/rtc.c **** 	{0x1f,0x49},
 783:Device/Src/rtc.c **** 	{0x1f,0x45},
 784:Device/Src/rtc.c **** 	{0x1f,0x52},
 785:Device/Src/rtc.c **** 	{0x1f,0x53},
 786:Device/Src/rtc.c **** 	{0x1f,0x68},
 787:Device/Src/rtc.c **** 	{0x1f,0x5c},
 788:Device/Src/rtc.c **** 	{0x1f,0x64},
 789:Device/Src/rtc.c **** 	{0x1f,0x78},
 790:Device/Src/rtc.c **** 	{0x1f,0x73},
 791:Device/Src/rtc.c **** 	{0x1f,0x5f},
 792:Device/Src/rtc.c **** 	{0x1f,0x6e},
 793:Device/Src/rtc.c **** 	{0x1f,0x80},
 794:Device/Src/rtc.c **** 	{0x1f,0x7d},
 795:Device/Src/rtc.c **** 	{0x1f,0x81},
 796:Device/Src/rtc.c **** 	{0x1f,0x7f},
 797:Device/Src/rtc.c **** 	{0x1f,0x90},
 798:Device/Src/rtc.c **** 	{0x1f,0x8a},
 799:Device/Src/rtc.c **** 	{0x1f,0x86},
 800:Device/Src/rtc.c **** 	{0x1f,0x93},
 801:Device/Src/rtc.c **** 	{0x1f,0x87},
 802:Device/Src/rtc.c **** 	{0x1f,0x95},
 803:Device/Src/rtc.c **** 	{0x1f,0xaa},
 804:Device/Src/rtc.c **** 	{0x1f,0x97},
 805:Device/Src/rtc.c **** 	{0x1f,0xb3},
 806:Device/Src/rtc.c **** 	{0x1f,0xad},
 807:Device/Src/rtc.c **** 	{0x1f,0xb5},
 808:Device/Src/rtc.c **** 	{0x1f,0xaf},
 809:Device/Src/rtc.c **** 	{0x1f,0xbd},
 810:Device/Src/rtc.c **** 	{0x1f,0xc0},
 811:Device/Src/rtc.c **** 	{0x1f,0xbf},
 812:Device/Src/rtc.c **** 	{0x1f,0xc2},
 813:Device/Src/rtc.c **** 	{0x1f,0xc3},
 814:Device/Src/rtc.c **** 	{0x1f,0xc5},
 815:Device/Src/rtc.c **** 	{0x1f,0xd8},
 816:Device/Src/rtc.c **** 	{0x1f,0xd3},
 817:Device/Src/rtc.c **** 	{0x1f,0xe2},
 818:Device/Src/rtc.c **** 	{0x1f,0xdb},
 819:Device/Src/rtc.c **** 	{0x1f,0xea},
 820:Device/Src/rtc.c **** 	{0x1f,0xe6},
 821:Device/Src/rtc.c **** 	{0x1f,0xf9},
 822:Device/Src/rtc.c **** 	{0x1f,0xed},
 823:Device/Src/rtc.c **** 	{0x1f,0xfc},
 824:Device/Src/rtc.c **** 	{0x1f,0xf7},
 825:Device/Src/rtc.c **** 	{0x1f,0xfe},
 826:Device/Src/rtc.c **** 	{0x1e,0x97},
 827:Device/Src/rtc.c **** 	{0x1f,0xff},
ARM GAS  C:\Users\86158\AppData\Local\Temp\cco5xW5w.s 			page 16


 828:Device/Src/rtc.c **** };
 829:Device/Src/rtc.c **** 
 830:Device/Src/rtc.c **** 
 831:Device/Src/rtc.c **** uint8_t rtc_read_temp(uint8_t* temp)
 832:Device/Src/rtc.c **** {
  30              		.loc 1 832 1 view -0
  31              		.cfi_startproc
  32              		@ args = 0, pretend = 0, frame = 8
  33              		@ frame_needed = 0, uses_anonymous_args = 0
  34              		.loc 1 832 1 is_stmt 0 view .LVU1
  35 0000 70B5     		push	{r4, r5, r6, lr}
  36              	.LCFI0:
  37              		.cfi_def_cfa_offset 16
  38              		.cfi_offset 4, -16
  39              		.cfi_offset 5, -12
  40              		.cfi_offset 6, -8
  41              		.cfi_offset 14, -4
  42 0002 82B0     		sub	sp, sp, #8
  43              	.LCFI1:
  44              		.cfi_def_cfa_offset 24
  45 0004 0646     		mov	r6, r0
 833:Device/Src/rtc.c **** 	uint8_t time = 20;
  46              		.loc 1 833 2 is_stmt 1 view .LVU2
  47              	.LVL1:
 834:Device/Src/rtc.c **** 	uint8_t buffer = 0;
  48              		.loc 1 834 2 view .LVU3
  49              		.loc 1 834 10 is_stmt 0 view .LVU4
  50 0006 0023     		movs	r3, #0
  51 0008 8DF80730 		strb	r3, [sp, #7]
 835:Device/Src/rtc.c **** 
 836:Device/Src/rtc.c **** 
 837:Device/Src/rtc.c **** 	if(rtc_write_lock_on() != I2C_OK)
  52              		.loc 1 837 2 is_stmt 1 view .LVU5
  53              		.loc 1 837 5 is_stmt 0 view .LVU6
  54 000c FFF7FEFF 		bl	rtc_write_lock_on
  55              	.LVL2:
  56              		.loc 1 837 4 view .LVU7
  57 0010 70BB     		cbnz	r0, .L5
 838:Device/Src/rtc.c **** 		return I2C_NO_ACK;
 839:Device/Src/rtc.c **** 	
 840:Device/Src/rtc.c ****     buffer = 0x10;
  58              		.loc 1 840 5 is_stmt 1 view .LVU8
  59              		.loc 1 840 12 is_stmt 0 view .LVU9
  60 0012 1023     		movs	r3, #16
  61 0014 8DF80730 		strb	r3, [sp, #7]
 841:Device/Src/rtc.c ****     if (rtc_write_multi_bytes(RTC_3900_ADDRESS, 0x17, &buffer, 1) != I2C_OK) 
  62              		.loc 1 841 5 is_stmt 1 view .LVU10
  63              		.loc 1 841 9 is_stmt 0 view .LVU11
  64 0018 0123     		movs	r3, #1
  65 001a 0DF10702 		add	r2, sp, #7
  66 001e 1721     		movs	r1, #23
  67 0020 6420     		movs	r0, #100
  68 0022 FFF7FEFF 		bl	rtc_write_multi_bytes
  69              	.LVL3:
  70              		.loc 1 841 8 view .LVU12
  71 0026 38BB     		cbnz	r0, .L6
 842:Device/Src/rtc.c **** 		return I2C_NO_ACK;
ARM GAS  C:\Users\86158\AppData\Local\Temp\cco5xW5w.s 			page 17


 843:Device/Src/rtc.c **** 	
 844:Device/Src/rtc.c **** 	if(rtc_write_lock_off() != I2C_OK)
  72              		.loc 1 844 2 is_stmt 1 view .LVU13
  73              		.loc 1 844 5 is_stmt 0 view .LVU14
  74 0028 FFF7FEFF 		bl	rtc_write_lock_off
  75              	.LVL4:
  76              		.loc 1 844 4 view .LVU15
  77 002c 30BB     		cbnz	r0, .L7
 833:Device/Src/rtc.c **** 	uint8_t buffer = 0;
  78              		.loc 1 833 10 view .LVU16
  79 002e 1424     		movs	r4, #20
  80              	.LVL5:
  81              	.L3:
 845:Device/Src/rtc.c **** 		return I2C_NO_ACK;
 846:Device/Src/rtc.c **** 	
 847:Device/Src/rtc.c **** 	while(time --)
  82              		.loc 1 847 7 is_stmt 1 view .LVU17
  83 0030 2346     		mov	r3, r4
  84              		.loc 1 847 13 is_stmt 0 view .LVU18
  85 0032 013C     		subs	r4, r4, #1
  86              	.LVL6:
  87              		.loc 1 847 13 view .LVU19
  88 0034 E4B2     		uxtb	r4, r4
  89              	.LVL7:
  90              		.loc 1 847 7 view .LVU20
  91 0036 CBB1     		cbz	r3, .L9
 848:Device/Src/rtc.c **** 	{
 849:Device/Src/rtc.c **** 		HAL_Delay(1);
  92              		.loc 1 849 3 is_stmt 1 view .LVU21
  93 0038 0120     		movs	r0, #1
  94 003a FFF7FEFF 		bl	HAL_Delay
  95              	.LVL8:
 850:Device/Src/rtc.c **** 		
 851:Device/Src/rtc.c ****         rtc_read_multi_bytes(RTC_3900_ADDRESS, 0x17, &buffer, 1);
  96              		.loc 1 851 9 view .LVU22
  97 003e 0123     		movs	r3, #1
  98 0040 0DF10702 		add	r2, sp, #7
  99 0044 1721     		movs	r1, #23
 100 0046 6420     		movs	r0, #100
 101 0048 FFF7FEFF 		bl	rtc_read_multi_bytes
 102              	.LVL9:
 852:Device/Src/rtc.c **** 		if (!(buffer & 0x20)) {
 103              		.loc 1 852 3 view .LVU23
 104              		.loc 1 852 16 is_stmt 0 view .LVU24
 105 004c 9DF80730 		ldrb	r3, [sp, #7]	@ zero_extendqisi2
 106              		.loc 1 852 6 view .LVU25
 107 0050 13F02005 		ands	r5, r3, #32
 108 0054 ECD1     		bne	.L3
 853:Device/Src/rtc.c ****             rtc_read_multi_bytes(RTC_3900_ADDRESS, 0x16, &buffer, 1);
 109              		.loc 1 853 13 is_stmt 1 view .LVU26
 110 0056 0123     		movs	r3, #1
 111 0058 0DF10702 		add	r2, sp, #7
 112 005c 1621     		movs	r1, #22
 113 005e 6420     		movs	r0, #100
 114 0060 FFF7FEFF 		bl	rtc_read_multi_bytes
 115              	.LVL10:
 854:Device/Src/rtc.c ****             *temp = buffer;
ARM GAS  C:\Users\86158\AppData\Local\Temp\cco5xW5w.s 			page 18


 116              		.loc 1 854 13 view .LVU27
 117              		.loc 1 854 19 is_stmt 0 view .LVU28
 118 0064 9DF80730 		ldrb	r3, [sp, #7]	@ zero_extendqisi2
 119 0068 3370     		strb	r3, [r6]
 855:Device/Src/rtc.c ****             return I2C_OK;
 120              		.loc 1 855 13 is_stmt 1 view .LVU29
 121              		.loc 1 855 20 is_stmt 0 view .LVU30
 122 006a 02E0     		b	.L2
 123              	.L9:
 856:Device/Src/rtc.c ****         }
 857:Device/Src/rtc.c **** 	}
 858:Device/Src/rtc.c **** 	
 859:Device/Src/rtc.c **** 	return I2C_NO_ACK;
 124              		.loc 1 859 9 view .LVU31
 125 006c 0225     		movs	r5, #2
 126 006e 00E0     		b	.L2
 127              	.LVL11:
 128              	.L5:
 838:Device/Src/rtc.c **** 	
 129              		.loc 1 838 10 view .LVU32
 130 0070 0225     		movs	r5, #2
 131              	.LVL12:
 132              	.L2:
 860:Device/Src/rtc.c **** }
 133              		.loc 1 860 1 view .LVU33
 134 0072 2846     		mov	r0, r5
 135 0074 02B0     		add	sp, sp, #8
 136              	.LCFI2:
 137              		.cfi_remember_state
 138              		.cfi_def_cfa_offset 16
 139              		@ sp needed
 140 0076 70BD     		pop	{r4, r5, r6, pc}
 141              	.LVL13:
 142              	.L6:
 143              	.LCFI3:
 144              		.cfi_restore_state
 842:Device/Src/rtc.c **** 	
 145              		.loc 1 842 10 view .LVU34
 146 0078 0225     		movs	r5, #2
 147 007a FAE7     		b	.L2
 148              	.L7:
 845:Device/Src/rtc.c **** 	
 149              		.loc 1 845 10 view .LVU35
 150 007c 0225     		movs	r5, #2
 151 007e F8E7     		b	.L2
 152              		.cfi_endproc
 153              	.LFE235:
 155              		.section	.text.rtc_set_bat_charge,"ax",%progbits
 156              		.align	1
 157              		.global	rtc_set_bat_charge
 158              		.syntax unified
 159              		.thumb
 160              		.thumb_func
 162              	rtc_set_bat_charge:
 163              	.LVL14:
 164              	.LFB236:
 861:Device/Src/rtc.c **** 
ARM GAS  C:\Users\86158\AppData\Local\Temp\cco5xW5w.s 			page 19


 862:Device/Src/rtc.c **** uint8_t rtc_set_bat_charge(uint8_t mode)
 863:Device/Src/rtc.c **** {
 165              		.loc 1 863 1 is_stmt 1 view -0
 166              		.cfi_startproc
 167              		@ args = 0, pretend = 0, frame = 8
 168              		@ frame_needed = 0, uses_anonymous_args = 0
 169              		.loc 1 863 1 is_stmt 0 view .LVU37
 170 0000 10B5     		push	{r4, lr}
 171              	.LCFI4:
 172              		.cfi_def_cfa_offset 8
 173              		.cfi_offset 4, -8
 174              		.cfi_offset 14, -4
 175 0002 82B0     		sub	sp, sp, #8
 176              	.LCFI5:
 177              		.cfi_def_cfa_offset 16
 178 0004 0446     		mov	r4, r0
 864:Device/Src/rtc.c **** 	uint8_t buffer = 0;
 179              		.loc 1 864 2 is_stmt 1 view .LVU38
 180              		.loc 1 864 10 is_stmt 0 view .LVU39
 181 0006 0023     		movs	r3, #0
 182 0008 8DF80730 		strb	r3, [sp, #7]
 865:Device/Src/rtc.c **** 
 866:Device/Src/rtc.c **** 	if(rtc_write_lock_on() != I2C_OK)
 183              		.loc 1 866 2 is_stmt 1 view .LVU40
 184              		.loc 1 866 5 is_stmt 0 view .LVU41
 185 000c FFF7FEFF 		bl	rtc_write_lock_on
 186              	.LVL15:
 187              		.loc 1 866 4 view .LVU42
 188 0010 A0B9     		cbnz	r0, .L14
 867:Device/Src/rtc.c **** 		return I2C_NO_ACK;
 868:Device/Src/rtc.c **** 		
 869:Device/Src/rtc.c **** 	if (mode == 0) { 
 189              		.loc 1 869 2 is_stmt 1 view .LVU43
 190              		.loc 1 869 5 is_stmt 0 view .LVU44
 191 0012 7CB9     		cbnz	r4, .L12
 870:Device/Src/rtc.c **** 		buffer = 0x00; 
 192              		.loc 1 870 3 is_stmt 1 view .LVU45
 193              		.loc 1 870 10 is_stmt 0 view .LVU46
 194 0014 0023     		movs	r3, #0
 195 0016 8DF80730 		strb	r3, [sp, #7]
 196              	.L13:
 871:Device/Src/rtc.c **** 	} else {
 872:Device/Src/rtc.c **** 		buffer = 0x82;
 873:Device/Src/rtc.c **** 	}
 874:Device/Src/rtc.c ****     if (rtc_write_multi_bytes(RTC_3900_ADDRESS, 0x18, &buffer, 1) != I2C_OK) 
 197              		.loc 1 874 5 is_stmt 1 view .LVU47
 198              		.loc 1 874 9 is_stmt 0 view .LVU48
 199 001a 0123     		movs	r3, #1
 200 001c 0DF10702 		add	r2, sp, #7
 201 0020 1821     		movs	r1, #24
 202 0022 6420     		movs	r0, #100
 203 0024 FFF7FEFF 		bl	rtc_write_multi_bytes
 204              	.LVL16:
 205              		.loc 1 874 8 view .LVU49
 206 0028 50B9     		cbnz	r0, .L15
 875:Device/Src/rtc.c **** 		return I2C_NO_ACK;
 876:Device/Src/rtc.c **** 	
ARM GAS  C:\Users\86158\AppData\Local\Temp\cco5xW5w.s 			page 20


 877:Device/Src/rtc.c **** 	if(rtc_write_lock_off() != I2C_OK)
 207              		.loc 1 877 2 is_stmt 1 view .LVU50
 208              		.loc 1 877 5 is_stmt 0 view .LVU51
 209 002a FFF7FEFF 		bl	rtc_write_lock_off
 210              	.LVL17:
 211              		.loc 1 877 4 view .LVU52
 212 002e 48B9     		cbnz	r0, .L18
 213              	.L11:
 878:Device/Src/rtc.c **** 		return I2C_NO_ACK;
 879:Device/Src/rtc.c **** 	
 880:Device/Src/rtc.c **** 	return I2C_OK;
 881:Device/Src/rtc.c **** }
 214              		.loc 1 881 1 view .LVU53
 215 0030 02B0     		add	sp, sp, #8
 216              	.LCFI6:
 217              		.cfi_remember_state
 218              		.cfi_def_cfa_offset 8
 219              		@ sp needed
 220 0032 10BD     		pop	{r4, pc}
 221              	.L12:
 222              	.LCFI7:
 223              		.cfi_restore_state
 872:Device/Src/rtc.c **** 	}
 224              		.loc 1 872 3 is_stmt 1 view .LVU54
 872:Device/Src/rtc.c **** 	}
 225              		.loc 1 872 10 is_stmt 0 view .LVU55
 226 0034 8223     		movs	r3, #130
 227 0036 8DF80730 		strb	r3, [sp, #7]
 228 003a EEE7     		b	.L13
 229              	.L14:
 867:Device/Src/rtc.c **** 		
 230              		.loc 1 867 10 view .LVU56
 231 003c 0220     		movs	r0, #2
 232 003e F7E7     		b	.L11
 233              	.L15:
 875:Device/Src/rtc.c **** 	
 234              		.loc 1 875 10 view .LVU57
 235 0040 0220     		movs	r0, #2
 236 0042 F5E7     		b	.L11
 237              	.L18:
 878:Device/Src/rtc.c **** 	
 238              		.loc 1 878 10 view .LVU58
 239 0044 0220     		movs	r0, #2
 240 0046 F3E7     		b	.L11
 241              		.cfi_endproc
 242              	.LFE236:
 244              		.section	.text.rtc_read_vbat,"ax",%progbits
 245              		.align	1
 246              		.global	rtc_read_vbat
 247              		.syntax unified
 248              		.thumb
 249              		.thumb_func
 251              	rtc_read_vbat:
 252              	.LVL18:
 253              	.LFB238:
 882:Device/Src/rtc.c **** 
 883:Device/Src/rtc.c **** float system_get_rtc_temp(void)//ря╦д1208
ARM GAS  C:\Users\86158\AppData\Local\Temp\cco5xW5w.s 			page 21


 884:Device/Src/rtc.c **** {
 885:Device/Src/rtc.c **** 	float tempSum = 0;
 886:Device/Src/rtc.c **** 	uint8_t count = 0;
 887:Device/Src/rtc.c **** 	uint16_t readTemp;
 888:Device/Src/rtc.c **** 	int quick;
 889:Device/Src/rtc.c **** 	int i;
 890:Device/Src/rtc.c **** 
 891:Device/Src/rtc.c **** 	for (i = 0; i < 5; i++) {
 892:Device/Src/rtc.c **** 		if (wave1006_read_temp_adc(&readTemp) > 0) {
 893:Device/Src/rtc.c **** 			quick = readTemp;
 894:Device/Src/rtc.c **** 			// if (quick > 160) {
 895:Device/Src/rtc.c **** 			// 	quick =  quick - 256;
 896:Device/Src/rtc.c **** 			// }
 897:Device/Src/rtc.c **** 			count++;
 898:Device/Src/rtc.c **** 			tempSum += quick;
 899:Device/Src/rtc.c **** 		}
 900:Device/Src/rtc.c **** 		HAL_Delay(5);
 901:Device/Src/rtc.c **** 	}
 902:Device/Src/rtc.c **** 	if (count == 0) {
 903:Device/Src/rtc.c **** 		tempSum = -300;
 904:Device/Src/rtc.c **** 	} else {
 905:Device/Src/rtc.c **** 		tempSum = tempSum / count;
 906:Device/Src/rtc.c **** 	}
 907:Device/Src/rtc.c **** 	return tempSum;
 908:Device/Src/rtc.c **** }
 909:Device/Src/rtc.c **** 
 910:Device/Src/rtc.c **** 
 911:Device/Src/rtc.c **** uint8_t rtc_read_vbat(int* vbat)
 912:Device/Src/rtc.c **** {
 254              		.loc 1 912 1 is_stmt 1 view -0
 255              		.cfi_startproc
 256              		@ args = 0, pretend = 0, frame = 8
 257              		@ frame_needed = 0, uses_anonymous_args = 0
 258              		.loc 1 912 1 is_stmt 0 view .LVU60
 259 0000 70B5     		push	{r4, r5, r6, lr}
 260              	.LCFI8:
 261              		.cfi_def_cfa_offset 16
 262              		.cfi_offset 4, -16
 263              		.cfi_offset 5, -12
 264              		.cfi_offset 6, -8
 265              		.cfi_offset 14, -4
 266 0002 82B0     		sub	sp, sp, #8
 267              	.LCFI9:
 268              		.cfi_def_cfa_offset 24
 269 0004 0646     		mov	r6, r0
 913:Device/Src/rtc.c **** 	uint8_t time = 20;
 270              		.loc 1 913 2 is_stmt 1 view .LVU61
 271              	.LVL19:
 914:Device/Src/rtc.c **** 	uint8_t buffer[2] = {0};
 272              		.loc 1 914 2 view .LVU62
 273              		.loc 1 914 10 is_stmt 0 view .LVU63
 274 0006 0023     		movs	r3, #0
 275 0008 ADF80430 		strh	r3, [sp, #4]	@ movhi
 915:Device/Src/rtc.c ****     int value = 0;
 276              		.loc 1 915 5 is_stmt 1 view .LVU64
 277              	.LVL20:
 916:Device/Src/rtc.c ****     *vbat = 0;
ARM GAS  C:\Users\86158\AppData\Local\Temp\cco5xW5w.s 			page 22


 278              		.loc 1 916 5 view .LVU65
 279              		.loc 1 916 11 is_stmt 0 view .LVU66
 280 000c 0360     		str	r3, [r0]
 917:Device/Src/rtc.c **** 
 918:Device/Src/rtc.c **** 	if(rtc_write_lock_on() != I2C_OK)
 281              		.loc 1 918 2 is_stmt 1 view .LVU67
 282              		.loc 1 918 5 is_stmt 0 view .LVU68
 283 000e FFF7FEFF 		bl	rtc_write_lock_on
 284              	.LVL21:
 285              		.loc 1 918 4 view .LVU69
 286 0012 88BB     		cbnz	r0, .L23
 919:Device/Src/rtc.c **** 		return I2C_NO_ACK;
 920:Device/Src/rtc.c **** 	
 921:Device/Src/rtc.c ****     buffer[0] = 0x10;
 287              		.loc 1 921 5 is_stmt 1 view .LVU70
 288              		.loc 1 921 15 is_stmt 0 view .LVU71
 289 0014 1023     		movs	r3, #16
 290 0016 8DF80430 		strb	r3, [sp, #4]
 922:Device/Src/rtc.c ****     if (rtc_write_multi_bytes(RTC_3900_ADDRESS, 0x19, buffer, 1) != I2C_OK) 
 291              		.loc 1 922 5 is_stmt 1 view .LVU72
 292              		.loc 1 922 9 is_stmt 0 view .LVU73
 293 001a 0123     		movs	r3, #1
 294 001c 01AA     		add	r2, sp, #4
 295 001e 1921     		movs	r1, #25
 296 0020 6420     		movs	r0, #100
 297 0022 FFF7FEFF 		bl	rtc_write_multi_bytes
 298              	.LVL22:
 299              		.loc 1 922 8 view .LVU74
 300 0026 58BB     		cbnz	r0, .L24
 923:Device/Src/rtc.c **** 		return I2C_NO_ACK;
 924:Device/Src/rtc.c **** 	
 925:Device/Src/rtc.c **** 	if(rtc_write_lock_off() != I2C_OK)
 301              		.loc 1 925 2 is_stmt 1 view .LVU75
 302              		.loc 1 925 5 is_stmt 0 view .LVU76
 303 0028 FFF7FEFF 		bl	rtc_write_lock_off
 304              	.LVL23:
 305              		.loc 1 925 4 view .LVU77
 306 002c 50BB     		cbnz	r0, .L25
 913:Device/Src/rtc.c **** 	uint8_t buffer[2] = {0};
 307              		.loc 1 913 10 view .LVU78
 308 002e 1424     		movs	r4, #20
 309              	.LVL24:
 310              	.L21:
 926:Device/Src/rtc.c **** 		return I2C_NO_ACK;
 927:Device/Src/rtc.c **** 	
 928:Device/Src/rtc.c **** 	while (time --)
 311              		.loc 1 928 8 is_stmt 1 view .LVU79
 312 0030 2346     		mov	r3, r4
 313              		.loc 1 928 14 is_stmt 0 view .LVU80
 314 0032 013C     		subs	r4, r4, #1
 315              	.LVL25:
 316              		.loc 1 928 14 view .LVU81
 317 0034 E4B2     		uxtb	r4, r4
 318              	.LVL26:
 319              		.loc 1 928 8 view .LVU82
 320 0036 EBB1     		cbz	r3, .L27
 929:Device/Src/rtc.c **** 	{
ARM GAS  C:\Users\86158\AppData\Local\Temp\cco5xW5w.s 			page 23


 930:Device/Src/rtc.c **** 		HAL_Delay(1);
 321              		.loc 1 930 3 is_stmt 1 view .LVU83
 322 0038 0120     		movs	r0, #1
 323 003a FFF7FEFF 		bl	HAL_Delay
 324              	.LVL27:
 931:Device/Src/rtc.c **** 		
 932:Device/Src/rtc.c ****         rtc_read_multi_bytes(RTC_3900_ADDRESS, 0x17, buffer, 1);
 325              		.loc 1 932 9 view .LVU84
 326 003e 0123     		movs	r3, #1
 327 0040 01AA     		add	r2, sp, #4
 328 0042 1721     		movs	r1, #23
 329 0044 6420     		movs	r0, #100
 330 0046 FFF7FEFF 		bl	rtc_read_multi_bytes
 331              	.LVL28:
 933:Device/Src/rtc.c **** 		if (!(buffer[0] & 0x20)) {
 332              		.loc 1 933 3 view .LVU85
 333              		.loc 1 933 15 is_stmt 0 view .LVU86
 334 004a 9DF80430 		ldrb	r3, [sp, #4]	@ zero_extendqisi2
 335              		.loc 1 933 6 view .LVU87
 336 004e 13F02005 		ands	r5, r3, #32
 337 0052 EDD1     		bne	.L21
 934:Device/Src/rtc.c ****             rtc_read_multi_bytes(RTC_3900_ADDRESS, 0x1A, buffer, 2);
 338              		.loc 1 934 13 is_stmt 1 view .LVU88
 339 0054 0223     		movs	r3, #2
 340 0056 01AA     		add	r2, sp, #4
 341 0058 1A21     		movs	r1, #26
 342 005a 6420     		movs	r0, #100
 343 005c FFF7FEFF 		bl	rtc_read_multi_bytes
 344              	.LVL29:
 935:Device/Src/rtc.c ****             value = buffer[0] & 0x80;
 345              		.loc 1 935 13 view .LVU89
 346              		.loc 1 935 27 is_stmt 0 view .LVU90
 347 0060 9DF80430 		ldrb	r3, [sp, #4]	@ zero_extendqisi2
 348              		.loc 1 935 19 view .LVU91
 349 0064 03F08002 		and	r2, r3, #128
 350              	.LVL30:
 936:Device/Src/rtc.c ****             value = (value << 1) + buffer[1];
 351              		.loc 1 936 13 is_stmt 1 view .LVU92
 352              		.loc 1 936 42 is_stmt 0 view .LVU93
 353 0068 9DF80530 		ldrb	r3, [sp, #5]	@ zero_extendqisi2
 354              		.loc 1 936 19 view .LVU94
 355 006c 03EB4203 		add	r3, r3, r2, lsl #1
 356              	.LVL31:
 937:Device/Src/rtc.c ****             *vbat = value;
 357              		.loc 1 937 13 is_stmt 1 view .LVU95
 358              		.loc 1 937 19 is_stmt 0 view .LVU96
 359 0070 3360     		str	r3, [r6]
 938:Device/Src/rtc.c ****             return I2C_OK;
 360              		.loc 1 938 13 is_stmt 1 view .LVU97
 361              		.loc 1 938 20 is_stmt 0 view .LVU98
 362 0072 02E0     		b	.L20
 363              	.LVL32:
 364              	.L27:
 939:Device/Src/rtc.c ****         }
 940:Device/Src/rtc.c **** 	}
 941:Device/Src/rtc.c **** 	
 942:Device/Src/rtc.c **** 	return I2C_NO_ACK;
ARM GAS  C:\Users\86158\AppData\Local\Temp\cco5xW5w.s 			page 24


 365              		.loc 1 942 9 view .LVU99
 366 0074 0225     		movs	r5, #2
 367 0076 00E0     		b	.L20
 368              	.LVL33:
 369              	.L23:
 919:Device/Src/rtc.c **** 	
 370              		.loc 1 919 10 view .LVU100
 371 0078 0225     		movs	r5, #2
 372              	.LVL34:
 373              	.L20:
 943:Device/Src/rtc.c **** 
 944:Device/Src/rtc.c **** }
 374              		.loc 1 944 1 view .LVU101
 375 007a 2846     		mov	r0, r5
 376 007c 02B0     		add	sp, sp, #8
 377              	.LCFI10:
 378              		.cfi_remember_state
 379              		.cfi_def_cfa_offset 16
 380              		@ sp needed
 381 007e 70BD     		pop	{r4, r5, r6, pc}
 382              	.LVL35:
 383              	.L24:
 384              	.LCFI11:
 385              		.cfi_restore_state
 923:Device/Src/rtc.c **** 	
 386              		.loc 1 923 10 view .LVU102
 387 0080 0225     		movs	r5, #2
 388 0082 FAE7     		b	.L20
 389              	.L25:
 926:Device/Src/rtc.c **** 	
 390              		.loc 1 926 10 view .LVU103
 391 0084 0225     		movs	r5, #2
 392 0086 F8E7     		b	.L20
 393              		.cfi_endproc
 394              	.LFE238:
 396              		.section	.text.rtc_read_date,"ax",%progbits
 397              		.align	1
 398              		.global	rtc_read_date
 399              		.syntax unified
 400              		.thumb
 401              		.thumb_func
 403              	rtc_read_date:
 404              	.LVL36:
 405              	.LFB239:
 945:Device/Src/rtc.c **** uint8_t rtc_read_date(RealTime* psRTC)
 946:Device/Src/rtc.c **** {
 406              		.loc 1 946 1 is_stmt 1 view -0
 407              		.cfi_startproc
 408              		@ args = 0, pretend = 0, frame = 8
 409              		@ frame_needed = 0, uses_anonymous_args = 0
 410              		.loc 1 946 1 is_stmt 0 view .LVU105
 411 0000 10B5     		push	{r4, lr}
 412              	.LCFI12:
 413              		.cfi_def_cfa_offset 8
 414              		.cfi_offset 4, -8
 415              		.cfi_offset 14, -4
 416 0002 82B0     		sub	sp, sp, #8
ARM GAS  C:\Users\86158\AppData\Local\Temp\cco5xW5w.s 			page 25


 417              	.LCFI13:
 418              		.cfi_def_cfa_offset 16
 419 0004 0446     		mov	r4, r0
 947:Device/Src/rtc.c ****     uint8_t buffer[7] = {0};
 420              		.loc 1 947 5 is_stmt 1 view .LVU106
 421              		.loc 1 947 13 is_stmt 0 view .LVU107
 422 0006 0021     		movs	r1, #0
 423 0008 0091     		str	r1, [sp]
 424 000a ADF80410 		strh	r1, [sp, #4]	@ movhi
 425 000e 8DF80610 		strb	r1, [sp, #6]
 948:Device/Src/rtc.c ****     
 949:Device/Src/rtc.c ****     if (rtc_read_multi_bytes(RTC_3900_ADDRESS, 0x00, buffer, 7)!= I2C_OK) {
 426              		.loc 1 949 5 is_stmt 1 view .LVU108
 427              		.loc 1 949 9 is_stmt 0 view .LVU109
 428 0012 0723     		movs	r3, #7
 429 0014 6A46     		mov	r2, sp
 430 0016 6420     		movs	r0, #100
 431              	.LVL37:
 432              		.loc 1 949 9 view .LVU110
 433 0018 FFF7FEFF 		bl	rtc_read_multi_bytes
 434              	.LVL38:
 435              		.loc 1 949 8 view .LVU111
 436 001c 0028     		cmp	r0, #0
 437 001e 65D1     		bne	.L33
 438 0020 0246     		mov	r2, r0
 950:Device/Src/rtc.c ****         return I2C_NO_ACK;
 951:Device/Src/rtc.c ****     } 
 952:Device/Src/rtc.c ****     psRTC->sec = (buffer[0] / 16) * 10 + (buffer[0] % 16);
 439              		.loc 1 952 5 is_stmt 1 view .LVU112
 440              		.loc 1 952 25 is_stmt 0 view .LVU113
 441 0022 9DF80030 		ldrb	r3, [sp]	@ zero_extendqisi2
 442              		.loc 1 952 53 view .LVU114
 443 0026 03F00F01 		and	r1, r3, #15
 444              		.loc 1 952 40 view .LVU115
 445 002a 1B09     		lsrs	r3, r3, #4
 446 002c 03EB8303 		add	r3, r3, r3, lsl #2
 447 0030 01EB4303 		add	r3, r1, r3, lsl #1
 448              		.loc 1 952 16 view .LVU116
 449 0034 6371     		strb	r3, [r4, #5]
 953:Device/Src/rtc.c ****     psRTC->min = (buffer[1] / 16) * 10 + (buffer[1] % 16);
 450              		.loc 1 953 5 is_stmt 1 view .LVU117
 451              		.loc 1 953 25 is_stmt 0 view .LVU118
 452 0036 9DF80130 		ldrb	r3, [sp, #1]	@ zero_extendqisi2
 453              		.loc 1 953 53 view .LVU119
 454 003a 03F00F01 		and	r1, r3, #15
 455              		.loc 1 953 40 view .LVU120
 456 003e 1B09     		lsrs	r3, r3, #4
 457 0040 03EB8303 		add	r3, r3, r3, lsl #2
 458 0044 01EB4303 		add	r3, r1, r3, lsl #1
 459              		.loc 1 953 16 view .LVU121
 460 0048 2371     		strb	r3, [r4, #4]
 954:Device/Src/rtc.c ****     if (buffer[2] & 0x80) {//
 461              		.loc 1 954 5 is_stmt 1 view .LVU122
 462              		.loc 1 954 15 is_stmt 0 view .LVU123
 463 004a 9DF80230 		ldrb	r3, [sp, #2]	@ zero_extendqisi2
 464              		.loc 1 954 9 view .LVU124
 465 004e 9DF90210 		ldrsb	r1, [sp, #2]
ARM GAS  C:\Users\86158\AppData\Local\Temp\cco5xW5w.s 			page 26


 466              		.loc 1 954 8 view .LVU125
 467 0052 0029     		cmp	r1, #0
 468 0054 10DB     		blt	.L35
 955:Device/Src/rtc.c ****         buffer[2] = buffer[2] & 0x7f;
 956:Device/Src/rtc.c ****         psRTC->hour = (buffer[2] / 16) * 10 + (buffer[2] % 16);
 957:Device/Src/rtc.c ****     } else {
 958:Device/Src/rtc.c ****         if (buffer[2] & 0x20) {//
 469              		.loc 1 958 9 is_stmt 1 view .LVU126
 470              		.loc 1 958 12 is_stmt 0 view .LVU127
 471 0056 13F0200F 		tst	r3, #32
 472 005a 3AD0     		beq	.L32
 959:Device/Src/rtc.c ****             buffer[2] = buffer[2] & 0x1f;
 473              		.loc 1 959 13 is_stmt 1 view .LVU128
 474              		.loc 1 959 35 is_stmt 0 view .LVU129
 475 005c 03F01F03 		and	r3, r3, #31
 476              		.loc 1 959 23 view .LVU130
 477 0060 8DF80230 		strb	r3, [sp, #2]
 960:Device/Src/rtc.c ****             psRTC->hour = (buffer[2] / 16) * 10 + (buffer[2] % 16) + 12;
 478              		.loc 1 960 13 is_stmt 1 view .LVU131
 479              		.loc 1 960 62 is_stmt 0 view .LVU132
 480 0064 03F00F01 		and	r1, r3, #15
 481              		.loc 1 960 49 view .LVU133
 482 0068 1B09     		lsrs	r3, r3, #4
 483 006a 03EB8303 		add	r3, r3, r3, lsl #2
 484 006e 01EB4303 		add	r3, r1, r3, lsl #1
 485              		.loc 1 960 68 view .LVU134
 486 0072 0C33     		adds	r3, r3, #12
 487              		.loc 1 960 25 view .LVU135
 488 0074 E370     		strb	r3, [r4, #3]
 489 0076 0BE0     		b	.L31
 490              	.L35:
 955:Device/Src/rtc.c ****         buffer[2] = buffer[2] & 0x7f;
 491              		.loc 1 955 9 is_stmt 1 view .LVU136
 955:Device/Src/rtc.c ****         buffer[2] = buffer[2] & 0x7f;
 492              		.loc 1 955 31 is_stmt 0 view .LVU137
 493 0078 03F07F03 		and	r3, r3, #127
 955:Device/Src/rtc.c ****         buffer[2] = buffer[2] & 0x7f;
 494              		.loc 1 955 19 view .LVU138
 495 007c 8DF80230 		strb	r3, [sp, #2]
 956:Device/Src/rtc.c ****     } else {
 496              		.loc 1 956 9 is_stmt 1 view .LVU139
 956:Device/Src/rtc.c ****     } else {
 497              		.loc 1 956 58 is_stmt 0 view .LVU140
 498 0080 03F00F01 		and	r1, r3, #15
 956:Device/Src/rtc.c ****     } else {
 499              		.loc 1 956 45 view .LVU141
 500 0084 1B09     		lsrs	r3, r3, #4
 501 0086 03EB8303 		add	r3, r3, r3, lsl #2
 502 008a 01EB4303 		add	r3, r1, r3, lsl #1
 956:Device/Src/rtc.c ****     } else {
 503              		.loc 1 956 21 view .LVU142
 504 008e E370     		strb	r3, [r4, #3]
 505              	.L31:
 961:Device/Src/rtc.c ****         } else {//
 962:Device/Src/rtc.c ****             buffer[2] = buffer[2] & 0x1f;
 963:Device/Src/rtc.c ****             psRTC->hour = (buffer[2] / 16) * 10 + (buffer[2] % 16);
 964:Device/Src/rtc.c ****         }
ARM GAS  C:\Users\86158\AppData\Local\Temp\cco5xW5w.s 			page 27


 965:Device/Src/rtc.c ****     }
 966:Device/Src/rtc.c ****     // psRTC->week = (buffer[3] / 16) * 10 + (buffer[3] % 16);
 967:Device/Src/rtc.c ****     psRTC->day = (buffer[4] / 16) * 10 + (buffer[4] % 16);
 506              		.loc 1 967 5 is_stmt 1 view .LVU143
 507              		.loc 1 967 25 is_stmt 0 view .LVU144
 508 0090 9DF80430 		ldrb	r3, [sp, #4]	@ zero_extendqisi2
 509              		.loc 1 967 53 view .LVU145
 510 0094 03F00F01 		and	r1, r3, #15
 511              		.loc 1 967 40 view .LVU146
 512 0098 1B09     		lsrs	r3, r3, #4
 513 009a 03EB8303 		add	r3, r3, r3, lsl #2
 514 009e 01EB4303 		add	r3, r1, r3, lsl #1
 515              		.loc 1 967 16 view .LVU147
 516 00a2 A370     		strb	r3, [r4, #2]
 968:Device/Src/rtc.c ****     psRTC->mon = (buffer[5] / 16) * 10 + (buffer[5] % 16);
 517              		.loc 1 968 5 is_stmt 1 view .LVU148
 518              		.loc 1 968 25 is_stmt 0 view .LVU149
 519 00a4 9DF80530 		ldrb	r3, [sp, #5]	@ zero_extendqisi2
 520              		.loc 1 968 53 view .LVU150
 521 00a8 03F00F01 		and	r1, r3, #15
 522              		.loc 1 968 40 view .LVU151
 523 00ac 1B09     		lsrs	r3, r3, #4
 524 00ae 03EB8303 		add	r3, r3, r3, lsl #2
 525 00b2 01EB4303 		add	r3, r1, r3, lsl #1
 526              		.loc 1 968 16 view .LVU152
 527 00b6 6370     		strb	r3, [r4, #1]
 969:Device/Src/rtc.c ****     psRTC->year = (buffer[6] / 16) * 10 + (buffer[6] % 16);
 528              		.loc 1 969 5 is_stmt 1 view .LVU153
 529              		.loc 1 969 26 is_stmt 0 view .LVU154
 530 00b8 9DF80630 		ldrb	r3, [sp, #6]	@ zero_extendqisi2
 531              		.loc 1 969 54 view .LVU155
 532 00bc 03F00F01 		and	r1, r3, #15
 533              		.loc 1 969 41 view .LVU156
 534 00c0 1B09     		lsrs	r3, r3, #4
 535 00c2 03EB8303 		add	r3, r3, r3, lsl #2
 536 00c6 01EB4303 		add	r3, r1, r3, lsl #1
 537              		.loc 1 969 17 view .LVU157
 538 00ca 2370     		strb	r3, [r4]
 970:Device/Src/rtc.c ****     return I2C_OK;
 539              		.loc 1 970 5 is_stmt 1 view .LVU158
 540              	.L29:
 971:Device/Src/rtc.c **** }
 541              		.loc 1 971 1 is_stmt 0 view .LVU159
 542 00cc 1046     		mov	r0, r2
 543 00ce 02B0     		add	sp, sp, #8
 544              	.LCFI14:
 545              		.cfi_remember_state
 546              		.cfi_def_cfa_offset 8
 547              		@ sp needed
 548 00d0 10BD     		pop	{r4, pc}
 549              	.LVL39:
 550              	.L32:
 551              	.LCFI15:
 552              		.cfi_restore_state
 962:Device/Src/rtc.c ****             psRTC->hour = (buffer[2] / 16) * 10 + (buffer[2] % 16);
 553              		.loc 1 962 13 is_stmt 1 view .LVU160
 962:Device/Src/rtc.c ****             psRTC->hour = (buffer[2] / 16) * 10 + (buffer[2] % 16);
ARM GAS  C:\Users\86158\AppData\Local\Temp\cco5xW5w.s 			page 28


 554              		.loc 1 962 35 is_stmt 0 view .LVU161
 555 00d2 03F01F03 		and	r3, r3, #31
 962:Device/Src/rtc.c ****             psRTC->hour = (buffer[2] / 16) * 10 + (buffer[2] % 16);
 556              		.loc 1 962 23 view .LVU162
 557 00d6 8DF80230 		strb	r3, [sp, #2]
 963:Device/Src/rtc.c ****         }
 558              		.loc 1 963 13 is_stmt 1 view .LVU163
 963:Device/Src/rtc.c ****         }
 559              		.loc 1 963 62 is_stmt 0 view .LVU164
 560 00da 03F00F01 		and	r1, r3, #15
 963:Device/Src/rtc.c ****         }
 561              		.loc 1 963 49 view .LVU165
 562 00de 1B09     		lsrs	r3, r3, #4
 563 00e0 03EB8303 		add	r3, r3, r3, lsl #2
 564 00e4 01EB4303 		add	r3, r1, r3, lsl #1
 963:Device/Src/rtc.c ****         }
 565              		.loc 1 963 25 view .LVU166
 566 00e8 E370     		strb	r3, [r4, #3]
 567 00ea D1E7     		b	.L31
 568              	.L33:
 950:Device/Src/rtc.c ****     } 
 569              		.loc 1 950 16 view .LVU167
 570 00ec 0222     		movs	r2, #2
 571 00ee EDE7     		b	.L29
 572              		.cfi_endproc
 573              	.LFE239:
 575              		.section	.text.rtc_write_date,"ax",%progbits
 576              		.align	1
 577              		.global	rtc_write_date
 578              		.syntax unified
 579              		.thumb
 580              		.thumb_func
 582              	rtc_write_date:
 583              	.LVL40:
 584              	.LFB240:
 972:Device/Src/rtc.c **** 
 973:Device/Src/rtc.c **** uint8_t rtc_write_date(RealTime* setRTC)	
 974:Device/Src/rtc.c **** {                               
 585              		.loc 1 974 1 is_stmt 1 view -0
 586              		.cfi_startproc
 587              		@ args = 0, pretend = 0, frame = 8
 588              		@ frame_needed = 0, uses_anonymous_args = 0
 589              		.loc 1 974 1 is_stmt 0 view .LVU169
 590 0000 30B5     		push	{r4, r5, lr}
 591              	.LCFI16:
 592              		.cfi_def_cfa_offset 12
 593              		.cfi_offset 4, -12
 594              		.cfi_offset 5, -8
 595              		.cfi_offset 14, -4
 596 0002 83B0     		sub	sp, sp, #12
 597              	.LCFI17:
 598              		.cfi_def_cfa_offset 24
 599 0004 0546     		mov	r5, r0
 975:Device/Src/rtc.c ****     uint8_t buffer[7] = {0};
 600              		.loc 1 975 5 is_stmt 1 view .LVU170
 601              		.loc 1 975 13 is_stmt 0 view .LVU171
 602 0006 0024     		movs	r4, #0
ARM GAS  C:\Users\86158\AppData\Local\Temp\cco5xW5w.s 			page 29


 603 0008 0094     		str	r4, [sp]
 604 000a ADF80440 		strh	r4, [sp, #4]	@ movhi
 605 000e 8DF80640 		strb	r4, [sp, #6]
 976:Device/Src/rtc.c ****     rtc_write_lock_on();
 606              		.loc 1 976 5 is_stmt 1 view .LVU172
 607 0012 FFF7FEFF 		bl	rtc_write_lock_on
 608              	.LVL41:
 977:Device/Src/rtc.c ****     buffer[0] = (setRTC->sec / 10) * 16 + (setRTC->sec % 10);
 609              		.loc 1 977 5 view .LVU173
 610              		.loc 1 977 24 is_stmt 0 view .LVU174
 611 0016 6A79     		ldrb	r2, [r5, #5]	@ zero_extendqisi2
 612              		.loc 1 977 41 view .LVU175
 613 0018 2E4B     		ldr	r3, .L41
 614 001a A3FB0201 		umull	r0, r1, r3, r2
 615 001e C908     		lsrs	r1, r1, #3
 616 0020 01EB8100 		add	r0, r1, r1, lsl #2
 617 0024 A2EB4002 		sub	r2, r2, r0, lsl #1
 618 0028 02EB0112 		add	r2, r2, r1, lsl #4
 619              		.loc 1 977 15 view .LVU176
 620 002c 8DF80020 		strb	r2, [sp]
 978:Device/Src/rtc.c ****     buffer[1] = (setRTC->min / 10) * 16 + (setRTC->min % 10);
 621              		.loc 1 978 5 is_stmt 1 view .LVU177
 622              		.loc 1 978 24 is_stmt 0 view .LVU178
 623 0030 2A79     		ldrb	r2, [r5, #4]	@ zero_extendqisi2
 624              		.loc 1 978 41 view .LVU179
 625 0032 A3FB0201 		umull	r0, r1, r3, r2
 626 0036 C908     		lsrs	r1, r1, #3
 627 0038 01EB8100 		add	r0, r1, r1, lsl #2
 628 003c A2EB4002 		sub	r2, r2, r0, lsl #1
 629 0040 02EB0112 		add	r2, r2, r1, lsl #4
 630              		.loc 1 978 15 view .LVU180
 631 0044 8DF80120 		strb	r2, [sp, #1]
 979:Device/Src/rtc.c ****     buffer[2] = (setRTC->hour / 10) * 16 + (setRTC->hour % 10) + 0x80;//
 632              		.loc 1 979 5 is_stmt 1 view .LVU181
 633              		.loc 1 979 24 is_stmt 0 view .LVU182
 634 0048 EA78     		ldrb	r2, [r5, #3]	@ zero_extendqisi2
 635              		.loc 1 979 42 view .LVU183
 636 004a A3FB0201 		umull	r0, r1, r3, r2
 637 004e C908     		lsrs	r1, r1, #3
 638 0050 01EB8100 		add	r0, r1, r1, lsl #2
 639 0054 A2EB4002 		sub	r2, r2, r0, lsl #1
 640 0058 02EB0112 		add	r2, r2, r1, lsl #4
 641 005c D2B2     		uxtb	r2, r2
 642              		.loc 1 979 64 view .LVU184
 643 005e 82F08002 		eor	r2, r2, #128
 644              		.loc 1 979 15 view .LVU185
 645 0062 8DF80220 		strb	r2, [sp, #2]
 980:Device/Src/rtc.c ****     buffer[3] = 0;
 646              		.loc 1 980 5 is_stmt 1 view .LVU186
 647              		.loc 1 980 15 is_stmt 0 view .LVU187
 648 0066 8DF80340 		strb	r4, [sp, #3]
 981:Device/Src/rtc.c ****     buffer[4] = (setRTC->day / 10) * 16 + (setRTC->day % 10);
 649              		.loc 1 981 5 is_stmt 1 view .LVU188
 650              		.loc 1 981 24 is_stmt 0 view .LVU189
 651 006a AA78     		ldrb	r2, [r5, #2]	@ zero_extendqisi2
 652              		.loc 1 981 41 view .LVU190
 653 006c A3FB0201 		umull	r0, r1, r3, r2
ARM GAS  C:\Users\86158\AppData\Local\Temp\cco5xW5w.s 			page 30


 654 0070 C908     		lsrs	r1, r1, #3
 655 0072 01EB8100 		add	r0, r1, r1, lsl #2
 656 0076 A2EB4002 		sub	r2, r2, r0, lsl #1
 657 007a 02EB0112 		add	r2, r2, r1, lsl #4
 658              		.loc 1 981 15 view .LVU191
 659 007e 8DF80420 		strb	r2, [sp, #4]
 982:Device/Src/rtc.c ****     buffer[5] = (setRTC->mon / 10) * 16 + (setRTC->mon % 10);
 660              		.loc 1 982 5 is_stmt 1 view .LVU192
 661              		.loc 1 982 24 is_stmt 0 view .LVU193
 662 0082 6A78     		ldrb	r2, [r5, #1]	@ zero_extendqisi2
 663              		.loc 1 982 41 view .LVU194
 664 0084 A3FB0201 		umull	r0, r1, r3, r2
 665 0088 C908     		lsrs	r1, r1, #3
 666 008a 01EB8100 		add	r0, r1, r1, lsl #2
 667 008e A2EB4002 		sub	r2, r2, r0, lsl #1
 668 0092 02EB0112 		add	r2, r2, r1, lsl #4
 669              		.loc 1 982 15 view .LVU195
 670 0096 8DF80520 		strb	r2, [sp, #5]
 983:Device/Src/rtc.c ****     buffer[6] = (setRTC->year / 10) * 16 + (setRTC->year % 10);
 671              		.loc 1 983 5 is_stmt 1 view .LVU196
 672              		.loc 1 983 24 is_stmt 0 view .LVU197
 673 009a 2A78     		ldrb	r2, [r5]	@ zero_extendqisi2
 674              		.loc 1 983 42 view .LVU198
 675 009c A3FB0213 		umull	r1, r3, r3, r2
 676 00a0 DB08     		lsrs	r3, r3, #3
 677 00a2 03EB8301 		add	r1, r3, r3, lsl #2
 678 00a6 A2EB4102 		sub	r2, r2, r1, lsl #1
 679 00aa 02EB0313 		add	r3, r2, r3, lsl #4
 680              		.loc 1 983 15 view .LVU199
 681 00ae 8DF80630 		strb	r3, [sp, #6]
 984:Device/Src/rtc.c ****     if (rtc_write_multi_bytes(RTC_3900_ADDRESS, 0x00, buffer, 7)!= I2C_OK) {
 682              		.loc 1 984 5 is_stmt 1 view .LVU200
 683              		.loc 1 984 9 is_stmt 0 view .LVU201
 684 00b2 0723     		movs	r3, #7
 685 00b4 6A46     		mov	r2, sp
 686 00b6 2146     		mov	r1, r4
 687 00b8 6420     		movs	r0, #100
 688 00ba FFF7FEFF 		bl	rtc_write_multi_bytes
 689              	.LVL42:
 690              		.loc 1 984 8 view .LVU202
 691 00be 28B9     		cbnz	r0, .L40
 692 00c0 0446     		mov	r4, r0
 985:Device/Src/rtc.c ****         rtc_write_lock_off();
 986:Device/Src/rtc.c ****         return I2C_NO_ACK;
 987:Device/Src/rtc.c ****     } 
 988:Device/Src/rtc.c ****     rtc_write_lock_off();
 693              		.loc 1 988 5 is_stmt 1 view .LVU203
 694 00c2 FFF7FEFF 		bl	rtc_write_lock_off
 695              	.LVL43:
 989:Device/Src/rtc.c ****     return I2C_OK;
 696              		.loc 1 989 5 view .LVU204
 697              	.L38:
 990:Device/Src/rtc.c **** }
 698              		.loc 1 990 1 is_stmt 0 view .LVU205
 699 00c6 2046     		mov	r0, r4
 700 00c8 03B0     		add	sp, sp, #12
 701              	.LCFI18:
ARM GAS  C:\Users\86158\AppData\Local\Temp\cco5xW5w.s 			page 31


 702              		.cfi_remember_state
 703              		.cfi_def_cfa_offset 12
 704              		@ sp needed
 705 00ca 30BD     		pop	{r4, r5, pc}
 706              	.LVL44:
 707              	.L40:
 708              	.LCFI19:
 709              		.cfi_restore_state
 985:Device/Src/rtc.c ****         rtc_write_lock_off();
 710              		.loc 1 985 9 is_stmt 1 view .LVU206
 711 00cc FFF7FEFF 		bl	rtc_write_lock_off
 712              	.LVL45:
 986:Device/Src/rtc.c ****     } 
 713              		.loc 1 986 9 view .LVU207
 986:Device/Src/rtc.c ****     } 
 714              		.loc 1 986 16 is_stmt 0 view .LVU208
 715 00d0 0224     		movs	r4, #2
 716 00d2 F8E7     		b	.L38
 717              	.L42:
 718              		.align	2
 719              	.L41:
 720 00d4 CDCCCCCC 		.word	-858993459
 721              		.cfi_endproc
 722              	.LFE240:
 724              		.section	.text.PrintfTime,"ax",%progbits
 725              		.align	1
 726              		.global	PrintfTime
 727              		.syntax unified
 728              		.thumb
 729              		.thumb_func
 731              	PrintfTime:
 732              	.LVL46:
 733              	.LFB241:
 991:Device/Src/rtc.c **** 
 992:Device/Src/rtc.c **** void PrintfTime(RealTime* rtc)
 993:Device/Src/rtc.c **** {
 734              		.loc 1 993 1 is_stmt 1 view -0
 735              		.cfi_startproc
 736              		@ args = 0, pretend = 0, frame = 0
 737              		@ frame_needed = 0, uses_anonymous_args = 0
 738              		@ link register save eliminated.
 994:Device/Src/rtc.c **** 	// UsbPrintf("\n20%d/%d/%d %d:%d:%d\n", rtc->year, rtc->mon, rtc->day, rtc->hour, rtc->min, rtc->s
 995:Device/Src/rtc.c **** }
 739              		.loc 1 995 1 view .LVU210
 740 0000 7047     		bx	lr
 741              		.cfi_endproc
 742              	.LFE241:
 744              		.section	.text.rtc_out_4096,"ax",%progbits
 745              		.align	1
 746              		.global	rtc_out_4096
 747              		.syntax unified
 748              		.thumb
 749              		.thumb_func
 751              	rtc_out_4096:
 752              	.LFB242:
 996:Device/Src/rtc.c **** 
 997:Device/Src/rtc.c **** 
ARM GAS  C:\Users\86158\AppData\Local\Temp\cco5xW5w.s 			page 32


 998:Device/Src/rtc.c **** 
 999:Device/Src/rtc.c **** uint8_t rtc_out_4096(void)
1000:Device/Src/rtc.c **** {
 753              		.loc 1 1000 1 view -0
 754              		.cfi_startproc
 755              		@ args = 0, pretend = 0, frame = 8
 756              		@ frame_needed = 0, uses_anonymous_args = 0
 757 0000 00B5     		push	{lr}
 758              	.LCFI20:
 759              		.cfi_def_cfa_offset 4
 760              		.cfi_offset 14, -4
 761 0002 83B0     		sub	sp, sp, #12
 762              	.LCFI21:
 763              		.cfi_def_cfa_offset 16
1001:Device/Src/rtc.c ****     uint8_t buffer[2] = {0x21, 0x42};
 764              		.loc 1 1001 5 view .LVU212
 765              		.loc 1 1001 13 is_stmt 0 view .LVU213
 766 0004 44F22123 		movw	r3, #16929
 767 0008 ADF80430 		strh	r3, [sp, #4]	@ movhi
1002:Device/Src/rtc.c **** 	if (rtc_write_multi_bytes(RTC_3900_ADDRESS, 0x10, buffer, 2)!= I2C_OK) {
 768              		.loc 1 1002 2 is_stmt 1 view .LVU214
 769              		.loc 1 1002 6 is_stmt 0 view .LVU215
 770 000c 0223     		movs	r3, #2
 771 000e 01AA     		add	r2, sp, #4
 772 0010 1021     		movs	r1, #16
 773 0012 6420     		movs	r0, #100
 774 0014 FFF7FEFF 		bl	rtc_write_multi_bytes
 775              	.LVL47:
 776              		.loc 1 1002 5 view .LVU216
 777 0018 10B9     		cbnz	r0, .L48
 778              	.L45:
1003:Device/Src/rtc.c ****         return I2C_NO_ACK;
1004:Device/Src/rtc.c ****     } 
1005:Device/Src/rtc.c **** 	return I2C_OK;
1006:Device/Src/rtc.c **** }
 779              		.loc 1 1006 1 view .LVU217
 780 001a 03B0     		add	sp, sp, #12
 781              	.LCFI22:
 782              		.cfi_remember_state
 783              		.cfi_def_cfa_offset 4
 784              		@ sp needed
 785 001c 5DF804FB 		ldr	pc, [sp], #4
 786              	.L48:
 787              	.LCFI23:
 788              		.cfi_restore_state
1003:Device/Src/rtc.c ****         return I2C_NO_ACK;
 789              		.loc 1 1003 16 view .LVU218
 790 0020 0220     		movs	r0, #2
 791 0022 FAE7     		b	.L45
 792              		.cfi_endproc
 793              	.LFE242:
 795              		.section	.text.rtc_disable_int,"ax",%progbits
 796              		.align	1
 797              		.global	rtc_disable_int
 798              		.syntax unified
 799              		.thumb
 800              		.thumb_func
ARM GAS  C:\Users\86158\AppData\Local\Temp\cco5xW5w.s 			page 33


 802              	rtc_disable_int:
 803              	.LFB243:
1007:Device/Src/rtc.c **** 
1008:Device/Src/rtc.c **** uint8_t rtc_disable_int(void)
1009:Device/Src/rtc.c **** {
 804              		.loc 1 1009 1 is_stmt 1 view -0
 805              		.cfi_startproc
 806              		@ args = 0, pretend = 0, frame = 8
 807              		@ frame_needed = 0, uses_anonymous_args = 0
 808 0000 00B5     		push	{lr}
 809              	.LCFI24:
 810              		.cfi_def_cfa_offset 4
 811              		.cfi_offset 14, -4
 812 0002 83B0     		sub	sp, sp, #12
 813              	.LCFI25:
 814              		.cfi_def_cfa_offset 16
1010:Device/Src/rtc.c ****     uint8_t buffer[2] = {0x00, 0x40};
 815              		.loc 1 1010 5 view .LVU220
 816              		.loc 1 1010 13 is_stmt 0 view .LVU221
 817 0004 4FF48043 		mov	r3, #16384
 818 0008 ADF80430 		strh	r3, [sp, #4]	@ movhi
1011:Device/Src/rtc.c **** 	if (rtc_write_multi_bytes(RTC_3900_ADDRESS, 0x10, buffer, 2)!= I2C_OK) {
 819              		.loc 1 1011 2 is_stmt 1 view .LVU222
 820              		.loc 1 1011 6 is_stmt 0 view .LVU223
 821 000c 0223     		movs	r3, #2
 822 000e 01AA     		add	r2, sp, #4
 823 0010 1021     		movs	r1, #16
 824 0012 6420     		movs	r0, #100
 825 0014 FFF7FEFF 		bl	rtc_write_multi_bytes
 826              	.LVL48:
 827              		.loc 1 1011 5 view .LVU224
 828 0018 10B9     		cbnz	r0, .L53
 829              	.L50:
1012:Device/Src/rtc.c ****         return I2C_NO_ACK;
1013:Device/Src/rtc.c ****     } 
1014:Device/Src/rtc.c **** 	return I2C_OK;
1015:Device/Src/rtc.c **** }
 830              		.loc 1 1015 1 view .LVU225
 831 001a 03B0     		add	sp, sp, #12
 832              	.LCFI26:
 833              		.cfi_remember_state
 834              		.cfi_def_cfa_offset 4
 835              		@ sp needed
 836 001c 5DF804FB 		ldr	pc, [sp], #4
 837              	.L53:
 838              	.LCFI27:
 839              		.cfi_restore_state
1012:Device/Src/rtc.c ****         return I2C_NO_ACK;
 840              		.loc 1 1012 16 view .LVU226
 841 0020 0220     		movs	r0, #2
 842 0022 FAE7     		b	.L50
 843              		.cfi_endproc
 844              	.LFE243:
 846              		.section	.rodata.rtc_set_testcap.str1.4,"aMS",%progbits,1
 847              		.align	2
 848              	.LC0:
 849 0000 61646A75 		.ascii	"adjust cap iic error\012\000"
ARM GAS  C:\Users\86158\AppData\Local\Temp\cco5xW5w.s 			page 34


 849      73742063 
 849      61702069 
 849      69632065 
 849      72726F72 
 850              		.section	.text.rtc_set_testcap,"ax",%progbits
 851              		.align	1
 852              		.global	rtc_set_testcap
 853              		.syntax unified
 854              		.thumb
 855              		.thumb_func
 857              	rtc_set_testcap:
 858              	.LVL49:
 859              	.LFB244:
1016:Device/Src/rtc.c **** 
1017:Device/Src/rtc.c **** uint8_t rtc_set_testcap(uint8_t *p_dat)
1018:Device/Src/rtc.c **** {	
 860              		.loc 1 1018 1 is_stmt 1 view -0
 861              		.cfi_startproc
 862              		@ args = 0, pretend = 0, frame = 0
 863              		@ frame_needed = 0, uses_anonymous_args = 0
 864              		.loc 1 1018 1 is_stmt 0 view .LVU228
 865 0000 08B5     		push	{r3, lr}
 866              	.LCFI28:
 867              		.cfi_def_cfa_offset 8
 868              		.cfi_offset 3, -8
 869              		.cfi_offset 14, -4
 870 0002 0246     		mov	r2, r0
1019:Device/Src/rtc.c **** 	// osc_buf[0] = ((cap & 0xff) << 3) | (cap & 0x07);
1020:Device/Src/rtc.c **** 	// osc_buf[1] = ((mode & 0x03) << 3) | ((cap & 0xff) >> 5);	
1021:Device/Src/rtc.c **** 	if (rtc_write_multi_bytes(RTC_3900_ADDRESS, WAVE1006_REG_USER_RAM_START + 21, p_dat, 2)!= I2C_OK) 
 871              		.loc 1 1021 2 is_stmt 1 view .LVU229
 872              		.loc 1 1021 6 is_stmt 0 view .LVU230
 873 0004 0223     		movs	r3, #2
 874 0006 4121     		movs	r1, #65
 875 0008 6420     		movs	r0, #100
 876              	.LVL50:
 877              		.loc 1 1021 6 view .LVU231
 878 000a FFF7FEFF 		bl	rtc_write_multi_bytes
 879              	.LVL51:
 880              		.loc 1 1021 5 view .LVU232
 881 000e 00B9     		cbnz	r0, .L57
 882              	.L55:
1022:Device/Src/rtc.c **** 		UsbPrintf("adjust cap iic error\n");
1023:Device/Src/rtc.c ****         return I2C_NO_ACK;
1024:Device/Src/rtc.c ****     } 
1025:Device/Src/rtc.c **** 	return I2C_OK;
1026:Device/Src/rtc.c **** }
 883              		.loc 1 1026 1 view .LVU233
 884 0010 08BD     		pop	{r3, pc}
 885              	.L57:
1022:Device/Src/rtc.c **** 		UsbPrintf("adjust cap iic error\n");
 886              		.loc 1 1022 3 is_stmt 1 view .LVU234
 887 0012 0248     		ldr	r0, .L58
 888 0014 FFF7FEFF 		bl	UsbPrintf
 889              	.LVL52:
1023:Device/Src/rtc.c ****     } 
 890              		.loc 1 1023 9 view .LVU235
ARM GAS  C:\Users\86158\AppData\Local\Temp\cco5xW5w.s 			page 35


1023:Device/Src/rtc.c ****     } 
 891              		.loc 1 1023 16 is_stmt 0 view .LVU236
 892 0018 0220     		movs	r0, #2
 893 001a F9E7     		b	.L55
 894              	.L59:
 895              		.align	2
 896              	.L58:
 897 001c 00000000 		.word	.LC0
 898              		.cfi_endproc
 899              	.LFE244:
 901              		.section	.text.rtc_set_testmode,"ax",%progbits
 902              		.align	1
 903              		.global	rtc_set_testmode
 904              		.syntax unified
 905              		.thumb
 906              		.thumb_func
 908              	rtc_set_testmode:
 909              	.LFB245:
1027:Device/Src/rtc.c **** 
1028:Device/Src/rtc.c **** uint8_t rtc_set_testmode(void)
1029:Device/Src/rtc.c **** {
 910              		.loc 1 1029 1 is_stmt 1 view -0
 911              		.cfi_startproc
 912              		@ args = 0, pretend = 0, frame = 0
 913              		@ frame_needed = 0, uses_anonymous_args = 0
 914              		@ link register save eliminated.
1030:Device/Src/rtc.c **** 	// uint8_t config[9] = {0xFF, 0xFF, 0x2F, 0xFF, 0x30, 0x30, 0xFE, 0x22, 0x80};
1031:Device/Src/rtc.c **** 		
1032:Device/Src/rtc.c ****     // rtc_write_lock_on();
1033:Device/Src/rtc.c **** 	
1034:Device/Src/rtc.c **** 	// if (rtc_write_multi_bytes(RTC_3900_ADDRESS, 0x3F, config, 9)!= I2C_OK) {
1035:Device/Src/rtc.c ****     //     rtc_write_lock_off();
1036:Device/Src/rtc.c ****     //     return I2C_NO_ACK;
1037:Device/Src/rtc.c ****     // } 
1038:Device/Src/rtc.c ****     // rtc_write_lock_off();
1039:Device/Src/rtc.c **** 	return I2C_OK;
 915              		.loc 1 1039 2 view .LVU238
1040:Device/Src/rtc.c **** }
 916              		.loc 1 1040 1 is_stmt 0 view .LVU239
 917 0000 0020     		movs	r0, #0
 918 0002 7047     		bx	lr
 919              		.cfi_endproc
 920              	.LFE245:
 922              		.section	.rodata.rtc_1006_set_testmode.str1.4,"aMS",%progbits,1
 923              		.align	2
 924              	.LC1:
 925 0000 70616420 		.ascii	"pad change OK\012\000"
 925      6368616E 
 925      6765204F 
 925      4B0A00
 926 000f 00       		.align	2
 927              	.LC2:
 928 0010 69326320 		.ascii	"i2c OK after pad change \012\000"
 928      4F4B2061 
 928      66746572 
 928      20706164 
 928      20636861 
ARM GAS  C:\Users\86158\AppData\Local\Temp\cco5xW5w.s 			page 36


 929              		.section	.text.rtc_1006_set_testmode,"ax",%progbits
 930              		.align	1
 931              		.global	rtc_1006_set_testmode
 932              		.syntax unified
 933              		.thumb
 934              		.thumb_func
 936              	rtc_1006_set_testmode:
 937              	.LVL53:
 938              	.LFB246:
1041:Device/Src/rtc.c **** 
1042:Device/Src/rtc.c **** uint8_t rtc_1006_set_testmode(uint8_t channel)
1043:Device/Src/rtc.c **** {
 939              		.loc 1 1043 1 is_stmt 1 view -0
 940              		.cfi_startproc
 941              		@ args = 0, pretend = 0, frame = 8
 942              		@ frame_needed = 0, uses_anonymous_args = 0
 943              		.loc 1 1043 1 is_stmt 0 view .LVU241
 944 0000 10B5     		push	{r4, lr}
 945              	.LCFI29:
 946              		.cfi_def_cfa_offset 8
 947              		.cfi_offset 4, -8
 948              		.cfi_offset 14, -4
 949 0002 82B0     		sub	sp, sp, #8
 950              	.LCFI30:
 951              		.cfi_def_cfa_offset 16
 952 0004 0446     		mov	r4, r0
1044:Device/Src/rtc.c **** 	uint8_t buf;
 953              		.loc 1 1044 2 is_stmt 1 view .LVU242
1045:Device/Src/rtc.c **** 	uint8_t osc_buf[2] = {0};
 954              		.loc 1 1045 2 view .LVU243
 955              		.loc 1 1045 10 is_stmt 0 view .LVU244
 956 0006 0023     		movs	r3, #0
 957 0008 ADF80430 		strh	r3, [sp, #4]	@ movhi
1046:Device/Src/rtc.c **** 
1047:Device/Src/rtc.c **** 	rtc_set_channel(channel, RTC_INIT_1006);
 958              		.loc 1 1047 2 is_stmt 1 view .LVU245
 959 000c 0321     		movs	r1, #3
 960 000e FFF7FEFF 		bl	rtc_set_channel
 961              	.LVL54:
1048:Device/Src/rtc.c **** 	buf = 0x40;
 962              		.loc 1 1048 2 view .LVU246
 963              		.loc 1 1048 6 is_stmt 0 view .LVU247
 964 0012 4023     		movs	r3, #64
 965 0014 8DF80730 		strb	r3, [sp, #7]
1049:Device/Src/rtc.c **** 	if(drv_wave1006_write_reg(DEV_SD8804, WAVE1006_REG_CTR3, 1, &buf) != WAVE1006_EXIT_OK)   //хГ╧Шйгс
 966              		.loc 1 1049 2 is_stmt 1 view .LVU248
 967              		.loc 1 1049 5 is_stmt 0 view .LVU249
 968 0018 0DF10703 		add	r3, sp, #7
 969 001c 0122     		movs	r2, #1
 970 001e 1121     		movs	r1, #17
 971 0020 0420     		movs	r0, #4
 972 0022 FFF7FEFF 		bl	drv_wave1006_write_reg
 973              	.LVL55:
 974              		.loc 1 1049 4 view .LVU250
 975 0026 0028     		cmp	r0, #0
 976 0028 62D1     		bne	.L63
1050:Device/Src/rtc.c **** 	{
ARM GAS  C:\Users\86158\AppData\Local\Temp\cco5xW5w.s 			page 37


1051:Device/Src/rtc.c **** 		return I2C_NO_ACK;
1052:Device/Src/rtc.c **** 	}
1053:Device/Src/rtc.c **** 	//я║тЯн╙SD3031╥Бв╟(╠ьпКтз╫Ь╡Бйтдёй╫ж╝г╟я║тЯё╛╥ЯтРп╬ф╛pad╦д╠Д)
1054:Device/Src/rtc.c **** 	if (drv_wave1006_read_reg(DEV_SD3068, WAVE1006_REG_USER_RAM_START + 20, 1, &buf) != WAVE1006_EXIT_
 977              		.loc 1 1054 2 is_stmt 1 view .LVU251
 978              		.loc 1 1054 6 is_stmt 0 view .LVU252
 979 002a 0DF10703 		add	r3, sp, #7
 980 002e 0122     		movs	r2, #1
 981 0030 4021     		movs	r1, #64
 982 0032 FFF7FEFF 		bl	drv_wave1006_read_reg
 983              	.LVL56:
 984              		.loc 1 1054 5 view .LVU253
 985 0036 0028     		cmp	r0, #0
 986 0038 5DD1     		bne	.L64
1055:Device/Src/rtc.c **** 	{
1056:Device/Src/rtc.c **** 		return I2C_NO_ACK;
1057:Device/Src/rtc.c **** 	}
1058:Device/Src/rtc.c **** 	buf &= ~0x0f;
 987              		.loc 1 1058 2 is_stmt 1 view .LVU254
 988              		.loc 1 1058 6 is_stmt 0 view .LVU255
 989 003a 9DF80730 		ldrb	r3, [sp, #7]	@ zero_extendqisi2
 990 003e 03F0F003 		and	r3, r3, #240
 991 0042 8DF80730 		strb	r3, [sp, #7]
1059:Device/Src/rtc.c **** 	buf |= 0x0c;//╦Ы╬щpadеДжц╠Мё╛╠Ю╨е12н╙3031
 992              		.loc 1 1059 2 is_stmt 1 view .LVU256
 993              		.loc 1 1059 6 is_stmt 0 view .LVU257
 994 0046 43F00C03 		orr	r3, r3, #12
 995 004a 8DF80730 		strb	r3, [sp, #7]
1060:Device/Src/rtc.c **** 	if (drv_wave1006_write_reg(DEV_SD3068, WAVE1006_REG_USER_RAM_START + 20, 1, &buf) != WAVE1006_EXIT
 996              		.loc 1 1060 2 is_stmt 1 view .LVU258
 997              		.loc 1 1060 6 is_stmt 0 view .LVU259
 998 004e 0DF10703 		add	r3, sp, #7
 999 0052 0122     		movs	r2, #1
 1000 0054 4021     		movs	r1, #64
 1001 0056 FFF7FEFF 		bl	drv_wave1006_write_reg
 1002              	.LVL57:
 1003              		.loc 1 1060 5 view .LVU260
 1004 005a 0028     		cmp	r0, #0
 1005 005c 4DD1     		bne	.L65
1061:Device/Src/rtc.c **** 	{
1062:Device/Src/rtc.c **** 		return I2C_NO_ACK;
1063:Device/Src/rtc.c **** 	}
1064:Device/Src/rtc.c **** 	if (wave1006_enter_test_mode(WAVE1006_TEST_PAD | WAVE1006_TEST_OSC | WAVE1006_TEST_ADC) != WAVE100
 1006              		.loc 1 1064 2 is_stmt 1 view .LVU261
 1007              		.loc 1 1064 6 is_stmt 0 view .LVU262
 1008 005e 5420     		movs	r0, #84
 1009 0060 FFF7FEFF 		bl	wave1006_enter_test_mode
 1010              	.LVL58:
 1011              		.loc 1 1064 5 view .LVU263
 1012 0064 0028     		cmp	r0, #0
 1013 0066 4AD1     		bne	.L66
1065:Device/Src/rtc.c **** 	{
1066:Device/Src/rtc.c **** 		return I2C_NO_ACK;
1067:Device/Src/rtc.c **** 	}
1068:Device/Src/rtc.c **** 	UsbPrintf("pad change OK\n");
 1014              		.loc 1 1068 2 is_stmt 1 view .LVU264
 1015 0068 2A48     		ldr	r0, .L72
ARM GAS  C:\Users\86158\AppData\Local\Temp\cco5xW5w.s 			page 38


 1016 006a FFF7FEFF 		bl	UsbPrintf
 1017              	.LVL59:
1069:Device/Src/rtc.c **** 	HAL_Delay(5);
 1018              		.loc 1 1069 2 view .LVU265
 1019 006e 0520     		movs	r0, #5
 1020 0070 FFF7FEFF 		bl	HAL_Delay
 1021              	.LVL60:
1070:Device/Src/rtc.c **** 	rtc_set_channel(channel, RTC_SD3031);
 1022              		.loc 1 1070 2 view .LVU266
 1023 0074 0421     		movs	r1, #4
 1024 0076 2046     		mov	r0, r4
 1025 0078 FFF7FEFF 		bl	rtc_set_channel
 1026              	.LVL61:
1071:Device/Src/rtc.c **** 	if (drv_wave1006_read_reg(DEV_SD3068, WAVE1006_REG_USER_RAM_START + 19, 1, &buf) != WAVE1006_EXIT_
 1027              		.loc 1 1071 2 view .LVU267
 1028              		.loc 1 1071 6 is_stmt 0 view .LVU268
 1029 007c 0DF10703 		add	r3, sp, #7
 1030 0080 0122     		movs	r2, #1
 1031 0082 3F21     		movs	r1, #63
 1032 0084 0020     		movs	r0, #0
 1033 0086 FFF7FEFF 		bl	drv_wave1006_read_reg
 1034              	.LVL62:
 1035              		.loc 1 1071 5 view .LVU269
 1036 008a D0BB     		cbnz	r0, .L67
1072:Device/Src/rtc.c **** 	{
1073:Device/Src/rtc.c **** 		return I2C_NO_ACK;
1074:Device/Src/rtc.c **** 	}
1075:Device/Src/rtc.c **** 	buf &= ~0x28;   //гЕ0 RuleTempAdj[2:0]      //ADCЁъвс тщя║5
 1037              		.loc 1 1075 2 is_stmt 1 view .LVU270
 1038              		.loc 1 1075 6 is_stmt 0 view .LVU271
 1039 008c 9DF80730 		ldrb	r3, [sp, #7]	@ zero_extendqisi2
 1040 0090 03F0D703 		and	r3, r3, #215
 1041 0094 8DF80730 		strb	r3, [sp, #7]
1076:Device/Src/rtc.c **** 	buf |=  0x28;
 1042              		.loc 1 1076 2 is_stmt 1 view .LVU272
 1043              		.loc 1 1076 6 is_stmt 0 view .LVU273
 1044 0098 43F02803 		orr	r3, r3, #40
 1045 009c 8DF80730 		strb	r3, [sp, #7]
1077:Device/Src/rtc.c **** 	if (drv_wave1006_write_reg(DEV_SD3068, WAVE1006_REG_USER_RAM_START + 19, 1, &buf) != WAVE1006_EXIT
 1046              		.loc 1 1077 2 is_stmt 1 view .LVU274
 1047              		.loc 1 1077 6 is_stmt 0 view .LVU275
 1048 00a0 0DF10703 		add	r3, sp, #7
 1049 00a4 0122     		movs	r2, #1
 1050 00a6 3F21     		movs	r1, #63
 1051 00a8 FFF7FEFF 		bl	drv_wave1006_write_reg
 1052              	.LVL63:
 1053              		.loc 1 1077 5 view .LVU276
 1054 00ac 58BB     		cbnz	r0, .L68
1078:Device/Src/rtc.c **** 	{
1079:Device/Src/rtc.c **** 		return I2C_NO_ACK;
1080:Device/Src/rtc.c **** 	}
1081:Device/Src/rtc.c **** 
1082:Device/Src/rtc.c **** 	//1║╒еДжц╨цOSC TEST╡нйЩ     RAM24║╒RAM25
1083:Device/Src/rtc.c **** 	if (drv_wave1006_read_reg(DEV_SD8804, WAVE1006_REG_USER_RAM_START + 24, 1, &osc_buf[1]) != WAVE100
 1055              		.loc 1 1083 2 is_stmt 1 view .LVU277
 1056              		.loc 1 1083 6 is_stmt 0 view .LVU278
 1057 00ae 0DF10503 		add	r3, sp, #5
ARM GAS  C:\Users\86158\AppData\Local\Temp\cco5xW5w.s 			page 39


 1058 00b2 0122     		movs	r2, #1
 1059 00b4 4421     		movs	r1, #68
 1060 00b6 0420     		movs	r0, #4
 1061 00b8 FFF7FEFF 		bl	drv_wave1006_read_reg
 1062              	.LVL64:
 1063              		.loc 1 1083 5 view .LVU279
 1064 00bc 28BB     		cbnz	r0, .L69
1084:Device/Src/rtc.c **** 	{
1085:Device/Src/rtc.c **** 		return I2C_NO_ACK;
1086:Device/Src/rtc.c **** 	}
1087:Device/Src/rtc.c **** 	osc_buf[0]  = 0xf7;   //ram24
 1065              		.loc 1 1087 2 is_stmt 1 view .LVU280
 1066              		.loc 1 1087 14 is_stmt 0 view .LVU281
 1067 00be F723     		movs	r3, #247
 1068 00c0 8DF80430 		strb	r3, [sp, #4]
1088:Device/Src/rtc.c **** 	osc_buf[1] &= ~0x1f;
 1069              		.loc 1 1088 2 is_stmt 1 view .LVU282
 1070              		.loc 1 1088 13 is_stmt 0 view .LVU283
 1071 00c4 9DF80530 		ldrb	r3, [sp, #5]	@ zero_extendqisi2
 1072 00c8 03F0E003 		and	r3, r3, #224
 1073 00cc 8DF80530 		strb	r3, [sp, #5]
1089:Device/Src/rtc.c **** 	osc_buf[1] |= 0x19;		//ram25
 1074              		.loc 1 1089 2 is_stmt 1 view .LVU284
 1075              		.loc 1 1089 13 is_stmt 0 view .LVU285
 1076 00d0 43F01903 		orr	r3, r3, #25
 1077 00d4 8DF80530 		strb	r3, [sp, #5]
1090:Device/Src/rtc.c **** 	if (drv_wave1006_write_reg(DEV_SD8804, WAVE1006_REG_USER_RAM_START + 23, 2, osc_buf) != WAVE1006_E
 1078              		.loc 1 1090 2 is_stmt 1 view .LVU286
 1079              		.loc 1 1090 6 is_stmt 0 view .LVU287
 1080 00d8 01AB     		add	r3, sp, #4
 1081 00da 0222     		movs	r2, #2
 1082 00dc 4321     		movs	r1, #67
 1083 00de 0420     		movs	r0, #4
 1084 00e0 FFF7FEFF 		bl	drv_wave1006_write_reg
 1085              	.LVL65:
 1086              		.loc 1 1090 5 view .LVU288
 1087 00e4 98B9     		cbnz	r0, .L70
1091:Device/Src/rtc.c **** 	{
1092:Device/Src/rtc.c **** 		return I2C_NO_ACK;
1093:Device/Src/rtc.c **** 	}
1094:Device/Src/rtc.c **** 	UsbPrintf("i2c OK after pad change \n");
 1088              		.loc 1 1094 2 is_stmt 1 view .LVU289
 1089 00e6 0C48     		ldr	r0, .L72+4
 1090 00e8 FFF7FEFF 		bl	UsbPrintf
 1091              	.LVL66:
1095:Device/Src/rtc.c **** 	
1096:Device/Src/rtc.c **** 	return I2C_OK;
 1092              		.loc 1 1096 2 view .LVU290
 1093              		.loc 1 1096 9 is_stmt 0 view .LVU291
 1094 00ec 0020     		movs	r0, #0
 1095 00ee 00E0     		b	.L62
 1096              	.L63:
1051:Device/Src/rtc.c **** 	}
 1097              		.loc 1 1051 10 view .LVU292
 1098 00f0 0220     		movs	r0, #2
 1099              	.L62:
1097:Device/Src/rtc.c **** }
ARM GAS  C:\Users\86158\AppData\Local\Temp\cco5xW5w.s 			page 40


 1100              		.loc 1 1097 1 view .LVU293
 1101 00f2 02B0     		add	sp, sp, #8
 1102              	.LCFI31:
 1103              		.cfi_remember_state
 1104              		.cfi_def_cfa_offset 8
 1105              		@ sp needed
 1106 00f4 10BD     		pop	{r4, pc}
 1107              	.L64:
 1108              	.LCFI32:
 1109              		.cfi_restore_state
1056:Device/Src/rtc.c **** 	}
 1110              		.loc 1 1056 10 view .LVU294
 1111 00f6 0220     		movs	r0, #2
 1112 00f8 FBE7     		b	.L62
 1113              	.L65:
1062:Device/Src/rtc.c **** 	}
 1114              		.loc 1 1062 10 view .LVU295
 1115 00fa 0220     		movs	r0, #2
 1116 00fc F9E7     		b	.L62
 1117              	.L66:
1066:Device/Src/rtc.c **** 	}
 1118              		.loc 1 1066 10 view .LVU296
 1119 00fe 0220     		movs	r0, #2
 1120 0100 F7E7     		b	.L62
 1121              	.L67:
1073:Device/Src/rtc.c **** 	}
 1122              		.loc 1 1073 10 view .LVU297
 1123 0102 0220     		movs	r0, #2
 1124 0104 F5E7     		b	.L62
 1125              	.L68:
1079:Device/Src/rtc.c **** 	}
 1126              		.loc 1 1079 10 view .LVU298
 1127 0106 0220     		movs	r0, #2
 1128 0108 F3E7     		b	.L62
 1129              	.L69:
1085:Device/Src/rtc.c **** 	}
 1130              		.loc 1 1085 10 view .LVU299
 1131 010a 0220     		movs	r0, #2
 1132 010c F1E7     		b	.L62
 1133              	.L70:
1092:Device/Src/rtc.c **** 	}
 1134              		.loc 1 1092 10 view .LVU300
 1135 010e 0220     		movs	r0, #2
 1136 0110 EFE7     		b	.L62
 1137              	.L73:
 1138 0112 00BF     		.align	2
 1139              	.L72:
 1140 0114 00000000 		.word	.LC1
 1141 0118 10000000 		.word	.LC2
 1142              		.cfi_endproc
 1143              	.LFE246:
 1145              		.section	.rodata.rtc_1006_exit_testmode.str1.4,"aMS",%progbits,1
 1146              		.align	2
 1147              	.LC3:
 1148 0000 74727920 		.ascii	"try to exit testmode\012\000"
 1148      746F2065 
 1148      78697420 
ARM GAS  C:\Users\86158\AppData\Local\Temp\cco5xW5w.s 			page 41


 1148      74657374 
 1148      6D6F6465 
 1149 0016 0000     		.align	2
 1150              	.LC4:
 1151 0018 65786974 		.ascii	"exit testmode success\012\000"
 1151      20746573 
 1151      746D6F64 
 1151      65207375 
 1151      63636573 
 1152              		.section	.text.rtc_1006_exit_testmode,"ax",%progbits
 1153              		.align	1
 1154              		.global	rtc_1006_exit_testmode
 1155              		.syntax unified
 1156              		.thumb
 1157              		.thumb_func
 1159              	rtc_1006_exit_testmode:
 1160              	.LVL67:
 1161              	.LFB247:
1098:Device/Src/rtc.c **** 
1099:Device/Src/rtc.c **** uint8_t rtc_1006_exit_testmode(uint8_t channel)
1100:Device/Src/rtc.c **** {
 1162              		.loc 1 1100 1 is_stmt 1 view -0
 1163              		.cfi_startproc
 1164              		@ args = 0, pretend = 0, frame = 8
 1165              		@ frame_needed = 0, uses_anonymous_args = 0
 1166              		.loc 1 1100 1 is_stmt 0 view .LVU302
 1167 0000 30B5     		push	{r4, r5, lr}
 1168              	.LCFI33:
 1169              		.cfi_def_cfa_offset 12
 1170              		.cfi_offset 4, -12
 1171              		.cfi_offset 5, -8
 1172              		.cfi_offset 14, -4
 1173 0002 83B0     		sub	sp, sp, #12
 1174              	.LCFI34:
 1175              		.cfi_def_cfa_offset 24
 1176 0004 0446     		mov	r4, r0
1101:Device/Src/rtc.c **** 	uint8_t buf = 0x00;
 1177              		.loc 1 1101 2 is_stmt 1 view .LVU303
 1178              		.loc 1 1101 10 is_stmt 0 view .LVU304
 1179 0006 0025     		movs	r5, #0
 1180 0008 8DF80750 		strb	r5, [sp, #7]
1102:Device/Src/rtc.c **** 		
1103:Device/Src/rtc.c **** 	UsbPrintf("try to exit testmode\n");
 1181              		.loc 1 1103 2 is_stmt 1 view .LVU305
 1182 000c 1048     		ldr	r0, .L79
 1183              	.LVL68:
 1184              		.loc 1 1103 2 is_stmt 0 view .LVU306
 1185 000e FFF7FEFF 		bl	UsbPrintf
 1186              	.LVL69:
1104:Device/Src/rtc.c **** 	rtc_set_channel(channel, RTC_SD3031);
 1187              		.loc 1 1104 2 is_stmt 1 view .LVU307
 1188 0012 0421     		movs	r1, #4
 1189 0014 2046     		mov	r0, r4
 1190 0016 FFF7FEFF 		bl	rtc_set_channel
 1191              	.LVL70:
1105:Device/Src/rtc.c **** 	buf = 0x00;
 1192              		.loc 1 1105 2 view .LVU308
ARM GAS  C:\Users\86158\AppData\Local\Temp\cco5xW5w.s 			page 42


 1193              		.loc 1 1105 6 is_stmt 0 view .LVU309
 1194 001a 8DF80750 		strb	r5, [sp, #7]
1106:Device/Src/rtc.c **** 	if (rtc_write_multi_bytes(RTC_3900_ADDRESS, WAVE1006_REG_EXTEND , &buf, 1) != I2C_OK) {
 1195              		.loc 1 1106 2 is_stmt 1 view .LVU310
 1196              		.loc 1 1106 6 is_stmt 0 view .LVU311
 1197 001e 0123     		movs	r3, #1
 1198 0020 0DF10702 		add	r2, sp, #7
 1199 0024 FD21     		movs	r1, #253
 1200 0026 6420     		movs	r0, #100
 1201 0028 FFF7FEFF 		bl	rtc_write_multi_bytes
 1202              	.LVL71:
 1203              		.loc 1 1106 5 view .LVU312
 1204 002c 50B9     		cbnz	r0, .L78
 1205 002e 0546     		mov	r5, r0
1107:Device/Src/rtc.c **** 		rtc_set_channel(channel, RTC_INIT_1006);
1108:Device/Src/rtc.c **** 		return I2C_NO_ACK;
1109:Device/Src/rtc.c **** 	} 
1110:Device/Src/rtc.c **** 	rtc_set_channel(channel, RTC_INIT_1006);
 1206              		.loc 1 1110 2 is_stmt 1 view .LVU313
 1207 0030 0321     		movs	r1, #3
 1208 0032 2046     		mov	r0, r4
 1209 0034 FFF7FEFF 		bl	rtc_set_channel
 1210              	.LVL72:
1111:Device/Src/rtc.c **** 	UsbPrintf("exit testmode success\n");
 1211              		.loc 1 1111 2 view .LVU314
 1212 0038 0648     		ldr	r0, .L79+4
 1213 003a FFF7FEFF 		bl	UsbPrintf
 1214              	.LVL73:
1112:Device/Src/rtc.c **** 	return I2C_OK;
 1215              		.loc 1 1112 2 view .LVU315
 1216              	.L76:
1113:Device/Src/rtc.c **** }
 1217              		.loc 1 1113 1 is_stmt 0 view .LVU316
 1218 003e 2846     		mov	r0, r5
 1219 0040 03B0     		add	sp, sp, #12
 1220              	.LCFI35:
 1221              		.cfi_remember_state
 1222              		.cfi_def_cfa_offset 12
 1223              		@ sp needed
 1224 0042 30BD     		pop	{r4, r5, pc}
 1225              	.L78:
 1226              	.LCFI36:
 1227              		.cfi_restore_state
1107:Device/Src/rtc.c **** 		return I2C_NO_ACK;
 1228              		.loc 1 1107 3 is_stmt 1 view .LVU317
 1229 0044 0321     		movs	r1, #3
 1230 0046 2046     		mov	r0, r4
 1231 0048 FFF7FEFF 		bl	rtc_set_channel
 1232              	.LVL74:
1108:Device/Src/rtc.c **** 	} 
 1233              		.loc 1 1108 3 view .LVU318
1108:Device/Src/rtc.c **** 	} 
 1234              		.loc 1 1108 10 is_stmt 0 view .LVU319
 1235 004c 0225     		movs	r5, #2
 1236 004e F6E7     		b	.L76
 1237              	.L80:
 1238              		.align	2
ARM GAS  C:\Users\86158\AppData\Local\Temp\cco5xW5w.s 			page 43


 1239              	.L79:
 1240 0050 00000000 		.word	.LC3
 1241 0054 18000000 		.word	.LC4
 1242              		.cfi_endproc
 1243              	.LFE247:
 1245              		.section	.text.rtc_exit_testmode,"ax",%progbits
 1246              		.align	1
 1247              		.global	rtc_exit_testmode
 1248              		.syntax unified
 1249              		.thumb
 1250              		.thumb_func
 1252              	rtc_exit_testmode:
 1253              	.LFB248:
1114:Device/Src/rtc.c **** 
1115:Device/Src/rtc.c **** uint8_t rtc_exit_testmode(void)
1116:Device/Src/rtc.c **** {
 1254              		.loc 1 1116 1 is_stmt 1 view -0
 1255              		.cfi_startproc
 1256              		@ args = 0, pretend = 0, frame = 8
 1257              		@ frame_needed = 0, uses_anonymous_args = 0
 1258 0000 10B5     		push	{r4, lr}
 1259              	.LCFI37:
 1260              		.cfi_def_cfa_offset 8
 1261              		.cfi_offset 4, -8
 1262              		.cfi_offset 14, -4
 1263 0002 82B0     		sub	sp, sp, #8
 1264              	.LCFI38:
 1265              		.cfi_def_cfa_offset 16
1117:Device/Src/rtc.c **** 	uint8_t config = 0x00;
 1266              		.loc 1 1117 2 view .LVU321
 1267              		.loc 1 1117 10 is_stmt 0 view .LVU322
 1268 0004 0023     		movs	r3, #0
 1269 0006 8DF80730 		strb	r3, [sp, #7]
1118:Device/Src/rtc.c **** 		
1119:Device/Src/rtc.c ****     rtc_write_lock_on();
 1270              		.loc 1 1119 5 is_stmt 1 view .LVU323
 1271 000a FFF7FEFF 		bl	rtc_write_lock_on
 1272              	.LVL75:
1120:Device/Src/rtc.c **** 	
1121:Device/Src/rtc.c **** 	if (rtc_write_multi_bytes(RTC_3900_ADDRESS, 0x47, &config, 1)!= I2C_OK) {
 1273              		.loc 1 1121 2 view .LVU324
 1274              		.loc 1 1121 6 is_stmt 0 view .LVU325
 1275 000e 0123     		movs	r3, #1
 1276 0010 0DF10702 		add	r2, sp, #7
 1277 0014 4721     		movs	r1, #71
 1278 0016 6420     		movs	r0, #100
 1279 0018 FFF7FEFF 		bl	rtc_write_multi_bytes
 1280              	.LVL76:
 1281              		.loc 1 1121 5 view .LVU326
 1282 001c 28B9     		cbnz	r0, .L85
 1283 001e 0446     		mov	r4, r0
1122:Device/Src/rtc.c ****         rtc_write_lock_off();
1123:Device/Src/rtc.c ****         return I2C_NO_ACK;
1124:Device/Src/rtc.c ****     } 
1125:Device/Src/rtc.c ****     rtc_write_lock_off();
 1284              		.loc 1 1125 5 is_stmt 1 view .LVU327
 1285 0020 FFF7FEFF 		bl	rtc_write_lock_off
ARM GAS  C:\Users\86158\AppData\Local\Temp\cco5xW5w.s 			page 44


 1286              	.LVL77:
1126:Device/Src/rtc.c **** 	
1127:Device/Src/rtc.c **** 	return I2C_OK;
 1287              		.loc 1 1127 2 view .LVU328
 1288              	.L83:
1128:Device/Src/rtc.c **** }
 1289              		.loc 1 1128 1 is_stmt 0 view .LVU329
 1290 0024 2046     		mov	r0, r4
 1291 0026 02B0     		add	sp, sp, #8
 1292              	.LCFI39:
 1293              		.cfi_remember_state
 1294              		.cfi_def_cfa_offset 8
 1295              		@ sp needed
 1296 0028 10BD     		pop	{r4, pc}
 1297              	.L85:
 1298              	.LCFI40:
 1299              		.cfi_restore_state
1122:Device/Src/rtc.c ****         rtc_write_lock_off();
 1300              		.loc 1 1122 9 is_stmt 1 view .LVU330
 1301 002a FFF7FEFF 		bl	rtc_write_lock_off
 1302              	.LVL78:
1123:Device/Src/rtc.c ****     } 
 1303              		.loc 1 1123 9 view .LVU331
1123:Device/Src/rtc.c ****     } 
 1304              		.loc 1 1123 16 is_stmt 0 view .LVU332
 1305 002e 0224     		movs	r4, #2
 1306 0030 F8E7     		b	.L83
 1307              		.cfi_endproc
 1308              	.LFE248:
 1310              		.section	.text.rtc_read_otp,"ax",%progbits
 1311              		.align	1
 1312              		.global	rtc_read_otp
 1313              		.syntax unified
 1314              		.thumb
 1315              		.thumb_func
 1317              	rtc_read_otp:
 1318              	.LFB249:
1129:Device/Src/rtc.c **** 
1130:Device/Src/rtc.c **** 
1131:Device/Src/rtc.c **** uint8_t rtc_read_otp(void)
1132:Device/Src/rtc.c **** {
 1319              		.loc 1 1132 1 is_stmt 1 view -0
 1320              		.cfi_startproc
 1321              		@ args = 0, pretend = 0, frame = 0
 1322              		@ frame_needed = 0, uses_anonymous_args = 0
 1323 0000 10B5     		push	{r4, lr}
 1324              	.LCFI41:
 1325              		.cfi_def_cfa_offset 8
 1326              		.cfi_offset 4, -8
 1327              		.cfi_offset 14, -4
1133:Device/Src/rtc.c **** 	memset(g_otpBuffer, 0xff, OTP_LENGTH_SD3900);
 1328              		.loc 1 1133 2 view .LVU334
 1329 0002 094C     		ldr	r4, .L91
 1330 0004 4FF48062 		mov	r2, #1024
 1331 0008 FF21     		movs	r1, #255
 1332 000a 2046     		mov	r0, r4
 1333 000c FFF7FEFF 		bl	memset
ARM GAS  C:\Users\86158\AppData\Local\Temp\cco5xW5w.s 			page 45


 1334              	.LVL79:
1134:Device/Src/rtc.c ****     if (rtc_read_multi_bytes(RTC_3900_ADDRESS, 0x72, g_otpBuffer, OTP_LENGTH_SD3900)!= I2C_OK) {
 1335              		.loc 1 1134 5 view .LVU335
 1336              		.loc 1 1134 9 is_stmt 0 view .LVU336
 1337 0010 4FF48063 		mov	r3, #1024
 1338 0014 2246     		mov	r2, r4
 1339 0016 7221     		movs	r1, #114
 1340 0018 6420     		movs	r0, #100
 1341 001a FFF7FEFF 		bl	rtc_read_multi_bytes
 1342              	.LVL80:
 1343              		.loc 1 1134 8 view .LVU337
 1344 001e 00B9     		cbnz	r0, .L90
 1345              	.L87:
1135:Device/Src/rtc.c ****         return I2C_NO_ACK;
1136:Device/Src/rtc.c ****     } 
1137:Device/Src/rtc.c ****     return I2C_OK;
1138:Device/Src/rtc.c **** }
 1346              		.loc 1 1138 1 view .LVU338
 1347 0020 10BD     		pop	{r4, pc}
 1348              	.L90:
1135:Device/Src/rtc.c ****         return I2C_NO_ACK;
 1349              		.loc 1 1135 16 view .LVU339
 1350 0022 0220     		movs	r0, #2
 1351 0024 FCE7     		b	.L87
 1352              	.L92:
 1353 0026 00BF     		.align	2
 1354              	.L91:
 1355 0028 00000000 		.word	.LANCHOR0
 1356              		.cfi_endproc
 1357              	.LFE249:
 1359              		.section	.text.get_rtc_otp,"ax",%progbits
 1360              		.align	1
 1361              		.global	get_rtc_otp
 1362              		.syntax unified
 1363              		.thumb
 1364              		.thumb_func
 1366              	get_rtc_otp:
 1367              	.LFB250:
1139:Device/Src/rtc.c **** 
1140:Device/Src/rtc.c **** uint8_t* get_rtc_otp(void)
1141:Device/Src/rtc.c **** {
 1368              		.loc 1 1141 1 is_stmt 1 view -0
 1369              		.cfi_startproc
 1370              		@ args = 0, pretend = 0, frame = 0
 1371              		@ frame_needed = 0, uses_anonymous_args = 0
 1372              		@ link register save eliminated.
1142:Device/Src/rtc.c ****     return g_otpBuffer;
 1373              		.loc 1 1142 5 view .LVU341
1143:Device/Src/rtc.c **** }
 1374              		.loc 1 1143 1 is_stmt 0 view .LVU342
 1375 0000 0048     		ldr	r0, .L94
 1376 0002 7047     		bx	lr
 1377              	.L95:
 1378              		.align	2
 1379              	.L94:
 1380 0004 00000000 		.word	.LANCHOR0
 1381              		.cfi_endproc
ARM GAS  C:\Users\86158\AppData\Local\Temp\cco5xW5w.s 			page 46


 1382              	.LFE250:
 1384              		.section	.text.rtc_set_int_channel,"ax",%progbits
 1385              		.align	1
 1386              		.global	rtc_set_int_channel
 1387              		.syntax unified
 1388              		.thumb
 1389              		.thumb_func
 1391              	rtc_set_int_channel:
 1392              	.LVL81:
 1393              	.LFB251:
1144:Device/Src/rtc.c **** 
1145:Device/Src/rtc.c **** void rtc_set_int_channel(uint8_t channel)
1146:Device/Src/rtc.c **** {
 1394              		.loc 1 1146 1 is_stmt 1 view -0
 1395              		.cfi_startproc
 1396              		@ args = 0, pretend = 0, frame = 0
 1397              		@ frame_needed = 0, uses_anonymous_args = 0
 1398              		@ link register save eliminated.
1147:Device/Src/rtc.c ****     // uint8_t intChannel;
1148:Device/Src/rtc.c ****     // HAL_GPIO_WritePin(GPIOC, GPIO_PIN_1 | GPIO_PIN_3 | GPIO_PIN_5 | GPIO_PIN_7 | 
1149:Device/Src/rtc.c **** 	// 						GPIO_PIN_9| GPIO_PIN_11, GPIO_PIN_SET);
1150:Device/Src/rtc.c ****     // intChannel = (channel - 1) / 14;
1151:Device/Src/rtc.c ****     // HAL_GPIO_WritePin(GPIOE, GPIO_PIN_0, intChannel & 0x01);
1152:Device/Src/rtc.c ****     // HAL_GPIO_WritePin(GPIOE, GPIO_PIN_1, intChannel & 0x02);
1153:Device/Src/rtc.c ****     // HAL_GPIO_WritePin(GPIOE, GPIO_PIN_2, intChannel & 0x04);
1154:Device/Src/rtc.c ****     // HAL_GPIO_WritePin(GPIOE, GPIO_PIN_3, GPIO_PIN_RESET);
1155:Device/Src/rtc.c **** }
 1399              		.loc 1 1155 1 view .LVU344
 1400 0000 7047     		bx	lr
 1401              		.cfi_endproc
 1402              	.LFE251:
 1404              		.section	.text.rtc_read_otp_data,"ax",%progbits
 1405              		.align	1
 1406              		.global	rtc_read_otp_data
 1407              		.syntax unified
 1408              		.thumb
 1409              		.thumb_func
 1411              	rtc_read_otp_data:
 1412              	.LVL82:
 1413              	.LFB252:
1156:Device/Src/rtc.c **** 
1157:Device/Src/rtc.c **** uint8_t rtc_read_otp_data(uint8_t* buffer, uint16_t startAddress, uint16_t length)
1158:Device/Src/rtc.c **** {
 1414              		.loc 1 1158 1 view -0
 1415              		.cfi_startproc
 1416              		@ args = 0, pretend = 0, frame = 0
 1417              		@ frame_needed = 0, uses_anonymous_args = 0
1159:Device/Src/rtc.c ****     int i;
 1418              		.loc 1 1159 5 view .LVU346
1160:Device/Src/rtc.c ****     if (startAddress < 0x72) { return I2C_START_FAIL; }
 1419              		.loc 1 1160 5 view .LVU347
 1420              		.loc 1 1160 8 is_stmt 0 view .LVU348
 1421 0000 7129     		cmp	r1, #113
 1422 0002 01D8     		bhi	.L107
 1423              		.loc 1 1160 39 view .LVU349
 1424 0004 0120     		movs	r0, #1
 1425              	.LVL83:
ARM GAS  C:\Users\86158\AppData\Local\Temp\cco5xW5w.s 			page 47


1161:Device/Src/rtc.c **** 	memset(g_otpBuffer, 0xff, OTP_LENGTH_SD3900);
1162:Device/Src/rtc.c ****     if (rtc_read_multi_bytes(RTC_3900_ADDRESS, 0x72, g_otpBuffer, startAddress - 0x72 + length) != 
1163:Device/Src/rtc.c ****         return I2C_NO_ACK;
1164:Device/Src/rtc.c ****     } 
1165:Device/Src/rtc.c ****     for (i = 0; i < length; i++) {
1166:Device/Src/rtc.c ****         buffer[i] = g_otpBuffer[startAddress - 0x72 + i];
1167:Device/Src/rtc.c ****     }
1168:Device/Src/rtc.c ****     return I2C_OK;
1169:Device/Src/rtc.c **** }
 1426              		.loc 1 1169 1 view .LVU350
 1427 0006 7047     		bx	lr
 1428              	.LVL84:
 1429              	.L107:
1158:Device/Src/rtc.c ****     int i;
 1430              		.loc 1 1158 1 view .LVU351
 1431 0008 F8B5     		push	{r3, r4, r5, r6, r7, lr}
 1432              	.LCFI42:
 1433              		.cfi_def_cfa_offset 24
 1434              		.cfi_offset 3, -24
 1435              		.cfi_offset 4, -20
 1436              		.cfi_offset 5, -16
 1437              		.cfi_offset 6, -12
 1438              		.cfi_offset 7, -8
 1439              		.cfi_offset 14, -4
 1440 000a 0646     		mov	r6, r0
 1441 000c 0C46     		mov	r4, r1
 1442 000e 1546     		mov	r5, r2
1161:Device/Src/rtc.c **** 	memset(g_otpBuffer, 0xff, OTP_LENGTH_SD3900);
 1443              		.loc 1 1161 2 is_stmt 1 view .LVU352
 1444 0010 0F4F     		ldr	r7, .L108
 1445 0012 4FF48062 		mov	r2, #1024
 1446              	.LVL85:
1161:Device/Src/rtc.c **** 	memset(g_otpBuffer, 0xff, OTP_LENGTH_SD3900);
 1447              		.loc 1 1161 2 is_stmt 0 view .LVU353
 1448 0016 FF21     		movs	r1, #255
 1449              	.LVL86:
1161:Device/Src/rtc.c **** 	memset(g_otpBuffer, 0xff, OTP_LENGTH_SD3900);
 1450              		.loc 1 1161 2 view .LVU354
 1451 0018 3846     		mov	r0, r7
 1452              	.LVL87:
1161:Device/Src/rtc.c **** 	memset(g_otpBuffer, 0xff, OTP_LENGTH_SD3900);
 1453              		.loc 1 1161 2 view .LVU355
 1454 001a FFF7FEFF 		bl	memset
 1455              	.LVL88:
1162:Device/Src/rtc.c ****         return I2C_NO_ACK;
 1456              		.loc 1 1162 5 is_stmt 1 view .LVU356
1162:Device/Src/rtc.c ****         return I2C_NO_ACK;
 1457              		.loc 1 1162 87 is_stmt 0 view .LVU357
 1458 001e 6319     		adds	r3, r4, r5
 1459 0020 9BB2     		uxth	r3, r3
1162:Device/Src/rtc.c ****         return I2C_NO_ACK;
 1460              		.loc 1 1162 9 view .LVU358
 1461 0022 723B     		subs	r3, r3, #114
 1462 0024 9BB2     		uxth	r3, r3
 1463 0026 3A46     		mov	r2, r7
 1464 0028 7221     		movs	r1, #114
 1465 002a 6420     		movs	r0, #100
ARM GAS  C:\Users\86158\AppData\Local\Temp\cco5xW5w.s 			page 48


 1466 002c FFF7FEFF 		bl	rtc_read_multi_bytes
 1467              	.LVL89:
 1468 0030 0346     		mov	r3, r0
1162:Device/Src/rtc.c ****         return I2C_NO_ACK;
 1469              		.loc 1 1162 8 view .LVU359
 1470 0032 48B1     		cbz	r0, .L99
1163:Device/Src/rtc.c ****     } 
 1471              		.loc 1 1163 16 view .LVU360
 1472 0034 0220     		movs	r0, #2
 1473 0036 09E0     		b	.L98
 1474              	.LVL90:
 1475              	.L100:
1166:Device/Src/rtc.c ****     }
 1476              		.loc 1 1166 9 is_stmt 1 discriminator 3 view .LVU361
1166:Device/Src/rtc.c ****     }
 1477              		.loc 1 1166 46 is_stmt 0 discriminator 3 view .LVU362
 1478 0038 A4F1720C 		sub	ip, r4, #114
1166:Device/Src/rtc.c ****     }
 1479              		.loc 1 1166 53 discriminator 3 view .LVU363
 1480 003c 9C44     		add	ip, ip, r3
1166:Device/Src/rtc.c ****     }
 1481              		.loc 1 1166 32 discriminator 3 view .LVU364
 1482 003e 044A     		ldr	r2, .L108
 1483 0040 12F80C20 		ldrb	r2, [r2, ip]	@ zero_extendqisi2
1166:Device/Src/rtc.c ****     }
 1484              		.loc 1 1166 19 discriminator 3 view .LVU365
 1485 0044 F254     		strb	r2, [r6, r3]
1165:Device/Src/rtc.c ****         buffer[i] = g_otpBuffer[startAddress - 0x72 + i];
 1486              		.loc 1 1165 29 is_stmt 1 discriminator 3 view .LVU366
1165:Device/Src/rtc.c ****         buffer[i] = g_otpBuffer[startAddress - 0x72 + i];
 1487              		.loc 1 1165 30 is_stmt 0 discriminator 3 view .LVU367
 1488 0046 0133     		adds	r3, r3, #1
 1489              	.LVL91:
 1490              	.L99:
1165:Device/Src/rtc.c ****         buffer[i] = g_otpBuffer[startAddress - 0x72 + i];
 1491              		.loc 1 1165 17 is_stmt 1 discriminator 1 view .LVU368
1165:Device/Src/rtc.c ****         buffer[i] = g_otpBuffer[startAddress - 0x72 + i];
 1492              		.loc 1 1165 5 is_stmt 0 discriminator 1 view .LVU369
 1493 0048 9D42     		cmp	r5, r3
 1494 004a F5DC     		bgt	.L100
 1495              	.LVL92:
 1496              	.L98:
 1497              		.loc 1 1169 1 view .LVU370
 1498 004c F8BD     		pop	{r3, r4, r5, r6, r7, pc}
 1499              	.LVL93:
 1500              	.L109:
 1501              		.loc 1 1169 1 view .LVU371
 1502 004e 00BF     		.align	2
 1503              	.L108:
 1504 0050 00000000 		.word	.LANCHOR0
 1505              		.cfi_endproc
 1506              	.LFE252:
 1508              		.section	.text.rtc_convert_temp_offset,"ax",%progbits
 1509              		.align	1
 1510              		.global	rtc_convert_temp_offset
 1511              		.syntax unified
 1512              		.thumb
ARM GAS  C:\Users\86158\AppData\Local\Temp\cco5xW5w.s 			page 49


 1513              		.thumb_func
 1515              	rtc_convert_temp_offset:
 1516              	.LVL94:
 1517              	.LFB253:
1170:Device/Src/rtc.c **** 
1171:Device/Src/rtc.c **** uint8_t rtc_convert_temp_offset(float rtc_adc, float system_temp)
1172:Device/Src/rtc.c **** {
 1518              		.loc 1 1172 1 is_stmt 1 view -0
 1519              		.cfi_startproc
 1520              		@ args = 0, pretend = 0, frame = 8
 1521              		@ frame_needed = 0, uses_anonymous_args = 0
 1522              		@ link register save eliminated.
 1523              		.loc 1 1172 1 is_stmt 0 view .LVU373
 1524 0000 82B0     		sub	sp, sp, #8
 1525              	.LCFI43:
 1526              		.cfi_def_cfa_offset 8
1173:Device/Src/rtc.c **** 	uint8_t offset;
 1527              		.loc 1 1173 2 is_stmt 1 view .LVU374
1174:Device/Src/rtc.c **** 	offset = (uint8_t)(((rtc_adc - (system_temp + 60) * 2)) * 2 - 48);//оЙ╪Шп╬ф╛иХ╪фйж╡Аё╛фПй╪-60╤хё╛╣
 1528              		.loc 1 1174 2 view .LVU375
 1529              		.loc 1 1174 46 is_stmt 0 view .LVU376
 1530 0002 DFED0B7A 		vldr.32	s15, .L112
 1531 0006 70EEA70A 		vadd.f32	s1, s1, s15
 1532              	.LVL95:
 1533              		.loc 1 1174 52 view .LVU377
 1534 000a 70EEA00A 		vadd.f32	s1, s1, s1
 1535              		.loc 1 1174 31 view .LVU378
 1536 000e 30EE600A 		vsub.f32	s0, s0, s1
 1537              	.LVL96:
 1538              		.loc 1 1174 58 view .LVU379
 1539 0012 30EE000A 		vadd.f32	s0, s0, s0
 1540              		.loc 1 1174 62 view .LVU380
 1541 0016 DFED077A 		vldr.32	s15, .L112+4
 1542 001a 30EE670A 		vsub.f32	s0, s0, s15
 1543              		.loc 1 1174 9 view .LVU381
 1544 001e FCEEC07A 		vcvt.u32.f32	s15, s0
 1545 0022 CDED017A 		vstr.32	s15, [sp, #4]	@ int
 1546              	.LVL97:
1175:Device/Src/rtc.c **** 	return offset;
 1547              		.loc 1 1175 2 is_stmt 1 view .LVU382
1176:Device/Src/rtc.c **** }
 1548              		.loc 1 1176 1 is_stmt 0 view .LVU383
 1549 0026 9DF80400 		ldrb	r0, [sp, #4]	@ zero_extendqisi2
 1550 002a 02B0     		add	sp, sp, #8
 1551              	.LCFI44:
 1552              		.cfi_def_cfa_offset 0
 1553              	.LVL98:
 1554              		.loc 1 1176 1 view .LVU384
 1555              		@ sp needed
 1556 002c 7047     		bx	lr
 1557              	.L113:
 1558 002e 00BF     		.align	2
 1559              	.L112:
 1560 0030 00007042 		.word	1114636288
 1561 0034 00004042 		.word	1111490560
 1562              		.cfi_endproc
 1563              	.LFE253:
ARM GAS  C:\Users\86158\AppData\Local\Temp\cco5xW5w.s 			page 50


 1565              		.section	.text.rtc_write_otp_config,"ax",%progbits
 1566              		.align	1
 1567              		.global	rtc_write_otp_config
 1568              		.syntax unified
 1569              		.thumb
 1570              		.thumb_func
 1572              	rtc_write_otp_config:
 1573              	.LFB254:
1177:Device/Src/rtc.c **** 
1178:Device/Src/rtc.c **** uint8_t rtc_write_otp_config(void)
1179:Device/Src/rtc.c **** {
 1574              		.loc 1 1179 1 is_stmt 1 view -0
 1575              		.cfi_startproc
 1576              		@ args = 0, pretend = 0, frame = 16
 1577              		@ frame_needed = 0, uses_anonymous_args = 0
 1578 0000 00B5     		push	{lr}
 1579              	.LCFI45:
 1580              		.cfi_def_cfa_offset 4
 1581              		.cfi_offset 14, -4
 1582 0002 85B0     		sub	sp, sp, #20
 1583              	.LCFI46:
 1584              		.cfi_def_cfa_offset 24
1180:Device/Src/rtc.c ****     uint8_t config[16]=	{0xBC, 0xEB, 0xFF, 0xFF, 0x2F, 0xFF, 0xFF, 0xFE, 0x22, 0xFF, 0x00, 0x00, 0x
 1585              		.loc 1 1180 5 view .LVU386
 1586              		.loc 1 1180 13 is_stmt 0 view .LVU387
 1587 0004 064B     		ldr	r3, .L116
 1588 0006 EC46     		mov	ip, sp
 1589 0008 0FCB     		ldm	r3, {r0, r1, r2, r3}
 1590 000a 8CE80F00 		stm	ip, {r0, r1, r2, r3}
1181:Device/Src/rtc.c ****     // uint8_t config[16]=	{0xBC, 0xEF, 0xFF, 0xFF, 0x2F, 0xFF, 0xFF, 0xFE, 0x22, 0xFF, 0x00, 0x00,
1182:Device/Src/rtc.c ****     uint8_t i2c_result;
 1591              		.loc 1 1182 5 is_stmt 1 view .LVU388
1183:Device/Src/rtc.c ****     i2c_result = rtc_download_otp_data(config, 0x162, 16);//0x162 is config0 address
 1592              		.loc 1 1183 5 view .LVU389
 1593              		.loc 1 1183 18 is_stmt 0 view .LVU390
 1594 000e 1022     		movs	r2, #16
 1595 0010 4FF4B171 		mov	r1, #354
 1596 0014 6046     		mov	r0, ip
 1597 0016 FFF7FEFF 		bl	rtc_download_otp_data
 1598              	.LVL99:
1184:Device/Src/rtc.c ****     return i2c_result;
 1599              		.loc 1 1184 5 is_stmt 1 view .LVU391
1185:Device/Src/rtc.c **** } 
 1600              		.loc 1 1185 1 is_stmt 0 view .LVU392
 1601 001a 05B0     		add	sp, sp, #20
 1602              	.LCFI47:
 1603              		.cfi_def_cfa_offset 4
 1604              		@ sp needed
 1605 001c 5DF804FB 		ldr	pc, [sp], #4
 1606              	.L117:
 1607              		.align	2
 1608              	.L116:
 1609 0020 00000000 		.word	.LANCHOR1
 1610              		.cfi_endproc
 1611              	.LFE254:
 1613              		.section	.text.rtc_init_test_cap,"ax",%progbits
 1614              		.align	1
ARM GAS  C:\Users\86158\AppData\Local\Temp\cco5xW5w.s 			page 51


 1615              		.global	rtc_init_test_cap
 1616              		.syntax unified
 1617              		.thumb
 1618              		.thumb_func
 1620              	rtc_init_test_cap:
 1621              	.LVL100:
 1622              	.LFB255:
1186:Device/Src/rtc.c **** 
1187:Device/Src/rtc.c **** 
1188:Device/Src/rtc.c **** uint16_t rtc_init_test_cap(float temp)
1189:Device/Src/rtc.c **** {
 1623              		.loc 1 1189 1 is_stmt 1 view -0
 1624              		.cfi_startproc
 1625              		@ args = 0, pretend = 0, frame = 0
 1626              		@ frame_needed = 0, uses_anonymous_args = 0
 1627              		@ link register save eliminated.
1190:Device/Src/rtc.c **** 	uint16_t cap = 800;
 1628              		.loc 1 1190 2 view .LVU394
1191:Device/Src/rtc.c **** 	if (temp > -45 && temp <= -35)		//-40
 1629              		.loc 1 1191 2 view .LVU395
 1630              		.loc 1 1191 5 is_stmt 0 view .LVU396
 1631 0000 DFED2D7A 		vldr.32	s15, .L141
 1632 0004 B4EEE70A 		vcmpe.f32	s0, s15
 1633 0008 F1EE10FA 		vmrs	APSR_nzcv, FPSCR
 1634 000c 06DD     		ble	.L119
 1635              		.loc 1 1191 17 discriminator 1 view .LVU397
 1636 000e DFED2B7A 		vldr.32	s15, .L141+4
 1637 0012 B4EEE70A 		vcmpe.f32	s0, s15
 1638 0016 F1EE10FA 		vmrs	APSR_nzcv, FPSCR
 1639 001a 3AD9     		bls	.L129
 1640              	.L119:
1192:Device/Src/rtc.c **** 	{
1193:Device/Src/rtc.c **** 		cap = 256;
1194:Device/Src/rtc.c **** 	}
1195:Device/Src/rtc.c **** 	else if (temp > -15 && temp <= -5)	//-10
 1641              		.loc 1 1195 7 is_stmt 1 view .LVU398
 1642              		.loc 1 1195 10 is_stmt 0 view .LVU399
 1643 001c FAEE0E7A 		vmov.f32	s15, #-1.5e+1
 1644 0020 B4EEE70A 		vcmpe.f32	s0, s15
 1645 0024 F1EE10FA 		vmrs	APSR_nzcv, FPSCR
 1646 0028 06DD     		ble	.L122
 1647              		.loc 1 1195 22 discriminator 1 view .LVU400
 1648 002a F9EE047A 		vmov.f32	s15, #-5.0e+0
 1649 002e B4EEE70A 		vcmpe.f32	s0, s15
 1650 0032 F1EE10FA 		vmrs	APSR_nzcv, FPSCR
 1651 0036 2FD9     		bls	.L130
 1652              	.L122:
1196:Device/Src/rtc.c **** 	{
1197:Device/Src/rtc.c **** 		cap = 486;
1198:Device/Src/rtc.c **** 	}
1199:Device/Src/rtc.c **** 	else if (temp > 10 && temp <= 35)		//29
 1653              		.loc 1 1199 7 is_stmt 1 view .LVU401
 1654              		.loc 1 1199 10 is_stmt 0 view .LVU402
 1655 0038 F2EE047A 		vmov.f32	s15, #1.0e+1
 1656 003c B4EEE70A 		vcmpe.f32	s0, s15
 1657 0040 F1EE10FA 		vmrs	APSR_nzcv, FPSCR
 1658 0044 06DD     		ble	.L124
ARM GAS  C:\Users\86158\AppData\Local\Temp\cco5xW5w.s 			page 52


 1659              		.loc 1 1199 21 discriminator 1 view .LVU403
 1660 0046 DFED1E7A 		vldr.32	s15, .L141+8
 1661 004a B4EEE70A 		vcmpe.f32	s0, s15
 1662 004e F1EE10FA 		vmrs	APSR_nzcv, FPSCR
 1663 0052 24D9     		bls	.L131
 1664              	.L124:
1200:Device/Src/rtc.c **** 	{
1201:Device/Src/rtc.c **** 		cap = 586;
1202:Device/Src/rtc.c **** 	}
1203:Device/Src/rtc.c **** 	else if (temp > 55 && temp <= 65)		//60
 1665              		.loc 1 1203 7 is_stmt 1 view .LVU404
 1666              		.loc 1 1203 10 is_stmt 0 view .LVU405
 1667 0054 DFED1B7A 		vldr.32	s15, .L141+12
 1668 0058 B4EEE70A 		vcmpe.f32	s0, s15
 1669 005c F1EE10FA 		vmrs	APSR_nzcv, FPSCR
 1670 0060 06DD     		ble	.L126
 1671              		.loc 1 1203 21 discriminator 1 view .LVU406
 1672 0062 DFED197A 		vldr.32	s15, .L141+16
 1673 0066 B4EEE70A 		vcmpe.f32	s0, s15
 1674 006a F1EE10FA 		vmrs	APSR_nzcv, FPSCR
 1675 006e 19D9     		bls	.L132
 1676              	.L126:
1204:Device/Src/rtc.c **** 	{
1205:Device/Src/rtc.c **** 		cap = 486;
1206:Device/Src/rtc.c **** 	}
1207:Device/Src/rtc.c **** 	else if (temp > 80 && temp <= 90)		//85
 1677              		.loc 1 1207 7 is_stmt 1 view .LVU407
 1678              		.loc 1 1207 10 is_stmt 0 view .LVU408
 1679 0070 DFED167A 		vldr.32	s15, .L141+20
 1680 0074 B4EEE70A 		vcmpe.f32	s0, s15
 1681 0078 F1EE10FA 		vmrs	APSR_nzcv, FPSCR
 1682 007c 15DD     		ble	.L140
 1683              		.loc 1 1207 21 discriminator 1 view .LVU409
 1684 007e DFED147A 		vldr.32	s15, .L141+24
 1685 0082 B4EEE70A 		vcmpe.f32	s0, s15
 1686 0086 F1EE10FA 		vmrs	APSR_nzcv, FPSCR
 1687 008a 11D9     		bls	.L134
1190:Device/Src/rtc.c **** 	if (temp > -45 && temp <= -35)		//-40
 1688              		.loc 1 1190 11 view .LVU410
 1689 008c 4FF44870 		mov	r0, #800
 1690 0090 7047     		bx	lr
 1691              	.L129:
1193:Device/Src/rtc.c **** 	}
 1692              		.loc 1 1193 7 view .LVU411
 1693 0092 4FF48070 		mov	r0, #256
 1694 0096 7047     		bx	lr
 1695              	.L130:
1197:Device/Src/rtc.c **** 	}
 1696              		.loc 1 1197 7 view .LVU412
 1697 0098 4FF4F370 		mov	r0, #486
 1698 009c 7047     		bx	lr
 1699              	.L131:
1201:Device/Src/rtc.c **** 	}
 1700              		.loc 1 1201 7 view .LVU413
 1701 009e 40F24A20 		movw	r0, #586
 1702 00a2 7047     		bx	lr
 1703              	.L132:
ARM GAS  C:\Users\86158\AppData\Local\Temp\cco5xW5w.s 			page 53


1205:Device/Src/rtc.c **** 	}
 1704              		.loc 1 1205 7 view .LVU414
 1705 00a4 4FF4F370 		mov	r0, #486
 1706 00a8 7047     		bx	lr
 1707              	.L140:
1190:Device/Src/rtc.c **** 	if (temp > -45 && temp <= -35)		//-40
 1708              		.loc 1 1190 11 view .LVU415
 1709 00aa 4FF44870 		mov	r0, #800
 1710 00ae 7047     		bx	lr
 1711              	.L134:
1208:Device/Src/rtc.c **** 	{
1209:Device/Src/rtc.c **** 		cap = 256;
 1712              		.loc 1 1209 7 view .LVU416
 1713 00b0 4FF48070 		mov	r0, #256
 1714              	.LVL101:
1210:Device/Src/rtc.c **** 	}
1211:Device/Src/rtc.c **** 	return cap;
 1715              		.loc 1 1211 2 is_stmt 1 view .LVU417
1212:Device/Src/rtc.c **** }
 1716              		.loc 1 1212 1 is_stmt 0 view .LVU418
 1717 00b4 7047     		bx	lr
 1718              	.L142:
 1719 00b6 00BF     		.align	2
 1720              	.L141:
 1721 00b8 000034C2 		.word	-1036779520
 1722 00bc 00000CC2 		.word	-1039400960
 1723 00c0 00000C42 		.word	1108082688
 1724 00c4 00005C42 		.word	1113325568
 1725 00c8 00008242 		.word	1115815936
 1726 00cc 0000A042 		.word	1117782016
 1727 00d0 0000B442 		.word	1119092736
 1728              		.cfi_endproc
 1729              	.LFE255:
 1731              		.global	__aeabi_i2d
 1732              		.global	__aeabi_dmul
 1733              		.global	__aeabi_dadd
 1734              		.global	__aeabi_d2f
 1735              		.section	.text.cap_uint_to_float,"ax",%progbits
 1736              		.align	1
 1737              		.global	cap_uint_to_float
 1738              		.syntax unified
 1739              		.thumb
 1740              		.thumb_func
 1742              	cap_uint_to_float:
 1743              	.LVL102:
 1744              	.LFB256:
1213:Device/Src/rtc.c **** /*
1214:Device/Src/rtc.c **** OSCCapSel<12:11>	"уЯ╣╢фВрЩ╫еOSCIN╨мOSCOUT╢ж╣В╣Гхщя║тЯоН║ё
1215:Device/Src/rtc.c **** 00:0pF
1216:Device/Src/rtc.c **** 01:1.5pF
1217:Device/Src/rtc.c **** 10:3.0pF
1218:Device/Src/rtc.c **** 11:4.5pF"	
1219:Device/Src/rtc.c **** OSCCapSel<10:6>	"уЯ╣╢фВрЩ╫еOSCIN╨мOSCOUT╢н╪╤╢ж╣В╣Гхщя║тЯоН║ё╡╫╫Ьн╙408fF"
1220:Device/Src/rtc.c **** OSCCapSel<5:3>	"уЯ╣╢фВрЩ╫еOSCINо╦╣В╣Гхщя║тЯоН║ё╡╫╫Ьн╙51fF"
1221:Device/Src/rtc.c **** OSCCapSel<2:0>	"уЯ╣╢фВрЩ╫еOSCOUTо╦╣В╣Гхщя║тЯоН║ё╡╫╫Ьн╙51fF"	
1222:Device/Src/rtc.c **** */
1223:Device/Src/rtc.c **** float cap_uint_to_float(uint8_t cap1, uint8_t cap2)
ARM GAS  C:\Users\86158\AppData\Local\Temp\cco5xW5w.s 			page 54


1224:Device/Src/rtc.c **** {
 1745              		.loc 1 1224 1 is_stmt 1 view -0
 1746              		.cfi_startproc
 1747              		@ args = 0, pretend = 0, frame = 0
 1748              		@ frame_needed = 0, uses_anonymous_args = 0
 1749              		.loc 1 1224 1 is_stmt 0 view .LVU420
 1750 0000 D0B5     		push	{r4, r6, r7, lr}
 1751              	.LCFI48:
 1752              		.cfi_def_cfa_offset 16
 1753              		.cfi_offset 4, -16
 1754              		.cfi_offset 6, -12
 1755              		.cfi_offset 7, -8
 1756              		.cfi_offset 14, -4
1225:Device/Src/rtc.c **** 	float convert = 0;
 1757              		.loc 1 1225 2 is_stmt 1 view .LVU421
 1758              	.LVL103:
1226:Device/Src/rtc.c **** 	uint16_t cap_config = 0;
 1759              		.loc 1 1226 2 view .LVU422
1227:Device/Src/rtc.c **** 	cap_config = ((cap2 & 0x07) << 5) | (cap1 >> 3);
 1760              		.loc 1 1227 2 view .LVU423
 1761              		.loc 1 1227 30 is_stmt 0 view .LVU424
 1762 0002 4C01     		lsls	r4, r1, #5
 1763 0004 04F0E004 		and	r4, r4, #224
 1764              		.loc 1 1227 13 view .LVU425
 1765 0008 44EAD004 		orr	r4, r4, r0, lsr #3
 1766              	.LVL104:
1228:Device/Src/rtc.c **** 	convert = 1.5 * ((cap2 >> 3) & 0x03) + cap_config * 0.051;
 1767              		.loc 1 1228 2 is_stmt 1 view .LVU426
 1768              		.loc 1 1228 16 is_stmt 0 view .LVU427
 1769 000c C1F3C100 		ubfx	r0, r1, #3, #2
 1770              	.LVL105:
 1771              		.loc 1 1228 16 view .LVU428
 1772 0010 FFF7FEFF 		bl	__aeabi_i2d
 1773              	.LVL106:
 1774              		.loc 1 1228 16 view .LVU429
 1775 0014 0022     		movs	r2, #0
 1776 0016 0E4B     		ldr	r3, .L145+8
 1777 0018 FFF7FEFF 		bl	__aeabi_dmul
 1778              	.LVL107:
 1779 001c 0646     		mov	r6, r0
 1780 001e 0F46     		mov	r7, r1
 1781              		.loc 1 1228 52 view .LVU430
 1782 0020 2046     		mov	r0, r4
 1783 0022 FFF7FEFF 		bl	__aeabi_i2d
 1784              	.LVL108:
 1785 0026 08A3     		adr	r3, .L145
 1786 0028 D3E90023 		ldrd	r2, [r3]
 1787 002c FFF7FEFF 		bl	__aeabi_dmul
 1788              	.LVL109:
 1789 0030 0246     		mov	r2, r0
 1790 0032 0B46     		mov	r3, r1
 1791              		.loc 1 1228 39 view .LVU431
 1792 0034 3046     		mov	r0, r6
 1793 0036 3946     		mov	r1, r7
 1794 0038 FFF7FEFF 		bl	__aeabi_dadd
 1795              	.LVL110:
 1796              		.loc 1 1228 10 view .LVU432
ARM GAS  C:\Users\86158\AppData\Local\Temp\cco5xW5w.s 			page 55


 1797 003c FFF7FEFF 		bl	__aeabi_d2f
 1798              	.LVL111:
1229:Device/Src/rtc.c **** 	return convert;
 1799              		.loc 1 1229 2 is_stmt 1 view .LVU433
1230:Device/Src/rtc.c **** }
 1800              		.loc 1 1230 1 is_stmt 0 view .LVU434
 1801 0040 00EE100A 		vmov	s0, r0
 1802 0044 D0BD     		pop	{r4, r6, r7, pc}
 1803              	.LVL112:
 1804              	.L146:
 1805              		.loc 1 1230 1 view .LVU435
 1806 0046 00BF     		.align	3
 1807              	.L145:
 1808 0048 E9263108 		.word	137438953
 1809 004c AC1CAA3F 		.word	1068113068
 1810 0050 0000F83F 		.word	1073217536
 1811              		.cfi_endproc
 1812              	.LFE256:
 1814              		.section	.text.cap_config_to_float,"ax",%progbits
 1815              		.align	1
 1816              		.global	cap_config_to_float
 1817              		.syntax unified
 1818              		.thumb
 1819              		.thumb_func
 1821              	cap_config_to_float:
 1822              	.LVL113:
 1823              	.LFB257:
1231:Device/Src/rtc.c **** 
1232:Device/Src/rtc.c **** float cap_config_to_float(uint8_t mode, uint8_t cap)
1233:Device/Src/rtc.c **** {
 1824              		.loc 1 1233 1 is_stmt 1 view -0
 1825              		.cfi_startproc
 1826              		@ args = 0, pretend = 0, frame = 0
 1827              		@ frame_needed = 0, uses_anonymous_args = 0
 1828              		.loc 1 1233 1 is_stmt 0 view .LVU437
 1829 0000 70B5     		push	{r4, r5, r6, lr}
 1830              	.LCFI49:
 1831              		.cfi_def_cfa_offset 16
 1832              		.cfi_offset 4, -16
 1833              		.cfi_offset 5, -12
 1834              		.cfi_offset 6, -8
 1835              		.cfi_offset 14, -4
 1836 0002 0E46     		mov	r6, r1
1234:Device/Src/rtc.c **** 	float convert = 0;
 1837              		.loc 1 1234 2 is_stmt 1 view .LVU438
 1838              	.LVL114:
1235:Device/Src/rtc.c **** 	convert = 1.5 * mode + cap * 0.051;
 1839              		.loc 1 1235 2 view .LVU439
 1840              		.loc 1 1235 16 is_stmt 0 view .LVU440
 1841 0004 FFF7FEFF 		bl	__aeabi_i2d
 1842              	.LVL115:
 1843              		.loc 1 1235 16 view .LVU441
 1844 0008 0022     		movs	r2, #0
 1845 000a 0F4B     		ldr	r3, .L149+8
 1846 000c FFF7FEFF 		bl	__aeabi_dmul
 1847              	.LVL116:
 1848 0010 0446     		mov	r4, r0
ARM GAS  C:\Users\86158\AppData\Local\Temp\cco5xW5w.s 			page 56


 1849 0012 0D46     		mov	r5, r1
 1850              		.loc 1 1235 29 view .LVU442
 1851 0014 3046     		mov	r0, r6
 1852 0016 FFF7FEFF 		bl	__aeabi_i2d
 1853              	.LVL117:
 1854 001a 09A3     		adr	r3, .L149
 1855 001c D3E90023 		ldrd	r2, [r3]
 1856 0020 FFF7FEFF 		bl	__aeabi_dmul
 1857              	.LVL118:
 1858 0024 0246     		mov	r2, r0
 1859 0026 0B46     		mov	r3, r1
 1860              		.loc 1 1235 23 view .LVU443
 1861 0028 2046     		mov	r0, r4
 1862 002a 2946     		mov	r1, r5
 1863 002c FFF7FEFF 		bl	__aeabi_dadd
 1864              	.LVL119:
 1865              		.loc 1 1235 10 view .LVU444
 1866 0030 FFF7FEFF 		bl	__aeabi_d2f
 1867              	.LVL120:
1236:Device/Src/rtc.c **** 	return convert;
 1868              		.loc 1 1236 2 is_stmt 1 view .LVU445
1237:Device/Src/rtc.c **** }
 1869              		.loc 1 1237 1 is_stmt 0 view .LVU446
 1870 0034 00EE100A 		vmov	s0, r0
 1871 0038 70BD     		pop	{r4, r5, r6, pc}
 1872              	.L150:
 1873 003a 00BFAFF3 		.align	3
 1873      0080
 1874              	.L149:
 1875 0040 E9263108 		.word	137438953
 1876 0044 AC1CAA3F 		.word	1068113068
 1877 0048 0000F83F 		.word	1073217536
 1878              		.cfi_endproc
 1879              	.LFE257:
 1881              		.section	.text.cap_config_to_uint,"ax",%progbits
 1882              		.align	1
 1883              		.global	cap_config_to_uint
 1884              		.syntax unified
 1885              		.thumb
 1886              		.thumb_func
 1888              	cap_config_to_uint:
 1889              	.LVL121:
 1890              	.LFB258:
1238:Device/Src/rtc.c **** 
1239:Device/Src/rtc.c **** void cap_config_to_uint(uint8_t mode, uint8_t cap, uint8_t* cap_buf)
1240:Device/Src/rtc.c **** {
 1891              		.loc 1 1240 1 is_stmt 1 view -0
 1892              		.cfi_startproc
 1893              		@ args = 0, pretend = 0, frame = 0
 1894              		@ frame_needed = 0, uses_anonymous_args = 0
 1895              		@ link register save eliminated.
1241:Device/Src/rtc.c **** 	cap_buf[0] = ((cap & 0xff) << 3) | (cap & 0x07);
 1896              		.loc 1 1241 2 view .LVU448
 1897              		.loc 1 1241 42 is_stmt 0 view .LVU449
 1898 0000 01F00703 		and	r3, r1, #7
 1899              		.loc 1 1241 35 view .LVU450
 1900 0004 43EAC103 		orr	r3, r3, r1, lsl #3
ARM GAS  C:\Users\86158\AppData\Local\Temp\cco5xW5w.s 			page 57


 1901              		.loc 1 1241 13 view .LVU451
 1902 0008 1370     		strb	r3, [r2]
1242:Device/Src/rtc.c **** 	cap_buf[1] = ((mode & 0x03) << 3) | ((cap & 0xff) >> 5);
 1903              		.loc 1 1242 2 is_stmt 1 view .LVU452
 1904              		.loc 1 1242 30 is_stmt 0 view .LVU453
 1905 000a C000     		lsls	r0, r0, #3
 1906              	.LVL122:
 1907              		.loc 1 1242 30 view .LVU454
 1908 000c 00F01800 		and	r0, r0, #24
 1909              		.loc 1 1242 36 view .LVU455
 1910 0010 40EA5110 		orr	r0, r0, r1, lsr #5
 1911              		.loc 1 1242 13 view .LVU456
 1912 0014 5070     		strb	r0, [r2, #1]
1243:Device/Src/rtc.c **** }
 1913              		.loc 1 1243 1 view .LVU457
 1914 0016 7047     		bx	lr
 1915              		.cfi_endproc
 1916              	.LFE258:
 1918              		.section	.text.cap_list_to_uint,"ax",%progbits
 1919              		.align	1
 1920              		.global	cap_list_to_uint
 1921              		.syntax unified
 1922              		.thumb
 1923              		.thumb_func
 1925              	cap_list_to_uint:
 1926              	.LVL123:
 1927              	.LFB259:
1244:Device/Src/rtc.c **** 
1245:Device/Src/rtc.c **** void cap_list_to_uint(uint16_t number, uint8_t* cap_buf)
1246:Device/Src/rtc.c **** {
 1928              		.loc 1 1246 1 is_stmt 1 view -0
 1929              		.cfi_startproc
 1930              		@ args = 0, pretend = 0, frame = 0
 1931              		@ frame_needed = 0, uses_anonymous_args = 0
 1932              		@ link register save eliminated.
1247:Device/Src/rtc.c **** 	if (number <= SD8800_CAP_LIST_MAX) {
 1933              		.loc 1 1247 2 view .LVU459
 1934              		.loc 1 1247 5 is_stmt 0 view .LVU460
 1935 0000 B0F54B7F 		cmp	r0, #812
 1936 0004 07D8     		bhi	.L152
1248:Device/Src/rtc.c **** 		cap_buf[1] = g_capList[number][0];
 1937              		.loc 1 1248 3 is_stmt 1 view .LVU461
 1938              		.loc 1 1248 33 is_stmt 0 view .LVU462
 1939 0006 044B     		ldr	r3, .L154
 1940 0008 13F81020 		ldrb	r2, [r3, r0, lsl #1]	@ zero_extendqisi2
 1941              		.loc 1 1248 14 view .LVU463
 1942 000c 4A70     		strb	r2, [r1, #1]
1249:Device/Src/rtc.c **** 		cap_buf[0] = g_capList[number][1];
 1943              		.loc 1 1249 3 is_stmt 1 view .LVU464
 1944              		.loc 1 1249 33 is_stmt 0 view .LVU465
 1945 000e 03EB4000 		add	r0, r3, r0, lsl #1
 1946              	.LVL124:
 1947              		.loc 1 1249 33 view .LVU466
 1948 0012 4378     		ldrb	r3, [r0, #1]	@ zero_extendqisi2
 1949              		.loc 1 1249 14 view .LVU467
 1950 0014 0B70     		strb	r3, [r1]
 1951              	.L152:
ARM GAS  C:\Users\86158\AppData\Local\Temp\cco5xW5w.s 			page 58


1250:Device/Src/rtc.c **** 	}
1251:Device/Src/rtc.c **** }
 1952              		.loc 1 1251 1 view .LVU468
 1953 0016 7047     		bx	lr
 1954              	.L155:
 1955              		.align	2
 1956              	.L154:
 1957 0018 00000000 		.word	.LANCHOR2
 1958              		.cfi_endproc
 1959              	.LFE259:
 1961              		.global	__aeabi_f2d
 1962              		.global	__aeabi_ddiv
 1963              		.global	__aeabi_d2uiz
 1964              		.section	.text.cap_float_to_uint,"ax",%progbits
 1965              		.align	1
 1966              		.global	cap_float_to_uint
 1967              		.syntax unified
 1968              		.thumb
 1969              		.thumb_func
 1971              	cap_float_to_uint:
 1972              	.LVL125:
 1973              	.LFB260:
1252:Device/Src/rtc.c **** 
1253:Device/Src/rtc.c **** void cap_float_to_uint(float f_cap, uint8_t *p_dat1, uint8_t *p_dat2)
1254:Device/Src/rtc.c **** {
 1974              		.loc 1 1254 1 is_stmt 1 view -0
 1975              		.cfi_startproc
 1976              		@ args = 0, pretend = 0, frame = 0
 1977              		@ frame_needed = 0, uses_anonymous_args = 0
 1978              		.loc 1 1254 1 is_stmt 0 view .LVU470
 1979 0000 38B5     		push	{r3, r4, r5, lr}
 1980              	.LCFI50:
 1981              		.cfi_def_cfa_offset 16
 1982              		.cfi_offset 3, -16
 1983              		.cfi_offset 4, -12
 1984              		.cfi_offset 5, -8
 1985              		.cfi_offset 14, -4
 1986 0002 0446     		mov	r4, r0
 1987 0004 0D46     		mov	r5, r1
1255:Device/Src/rtc.c **** 	float convert;
 1988              		.loc 1 1255 2 is_stmt 1 view .LVU471
1256:Device/Src/rtc.c **** 	uint16_t cap_config = 0;
 1989              		.loc 1 1256 2 view .LVU472
 1990              	.LVL126:
1257:Device/Src/rtc.c **** 	convert = f_cap - SD8800_CAP_MIN;//╧л╤╗╢С╣Гхщ
 1991              		.loc 1 1257 2 view .LVU473
1258:Device/Src/rtc.c **** 	cap_config = convert / 0.051;//╬ьуСп║╣Гхщ
 1992              		.loc 1 1258 2 view .LVU474
 1993              		.loc 1 1258 23 is_stmt 0 view .LVU475
 1994 0006 F7EE087A 		vmov.f32	s15, #1.5e+0
 1995 000a 70EE677A 		vsub.f32	s15, s0, s15
 1996              	.LVL127:
 1997              		.loc 1 1258 23 view .LVU476
 1998 000e 17EE900A 		vmov	r0, s15
 1999              	.LVL128:
 2000              		.loc 1 1258 23 view .LVU477
 2001 0012 FFF7FEFF 		bl	__aeabi_f2d
ARM GAS  C:\Users\86158\AppData\Local\Temp\cco5xW5w.s 			page 59


 2002              	.LVL129:
 2003              		.loc 1 1258 23 view .LVU478
 2004 0016 0AA3     		adr	r3, .L158
 2005 0018 D3E90023 		ldrd	r2, [r3]
 2006 001c FFF7FEFF 		bl	__aeabi_ddiv
 2007              	.LVL130:
 2008              		.loc 1 1258 13 view .LVU479
 2009 0020 FFF7FEFF 		bl	__aeabi_d2uiz
 2010              	.LVL131:
 2011 0024 82B2     		uxth	r2, r0
 2012              	.LVL132:
1259:Device/Src/rtc.c **** 
1260:Device/Src/rtc.c **** 	// if (cap_config > 0 && (cap_config + 1) % 32 == 0) {
1261:Device/Src/rtc.c **** 	// 	cap_config -= 1;
1262:Device/Src/rtc.c **** 	// } 
1263:Device/Src/rtc.c **** 	*p_dat2 = (SD8800_CAP_MODE << 3) | ((cap_config & 0xff) >> 5);
 2013              		.loc 1 1263 2 is_stmt 1 view .LVU480
 2014              		.loc 1 1263 58 is_stmt 0 view .LVU481
 2015 0026 C0F34213 		ubfx	r3, r0, #5, #3
 2016              		.loc 1 1263 35 view .LVU482
 2017 002a 43F00803 		orr	r3, r3, #8
 2018              		.loc 1 1263 10 view .LVU483
 2019 002e 2B70     		strb	r3, [r5]
1264:Device/Src/rtc.c **** 	*p_dat1 = ((cap_config & 0xff) << 3) | (cap_config & 0x07);
 2020              		.loc 1 1264 2 is_stmt 1 view .LVU484
 2021              		.loc 1 1264 33 is_stmt 0 view .LVU485
 2022 0030 D300     		lsls	r3, r2, #3
 2023 0032 5BB2     		sxtb	r3, r3
 2024              		.loc 1 1264 53 view .LVU486
 2025 0034 02F00702 		and	r2, r2, #7
 2026              	.LVL133:
 2027              		.loc 1 1264 39 view .LVU487
 2028 0038 1343     		orrs	r3, r3, r2
 2029              		.loc 1 1264 10 view .LVU488
 2030 003a 2370     		strb	r3, [r4]
1265:Device/Src/rtc.c **** 
1266:Device/Src/rtc.c **** }
 2031              		.loc 1 1266 1 view .LVU489
 2032 003c 38BD     		pop	{r3, r4, r5, pc}
 2033              	.LVL134:
 2034              	.L159:
 2035              		.loc 1 1266 1 view .LVU490
 2036 003e 00BF     		.align	3
 2037              	.L158:
 2038 0040 E9263108 		.word	137438953
 2039 0044 AC1CAA3F 		.word	1068113068
 2040              		.cfi_endproc
 2041              	.LFE260:
 2043              		.global	__aeabi_dsub
 2044              		.section	.text.cap_list_number_convert,"ax",%progbits
 2045              		.align	1
 2046              		.global	cap_list_number_convert
 2047              		.syntax unified
 2048              		.thumb
 2049              		.thumb_func
 2051              	cap_list_number_convert:
 2052              	.LVL135:
ARM GAS  C:\Users\86158\AppData\Local\Temp\cco5xW5w.s 			page 60


 2053              	.LFB261:
1267:Device/Src/rtc.c **** 
1268:Device/Src/rtc.c **** uint16_t cap_list_number_convert(uint16_t start, float ppm)
1269:Device/Src/rtc.c **** {
 2054              		.loc 1 1269 1 is_stmt 1 view -0
 2055              		.cfi_startproc
 2056              		@ args = 0, pretend = 0, frame = 0
 2057              		@ frame_needed = 0, uses_anonymous_args = 0
 2058              		.loc 1 1269 1 is_stmt 0 view .LVU492
 2059 0000 D0B5     		push	{r4, r6, r7, lr}
 2060              	.LCFI51:
 2061              		.cfi_def_cfa_offset 16
 2062              		.cfi_offset 4, -16
 2063              		.cfi_offset 6, -12
 2064              		.cfi_offset 7, -8
 2065              		.cfi_offset 14, -4
 2066 0002 2DED028B 		vpush.64	{d8}
 2067              	.LCFI52:
 2068              		.cfi_def_cfa_offset 24
 2069              		.cfi_offset 80, -24
 2070              		.cfi_offset 81, -20
 2071 0006 0446     		mov	r4, r0
 2072 0008 B0EE408A 		vmov.f32	s16, s0
1270:Device/Src/rtc.c **** 	float sum2d4 = 2.4 * CAP_STEP_2D4;
 2073              		.loc 1 1270 2 is_stmt 1 view .LVU493
 2074              	.LVL136:
1271:Device/Src/rtc.c **** 	float sum1d2 = 1.2 * (CAP_STEP_1D2 - CAP_STEP_2D4);
 2075              		.loc 1 1271 2 view .LVU494
1272:Device/Src/rtc.c **** 	float sum0d8 = 0.8 * (CAP_STEP_0D8 - CAP_STEP_1D2);
 2076              		.loc 1 1272 2 view .LVU495
1273:Device/Src/rtc.c **** 	float sum0d6 = 0.6 * (CAP_STEP_0D6 - CAP_STEP_0D8);
 2077              		.loc 1 1273 2 view .LVU496
1274:Device/Src/rtc.c **** 	float sum0d4 = 0.4 * (start - CAP_STEP_0D6);
 2078              		.loc 1 1274 2 view .LVU497
 2079              		.loc 1 1274 21 is_stmt 0 view .LVU498
 2080 000c B938     		subs	r0, r0, #185
 2081              	.LVL137:
 2082              		.loc 1 1274 21 view .LVU499
 2083 000e FFF7FEFF 		bl	__aeabi_i2d
 2084              	.LVL138:
 2085              		.loc 1 1274 21 view .LVU500
 2086 0012 60A3     		adr	r3, .L183+68
 2087 0014 D3E90023 		ldrd	r2, [r3]
 2088 0018 FFF7FEFF 		bl	__aeabi_dmul
 2089              	.LVL139:
 2090              		.loc 1 1274 8 view .LVU501
 2091 001c FFF7FEFF 		bl	__aeabi_d2f
 2092              	.LVL140:
 2093 0020 00EE100A 		vmov	s0, r0
 2094              	.LVL141:
1275:Device/Src/rtc.c **** 	uint16_t number = 1;
 2095              		.loc 1 1275 2 is_stmt 1 view .LVU502
1276:Device/Src/rtc.c **** 	if (ppm < sum0d4) {
 2096              		.loc 1 1276 2 view .LVU503
 2097              		.loc 1 1276 5 is_stmt 0 view .LVU504
 2098 0024 B4EEC80A 		vcmpe.f32	s0, s16
 2099 0028 F1EE10FA 		vmrs	APSR_nzcv, FPSCR
ARM GAS  C:\Users\86158\AppData\Local\Temp\cco5xW5w.s 			page 61


 2100 002c 16DD     		ble	.L177
1277:Device/Src/rtc.c **** 		number = start - ppm * 2.5;
 2101              		.loc 1 1277 3 is_stmt 1 view .LVU505
 2102              		.loc 1 1277 24 is_stmt 0 view .LVU506
 2103 002e 18EE100A 		vmov	r0, s16
 2104              	.LVL142:
 2105              		.loc 1 1277 24 view .LVU507
 2106 0032 FFF7FEFF 		bl	__aeabi_f2d
 2107              	.LVL143:
 2108              		.loc 1 1277 24 view .LVU508
 2109 0036 0022     		movs	r2, #0
 2110 0038 4D4B     		ldr	r3, .L183+32
 2111 003a FFF7FEFF 		bl	__aeabi_dmul
 2112              	.LVL144:
 2113 003e 0646     		mov	r6, r0
 2114 0040 0F46     		mov	r7, r1
 2115              		.loc 1 1277 18 view .LVU509
 2116 0042 2046     		mov	r0, r4
 2117 0044 FFF7FEFF 		bl	__aeabi_i2d
 2118              	.LVL145:
 2119 0048 3246     		mov	r2, r6
 2120 004a 3B46     		mov	r3, r7
 2121 004c FFF7FEFF 		bl	__aeabi_dsub
 2122              	.LVL146:
 2123              		.loc 1 1277 10 view .LVU510
 2124 0050 FFF7FEFF 		bl	__aeabi_d2uiz
 2125              	.LVL147:
 2126 0054 80B2     		uxth	r0, r0
 2127              	.LVL148:
 2128              	.L163:
1278:Device/Src/rtc.c **** 	} else {
1279:Device/Src/rtc.c **** 		ppm -= sum0d4;
1280:Device/Src/rtc.c **** 		if (ppm < sum0d6) {
1281:Device/Src/rtc.c **** 			number = CAP_STEP_0D6 - ppm / 0.6;
1282:Device/Src/rtc.c **** 		} else {
1283:Device/Src/rtc.c **** 			ppm -= sum0d6;
1284:Device/Src/rtc.c **** 			if (ppm < sum0d8) {
1285:Device/Src/rtc.c **** 				number = CAP_STEP_0D8 - ppm / 0.8;
1286:Device/Src/rtc.c **** 			} else {
1287:Device/Src/rtc.c **** 				ppm -= sum0d8;
1288:Device/Src/rtc.c **** 				if (ppm < sum1d2) {
1289:Device/Src/rtc.c **** 					number = CAP_STEP_1D2 - ppm / 1.2;
1290:Device/Src/rtc.c **** 				} else {
1291:Device/Src/rtc.c **** 					ppm -= sum1d2;
1292:Device/Src/rtc.c **** 					if (ppm < sum2d4) {
1293:Device/Src/rtc.c **** 						number = CAP_STEP_2D4 - ppm / 2.4;
1294:Device/Src/rtc.c **** 					} else {
1295:Device/Src/rtc.c **** 						number = 1;
1296:Device/Src/rtc.c **** 					}
1297:Device/Src/rtc.c **** 				}
1298:Device/Src/rtc.c **** 			}
1299:Device/Src/rtc.c **** 		}
1300:Device/Src/rtc.c **** 	}
1301:Device/Src/rtc.c **** 	return number;
 2129              		.loc 1 1301 2 is_stmt 1 view .LVU511
1302:Device/Src/rtc.c **** }
 2130              		.loc 1 1302 1 is_stmt 0 view .LVU512
ARM GAS  C:\Users\86158\AppData\Local\Temp\cco5xW5w.s 			page 62


 2131 0056 BDEC028B 		vldm	sp!, {d8}
 2132              	.LCFI53:
 2133              		.cfi_remember_state
 2134              		.cfi_restore 80
 2135              		.cfi_restore 81
 2136              		.cfi_def_cfa_offset 16
 2137              	.LVL149:
 2138              		.loc 1 1302 1 view .LVU513
 2139 005a D0BD     		pop	{r4, r6, r7, pc}
 2140              	.LVL150:
 2141              	.L177:
 2142              	.LCFI54:
 2143              		.cfi_restore_state
1279:Device/Src/rtc.c **** 		if (ppm < sum0d6) {
 2144              		.loc 1 1279 3 is_stmt 1 view .LVU514
1279:Device/Src/rtc.c **** 		if (ppm < sum0d6) {
 2145              		.loc 1 1279 7 is_stmt 0 view .LVU515
 2146 005c 38EE408A 		vsub.f32	s16, s16, s0
 2147              	.LVL151:
1280:Device/Src/rtc.c **** 			number = CAP_STEP_0D6 - ppm / 0.6;
 2148              		.loc 1 1280 3 is_stmt 1 view .LVU516
1280:Device/Src/rtc.c **** 			number = CAP_STEP_0D6 - ppm / 0.6;
 2149              		.loc 1 1280 6 is_stmt 0 view .LVU517
 2150 0060 DFED447A 		vldr.32	s15, .L183+36
 2151 0064 B4EEE78A 		vcmpe.f32	s16, s15
 2152 0068 F1EE10FA 		vmrs	APSR_nzcv, FPSCR
 2153 006c 13D5     		bpl	.L178
1281:Device/Src/rtc.c **** 		} else {
 2154              		.loc 1 1281 4 is_stmt 1 view .LVU518
1281:Device/Src/rtc.c **** 		} else {
 2155              		.loc 1 1281 32 is_stmt 0 view .LVU519
 2156 006e 18EE100A 		vmov	r0, s16
 2157              	.LVL152:
1281:Device/Src/rtc.c **** 		} else {
 2158              		.loc 1 1281 32 view .LVU520
 2159 0072 FFF7FEFF 		bl	__aeabi_f2d
 2160              	.LVL153:
1281:Device/Src/rtc.c **** 		} else {
 2161              		.loc 1 1281 32 view .LVU521
 2162 0076 36A3     		adr	r3, .L183
 2163 0078 D3E90023 		ldrd	r2, [r3]
 2164 007c FFF7FEFF 		bl	__aeabi_ddiv
 2165              	.LVL154:
 2166 0080 0246     		mov	r2, r0
 2167 0082 0B46     		mov	r3, r1
1281:Device/Src/rtc.c **** 		} else {
 2168              		.loc 1 1281 26 view .LVU522
 2169 0084 34A1     		adr	r1, .L183+8
 2170 0086 D1E90001 		ldrd	r0, [r1]
 2171 008a FFF7FEFF 		bl	__aeabi_dsub
 2172              	.LVL155:
1281:Device/Src/rtc.c **** 		} else {
 2173              		.loc 1 1281 11 view .LVU523
 2174 008e FFF7FEFF 		bl	__aeabi_d2uiz
 2175              	.LVL156:
 2176 0092 80B2     		uxth	r0, r0
 2177              	.LVL157:
ARM GAS  C:\Users\86158\AppData\Local\Temp\cco5xW5w.s 			page 63


1281:Device/Src/rtc.c **** 		} else {
 2178              		.loc 1 1281 11 view .LVU524
 2179 0094 DFE7     		b	.L163
 2180              	.LVL158:
 2181              	.L178:
1283:Device/Src/rtc.c **** 			if (ppm < sum0d8) {
 2182              		.loc 1 1283 4 is_stmt 1 view .LVU525
1283:Device/Src/rtc.c **** 			if (ppm < sum0d8) {
 2183              		.loc 1 1283 8 is_stmt 0 view .LVU526
 2184 0096 DFED377A 		vldr.32	s15, .L183+36
 2185 009a 38EE678A 		vsub.f32	s16, s16, s15
 2186              	.LVL159:
1284:Device/Src/rtc.c **** 				number = CAP_STEP_0D8 - ppm / 0.8;
 2187              		.loc 1 1284 4 is_stmt 1 view .LVU527
1284:Device/Src/rtc.c **** 				number = CAP_STEP_0D8 - ppm / 0.8;
 2188              		.loc 1 1284 7 is_stmt 0 view .LVU528
 2189 009e DFED367A 		vldr.32	s15, .L183+40
 2190 00a2 B4EEE78A 		vcmpe.f32	s16, s15
 2191 00a6 F1EE10FA 		vmrs	APSR_nzcv, FPSCR
 2192 00aa 12D5     		bpl	.L179
1285:Device/Src/rtc.c **** 			} else {
 2193              		.loc 1 1285 5 is_stmt 1 view .LVU529
1285:Device/Src/rtc.c **** 			} else {
 2194              		.loc 1 1285 33 is_stmt 0 view .LVU530
 2195 00ac 18EE100A 		vmov	r0, s16
 2196              	.LVL160:
1285:Device/Src/rtc.c **** 			} else {
 2197              		.loc 1 1285 33 view .LVU531
 2198 00b0 FFF7FEFF 		bl	__aeabi_f2d
 2199              	.LVL161:
1285:Device/Src/rtc.c **** 			} else {
 2200              		.loc 1 1285 33 view .LVU532
 2201 00b4 2AA3     		adr	r3, .L183+16
 2202 00b6 D3E90023 		ldrd	r2, [r3]
 2203 00ba FFF7FEFF 		bl	__aeabi_ddiv
 2204              	.LVL162:
 2205 00be 0246     		mov	r2, r0
 2206 00c0 0B46     		mov	r3, r1
1285:Device/Src/rtc.c **** 			} else {
 2207              		.loc 1 1285 27 view .LVU533
 2208 00c2 0020     		movs	r0, #0
 2209 00c4 2D49     		ldr	r1, .L183+44
 2210 00c6 FFF7FEFF 		bl	__aeabi_dsub
 2211              	.LVL163:
1285:Device/Src/rtc.c **** 			} else {
 2212              		.loc 1 1285 12 view .LVU534
 2213 00ca FFF7FEFF 		bl	__aeabi_d2uiz
 2214              	.LVL164:
 2215 00ce 80B2     		uxth	r0, r0
 2216              	.LVL165:
1285:Device/Src/rtc.c **** 			} else {
 2217              		.loc 1 1285 12 view .LVU535
 2218 00d0 C1E7     		b	.L163
 2219              	.LVL166:
 2220              	.L179:
1287:Device/Src/rtc.c **** 				if (ppm < sum1d2) {
 2221              		.loc 1 1287 5 is_stmt 1 view .LVU536
ARM GAS  C:\Users\86158\AppData\Local\Temp\cco5xW5w.s 			page 64


1287:Device/Src/rtc.c **** 				if (ppm < sum1d2) {
 2222              		.loc 1 1287 9 is_stmt 0 view .LVU537
 2223 00d2 DFED297A 		vldr.32	s15, .L183+40
 2224 00d6 38EE678A 		vsub.f32	s16, s16, s15
 2225              	.LVL167:
1288:Device/Src/rtc.c **** 					number = CAP_STEP_1D2 - ppm / 1.2;
 2226              		.loc 1 1288 5 is_stmt 1 view .LVU538
1288:Device/Src/rtc.c **** 					number = CAP_STEP_1D2 - ppm / 1.2;
 2227              		.loc 1 1288 8 is_stmt 0 view .LVU539
 2228 00da DFED297A 		vldr.32	s15, .L183+48
 2229 00de B4EEE78A 		vcmpe.f32	s16, s15
 2230 00e2 F1EE10FA 		vmrs	APSR_nzcv, FPSCR
 2231 00e6 12D5     		bpl	.L180
1289:Device/Src/rtc.c **** 				} else {
 2232              		.loc 1 1289 6 is_stmt 1 view .LVU540
1289:Device/Src/rtc.c **** 				} else {
 2233              		.loc 1 1289 34 is_stmt 0 view .LVU541
 2234 00e8 18EE100A 		vmov	r0, s16
 2235              	.LVL168:
1289:Device/Src/rtc.c **** 				} else {
 2236              		.loc 1 1289 34 view .LVU542
 2237 00ec FFF7FEFF 		bl	__aeabi_f2d
 2238              	.LVL169:
1289:Device/Src/rtc.c **** 				} else {
 2239              		.loc 1 1289 34 view .LVU543
 2240 00f0 4FF03332 		mov	r2, #858993459
 2241 00f4 234B     		ldr	r3, .L183+52
 2242 00f6 FFF7FEFF 		bl	__aeabi_ddiv
 2243              	.LVL170:
 2244 00fa 0246     		mov	r2, r0
 2245 00fc 0B46     		mov	r3, r1
1289:Device/Src/rtc.c **** 				} else {
 2246              		.loc 1 1289 28 view .LVU544
 2247 00fe 0020     		movs	r0, #0
 2248 0100 2149     		ldr	r1, .L183+56
 2249 0102 FFF7FEFF 		bl	__aeabi_dsub
 2250              	.LVL171:
1289:Device/Src/rtc.c **** 				} else {
 2251              		.loc 1 1289 13 view .LVU545
 2252 0106 FFF7FEFF 		bl	__aeabi_d2uiz
 2253              	.LVL172:
 2254 010a 80B2     		uxth	r0, r0
 2255              	.LVL173:
1289:Device/Src/rtc.c **** 				} else {
 2256              		.loc 1 1289 13 view .LVU546
 2257 010c A3E7     		b	.L163
 2258              	.LVL174:
 2259              	.L180:
1291:Device/Src/rtc.c **** 					if (ppm < sum2d4) {
 2260              		.loc 1 1291 6 is_stmt 1 view .LVU547
1291:Device/Src/rtc.c **** 					if (ppm < sum2d4) {
 2261              		.loc 1 1291 10 is_stmt 0 view .LVU548
 2262 010e DFED1C7A 		vldr.32	s15, .L183+48
 2263 0112 38EE678A 		vsub.f32	s16, s16, s15
 2264              	.LVL175:
1292:Device/Src/rtc.c **** 						number = CAP_STEP_2D4 - ppm / 2.4;
 2265              		.loc 1 1292 6 is_stmt 1 view .LVU549
ARM GAS  C:\Users\86158\AppData\Local\Temp\cco5xW5w.s 			page 65


1292:Device/Src/rtc.c **** 						number = CAP_STEP_2D4 - ppm / 2.4;
 2266              		.loc 1 1292 9 is_stmt 0 view .LVU550
 2267 0116 DFED1D7A 		vldr.32	s15, .L183+60
 2268 011a B4EEE78A 		vcmpe.f32	s16, s15
 2269 011e F1EE10FA 		vmrs	APSR_nzcv, FPSCR
 2270 0122 12D5     		bpl	.L181
1293:Device/Src/rtc.c **** 					} else {
 2271              		.loc 1 1293 7 is_stmt 1 view .LVU551
1293:Device/Src/rtc.c **** 					} else {
 2272              		.loc 1 1293 35 is_stmt 0 view .LVU552
 2273 0124 18EE100A 		vmov	r0, s16
 2274              	.LVL176:
1293:Device/Src/rtc.c **** 					} else {
 2275              		.loc 1 1293 35 view .LVU553
 2276 0128 FFF7FEFF 		bl	__aeabi_f2d
 2277              	.LVL177:
1293:Device/Src/rtc.c **** 					} else {
 2278              		.loc 1 1293 35 view .LVU554
 2279 012c 0EA3     		adr	r3, .L183+24
 2280 012e D3E90023 		ldrd	r2, [r3]
 2281 0132 FFF7FEFF 		bl	__aeabi_ddiv
 2282              	.LVL178:
 2283 0136 0246     		mov	r2, r0
 2284 0138 0B46     		mov	r3, r1
1293:Device/Src/rtc.c **** 					} else {
 2285              		.loc 1 1293 29 view .LVU555
 2286 013a 0020     		movs	r0, #0
 2287 013c 1449     		ldr	r1, .L183+64
 2288 013e FFF7FEFF 		bl	__aeabi_dsub
 2289              	.LVL179:
1293:Device/Src/rtc.c **** 					} else {
 2290              		.loc 1 1293 14 view .LVU556
 2291 0142 FFF7FEFF 		bl	__aeabi_d2uiz
 2292              	.LVL180:
 2293 0146 80B2     		uxth	r0, r0
 2294              	.LVL181:
1293:Device/Src/rtc.c **** 					} else {
 2295              		.loc 1 1293 14 view .LVU557
 2296 0148 85E7     		b	.L163
 2297              	.LVL182:
 2298              	.L181:
1295:Device/Src/rtc.c **** 					}
 2299              		.loc 1 1295 14 view .LVU558
 2300 014a 0120     		movs	r0, #1
 2301              	.LVL183:
1295:Device/Src/rtc.c **** 					}
 2302              		.loc 1 1295 14 view .LVU559
 2303 014c 83E7     		b	.L163
 2304              	.L184:
 2305 014e 00BF     		.align	3
 2306              	.L183:
 2307 0150 33333333 		.word	858993459
 2308 0154 3333E33F 		.word	1071854387
 2309 0158 00000000 		.word	0
 2310 015c 00206740 		.word	1080500224
 2311 0160 9A999999 		.word	-1717986918
 2312 0164 9999E93F 		.word	1072273817
ARM GAS  C:\Users\86158\AppData\Local\Temp\cco5xW5w.s 			page 66


 2313 0168 33333333 		.word	858993459
 2314 016c 33330340 		.word	1073951539
 2315 0170 00000440 		.word	1074003968
 2316 0174 CDCC2042 		.word	1109445837
 2317 0178 66663642 		.word	1110861414
 2318 017c 00805D40 		.word	1079869440
 2319 0180 00005842 		.word	1113063424
 2320 0184 3333F33F 		.word	1072902963
 2321 0188 00804E40 		.word	1078886400
 2322 018c 9A991942 		.word	1108973978
 2323 0190 00003040 		.word	1076887552
 2324 0194 9A999999 		.word	-1717986918
 2325 0198 9999D93F 		.word	1071225241
 2326              		.cfi_endproc
 2327              	.LFE261:
 2329              		.section	.text.digtal_adj_convert,"ax",%progbits
 2330              		.align	1
 2331              		.global	digtal_adj_convert
 2332              		.syntax unified
 2333              		.thumb
 2334              		.thumb_func
 2336              	digtal_adj_convert:
 2337              	.LVL184:
 2338              	.LFB262:
1303:Device/Src/rtc.c **** 
1304:Device/Src/rtc.c **** int digtal_adj_convert(uint16_t start, float ppm)
1305:Device/Src/rtc.c **** {
 2339              		.loc 1 1305 1 is_stmt 1 view -0
 2340              		.cfi_startproc
 2341              		@ args = 0, pretend = 0, frame = 0
 2342              		@ frame_needed = 0, uses_anonymous_args = 0
 2343              		.loc 1 1305 1 is_stmt 0 view .LVU561
 2344 0000 08B5     		push	{r3, lr}
 2345              	.LCFI55:
 2346              		.cfi_def_cfa_offset 8
 2347              		.cfi_offset 3, -8
 2348              		.cfi_offset 14, -4
 2349 0002 2DED028B 		vpush.64	{d8}
 2350              	.LCFI56:
 2351              		.cfi_def_cfa_offset 16
 2352              		.cfi_offset 80, -16
 2353              		.cfi_offset 81, -12
 2354 0006 B0EE408A 		vmov.f32	s16, s0
1306:Device/Src/rtc.c **** 	float sum;
 2355              		.loc 1 1306 2 is_stmt 1 view .LVU562
1307:Device/Src/rtc.c **** 	int digtal = 0;
 2356              		.loc 1 1307 2 view .LVU563
 2357              	.LVL185:
1308:Device/Src/rtc.c **** 	
1309:Device/Src/rtc.c **** 	sum =  2.4 * (CAP_STEP_2D4 - 1) + 1.2 * (CAP_STEP_1D2 - CAP_STEP_2D4) + 0.8 * (CAP_STEP_0D8 - CAP_
 2358              		.loc 1 1309 2 view .LVU564
1310:Device/Src/rtc.c **** 			+ 0.6 * (CAP_STEP_0D6 - CAP_STEP_0D8) + 0.4 * (start - CAP_STEP_0D6);
 2359              		.loc 1 1310 48 is_stmt 0 view .LVU565
 2360 000a B938     		subs	r0, r0, #185
 2361              	.LVL186:
 2362              		.loc 1 1310 48 view .LVU566
 2363 000c FFF7FEFF 		bl	__aeabi_i2d
ARM GAS  C:\Users\86158\AppData\Local\Temp\cco5xW5w.s 			page 67


 2364              	.LVL187:
 2365              		.loc 1 1310 48 view .LVU567
 2366 0010 11A3     		adr	r3, .L191
 2367 0012 D3E90023 		ldrd	r2, [r3]
 2368 0016 FFF7FEFF 		bl	__aeabi_dmul
 2369              	.LVL188:
 2370              		.loc 1 1310 42 view .LVU568
 2371 001a 11A3     		adr	r3, .L191+8
 2372 001c D3E90023 		ldrd	r2, [r3]
 2373 0020 FFF7FEFF 		bl	__aeabi_dadd
 2374              	.LVL189:
1309:Device/Src/rtc.c **** 			+ 0.6 * (CAP_STEP_0D6 - CAP_STEP_0D8) + 0.4 * (start - CAP_STEP_0D6);
 2375              		.loc 1 1309 6 view .LVU569
 2376 0024 FFF7FEFF 		bl	__aeabi_d2f
 2377              	.LVL190:
 2378 0028 07EE900A 		vmov	s15, r0
 2379              	.LVL191:
1311:Device/Src/rtc.c **** 	if (ppm < sum) {
 2380              		.loc 1 1311 2 is_stmt 1 view .LVU570
 2381              		.loc 1 1311 5 is_stmt 0 view .LVU571
 2382 002c F4EEC87A 		vcmpe.f32	s15, s16
 2383 0030 F1EE10FA 		vmrs	APSR_nzcv, FPSCR
 2384 0034 0BDC     		bgt	.L188
1312:Device/Src/rtc.c **** 		return 0;
1313:Device/Src/rtc.c **** 	} else {
1314:Device/Src/rtc.c **** 		digtal = sum - ppm;
 2385              		.loc 1 1314 3 is_stmt 1 view .LVU572
 2386              		.loc 1 1314 16 is_stmt 0 view .LVU573
 2387 0036 77EEC87A 		vsub.f32	s15, s15, s16
 2388              		.loc 1 1314 10 view .LVU574
 2389 003a FDEEE77A 		vcvt.s32.f32	s15, s15
 2390 003e 17EE900A 		vmov	r0, s15	@ int
 2391              	.LVL192:
1315:Device/Src/rtc.c **** 		if (digtal < -189) {//йЩвж╡╧Ё╔ж╩сп6bitё╛вН╢Сж╣н╙63ё╛╤тс╕╣дйЩн╙-189
 2392              		.loc 1 1315 3 is_stmt 1 view .LVU575
 2393              		.loc 1 1315 6 is_stmt 0 view .LVU576
 2394 0042 10F1BD0F 		cmn	r0, #189
 2395 0046 03DA     		bge	.L185
1316:Device/Src/rtc.c **** 			digtal = -189;
 2396              		.loc 1 1316 11 view .LVU577
 2397 0048 6FF0BC00 		mvn	r0, #188
 2398              	.LVL193:
1317:Device/Src/rtc.c **** 		}
1318:Device/Src/rtc.c **** 		return digtal;
 2399              		.loc 1 1318 3 is_stmt 1 view .LVU578
 2400              		.loc 1 1318 10 is_stmt 0 view .LVU579
 2401 004c 00E0     		b	.L185
 2402              	.LVL194:
 2403              	.L188:
1312:Device/Src/rtc.c **** 	} else {
 2404              		.loc 1 1312 10 view .LVU580
 2405 004e 0020     		movs	r0, #0
 2406              	.LVL195:
 2407              	.L185:
1319:Device/Src/rtc.c **** 	}
1320:Device/Src/rtc.c **** }
 2408              		.loc 1 1320 1 view .LVU581
ARM GAS  C:\Users\86158\AppData\Local\Temp\cco5xW5w.s 			page 68


 2409 0050 BDEC028B 		vldm	sp!, {d8}
 2410              	.LCFI57:
 2411              		.cfi_restore 80
 2412              		.cfi_restore 81
 2413              		.cfi_def_cfa_offset 8
 2414              	.LVL196:
 2415              		.loc 1 1320 1 view .LVU582
 2416 0054 08BD     		pop	{r3, pc}
 2417              	.L192:
 2418 0056 00BF     		.align	3
 2419              	.L191:
 2420 0058 9A999999 		.word	-1717986918
 2421 005c 9999D93F 		.word	1071225241
 2422 0060 99999999 		.word	-1717986919
 2423 0064 99F96540 		.word	1080424857
 2424              		.cfi_endproc
 2425              	.LFE262:
 2427              		.section	.text.wave1006_read_temp_adc,"ax",%progbits
 2428              		.align	1
 2429              		.global	wave1006_read_temp_adc
 2430              		.syntax unified
 2431              		.thumb
 2432              		.thumb_func
 2434              	wave1006_read_temp_adc:
 2435              	.LVL197:
 2436              	.LFB263:
1321:Device/Src/rtc.c **** 
1322:Device/Src/rtc.c **** uint8_t wave1006_read_temp_adc(uint16_t* temp)
1323:Device/Src/rtc.c **** {
 2437              		.loc 1 1323 1 is_stmt 1 view -0
 2438              		.cfi_startproc
 2439              		@ args = 0, pretend = 0, frame = 8
 2440              		@ frame_needed = 0, uses_anonymous_args = 0
 2441              		.loc 1 1323 1 is_stmt 0 view .LVU584
 2442 0000 30B5     		push	{r4, r5, lr}
 2443              	.LCFI58:
 2444              		.cfi_def_cfa_offset 12
 2445              		.cfi_offset 4, -12
 2446              		.cfi_offset 5, -8
 2447              		.cfi_offset 14, -4
 2448 0002 83B0     		sub	sp, sp, #12
 2449              	.LCFI59:
 2450              		.cfi_def_cfa_offset 24
 2451 0004 0546     		mov	r5, r0
1324:Device/Src/rtc.c **** 	uint8_t buffer[2] = {0};
 2452              		.loc 1 1324 2 is_stmt 1 view .LVU585
 2453              		.loc 1 1324 10 is_stmt 0 view .LVU586
 2454 0006 0020     		movs	r0, #0
 2455              	.LVL198:
 2456              		.loc 1 1324 10 view .LVU587
 2457 0008 ADF80400 		strh	r0, [sp, #4]	@ movhi
1325:Device/Src/rtc.c **** 	buffer[0] = 0x10;
 2458              		.loc 1 1325 2 is_stmt 1 view .LVU588
 2459              		.loc 1 1325 12 is_stmt 0 view .LVU589
 2460 000c 1023     		movs	r3, #16
 2461 000e 8DF80430 		strb	r3, [sp, #4]
1326:Device/Src/rtc.c **** 	uint8_t i;
ARM GAS  C:\Users\86158\AppData\Local\Temp\cco5xW5w.s 			page 69


 2462              		.loc 1 1326 2 is_stmt 1 view .LVU590
1327:Device/Src/rtc.c **** 	if (drv_wave1006_write_reg(DEV_SD3068, 0x17, 1, &buffer[0]) != WAVE1006_EXIT_OK) {
 2463              		.loc 1 1327 2 view .LVU591
 2464              		.loc 1 1327 6 is_stmt 0 view .LVU592
 2465 0012 01AB     		add	r3, sp, #4
 2466 0014 0122     		movs	r2, #1
 2467 0016 1721     		movs	r1, #23
 2468 0018 FFF7FEFF 		bl	drv_wave1006_write_reg
 2469              	.LVL199:
 2470              		.loc 1 1327 5 view .LVU593
 2471 001c 58BB     		cbnz	r0, .L198
1328:Device/Src/rtc.c **** 		return 0;
1329:Device/Src/rtc.c **** 	}
1330:Device/Src/rtc.c **** 	for (i = 0; i < 10; i++) {
 2472              		.loc 1 1330 9 view .LVU594
 2473 001e 0024     		movs	r4, #0
 2474 0020 01E0     		b	.L195
 2475              	.LVL200:
 2476              	.L203:
 2477              		.loc 1 1330 22 is_stmt 1 discriminator 2 view .LVU595
 2478              		.loc 1 1330 23 is_stmt 0 discriminator 2 view .LVU596
 2479 0022 0134     		adds	r4, r4, #1
 2480              	.LVL201:
 2481              		.loc 1 1330 23 discriminator 2 view .LVU597
 2482 0024 E4B2     		uxtb	r4, r4
 2483              	.LVL202:
 2484              	.L195:
 2485              		.loc 1 1330 14 is_stmt 1 discriminator 1 view .LVU598
 2486              		.loc 1 1330 2 is_stmt 0 discriminator 1 view .LVU599
 2487 0026 092C     		cmp	r4, #9
 2488 0028 0DD8     		bhi	.L196
1331:Device/Src/rtc.c **** 		HAL_Delay(1);
 2489              		.loc 1 1331 3 is_stmt 1 view .LVU600
 2490 002a 0120     		movs	r0, #1
 2491 002c FFF7FEFF 		bl	HAL_Delay
 2492              	.LVL203:
1332:Device/Src/rtc.c **** 		drv_wave1006_read_reg(DEV_SD3068, 0x17, 1, buffer);
 2493              		.loc 1 1332 3 view .LVU601
 2494 0030 01AB     		add	r3, sp, #4
 2495 0032 0122     		movs	r2, #1
 2496 0034 1721     		movs	r1, #23
 2497 0036 0020     		movs	r0, #0
 2498 0038 FFF7FEFF 		bl	drv_wave1006_read_reg
 2499              	.LVL204:
1333:Device/Src/rtc.c **** 		if ((buffer[0] & 0x30) == 0) {
 2500              		.loc 1 1333 3 view .LVU602
 2501              		.loc 1 1333 14 is_stmt 0 view .LVU603
 2502 003c 9DF80430 		ldrb	r3, [sp, #4]	@ zero_extendqisi2
 2503              		.loc 1 1333 6 view .LVU604
 2504 0040 13F0300F 		tst	r3, #48
 2505 0044 EDD1     		bne	.L203
 2506              	.L196:
1334:Device/Src/rtc.c **** 			break;
1335:Device/Src/rtc.c **** 		}
1336:Device/Src/rtc.c **** 	}
1337:Device/Src/rtc.c **** 	if (i >= 10) {return 0;}
 2507              		.loc 1 1337 2 is_stmt 1 view .LVU605
ARM GAS  C:\Users\86158\AppData\Local\Temp\cco5xW5w.s 			page 70


 2508              		.loc 1 1337 5 is_stmt 0 view .LVU606
 2509 0046 092C     		cmp	r4, #9
 2510 0048 01D9     		bls	.L204
 2511              		.loc 1 1337 23 view .LVU607
 2512 004a 0020     		movs	r0, #0
 2513 004c 14E0     		b	.L194
 2514              	.L204:
1338:Device/Src/rtc.c **** 	if (drv_wave1006_read_reg(DEV_SD3068, WAVE1006_REG_USER_RAM_START + 26, 2, buffer) != WAVE1006_EXI
 2515              		.loc 1 1338 2 is_stmt 1 view .LVU608
 2516              		.loc 1 1338 6 is_stmt 0 view .LVU609
 2517 004e 01AB     		add	r3, sp, #4
 2518 0050 0222     		movs	r2, #2
 2519 0052 4621     		movs	r1, #70
 2520 0054 0020     		movs	r0, #0
 2521 0056 FFF7FEFF 		bl	drv_wave1006_read_reg
 2522              	.LVL205:
 2523              		.loc 1 1338 5 view .LVU610
 2524 005a 78B9     		cbnz	r0, .L200
1339:Device/Src/rtc.c **** 	{
1340:Device/Src/rtc.c **** 		return 0;
1341:Device/Src/rtc.c **** 	}
1342:Device/Src/rtc.c **** 	*temp = buffer[0];
 2525              		.loc 1 1342 2 is_stmt 1 view .LVU611
 2526              		.loc 1 1342 16 is_stmt 0 view .LVU612
 2527 005c 9DF80430 		ldrb	r3, [sp, #4]	@ zero_extendqisi2
 2528              		.loc 1 1342 8 view .LVU613
 2529 0060 2B80     		strh	r3, [r5]	@ movhi
1343:Device/Src/rtc.c **** 	if (buffer[1] & 0x40) {
 2530              		.loc 1 1343 2 is_stmt 1 view .LVU614
 2531              		.loc 1 1343 12 is_stmt 0 view .LVU615
 2532 0062 9DF80520 		ldrb	r2, [sp, #5]	@ zero_extendqisi2
 2533              		.loc 1 1343 5 view .LVU616
 2534 0066 12F0400F 		tst	r2, #64
 2535 006a 09D0     		beq	.L201
1344:Device/Src/rtc.c **** 		*temp += 256;
 2536              		.loc 1 1344 3 is_stmt 1 view .LVU617
 2537              		.loc 1 1344 9 is_stmt 0 view .LVU618
 2538 006c 03F58073 		add	r3, r3, #256
 2539 0070 2B80     		strh	r3, [r5]	@ movhi
1345:Device/Src/rtc.c **** 	}
1346:Device/Src/rtc.c **** 	return 1;
 2540              		.loc 1 1346 9 view .LVU619
 2541 0072 0120     		movs	r0, #1
 2542 0074 00E0     		b	.L194
 2543              	.LVL206:
 2544              	.L198:
1328:Device/Src/rtc.c **** 	}
 2545              		.loc 1 1328 10 view .LVU620
 2546 0076 0020     		movs	r0, #0
 2547              	.L194:
1347:Device/Src/rtc.c **** }
 2548              		.loc 1 1347 1 view .LVU621
 2549 0078 03B0     		add	sp, sp, #12
 2550              	.LCFI60:
 2551              		.cfi_remember_state
 2552              		.cfi_def_cfa_offset 12
 2553              		@ sp needed
ARM GAS  C:\Users\86158\AppData\Local\Temp\cco5xW5w.s 			page 71


 2554 007a 30BD     		pop	{r4, r5, pc}
 2555              	.LVL207:
 2556              	.L200:
 2557              	.LCFI61:
 2558              		.cfi_restore_state
1340:Device/Src/rtc.c **** 	}
 2559              		.loc 1 1340 10 view .LVU622
 2560 007c 0020     		movs	r0, #0
 2561 007e FBE7     		b	.L194
 2562              	.L201:
1346:Device/Src/rtc.c **** }
 2563              		.loc 1 1346 9 view .LVU623
 2564 0080 0120     		movs	r0, #1
 2565 0082 F9E7     		b	.L194
 2566              		.cfi_endproc
 2567              	.LFE263:
 2569              		.section	.text.system_get_rtc_temp,"ax",%progbits
 2570              		.align	1
 2571              		.global	system_get_rtc_temp
 2572              		.syntax unified
 2573              		.thumb
 2574              		.thumb_func
 2576              	system_get_rtc_temp:
 2577              	.LFB237:
 884:Device/Src/rtc.c **** 	float tempSum = 0;
 2578              		.loc 1 884 1 is_stmt 1 view -0
 2579              		.cfi_startproc
 2580              		@ args = 0, pretend = 0, frame = 8
 2581              		@ frame_needed = 0, uses_anonymous_args = 0
 2582 0000 30B5     		push	{r4, r5, lr}
 2583              	.LCFI62:
 2584              		.cfi_def_cfa_offset 12
 2585              		.cfi_offset 4, -12
 2586              		.cfi_offset 5, -8
 2587              		.cfi_offset 14, -4
 2588 0002 2DED028B 		vpush.64	{d8}
 2589              	.LCFI63:
 2590              		.cfi_def_cfa_offset 20
 2591              		.cfi_offset 80, -20
 2592              		.cfi_offset 81, -16
 2593 0006 83B0     		sub	sp, sp, #12
 2594              	.LCFI64:
 2595              		.cfi_def_cfa_offset 32
 885:Device/Src/rtc.c **** 	uint8_t count = 0;
 2596              		.loc 1 885 2 view .LVU625
 2597              	.LVL208:
 886:Device/Src/rtc.c **** 	uint16_t readTemp;
 2598              		.loc 1 886 2 view .LVU626
 887:Device/Src/rtc.c **** 	int quick;
 2599              		.loc 1 887 2 view .LVU627
 888:Device/Src/rtc.c **** 	int i;
 2600              		.loc 1 888 2 view .LVU628
 889:Device/Src/rtc.c **** 
 2601              		.loc 1 889 2 view .LVU629
 891:Device/Src/rtc.c **** 		if (wave1006_read_temp_adc(&readTemp) > 0) {
 2602              		.loc 1 891 2 view .LVU630
 891:Device/Src/rtc.c **** 		if (wave1006_read_temp_adc(&readTemp) > 0) {
ARM GAS  C:\Users\86158\AppData\Local\Temp\cco5xW5w.s 			page 72


 2603              		.loc 1 891 9 is_stmt 0 view .LVU631
 2604 0008 0024     		movs	r4, #0
 886:Device/Src/rtc.c **** 	uint16_t readTemp;
 2605              		.loc 1 886 10 view .LVU632
 2606 000a 2546     		mov	r5, r4
 885:Device/Src/rtc.c **** 	uint8_t count = 0;
 2607              		.loc 1 885 8 view .LVU633
 2608 000c 9FED138A 		vldr.32	s16, .L213
 891:Device/Src/rtc.c **** 		if (wave1006_read_temp_adc(&readTemp) > 0) {
 2609              		.loc 1 891 2 view .LVU634
 2610 0010 03E0     		b	.L206
 2611              	.LVL209:
 2612              	.L207:
 900:Device/Src/rtc.c **** 	}
 2613              		.loc 1 900 3 is_stmt 1 discriminator 2 view .LVU635
 2614 0012 0520     		movs	r0, #5
 2615 0014 FFF7FEFF 		bl	HAL_Delay
 2616              	.LVL210:
 891:Device/Src/rtc.c **** 		if (wave1006_read_temp_adc(&readTemp) > 0) {
 2617              		.loc 1 891 21 discriminator 2 view .LVU636
 891:Device/Src/rtc.c **** 		if (wave1006_read_temp_adc(&readTemp) > 0) {
 2618              		.loc 1 891 22 is_stmt 0 discriminator 2 view .LVU637
 2619 0018 0134     		adds	r4, r4, #1
 2620              	.LVL211:
 2621              	.L206:
 891:Device/Src/rtc.c **** 		if (wave1006_read_temp_adc(&readTemp) > 0) {
 2622              		.loc 1 891 14 is_stmt 1 discriminator 1 view .LVU638
 891:Device/Src/rtc.c **** 		if (wave1006_read_temp_adc(&readTemp) > 0) {
 2623              		.loc 1 891 2 is_stmt 0 discriminator 1 view .LVU639
 2624 001a 042C     		cmp	r4, #4
 2625 001c 10DC     		bgt	.L212
 892:Device/Src/rtc.c **** 			quick = readTemp;
 2626              		.loc 1 892 3 is_stmt 1 view .LVU640
 892:Device/Src/rtc.c **** 			quick = readTemp;
 2627              		.loc 1 892 7 is_stmt 0 view .LVU641
 2628 001e 0DF10600 		add	r0, sp, #6
 2629 0022 FFF7FEFF 		bl	wave1006_read_temp_adc
 2630              	.LVL212:
 892:Device/Src/rtc.c **** 			quick = readTemp;
 2631              		.loc 1 892 6 view .LVU642
 2632 0026 0028     		cmp	r0, #0
 2633 0028 F3D0     		beq	.L207
 893:Device/Src/rtc.c **** 			// if (quick > 160) {
 2634              		.loc 1 893 4 is_stmt 1 view .LVU643
 893:Device/Src/rtc.c **** 			// if (quick > 160) {
 2635              		.loc 1 893 10 is_stmt 0 view .LVU644
 2636 002a BDF80630 		ldrh	r3, [sp, #6]
 2637 002e 07EE903A 		vmov	s15, r3	@ int
 2638              	.LVL213:
 897:Device/Src/rtc.c **** 			tempSum += quick;
 2639              		.loc 1 897 4 is_stmt 1 view .LVU645
 897:Device/Src/rtc.c **** 			tempSum += quick;
 2640              		.loc 1 897 9 is_stmt 0 view .LVU646
 2641 0032 0135     		adds	r5, r5, #1
 2642              	.LVL214:
 897:Device/Src/rtc.c **** 			tempSum += quick;
 2643              		.loc 1 897 9 view .LVU647
ARM GAS  C:\Users\86158\AppData\Local\Temp\cco5xW5w.s 			page 73


 2644 0034 EDB2     		uxtb	r5, r5
 2645              	.LVL215:
 898:Device/Src/rtc.c **** 		}
 2646              		.loc 1 898 4 is_stmt 1 view .LVU648
 898:Device/Src/rtc.c **** 		}
 2647              		.loc 1 898 12 is_stmt 0 view .LVU649
 2648 0036 F8EEE77A 		vcvt.f32.s32	s15, s15
 2649 003a 38EE278A 		vadd.f32	s16, s16, s15
 2650              	.LVL216:
 898:Device/Src/rtc.c **** 		}
 2651              		.loc 1 898 12 view .LVU650
 2652 003e E8E7     		b	.L207
 2653              	.LVL217:
 2654              	.L212:
 902:Device/Src/rtc.c **** 		tempSum = -300;
 2655              		.loc 1 902 2 is_stmt 1 view .LVU651
 902:Device/Src/rtc.c **** 		tempSum = -300;
 2656              		.loc 1 902 5 is_stmt 0 view .LVU652
 2657 0040 4DB1     		cbz	r5, .L210
 905:Device/Src/rtc.c **** 	}
 2658              		.loc 1 905 3 is_stmt 1 view .LVU653
 905:Device/Src/rtc.c **** 	}
 2659              		.loc 1 905 21 is_stmt 0 view .LVU654
 2660 0042 07EE905A 		vmov	s15, r5	@ int
 2661 0046 F8EEE77A 		vcvt.f32.s32	s15, s15
 905:Device/Src/rtc.c **** 	}
 2662              		.loc 1 905 11 view .LVU655
 2663 004a 88EE270A 		vdiv.f32	s0, s16, s15
 2664              	.LVL218:
 2665              	.L205:
 908:Device/Src/rtc.c **** 
 2666              		.loc 1 908 1 view .LVU656
 2667 004e 03B0     		add	sp, sp, #12
 2668              	.LCFI65:
 2669              		.cfi_remember_state
 2670              		.cfi_def_cfa_offset 20
 2671              		@ sp needed
 2672 0050 BDEC028B 		vldm	sp!, {d8}
 2673              	.LCFI66:
 2674              		.cfi_restore 80
 2675              		.cfi_restore 81
 2676              		.cfi_def_cfa_offset 12
 2677 0054 30BD     		pop	{r4, r5, pc}
 2678              	.LVL219:
 2679              	.L210:
 2680              	.LCFI67:
 2681              		.cfi_restore_state
 903:Device/Src/rtc.c **** 	} else {
 2682              		.loc 1 903 11 view .LVU657
 2683 0056 9FED020A 		vldr.32	s0, .L213+4
 2684              	.LVL220:
 907:Device/Src/rtc.c **** }
 2685              		.loc 1 907 2 is_stmt 1 view .LVU658
 907:Device/Src/rtc.c **** }
 2686              		.loc 1 907 9 is_stmt 0 view .LVU659
 2687 005a F8E7     		b	.L205
 2688              	.L214:
ARM GAS  C:\Users\86158\AppData\Local\Temp\cco5xW5w.s 			page 74


 2689              		.align	2
 2690              	.L213:
 2691 005c 00000000 		.word	0
 2692 0060 000096C3 		.word	-1013579776
 2693              		.cfi_endproc
 2694              	.LFE237:
 2696              		.global	g_capList
 2697              		.global	g_otpBuffer
 2698              		.section	.rodata
 2699              		.align	2
 2700              		.set	.LANCHOR1,. + 0
 2701              	.LC5:
 2702 0000 BCEBFFFF 		.ascii	"\274\353\377\377/\377\377\376\"\377\000\000\377\002"
 2702      2FFFFFFE 
 2702      22FF0000 
 2702      FF02
 2703 000e DC4A     		.ascii	"\334J"
 2704              		.section	.data.g_capList,"aw"
 2705              		.align	2
 2706              		.set	.LANCHOR2,. + 0
 2709              	g_capList:
 2710 0000 1800     		.ascii	"\030\000"
 2711 0002 1802     		.ascii	"\030\002"
 2712 0004 1804     		.ascii	"\030\004"
 2713 0006 180A     		.ascii	"\030\012"
 2714 0008 1807     		.ascii	"\030\007"
 2715 000a 1818     		.ascii	"\030\030"
 2716 000c 180F     		.ascii	"\030\017"
 2717 000e 181B     		.ascii	"\030\033"
 2718 0010 181D     		.ascii	"\030\035"
 2719 0012 1826     		.ascii	"\030&"
 2720 0014 1838     		.ascii	"\0308"
 2721 0016 182E     		.ascii	"\030."
 2722 0018 1836     		.ascii	"\0306"
 2723 001a 1837     		.ascii	"\0307"
 2724 001c 183E     		.ascii	"\030>"
 2725 001e 1841     		.ascii	"\030A"
 2726 0020 1848     		.ascii	"\030H"
 2727 0022 1849     		.ascii	"\030I"
 2728 0024 184A     		.ascii	"\030J"
 2729 0026 1851     		.ascii	"\030Q"
 2730 0028 1852     		.ascii	"\030R"
 2731 002a 184D     		.ascii	"\030M"
 2732 002c 184E     		.ascii	"\030N"
 2733 002e 1861     		.ascii	"\030a"
 2734 0030 1862     		.ascii	"\030b"
 2735 0032 185C     		.ascii	"\030\\"
 2736 0034 1864     		.ascii	"\030d"
 2737 0036 1870     		.ascii	"\030p"
 2738 0038 1866     		.ascii	"\030f"
 2739 003a 186B     		.ascii	"\030k"
 2740 003c 1878     		.ascii	"\030x"
 2741 003e 1873     		.ascii	"\030s"
 2742 0040 1879     		.ascii	"\030y"
 2743 0042 186F     		.ascii	"\030o"
 2744 0044 187B     		.ascii	"\030{"
 2745 0046 1877     		.ascii	"\030w"
ARM GAS  C:\Users\86158\AppData\Local\Temp\cco5xW5w.s 			page 75


 2746 0048 187D     		.ascii	"\030}"
 2747 004a 1881     		.ascii	"\030\201"
 2748 004c 1882     		.ascii	"\030\202"
 2749 004e 1888     		.ascii	"\030\210"
 2750 0050 1889     		.ascii	"\030\211"
 2751 0052 1890     		.ascii	"\030\220"
 2752 0054 1891     		.ascii	"\030\221"
 2753 0056 1887     		.ascii	"\030\207"
 2754 0058 1898     		.ascii	"\030\230"
 2755 005a 1894     		.ascii	"\030\224"
 2756 005c 18A1     		.ascii	"\030\241"
 2757 005e 18A2     		.ascii	"\030\242"
 2758 0060 189B     		.ascii	"\030\233"
 2759 0062 18A4     		.ascii	"\030\244"
 2760 0064 189D     		.ascii	"\030\235"
 2761 0066 18A6     		.ascii	"\030\246"
 2762 0068 18B2     		.ascii	"\030\262"
 2763 006a 18B8     		.ascii	"\030\270"
 2764 006c 18B9     		.ascii	"\030\271"
 2765 006e 18BA     		.ascii	"\030\272"
 2766 0070 18B6     		.ascii	"\030\266"
 2767 0072 18BC     		.ascii	"\030\274"
 2768 0074 18BD     		.ascii	"\030\275"
 2769 0076 18BE     		.ascii	"\030\276"
 2770 0078 18BF     		.ascii	"\030\277"
 2771 007a 18C1     		.ascii	"\030\301"
 2772 007c 18C2     		.ascii	"\030\302"
 2773 007e 18C8     		.ascii	"\030\310"
 2774 0080 18C4     		.ascii	"\030\304"
 2775 0082 18C9     		.ascii	"\030\311"
 2776 0084 18CA     		.ascii	"\030\312"
 2777 0086 18C6     		.ascii	"\030\306"
 2778 0088 18D1     		.ascii	"\030\321"
 2779 008a 18D2     		.ascii	"\030\322"
 2780 008c 18D8     		.ascii	"\030\330"
 2781 008e 18D4     		.ascii	"\030\324"
 2782 0090 18D9     		.ascii	"\030\331"
 2783 0092 18DA     		.ascii	"\030\332"
 2784 0094 18E2     		.ascii	"\030\342"
 2785 0096 18DB     		.ascii	"\030\333"
 2786 0098 18E3     		.ascii	"\030\343"
 2787 009a 18E9     		.ascii	"\030\351"
 2788 009c 18E5     		.ascii	"\030\345"
 2789 009e 18E6     		.ascii	"\030\346"
 2790 00a0 18EB     		.ascii	"\030\353"
 2791 00a2 18E7     		.ascii	"\030\347"
 2792 00a4 18ED     		.ascii	"\030\355"
 2793 00a6 18F9     		.ascii	"\030\371"
 2794 00a8 18EE     		.ascii	"\030\356"
 2795 00aa 18F5     		.ascii	"\030\365"
 2796 00ac 18EF     		.ascii	"\030\357"
 2797 00ae 18FC     		.ascii	"\030\374"
 2798 00b0 18F7     		.ascii	"\030\367"
 2799 00b2 18FD     		.ascii	"\030\375"
 2800 00b4 18FE     		.ascii	"\030\376"
 2801 00b6 1908     		.ascii	"\031\010"
 2802 00b8 18FF     		.ascii	"\030\377"
ARM GAS  C:\Users\86158\AppData\Local\Temp\cco5xW5w.s 			page 76


 2803 00ba 1910     		.ascii	"\031\020"
 2804 00bc 190A     		.ascii	"\031\012"
 2805 00be 1911     		.ascii	"\031\021"
 2806 00c0 1912     		.ascii	"\031\022"
 2807 00c2 1918     		.ascii	"\031\030"
 2808 00c4 1913     		.ascii	"\031\023"
 2809 00c6 1919     		.ascii	"\031\031"
 2810 00c8 1915     		.ascii	"\031\025"
 2811 00ca 1922     		.ascii	"\031\""
 2812 00cc 191B     		.ascii	"\031\033"
 2813 00ce 1924     		.ascii	"\031$"
 2814 00d0 191D     		.ascii	"\031\035"
 2815 00d2 1925     		.ascii	"\031%"
 2816 00d4 1931     		.ascii	"\0311"
 2817 00d6 1932     		.ascii	"\0312"
 2818 00d8 1927     		.ascii	"\031'"
 2819 00da 1933     		.ascii	"\0313"
 2820 00dc 192E     		.ascii	"\031."
 2821 00de 193A     		.ascii	"\031:"
 2822 00e0 192F     		.ascii	"\031/"
 2823 00e2 193B     		.ascii	"\031;"
 2824 00e4 1937     		.ascii	"\0317"
 2825 00e6 193D     		.ascii	"\031="
 2826 00e8 193E     		.ascii	"\031>"
 2827 00ea 1940     		.ascii	"\031@"
 2828 00ec 193F     		.ascii	"\031?"
 2829 00ee 1941     		.ascii	"\031A"
 2830 00f0 1942     		.ascii	"\031B"
 2831 00f2 1942     		.ascii	"\031B"
 2832 00f4 1948     		.ascii	"\031H"
 2833 00f6 1944     		.ascii	"\031D"
 2834 00f8 1949     		.ascii	"\031I"
 2835 00fa 1945     		.ascii	"\031E"
 2836 00fc 1946     		.ascii	"\031F"
 2837 00fe 1946     		.ascii	"\031F"
 2838 0100 1952     		.ascii	"\031R"
 2839 0102 1947     		.ascii	"\031G"
 2840 0104 1960     		.ascii	"\031`"
 2841 0106 1954     		.ascii	"\031T"
 2842 0108 1959     		.ascii	"\031Y"
 2843 010a 195A     		.ascii	"\031Z"
 2844 010c 1962     		.ascii	"\031b"
 2845 010e 1968     		.ascii	"\031h"
 2846 0110 195C     		.ascii	"\031\\"
 2847 0112 1970     		.ascii	"\031p"
 2848 0114 195D     		.ascii	"\031]"
 2849 0116 196A     		.ascii	"\031j"
 2850 0118 1966     		.ascii	"\031f"
 2851 011a 196B     		.ascii	"\031k"
 2852 011c 195F     		.ascii	"\031_"
 2853 011e 1967     		.ascii	"\031g"
 2854 0120 1974     		.ascii	"\031t"
 2855 0122 196E     		.ascii	"\031n"
 2856 0124 1975     		.ascii	"\031u"
 2857 0126 196F     		.ascii	"\031o"
 2858 0128 1976     		.ascii	"\031v"
 2859 012a 197C     		.ascii	"\031|"
ARM GAS  C:\Users\86158\AppData\Local\Temp\cco5xW5w.s 			page 77


 2860 012c 1980     		.ascii	"\031\200"
 2861 012e 197D     		.ascii	"\031}"
 2862 0130 1981     		.ascii	"\031\201"
 2863 0132 197E     		.ascii	"\031~"
 2864 0134 1982     		.ascii	"\031\202"
 2865 0136 197F     		.ascii	"\031\177"
 2866 0138 1983     		.ascii	"\031\203"
 2867 013a 1989     		.ascii	"\031\211"
 2868 013c 1990     		.ascii	"\031\220"
 2869 013e 198A     		.ascii	"\031\212"
 2870 0140 1991     		.ascii	"\031\221"
 2871 0142 198B     		.ascii	"\031\213"
 2872 0144 1998     		.ascii	"\031\230"
 2873 0146 198D     		.ascii	"\031\215"
 2874 0148 1994     		.ascii	"\031\224"
 2875 014a 19A1     		.ascii	"\031\241"
 2876 014c 199A     		.ascii	"\031\232"
 2877 014e 198F     		.ascii	"\031\217"
 2878 0150 199B     		.ascii	"\031\233"
 2879 0152 19A4     		.ascii	"\031\244"
 2880 0154 19B0     		.ascii	"\031\260"
 2881 0156 19AA     		.ascii	"\031\252"
 2882 0158 19B1     		.ascii	"\031\261"
 2883 015a 19A6     		.ascii	"\031\246"
 2884 015c 19B8     		.ascii	"\031\270"
 2885 015e 19A7     		.ascii	"\031\247"
 2886 0160 19B3     		.ascii	"\031\263"
 2887 0162 19AE     		.ascii	"\031\256"
 2888 0164 19BA     		.ascii	"\031\272"
 2889 0166 19B5     		.ascii	"\031\265"
 2890 0168 19BB     		.ascii	"\031\273"
 2891 016a 19BC     		.ascii	"\031\274"
 2892 016c 19B7     		.ascii	"\031\267"
 2893 016e 19BD     		.ascii	"\031\275"
 2894 0170 19C0     		.ascii	"\031\300"
 2895 0172 19C0     		.ascii	"\031\300"
 2896 0174 19BF     		.ascii	"\031\277"
 2897 0176 19BF     		.ascii	"\031\277"
 2898 0178 19C1     		.ascii	"\031\301"
 2899 017a 19C2     		.ascii	"\031\302"
 2900 017c 19C2     		.ascii	"\031\302"
 2901 017e 19C8     		.ascii	"\031\310"
 2902 0180 19C3     		.ascii	"\031\303"
 2903 0182 19C4     		.ascii	"\031\304"
 2904 0184 19C9     		.ascii	"\031\311"
 2905 0186 19C9     		.ascii	"\031\311"
 2906 0188 19C5     		.ascii	"\031\305"
 2907 018a 19D1     		.ascii	"\031\321"
 2908 018c 19C6     		.ascii	"\031\306"
 2909 018e 19D2     		.ascii	"\031\322"
 2910 0190 19D8     		.ascii	"\031\330"
 2911 0192 19C7     		.ascii	"\031\307"
 2912 0194 19D4     		.ascii	"\031\324"
 2913 0196 19D3     		.ascii	"\031\323"
 2914 0198 19E1     		.ascii	"\031\341"
 2915 019a 19CE     		.ascii	"\031\316"
 2916 019c 19E2     		.ascii	"\031\342"
ARM GAS  C:\Users\86158\AppData\Local\Temp\cco5xW5w.s 			page 78


 2917 019e 19E8     		.ascii	"\031\350"
 2918 01a0 19D6     		.ascii	"\031\326"
 2919 01a2 19DB     		.ascii	"\031\333"
 2920 01a4 19F0     		.ascii	"\031\360"
 2921 01a6 19D7     		.ascii	"\031\327"
 2922 01a8 19EA     		.ascii	"\031\352"
 2923 01aa 19DD     		.ascii	"\031\335"
 2924 01ac 19F1     		.ascii	"\031\361"
 2925 01ae 19E6     		.ascii	"\031\346"
 2926 01b0 19F2     		.ascii	"\031\362"
 2927 01b2 19F8     		.ascii	"\031\370"
 2928 01b4 19DF     		.ascii	"\031\337"
 2929 01b6 19E7     		.ascii	"\031\347"
 2930 01b8 19F4     		.ascii	"\031\364"
 2931 01ba 19EE     		.ascii	"\031\356"
 2932 01bc 19FA     		.ascii	"\031\372"
 2933 01be 1A00     		.ascii	"\032\000"
 2934 01c0 19F6     		.ascii	"\031\366"
 2935 01c2 19EF     		.ascii	"\031\357"
 2936 01c4 1A01     		.ascii	"\032\001"
 2937 01c6 1A02     		.ascii	"\032\002"
 2938 01c8 1A08     		.ascii	"\032\010"
 2939 01ca 19FD     		.ascii	"\031\375"
 2940 01cc 19FE     		.ascii	"\031\376"
 2941 01ce 1A04     		.ascii	"\032\004"
 2942 01d0 1A10     		.ascii	"\032\020"
 2943 01d2 1A0A     		.ascii	"\032\012"
 2944 01d4 1A05     		.ascii	"\032\005"
 2945 01d6 1A11     		.ascii	"\032\021"
 2946 01d8 1A06     		.ascii	"\032\006"
 2947 01da 1A18     		.ascii	"\032\030"
 2948 01dc 1A20     		.ascii	"\032 "
 2949 01de 1A07     		.ascii	"\032\007"
 2950 01e0 1A14     		.ascii	"\032\024"
 2951 01e2 1A19     		.ascii	"\032\031"
 2952 01e4 1A0E     		.ascii	"\032\016"
 2953 01e6 1A22     		.ascii	"\032\""
 2954 01e8 1A28     		.ascii	"\032("
 2955 01ea 1A0F     		.ascii	"\032\017"
 2956 01ec 1A1B     		.ascii	"\032\033"
 2957 01ee 1A24     		.ascii	"\032$"
 2958 01f0 1A30     		.ascii	"\0320"
 2959 01f2 1A17     		.ascii	"\032\027"
 2960 01f4 1A25     		.ascii	"\032%"
 2961 01f6 1A1E     		.ascii	"\032\036"
 2962 01f8 1A2B     		.ascii	"\032+"
 2963 01fa 1A38     		.ascii	"\0328"
 2964 01fc 1A1F     		.ascii	"\032\037"
 2965 01fe 1A27     		.ascii	"\032'"
 2966 0200 1A39     		.ascii	"\0329"
 2967 0202 1A39     		.ascii	"\0329"
 2968 0204 1A3A     		.ascii	"\032:"
 2969 0206 1A35     		.ascii	"\0325"
 2970 0208 1A35     		.ascii	"\0325"
 2971 020a 1A3B     		.ascii	"\032;"
 2972 020c 1A3C     		.ascii	"\032<"
 2973 020e 1A3C     		.ascii	"\032<"
ARM GAS  C:\Users\86158\AppData\Local\Temp\cco5xW5w.s 			page 79


 2974 0210 1A37     		.ascii	"\0327"
 2975 0212 1A3D     		.ascii	"\032="
 2976 0214 1A3E     		.ascii	"\032>"
 2977 0216 1A3E     		.ascii	"\032>"
 2978 0218 1A40     		.ascii	"\032@"
 2979 021a 1A40     		.ascii	"\032@"
 2980 021c 1A3F     		.ascii	"\032?"
 2981 021e 1A41     		.ascii	"\032A"
 2982 0220 1A41     		.ascii	"\032A"
 2983 0222 1A42     		.ascii	"\032B"
 2984 0224 1A48     		.ascii	"\032H"
 2985 0226 1A48     		.ascii	"\032H"
 2986 0228 1A43     		.ascii	"\032C"
 2987 022a 1A50     		.ascii	"\032P"
 2988 022c 1A4A     		.ascii	"\032J"
 2989 022e 1A45     		.ascii	"\032E"
 2990 0230 1A51     		.ascii	"\032Q"
 2991 0232 1A46     		.ascii	"\032F"
 2992 0234 1A58     		.ascii	"\032X"
 2993 0236 1A60     		.ascii	"\032`"
 2994 0238 1A47     		.ascii	"\032G"
 2995 023a 1A59     		.ascii	"\032Y"
 2996 023c 1A61     		.ascii	"\032a"
 2997 023e 1A5A     		.ascii	"\032Z"
 2998 0240 1A62     		.ascii	"\032b"
 2999 0242 1A55     		.ascii	"\032U"
 3000 0244 1A5B     		.ascii	"\032["
 3001 0246 1A63     		.ascii	"\032c"
 3002 0248 1A70     		.ascii	"\032p"
 3003 024a 1A6A     		.ascii	"\032j"
 3004 024c 1A71     		.ascii	"\032q"
 3005 024e 1A5E     		.ascii	"\032^"
 3006 0250 1A78     		.ascii	"\032x"
 3007 0252 1A6C     		.ascii	"\032l"
 3008 0254 1A5F     		.ascii	"\032_"
 3009 0256 1A73     		.ascii	"\032s"
 3010 0258 1A74     		.ascii	"\032t"
 3011 025a 1A6D     		.ascii	"\032m"
 3012 025c 1A7A     		.ascii	"\032z"
 3013 025e 1A75     		.ascii	"\032u"
 3014 0260 1A75     		.ascii	"\032u"
 3015 0262 1A7C     		.ascii	"\032|"
 3016 0264 1A7C     		.ascii	"\032|"
 3017 0266 1A80     		.ascii	"\032\200"
 3018 0268 1A80     		.ascii	"\032\200"
 3019 026a 1A7E     		.ascii	"\032~"
 3020 026c 1A81     		.ascii	"\032\201"
 3021 026e 1A81     		.ascii	"\032\201"
 3022 0270 1A7F     		.ascii	"\032\177"
 3023 0272 1A88     		.ascii	"\032\210"
 3024 0274 1A88     		.ascii	"\032\210"
 3025 0276 1A83     		.ascii	"\032\203"
 3026 0278 1A83     		.ascii	"\032\203"
 3027 027a 1A90     		.ascii	"\032\220"
 3028 027c 1A8A     		.ascii	"\032\212"
 3029 027e 1A91     		.ascii	"\032\221"
 3030 0280 1A86     		.ascii	"\032\206"
ARM GAS  C:\Users\86158\AppData\Local\Temp\cco5xW5w.s 			page 80


 3031 0282 1A8B     		.ascii	"\032\213"
 3032 0284 1AA0     		.ascii	"\032\240"
 3033 0286 1A87     		.ascii	"\032\207"
 3034 0288 1A8D     		.ascii	"\032\215"
 3035 028a 1A9A     		.ascii	"\032\232"
 3036 028c 1AA2     		.ascii	"\032\242"
 3037 028e 1A95     		.ascii	"\032\225"
 3038 0290 1A8F     		.ascii	"\032\217"
 3039 0292 1AB0     		.ascii	"\032\260"
 3040 0294 1AA9     		.ascii	"\032\251"
 3041 0296 1A97     		.ascii	"\032\227"
 3042 0298 1AB1     		.ascii	"\032\261"
 3043 029a 1A9E     		.ascii	"\032\236"
 3044 029c 1AB8     		.ascii	"\032\270"
 3045 029e 1AAC     		.ascii	"\032\254"
 3046 02a0 1A9F     		.ascii	"\032\237"
 3047 02a2 1AB3     		.ascii	"\032\263"
 3048 02a4 1AB4     		.ascii	"\032\264"
 3049 02a6 1ABA     		.ascii	"\032\272"
 3050 02a8 1AAE     		.ascii	"\032\256"
 3051 02aa 1AB5     		.ascii	"\032\265"
 3052 02ac 1ABC     		.ascii	"\032\274"
 3053 02ae 1ABC     		.ascii	"\032\274"
 3054 02b0 1AB7     		.ascii	"\032\267"
 3055 02b2 1ABD     		.ascii	"\032\275"
 3056 02b4 1ABD     		.ascii	"\032\275"
 3057 02b6 1ABE     		.ascii	"\032\276"
 3058 02b8 1AC0     		.ascii	"\032\300"
 3059 02ba 1ABF     		.ascii	"\032\277"
 3060 02bc 1AC1     		.ascii	"\032\301"
 3061 02be 1AC1     		.ascii	"\032\301"
 3062 02c0 1AC2     		.ascii	"\032\302"
 3063 02c2 1AC8     		.ascii	"\032\310"
 3064 02c4 1AC8     		.ascii	"\032\310"
 3065 02c6 1AC3     		.ascii	"\032\303"
 3066 02c8 1AC9     		.ascii	"\032\311"
 3067 02ca 1ACA     		.ascii	"\032\312"
 3068 02cc 1AD1     		.ascii	"\032\321"
 3069 02ce 1AC6     		.ascii	"\032\306"
 3070 02d0 1AE0     		.ascii	"\032\340"
 3071 02d2 1AE0     		.ascii	"\032\340"
 3072 02d4 1AD3     		.ascii	"\032\323"
 3073 02d6 1AE1     		.ascii	"\032\341"
 3074 02d8 1ADA     		.ascii	"\032\332"
 3075 02da 1AE8     		.ascii	"\032\350"
 3076 02dc 1AD5     		.ascii	"\032\325"
 3077 02de 1ACF     		.ascii	"\032\317"
 3078 02e0 1AE9     		.ascii	"\032\351"
 3079 02e2 1AD7     		.ascii	"\032\327"
 3080 02e4 1AF1     		.ascii	"\032\361"
 3081 02e6 1AE5     		.ascii	"\032\345"
 3082 02e8 1AF8     		.ascii	"\032\370"
 3083 02ea 1AEC     		.ascii	"\032\354"
 3084 02ec 1AF3     		.ascii	"\032\363"
 3085 02ee 1AF3     		.ascii	"\032\363"
 3086 02f0 1AFA     		.ascii	"\032\372"
 3087 02f2 1AEE     		.ascii	"\032\356"
ARM GAS  C:\Users\86158\AppData\Local\Temp\cco5xW5w.s 			page 81


 3088 02f4 1B00     		.ascii	"\033\000"
 3089 02f6 1AFB     		.ascii	"\032\373"
 3090 02f8 1AFC     		.ascii	"\032\374"
 3091 02fa 1B01     		.ascii	"\033\001"
 3092 02fc 1AF7     		.ascii	"\032\367"
 3093 02fe 1B08     		.ascii	"\033\010"
 3094 0300 1AFE     		.ascii	"\032\376"
 3095 0302 1B10     		.ascii	"\033\020"
 3096 0304 1AFF     		.ascii	"\032\377"
 3097 0306 1B0A     		.ascii	"\033\012"
 3098 0308 1B11     		.ascii	"\033\021"
 3099 030a 1B18     		.ascii	"\033\030"
 3100 030c 1B20     		.ascii	"\033 "
 3101 030e 1B07     		.ascii	"\033\007"
 3102 0310 1B19     		.ascii	"\033\031"
 3103 0312 1B21     		.ascii	"\033!"
 3104 0314 1B0E     		.ascii	"\033\016"
 3105 0316 1B15     		.ascii	"\033\025"
 3106 0318 1B0F     		.ascii	"\033\017"
 3107 031a 1B30     		.ascii	"\0330"
 3108 031c 1B29     		.ascii	"\033)"
 3109 031e 1B17     		.ascii	"\033\027"
 3110 0320 1B25     		.ascii	"\033%"
 3111 0322 1B38     		.ascii	"\0338"
 3112 0324 1B26     		.ascii	"\033&"
 3113 0326 1B39     		.ascii	"\0339"
 3114 0328 1B34     		.ascii	"\0334"
 3115 032a 1B3A     		.ascii	"\033:"
 3116 032c 1B2E     		.ascii	"\033."
 3117 032e 1B35     		.ascii	"\0335"
 3118 0330 1B3B     		.ascii	"\033;"
 3119 0332 1B3C     		.ascii	"\033<"
 3120 0334 1B37     		.ascii	"\0337"
 3121 0336 1B3D     		.ascii	"\033="
 3122 0338 1B3D     		.ascii	"\033="
 3123 033a 1B3E     		.ascii	"\033>"
 3124 033c 1B40     		.ascii	"\033@"
 3125 033e 1B40     		.ascii	"\033@"
 3126 0340 1B3F     		.ascii	"\033?"
 3127 0342 1B41     		.ascii	"\033A"
 3128 0344 1B42     		.ascii	"\033B"
 3129 0346 1B48     		.ascii	"\033H"
 3130 0348 1B44     		.ascii	"\033D"
 3131 034a 1B50     		.ascii	"\033P"
 3132 034c 1B43     		.ascii	"\033C"
 3133 034e 1B4A     		.ascii	"\033J"
 3134 0350 1B51     		.ascii	"\033Q"
 3135 0352 1B60     		.ascii	"\033`"
 3136 0354 1B53     		.ascii	"\033S"
 3137 0356 1B61     		.ascii	"\033a"
 3138 0358 1B5A     		.ascii	"\033Z"
 3139 035a 1B68     		.ascii	"\033h"
 3140 035c 1B55     		.ascii	"\033U"
 3141 035e 1B70     		.ascii	"\033p"
 3142 0360 1B64     		.ascii	"\033d"
 3143 0362 1B6A     		.ascii	"\033j"
 3144 0364 1B65     		.ascii	"\033e"
ARM GAS  C:\Users\86158\AppData\Local\Temp\cco5xW5w.s 			page 82


 3145 0366 1B78     		.ascii	"\033x"
 3146 0368 1B66     		.ascii	"\033f"
 3147 036a 1B5F     		.ascii	"\033_"
 3148 036c 1B74     		.ascii	"\033t"
 3149 036e 1B6E     		.ascii	"\033n"
 3150 0370 1B75     		.ascii	"\033u"
 3151 0372 1B7D     		.ascii	"\033}"
 3152 0374 1B7C     		.ascii	"\033|"
 3153 0376 1B6F     		.ascii	"\033o"
 3154 0378 1B77     		.ascii	"\033w"
 3155 037a 1B7E     		.ascii	"\033~"
 3156 037c 1B81     		.ascii	"\033\201"
 3157 037e 1B88     		.ascii	"\033\210"
 3158 0380 1B88     		.ascii	"\033\210"
 3159 0382 1B83     		.ascii	"\033\203"
 3160 0384 1B83     		.ascii	"\033\203"
 3161 0386 1B89     		.ascii	"\033\211"
 3162 0388 1B8A     		.ascii	"\033\212"
 3163 038a 1B91     		.ascii	"\033\221"
 3164 038c 1B98     		.ascii	"\033\230"
 3165 038e 1B86     		.ascii	"\033\206"
 3166 0390 1B8C     		.ascii	"\033\214"
 3167 0392 1B99     		.ascii	"\033\231"
 3168 0394 1B8D     		.ascii	"\033\215"
 3169 0396 1B8E     		.ascii	"\033\216"
 3170 0398 1B95     		.ascii	"\033\225"
 3171 039a 1BA9     		.ascii	"\033\251"
 3172 039c 1BAA     		.ascii	"\033\252"
 3173 039e 1B97     		.ascii	"\033\227"
 3174 03a0 1BA5     		.ascii	"\033\245"
 3175 03a2 1BB2     		.ascii	"\033\262"
 3176 03a4 1BB9     		.ascii	"\033\271"
 3177 03a6 1BB3     		.ascii	"\033\263"
 3178 03a8 1BBA     		.ascii	"\033\272"
 3179 03aa 1BAE     		.ascii	"\033\256"
 3180 03ac 1BB5     		.ascii	"\033\265"
 3181 03ae 1BB6     		.ascii	"\033\266"
 3182 03b0 1BAF     		.ascii	"\033\257"
 3183 03b2 1BB7     		.ascii	"\033\267"
 3184 03b4 1BBD     		.ascii	"\033\275"
 3185 03b6 1BBE     		.ascii	"\033\276"
 3186 03b8 1BC0     		.ascii	"\033\300"
 3187 03ba 1BBF     		.ascii	"\033\277"
 3188 03bc 1BC1     		.ascii	"\033\301"
 3189 03be 1BC2     		.ascii	"\033\302"
 3190 03c0 1BC8     		.ascii	"\033\310"
 3191 03c2 1BC9     		.ascii	"\033\311"
 3192 03c4 1BD0     		.ascii	"\033\320"
 3193 03c6 1BCA     		.ascii	"\033\312"
 3194 03c8 1BC5     		.ascii	"\033\305"
 3195 03ca 1BD2     		.ascii	"\033\322"
 3196 03cc 1BCC     		.ascii	"\033\314"
 3197 03ce 1BD9     		.ascii	"\033\331"
 3198 03d0 1BE1     		.ascii	"\033\341"
 3199 03d2 1BE2     		.ascii	"\033\342"
 3200 03d4 1BD5     		.ascii	"\033\325"
 3201 03d6 1BDB     		.ascii	"\033\333"
ARM GAS  C:\Users\86158\AppData\Local\Temp\cco5xW5w.s 			page 83


 3202 03d8 1BE9     		.ascii	"\033\351"
 3203 03da 1BF1     		.ascii	"\033\361"
 3204 03dc 1BDD     		.ascii	"\033\335"
 3205 03de 1BF2     		.ascii	"\033\362"
 3206 03e0 1BF9     		.ascii	"\033\371"
 3207 03e2 1C01     		.ascii	"\034\001"
 3208 03e4 1C02     		.ascii	"\034\002"
 3209 03e6 1BEE     		.ascii	"\033\356"
 3210 03e8 1C10     		.ascii	"\034\020"
 3211 03ea 1C09     		.ascii	"\034\011"
 3212 03ec 1C0A     		.ascii	"\034\012"
 3213 03ee 1BFD     		.ascii	"\033\375"
 3214 03f0 1C0B     		.ascii	"\034\013"
 3215 03f2 1C0C     		.ascii	"\034\014"
 3216 03f4 1C19     		.ascii	"\034\031"
 3217 03f6 1C1A     		.ascii	"\034\032"
 3218 03f8 1C28     		.ascii	"\034("
 3219 03fa 1C30     		.ascii	"\0340"
 3220 03fc 1C1C     		.ascii	"\034\034"
 3221 03fe 1C16     		.ascii	"\034\026"
 3222 0400 1C31     		.ascii	"\0341"
 3223 0402 1C32     		.ascii	"\0342"
 3224 0404 1C2C     		.ascii	"\034,"
 3225 0406 1C33     		.ascii	"\0343"
 3226 0408 1C3A     		.ascii	"\034:"
 3227 040a 1C2D     		.ascii	"\034-"
 3228 040c 1C2E     		.ascii	"\034."
 3229 040e 1C3C     		.ascii	"\034<"
 3230 0410 1C2F     		.ascii	"\034/"
 3231 0412 1C3D     		.ascii	"\034="
 3232 0414 1C37     		.ascii	"\0347"
 3233 0416 1C3E     		.ascii	"\034>"
 3234 0418 1C40     		.ascii	"\034@"
 3235 041a 1C3F     		.ascii	"\034?"
 3236 041c 1C41     		.ascii	"\034A"
 3237 041e 1C48     		.ascii	"\034H"
 3238 0420 1C42     		.ascii	"\034B"
 3239 0422 1C49     		.ascii	"\034I"
 3240 0424 1C43     		.ascii	"\034C"
 3241 0426 1C4A     		.ascii	"\034J"
 3242 0428 1C58     		.ascii	"\034X"
 3243 042a 1C46     		.ascii	"\034F"
 3244 042c 1C4C     		.ascii	"\034L"
 3245 042e 1C59     		.ascii	"\034Y"
 3246 0430 1C68     		.ascii	"\034h"
 3247 0432 1C4E     		.ascii	"\034N"
 3248 0434 1C56     		.ascii	"\034V"
 3249 0436 1C69     		.ascii	"\034i"
 3250 0438 1C71     		.ascii	"\034q"
 3251 043a 1C72     		.ascii	"\034r"
 3252 043c 1C6C     		.ascii	"\034l"
 3253 043e 1C79     		.ascii	"\034y"
 3254 0440 1C7A     		.ascii	"\034z"
 3255 0442 1C6D     		.ascii	"\034m"
 3256 0444 1C7B     		.ascii	"\034{"
 3257 0446 1C7C     		.ascii	"\034|"
 3258 0448 1C6F     		.ascii	"\034o"
ARM GAS  C:\Users\86158\AppData\Local\Temp\cco5xW5w.s 			page 84


 3259 044a 1C80     		.ascii	"\034\200"
 3260 044c 1C7E     		.ascii	"\034~"
 3261 044e 1C81     		.ascii	"\034\201"
 3262 0450 1C88     		.ascii	"\034\210"
 3263 0452 1C7F     		.ascii	"\034\177"
 3264 0454 1C90     		.ascii	"\034\220"
 3265 0456 1C89     		.ascii	"\034\211"
 3266 0458 1C91     		.ascii	"\034\221"
 3267 045a 1C98     		.ascii	"\034\230"
 3268 045c 1C8C     		.ascii	"\034\214"
 3269 045e 1CA1     		.ascii	"\034\241"
 3270 0460 1CA8     		.ascii	"\034\250"
 3271 0462 1CA2     		.ascii	"\034\242"
 3272 0464 1C95     		.ascii	"\034\225"
 3273 0466 1CA3     		.ascii	"\034\243"
 3274 0468 1CAA     		.ascii	"\034\252"
 3275 046a 1CB8     		.ascii	"\034\270"
 3276 046c 1CA5     		.ascii	"\034\245"
 3277 046e 1CB9     		.ascii	"\034\271"
 3278 0470 1C9F     		.ascii	"\034\237"
 3279 0472 1CA7     		.ascii	"\034\247"
 3280 0474 1CAE     		.ascii	"\034\256"
 3281 0476 1CBC     		.ascii	"\034\274"
 3282 0478 1CB6     		.ascii	"\034\266"
 3283 047a 1CB7     		.ascii	"\034\267"
 3284 047c 1CBD     		.ascii	"\034\275"
 3285 047e 1CBE     		.ascii	"\034\276"
 3286 0480 1CBF     		.ascii	"\034\277"
 3287 0482 1CC1     		.ascii	"\034\301"
 3288 0484 1CC2     		.ascii	"\034\302"
 3289 0486 1CD0     		.ascii	"\034\320"
 3290 0488 1CC3     		.ascii	"\034\303"
 3291 048a 1CC4     		.ascii	"\034\304"
 3292 048c 1CD1     		.ascii	"\034\321"
 3293 048e 1CC6     		.ascii	"\034\306"
 3294 0490 1CCC     		.ascii	"\034\314"
 3295 0492 1CE1     		.ascii	"\034\341"
 3296 0494 1CCD     		.ascii	"\034\315"
 3297 0496 1CCE     		.ascii	"\034\316"
 3298 0498 1CE9     		.ascii	"\034\351"
 3299 049a 1CEA     		.ascii	"\034\352"
 3300 049c 1CF1     		.ascii	"\034\361"
 3301 049e 1CDE     		.ascii	"\034\336"
 3302 04a0 1CF3     		.ascii	"\034\363"
 3303 04a2 1CF4     		.ascii	"\034\364"
 3304 04a4 1CEE     		.ascii	"\034\356"
 3305 04a6 1CF5     		.ascii	"\034\365"
 3306 04a8 1CFC     		.ascii	"\034\374"
 3307 04aa 1CEF     		.ascii	"\034\357"
 3308 04ac 1CF7     		.ascii	"\034\367"
 3309 04ae 1D02     		.ascii	"\035\002"
 3310 04b0 1D08     		.ascii	"\035\010"
 3311 04b2 1D09     		.ascii	"\035\011"
 3312 04b4 1D04     		.ascii	"\035\004"
 3313 04b6 1D11     		.ascii	"\035\021"
 3314 04b8 1D05     		.ascii	"\035\005"
 3315 04ba 1D06     		.ascii	"\035\006"
ARM GAS  C:\Users\86158\AppData\Local\Temp\cco5xW5w.s 			page 85


 3316 04bc 1D13     		.ascii	"\035\023"
 3317 04be 1D28     		.ascii	"\035("
 3318 04c0 1D15     		.ascii	"\035\025"
 3319 04c2 1D16     		.ascii	"\035\026"
 3320 04c4 1D38     		.ascii	"\0358"
 3321 04c6 1D1D     		.ascii	"\035\035"
 3322 04c8 1D1E     		.ascii	"\035\036"
 3323 04ca 1D33     		.ascii	"\0353"
 3324 04cc 1D2D     		.ascii	"\035-"
 3325 04ce 1D2E     		.ascii	"\035."
 3326 04d0 1D3C     		.ascii	"\035<"
 3327 04d2 1D36     		.ascii	"\0356"
 3328 04d4 1D3D     		.ascii	"\035="
 3329 04d6 1D37     		.ascii	"\0357"
 3330 04d8 1D40     		.ascii	"\035@"
 3331 04da 1D3F     		.ascii	"\035?"
 3332 04dc 1D41     		.ascii	"\035A"
 3333 04de 1D42     		.ascii	"\035B"
 3334 04e0 1D50     		.ascii	"\035P"
 3335 04e2 1D43     		.ascii	"\035C"
 3336 04e4 1D4A     		.ascii	"\035J"
 3337 04e6 1D45     		.ascii	"\035E"
 3338 04e8 1D46     		.ascii	"\035F"
 3339 04ea 1D59     		.ascii	"\035Y"
 3340 04ec 1D4D     		.ascii	"\035M"
 3341 04ee 1D4E     		.ascii	"\035N"
 3342 04f0 1D5B     		.ascii	"\035["
 3343 04f2 1D4F     		.ascii	"\035O"
 3344 04f4 1D57     		.ascii	"\035W"
 3345 04f6 1D5E     		.ascii	"\035^"
 3346 04f8 1D79     		.ascii	"\035y"
 3347 04fa 1D7A     		.ascii	"\035z"
 3348 04fc 1D6E     		.ascii	"\035n"
 3349 04fe 1D7B     		.ascii	"\035{"
 3350 0500 1D76     		.ascii	"\035v"
 3351 0502 1D77     		.ascii	"\035w"
 3352 0504 1D7E     		.ascii	"\035~"
 3353 0506 1D88     		.ascii	"\035\210"
 3354 0508 1DA8     		.ascii	"\035\250"
 3355 050a 1D89     		.ascii	"\035\211"
 3356 050c 1D8A     		.ascii	"\035\212"
 3357 050e 1DA5     		.ascii	"\035\245"
 3358 0510 1D8B     		.ascii	"\035\213"
 3359 0512 1D99     		.ascii	"\035\231"
 3360 0514 1DAD     		.ascii	"\035\255"
 3361 0516 1D8E     		.ascii	"\035\216"
 3362 0518 1D9B     		.ascii	"\035\233"
 3363 051a 1D8F     		.ascii	"\035\217"
 3364 051c 1D9D     		.ascii	"\035\235"
 3365 051e 1D9E     		.ascii	"\035\236"
 3366 0520 1DC0     		.ascii	"\035\300"
 3367 0522 1DBF     		.ascii	"\035\277"
 3368 0524 1DC1     		.ascii	"\035\301"
 3369 0526 1DC8     		.ascii	"\035\310"
 3370 0528 1DC3     		.ascii	"\035\303"
 3371 052a 1DCA     		.ascii	"\035\312"
 3372 052c 1DC5     		.ascii	"\035\305"
ARM GAS  C:\Users\86158\AppData\Local\Temp\cco5xW5w.s 			page 86


 3373 052e 1DE0     		.ascii	"\035\340"
 3374 0530 1DD9     		.ascii	"\035\331"
 3375 0532 1DCE     		.ascii	"\035\316"
 3376 0534 1DE8     		.ascii	"\035\350"
 3377 0536 1DCF     		.ascii	"\035\317"
 3378 0538 1DDD     		.ascii	"\035\335"
 3379 053a 1DE5     		.ascii	"\035\345"
 3380 053c 1DDE     		.ascii	"\035\336"
 3381 053e 1DF3     		.ascii	"\035\363"
 3382 0540 1DED     		.ascii	"\035\355"
 3383 0542 1DF5     		.ascii	"\035\365"
 3384 0544 1E02     		.ascii	"\036\002"
 3385 0546 1E08     		.ascii	"\036\010"
 3386 0548 1E04     		.ascii	"\036\004"
 3387 054a 1E05     		.ascii	"\036\005"
 3388 054c 1DFF     		.ascii	"\035\377"
 3389 054e 1E20     		.ascii	"\036 "
 3390 0550 1E0D     		.ascii	"\036\015"
 3391 0552 1E0E     		.ascii	"\036\016"
 3392 0554 1E0F     		.ascii	"\036\017"
 3393 0556 1E23     		.ascii	"\036#"
 3394 0558 1E17     		.ascii	"\036\027"
 3395 055a 1E25     		.ascii	"\036%"
 3396 055c 1E26     		.ascii	"\036&"
 3397 055e 1E1F     		.ascii	"\036\037"
 3398 0560 1E2E     		.ascii	"\036."
 3399 0562 1E3B     		.ascii	"\036;"
 3400 0564 1E36     		.ascii	"\0366"
 3401 0566 1E37     		.ascii	"\0367"
 3402 0568 1E3E     		.ascii	"\036>"
 3403 056a 1E40     		.ascii	"\036@"
 3404 056c 1E41     		.ascii	"\036A"
 3405 056e 1E42     		.ascii	"\036B"
 3406 0570 1E43     		.ascii	"\036C"
 3407 0572 1E44     		.ascii	"\036D"
 3408 0574 1E4A     		.ascii	"\036J"
 3409 0576 1E46     		.ascii	"\036F"
 3410 0578 1E47     		.ascii	"\036G"
 3411 057a 1E53     		.ascii	"\036S"
 3412 057c 1E68     		.ascii	"\036h"
 3413 057e 1E4F     		.ascii	"\036O"
 3414 0580 1E6A     		.ascii	"\036j"
 3415 0582 1E71     		.ascii	"\036q"
 3416 0584 1E66     		.ascii	"\036f"
 3417 0586 1E5F     		.ascii	"\036_"
 3418 0588 1E67     		.ascii	"\036g"
 3419 058a 1E75     		.ascii	"\036u"
 3420 058c 1E6F     		.ascii	"\036o"
 3421 058e 1E7D     		.ascii	"\036}"
 3422 0590 1E7E     		.ascii	"\036~"
 3423 0592 1E81     		.ascii	"\036\201"
 3424 0594 1E88     		.ascii	"\036\210"
 3425 0596 1E89     		.ascii	"\036\211"
 3426 0598 1E8A     		.ascii	"\036\212"
 3427 059a 1E98     		.ascii	"\036\230"
 3428 059c 1E8B     		.ascii	"\036\213"
 3429 059e 1E8D     		.ascii	"\036\215"
ARM GAS  C:\Users\86158\AppData\Local\Temp\cco5xW5w.s 			page 87


 3430 05a0 1EA8     		.ascii	"\036\250"
 3431 05a2 1E95     		.ascii	"\036\225"
 3432 05a4 1E8F     		.ascii	"\036\217"
 3433 05a6 1E97     		.ascii	"\036\227"
 3434 05a8 1EAC     		.ascii	"\036\254"
 3435 05aa 1E9F     		.ascii	"\036\237"
 3436 05ac 1EA7     		.ascii	"\036\247"
 3437 05ae 1EAF     		.ascii	"\036\257"
 3438 05b0 1EBC     		.ascii	"\036\274"
 3439 05b2 1EB7     		.ascii	"\036\267"
 3440 05b4 1EBE     		.ascii	"\036\276"
 3441 05b6 1EBF     		.ascii	"\036\277"
 3442 05b8 1EC8     		.ascii	"\036\310"
 3443 05ba 1EC8     		.ascii	"\036\310"
 3444 05bc 1EC9     		.ascii	"\036\311"
 3445 05be 1ECA     		.ascii	"\036\312"
 3446 05c0 1EC5     		.ascii	"\036\305"
 3447 05c2 1EE0     		.ascii	"\036\340"
 3448 05c4 1ED3     		.ascii	"\036\323"
 3449 05c6 1ECE     		.ascii	"\036\316"
 3450 05c8 1EDC     		.ascii	"\036\334"
 3451 05ca 1EEA     		.ascii	"\036\352"
 3452 05cc 1ED7     		.ascii	"\036\327"
 3453 05ce 1EDF     		.ascii	"\036\337"
 3454 05d0 1EED     		.ascii	"\036\355"
 3455 05d2 1EEE     		.ascii	"\036\356"
 3456 05d4 1EEF     		.ascii	"\036\357"
 3457 05d6 1F08     		.ascii	"\037\010"
 3458 05d8 1F02     		.ascii	"\037\002"
 3459 05da 1F03     		.ascii	"\037\003"
 3460 05dc 1EFF     		.ascii	"\036\377"
 3461 05de 1F0B     		.ascii	"\037\013"
 3462 05e0 1F14     		.ascii	"\037\024"
 3463 05e2 1F07     		.ascii	"\037\007"
 3464 05e4 1F15     		.ascii	"\037\025"
 3465 05e6 1F24     		.ascii	"\037$"
 3466 05e8 1F17     		.ascii	"\037\027"
 3467 05ea 1F1E     		.ascii	"\037\036"
 3468 05ec 1F26     		.ascii	"\037&"
 3469 05ee 1F2D     		.ascii	"\037-"
 3470 05f0 1F3B     		.ascii	"\037;"
 3471 05f2 1F3C     		.ascii	"\037<"
 3472 05f4 1F3E     		.ascii	"\037>"
 3473 05f6 1F40     		.ascii	"\037@"
 3474 05f8 1F3F     		.ascii	"\037?"
 3475 05fa 1F42     		.ascii	"\037B"
 3476 05fc 1F50     		.ascii	"\037P"
 3477 05fe 1F49     		.ascii	"\037I"
 3478 0600 1F45     		.ascii	"\037E"
 3479 0602 1F52     		.ascii	"\037R"
 3480 0604 1F53     		.ascii	"\037S"
 3481 0606 1F68     		.ascii	"\037h"
 3482 0608 1F5C     		.ascii	"\037\\"
 3483 060a 1F64     		.ascii	"\037d"
 3484 060c 1F78     		.ascii	"\037x"
 3485 060e 1F73     		.ascii	"\037s"
 3486 0610 1F5F     		.ascii	"\037_"
ARM GAS  C:\Users\86158\AppData\Local\Temp\cco5xW5w.s 			page 88


 3487 0612 1F6E     		.ascii	"\037n"
 3488 0614 1F80     		.ascii	"\037\200"
 3489 0616 1F7D     		.ascii	"\037}"
 3490 0618 1F81     		.ascii	"\037\201"
 3491 061a 1F7F     		.ascii	"\037\177"
 3492 061c 1F90     		.ascii	"\037\220"
 3493 061e 1F8A     		.ascii	"\037\212"
 3494 0620 1F86     		.ascii	"\037\206"
 3495 0622 1F93     		.ascii	"\037\223"
 3496 0624 1F87     		.ascii	"\037\207"
 3497 0626 1F95     		.ascii	"\037\225"
 3498 0628 1FAA     		.ascii	"\037\252"
 3499 062a 1F97     		.ascii	"\037\227"
 3500 062c 1FB3     		.ascii	"\037\263"
 3501 062e 1FAD     		.ascii	"\037\255"
 3502 0630 1FB5     		.ascii	"\037\265"
 3503 0632 1FAF     		.ascii	"\037\257"
 3504 0634 1FBD     		.ascii	"\037\275"
 3505 0636 1FC0     		.ascii	"\037\300"
 3506 0638 1FBF     		.ascii	"\037\277"
 3507 063a 1FC2     		.ascii	"\037\302"
 3508 063c 1FC3     		.ascii	"\037\303"
 3509 063e 1FC5     		.ascii	"\037\305"
 3510 0640 1FD8     		.ascii	"\037\330"
 3511 0642 1FD3     		.ascii	"\037\323"
 3512 0644 1FE2     		.ascii	"\037\342"
 3513 0646 1FDB     		.ascii	"\037\333"
 3514 0648 1FEA     		.ascii	"\037\352"
 3515 064a 1FE6     		.ascii	"\037\346"
 3516 064c 1FF9     		.ascii	"\037\371"
 3517 064e 1FED     		.ascii	"\037\355"
 3518 0650 1FFC     		.ascii	"\037\374"
 3519 0652 1FF7     		.ascii	"\037\367"
 3520 0654 1FFE     		.ascii	"\037\376"
 3521 0656 1E97     		.ascii	"\036\227"
 3522 0658 1FFF     		.ascii	"\037\377"
 3523              		.section	.data.g_otpBuffer,"aw"
 3524              		.align	2
 3525              		.set	.LANCHOR0,. + 0
 3528              	g_otpBuffer:
 3529 0000 FF00     		.ascii	"\377\000"
 3530 0002 00000000 		.space	1022
 3530      00000000 
 3530      00000000 
 3530      00000000 
 3530      00000000 
 3531              		.text
 3532              	.Letext0:
 3533              		.file 2 "e:\\stm32-gcc\\gcc-arm-none-eabi-10.3-2021.10\\arm-none-eabi\\include\\machine\\_default_
 3534              		.file 3 "e:\\stm32-gcc\\gcc-arm-none-eabi-10.3-2021.10\\arm-none-eabi\\include\\sys\\_stdint.h"
 3535              		.file 4 "Core/Inc/main.h"
 3536              		.file 5 "Drivers/User_Driver/Inc/soft_i2c.h"
 3537              		.file 6 "Drivers/User_Driver/Inc/rtc_i2c.h"
 3538              		.file 7 "Device/Inc/drv_wave1006.h"
 3539              		.file 8 "Drivers/STM32F4xx_HAL_Driver/Inc/stm32f4xx_hal.h"
 3540              		.file 9 "Device/Inc/rtc.h"
 3541              		.file 10 "e:\\stm32-gcc\\gcc-arm-none-eabi-10.3-2021.10\\arm-none-eabi\\include\\string.h"
ARM GAS  C:\Users\86158\AppData\Local\Temp\cco5xW5w.s 			page 89


ARM GAS  C:\Users\86158\AppData\Local\Temp\cco5xW5w.s 			page 90

