ARM GAS  C:\Users\84759\AppData\Local\Temp\cc7RoKct.s 			page 1


   1              		.cpu cortex-m3
   2              		.arch armv7-m
   3              		.fpu softvfp
   4              		.eabi_attribute 20, 1
   5              		.eabi_attribute 21, 1
   6              		.eabi_attribute 23, 3
   7              		.eabi_attribute 24, 1
   8              		.eabi_attribute 25, 1
   9              		.eabi_attribute 26, 1
  10              		.eabi_attribute 30, 1
  11              		.eabi_attribute 34, 1
  12              		.eabi_attribute 18, 4
  13              		.file	"command.c"
  14              		.text
  15              	.Ltext0:
  16              		.cfi_sections	.debug_frame
  17              		.section	.text.AT_TEST_Handle,"ax",%progbits
  18              		.align	1
  19              		.global	AT_TEST_Handle
  20              		.syntax unified
  21              		.thumb
  22              		.thumb_func
  24              	AT_TEST_Handle:
  25              	.LVL0:
  26              	.LFB73:
  27              		.file 1 "User/Src/command.c"
   1:User/Src/command.c **** #include "command.h"
   2:User/Src/command.c **** #include "usart.h"
   3:User/Src/command.c **** #include "main.h"
   4:User/Src/command.c **** #include "flash.h"
   5:User/Src/command.c **** #include "storage.h"
   6:User/Src/command.c **** #include "fatfs.h"
   7:User/Src/command.c **** #include "rtc.h"
   8:User/Src/command.c **** 
   9:User/Src/command.c **** extern UART_HandleTypeDef huart1;
  10:User/Src/command.c **** extern UART_HandleTypeDef huart2;
  11:User/Src/command.c **** 
  12:User/Src/command.c **** extern FATFS   USERFatFS;
  13:User/Src/command.c **** extern FIL     USERFile;
  14:User/Src/command.c **** extern FRESULT retUSER;
  15:User/Src/command.c **** extern FatFs_Time_t g_fatfs_time;
  16:User/Src/command.c **** 
  17:User/Src/command.c **** #define MAX_FILENAME_LEN     31
  18:User/Src/command.c **** #define MAX_WRITE_DATA_LEN   511
  19:User/Src/command.c **** #define INVALID_CHARS        "/\\:*?\"<>|"
  20:User/Src/command.c **** 
  21:User/Src/command.c **** // USB USART1 ˝ÓĘŐ
  22:User/Src/command.c **** uint16_t usb_Rx_Cnt = 0;
  23:User/Src/command.c **** uint8_t  usbRxBuf = 0;
  24:User/Src/command.c **** uint8_t  g_UsbRxBuff[UART_RECEIVE_BUFF_NUMBER] = {0};
  25:User/Src/command.c **** uint8_t  g_UsbTxBuff[UART_TRANSMIT_BUFF_NUMBER] = {0};
  26:User/Src/command.c **** uint8_t  g_UsbATStatus = 0;
  27:User/Src/command.c **** 
  28:User/Src/command.c **** char Command_buf[200] = {0};
  29:User/Src/command.c **** 
  30:User/Src/command.c **** #define MAX_COMMAND_NUMBER    40
  31:User/Src/command.c **** #define MAX_COMMAND_LENGTH    20
ARM GAS  C:\Users\84759\AppData\Local\Temp\cc7RoKct.s 			page 2


  32:User/Src/command.c **** 
  33:User/Src/command.c **** static char CommandList[MAX_COMMAND_NUMBER][MAX_COMMAND_LENGTH] = {
  34:User/Src/command.c ****     "AT^HELP",
  35:User/Src/command.c ****     "AT^TEST",
  36:User/Src/command.c ****     "AT^W25Q64_EraseChip",
  37:User/Src/command.c ****     "AT^FATFS_ListDir",
  38:User/Src/command.c ****     "AT^FATFS_MOUNT",
  39:User/Src/command.c ****     "AT^FATFS_FORMAT",
  40:User/Src/command.c ****     "AT^FATFS_WRITE",
  41:User/Src/command.c ****     "AT^FATFS_READ",
  42:User/Src/command.c ****     "AT^FATFS_CluWrite",
  43:User/Src/command.c ****     "AT^FATFS_GetTime",
  44:User/Src/command.c **** };
  45:User/Src/command.c **** 
  46:User/Src/command.c **** 
  47:User/Src/command.c **** int  strSearch(const char* source, const char* target)
  48:User/Src/command.c **** {
  49:User/Src/command.c ****     int len_source = strlen(source);
  50:User/Src/command.c ****     int len_target = strlen(target);
  51:User/Src/command.c ****     int i, j;
  52:User/Src/command.c **** 
  53:User/Src/command.c ****     if (len_source < len_target || len_target == 0)
  54:User/Src/command.c ****         return -1;
  55:User/Src/command.c **** 
  56:User/Src/command.c ****     for (i = 0; i <= len_source - len_target; i++)
  57:User/Src/command.c ****     {
  58:User/Src/command.c ****         for (j = 0; j < len_target; j++)
  59:User/Src/command.c ****         {
  60:User/Src/command.c ****             if (source[i + j] != target[j])
  61:User/Src/command.c ****                 break;
  62:User/Src/command.c ****         }
  63:User/Src/command.c ****         if (j == len_target)
  64:User/Src/command.c ****             return i;
  65:User/Src/command.c ****     }
  66:User/Src/command.c ****     return -1;
  67:User/Src/command.c **** }
  68:User/Src/command.c **** 
  69:User/Src/command.c **** uint16_t CharToInt(char* source, uint8_t start, int* number)
  70:User/Src/command.c **** {
  71:User/Src/command.c ****     uint16_t length = strlen(source);
  72:User/Src/command.c ****     uint16_t i;
  73:User/Src/command.c ****     int sum = 0;
  74:User/Src/command.c ****     int state = 1;
  75:User/Src/command.c ****     uint8_t hex = 0;
  76:User/Src/command.c **** 
  77:User/Src/command.c ****     *number = 0;
  78:User/Src/command.c ****     if (start >= length) return 0;
  79:User/Src/command.c **** 
  80:User/Src/command.c ****     if (source[start] == '-')
  81:User/Src/command.c ****     {
  82:User/Src/command.c ****         state = -1;
  83:User/Src/command.c ****         start++;
  84:User/Src/command.c ****     }
  85:User/Src/command.c **** 
  86:User/Src/command.c ****     if (start + 1 < length)
  87:User/Src/command.c ****     {
  88:User/Src/command.c ****         if (source[start] == '0' && (source[start + 1] == 'x' || source[start + 1] == 'X'))
ARM GAS  C:\Users\84759\AppData\Local\Temp\cc7RoKct.s 			page 3


  89:User/Src/command.c ****         {
  90:User/Src/command.c ****             start += 2;
  91:User/Src/command.c ****             hex = 1;
  92:User/Src/command.c ****         }
  93:User/Src/command.c ****     }
  94:User/Src/command.c **** 
  95:User/Src/command.c ****     for (i = start; i < length; i++)
  96:User/Src/command.c ****     {
  97:User/Src/command.c ****         if (source[i] >= '0' && source[i] <= '9')
  98:User/Src/command.c ****         {
  99:User/Src/command.c ****             sum = hex ? (sum * 16 + (source[i] - '0')) : (sum * 10 + (source[i] - '0'));
 100:User/Src/command.c ****         }
 101:User/Src/command.c ****         else if (source[i] >= 'a' && source[i] <= 'f')
 102:User/Src/command.c ****         {
 103:User/Src/command.c ****             if (!hex) return 0;
 104:User/Src/command.c ****             sum = sum * 16 + (source[i] - 'a' + 10);
 105:User/Src/command.c ****         }
 106:User/Src/command.c ****         else if (source[i] >= 'A' && source[i] <= 'F')
 107:User/Src/command.c ****         {
 108:User/Src/command.c ****             if (!hex) return 0;
 109:User/Src/command.c ****             sum = sum * 16 + (source[i] - 'A' + 10);
 110:User/Src/command.c ****         }
 111:User/Src/command.c ****         else if (source[i] == ' ' || source[i] == ',')
 112:User/Src/command.c ****         {
 113:User/Src/command.c ****             break;
 114:User/Src/command.c ****         }
 115:User/Src/command.c ****         else
 116:User/Src/command.c ****         {
 117:User/Src/command.c ****             return 0;
 118:User/Src/command.c ****         }
 119:User/Src/command.c ****     }
 120:User/Src/command.c **** 
 121:User/Src/command.c ****     *number = state * sum;
 122:User/Src/command.c ****     return 1;
 123:User/Src/command.c **** }
 124:User/Src/command.c **** 
 125:User/Src/command.c **** uint8_t CharToFloat(char* source, uint8_t start, float* number)
 126:User/Src/command.c **** {
 127:User/Src/command.c ****     uint8_t length = strlen(source);
 128:User/Src/command.c ****     uint8_t i;
 129:User/Src/command.c ****     float sum = 0;
 130:User/Src/command.c ****     int state = 1;
 131:User/Src/command.c ****     float small_num = 0.1f;
 132:User/Src/command.c **** 
 133:User/Src/command.c ****     *number = 0.0f;
 134:User/Src/command.c ****     if (length <= start) return 0;
 135:User/Src/command.c **** 
 136:User/Src/command.c ****     if (source[start] == '-')
 137:User/Src/command.c ****     {
 138:User/Src/command.c ****         state = -1;
 139:User/Src/command.c ****         start++;
 140:User/Src/command.c ****     }
 141:User/Src/command.c **** 
 142:User/Src/command.c ****     for (i = start; i < length; i++)
 143:User/Src/command.c ****     {
 144:User/Src/command.c ****         if (source[i] >= '0' && source[i] <= '9')
 145:User/Src/command.c ****         {
ARM GAS  C:\Users\84759\AppData\Local\Temp\cc7RoKct.s 			page 4


 146:User/Src/command.c ****             sum = sum * 10 + (source[i] - '0');
 147:User/Src/command.c ****         }
 148:User/Src/command.c ****         else if (source[i] == '.')
 149:User/Src/command.c ****         {
 150:User/Src/command.c ****             i++;
 151:User/Src/command.c ****             break;
 152:User/Src/command.c ****         }
 153:User/Src/command.c ****         else if (source[i] == ' ' || source[i] == ',')
 154:User/Src/command.c ****         {
 155:User/Src/command.c ****             break;
 156:User/Src/command.c ****         }
 157:User/Src/command.c ****         else
 158:User/Src/command.c ****         {
 159:User/Src/command.c ****             return 0;
 160:User/Src/command.c ****         }
 161:User/Src/command.c ****     }
 162:User/Src/command.c **** 
 163:User/Src/command.c ****     for (; i < length; i++)
 164:User/Src/command.c ****     {
 165:User/Src/command.c ****         if (source[i] >= '0' && source[i] <= '9')
 166:User/Src/command.c ****         {
 167:User/Src/command.c ****             sum += small_num * (source[i] - '0');
 168:User/Src/command.c ****             small_num *= 0.1f;
 169:User/Src/command.c ****         }
 170:User/Src/command.c ****         else if (source[i] == ' ' || source[i] == ',')
 171:User/Src/command.c ****         {
 172:User/Src/command.c ****             break;
 173:User/Src/command.c ****         }
 174:User/Src/command.c ****         else
 175:User/Src/command.c ****         {
 176:User/Src/command.c ****             return 0;
 177:User/Src/command.c ****         }
 178:User/Src/command.c ****     }
 179:User/Src/command.c **** 
 180:User/Src/command.c ****     *number = state * sum;
 181:User/Src/command.c ****     return 1;
 182:User/Src/command.c **** }
 183:User/Src/command.c **** 
 184:User/Src/command.c **** uint8_t Data_copy_from_pos(char *dest, const char *src, uint16_t start_pos, uint16_t copy_len)
 185:User/Src/command.c **** {
 186:User/Src/command.c ****     if (dest == NULL || src == NULL)
 187:User/Src/command.c ****     {
 188:User/Src/command.c ****         UsbPrintf("[command] error: pointer null !\r\n");
 189:User/Src/command.c ****         return 0;
 190:User/Src/command.c ****     }
 191:User/Src/command.c **** 
 192:User/Src/command.c ****     int src_len = strlen(src);
 193:User/Src/command.c ****     if (start_pos < 0 || start_pos >= src_len)
 194:User/Src/command.c ****     {
 195:User/Src/command.c ****         UsbPrintf("[command] error: start pos invalid !\r\n");
 196:User/Src/command.c ****         return 0;
 197:User/Src/command.c ****     }
 198:User/Src/command.c **** 
 199:User/Src/command.c ****     if (copy_len < 0 || (start_pos + copy_len) > src_len)
 200:User/Src/command.c ****     {
 201:User/Src/command.c ****         UsbPrintf("[command] error: copy len invalid !\r\n");
 202:User/Src/command.c ****         return 0;
ARM GAS  C:\Users\84759\AppData\Local\Temp\cc7RoKct.s 			page 5


 203:User/Src/command.c ****     }
 204:User/Src/command.c **** 
 205:User/Src/command.c ****     memcpy(dest, src + start_pos, copy_len);
 206:User/Src/command.c ****     dest[copy_len] = '\0';
 207:User/Src/command.c ****     return 1;
 208:User/Src/command.c **** }
 209:User/Src/command.c **** 
 210:User/Src/command.c **** void AT_HELP_Handle(char* command)
 211:User/Src/command.c **** {
 212:User/Src/command.c ****     (void)command;
 213:User/Src/command.c ****     int i = 0;
 214:User/Src/command.c ****     int num = 0;
 215:User/Src/command.c **** 
 216:User/Src/command.c ****     UsbPrintf("\r\n===== AT Command List =====\r\n");
 217:User/Src/command.c ****     for (i = 0; i < MAX_COMMAND_NUMBER; i++)
 218:User/Src/command.c ****     {
 219:User/Src/command.c ****         if (strlen(CommandList[i]) > 0)
 220:User/Src/command.c ****         {
 221:User/Src/command.c ****             UsbPrintf("%d. %s\r\n", num++, CommandList[i]);
 222:User/Src/command.c ****         }
 223:User/Src/command.c ****     }
 224:User/Src/command.c ****     UsbPrintf("===========================\r\n");
 225:User/Src/command.c ****     UsbPrintf("Total command number: %d\r\n", num);
 226:User/Src/command.c **** }
 227:User/Src/command.c **** 
 228:User/Src/command.c **** void AT_TEST_Handle(char* command)
 229:User/Src/command.c **** {
  28              		.loc 1 229 1 view -0
  29              		.cfi_startproc
  30              		@ args = 0, pretend = 0, frame = 0
  31              		@ frame_needed = 0, uses_anonymous_args = 0
  32              		@ link register save eliminated.
 230:User/Src/command.c ****     (void)command;
  33              		.loc 1 230 5 view .LVU1
 231:User/Src/command.c **** }
  34              		.loc 1 231 1 is_stmt 0 view .LVU2
  35 0000 7047     		bx	lr
  36              		.cfi_endproc
  37              	.LFE73:
  39              		.section	.text.is_leap_year,"ax",%progbits
  40              		.align	1
  41              		.syntax unified
  42              		.thumb
  43              		.thumb_func
  45              	is_leap_year:
  46              	.LVL1:
  47              	.LFB82:
 232:User/Src/command.c **** 
 233:User/Src/command.c **** void AT_W25Q64_EraseChip_Handle(char* command)
 234:User/Src/command.c **** {
 235:User/Src/command.c ****     (void)command;
 236:User/Src/command.c ****     W25Q64_ChipErase();
 237:User/Src/command.c **** }
 238:User/Src/command.c **** 
 239:User/Src/command.c **** void AT_FATFS_ListDir_Handle(char* command)
 240:User/Src/command.c **** {
 241:User/Src/command.c ****     (void)command;
ARM GAS  C:\Users\84759\AppData\Local\Temp\cc7RoKct.s 			page 6


 242:User/Src/command.c ****     uint8_t hh, mm, ss;
 243:User/Src/command.c ****     RTC_GetCurrentTime(&hh, &mm, &ss);
 244:User/Src/command.c ****     UsbPrintf("\r\n--- Ę±ĽäŁş%02d:%02d:%02d ---", hh, mm, ss);
 245:User/Src/command.c ****     FatFs_ListDir();
 246:User/Src/command.c **** }
 247:User/Src/command.c **** 
 248:User/Src/command.c **** void AT_FATFS_MOUNT_Handle(char* command)
 249:User/Src/command.c **** {
 250:User/Src/command.c ****     (void)command;
 251:User/Src/command.c ****     FatFs_Mount();
 252:User/Src/command.c **** }
 253:User/Src/command.c **** 
 254:User/Src/command.c **** void AT_FATFS_FORMAT_Handle(char* command)
 255:User/Src/command.c **** {
 256:User/Src/command.c ****     (void)command;
 257:User/Src/command.c ****     FatFs_Format();
 258:User/Src/command.c **** }
 259:User/Src/command.c **** 
 260:User/Src/command.c **** uint8_t isFilenameValid(const char* filename)
 261:User/Src/command.c **** {
 262:User/Src/command.c ****     if (filename == NULL || strlen(filename) == 0)
 263:User/Src/command.c ****         return 0;
 264:User/Src/command.c **** 
 265:User/Src/command.c ****     for (int i = 0; filename[i] != '\0'; i++)
 266:User/Src/command.c ****     {
 267:User/Src/command.c ****         if (strchr(INVALID_CHARS, filename[i]))
 268:User/Src/command.c ****             return 0;
 269:User/Src/command.c ****     }
 270:User/Src/command.c ****     return 1;
 271:User/Src/command.c **** }
 272:User/Src/command.c **** 
 273:User/Src/command.c **** void AT_FATFS_WRITE_Handle(char* command)
 274:User/Src/command.c **** {
 275:User/Src/command.c ****     if (command == NULL || strlen(command) == 0)
 276:User/Src/command.c ****     {
 277:User/Src/command.c ****         UsbPrintf("[command] ´íÎóŁşÖ¸ÁîÎŞżŐŁˇ\r\n");
 278:User/Src/command.c ****         return;
 279:User/Src/command.c ****     }
 280:User/Src/command.c **** 
 281:User/Src/command.c ****     char cmd_header[] = "AT^FATFS_WRITE=";
 282:User/Src/command.c ****     uint16_t header_len = strlen(cmd_header);
 283:User/Src/command.c **** 
 284:User/Src/command.c ****     if (strSearch(command, cmd_header) != 0)
 285:User/Src/command.c ****     {
 286:User/Src/command.c ****         UsbPrintf("[command] ´íÎóŁşÎŢĐ§¸ńĘ˝Łˇ\r\n");
 287:User/Src/command.c ****         UsbPrintf("[command] ÓĂ·¨ŁşAT^FATFS_WRITE=<filename>,<data>\r\n");
 288:User/Src/command.c ****         return;
 289:User/Src/command.c ****     }
 290:User/Src/command.c **** 
 291:User/Src/command.c ****     uint16_t cmd_len = strlen(command);
 292:User/Src/command.c ****     uint16_t data_start = header_len;
 293:User/Src/command.c **** 
 294:User/Src/command.c ****     if (data_start >= cmd_len)
 295:User/Src/command.c ****     {
 296:User/Src/command.c ****         UsbPrintf("[command] ´íÎóŁş˛ÎĘýÎŞżŐŁˇ\r\n");
 297:User/Src/command.c ****         return;
 298:User/Src/command.c ****     }
ARM GAS  C:\Users\84759\AppData\Local\Temp\cc7RoKct.s 			page 7


 299:User/Src/command.c **** 
 300:User/Src/command.c ****     char* param_part = command + data_start;
 301:User/Src/command.c ****     if (strlen(param_part) == 0)
 302:User/Src/command.c ****     {
 303:User/Src/command.c ****         UsbPrintf("[command] ´íÎóŁşČ±ÉŮ˛ÎĘýŁˇ\r\n");
 304:User/Src/command.c ****         return;
 305:User/Src/command.c ****     }
 306:User/Src/command.c **** 
 307:User/Src/command.c ****     int comma_pos = strSearch(param_part, ",");
 308:User/Src/command.c ****     if (comma_pos == -1)
 309:User/Src/command.c ****     {
 310:User/Src/command.c ****         UsbPrintf("[command] ´íÎóŁşČ±ÉŮ¶şşĹ·Ö¸ô·űŁˇ\r\n");
 311:User/Src/command.c ****         return;
 312:User/Src/command.c ****     }
 313:User/Src/command.c **** 
 314:User/Src/command.c ****     char filename[MAX_FILENAME_LEN + 1] = {0};
 315:User/Src/command.c ****     if (comma_pos > MAX_FILENAME_LEN)
 316:User/Src/command.c ****     {
 317:User/Src/command.c ****         UsbPrintf("[command] ´íÎóŁşÎÄĽţĂűąýł¤Ł¨×î´ó %dŁ©\r\n", MAX_FILENAME_LEN);
 318:User/Src/command.c ****         return;
 319:User/Src/command.c ****     }
 320:User/Src/command.c **** 
 321:User/Src/command.c ****     if (!Data_copy_from_pos(filename, command, data_start, comma_pos))
 322:User/Src/command.c ****     {
 323:User/Src/command.c ****         UsbPrintf("[command] ´íÎóŁşĚáČˇÎÄĽţĂűĘ§°Ü\r\n");
 324:User/Src/command.c ****         return;
 325:User/Src/command.c ****     }
 326:User/Src/command.c **** 
 327:User/Src/command.c ****     if (!isFilenameValid(filename))
 328:User/Src/command.c ****     {
 329:User/Src/command.c ****         UsbPrintf("[command] ´íÎóŁşÎÄĽţĂű°üş¬·Ç·¨×Ö·ű\r\n");
 330:User/Src/command.c ****         return;
 331:User/Src/command.c ****     }
 332:User/Src/command.c **** 
 333:User/Src/command.c ****     uint16_t data_pos = data_start + comma_pos + 1;
 334:User/Src/command.c ****     uint16_t data_len = cmd_len - data_pos;
 335:User/Src/command.c **** 
 336:User/Src/command.c ****     if (data_len == 0)
 337:User/Src/command.c ****     {
 338:User/Src/command.c ****         UsbPrintf("[command] ´íÎóŁşĐ´ČëĘýľÝÎŞżŐ\r\n");
 339:User/Src/command.c ****         return;
 340:User/Src/command.c ****     }
 341:User/Src/command.c **** 
 342:User/Src/command.c ****     if (data_len > MAX_WRITE_DATA_LEN)
 343:User/Src/command.c ****     {
 344:User/Src/command.c ****         UsbPrintf("[command] ľŻ¸ćŁşĘýľÝąýł¤Ł¬×Ô¶Ż˝Ř¶Ď\r\n");
 345:User/Src/command.c ****         data_len = MAX_WRITE_DATA_LEN;
 346:User/Src/command.c ****     }
 347:User/Src/command.c **** 
 348:User/Src/command.c ****     char write_data[MAX_WRITE_DATA_LEN + 1] = {0};
 349:User/Src/command.c ****     if (!Data_copy_from_pos(write_data, command, data_pos, data_len))
 350:User/Src/command.c ****     {
 351:User/Src/command.c ****         UsbPrintf("[command] ´íÎóŁşĚáČˇĘýľÝĘ§°Ü\r\n");
 352:User/Src/command.c ****         return;
 353:User/Src/command.c ****     }
 354:User/Src/command.c **** 
 355:User/Src/command.c ****     FatFs_Info_t fs_info = {0};
ARM GAS  C:\Users\84759\AppData\Local\Temp\cc7RoKct.s 			page 8


 356:User/Src/command.c ****     if (!FatFs_GetInfo(&fs_info))
 357:User/Src/command.c ****     {
 358:User/Src/command.c ****         UsbPrintf("[command] ´íÎóŁşFATFS Î´ąŇÔŘŁˇ\r\n");
 359:User/Src/command.c ****         return;
 360:User/Src/command.c ****     }
 361:User/Src/command.c **** 
 362:User/Src/command.c ****     UsbPrintf("\r\n******[command] żŞĘĽÎÄĽţĐ´Čë ******\r\n");
 363:User/Src/command.c ****     UsbPrintf("[command] ÎÄĽţĂű: %s\r\n", filename);
 364:User/Src/command.c ****     UsbPrintf("[command] ĘýľÝ: %s\r\n", write_data);
 365:User/Src/command.c ****     UsbPrintf("[command] ł¤¶Č: %d ×Ö˝Ú\r\n", data_len);
 366:User/Src/command.c **** 
 367:User/Src/command.c ****     f_close(&USERFile);
 368:User/Src/command.c ****     File_Write_Result_t write_result = {0};
 369:User/Src/command.c ****     retUSER = FatFs_FileWrite(filename, write_data, (UINT)data_len, &write_result);
 370:User/Src/command.c **** 
 371:User/Src/command.c ****     if (retUSER == FR_OK)
 372:User/Src/command.c ****     {
 373:User/Src/command.c ****         UsbPrintf("[command] Đ´ČëłÉą¦Łˇ×Ö˝ÚŁş%u\r\n", write_result.write_len);
 374:User/Src/command.c ****         UsbPrintf("[command] ÎÄĽţĆđĘĽ´ŘşĹŁş%lu  µ±Ç°Đ´Čë´ŘşĹŁş%lu\r\n",
 375:User/Src/command.c ****                   write_result.start_cluster, write_result.curr_cluster);
 376:User/Src/command.c ****         UsbPrintf("******[command] Đ´ČëÍęłÉ ******\r\n");
 377:User/Src/command.c ****     }
 378:User/Src/command.c ****     else
 379:User/Src/command.c ****     {
 380:User/Src/command.c ****         UsbPrintf("[command] Đ´ČëĘ§°ÜŁˇerr=%d \r\n", retUSER);
 381:User/Src/command.c ****         UsbPrintf("******[command] Đ´ČëĘ§°Ü ******\r\n");
 382:User/Src/command.c ****     }
 383:User/Src/command.c **** }
 384:User/Src/command.c **** 
 385:User/Src/command.c **** void AT_FATFS_READ_Handle(char* command)
 386:User/Src/command.c **** {
 387:User/Src/command.c ****     if (command == NULL || strlen(command) == 0)
 388:User/Src/command.c ****     {
 389:User/Src/command.c ****         UsbPrintf("[command] ´íÎóŁşÖ¸ÁîÎŞżŐŁˇ\r\n");
 390:User/Src/command.c ****         return;
 391:User/Src/command.c ****     }
 392:User/Src/command.c **** 
 393:User/Src/command.c ****     char filename[32] = {0};
 394:User/Src/command.c ****     if (!FatFs_ParseReadCmd(command, filename, sizeof(filename)))
 395:User/Src/command.c ****     {
 396:User/Src/command.c ****         UsbPrintf("[command] ´íÎóŁşÖ¸Áî˝âÎöĘ§°Ü\r\n");
 397:User/Src/command.c ****         return;
 398:User/Src/command.c ****     }
 399:User/Src/command.c **** 
 400:User/Src/command.c ****     FatFs_Info_t fs_info = {0};
 401:User/Src/command.c ****     if (!FatFs_GetInfo(&fs_info))
 402:User/Src/command.c ****     {
 403:User/Src/command.c ****         UsbPrintf("[command] ´íÎóŁşFATFS Î´ąŇÔŘ\r\n");
 404:User/Src/command.c ****         return;
 405:User/Src/command.c ****     }
 406:User/Src/command.c **** 
 407:User/Src/command.c ****     f_close(&USERFile);
 408:User/Src/command.c ****     File_Read_Result_t read_result = {0};
 409:User/Src/command.c **** 
 410:User/Src/command.c ****     if (!FatFs_ReadFile(filename, &read_result, &fs_info))
 411:User/Src/command.c ****     {
 412:User/Src/command.c ****         UsbPrintf("[command] ¶ÁČˇÎÄĽţĘ§°ÜŁ¬´íÎóÂëŁş%d \r\n", read_result.res);
ARM GAS  C:\Users\84759\AppData\Local\Temp\cc7RoKct.s 			page 9


 413:User/Src/command.c ****         return;
 414:User/Src/command.c ****     }
 415:User/Src/command.c **** 
 416:User/Src/command.c ****     FatFs_PrintReadResult(filename, &fs_info, &read_result);
 417:User/Src/command.c **** }
 418:User/Src/command.c **** 
 419:User/Src/command.c **** void AT_FATFS_CluWrite_Handle(char* command)
 420:User/Src/command.c **** {
 421:User/Src/command.c ****     if (command == NULL || strlen(command) == 0)
 422:User/Src/command.c ****     {
 423:User/Src/command.c ****         UsbPrintf("[command] ´íÎóŁşÖ¸ÁîÎŞżŐ\r\n");
 424:User/Src/command.c ****         return;
 425:User/Src/command.c ****     }
 426:User/Src/command.c **** 
 427:User/Src/command.c ****     char cmd_header[] = "AT^FATFS_CluWrite=";
 428:User/Src/command.c ****     uint16_t head_len = strlen(cmd_header);
 429:User/Src/command.c **** 
 430:User/Src/command.c ****     if (strSearch(command, cmd_header) != 0)
 431:User/Src/command.c ****     {
 432:User/Src/command.c ****         UsbPrintf("[command] ´íÎóŁş¸ńĘ˝´íÎó\r\n");
 433:User/Src/command.c ****         UsbPrintf("[command] ÓĂ·¨ŁşAT^FATFS_CluWrite=<´ŘşĹ>,<ÎÄĽţĂű>,<ĘýľÝ>\r\n");
 434:User/Src/command.c ****         return;
 435:User/Src/command.c ****     }
 436:User/Src/command.c **** 
 437:User/Src/command.c ****     char* p = command + head_len;
 438:User/Src/command.c ****     char* comma1 = strchr(p, ',');
 439:User/Src/command.c ****     char* comma2 = strchr(comma1 + 1, ',');
 440:User/Src/command.c **** 
 441:User/Src/command.c ****     if (!comma1 || !comma2)
 442:User/Src/command.c ****     {
 443:User/Src/command.c ****         UsbPrintf("[command] ´íÎóŁş˛ÎĘý¸ńĘ˝´íÎó\r\n");
 444:User/Src/command.c ****         return;
 445:User/Src/command.c ****     }
 446:User/Src/command.c **** 
 447:User/Src/command.c ****     char cluster_buf[16] = {0};
 448:User/Src/command.c ****     strncpy(cluster_buf, p, comma1 - p);
 449:User/Src/command.c ****     DWORD cluster = atol(cluster_buf);
 450:User/Src/command.c **** 
 451:User/Src/command.c ****     char filename[64] = {0};
 452:User/Src/command.c ****     strncpy(filename, comma1 + 1, comma2 - (comma1 + 1));
 453:User/Src/command.c **** 
 454:User/Src/command.c ****     char* data = comma2 + 1;
 455:User/Src/command.c ****     uint16_t data_len = strlen(data);
 456:User/Src/command.c **** 
 457:User/Src/command.c ****     FatFs_Info_t fs_info;
 458:User/Src/command.c ****     FatFs_GetInfo(&fs_info);
 459:User/Src/command.c **** 
 460:User/Src/command.c ****     if (cluster < 2 || cluster > fs_info.last_cluster)
 461:User/Src/command.c ****     {
 462:User/Src/command.c ****         UsbPrintf("[command] ´Ř%lu Ô˝˝ç ˇú ×Ô¶ŻĘąÓĂ´Ř2\r\n", cluster);
 463:User/Src/command.c ****         cluster = 2;
 464:User/Src/command.c ****     }
 465:User/Src/command.c **** 
 466:User/Src/command.c ****     UsbPrintf("\r\n******[command] Đ´ČëżŞĘĽ******\r\n");
 467:User/Src/command.c ****     UsbPrintf("[command] ´ŘşĹŁş%lu\r\n", cluster);
 468:User/Src/command.c ****     UsbPrintf("[command] ÎÄĽţĂűŁş%s\r\n", filename);
 469:User/Src/command.c ****     UsbPrintf("[command] ĘýľÝŁş%s\r\n", data);
ARM GAS  C:\Users\84759\AppData\Local\Temp\cc7RoKct.s 			page 10


 470:User/Src/command.c ****     UsbPrintf("[command] ł¤¶ČŁş%d\r\n", data_len);
 471:User/Src/command.c **** 
 472:User/Src/command.c ****     File_Write_Result_t wr;
 473:User/Src/command.c ****     FRESULT res = FatFs_FileWrite_Cluster(filename, cluster, data, data_len, &wr);
 474:User/Src/command.c **** 
 475:User/Src/command.c ****     if (res == FR_OK && wr.write_len > 0)
 476:User/Src/command.c ****     {
 477:User/Src/command.c ****         UsbPrintf("[command] Đ´ČëłÉą¦Łˇ×Ö˝ÚŁş%u\r\n", wr.write_len);
 478:User/Src/command.c ****         UsbPrintf("[command] ĆđĘĽ´ŘŁş%lu  µ±Ç°´ŘŁş%lu\r\n",
 479:User/Src/command.c ****             wr.start_cluster, wr.curr_cluster);
 480:User/Src/command.c ****     }
 481:User/Src/command.c ****     else
 482:User/Src/command.c ****     {
 483:User/Src/command.c ****         UsbPrintf("[command] Đ´ČëĘ§°ÜŁˇ´íÎóÂëŁş%d\r\n", res);
 484:User/Src/command.c ****     }
 485:User/Src/command.c **** 
 486:User/Src/command.c ****     UsbPrintf("******[command] ˝áĘř******\r\n");
 487:User/Src/command.c **** }
 488:User/Src/command.c **** 
 489:User/Src/command.c **** static uint8_t is_leap_year(uint16_t year)
 490:User/Src/command.c **** {
  48              		.loc 1 490 1 is_stmt 1 view -0
  49              		.cfi_startproc
  50              		@ args = 0, pretend = 0, frame = 0
  51              		@ frame_needed = 0, uses_anonymous_args = 0
  52              		@ link register save eliminated.
 491:User/Src/command.c ****     return ((year % 4 == 0 && year % 100 != 0) || (year % 400 == 0)) ? 1 : 0;
  53              		.loc 1 491 5 view .LVU4
  54              		.loc 1 491 74 is_stmt 0 view .LVU5
  55 0000 10F0030F 		tst	r0, #3
  56 0004 08D1     		bne	.L3
  57              		.loc 1 491 42 discriminator 1 view .LVU6
  58 0006 0C4B     		ldr	r3, .L7
  59 0008 A3FB0023 		umull	r2, r3, r3, r0
  60 000c 5B09     		lsrs	r3, r3, #5
  61 000e 6422     		movs	r2, #100
  62 0010 02FB1303 		mls	r3, r2, r3, r0
  63 0014 9BB2     		uxth	r3, r3
  64              		.loc 1 491 28 discriminator 1 view .LVU7
  65 0016 5BB9     		cbnz	r3, .L5
  66              	.L3:
  67              		.loc 1 491 63 discriminator 4 view .LVU8
  68 0018 074B     		ldr	r3, .L7
  69 001a A3FB0023 		umull	r2, r3, r3, r0
  70 001e DB09     		lsrs	r3, r3, #7
  71 0020 4FF4C872 		mov	r2, #400
  72 0024 02FB1300 		mls	r0, r2, r3, r0
  73              	.LVL2:
  74              		.loc 1 491 63 discriminator 4 view .LVU9
  75 0028 80B2     		uxth	r0, r0
  76              		.loc 1 491 74 discriminator 4 view .LVU10
  77 002a 18B9     		cbnz	r0, .L6
  78              		.loc 1 491 74 view .LVU11
  79 002c 0120     		movs	r0, #1
  80 002e 7047     		bx	lr
  81              	.LVL3:
  82              	.L5:
ARM GAS  C:\Users\84759\AppData\Local\Temp\cc7RoKct.s 			page 11


  83              		.loc 1 491 74 view .LVU12
  84 0030 0120     		movs	r0, #1
  85              	.LVL4:
  86              		.loc 1 491 74 view .LVU13
  87 0032 7047     		bx	lr
  88              	.L6:
  89 0034 0020     		movs	r0, #0
 492:User/Src/command.c **** }
  90              		.loc 1 492 1 view .LVU14
  91 0036 7047     		bx	lr
  92              	.L8:
  93              		.align	2
  94              	.L7:
  95 0038 1F85EB51 		.word	1374389535
  96              		.cfi_endproc
  97              	.LFE82:
  99              		.section	.rodata.get_month_max_day.str1.4,"aMS",%progbits,1
 100              		.align	2
 101              	.LC0:
 102 0000 1F1C1F1E 		.ascii	"\037\034\037\036\037\036\037\037\036\037\036\037\000"
 102      1F1E1F1F 
 102      1E1F1E1F 
 102      00
 103              		.section	.text.get_month_max_day,"ax",%progbits
 104              		.align	1
 105              		.syntax unified
 106              		.thumb
 107              		.thumb_func
 109              	get_month_max_day:
 110              	.LVL5:
 111              	.LFB83:
 493:User/Src/command.c **** 
 494:User/Src/command.c **** static uint8_t get_month_max_day(uint16_t year, uint8_t month)
 495:User/Src/command.c **** {
 112              		.loc 1 495 1 is_stmt 1 view -0
 113              		.cfi_startproc
 114              		@ args = 0, pretend = 0, frame = 16
 115              		@ frame_needed = 0, uses_anonymous_args = 0
 116              		.loc 1 495 1 is_stmt 0 view .LVU16
 117 0000 10B5     		push	{r4, lr}
 118              	.LCFI0:
 119              		.cfi_def_cfa_offset 8
 120              		.cfi_offset 4, -8
 121              		.cfi_offset 14, -4
 122 0002 84B0     		sub	sp, sp, #16
 123              	.LCFI1:
 124              		.cfi_def_cfa_offset 24
 125 0004 8446     		mov	ip, r0
 126 0006 0C46     		mov	r4, r1
 496:User/Src/command.c ****     const uint8_t day_max_table[12] = {31,28,31,30,31,30,31,31,30,31,30,31};
 127              		.loc 1 496 5 is_stmt 1 view .LVU17
 128              		.loc 1 496 19 is_stmt 0 view .LVU18
 129 0008 0E4B     		ldr	r3, .L16
 130 000a 93E80700 		ldm	r3, {r0, r1, r2}
 131              	.LVL6:
 132              		.loc 1 496 19 view .LVU19
 133 000e 04AB     		add	r3, sp, #16
ARM GAS  C:\Users\84759\AppData\Local\Temp\cc7RoKct.s 			page 12


 134 0010 03E90700 		stmdb	r3, {r0, r1, r2}
 497:User/Src/command.c ****     if (month < 1 || month > 12) return 0;
 135              		.loc 1 497 5 is_stmt 1 view .LVU20
 136              		.loc 1 497 19 is_stmt 0 view .LVU21
 137 0014 631E     		subs	r3, r4, #1
 138 0016 DBB2     		uxtb	r3, r3
 139              		.loc 1 497 8 view .LVU22
 140 0018 0B2B     		cmp	r3, #11
 141 001a 10D8     		bhi	.L12
 498:User/Src/command.c ****     if (month == 2 && is_leap_year(year)) return 29;
 142              		.loc 1 498 5 is_stmt 1 view .LVU23
 143              		.loc 1 498 8 is_stmt 0 view .LVU24
 144 001c 022C     		cmp	r4, #2
 145 001e 07D0     		beq	.L15
 146              	.L11:
 499:User/Src/command.c ****     return day_max_table[month - 1];
 147              		.loc 1 499 5 is_stmt 1 view .LVU25
 148              		.loc 1 499 25 is_stmt 0 view .LVU26
 149 0020 04F10F03 		add	r3, r4, #15
 150 0024 0DEB0304 		add	r4, sp, r3
 151 0028 14F80C0C 		ldrb	r0, [r4, #-12]	@ zero_extendqisi2
 152              	.L10:
 500:User/Src/command.c **** }
 153              		.loc 1 500 1 view .LVU27
 154 002c 04B0     		add	sp, sp, #16
 155              	.LCFI2:
 156              		.cfi_remember_state
 157              		.cfi_def_cfa_offset 8
 158              		@ sp needed
 159 002e 10BD     		pop	{r4, pc}
 160              	.L15:
 161              	.LCFI3:
 162              		.cfi_restore_state
 498:User/Src/command.c ****     if (month == 2 && is_leap_year(year)) return 29;
 163              		.loc 1 498 23 discriminator 1 view .LVU28
 164 0030 6046     		mov	r0, ip
 165 0032 FFF7FEFF 		bl	is_leap_year
 166              	.LVL7:
 498:User/Src/command.c ****     if (month == 2 && is_leap_year(year)) return 29;
 167              		.loc 1 498 20 discriminator 1 view .LVU29
 168 0036 0028     		cmp	r0, #0
 169 0038 F2D0     		beq	.L11
 498:User/Src/command.c ****     if (month == 2 && is_leap_year(year)) return 29;
 170              		.loc 1 498 50 view .LVU30
 171 003a 1D20     		movs	r0, #29
 172 003c F6E7     		b	.L10
 173              	.L12:
 497:User/Src/command.c ****     if (month == 2 && is_leap_year(year)) return 29;
 174              		.loc 1 497 41 view .LVU31
 175 003e 0020     		movs	r0, #0
 176 0040 F4E7     		b	.L10
 177              	.L17:
 178 0042 00BF     		.align	2
 179              	.L16:
 180 0044 00000000 		.word	.LC0
 181              		.cfi_endproc
 182              	.LFE83:
ARM GAS  C:\Users\84759\AppData\Local\Temp\cc7RoKct.s 			page 13


 184              		.section	.rodata.AT_HELP_Handle.str1.4,"aMS",%progbits,1
 185              		.align	2
 186              	.LC1:
 187 0000 0D0A3D3D 		.ascii	"\015\012===== AT Command List =====\015\012\000"
 187      3D3D3D20 
 187      41542043 
 187      6F6D6D61 
 187      6E64204C 
 188              		.align	2
 189              	.LC2:
 190 0020 25642E20 		.ascii	"%d. %s\015\012\000"
 190      25730D0A 
 190      00
 191 0029 000000   		.align	2
 192              	.LC3:
 193 002c 3D3D3D3D 		.ascii	"===========================\015\012\000"
 193      3D3D3D3D 
 193      3D3D3D3D 
 193      3D3D3D3D 
 193      3D3D3D3D 
 194 004a 0000     		.align	2
 195              	.LC4:
 196 004c 546F7461 		.ascii	"Total command number: %d\015\012\000"
 196      6C20636F 
 196      6D6D616E 
 196      64206E75 
 196      6D626572 
 197              		.section	.text.AT_HELP_Handle,"ax",%progbits
 198              		.align	1
 199              		.global	AT_HELP_Handle
 200              		.syntax unified
 201              		.thumb
 202              		.thumb_func
 204              	AT_HELP_Handle:
 205              	.LVL8:
 206              	.LFB72:
 211:User/Src/command.c ****     (void)command;
 207              		.loc 1 211 1 is_stmt 1 view -0
 208              		.cfi_startproc
 209              		@ args = 0, pretend = 0, frame = 0
 210              		@ frame_needed = 0, uses_anonymous_args = 0
 211:User/Src/command.c ****     (void)command;
 211              		.loc 1 211 1 is_stmt 0 view .LVU33
 212 0000 70B5     		push	{r4, r5, r6, lr}
 213              	.LCFI4:
 214              		.cfi_def_cfa_offset 16
 215              		.cfi_offset 4, -16
 216              		.cfi_offset 5, -12
 217              		.cfi_offset 6, -8
 218              		.cfi_offset 14, -4
 212:User/Src/command.c ****     int i = 0;
 219              		.loc 1 212 5 is_stmt 1 view .LVU34
 213:User/Src/command.c ****     int num = 0;
 220              		.loc 1 213 5 view .LVU35
 221              	.LVL9:
 214:User/Src/command.c **** 
 222              		.loc 1 214 5 view .LVU36
ARM GAS  C:\Users\84759\AppData\Local\Temp\cc7RoKct.s 			page 14


 216:User/Src/command.c ****     for (i = 0; i < MAX_COMMAND_NUMBER; i++)
 223              		.loc 1 216 5 view .LVU37
 224 0002 1048     		ldr	r0, .L24
 225              	.LVL10:
 216:User/Src/command.c ****     for (i = 0; i < MAX_COMMAND_NUMBER; i++)
 226              		.loc 1 216 5 is_stmt 0 view .LVU38
 227 0004 FFF7FEFF 		bl	UsbPrintf
 228              	.LVL11:
 217:User/Src/command.c ****     {
 229              		.loc 1 217 5 is_stmt 1 view .LVU39
 214:User/Src/command.c **** 
 230              		.loc 1 214 9 is_stmt 0 view .LVU40
 231 0008 0025     		movs	r5, #0
 217:User/Src/command.c ****     {
 232              		.loc 1 217 12 view .LVU41
 233 000a 2C46     		mov	r4, r5
 217:User/Src/command.c ****     {
 234              		.loc 1 217 5 view .LVU42
 235 000c 00E0     		b	.L19
 236              	.LVL12:
 237              	.L20:
 217:User/Src/command.c ****     {
 238              		.loc 1 217 41 is_stmt 1 discriminator 2 view .LVU43
 217:User/Src/command.c ****     {
 239              		.loc 1 217 42 is_stmt 0 discriminator 2 view .LVU44
 240 000e 0134     		adds	r4, r4, #1
 241              	.LVL13:
 242              	.L19:
 217:User/Src/command.c ****     {
 243              		.loc 1 217 17 is_stmt 1 discriminator 1 view .LVU45
 217:User/Src/command.c ****     {
 244              		.loc 1 217 5 is_stmt 0 discriminator 1 view .LVU46
 245 0010 272C     		cmp	r4, #39
 246 0012 0EDC     		bgt	.L23
 219:User/Src/command.c ****         {
 247              		.loc 1 219 9 is_stmt 1 view .LVU47
 219:User/Src/command.c ****         {
 248              		.loc 1 219 31 is_stmt 0 view .LVU48
 249 0014 0C49     		ldr	r1, .L24+4
 250 0016 04EB8402 		add	r2, r4, r4, lsl #2
 251 001a 9300     		lsls	r3, r2, #2
 252 001c CA18     		adds	r2, r1, r3
 219:User/Src/command.c ****         {
 253              		.loc 1 219 36 view .LVU49
 254 001e CB5C     		ldrb	r3, [r1, r3]	@ zero_extendqisi2
 219:User/Src/command.c ****         {
 255              		.loc 1 219 12 view .LVU50
 256 0020 002B     		cmp	r3, #0
 257 0022 F4D0     		beq	.L20
 221:User/Src/command.c ****         }
 258              		.loc 1 221 13 is_stmt 1 view .LVU51
 259 0024 6E1C     		adds	r6, r5, #1
 260              	.LVL14:
 221:User/Src/command.c ****         }
 261              		.loc 1 221 13 is_stmt 0 view .LVU52
 262 0026 2946     		mov	r1, r5
 263 0028 0848     		ldr	r0, .L24+8
ARM GAS  C:\Users\84759\AppData\Local\Temp\cc7RoKct.s 			page 15


 264 002a FFF7FEFF 		bl	UsbPrintf
 265              	.LVL15:
 266 002e 3546     		mov	r5, r6
 267 0030 EDE7     		b	.L20
 268              	.LVL16:
 269              	.L23:
 224:User/Src/command.c ****     UsbPrintf("Total command number: %d\r\n", num);
 270              		.loc 1 224 5 is_stmt 1 view .LVU53
 271 0032 0748     		ldr	r0, .L24+12
 272 0034 FFF7FEFF 		bl	UsbPrintf
 273              	.LVL17:
 225:User/Src/command.c **** }
 274              		.loc 1 225 5 view .LVU54
 275 0038 2946     		mov	r1, r5
 276 003a 0648     		ldr	r0, .L24+16
 277 003c FFF7FEFF 		bl	UsbPrintf
 278              	.LVL18:
 226:User/Src/command.c **** 
 279              		.loc 1 226 1 is_stmt 0 view .LVU55
 280 0040 70BD     		pop	{r4, r5, r6, pc}
 281              	.LVL19:
 282              	.L25:
 226:User/Src/command.c **** 
 283              		.loc 1 226 1 view .LVU56
 284 0042 00BF     		.align	2
 285              	.L24:
 286 0044 00000000 		.word	.LC1
 287 0048 00000000 		.word	.LANCHOR0
 288 004c 20000000 		.word	.LC2
 289 0050 2C000000 		.word	.LC3
 290 0054 4C000000 		.word	.LC4
 291              		.cfi_endproc
 292              	.LFE72:
 294              		.section	.text.AT_W25Q64_EraseChip_Handle,"ax",%progbits
 295              		.align	1
 296              		.global	AT_W25Q64_EraseChip_Handle
 297              		.syntax unified
 298              		.thumb
 299              		.thumb_func
 301              	AT_W25Q64_EraseChip_Handle:
 302              	.LVL20:
 303              	.LFB74:
 234:User/Src/command.c ****     (void)command;
 304              		.loc 1 234 1 is_stmt 1 view -0
 305              		.cfi_startproc
 306              		@ args = 0, pretend = 0, frame = 0
 307              		@ frame_needed = 0, uses_anonymous_args = 0
 234:User/Src/command.c ****     (void)command;
 308              		.loc 1 234 1 is_stmt 0 view .LVU58
 309 0000 08B5     		push	{r3, lr}
 310              	.LCFI5:
 311              		.cfi_def_cfa_offset 8
 312              		.cfi_offset 3, -8
 313              		.cfi_offset 14, -4
 235:User/Src/command.c ****     W25Q64_ChipErase();
 314              		.loc 1 235 5 is_stmt 1 view .LVU59
 236:User/Src/command.c **** }
ARM GAS  C:\Users\84759\AppData\Local\Temp\cc7RoKct.s 			page 16


 315              		.loc 1 236 5 view .LVU60
 316 0002 FFF7FEFF 		bl	W25Q64_ChipErase
 317              	.LVL21:
 237:User/Src/command.c **** 
 318              		.loc 1 237 1 is_stmt 0 view .LVU61
 319 0006 08BD     		pop	{r3, pc}
 320              		.cfi_endproc
 321              	.LFE74:
 323              		.section	.rodata.AT_FATFS_ListDir_Handle.str1.4,"aMS",%progbits,1
 324              		.align	2
 325              	.LC5:
 326 0000 0D0A2D2D 		.ascii	"\015\012--- \312\261\274\344\243\272%02d:%02d:%02d "
 326      2D20CAB1 
 326      BCE4A3BA 
 326      25303264 
 326      3A253032 
 327 001b 2D2D2D00 		.ascii	"---\000"
 328              		.section	.text.AT_FATFS_ListDir_Handle,"ax",%progbits
 329              		.align	1
 330              		.global	AT_FATFS_ListDir_Handle
 331              		.syntax unified
 332              		.thumb
 333              		.thumb_func
 335              	AT_FATFS_ListDir_Handle:
 336              	.LVL22:
 337              	.LFB75:
 240:User/Src/command.c ****     (void)command;
 338              		.loc 1 240 1 is_stmt 1 view -0
 339              		.cfi_startproc
 340              		@ args = 0, pretend = 0, frame = 8
 341              		@ frame_needed = 0, uses_anonymous_args = 0
 240:User/Src/command.c ****     (void)command;
 342              		.loc 1 240 1 is_stmt 0 view .LVU63
 343 0000 00B5     		push	{lr}
 344              	.LCFI6:
 345              		.cfi_def_cfa_offset 4
 346              		.cfi_offset 14, -4
 347 0002 83B0     		sub	sp, sp, #12
 348              	.LCFI7:
 349              		.cfi_def_cfa_offset 16
 241:User/Src/command.c ****     uint8_t hh, mm, ss;
 350              		.loc 1 241 5 is_stmt 1 view .LVU64
 242:User/Src/command.c ****     RTC_GetCurrentTime(&hh, &mm, &ss);
 351              		.loc 1 242 5 view .LVU65
 243:User/Src/command.c ****     UsbPrintf("\r\n--- Ę±ĽäŁş%02d:%02d:%02d ---", hh, mm, ss);
 352              		.loc 1 243 5 view .LVU66
 353 0004 0DF10502 		add	r2, sp, #5
 354 0008 0DF10601 		add	r1, sp, #6
 355 000c 0DF10700 		add	r0, sp, #7
 356              	.LVL23:
 243:User/Src/command.c ****     UsbPrintf("\r\n--- Ę±ĽäŁş%02d:%02d:%02d ---", hh, mm, ss);
 357              		.loc 1 243 5 is_stmt 0 view .LVU67
 358 0010 FFF7FEFF 		bl	RTC_GetCurrentTime
 359              	.LVL24:
 244:User/Src/command.c ****     FatFs_ListDir();
 360              		.loc 1 244 5 is_stmt 1 view .LVU68
 361 0014 9DF80530 		ldrb	r3, [sp, #5]	@ zero_extendqisi2
ARM GAS  C:\Users\84759\AppData\Local\Temp\cc7RoKct.s 			page 17


 362 0018 9DF80620 		ldrb	r2, [sp, #6]	@ zero_extendqisi2
 363 001c 9DF80710 		ldrb	r1, [sp, #7]	@ zero_extendqisi2
 364 0020 0348     		ldr	r0, .L30
 365 0022 FFF7FEFF 		bl	UsbPrintf
 366              	.LVL25:
 245:User/Src/command.c **** }
 367              		.loc 1 245 5 view .LVU69
 368 0026 FFF7FEFF 		bl	FatFs_ListDir
 369              	.LVL26:
 246:User/Src/command.c **** 
 370              		.loc 1 246 1 is_stmt 0 view .LVU70
 371 002a 03B0     		add	sp, sp, #12
 372              	.LCFI8:
 373              		.cfi_def_cfa_offset 4
 374              		@ sp needed
 375 002c 5DF804FB 		ldr	pc, [sp], #4
 376              	.L31:
 377              		.align	2
 378              	.L30:
 379 0030 00000000 		.word	.LC5
 380              		.cfi_endproc
 381              	.LFE75:
 383              		.section	.text.AT_FATFS_MOUNT_Handle,"ax",%progbits
 384              		.align	1
 385              		.global	AT_FATFS_MOUNT_Handle
 386              		.syntax unified
 387              		.thumb
 388              		.thumb_func
 390              	AT_FATFS_MOUNT_Handle:
 391              	.LVL27:
 392              	.LFB76:
 249:User/Src/command.c ****     (void)command;
 393              		.loc 1 249 1 is_stmt 1 view -0
 394              		.cfi_startproc
 395              		@ args = 0, pretend = 0, frame = 0
 396              		@ frame_needed = 0, uses_anonymous_args = 0
 249:User/Src/command.c ****     (void)command;
 397              		.loc 1 249 1 is_stmt 0 view .LVU72
 398 0000 08B5     		push	{r3, lr}
 399              	.LCFI9:
 400              		.cfi_def_cfa_offset 8
 401              		.cfi_offset 3, -8
 402              		.cfi_offset 14, -4
 250:User/Src/command.c ****     FatFs_Mount();
 403              		.loc 1 250 5 is_stmt 1 view .LVU73
 251:User/Src/command.c **** }
 404              		.loc 1 251 5 view .LVU74
 405 0002 FFF7FEFF 		bl	FatFs_Mount
 406              	.LVL28:
 252:User/Src/command.c **** 
 407              		.loc 1 252 1 is_stmt 0 view .LVU75
 408 0006 08BD     		pop	{r3, pc}
 409              		.cfi_endproc
 410              	.LFE76:
 412              		.section	.text.AT_FATFS_FORMAT_Handle,"ax",%progbits
 413              		.align	1
 414              		.global	AT_FATFS_FORMAT_Handle
ARM GAS  C:\Users\84759\AppData\Local\Temp\cc7RoKct.s 			page 18


 415              		.syntax unified
 416              		.thumb
 417              		.thumb_func
 419              	AT_FATFS_FORMAT_Handle:
 420              	.LVL29:
 421              	.LFB77:
 255:User/Src/command.c ****     (void)command;
 422              		.loc 1 255 1 is_stmt 1 view -0
 423              		.cfi_startproc
 424              		@ args = 0, pretend = 0, frame = 0
 425              		@ frame_needed = 0, uses_anonymous_args = 0
 255:User/Src/command.c ****     (void)command;
 426              		.loc 1 255 1 is_stmt 0 view .LVU77
 427 0000 08B5     		push	{r3, lr}
 428              	.LCFI10:
 429              		.cfi_def_cfa_offset 8
 430              		.cfi_offset 3, -8
 431              		.cfi_offset 14, -4
 256:User/Src/command.c ****     FatFs_Format();
 432              		.loc 1 256 5 is_stmt 1 view .LVU78
 257:User/Src/command.c **** }
 433              		.loc 1 257 5 view .LVU79
 434 0002 FFF7FEFF 		bl	FatFs_Format
 435              	.LVL30:
 258:User/Src/command.c **** 
 436              		.loc 1 258 1 is_stmt 0 view .LVU80
 437 0006 08BD     		pop	{r3, pc}
 438              		.cfi_endproc
 439              	.LFE77:
 441              		.section	.rodata.AT_FATFS_READ_Handle.str1.4,"aMS",%progbits,1
 442              		.align	2
 443              	.LC6:
 444 0000 5B636F6D 		.ascii	"[command] \264\355\316\363\243\272\326\270\301\356\316"
 444      6D616E64 
 444      5D20B4ED 
 444      CEF3A3BA 
 444      D6B8C1EE 
 445 0015 AABFD5A3 		.ascii	"\252\277\325\243\241\015\012\000"
 445      A10D0A00 
 446 001d 000000   		.align	2
 447              	.LC7:
 448 0020 5B636F6D 		.ascii	"[command] \264\355\316\363\243\272\326\270\301\356\275"
 448      6D616E64 
 448      5D20B4ED 
 448      CEF3A3BA 
 448      D6B8C1EE 
 449 0035 E2CEF6CA 		.ascii	"\342\316\366\312\247\260\334\015\012\000"
 449      A7B0DC0D 
 449      0A00
 450 003f 00       		.align	2
 451              	.LC8:
 452 0040 5B636F6D 		.ascii	"[command] \264\355\316\363\243\272FATFS \316\264\271"
 452      6D616E64 
 452      5D20B4ED 
 452      CEF3A3BA 
 452      46415446 
 453 0059 D2D4D80D 		.ascii	"\322\324\330\015\012\000"
ARM GAS  C:\Users\84759\AppData\Local\Temp\cc7RoKct.s 			page 19


 453      0A00
 454 005f 00       		.align	2
 455              	.LC9:
 456 0060 5B636F6D 		.ascii	"[command] \266\301\310\241\316\304\274\376\312\247\260"
 456      6D616E64 
 456      5D20B6C1 
 456      C8A1CEC4 
 456      BCFECAA7 
 457 0075 DCA3ACB4 		.ascii	"\334\243\254\264\355\316\363\302\353\243\272%d \015"
 457      EDCEF3C2 
 457      EBA3BA25 
 457      64200D
 458 0084 0A00     		.ascii	"\012\000"
 459              		.section	.text.AT_FATFS_READ_Handle,"ax",%progbits
 460              		.align	1
 461              		.global	AT_FATFS_READ_Handle
 462              		.syntax unified
 463              		.thumb
 464              		.thumb_func
 466              	AT_FATFS_READ_Handle:
 467              	.LVL31:
 468              	.LFB80:
 386:User/Src/command.c ****     if (command == NULL || strlen(command) == 0)
 469              		.loc 1 386 1 is_stmt 1 view -0
 470              		.cfi_startproc
 471              		@ args = 0, pretend = 0, frame = 4184
 472              		@ frame_needed = 0, uses_anonymous_args = 0
 386:User/Src/command.c ****     if (command == NULL || strlen(command) == 0)
 473              		.loc 1 386 1 is_stmt 0 view .LVU82
 474 0000 00B5     		push	{lr}
 475              	.LCFI11:
 476              		.cfi_def_cfa_offset 4
 477              		.cfi_offset 14, -4
 478 0002 ADF5825D 		sub	sp, sp, #4160
 479              	.LCFI12:
 480              		.cfi_def_cfa_offset 4164
 481 0006 87B0     		sub	sp, sp, #28
 482              	.LCFI13:
 483              		.cfi_def_cfa_offset 4192
 387:User/Src/command.c ****     {
 484              		.loc 1 387 5 is_stmt 1 view .LVU83
 387:User/Src/command.c ****     {
 485              		.loc 1 387 8 is_stmt 0 view .LVU84
 486 0008 08B1     		cbz	r0, .L37
 387:User/Src/command.c ****     {
 487              		.loc 1 387 44 discriminator 1 view .LVU85
 488 000a 0378     		ldrb	r3, [r0]	@ zero_extendqisi2
 387:User/Src/command.c ****     {
 489              		.loc 1 387 25 discriminator 1 view .LVU86
 490 000c 3BB9     		cbnz	r3, .L38
 491              	.L37:
 389:User/Src/command.c ****         return;
 492              		.loc 1 389 9 is_stmt 1 view .LVU87
 493 000e 2B48     		ldr	r0, .L48
 494              	.LVL32:
 389:User/Src/command.c ****         return;
 495              		.loc 1 389 9 is_stmt 0 view .LVU88
ARM GAS  C:\Users\84759\AppData\Local\Temp\cc7RoKct.s 			page 20


 496 0010 FFF7FEFF 		bl	UsbPrintf
 497              	.LVL33:
 390:User/Src/command.c ****     }
 498              		.loc 1 390 9 is_stmt 1 view .LVU89
 499              	.L36:
 417:User/Src/command.c **** 
 500              		.loc 1 417 1 is_stmt 0 view .LVU90
 501 0014 0DF5825D 		add	sp, sp, #4160
 502 0018 07B0     		add	sp, sp, #28
 503              	.LCFI14:
 504              		.cfi_remember_state
 505              		.cfi_def_cfa_offset 4
 506              		@ sp needed
 507 001a 5DF804FB 		ldr	pc, [sp], #4
 508              	.LVL34:
 509              	.L38:
 510              	.LCFI15:
 511              		.cfi_restore_state
 393:User/Src/command.c ****     if (!FatFs_ParseReadCmd(command, filename, sizeof(filename)))
 512              		.loc 1 393 5 is_stmt 1 view .LVU91
 393:User/Src/command.c ****     if (!FatFs_ParseReadCmd(command, filename, sizeof(filename)))
 513              		.loc 1 393 10 is_stmt 0 view .LVU92
 514 001e 0023     		movs	r3, #0
 515 0020 0DF58152 		add	r2, sp, #4128
 516 0024 1832     		adds	r2, r2, #24
 517 0026 1360     		str	r3, [r2]
 518 0028 0DF58152 		add	r2, sp, #4128
 519 002c 1C32     		adds	r2, r2, #28
 520 002e 1360     		str	r3, [r2]
 521 0030 5360     		str	r3, [r2, #4]
 522 0032 9360     		str	r3, [r2, #8]
 523 0034 D360     		str	r3, [r2, #12]
 524 0036 1361     		str	r3, [r2, #16]
 525 0038 5361     		str	r3, [r2, #20]
 526 003a 9361     		str	r3, [r2, #24]
 394:User/Src/command.c ****     {
 527              		.loc 1 394 5 is_stmt 1 view .LVU93
 394:User/Src/command.c ****     {
 528              		.loc 1 394 10 is_stmt 0 view .LVU94
 529 003c 2022     		movs	r2, #32
 530 003e 0DF58151 		add	r1, sp, #4128
 531 0042 1831     		adds	r1, r1, #24
 532 0044 FFF7FEFF 		bl	FatFs_ParseReadCmd
 533              	.LVL35:
 394:User/Src/command.c ****     {
 534              		.loc 1 394 8 view .LVU95
 535 0048 48B3     		cbz	r0, .L45
 400:User/Src/command.c ****     if (!FatFs_GetInfo(&fs_info))
 536              		.loc 1 400 5 is_stmt 1 view .LVU96
 400:User/Src/command.c ****     if (!FatFs_GetInfo(&fs_info))
 537              		.loc 1 400 18 is_stmt 0 view .LVU97
 538 004a 2022     		movs	r2, #32
 539 004c 0021     		movs	r1, #0
 540 004e 0DF58050 		add	r0, sp, #4096
 541 0052 1830     		adds	r0, r0, #24
 542 0054 FFF7FEFF 		bl	memset
 543              	.LVL36:
ARM GAS  C:\Users\84759\AppData\Local\Temp\cc7RoKct.s 			page 21


 401:User/Src/command.c ****     {
 544              		.loc 1 401 5 is_stmt 1 view .LVU98
 401:User/Src/command.c ****     {
 545              		.loc 1 401 10 is_stmt 0 view .LVU99
 546 0058 0DF58050 		add	r0, sp, #4096
 547 005c 1830     		adds	r0, r0, #24
 548 005e FFF7FEFF 		bl	FatFs_GetInfo
 549              	.LVL37:
 401:User/Src/command.c ****     {
 550              		.loc 1 401 8 view .LVU100
 551 0062 00B3     		cbz	r0, .L46
 407:User/Src/command.c ****     File_Read_Result_t read_result = {0};
 552              		.loc 1 407 5 is_stmt 1 view .LVU101
 553 0064 1648     		ldr	r0, .L48+4
 554 0066 FFF7FEFF 		bl	f_close
 555              	.LVL38:
 408:User/Src/command.c **** 
 556              		.loc 1 408 5 view .LVU102
 408:User/Src/command.c **** 
 557              		.loc 1 408 24 is_stmt 0 view .LVU103
 558 006a 41F21802 		movw	r2, #4120
 559 006e 0021     		movs	r1, #0
 560 0070 6846     		mov	r0, sp
 561 0072 FFF7FEFF 		bl	memset
 562              	.LVL39:
 410:User/Src/command.c ****     {
 563              		.loc 1 410 5 is_stmt 1 view .LVU104
 410:User/Src/command.c ****     {
 564              		.loc 1 410 10 is_stmt 0 view .LVU105
 565 0076 0DF58052 		add	r2, sp, #4096
 566 007a 1832     		adds	r2, r2, #24
 567 007c 6946     		mov	r1, sp
 568 007e 0DF58150 		add	r0, sp, #4128
 569 0082 1830     		adds	r0, r0, #24
 570 0084 FFF7FEFF 		bl	FatFs_ReadFile
 571              	.LVL40:
 410:User/Src/command.c ****     {
 572              		.loc 1 410 8 view .LVU106
 573 0088 88B1     		cbz	r0, .L47
 416:User/Src/command.c **** }
 574              		.loc 1 416 5 is_stmt 1 view .LVU107
 575 008a 6A46     		mov	r2, sp
 576 008c 0DF58051 		add	r1, sp, #4096
 577 0090 1831     		adds	r1, r1, #24
 578 0092 0DF58150 		add	r0, sp, #4128
 579 0096 1830     		adds	r0, r0, #24
 580 0098 FFF7FEFF 		bl	FatFs_PrintReadResult
 581              	.LVL41:
 582 009c BAE7     		b	.L36
 583              	.L45:
 396:User/Src/command.c ****         return;
 584              		.loc 1 396 9 view .LVU108
 585 009e 0948     		ldr	r0, .L48+8
 586 00a0 FFF7FEFF 		bl	UsbPrintf
 587              	.LVL42:
 397:User/Src/command.c ****     }
 588              		.loc 1 397 9 view .LVU109
ARM GAS  C:\Users\84759\AppData\Local\Temp\cc7RoKct.s 			page 22


 589 00a4 B6E7     		b	.L36
 590              	.L46:
 403:User/Src/command.c ****         return;
 591              		.loc 1 403 9 view .LVU110
 592 00a6 0848     		ldr	r0, .L48+12
 593 00a8 FFF7FEFF 		bl	UsbPrintf
 594              	.LVL43:
 404:User/Src/command.c ****     }
 595              		.loc 1 404 9 view .LVU111
 596 00ac B2E7     		b	.L36
 597              	.L47:
 412:User/Src/command.c ****         return;
 598              		.loc 1 412 9 view .LVU112
 599 00ae 9DF80010 		ldrb	r1, [sp, #0]	@ zero_extendqisi2
 600 00b2 0648     		ldr	r0, .L48+16
 601 00b4 FFF7FEFF 		bl	UsbPrintf
 602              	.LVL44:
 413:User/Src/command.c ****     }
 603              		.loc 1 413 9 view .LVU113
 604 00b8 ACE7     		b	.L36
 605              	.L49:
 606 00ba 00BF     		.align	2
 607              	.L48:
 608 00bc 00000000 		.word	.LC6
 609 00c0 00000000 		.word	USERFile
 610 00c4 20000000 		.word	.LC7
 611 00c8 40000000 		.word	.LC8
 612 00cc 60000000 		.word	.LC9
 613              		.cfi_endproc
 614              	.LFE80:
 616              		.section	.text.strSearch,"ax",%progbits
 617              		.align	1
 618              		.global	strSearch
 619              		.syntax unified
 620              		.thumb
 621              		.thumb_func
 623              	strSearch:
 624              	.LVL45:
 625              	.LFB68:
  48:User/Src/command.c ****     int len_source = strlen(source);
 626              		.loc 1 48 1 view -0
 627              		.cfi_startproc
 628              		@ args = 0, pretend = 0, frame = 0
 629              		@ frame_needed = 0, uses_anonymous_args = 0
  48:User/Src/command.c ****     int len_source = strlen(source);
 630              		.loc 1 48 1 is_stmt 0 view .LVU115
 631 0000 70B5     		push	{r4, r5, r6, lr}
 632              	.LCFI16:
 633              		.cfi_def_cfa_offset 16
 634              		.cfi_offset 4, -16
 635              		.cfi_offset 5, -12
 636              		.cfi_offset 6, -8
 637              		.cfi_offset 14, -4
 638 0002 0546     		mov	r5, r0
 639 0004 0C46     		mov	r4, r1
  49:User/Src/command.c ****     int len_target = strlen(target);
 640              		.loc 1 49 5 is_stmt 1 view .LVU116
ARM GAS  C:\Users\84759\AppData\Local\Temp\cc7RoKct.s 			page 23


  49:User/Src/command.c ****     int len_target = strlen(target);
 641              		.loc 1 49 22 is_stmt 0 view .LVU117
 642 0006 FFF7FEFF 		bl	strlen
 643              	.LVL46:
  49:User/Src/command.c ****     int len_target = strlen(target);
 644              		.loc 1 49 22 view .LVU118
 645 000a 0646     		mov	r6, r0
 646              	.LVL47:
  50:User/Src/command.c ****     int i, j;
 647              		.loc 1 50 5 is_stmt 1 view .LVU119
  50:User/Src/command.c ****     int i, j;
 648              		.loc 1 50 22 is_stmt 0 view .LVU120
 649 000c 2046     		mov	r0, r4
 650              	.LVL48:
  50:User/Src/command.c ****     int i, j;
 651              		.loc 1 50 22 view .LVU121
 652 000e FFF7FEFF 		bl	strlen
 653              	.LVL49:
  51:User/Src/command.c **** 
 654              		.loc 1 51 5 is_stmt 1 view .LVU122
  53:User/Src/command.c ****         return -1;
 655              		.loc 1 53 5 view .LVU123
  53:User/Src/command.c ****         return -1;
 656              		.loc 1 53 8 is_stmt 0 view .LVU124
 657 0012 8642     		cmp	r6, r0
 658 0014 17DB     		blt	.L56
 659 0016 0146     		mov	r1, r0
  53:User/Src/command.c ****         return -1;
 660              		.loc 1 53 33 discriminator 1 view .LVU125
 661 0018 C0B1     		cbz	r0, .L57
  56:User/Src/command.c ****     {
 662              		.loc 1 56 12 view .LVU126
 663 001a 0020     		movs	r0, #0
 664              	.LVL50:
  56:User/Src/command.c ****     {
 665              		.loc 1 56 12 view .LVU127
 666 001c 02E0     		b	.L52
 667              	.LVL51:
 668              	.L53:
  63:User/Src/command.c ****             return i;
 669              		.loc 1 63 9 is_stmt 1 view .LVU128
  63:User/Src/command.c ****             return i;
 670              		.loc 1 63 12 is_stmt 0 view .LVU129
 671 001e 8B42     		cmp	r3, r1
 672 0020 10D0     		beq	.L50
  56:User/Src/command.c ****     {
 673              		.loc 1 56 47 is_stmt 1 discriminator 2 view .LVU130
  56:User/Src/command.c ****     {
 674              		.loc 1 56 48 is_stmt 0 discriminator 2 view .LVU131
 675 0022 0130     		adds	r0, r0, #1
 676              	.LVL52:
 677              	.L52:
  56:User/Src/command.c ****     {
 678              		.loc 1 56 17 is_stmt 1 discriminator 1 view .LVU132
  56:User/Src/command.c ****     {
 679              		.loc 1 56 33 is_stmt 0 discriminator 1 view .LVU133
 680 0024 731A     		subs	r3, r6, r1
ARM GAS  C:\Users\84759\AppData\Local\Temp\cc7RoKct.s 			page 24


  56:User/Src/command.c ****     {
 681              		.loc 1 56 5 discriminator 1 view .LVU134
 682 0026 8342     		cmp	r3, r0
 683 0028 0ADB     		blt	.L60
  58:User/Src/command.c ****         {
 684              		.loc 1 58 16 view .LVU135
 685 002a 0023     		movs	r3, #0
 686              	.L55:
 687              	.LVL53:
  58:User/Src/command.c ****         {
 688              		.loc 1 58 21 is_stmt 1 discriminator 1 view .LVU136
  58:User/Src/command.c ****         {
 689              		.loc 1 58 9 is_stmt 0 discriminator 1 view .LVU137
 690 002c 8B42     		cmp	r3, r1
 691 002e F6DA     		bge	.L53
  60:User/Src/command.c ****                 break;
 692              		.loc 1 60 13 is_stmt 1 view .LVU138
  60:User/Src/command.c ****                 break;
 693              		.loc 1 60 26 is_stmt 0 view .LVU139
 694 0030 C218     		adds	r2, r0, r3
  60:User/Src/command.c ****                 break;
 695              		.loc 1 60 23 view .LVU140
 696 0032 15F802C0 		ldrb	ip, [r5, r2]	@ zero_extendqisi2
  60:User/Src/command.c ****                 break;
 697              		.loc 1 60 40 view .LVU141
 698 0036 E25C     		ldrb	r2, [r4, r3]	@ zero_extendqisi2
  60:User/Src/command.c ****                 break;
 699              		.loc 1 60 16 view .LVU142
 700 0038 9445     		cmp	ip, r2
 701 003a F0D1     		bne	.L53
  58:User/Src/command.c ****         {
 702              		.loc 1 58 37 is_stmt 1 discriminator 2 view .LVU143
  58:User/Src/command.c ****         {
 703              		.loc 1 58 38 is_stmt 0 discriminator 2 view .LVU144
 704 003c 0133     		adds	r3, r3, #1
 705              	.LVL54:
  58:User/Src/command.c ****         {
 706              		.loc 1 58 38 discriminator 2 view .LVU145
 707 003e F5E7     		b	.L55
 708              	.LVL55:
 709              	.L60:
  66:User/Src/command.c **** }
 710              		.loc 1 66 12 view .LVU146
 711 0040 4FF0FF30 		mov	r0, #-1
 712              	.LVL56:
 713              	.L50:
  67:User/Src/command.c **** 
 714              		.loc 1 67 1 view .LVU147
 715 0044 70BD     		pop	{r4, r5, r6, pc}
 716              	.LVL57:
 717              	.L56:
  54:User/Src/command.c **** 
 718              		.loc 1 54 16 view .LVU148
 719 0046 4FF0FF30 		mov	r0, #-1
 720              	.LVL58:
  54:User/Src/command.c **** 
 721              		.loc 1 54 16 view .LVU149
ARM GAS  C:\Users\84759\AppData\Local\Temp\cc7RoKct.s 			page 25


 722 004a FBE7     		b	.L50
 723              	.LVL59:
 724              	.L57:
  54:User/Src/command.c **** 
 725              		.loc 1 54 16 view .LVU150
 726 004c 4FF0FF30 		mov	r0, #-1
 727              	.LVL60:
  54:User/Src/command.c **** 
 728              		.loc 1 54 16 view .LVU151
 729 0050 F8E7     		b	.L50
 730              		.cfi_endproc
 731              	.LFE68:
 733              		.section	.rodata.AT_FATFS_CluWrite_Handle.str1.4,"aMS",%progbits,1
 734              		.align	2
 735              	.LC10:
 736 0000 5B636F6D 		.ascii	"[command] \264\355\316\363\243\272\326\270\301\356\316"
 736      6D616E64 
 736      5D20B4ED 
 736      CEF3A3BA 
 736      D6B8C1EE 
 737 0015 AABFD50D 		.ascii	"\252\277\325\015\012\000"
 737      0A00
 738 001b 00       		.align	2
 739              	.LC12:
 740 001c 5B636F6D 		.ascii	"[command] \264\355\316\363\243\272\270\361\312\275\264"
 740      6D616E64 
 740      5D20B4ED 
 740      CEF3A3BA 
 740      B8F1CABD 
 741 0031 EDCEF30D 		.ascii	"\355\316\363\015\012\000"
 741      0A00
 742 0037 00       		.align	2
 743              	.LC13:
 744 0038 5B636F6D 		.ascii	"[command] \323\303\267\250\243\272AT^FATFS_CluWrite"
 744      6D616E64 
 744      5D20D3C3 
 744      B7A8A3BA 
 744      41545E46 
 745 0059 3D3CB4D8 		.ascii	"=<\264\330\272\305>,<\316\304\274\376\303\373>,<\312"
 745      BAC53E2C 
 745      3CCEC4BC 
 745      FEC3FB3E 
 745      2C3CCA
 746 006c FDBEDD3E 		.ascii	"\375\276\335>\015\012\000"
 746      0D0A00
 747 0073 00       		.align	2
 748              	.LC14:
 749 0074 5B636F6D 		.ascii	"[command] \264\355\316\363\243\272\262\316\312\375\270"
 749      6D616E64 
 749      5D20B4ED 
 749      CEF3A3BA 
 749      B2CECAFD 
 750 0089 F1CABDB4 		.ascii	"\361\312\275\264\355\316\363\015\012\000"
 750      EDCEF30D 
 750      0A00
 751 0093 00       		.align	2
 752              	.LC15:
ARM GAS  C:\Users\84759\AppData\Local\Temp\cc7RoKct.s 			page 26


 753 0094 5B636F6D 		.ascii	"[command] \264\330%lu \324\275\275\347 \241\372 \327"
 753      6D616E64 
 753      5D20B4D8 
 753      256C7520 
 753      D4BDBDE7 
 754 00ad D4B6AFCA 		.ascii	"\324\266\257\312\271\323\303\264\3302\015\012\000"
 754      B9D3C3B4 
 754      D8320D0A 
 754      00
 755 00ba 0000     		.align	2
 756              	.LC16:
 757 00bc 0D0A2A2A 		.ascii	"\015\012******[command] \320\264\310\353\277\252\312"
 757      2A2A2A2A 
 757      5B636F6D 
 757      6D616E64 
 757      5D20D0B4 
 758 00d5 BC2A2A2A 		.ascii	"\274******\015\012\000"
 758      2A2A2A0D 
 758      0A00
 759 00df 00       		.align	2
 760              	.LC17:
 761 00e0 5B636F6D 		.ascii	"[command] \264\330\272\305\243\272%lu\015\012\000"
 761      6D616E64 
 761      5D20B4D8 
 761      BAC5A3BA 
 761      256C750D 
 762 00f6 0000     		.align	2
 763              	.LC18:
 764 00f8 5B636F6D 		.ascii	"[command] \316\304\274\376\303\373\243\272%s\015\012"
 764      6D616E64 
 764      5D20CEC4 
 764      BCFEC3FB 
 764      A3BA2573 
 765 010e 00       		.ascii	"\000"
 766 010f 00       		.align	2
 767              	.LC19:
 768 0110 5B636F6D 		.ascii	"[command] \312\375\276\335\243\272%s\015\012\000"
 768      6D616E64 
 768      5D20CAFD 
 768      BEDDA3BA 
 768      25730D0A 
 769 0125 000000   		.align	2
 770              	.LC20:
 771 0128 5B636F6D 		.ascii	"[command] \263\244\266\310\243\272%d\015\012\000"
 771      6D616E64 
 771      5D20B3A4 
 771      B6C8A3BA 
 771      25640D0A 
 772 013d 000000   		.align	2
 773              	.LC21:
 774 0140 5B636F6D 		.ascii	"[command] \320\264\310\353\263\311\271\246\243\241\327"
 774      6D616E64 
 774      5D20D0B4 
 774      C8EBB3C9 
 774      B9A6A3A1 
 775 0155 D6BDDAA3 		.ascii	"\326\275\332\243\272%u\015\012\000"
 775      BA25750D 
ARM GAS  C:\Users\84759\AppData\Local\Temp\cc7RoKct.s 			page 27


 775      0A00
 776 015f 00       		.align	2
 777              	.LC22:
 778 0160 5B636F6D 		.ascii	"[command] \306\360\312\274\264\330\243\272%lu  \265"
 778      6D616E64 
 778      5D20C6F0 
 778      CABCB4D8 
 778      A3BA256C 
 779 0178 B1C7B0B4 		.ascii	"\261\307\260\264\330\243\272%lu\015\012\000"
 779      D8A3BA25 
 779      6C750D0A 
 779      00
 780 0185 000000   		.align	2
 781              	.LC23:
 782 0188 5B636F6D 		.ascii	"[command] \320\264\310\353\312\247\260\334\243\241\264"
 782      6D616E64 
 782      5D20D0B4 
 782      C8EBCAA7 
 782      B0DCA3A1 
 783 019d EDCEF3C2 		.ascii	"\355\316\363\302\353\243\272%d\015\012\000"
 783      EBA3BA25 
 783      640D0A00 
 784 01a9 000000   		.align	2
 785              	.LC24:
 786 01ac 2A2A2A2A 		.ascii	"******[command] \275\341\312\370******\015\012\000"
 786      2A2A5B63 
 786      6F6D6D61 
 786      6E645D20 
 786      BDE1CAF8 
 787 01c9 000000   		.align	2
 788              	.LC11:
 789 01cc 41545E46 		.ascii	"AT^FATFS_CluWrite=\000"
 789      41544653 
 789      5F436C75 
 789      57726974 
 789      653D00
 790              		.section	.text.AT_FATFS_CluWrite_Handle,"ax",%progbits
 791              		.align	1
 792              		.global	AT_FATFS_CluWrite_Handle
 793              		.syntax unified
 794              		.thumb
 795              		.thumb_func
 797              	AT_FATFS_CluWrite_Handle:
 798              	.LVL61:
 799              	.LFB81:
 420:User/Src/command.c ****     if (command == NULL || strlen(command) == 0)
 800              		.loc 1 420 1 is_stmt 1 view -0
 801              		.cfi_startproc
 802              		@ args = 0, pretend = 0, frame = 152
 803              		@ frame_needed = 0, uses_anonymous_args = 0
 420:User/Src/command.c ****     if (command == NULL || strlen(command) == 0)
 804              		.loc 1 420 1 is_stmt 0 view .LVU153
 805 0000 2DE9F041 		push	{r4, r5, r6, r7, r8, lr}
 806              	.LCFI17:
 807              		.cfi_def_cfa_offset 24
 808              		.cfi_offset 4, -24
 809              		.cfi_offset 5, -20
ARM GAS  C:\Users\84759\AppData\Local\Temp\cc7RoKct.s 			page 28


 810              		.cfi_offset 6, -16
 811              		.cfi_offset 7, -12
 812              		.cfi_offset 8, -8
 813              		.cfi_offset 14, -4
 814 0004 A8B0     		sub	sp, sp, #160
 815              	.LCFI18:
 816              		.cfi_def_cfa_offset 184
 421:User/Src/command.c ****     {
 817              		.loc 1 421 5 is_stmt 1 view .LVU154
 421:User/Src/command.c ****     {
 818              		.loc 1 421 8 is_stmt 0 view .LVU155
 819 0006 0028     		cmp	r0, #0
 820 0008 7DD0     		beq	.L62
 821 000a 0546     		mov	r5, r0
 421:User/Src/command.c ****     {
 822              		.loc 1 421 44 discriminator 1 view .LVU156
 823 000c 0378     		ldrb	r3, [r0]	@ zero_extendqisi2
 421:User/Src/command.c ****     {
 824              		.loc 1 421 25 discriminator 1 view .LVU157
 825 000e 002B     		cmp	r3, #0
 826 0010 79D0     		beq	.L62
 427:User/Src/command.c ****     uint16_t head_len = strlen(cmd_header);
 827              		.loc 1 427 5 is_stmt 1 view .LVU158
 427:User/Src/command.c ****     uint16_t head_len = strlen(cmd_header);
 828              		.loc 1 427 10 is_stmt 0 view .LVU159
 829 0012 0DF18C0C 		add	ip, sp, #140
 830 0016 494C     		ldr	r4, .L76
 831 0018 0FCC     		ldmia	r4!, {r0, r1, r2, r3}
 832              	.LVL62:
 427:User/Src/command.c ****     uint16_t head_len = strlen(cmd_header);
 833              		.loc 1 427 10 view .LVU160
 834 001a ACE80F00 		stmia	ip!, {r0, r1, r2, r3}
 835 001e 2368     		ldr	r3, [r4]
 836 0020 2CF8023B 		strh	r3, [ip], #2	@ movhi
 837 0024 1B0C     		lsrs	r3, r3, #16
 838 0026 8CF80030 		strb	r3, [ip]
 428:User/Src/command.c **** 
 839              		.loc 1 428 5 is_stmt 1 view .LVU161
 428:User/Src/command.c **** 
 840              		.loc 1 428 25 is_stmt 0 view .LVU162
 841 002a 23A8     		add	r0, sp, #140
 842 002c FFF7FEFF 		bl	strlen
 843              	.LVL63:
 844 0030 0446     		mov	r4, r0
 845              	.LVL64:
 430:User/Src/command.c ****     {
 846              		.loc 1 430 5 is_stmt 1 view .LVU163
 430:User/Src/command.c ****     {
 847              		.loc 1 430 9 is_stmt 0 view .LVU164
 848 0032 23A9     		add	r1, sp, #140
 849 0034 2846     		mov	r0, r5
 850 0036 FFF7FEFF 		bl	strSearch
 851              	.LVL65:
 430:User/Src/command.c ****     {
 852              		.loc 1 430 8 view .LVU165
 853 003a 0028     		cmp	r0, #0
 854 003c 69D1     		bne	.L74
ARM GAS  C:\Users\84759\AppData\Local\Temp\cc7RoKct.s 			page 29


 437:User/Src/command.c ****     char* comma1 = strchr(p, ',');
 855              		.loc 1 437 5 is_stmt 1 view .LVU166
 437:User/Src/command.c ****     char* comma1 = strchr(p, ',');
 856              		.loc 1 437 11 is_stmt 0 view .LVU167
 857 003e 2544     		add	r5, r5, r4
 858              	.LVL66:
 438:User/Src/command.c ****     char* comma2 = strchr(comma1 + 1, ',');
 859              		.loc 1 438 5 is_stmt 1 view .LVU168
 438:User/Src/command.c ****     char* comma2 = strchr(comma1 + 1, ',');
 860              		.loc 1 438 20 is_stmt 0 view .LVU169
 861 0040 2C21     		movs	r1, #44
 862 0042 2846     		mov	r0, r5
 863 0044 FFF7FEFF 		bl	strchr
 864              	.LVL67:
 865 0048 0646     		mov	r6, r0
 866              	.LVL68:
 439:User/Src/command.c **** 
 867              		.loc 1 439 5 is_stmt 1 view .LVU170
 439:User/Src/command.c **** 
 868              		.loc 1 439 34 is_stmt 0 view .LVU171
 869 004a 00F10108 		add	r8, r0, #1
 439:User/Src/command.c **** 
 870              		.loc 1 439 20 view .LVU172
 871 004e 2C21     		movs	r1, #44
 872 0050 4046     		mov	r0, r8
 873              	.LVL69:
 439:User/Src/command.c **** 
 874              		.loc 1 439 20 view .LVU173
 875 0052 FFF7FEFF 		bl	strchr
 876              	.LVL70:
 877 0056 0446     		mov	r4, r0
 878              	.LVL71:
 441:User/Src/command.c ****     {
 879              		.loc 1 441 5 is_stmt 1 view .LVU174
 441:User/Src/command.c ****     {
 880              		.loc 1 441 8 is_stmt 0 view .LVU175
 881 0058 002E     		cmp	r6, #0
 882 005a 61D0     		beq	.L66
 441:User/Src/command.c ****     {
 883              		.loc 1 441 17 discriminator 1 view .LVU176
 884 005c 0028     		cmp	r0, #0
 885 005e 5FD0     		beq	.L66
 447:User/Src/command.c ****     strncpy(cluster_buf, p, comma1 - p);
 886              		.loc 1 447 5 is_stmt 1 view .LVU177
 447:User/Src/command.c ****     strncpy(cluster_buf, p, comma1 - p);
 887              		.loc 1 447 10 is_stmt 0 view .LVU178
 888 0060 0027     		movs	r7, #0
 889 0062 1F97     		str	r7, [sp, #124]
 890 0064 2097     		str	r7, [sp, #128]
 891 0066 2197     		str	r7, [sp, #132]
 892 0068 2297     		str	r7, [sp, #136]
 448:User/Src/command.c ****     DWORD cluster = atol(cluster_buf);
 893              		.loc 1 448 5 is_stmt 1 view .LVU179
 894 006a 721B     		subs	r2, r6, r5
 895 006c 2946     		mov	r1, r5
 896 006e 1FA8     		add	r0, sp, #124
 897              	.LVL72:
ARM GAS  C:\Users\84759\AppData\Local\Temp\cc7RoKct.s 			page 30


 448:User/Src/command.c ****     DWORD cluster = atol(cluster_buf);
 898              		.loc 1 448 5 is_stmt 0 view .LVU180
 899 0070 FFF7FEFF 		bl	strncpy
 900              	.LVL73:
 449:User/Src/command.c **** 
 901              		.loc 1 449 5 is_stmt 1 view .LVU181
 449:User/Src/command.c **** 
 902              		.loc 1 449 21 is_stmt 0 view .LVU182
 903 0074 1FA8     		add	r0, sp, #124
 904 0076 FFF7FEFF 		bl	atol
 905              	.LVL74:
 906 007a 0546     		mov	r5, r0
 907              	.LVL75:
 451:User/Src/command.c ****     strncpy(filename, comma1 + 1, comma2 - (comma1 + 1));
 908              		.loc 1 451 5 is_stmt 1 view .LVU183
 451:User/Src/command.c ****     strncpy(filename, comma1 + 1, comma2 - (comma1 + 1));
 909              		.loc 1 451 10 is_stmt 0 view .LVU184
 910 007c 0F97     		str	r7, [sp, #60]
 911 007e 3C22     		movs	r2, #60
 912 0080 3946     		mov	r1, r7
 913 0082 10A8     		add	r0, sp, #64
 914              	.LVL76:
 451:User/Src/command.c ****     strncpy(filename, comma1 + 1, comma2 - (comma1 + 1));
 915              		.loc 1 451 10 view .LVU185
 916 0084 FFF7FEFF 		bl	memset
 917              	.LVL77:
 452:User/Src/command.c **** 
 918              		.loc 1 452 5 is_stmt 1 view .LVU186
 919 0088 A4EB0802 		sub	r2, r4, r8
 920 008c 4146     		mov	r1, r8
 921 008e 0FA8     		add	r0, sp, #60
 922 0090 FFF7FEFF 		bl	strncpy
 923              	.LVL78:
 454:User/Src/command.c ****     uint16_t data_len = strlen(data);
 924              		.loc 1 454 5 view .LVU187
 454:User/Src/command.c ****     uint16_t data_len = strlen(data);
 925              		.loc 1 454 11 is_stmt 0 view .LVU188
 926 0094 0134     		adds	r4, r4, #1
 927              	.LVL79:
 455:User/Src/command.c **** 
 928              		.loc 1 455 5 is_stmt 1 view .LVU189
 455:User/Src/command.c **** 
 929              		.loc 1 455 25 is_stmt 0 view .LVU190
 930 0096 2046     		mov	r0, r4
 931 0098 FFF7FEFF 		bl	strlen
 932              	.LVL80:
 933 009c 0646     		mov	r6, r0
 934              	.LVL81:
 457:User/Src/command.c ****     FatFs_GetInfo(&fs_info);
 935              		.loc 1 457 5 is_stmt 1 view .LVU191
 458:User/Src/command.c **** 
 936              		.loc 1 458 5 view .LVU192
 937 009e 07A8     		add	r0, sp, #28
 938 00a0 FFF7FEFF 		bl	FatFs_GetInfo
 939              	.LVL82:
 460:User/Src/command.c ****     {
 940              		.loc 1 460 5 view .LVU193
ARM GAS  C:\Users\84759\AppData\Local\Temp\cc7RoKct.s 			page 31


 460:User/Src/command.c ****     {
 941              		.loc 1 460 8 is_stmt 0 view .LVU194
 942 00a4 012D     		cmp	r5, #1
 943 00a6 02D9     		bls	.L68
 460:User/Src/command.c ****     {
 944              		.loc 1 460 41 discriminator 1 view .LVU195
 945 00a8 0E9B     		ldr	r3, [sp, #56]
 460:User/Src/command.c ****     {
 946              		.loc 1 460 21 discriminator 1 view .LVU196
 947 00aa AB42     		cmp	r3, r5
 948 00ac 04D2     		bcs	.L69
 949              	.L68:
 462:User/Src/command.c ****         cluster = 2;
 950              		.loc 1 462 9 is_stmt 1 view .LVU197
 951 00ae 2946     		mov	r1, r5
 952 00b0 2348     		ldr	r0, .L76+4
 953 00b2 FFF7FEFF 		bl	UsbPrintf
 954              	.LVL83:
 463:User/Src/command.c ****     }
 955              		.loc 1 463 9 view .LVU198
 463:User/Src/command.c ****     }
 956              		.loc 1 463 17 is_stmt 0 view .LVU199
 957 00b6 0225     		movs	r5, #2
 958              	.LVL84:
 959              	.L69:
 466:User/Src/command.c ****     UsbPrintf("[command] ´ŘşĹŁş%lu\r\n", cluster);
 960              		.loc 1 466 5 is_stmt 1 view .LVU200
 961 00b8 2248     		ldr	r0, .L76+8
 962 00ba FFF7FEFF 		bl	UsbPrintf
 963              	.LVL85:
 467:User/Src/command.c ****     UsbPrintf("[command] ÎÄĽţĂűŁş%s\r\n", filename);
 964              		.loc 1 467 5 view .LVU201
 965 00be 2946     		mov	r1, r5
 966 00c0 2148     		ldr	r0, .L76+12
 967 00c2 FFF7FEFF 		bl	UsbPrintf
 968              	.LVL86:
 468:User/Src/command.c ****     UsbPrintf("[command] ĘýľÝŁş%s\r\n", data);
 969              		.loc 1 468 5 view .LVU202
 970 00c6 0FA9     		add	r1, sp, #60
 971 00c8 2048     		ldr	r0, .L76+16
 972 00ca FFF7FEFF 		bl	UsbPrintf
 973              	.LVL87:
 469:User/Src/command.c ****     UsbPrintf("[command] ł¤¶ČŁş%d\r\n", data_len);
 974              		.loc 1 469 5 view .LVU203
 975 00ce 2146     		mov	r1, r4
 976 00d0 1F48     		ldr	r0, .L76+20
 977 00d2 FFF7FEFF 		bl	UsbPrintf
 978              	.LVL88:
 470:User/Src/command.c **** 
 979              		.loc 1 470 5 view .LVU204
 980 00d6 B6B2     		uxth	r6, r6
 470:User/Src/command.c **** 
 981              		.loc 1 470 5 is_stmt 0 view .LVU205
 982 00d8 3146     		mov	r1, r6
 983 00da 1E48     		ldr	r0, .L76+24
 984 00dc FFF7FEFF 		bl	UsbPrintf
 985              	.LVL89:
ARM GAS  C:\Users\84759\AppData\Local\Temp\cc7RoKct.s 			page 32


 472:User/Src/command.c ****     FRESULT res = FatFs_FileWrite_Cluster(filename, cluster, data, data_len, &wr);
 986              		.loc 1 472 5 is_stmt 1 view .LVU206
 473:User/Src/command.c **** 
 987              		.loc 1 473 5 view .LVU207
 473:User/Src/command.c **** 
 988              		.loc 1 473 19 is_stmt 0 view .LVU208
 989 00e0 03AB     		add	r3, sp, #12
 990 00e2 0093     		str	r3, [sp]
 991 00e4 3346     		mov	r3, r6
 992 00e6 2246     		mov	r2, r4
 993 00e8 2946     		mov	r1, r5
 994 00ea 0FA8     		add	r0, sp, #60
 995 00ec FFF7FEFF 		bl	FatFs_FileWrite_Cluster
 996              	.LVL90:
 475:User/Src/command.c ****     {
 997              		.loc 1 475 5 is_stmt 1 view .LVU209
 475:User/Src/command.c ****     {
 998              		.loc 1 475 8 is_stmt 0 view .LVU210
 999 00f0 0146     		mov	r1, r0
 1000 00f2 08B9     		cbnz	r0, .L70
 475:User/Src/command.c ****     {
 1001              		.loc 1 475 27 discriminator 1 view .LVU211
 1002 00f4 049B     		ldr	r3, [sp, #16]
 475:User/Src/command.c ****     {
 1003              		.loc 1 475 22 discriminator 1 view .LVU212
 1004 00f6 BBB9     		cbnz	r3, .L75
 1005              	.L70:
 483:User/Src/command.c ****     }
 1006              		.loc 1 483 9 is_stmt 1 view .LVU213
 1007 00f8 1748     		ldr	r0, .L76+28
 1008              	.LVL91:
 483:User/Src/command.c ****     }
 1009              		.loc 1 483 9 is_stmt 0 view .LVU214
 1010 00fa FFF7FEFF 		bl	UsbPrintf
 1011              	.LVL92:
 1012              	.L71:
 486:User/Src/command.c **** }
 1013              		.loc 1 486 5 is_stmt 1 view .LVU215
 1014 00fe 1748     		ldr	r0, .L76+32
 1015 0100 FFF7FEFF 		bl	UsbPrintf
 1016              	.LVL93:
 1017 0104 02E0     		b	.L61
 1018              	.LVL94:
 1019              	.L62:
 423:User/Src/command.c ****         return;
 1020              		.loc 1 423 9 view .LVU216
 1021 0106 1648     		ldr	r0, .L76+36
 1022              	.LVL95:
 423:User/Src/command.c ****         return;
 1023              		.loc 1 423 9 is_stmt 0 view .LVU217
 1024 0108 FFF7FEFF 		bl	UsbPrintf
 1025              	.LVL96:
 424:User/Src/command.c ****     }
 1026              		.loc 1 424 9 is_stmt 1 view .LVU218
 1027              	.L61:
 487:User/Src/command.c **** 
 1028              		.loc 1 487 1 is_stmt 0 view .LVU219
ARM GAS  C:\Users\84759\AppData\Local\Temp\cc7RoKct.s 			page 33


 1029 010c 28B0     		add	sp, sp, #160
 1030              	.LCFI19:
 1031              		.cfi_remember_state
 1032              		.cfi_def_cfa_offset 24
 1033              		@ sp needed
 1034 010e BDE8F081 		pop	{r4, r5, r6, r7, r8, pc}
 1035              	.LVL97:
 1036              	.L74:
 1037              	.LCFI20:
 1038              		.cfi_restore_state
 432:User/Src/command.c ****         UsbPrintf("[command] ÓĂ·¨ŁşAT^FATFS_CluWrite=<´ŘşĹ>,<ÎÄĽţĂű>,<ĘýľÝ>\r\n");
 1039              		.loc 1 432 9 is_stmt 1 view .LVU220
 1040 0112 1448     		ldr	r0, .L76+40
 1041 0114 FFF7FEFF 		bl	UsbPrintf
 1042              	.LVL98:
 433:User/Src/command.c ****         return;
 1043              		.loc 1 433 9 view .LVU221
 1044 0118 1348     		ldr	r0, .L76+44
 1045 011a FFF7FEFF 		bl	UsbPrintf
 1046              	.LVL99:
 434:User/Src/command.c ****     }
 1047              		.loc 1 434 9 view .LVU222
 1048 011e F5E7     		b	.L61
 1049              	.LVL100:
 1050              	.L66:
 443:User/Src/command.c ****         return;
 1051              		.loc 1 443 9 view .LVU223
 1052 0120 1248     		ldr	r0, .L76+48
 1053              	.LVL101:
 443:User/Src/command.c ****         return;
 1054              		.loc 1 443 9 is_stmt 0 view .LVU224
 1055 0122 FFF7FEFF 		bl	UsbPrintf
 1056              	.LVL102:
 444:User/Src/command.c ****     }
 1057              		.loc 1 444 9 is_stmt 1 view .LVU225
 1058 0126 F1E7     		b	.L61
 1059              	.LVL103:
 1060              	.L75:
 477:User/Src/command.c ****         UsbPrintf("[command] ĆđĘĽ´ŘŁş%lu  µ±Ç°´ŘŁş%lu\r\n",
 1061              		.loc 1 477 9 view .LVU226
 1062 0128 1946     		mov	r1, r3
 1063 012a 1148     		ldr	r0, .L76+52
 1064              	.LVL104:
 477:User/Src/command.c ****         UsbPrintf("[command] ĆđĘĽ´ŘŁş%lu  µ±Ç°´ŘŁş%lu\r\n",
 1065              		.loc 1 477 9 is_stmt 0 view .LVU227
 1066 012c FFF7FEFF 		bl	UsbPrintf
 1067              	.LVL105:
 478:User/Src/command.c ****             wr.start_cluster, wr.curr_cluster);
 1068              		.loc 1 478 9 is_stmt 1 view .LVU228
 1069 0130 069A     		ldr	r2, [sp, #24]
 1070 0132 0599     		ldr	r1, [sp, #20]
 1071 0134 0F48     		ldr	r0, .L76+56
 1072 0136 FFF7FEFF 		bl	UsbPrintf
 1073              	.LVL106:
 1074 013a E0E7     		b	.L71
 1075              	.L77:
 1076              		.align	2
ARM GAS  C:\Users\84759\AppData\Local\Temp\cc7RoKct.s 			page 34


 1077              	.L76:
 1078 013c CC010000 		.word	.LC11
 1079 0140 94000000 		.word	.LC15
 1080 0144 BC000000 		.word	.LC16
 1081 0148 E0000000 		.word	.LC17
 1082 014c F8000000 		.word	.LC18
 1083 0150 10010000 		.word	.LC19
 1084 0154 28010000 		.word	.LC20
 1085 0158 88010000 		.word	.LC23
 1086 015c AC010000 		.word	.LC24
 1087 0160 00000000 		.word	.LC10
 1088 0164 1C000000 		.word	.LC12
 1089 0168 38000000 		.word	.LC13
 1090 016c 74000000 		.word	.LC14
 1091 0170 40010000 		.word	.LC21
 1092 0174 60010000 		.word	.LC22
 1093              		.cfi_endproc
 1094              	.LFE81:
 1096              		.section	.rodata.AT_FATFS_GetTime_Handle.str1.4,"aMS",%progbits,1
 1097              		.align	2
 1098              	.LC26:
 1099 0000 5B636F6D 		.ascii	"[command] \264\355\316\363\243\272\270\361\312\275\264"
 1099      6D616E64 
 1099      5D20B4ED 
 1099      CEF3A3BA 
 1099      B8F1CABD 
 1100 0015 EDCEF3A3 		.ascii	"\355\316\363\243\241\323\303\267\250\243\272\015\012"
 1100      A1D3C3B7 
 1100      A8A3BA0D 
 1100      0A
 1101 0022 00       		.ascii	"\000"
 1102 0023 00       		.align	2
 1103              	.LC27:
 1104 0024 2020CDEA 		.ascii	"  \315\352\325\373\270\361\312\275\243\272AT^FATFS_"
 1104      D5FBB8F1 
 1104      CABDA3BA 
 1104      41545E46 
 1104      41544653 
 1105 0039 47657454 		.ascii	"GetTime=\304\352,\324\302,\310\325,\312\261,\267\326"
 1105      696D653D 
 1105      C4EA2CD4 
 1105      C22CC8D5 
 1105      2CCAB12C 
 1106 004f 2CC3EB0D 		.ascii	",\303\353\015\012\000"
 1106      0A00
 1107 0055 000000   		.align	2
 1108              	.LC28:
 1109 0058 2020BCF2 		.ascii	"  \274\362\273\257\270\361\312\275\243\272AT^FATFS_"
 1109      BBAFB8F1 
 1109      CABDA3BA 
 1109      41545E46 
 1109      41544653 
 1110 006d 47657454 		.ascii	"GetTime=\304\352,\324\302,\310\325\243\250\312\261\267"
 1110      696D653D 
 1110      C4EA2CD4 
 1110      C22CC8D5 
 1110      A3A8CAB1 
ARM GAS  C:\Users\84759\AppData\Local\Temp\cc7RoKct.s 			page 35


 1111 0082 D6C3EBC4 		.ascii	"\326\303\353\304\254\310\3170\243\251\015\012\000"
 1111      ACC8CF30 
 1111      A3A90D0A 
 1111      00
 1112 008f 00       		.align	2
 1113              	.LC29:
 1114 0090 5B636F6D 		.ascii	"[command] \264\355\316\363\243\272\326\301\311\331\314"
 1114      6D616E64 
 1114      5D20B4ED 
 1114      CEF3A3BA 
 1114      D6C1C9D9 
 1115 00a5 EED0B4C4 		.ascii	"\356\320\264\304\352,\324\302,\310\325\243\241\015\012"
 1115      EA2CD4C2 
 1115      2CC8D5A3 
 1115      A10D0A
 1116 00b4 00       		.ascii	"\000"
 1117 00b5 000000   		.align	2
 1118              	.LC30:
 1119 00b8 5B636F6D 		.ascii	"[command] \264\355\316\363\243\272\262\316\312\375\270"
 1119      6D616E64 
 1119      5D20B4ED 
 1119      CEF3A3BA 
 1119      B2CECAFD 
 1120 00cd F6CAFDB4 		.ascii	"\366\312\375\264\355\316\363\243\241\015\012\000"
 1120      EDCEF3A3 
 1120      A10D0A00 
 1121 00d9 000000   		.align	2
 1122              	.LC31:
 1123 00dc 5B636F6D 		.ascii	"[command] \264\355\316\363\243\272\304\352\267\335\316"
 1123      6D616E64 
 1123      5D20B4ED 
 1123      CEF3A3BA 
 1123      C4EAB7DD 
 1124 00f1 DED0A7A3 		.ascii	"\336\320\247\243\241\267\266\316\2471980~2107\015\012"
 1124      A1B7B6CE 
 1124      A7313938 
 1124      307E3231 
 1124      30370D0A 
 1125 0105 00       		.ascii	"\000"
 1126 0106 0000     		.align	2
 1127              	.LC32:
 1128 0108 5B636F6D 		.ascii	"[command] \264\355\316\363\243\272\324\302\267\335\316"
 1128      6D616E64 
 1128      5D20B4ED 
 1128      CEF3A3BA 
 1128      D4C2B7DD 
 1129 011d DED0A7A3 		.ascii	"\336\320\247\243\241\267\266\316\2471~12\015\012\000"
 1129      A1B7B6CE 
 1129      A7317E31 
 1129      320D0A00 
 1130 012d 000000   		.align	2
 1131              	.LC33:
 1132 0130 5B636F6D 		.ascii	"[command] \264\355\316\363\243\272\310\325\306\332\316"
 1132      6D616E64 
 1132      5D20B4ED 
 1132      CEF3A3BA 
 1132      C8D5C6DA 
ARM GAS  C:\Users\84759\AppData\Local\Temp\cc7RoKct.s 			page 36


 1133 0145 DED0A7A3 		.ascii	"\336\320\247\243\241%d\304\352%d\324\302\327\356\264"
 1133      A12564C4 
 1133      EA2564D4 
 1133      C2D7EEB4 
 1134 0155 F3CCECCA 		.ascii	"\363\314\354\312\375\316\252%d\015\012\000"
 1134      FDCEAA25 
 1134      640D0A00 
 1135 0161 000000   		.align	2
 1136              	.LC34:
 1137 0164 5B636F6D 		.ascii	"[command] \264\355\316\363\243\272\312\261\274\344\263"
 1137      6D616E64 
 1137      5D20B4ED 
 1137      CEF3A3BA 
 1137      CAB1BCE4 
 1138 0179 ACB3F6B7 		.ascii	"\254\263\366\267\266\316\247\243\241\015\012\000"
 1138      B6CEA7A3 
 1138      A10D0A00 
 1139 0185 000000   		.align	2
 1140              	.LC35:
 1141 0188 5B636F6D 		.ascii	"[command] \312\261\274\344\311\350\326\303\263\311\271"
 1141      6D616E64 
 1141      5D20CAB1 
 1141      BCE4C9E8 
 1141      D6C3B3C9 
 1142 019d A6A3A10D 		.ascii	"\246\243\241\015\012\000"
 1142      0A00
 1143 01a3 00       		.align	2
 1144              	.LC36:
 1145 01a4 5B636F6D 		.ascii	"[command] \265\261\307\260\312\261\274\344\243\272%"
 1145      6D616E64 
 1145      5D20B5B1 
 1145      C7B0CAB1 
 1145      BCE4A3BA 
 1146 01b9 3034642D 		.ascii	"04d-%02d-%02d %02d:%02d:%02d\015\012\000"
 1146      25303264 
 1146      2D253032 
 1146      64202530 
 1146      32643A25 
 1147              		.align	2
 1148              	.LC25:
 1149 01d8 41545E46 		.ascii	"AT^FATFS_GetTime=\000"
 1149      41544653 
 1149      5F476574 
 1149      54696D65 
 1149      3D00
 1150              		.section	.text.AT_FATFS_GetTime_Handle,"ax",%progbits
 1151              		.align	1
 1152              		.global	AT_FATFS_GetTime_Handle
 1153              		.syntax unified
 1154              		.thumb
 1155              		.thumb_func
 1157              	AT_FATFS_GetTime_Handle:
 1158              	.LVL107:
 1159              	.LFB84:
 501:User/Src/command.c **** 
 502:User/Src/command.c **** void AT_FATFS_GetTime_Handle(char* command)
 503:User/Src/command.c **** {
ARM GAS  C:\Users\84759\AppData\Local\Temp\cc7RoKct.s 			page 37


 1160              		.loc 1 503 1 view -0
 1161              		.cfi_startproc
 1162              		@ args = 0, pretend = 0, frame = 56
 1163              		@ frame_needed = 0, uses_anonymous_args = 0
 1164              		.loc 1 503 1 is_stmt 0 view .LVU230
 1165 0000 2DE9F04F 		push	{r4, r5, r6, r7, r8, r9, r10, fp, lr}
 1166              	.LCFI21:
 1167              		.cfi_def_cfa_offset 36
 1168              		.cfi_offset 4, -36
 1169              		.cfi_offset 5, -32
 1170              		.cfi_offset 6, -28
 1171              		.cfi_offset 7, -24
 1172              		.cfi_offset 8, -20
 1173              		.cfi_offset 9, -16
 1174              		.cfi_offset 10, -12
 1175              		.cfi_offset 11, -8
 1176              		.cfi_offset 14, -4
 1177 0004 93B0     		sub	sp, sp, #76
 1178              	.LCFI22:
 1179              		.cfi_def_cfa_offset 112
 504:User/Src/command.c ****     if (command == NULL || strlen(command) == 0)
 1180              		.loc 1 504 5 is_stmt 1 view .LVU231
 1181              		.loc 1 504 8 is_stmt 0 view .LVU232
 1182 0006 E0B1     		cbz	r0, .L79
 1183 0008 0646     		mov	r6, r0
 1184              		.loc 1 504 44 discriminator 1 view .LVU233
 1185 000a 0378     		ldrb	r3, [r0]	@ zero_extendqisi2
 1186              		.loc 1 504 25 discriminator 1 view .LVU234
 1187 000c CBB1     		cbz	r3, .L79
 505:User/Src/command.c ****     {
 506:User/Src/command.c ****         UsbPrintf("[command] ´íÎóŁşÖ¸ÁîÎŞżŐŁˇ\r\n");
 507:User/Src/command.c ****         return;
 508:User/Src/command.c ****     }
 509:User/Src/command.c **** 
 510:User/Src/command.c ****     const char cmd_header[] = "AT^FATFS_GetTime=";
 1188              		.loc 1 510 5 is_stmt 1 view .LVU235
 1189              		.loc 1 510 16 is_stmt 0 view .LVU236
 1190 000e 0DAC     		add	r4, sp, #52
 1191 0010 814D     		ldr	r5, .L107
 1192 0012 0FCD     		ldmia	r5!, {r0, r1, r2, r3}
 1193              	.LVL108:
 1194              		.loc 1 510 16 view .LVU237
 1195 0014 0FC4     		stmia	r4!, {r0, r1, r2, r3}
 1196 0016 2B68     		ldr	r3, [r5]
 1197 0018 2380     		strh	r3, [r4]	@ movhi
 511:User/Src/command.c ****     const uint16_t header_len = strlen(cmd_header);
 1198              		.loc 1 511 5 is_stmt 1 view .LVU238
 1199              		.loc 1 511 33 is_stmt 0 view .LVU239
 1200 001a 0DA8     		add	r0, sp, #52
 1201 001c FFF7FEFF 		bl	strlen
 1202              	.LVL109:
 1203 0020 0446     		mov	r4, r0
 1204              	.LVL110:
 512:User/Src/command.c **** 
 513:User/Src/command.c ****     if (strSearch(command, cmd_header) != 0)
 1205              		.loc 1 513 5 is_stmt 1 view .LVU240
 1206              		.loc 1 513 9 is_stmt 0 view .LVU241
ARM GAS  C:\Users\84759\AppData\Local\Temp\cc7RoKct.s 			page 38


 1207 0022 0DA9     		add	r1, sp, #52
 1208 0024 3046     		mov	r0, r6
 1209 0026 FFF7FEFF 		bl	strSearch
 1210              	.LVL111:
 1211              		.loc 1 513 8 view .LVU242
 1212 002a 80B9     		cbnz	r0, .L102
 514:User/Src/command.c ****     {
 515:User/Src/command.c ****         UsbPrintf("[command] ´íÎóŁş¸ńĘ˝´íÎóŁˇÓĂ·¨Łş\r\n");
 516:User/Src/command.c ****         UsbPrintf("  ÍęŐű¸ńĘ˝ŁşAT^FATFS_GetTime=Äę,ÔÂ,ČŐ,Ę±,·Ö,Ăë\r\n");
 517:User/Src/command.c ****         UsbPrintf("  Ľň»Ż¸ńĘ˝ŁşAT^FATFS_GetTime=Äę,ÔÂ,ČŐŁ¨Ę±·ÖĂëÄ¬ČĎ0Ł©\r\n");
 518:User/Src/command.c ****         return;
 519:User/Src/command.c ****     }
 520:User/Src/command.c **** 
 521:User/Src/command.c ****     char* param_start = command + header_len;
 1213              		.loc 1 521 5 is_stmt 1 view .LVU243
 1214              		.loc 1 521 11 is_stmt 0 view .LVU244
 1215 002c 3519     		adds	r5, r6, r4
 1216              	.LVL112:
 522:User/Src/command.c ****     if (strlen(param_start) == 0)
 1217              		.loc 1 522 5 is_stmt 1 view .LVU245
 1218              		.loc 1 522 29 is_stmt 0 view .LVU246
 1219 002e 335D     		ldrb	r3, [r6, r4]	@ zero_extendqisi2
 1220              		.loc 1 522 8 view .LVU247
 1221 0030 BBB1     		cbz	r3, .L103
 523:User/Src/command.c ****     {
 524:User/Src/command.c ****         UsbPrintf("[command] ´íÎóŁşÖÁÉŮĚîĐ´Äę,ÔÂ,ČŐŁˇ\r\n");
 525:User/Src/command.c ****         return;
 526:User/Src/command.c ****     }
 527:User/Src/command.c **** 
 528:User/Src/command.c ****     char* p = param_start;
 1222              		.loc 1 528 5 is_stmt 1 view .LVU248
 1223              	.LVL113:
 529:User/Src/command.c ****     char* comma[5] = {NULL};
 1224              		.loc 1 529 5 view .LVU249
 1225              		.loc 1 529 11 is_stmt 0 view .LVU250
 1226 0032 0024     		movs	r4, #0
 1227              	.LVL114:
 1228              		.loc 1 529 11 view .LVU251
 1229 0034 0894     		str	r4, [sp, #32]
 1230 0036 0994     		str	r4, [sp, #36]
 1231 0038 0A94     		str	r4, [sp, #40]
 1232 003a 0B94     		str	r4, [sp, #44]
 1233 003c 0C94     		str	r4, [sp, #48]
 530:User/Src/command.c ****     uint8_t comma_cnt = 0;
 1234              		.loc 1 530 5 is_stmt 1 view .LVU252
 1235              	.LVL115:
 531:User/Src/command.c **** 
 532:User/Src/command.c ****     while ((p = strchr(p, ',')) != NULL && comma_cnt < 5)
 1236              		.loc 1 532 5 view .LVU253
 528:User/Src/command.c ****     char* comma[5] = {NULL};
 1237              		.loc 1 528 11 is_stmt 0 view .LVU254
 1238 003e 2846     		mov	r0, r5
 1239              		.loc 1 532 11 view .LVU255
 1240 0040 1BE0     		b	.L84
 1241              	.LVL116:
 1242              	.L79:
 506:User/Src/command.c ****         return;
ARM GAS  C:\Users\84759\AppData\Local\Temp\cc7RoKct.s 			page 39


 1243              		.loc 1 506 9 is_stmt 1 view .LVU256
 1244 0042 7648     		ldr	r0, .L107+4
 1245              	.LVL117:
 506:User/Src/command.c ****         return;
 1246              		.loc 1 506 9 is_stmt 0 view .LVU257
 1247 0044 FFF7FEFF 		bl	UsbPrintf
 1248              	.LVL118:
 507:User/Src/command.c ****     }
 1249              		.loc 1 507 9 is_stmt 1 view .LVU258
 1250              	.L78:
 533:User/Src/command.c ****     {
 534:User/Src/command.c ****         comma[comma_cnt++] = p;
 535:User/Src/command.c ****         p++;
 536:User/Src/command.c ****     }
 537:User/Src/command.c **** 
 538:User/Src/command.c ****     FatFs_Time_t temp_time;
 539:User/Src/command.c ****     temp_time.hour = 0;
 540:User/Src/command.c ****     temp_time.minute = 0;
 541:User/Src/command.c ****     temp_time.second = 0;
 542:User/Src/command.c **** 
 543:User/Src/command.c ****     if (comma_cnt == 2)
 544:User/Src/command.c ****     {
 545:User/Src/command.c ****         char* comma1 = comma[0];
 546:User/Src/command.c ****         char* comma2 = comma[1];
 547:User/Src/command.c ****         char bak1 = *comma1;
 548:User/Src/command.c ****         char bak2 = *comma2;
 549:User/Src/command.c **** 
 550:User/Src/command.c ****         *comma1 = '\0';
 551:User/Src/command.c ****         *comma2 = '\0';
 552:User/Src/command.c **** 
 553:User/Src/command.c ****         temp_time.year = atoi(param_start);
 554:User/Src/command.c ****         temp_time.month = atoi(comma1 + 1);
 555:User/Src/command.c ****         temp_time.day = atoi(comma2 + 1);
 556:User/Src/command.c **** 
 557:User/Src/command.c ****         *comma1 = bak1;
 558:User/Src/command.c ****         *comma2 = bak2;
 559:User/Src/command.c ****     }
 560:User/Src/command.c ****     else if (comma_cnt == 5)
 561:User/Src/command.c ****     {
 562:User/Src/command.c ****         char bak[5] = {0};
 563:User/Src/command.c ****         for (uint8_t i=0; i<5; i++)
 564:User/Src/command.c ****         {
 565:User/Src/command.c ****             bak[i] = *comma[i];
 566:User/Src/command.c ****             *comma[i] = '\0';
 567:User/Src/command.c ****         }
 568:User/Src/command.c **** 
 569:User/Src/command.c ****         temp_time.year = atoi(param_start);
 570:User/Src/command.c ****         temp_time.month = atoi(comma[0] + 1);
 571:User/Src/command.c ****         temp_time.day = atoi(comma[1] + 1);
 572:User/Src/command.c ****         temp_time.hour = atoi(comma[2] + 1);
 573:User/Src/command.c ****         temp_time.minute = atoi(comma[3] + 1);
 574:User/Src/command.c ****         temp_time.second = atoi(comma[4] + 1);
 575:User/Src/command.c **** 
 576:User/Src/command.c ****         for (uint8_t i=0; i<5; i++)
 577:User/Src/command.c ****         {
 578:User/Src/command.c ****             *comma[i] = bak[i];
 579:User/Src/command.c ****         }
ARM GAS  C:\Users\84759\AppData\Local\Temp\cc7RoKct.s 			page 40


 580:User/Src/command.c ****     }
 581:User/Src/command.c ****     else
 582:User/Src/command.c ****     {
 583:User/Src/command.c ****         UsbPrintf("[command] ´íÎóŁş˛ÎĘý¸öĘý´íÎóŁˇ\r\n");
 584:User/Src/command.c ****         return;
 585:User/Src/command.c ****     }
 586:User/Src/command.c **** 
 587:User/Src/command.c ****     if (temp_time.year < 1980 || temp_time.year > 2107)
 588:User/Src/command.c ****     {
 589:User/Src/command.c ****         UsbPrintf("[command] ´íÎóŁşÄę·ÝÎŢĐ§Łˇ·¶Î§1980~2107\r\n");
 590:User/Src/command.c ****         return;
 591:User/Src/command.c ****     }
 592:User/Src/command.c **** 
 593:User/Src/command.c ****     if (temp_time.month < 1 || temp_time.month > 12)
 594:User/Src/command.c ****     {
 595:User/Src/command.c ****         UsbPrintf("[command] ´íÎóŁşÔÂ·ÝÎŢĐ§Łˇ·¶Î§1~12\r\n");
 596:User/Src/command.c ****         return;
 597:User/Src/command.c ****     }
 598:User/Src/command.c **** 
 599:User/Src/command.c ****     uint8_t max_day = get_month_max_day(temp_time.year, temp_time.month);
 600:User/Src/command.c ****     if (temp_time.day < 1 || temp_time.day > max_day)
 601:User/Src/command.c ****     {
 602:User/Src/command.c ****         UsbPrintf("[command] ´íÎóŁşČŐĆÚÎŢĐ§Łˇ%dÄę%dÔÂ×î´óĚěĘýÎŞ%d\r\n",
 603:User/Src/command.c ****                   temp_time.year, temp_time.month, max_day);
 604:User/Src/command.c ****         return;
 605:User/Src/command.c ****     }
 606:User/Src/command.c **** 
 607:User/Src/command.c ****     if (comma_cnt == 5)
 608:User/Src/command.c ****     {
 609:User/Src/command.c ****         if (temp_time.hour > 23 || temp_time.minute > 59 || temp_time.second > 59)
 610:User/Src/command.c ****         {
 611:User/Src/command.c ****             UsbPrintf("[command] ´íÎóŁşĘ±Ľäł¬łö·¶Î§Łˇ\r\n");
 612:User/Src/command.c ****             return;
 613:User/Src/command.c ****         }
 614:User/Src/command.c ****     }
 615:User/Src/command.c **** 
 616:User/Src/command.c ****     g_fatfs_time = temp_time;
 617:User/Src/command.c ****     UsbPrintf("[command] Ę±ĽäÉčÖĂłÉą¦Łˇ\r\n");
 618:User/Src/command.c ****     UsbPrintf("[command] µ±Ç°Ę±ĽäŁş%04d-%02d-%02d %02d:%02d:%02d\r\n",
 619:User/Src/command.c ****               g_fatfs_time.year, g_fatfs_time.month, g_fatfs_time.day,
 620:User/Src/command.c ****               g_fatfs_time.hour, g_fatfs_time.minute, g_fatfs_time.second);
 621:User/Src/command.c **** }
 1251              		.loc 1 621 1 is_stmt 0 view .LVU259
 1252 0048 13B0     		add	sp, sp, #76
 1253              	.LCFI23:
 1254              		.cfi_remember_state
 1255              		.cfi_def_cfa_offset 36
 1256              		@ sp needed
 1257 004a BDE8F08F 		pop	{r4, r5, r6, r7, r8, r9, r10, fp, pc}
 1258              	.LVL119:
 1259              	.L102:
 1260              	.LCFI24:
 1261              		.cfi_restore_state
 515:User/Src/command.c ****         UsbPrintf("  ÍęŐű¸ńĘ˝ŁşAT^FATFS_GetTime=Äę,ÔÂ,ČŐ,Ę±,·Ö,Ăë\r\n");
 1262              		.loc 1 515 9 is_stmt 1 view .LVU260
 1263 004e 7448     		ldr	r0, .L107+8
 1264 0050 FFF7FEFF 		bl	UsbPrintf
ARM GAS  C:\Users\84759\AppData\Local\Temp\cc7RoKct.s 			page 41


 1265              	.LVL120:
 516:User/Src/command.c ****         UsbPrintf("  Ľň»Ż¸ńĘ˝ŁşAT^FATFS_GetTime=Äę,ÔÂ,ČŐŁ¨Ę±·ÖĂëÄ¬ČĎ0Ł©\r\n");
 1266              		.loc 1 516 9 view .LVU261
 1267 0054 7348     		ldr	r0, .L107+12
 1268 0056 FFF7FEFF 		bl	UsbPrintf
 1269              	.LVL121:
 517:User/Src/command.c ****         return;
 1270              		.loc 1 517 9 view .LVU262
 1271 005a 7348     		ldr	r0, .L107+16
 1272 005c FFF7FEFF 		bl	UsbPrintf
 1273              	.LVL122:
 518:User/Src/command.c ****     }
 1274              		.loc 1 518 9 view .LVU263
 1275 0060 F2E7     		b	.L78
 1276              	.LVL123:
 1277              	.L103:
 524:User/Src/command.c ****         return;
 1278              		.loc 1 524 9 view .LVU264
 1279 0062 7248     		ldr	r0, .L107+20
 1280 0064 FFF7FEFF 		bl	UsbPrintf
 1281              	.LVL124:
 525:User/Src/command.c ****     }
 1282              		.loc 1 525 9 view .LVU265
 1283 0068 EEE7     		b	.L78
 1284              	.LVL125:
 1285              	.L86:
 534:User/Src/command.c ****         p++;
 1286              		.loc 1 534 9 view .LVU266
 534:User/Src/command.c ****         p++;
 1287              		.loc 1 534 24 is_stmt 0 view .LVU267
 1288 006a 621C     		adds	r2, r4, #1
 1289              	.LVL126:
 534:User/Src/command.c ****         p++;
 1290              		.loc 1 534 28 view .LVU268
 1291 006c 12A9     		add	r1, sp, #72
 1292 006e 01EB8404 		add	r4, r1, r4, lsl #2
 1293 0072 44F8283C 		str	r3, [r4, #-40]
 535:User/Src/command.c ****     }
 1294              		.loc 1 535 9 is_stmt 1 view .LVU269
 535:User/Src/command.c ****     }
 1295              		.loc 1 535 10 is_stmt 0 view .LVU270
 1296 0076 581C     		adds	r0, r3, #1
 1297              	.LVL127:
 534:User/Src/command.c ****         p++;
 1298              		.loc 1 534 24 view .LVU271
 1299 0078 D4B2     		uxtb	r4, r2
 1300              	.LVL128:
 1301              	.L84:
 532:User/Src/command.c ****     {
 1302              		.loc 1 532 11 is_stmt 1 view .LVU272
 532:User/Src/command.c ****     {
 1303              		.loc 1 532 17 is_stmt 0 view .LVU273
 1304 007a 2C21     		movs	r1, #44
 1305 007c FFF7FEFF 		bl	strchr
 1306              	.LVL129:
 532:User/Src/command.c ****     {
 1307              		.loc 1 532 11 view .LVU274
ARM GAS  C:\Users\84759\AppData\Local\Temp\cc7RoKct.s 			page 42


 1308 0080 0346     		mov	r3, r0
 1309 0082 08B1     		cbz	r0, .L85
 532:User/Src/command.c ****     {
 1310              		.loc 1 532 41 discriminator 1 view .LVU275
 1311 0084 042C     		cmp	r4, #4
 1312 0086 F0D9     		bls	.L86
 1313              	.L85:
 538:User/Src/command.c ****     temp_time.hour = 0;
 1314              		.loc 1 538 5 is_stmt 1 view .LVU276
 539:User/Src/command.c ****     temp_time.minute = 0;
 1315              		.loc 1 539 5 view .LVU277
 539:User/Src/command.c ****     temp_time.minute = 0;
 1316              		.loc 1 539 20 is_stmt 0 view .LVU278
 1317 0088 0023     		movs	r3, #0
 1318 008a 8DF81C30 		strb	r3, [sp, #28]
 540:User/Src/command.c ****     temp_time.second = 0;
 1319              		.loc 1 540 5 is_stmt 1 view .LVU279
 540:User/Src/command.c ****     temp_time.second = 0;
 1320              		.loc 1 540 22 is_stmt 0 view .LVU280
 1321 008e 8DF81D30 		strb	r3, [sp, #29]
 541:User/Src/command.c **** 
 1322              		.loc 1 541 5 is_stmt 1 view .LVU281
 541:User/Src/command.c **** 
 1323              		.loc 1 541 22 is_stmt 0 view .LVU282
 1324 0092 8DF81E30 		strb	r3, [sp, #30]
 543:User/Src/command.c ****     {
 1325              		.loc 1 543 5 is_stmt 1 view .LVU283
 543:User/Src/command.c ****     {
 1326              		.loc 1 543 8 is_stmt 0 view .LVU284
 1327 0096 022C     		cmp	r4, #2
 1328 0098 07D0     		beq	.L104
 560:User/Src/command.c ****     {
 1329              		.loc 1 560 10 is_stmt 1 view .LVU285
 560:User/Src/command.c ****     {
 1330              		.loc 1 560 13 is_stmt 0 view .LVU286
 1331 009a 052C     		cmp	r4, #5
 1332 009c 40F0A480 		bne	.L89
 1333              	.LBB2:
 562:User/Src/command.c ****         for (uint8_t i=0; i<5; i++)
 1334              		.loc 1 562 9 is_stmt 1 view .LVU287
 562:User/Src/command.c ****         for (uint8_t i=0; i<5; i++)
 1335              		.loc 1 562 14 is_stmt 0 view .LVU288
 1336 00a0 0023     		movs	r3, #0
 1337 00a2 0493     		str	r3, [sp, #16]
 1338 00a4 8DF81430 		strb	r3, [sp, #20]
 563:User/Src/command.c ****         {
 1339              		.loc 1 563 9 is_stmt 1 view .LVU289
 1340              	.LBB3:
 563:User/Src/command.c ****         {
 1341              		.loc 1 563 14 view .LVU290
 1342              	.LVL130:
 563:User/Src/command.c ****         {
 1343              		.loc 1 563 9 is_stmt 0 view .LVU291
 1344 00a8 2EE0     		b	.L90
 1345              	.LVL131:
 1346              	.L104:
 563:User/Src/command.c ****         {
ARM GAS  C:\Users\84759\AppData\Local\Temp\cc7RoKct.s 			page 43


 1347              		.loc 1 563 9 view .LVU292
 1348              	.LBE3:
 1349              	.LBE2:
 1350              	.LBB6:
 545:User/Src/command.c ****         char* comma2 = comma[1];
 1351              		.loc 1 545 9 is_stmt 1 view .LVU293
 545:User/Src/command.c ****         char* comma2 = comma[1];
 1352              		.loc 1 545 15 is_stmt 0 view .LVU294
 1353 00aa 089F     		ldr	r7, [sp, #32]
 1354              	.LVL132:
 546:User/Src/command.c ****         char bak1 = *comma1;
 1355              		.loc 1 546 9 is_stmt 1 view .LVU295
 546:User/Src/command.c ****         char bak1 = *comma1;
 1356              		.loc 1 546 15 is_stmt 0 view .LVU296
 1357 00ac 099E     		ldr	r6, [sp, #36]
 1358              	.LVL133:
 547:User/Src/command.c ****         char bak2 = *comma2;
 1359              		.loc 1 547 9 is_stmt 1 view .LVU297
 547:User/Src/command.c ****         char bak2 = *comma2;
 1360              		.loc 1 547 14 is_stmt 0 view .LVU298
 1361 00ae 97F800B0 		ldrb	fp, [r7]	@ zero_extendqisi2
 1362              	.LVL134:
 548:User/Src/command.c **** 
 1363              		.loc 1 548 9 is_stmt 1 view .LVU299
 548:User/Src/command.c **** 
 1364              		.loc 1 548 14 is_stmt 0 view .LVU300
 1365 00b2 96F800A0 		ldrb	r10, [r6]	@ zero_extendqisi2
 1366              	.LVL135:
 550:User/Src/command.c ****         *comma2 = '\0';
 1367              		.loc 1 550 9 is_stmt 1 view .LVU301
 550:User/Src/command.c ****         *comma2 = '\0';
 1368              		.loc 1 550 17 is_stmt 0 view .LVU302
 1369 00b6 B946     		mov	r9, r7
 1370 00b8 09F8013B 		strb	r3, [r9], #1
 551:User/Src/command.c **** 
 1371              		.loc 1 551 9 is_stmt 1 view .LVU303
 551:User/Src/command.c **** 
 1372              		.loc 1 551 17 is_stmt 0 view .LVU304
 1373 00bc B046     		mov	r8, r6
 1374 00be 08F8013B 		strb	r3, [r8], #1
 553:User/Src/command.c ****         temp_time.month = atoi(comma1 + 1);
 1375              		.loc 1 553 9 is_stmt 1 view .LVU305
 553:User/Src/command.c ****         temp_time.month = atoi(comma1 + 1);
 1376              		.loc 1 553 26 is_stmt 0 view .LVU306
 1377 00c2 2846     		mov	r0, r5
 1378              	.LVL136:
 553:User/Src/command.c ****         temp_time.month = atoi(comma1 + 1);
 1379              		.loc 1 553 26 view .LVU307
 1380 00c4 FFF7FEFF 		bl	atoi
 1381              	.LVL137:
 553:User/Src/command.c ****         temp_time.month = atoi(comma1 + 1);
 1382              		.loc 1 553 24 view .LVU308
 1383 00c8 ADF81800 		strh	r0, [sp, #24]	@ movhi
 554:User/Src/command.c ****         temp_time.day = atoi(comma2 + 1);
 1384              		.loc 1 554 9 is_stmt 1 view .LVU309
 554:User/Src/command.c ****         temp_time.day = atoi(comma2 + 1);
 1385              		.loc 1 554 27 is_stmt 0 view .LVU310
ARM GAS  C:\Users\84759\AppData\Local\Temp\cc7RoKct.s 			page 44


 1386 00cc 4846     		mov	r0, r9
 1387 00ce FFF7FEFF 		bl	atoi
 1388              	.LVL138:
 554:User/Src/command.c ****         temp_time.day = atoi(comma2 + 1);
 1389              		.loc 1 554 25 view .LVU311
 1390 00d2 8DF81A00 		strb	r0, [sp, #26]
 555:User/Src/command.c **** 
 1391              		.loc 1 555 9 is_stmt 1 view .LVU312
 555:User/Src/command.c **** 
 1392              		.loc 1 555 25 is_stmt 0 view .LVU313
 1393 00d6 4046     		mov	r0, r8
 1394 00d8 FFF7FEFF 		bl	atoi
 1395              	.LVL139:
 555:User/Src/command.c **** 
 1396              		.loc 1 555 23 view .LVU314
 1397 00dc 8DF81B00 		strb	r0, [sp, #27]
 557:User/Src/command.c ****         *comma2 = bak2;
 1398              		.loc 1 557 9 is_stmt 1 view .LVU315
 557:User/Src/command.c ****         *comma2 = bak2;
 1399              		.loc 1 557 17 is_stmt 0 view .LVU316
 1400 00e0 87F800B0 		strb	fp, [r7]
 558:User/Src/command.c ****     }
 1401              		.loc 1 558 9 is_stmt 1 view .LVU317
 558:User/Src/command.c ****     }
 1402              		.loc 1 558 17 is_stmt 0 view .LVU318
 1403 00e4 86F800A0 		strb	r10, [r6]
 1404              	.LBE6:
 1405 00e8 44E0     		b	.L88
 1406              	.LVL140:
 1407              	.L91:
 1408              	.LBB7:
 1409              	.LBB4:
 565:User/Src/command.c ****             *comma[i] = '\0';
 1410              		.loc 1 565 13 is_stmt 1 discriminator 3 view .LVU319
 565:User/Src/command.c ****             *comma[i] = '\0';
 1411              		.loc 1 565 28 is_stmt 0 discriminator 3 view .LVU320
 1412 00ea 12AA     		add	r2, sp, #72
 1413 00ec 02EB8302 		add	r2, r2, r3, lsl #2
 1414 00f0 52F8282C 		ldr	r2, [r2, #-40]
 565:User/Src/command.c ****             *comma[i] = '\0';
 1415              		.loc 1 565 22 discriminator 3 view .LVU321
 1416 00f4 1078     		ldrb	r0, [r2]	@ zero_extendqisi2
 565:User/Src/command.c ****             *comma[i] = '\0';
 1417              		.loc 1 565 20 discriminator 3 view .LVU322
 1418 00f6 03F14801 		add	r1, r3, #72
 1419 00fa 6944     		add	r1, sp, r1
 1420 00fc 01F8380C 		strb	r0, [r1, #-56]
 566:User/Src/command.c ****         }
 1421              		.loc 1 566 13 is_stmt 1 discriminator 3 view .LVU323
 566:User/Src/command.c ****         }
 1422              		.loc 1 566 23 is_stmt 0 discriminator 3 view .LVU324
 1423 0100 0021     		movs	r1, #0
 1424 0102 1170     		strb	r1, [r2]
 563:User/Src/command.c ****         {
 1425              		.loc 1 563 32 is_stmt 1 discriminator 3 view .LVU325
 563:User/Src/command.c ****         {
 1426              		.loc 1 563 33 is_stmt 0 discriminator 3 view .LVU326
ARM GAS  C:\Users\84759\AppData\Local\Temp\cc7RoKct.s 			page 45


 1427 0104 0133     		adds	r3, r3, #1
 1428              	.LVL141:
 563:User/Src/command.c ****         {
 1429              		.loc 1 563 33 discriminator 3 view .LVU327
 1430 0106 DBB2     		uxtb	r3, r3
 1431              	.LVL142:
 1432              	.L90:
 563:User/Src/command.c ****         {
 1433              		.loc 1 563 27 is_stmt 1 discriminator 1 view .LVU328
 563:User/Src/command.c ****         {
 1434              		.loc 1 563 9 is_stmt 0 discriminator 1 view .LVU329
 1435 0108 042B     		cmp	r3, #4
 1436 010a EED9     		bls	.L91
 1437              	.LBE4:
 569:User/Src/command.c ****         temp_time.month = atoi(comma[0] + 1);
 1438              		.loc 1 569 9 is_stmt 1 view .LVU330
 569:User/Src/command.c ****         temp_time.month = atoi(comma[0] + 1);
 1439              		.loc 1 569 26 is_stmt 0 view .LVU331
 1440 010c 2846     		mov	r0, r5
 1441 010e FFF7FEFF 		bl	atoi
 1442              	.LVL143:
 569:User/Src/command.c ****         temp_time.month = atoi(comma[0] + 1);
 1443              		.loc 1 569 24 view .LVU332
 1444 0112 ADF81800 		strh	r0, [sp, #24]	@ movhi
 570:User/Src/command.c ****         temp_time.day = atoi(comma[1] + 1);
 1445              		.loc 1 570 9 is_stmt 1 view .LVU333
 570:User/Src/command.c ****         temp_time.day = atoi(comma[1] + 1);
 1446              		.loc 1 570 27 is_stmt 0 view .LVU334
 1447 0116 0898     		ldr	r0, [sp, #32]
 1448 0118 0130     		adds	r0, r0, #1
 1449 011a FFF7FEFF 		bl	atoi
 1450              	.LVL144:
 570:User/Src/command.c ****         temp_time.day = atoi(comma[1] + 1);
 1451              		.loc 1 570 25 view .LVU335
 1452 011e 8DF81A00 		strb	r0, [sp, #26]
 571:User/Src/command.c ****         temp_time.hour = atoi(comma[2] + 1);
 1453              		.loc 1 571 9 is_stmt 1 view .LVU336
 571:User/Src/command.c ****         temp_time.hour = atoi(comma[2] + 1);
 1454              		.loc 1 571 25 is_stmt 0 view .LVU337
 1455 0122 0998     		ldr	r0, [sp, #36]
 1456 0124 0130     		adds	r0, r0, #1
 1457 0126 FFF7FEFF 		bl	atoi
 1458              	.LVL145:
 571:User/Src/command.c ****         temp_time.hour = atoi(comma[2] + 1);
 1459              		.loc 1 571 23 view .LVU338
 1460 012a 8DF81B00 		strb	r0, [sp, #27]
 572:User/Src/command.c ****         temp_time.minute = atoi(comma[3] + 1);
 1461              		.loc 1 572 9 is_stmt 1 view .LVU339
 572:User/Src/command.c ****         temp_time.minute = atoi(comma[3] + 1);
 1462              		.loc 1 572 26 is_stmt 0 view .LVU340
 1463 012e 0A98     		ldr	r0, [sp, #40]
 1464 0130 0130     		adds	r0, r0, #1
 1465 0132 FFF7FEFF 		bl	atoi
 1466              	.LVL146:
 572:User/Src/command.c ****         temp_time.minute = atoi(comma[3] + 1);
 1467              		.loc 1 572 24 view .LVU341
 1468 0136 8DF81C00 		strb	r0, [sp, #28]
ARM GAS  C:\Users\84759\AppData\Local\Temp\cc7RoKct.s 			page 46


 573:User/Src/command.c ****         temp_time.second = atoi(comma[4] + 1);
 1469              		.loc 1 573 9 is_stmt 1 view .LVU342
 573:User/Src/command.c ****         temp_time.second = atoi(comma[4] + 1);
 1470              		.loc 1 573 28 is_stmt 0 view .LVU343
 1471 013a 0B98     		ldr	r0, [sp, #44]
 1472 013c 0130     		adds	r0, r0, #1
 1473 013e FFF7FEFF 		bl	atoi
 1474              	.LVL147:
 573:User/Src/command.c ****         temp_time.second = atoi(comma[4] + 1);
 1475              		.loc 1 573 26 view .LVU344
 1476 0142 8DF81D00 		strb	r0, [sp, #29]
 574:User/Src/command.c **** 
 1477              		.loc 1 574 9 is_stmt 1 view .LVU345
 574:User/Src/command.c **** 
 1478              		.loc 1 574 28 is_stmt 0 view .LVU346
 1479 0146 0C98     		ldr	r0, [sp, #48]
 1480 0148 0130     		adds	r0, r0, #1
 1481 014a FFF7FEFF 		bl	atoi
 1482              	.LVL148:
 574:User/Src/command.c **** 
 1483              		.loc 1 574 26 view .LVU347
 1484 014e 8DF81E00 		strb	r0, [sp, #30]
 576:User/Src/command.c ****         {
 1485              		.loc 1 576 9 is_stmt 1 view .LVU348
 1486              	.LBB5:
 576:User/Src/command.c ****         {
 1487              		.loc 1 576 14 view .LVU349
 1488              	.LVL149:
 576:User/Src/command.c ****         {
 1489              		.loc 1 576 22 is_stmt 0 view .LVU350
 1490 0152 0023     		movs	r3, #0
 576:User/Src/command.c ****         {
 1491              		.loc 1 576 9 view .LVU351
 1492 0154 0CE0     		b	.L92
 1493              	.LVL150:
 1494              	.L93:
 578:User/Src/command.c ****         }
 1495              		.loc 1 578 13 is_stmt 1 discriminator 3 view .LVU352
 578:User/Src/command.c ****         }
 1496              		.loc 1 578 19 is_stmt 0 discriminator 3 view .LVU353
 1497 0156 12AA     		add	r2, sp, #72
 1498 0158 02EB8302 		add	r2, r2, r3, lsl #2
 1499 015c 52F8282C 		ldr	r2, [r2, #-40]
 578:User/Src/command.c ****         }
 1500              		.loc 1 578 28 discriminator 3 view .LVU354
 1501 0160 03F14801 		add	r1, r3, #72
 1502 0164 6944     		add	r1, sp, r1
 1503 0166 11F8381C 		ldrb	r1, [r1, #-56]	@ zero_extendqisi2
 578:User/Src/command.c ****         }
 1504              		.loc 1 578 23 discriminator 3 view .LVU355
 1505 016a 1170     		strb	r1, [r2]
 576:User/Src/command.c ****         {
 1506              		.loc 1 576 32 is_stmt 1 discriminator 3 view .LVU356
 576:User/Src/command.c ****         {
 1507              		.loc 1 576 33 is_stmt 0 discriminator 3 view .LVU357
 1508 016c 0133     		adds	r3, r3, #1
 1509              	.LVL151:
ARM GAS  C:\Users\84759\AppData\Local\Temp\cc7RoKct.s 			page 47


 576:User/Src/command.c ****         {
 1510              		.loc 1 576 33 discriminator 3 view .LVU358
 1511 016e DBB2     		uxtb	r3, r3
 1512              	.LVL152:
 1513              	.L92:
 576:User/Src/command.c ****         {
 1514              		.loc 1 576 27 is_stmt 1 discriminator 1 view .LVU359
 576:User/Src/command.c ****         {
 1515              		.loc 1 576 9 is_stmt 0 discriminator 1 view .LVU360
 1516 0170 042B     		cmp	r3, #4
 1517 0172 F0D9     		bls	.L93
 1518              	.LVL153:
 1519              	.L88:
 576:User/Src/command.c ****         {
 1520              		.loc 1 576 9 discriminator 1 view .LVU361
 1521              	.LBE5:
 1522              	.LBE7:
 587:User/Src/command.c ****     {
 1523              		.loc 1 587 5 is_stmt 1 view .LVU362
 587:User/Src/command.c ****     {
 1524              		.loc 1 587 18 is_stmt 0 view .LVU363
 1525 0174 BDF81850 		ldrh	r5, [sp, #24]
 1526              	.LVL154:
 587:User/Src/command.c ****     {
 1527              		.loc 1 587 31 view .LVU364
 1528 0178 A5F2BC73 		subw	r3, r5, #1980
 1529 017c 9BB2     		uxth	r3, r3
 587:User/Src/command.c ****     {
 1530              		.loc 1 587 8 view .LVU365
 1531 017e 7F2B     		cmp	r3, #127
 1532 0180 36D8     		bhi	.L105
 593:User/Src/command.c ****     {
 1533              		.loc 1 593 5 is_stmt 1 view .LVU366
 593:User/Src/command.c ****     {
 1534              		.loc 1 593 18 is_stmt 0 view .LVU367
 1535 0182 9DF81A60 		ldrb	r6, [sp, #26]	@ zero_extendqisi2
 593:User/Src/command.c ****     {
 1536              		.loc 1 593 29 view .LVU368
 1537 0186 731E     		subs	r3, r6, #1
 1538 0188 DBB2     		uxtb	r3, r3
 593:User/Src/command.c ****     {
 1539              		.loc 1 593 8 view .LVU369
 1540 018a 0B2B     		cmp	r3, #11
 1541 018c 34D8     		bhi	.L106
 599:User/Src/command.c ****     if (temp_time.day < 1 || temp_time.day > max_day)
 1542              		.loc 1 599 5 is_stmt 1 view .LVU370
 599:User/Src/command.c ****     if (temp_time.day < 1 || temp_time.day > max_day)
 1543              		.loc 1 599 23 is_stmt 0 view .LVU371
 1544 018e 3146     		mov	r1, r6
 1545 0190 2846     		mov	r0, r5
 1546 0192 FFF7FEFF 		bl	get_month_max_day
 1547              	.LVL155:
 600:User/Src/command.c ****     {
 1548              		.loc 1 600 5 is_stmt 1 view .LVU372
 600:User/Src/command.c ****     {
 1549              		.loc 1 600 18 is_stmt 0 view .LVU373
 1550 0196 9DF81B20 		ldrb	r2, [sp, #27]	@ zero_extendqisi2
ARM GAS  C:\Users\84759\AppData\Local\Temp\cc7RoKct.s 			page 48


 600:User/Src/command.c ****     {
 1551              		.loc 1 600 8 view .LVU374
 1552 019a 002A     		cmp	r2, #0
 1553 019c 30D0     		beq	.L96
 600:User/Src/command.c ****     {
 1554              		.loc 1 600 27 discriminator 1 view .LVU375
 1555 019e 8242     		cmp	r2, r0
 1556 01a0 2ED8     		bhi	.L96
 607:User/Src/command.c ****     {
 1557              		.loc 1 607 5 is_stmt 1 view .LVU376
 607:User/Src/command.c ****     {
 1558              		.loc 1 607 8 is_stmt 0 view .LVU377
 1559 01a2 052C     		cmp	r4, #5
 1560 01a4 0BD1     		bne	.L98
 609:User/Src/command.c ****         {
 1561              		.loc 1 609 9 is_stmt 1 view .LVU378
 609:User/Src/command.c ****         {
 1562              		.loc 1 609 22 is_stmt 0 view .LVU379
 1563 01a6 9DF81C30 		ldrb	r3, [sp, #28]	@ zero_extendqisi2
 609:User/Src/command.c ****         {
 1564              		.loc 1 609 12 view .LVU380
 1565 01aa 172B     		cmp	r3, #23
 1566 01ac 2FD8     		bhi	.L99
 609:User/Src/command.c ****         {
 1567              		.loc 1 609 45 discriminator 1 view .LVU381
 1568 01ae 9DF81D30 		ldrb	r3, [sp, #29]	@ zero_extendqisi2
 609:User/Src/command.c ****         {
 1569              		.loc 1 609 33 discriminator 1 view .LVU382
 1570 01b2 3B2B     		cmp	r3, #59
 1571 01b4 2BD8     		bhi	.L99
 609:User/Src/command.c ****         {
 1572              		.loc 1 609 70 discriminator 2 view .LVU383
 1573 01b6 9DF81E30 		ldrb	r3, [sp, #30]	@ zero_extendqisi2
 609:User/Src/command.c ****         {
 1574              		.loc 1 609 58 discriminator 2 view .LVU384
 1575 01ba 3B2B     		cmp	r3, #59
 1576 01bc 27D8     		bhi	.L99
 1577              	.L98:
 616:User/Src/command.c ****     UsbPrintf("[command] Ę±ĽäÉčÖĂłÉą¦Łˇ\r\n");
 1578              		.loc 1 616 5 is_stmt 1 view .LVU385
 616:User/Src/command.c ****     UsbPrintf("[command] Ę±ĽäÉčÖĂłÉą¦Łˇ\r\n");
 1579              		.loc 1 616 18 is_stmt 0 view .LVU386
 1580 01be 1C4C     		ldr	r4, .L107+24
 1581              	.LVL156:
 616:User/Src/command.c ****     UsbPrintf("[command] Ę±ĽäÉčÖĂłÉą¦Łˇ\r\n");
 1582              		.loc 1 616 18 view .LVU387
 1583 01c0 06AB     		add	r3, sp, #24
 1584 01c2 03CB     		ldmia	r3!, {r0, r1}
 1585              	.LVL157:
 616:User/Src/command.c ****     UsbPrintf("[command] Ę±ĽäÉčÖĂłÉą¦Łˇ\r\n");
 1586              		.loc 1 616 18 view .LVU388
 1587 01c4 2060     		str	r0, [r4]	@ unaligned
 1588 01c6 6160     		str	r1, [r4, #4]	@ unaligned
 617:User/Src/command.c ****     UsbPrintf("[command] µ±Ç°Ę±ĽäŁş%04d-%02d-%02d %02d:%02d:%02d\r\n",
 1589              		.loc 1 617 5 is_stmt 1 view .LVU389
 1590 01c8 1A48     		ldr	r0, .L107+28
 1591 01ca FFF7FEFF 		bl	UsbPrintf
ARM GAS  C:\Users\84759\AppData\Local\Temp\cc7RoKct.s 			page 49


 1592              	.LVL158:
 618:User/Src/command.c ****               g_fatfs_time.year, g_fatfs_time.month, g_fatfs_time.day,
 1593              		.loc 1 618 5 view .LVU390
 620:User/Src/command.c **** }
 1594              		.loc 1 620 27 is_stmt 0 view .LVU391
 1595 01ce 2379     		ldrb	r3, [r4, #4]	@ zero_extendqisi2
 620:User/Src/command.c **** }
 1596              		.loc 1 620 46 view .LVU392
 1597 01d0 6279     		ldrb	r2, [r4, #5]	@ zero_extendqisi2
 620:User/Src/command.c **** }
 1598              		.loc 1 620 67 view .LVU393
 1599 01d2 A179     		ldrb	r1, [r4, #6]	@ zero_extendqisi2
 618:User/Src/command.c ****               g_fatfs_time.year, g_fatfs_time.month, g_fatfs_time.day,
 1600              		.loc 1 618 5 view .LVU394
 1601 01d4 0291     		str	r1, [sp, #8]
 1602 01d6 0192     		str	r2, [sp, #4]
 1603 01d8 0093     		str	r3, [sp]
 1604 01da E378     		ldrb	r3, [r4, #3]	@ zero_extendqisi2
 1605 01dc A278     		ldrb	r2, [r4, #2]	@ zero_extendqisi2
 1606 01de 2188     		ldrh	r1, [r4]
 1607 01e0 1548     		ldr	r0, .L107+32
 1608 01e2 FFF7FEFF 		bl	UsbPrintf
 1609              	.LVL159:
 1610 01e6 2FE7     		b	.L78
 1611              	.LVL160:
 1612              	.L89:
 583:User/Src/command.c ****         return;
 1613              		.loc 1 583 9 is_stmt 1 view .LVU395
 1614 01e8 1448     		ldr	r0, .L107+36
 1615              	.LVL161:
 583:User/Src/command.c ****         return;
 1616              		.loc 1 583 9 is_stmt 0 view .LVU396
 1617 01ea FFF7FEFF 		bl	UsbPrintf
 1618              	.LVL162:
 584:User/Src/command.c ****     }
 1619              		.loc 1 584 9 is_stmt 1 view .LVU397
 1620 01ee 2BE7     		b	.L78
 1621              	.LVL163:
 1622              	.L105:
 589:User/Src/command.c ****         return;
 1623              		.loc 1 589 9 view .LVU398
 1624 01f0 1348     		ldr	r0, .L107+40
 1625 01f2 FFF7FEFF 		bl	UsbPrintf
 1626              	.LVL164:
 590:User/Src/command.c ****     }
 1627              		.loc 1 590 9 view .LVU399
 1628 01f6 27E7     		b	.L78
 1629              	.L106:
 595:User/Src/command.c ****         return;
 1630              		.loc 1 595 9 view .LVU400
 1631 01f8 1248     		ldr	r0, .L107+44
 1632 01fa FFF7FEFF 		bl	UsbPrintf
 1633              	.LVL165:
 596:User/Src/command.c ****     }
 1634              		.loc 1 596 9 view .LVU401
 1635 01fe 23E7     		b	.L78
 1636              	.LVL166:
ARM GAS  C:\Users\84759\AppData\Local\Temp\cc7RoKct.s 			page 50


 1637              	.L96:
 602:User/Src/command.c ****                   temp_time.year, temp_time.month, max_day);
 1638              		.loc 1 602 9 view .LVU402
 1639 0200 0346     		mov	r3, r0
 1640 0202 3246     		mov	r2, r6
 1641 0204 2946     		mov	r1, r5
 1642 0206 1048     		ldr	r0, .L107+48
 1643              	.LVL167:
 602:User/Src/command.c ****                   temp_time.year, temp_time.month, max_day);
 1644              		.loc 1 602 9 is_stmt 0 view .LVU403
 1645 0208 FFF7FEFF 		bl	UsbPrintf
 1646              	.LVL168:
 604:User/Src/command.c ****     }
 1647              		.loc 1 604 9 is_stmt 1 view .LVU404
 1648 020c 1CE7     		b	.L78
 1649              	.LVL169:
 1650              	.L99:
 611:User/Src/command.c ****             return;
 1651              		.loc 1 611 13 view .LVU405
 1652 020e 0F48     		ldr	r0, .L107+52
 1653              	.LVL170:
 611:User/Src/command.c ****             return;
 1654              		.loc 1 611 13 is_stmt 0 view .LVU406
 1655 0210 FFF7FEFF 		bl	UsbPrintf
 1656              	.LVL171:
 612:User/Src/command.c ****         }
 1657              		.loc 1 612 13 is_stmt 1 view .LVU407
 1658 0214 18E7     		b	.L78
 1659              	.L108:
 1660 0216 00BF     		.align	2
 1661              	.L107:
 1662 0218 D8010000 		.word	.LC25
 1663 021c 00000000 		.word	.LC6
 1664 0220 00000000 		.word	.LC26
 1665 0224 24000000 		.word	.LC27
 1666 0228 58000000 		.word	.LC28
 1667 022c 90000000 		.word	.LC29
 1668 0230 00000000 		.word	g_fatfs_time
 1669 0234 88010000 		.word	.LC35
 1670 0238 A4010000 		.word	.LC36
 1671 023c B8000000 		.word	.LC30
 1672 0240 DC000000 		.word	.LC31
 1673 0244 08010000 		.word	.LC32
 1674 0248 30010000 		.word	.LC33
 1675 024c 64010000 		.word	.LC34
 1676              		.cfi_endproc
 1677              	.LFE84:
 1679              		.section	.text.CharToInt,"ax",%progbits
 1680              		.align	1
 1681              		.global	CharToInt
 1682              		.syntax unified
 1683              		.thumb
 1684              		.thumb_func
 1686              	CharToInt:
 1687              	.LVL172:
 1688              	.LFB69:
  70:User/Src/command.c ****     uint16_t length = strlen(source);
ARM GAS  C:\Users\84759\AppData\Local\Temp\cc7RoKct.s 			page 51


 1689              		.loc 1 70 1 view -0
 1690              		.cfi_startproc
 1691              		@ args = 0, pretend = 0, frame = 0
 1692              		@ frame_needed = 0, uses_anonymous_args = 0
  70:User/Src/command.c ****     uint16_t length = strlen(source);
 1693              		.loc 1 70 1 is_stmt 0 view .LVU409
 1694 0000 F8B5     		push	{r3, r4, r5, r6, r7, lr}
 1695              	.LCFI25:
 1696              		.cfi_def_cfa_offset 24
 1697              		.cfi_offset 3, -24
 1698              		.cfi_offset 4, -20
 1699              		.cfi_offset 5, -16
 1700              		.cfi_offset 6, -12
 1701              		.cfi_offset 7, -8
 1702              		.cfi_offset 14, -4
 1703 0002 0546     		mov	r5, r0
 1704 0004 0F46     		mov	r7, r1
 1705 0006 1446     		mov	r4, r2
  71:User/Src/command.c ****     uint16_t i;
 1706              		.loc 1 71 5 is_stmt 1 view .LVU410
  71:User/Src/command.c ****     uint16_t i;
 1707              		.loc 1 71 23 is_stmt 0 view .LVU411
 1708 0008 FFF7FEFF 		bl	strlen
 1709              	.LVL173:
  71:User/Src/command.c ****     uint16_t i;
 1710              		.loc 1 71 14 view .LVU412
 1711 000c 1FFA80FE 		uxth	lr, r0
 1712              	.LVL174:
  72:User/Src/command.c ****     int sum = 0;
 1713              		.loc 1 72 5 is_stmt 1 view .LVU413
  73:User/Src/command.c ****     int state = 1;
 1714              		.loc 1 73 5 view .LVU414
  74:User/Src/command.c ****     uint8_t hex = 0;
 1715              		.loc 1 74 5 view .LVU415
  75:User/Src/command.c **** 
 1716              		.loc 1 75 5 view .LVU416
  77:User/Src/command.c ****     if (start >= length) return 0;
 1717              		.loc 1 77 5 view .LVU417
  77:User/Src/command.c ****     if (start >= length) return 0;
 1718              		.loc 1 77 13 is_stmt 0 view .LVU418
 1719 0010 0023     		movs	r3, #0
 1720 0012 2360     		str	r3, [r4]
  78:User/Src/command.c **** 
 1721              		.loc 1 78 5 is_stmt 1 view .LVU419
  78:User/Src/command.c **** 
 1722              		.loc 1 78 15 is_stmt 0 view .LVU420
 1723 0014 BBB2     		uxth	r3, r7
  78:User/Src/command.c **** 
 1724              		.loc 1 78 8 view .LVU421
 1725 0016 7345     		cmp	r3, lr
 1726 0018 5BD2     		bcs	.L122
  80:User/Src/command.c ****     {
 1727              		.loc 1 80 5 is_stmt 1 view .LVU422
  80:User/Src/command.c ****     {
 1728              		.loc 1 80 15 is_stmt 0 view .LVU423
 1729 001a EB5D     		ldrb	r3, [r5, r7]	@ zero_extendqisi2
  80:User/Src/command.c ****     {
ARM GAS  C:\Users\84759\AppData\Local\Temp\cc7RoKct.s 			page 52


 1730              		.loc 1 80 8 view .LVU424
 1731 001c 2D2B     		cmp	r3, #45
 1732 001e 13D0     		beq	.L130
  74:User/Src/command.c ****     uint8_t hex = 0;
 1733              		.loc 1 74 9 view .LVU425
 1734 0020 0126     		movs	r6, #1
 1735              	.LVL175:
 1736              	.L111:
  86:User/Src/command.c ****     {
 1737              		.loc 1 86 5 is_stmt 1 view .LVU426
  86:User/Src/command.c ****     {
 1738              		.loc 1 86 15 is_stmt 0 view .LVU427
 1739 0022 7B1C     		adds	r3, r7, #1
  86:User/Src/command.c ****     {
 1740              		.loc 1 86 19 view .LVU428
 1741 0024 80B2     		uxth	r0, r0
  86:User/Src/command.c ****     {
 1742              		.loc 1 86 8 view .LVU429
 1743 0026 8342     		cmp	r3, r0
 1744 0028 13DA     		bge	.L124
  88:User/Src/command.c ****         {
 1745              		.loc 1 88 9 is_stmt 1 view .LVU430
  88:User/Src/command.c ****         {
 1746              		.loc 1 88 19 is_stmt 0 view .LVU431
 1747 002a EB5D     		ldrb	r3, [r5, r7]	@ zero_extendqisi2
  88:User/Src/command.c ****         {
 1748              		.loc 1 88 12 view .LVU432
 1749 002c 302B     		cmp	r3, #48
 1750 002e 12D1     		bne	.L125
  88:User/Src/command.c ****         {
 1751              		.loc 1 88 44 discriminator 1 view .LVU433
 1752 0030 EB19     		adds	r3, r5, r7
 1753 0032 5B78     		ldrb	r3, [r3, #1]	@ zero_extendqisi2
  88:User/Src/command.c ****         {
 1754              		.loc 1 88 34 discriminator 1 view .LVU434
 1755 0034 782B     		cmp	r3, #120
 1756 0036 01D0     		beq	.L113
  88:User/Src/command.c ****         {
 1757              		.loc 1 88 63 discriminator 2 view .LVU435
 1758 0038 582B     		cmp	r3, #88
 1759 003a 0ED1     		bne	.L126
 1760              	.L113:
  90:User/Src/command.c ****             hex = 1;
 1761              		.loc 1 90 13 is_stmt 1 view .LVU436
  90:User/Src/command.c ****             hex = 1;
 1762              		.loc 1 90 19 is_stmt 0 view .LVU437
 1763 003c BB1C     		adds	r3, r7, #2
 1764 003e DFB2     		uxtb	r7, r3
 1765              	.LVL176:
  91:User/Src/command.c ****         }
 1766              		.loc 1 91 13 is_stmt 1 view .LVU438
  91:User/Src/command.c ****         }
 1767              		.loc 1 91 17 is_stmt 0 view .LVU439
 1768 0040 0120     		movs	r0, #1
 1769              	.LVL177:
 1770              	.L112:
  95:User/Src/command.c ****     {
ARM GAS  C:\Users\84759\AppData\Local\Temp\cc7RoKct.s 			page 53


 1771              		.loc 1 95 5 is_stmt 1 view .LVU440
  95:User/Src/command.c ****     {
 1772              		.loc 1 95 12 is_stmt 0 view .LVU441
 1773 0042 BBB2     		uxth	r3, r7
 1774              	.LVL178:
  73:User/Src/command.c ****     int state = 1;
 1775              		.loc 1 73 9 view .LVU442
 1776 0044 0022     		movs	r2, #0
  95:User/Src/command.c ****     {
 1777              		.loc 1 95 5 view .LVU443
 1778 0046 11E0     		b	.L114
 1779              	.LVL179:
 1780              	.L130:
  82:User/Src/command.c ****         start++;
 1781              		.loc 1 82 9 is_stmt 1 view .LVU444
  83:User/Src/command.c ****     }
 1782              		.loc 1 83 9 view .LVU445
  83:User/Src/command.c ****     }
 1783              		.loc 1 83 14 is_stmt 0 view .LVU446
 1784 0048 7B1C     		adds	r3, r7, #1
 1785 004a DFB2     		uxtb	r7, r3
 1786              	.LVL180:
  82:User/Src/command.c ****         start++;
 1787              		.loc 1 82 15 view .LVU447
 1788 004c 4FF0FF36 		mov	r6, #-1
 1789 0050 E7E7     		b	.L111
 1790              	.LVL181:
 1791              	.L124:
  75:User/Src/command.c **** 
 1792              		.loc 1 75 13 view .LVU448
 1793 0052 0020     		movs	r0, #0
 1794 0054 F5E7     		b	.L112
 1795              	.L125:
  75:User/Src/command.c **** 
 1796              		.loc 1 75 13 view .LVU449
 1797 0056 0020     		movs	r0, #0
 1798 0058 F3E7     		b	.L112
 1799              	.L126:
 1800 005a 0020     		movs	r0, #0
 1801 005c F1E7     		b	.L112
 1802              	.LVL182:
 1803              	.L116:
  99:User/Src/command.c ****         }
 1804              		.loc 1 99 63 discriminator 2 view .LVU450
 1805 005e 02EB8202 		add	r2, r2, r2, lsl #2
 1806              	.LVL183:
  99:User/Src/command.c ****         }
 1807              		.loc 1 99 81 discriminator 2 view .LVU451
 1808 0062 3039     		subs	r1, r1, #48
  99:User/Src/command.c ****         }
 1809              		.loc 1 99 56 discriminator 2 view .LVU452
 1810 0064 01EB4202 		add	r2, r1, r2, lsl #1
 1811              	.L117:
 1812              	.LVL184:
  95:User/Src/command.c ****     {
 1813              		.loc 1 95 33 is_stmt 1 discriminator 2 view .LVU453
  95:User/Src/command.c ****     {
ARM GAS  C:\Users\84759\AppData\Local\Temp\cc7RoKct.s 			page 54


 1814              		.loc 1 95 34 is_stmt 0 discriminator 2 view .LVU454
 1815 0068 0133     		adds	r3, r3, #1
 1816              	.LVL185:
  95:User/Src/command.c ****     {
 1817              		.loc 1 95 34 discriminator 2 view .LVU455
 1818 006a 9BB2     		uxth	r3, r3
 1819              	.LVL186:
 1820              	.L114:
  95:User/Src/command.c ****     {
 1821              		.loc 1 95 21 is_stmt 1 discriminator 1 view .LVU456
  95:User/Src/command.c ****     {
 1822              		.loc 1 95 5 is_stmt 0 discriminator 1 view .LVU457
 1823 006c 7345     		cmp	r3, lr
 1824 006e 2BD2     		bcs	.L120
  97:User/Src/command.c ****         {
 1825              		.loc 1 97 9 is_stmt 1 view .LVU458
  97:User/Src/command.c ****         {
 1826              		.loc 1 97 19 is_stmt 0 view .LVU459
 1827 0070 E95C     		ldrb	r1, [r5, r3]	@ zero_extendqisi2
  97:User/Src/command.c ****         {
 1828              		.loc 1 97 30 view .LVU460
 1829 0072 A1F1300C 		sub	ip, r1, #48
 1830 0076 5FFA8CFC 		uxtb	ip, ip
  97:User/Src/command.c ****         {
 1831              		.loc 1 97 12 view .LVU461
 1832 007a BCF1090F 		cmp	ip, #9
 1833 007e 05D8     		bhi	.L115
  99:User/Src/command.c ****         }
 1834              		.loc 1 99 13 is_stmt 1 view .LVU462
  99:User/Src/command.c ****         }
 1835              		.loc 1 99 56 is_stmt 0 view .LVU463
 1836 0080 0028     		cmp	r0, #0
 1837 0082 ECD0     		beq	.L116
  99:User/Src/command.c ****         }
 1838              		.loc 1 99 48 discriminator 1 view .LVU464
 1839 0084 3039     		subs	r1, r1, #48
  99:User/Src/command.c ****         }
 1840              		.loc 1 99 56 discriminator 1 view .LVU465
 1841 0086 01EB0212 		add	r2, r1, r2, lsl #4
 1842              	.LVL187:
  99:User/Src/command.c ****         }
 1843              		.loc 1 99 56 discriminator 1 view .LVU466
 1844 008a EDE7     		b	.L117
 1845              	.LVL188:
 1846              	.L115:
 101:User/Src/command.c ****         {
 1847              		.loc 1 101 14 is_stmt 1 view .LVU467
 101:User/Src/command.c ****         {
 1848              		.loc 1 101 35 is_stmt 0 view .LVU468
 1849 008c A1F1610C 		sub	ip, r1, #97
 1850 0090 5FFA8CFC 		uxtb	ip, ip
 101:User/Src/command.c ****         {
 1851              		.loc 1 101 17 view .LVU469
 1852 0094 BCF1050F 		cmp	ip, #5
 1853 0098 04D8     		bhi	.L118
 103:User/Src/command.c ****             sum = sum * 16 + (source[i] - 'a' + 10);
 1854              		.loc 1 103 13 is_stmt 1 view .LVU470
ARM GAS  C:\Users\84759\AppData\Local\Temp\cc7RoKct.s 			page 55


 103:User/Src/command.c ****             sum = sum * 16 + (source[i] - 'a' + 10);
 1855              		.loc 1 103 16 is_stmt 0 view .LVU471
 1856 009a E0B1     		cbz	r0, .L127
 104:User/Src/command.c ****         }
 1857              		.loc 1 104 13 is_stmt 1 view .LVU472
 104:User/Src/command.c ****         }
 1858              		.loc 1 104 47 is_stmt 0 view .LVU473
 1859 009c 5739     		subs	r1, r1, #87
 104:User/Src/command.c ****         }
 1860              		.loc 1 104 17 view .LVU474
 1861 009e 01EB0212 		add	r2, r1, r2, lsl #4
 1862              	.LVL189:
 104:User/Src/command.c ****         }
 1863              		.loc 1 104 17 view .LVU475
 1864 00a2 E1E7     		b	.L117
 1865              	.L118:
 106:User/Src/command.c ****         {
 1866              		.loc 1 106 14 is_stmt 1 view .LVU476
 106:User/Src/command.c ****         {
 1867              		.loc 1 106 35 is_stmt 0 view .LVU477
 1868 00a4 A1F1410C 		sub	ip, r1, #65
 1869 00a8 5FFA8CFC 		uxtb	ip, ip
 106:User/Src/command.c ****         {
 1870              		.loc 1 106 17 view .LVU478
 1871 00ac BCF1050F 		cmp	ip, #5
 1872 00b0 04D8     		bhi	.L119
 108:User/Src/command.c ****             sum = sum * 16 + (source[i] - 'A' + 10);
 1873              		.loc 1 108 13 is_stmt 1 view .LVU479
 108:User/Src/command.c ****             sum = sum * 16 + (source[i] - 'A' + 10);
 1874              		.loc 1 108 16 is_stmt 0 view .LVU480
 1875 00b2 90B1     		cbz	r0, .L128
 109:User/Src/command.c ****         }
 1876              		.loc 1 109 13 is_stmt 1 view .LVU481
 109:User/Src/command.c ****         }
 1877              		.loc 1 109 47 is_stmt 0 view .LVU482
 1878 00b4 3739     		subs	r1, r1, #55
 109:User/Src/command.c ****         }
 1879              		.loc 1 109 17 view .LVU483
 1880 00b6 01EB0212 		add	r2, r1, r2, lsl #4
 1881              	.LVL190:
 109:User/Src/command.c ****         }
 1882              		.loc 1 109 17 view .LVU484
 1883 00ba D5E7     		b	.L117
 1884              	.L119:
 111:User/Src/command.c ****         {
 1885              		.loc 1 111 14 is_stmt 1 view .LVU485
 111:User/Src/command.c ****         {
 1886              		.loc 1 111 17 is_stmt 0 view .LVU486
 1887 00bc 2029     		cmp	r1, #32
 1888 00be 03D0     		beq	.L120
 111:User/Src/command.c ****         {
 1889              		.loc 1 111 35 discriminator 1 view .LVU487
 1890 00c0 2C29     		cmp	r1, #44
 1891 00c2 01D0     		beq	.L120
 117:User/Src/command.c ****         }
 1892              		.loc 1 117 20 view .LVU488
 1893 00c4 0020     		movs	r0, #0
ARM GAS  C:\Users\84759\AppData\Local\Temp\cc7RoKct.s 			page 56


 1894              	.LVL191:
 117:User/Src/command.c ****         }
 1895              		.loc 1 117 20 view .LVU489
 1896 00c6 03E0     		b	.L110
 1897              	.LVL192:
 1898              	.L120:
 121:User/Src/command.c ****     return 1;
 1899              		.loc 1 121 5 is_stmt 1 view .LVU490
 121:User/Src/command.c ****     return 1;
 1900              		.loc 1 121 21 is_stmt 0 view .LVU491
 1901 00c8 06FB02F2 		mul	r2, r6, r2
 1902              	.LVL193:
 121:User/Src/command.c ****     return 1;
 1903              		.loc 1 121 13 view .LVU492
 1904 00cc 2260     		str	r2, [r4]
 122:User/Src/command.c **** }
 1905              		.loc 1 122 5 is_stmt 1 view .LVU493
 122:User/Src/command.c **** }
 1906              		.loc 1 122 12 is_stmt 0 view .LVU494
 1907 00ce 0120     		movs	r0, #1
 1908              	.LVL194:
 1909              	.L110:
 123:User/Src/command.c **** 
 1910              		.loc 1 123 1 view .LVU495
 1911 00d0 F8BD     		pop	{r3, r4, r5, r6, r7, pc}
 1912              	.LVL195:
 1913              	.L122:
  78:User/Src/command.c **** 
 1914              		.loc 1 78 33 view .LVU496
 1915 00d2 0020     		movs	r0, #0
 1916 00d4 FCE7     		b	.L110
 1917              	.LVL196:
 1918              	.L127:
 103:User/Src/command.c ****             sum = sum * 16 + (source[i] - 'a' + 10);
 1919              		.loc 1 103 30 view .LVU497
 1920 00d6 0020     		movs	r0, #0
 1921              	.LVL197:
 103:User/Src/command.c ****             sum = sum * 16 + (source[i] - 'a' + 10);
 1922              		.loc 1 103 30 view .LVU498
 1923 00d8 FAE7     		b	.L110
 1924              	.LVL198:
 1925              	.L128:
 108:User/Src/command.c ****             sum = sum * 16 + (source[i] - 'A' + 10);
 1926              		.loc 1 108 30 view .LVU499
 1927 00da 0020     		movs	r0, #0
 1928              	.LVL199:
 108:User/Src/command.c ****             sum = sum * 16 + (source[i] - 'A' + 10);
 1929              		.loc 1 108 30 view .LVU500
 1930 00dc F8E7     		b	.L110
 1931              		.cfi_endproc
 1932              	.LFE69:
 1934              		.global	__aeabi_fmul
 1935              		.global	__aeabi_i2f
 1936              		.global	__aeabi_fadd
 1937              		.section	.text.CharToFloat,"ax",%progbits
 1938              		.align	1
 1939              		.global	CharToFloat
ARM GAS  C:\Users\84759\AppData\Local\Temp\cc7RoKct.s 			page 57


 1940              		.syntax unified
 1941              		.thumb
 1942              		.thumb_func
 1944              	CharToFloat:
 1945              	.LVL200:
 1946              	.LFB70:
 126:User/Src/command.c ****     uint8_t length = strlen(source);
 1947              		.loc 1 126 1 is_stmt 1 view -0
 1948              		.cfi_startproc
 1949              		@ args = 0, pretend = 0, frame = 0
 1950              		@ frame_needed = 0, uses_anonymous_args = 0
 126:User/Src/command.c ****     uint8_t length = strlen(source);
 1951              		.loc 1 126 1 is_stmt 0 view .LVU502
 1952 0000 2DE9F047 		push	{r4, r5, r6, r7, r8, r9, r10, lr}
 1953              	.LCFI26:
 1954              		.cfi_def_cfa_offset 32
 1955              		.cfi_offset 4, -32
 1956              		.cfi_offset 5, -28
 1957              		.cfi_offset 6, -24
 1958              		.cfi_offset 7, -20
 1959              		.cfi_offset 8, -16
 1960              		.cfi_offset 9, -12
 1961              		.cfi_offset 10, -8
 1962              		.cfi_offset 14, -4
 1963 0004 8046     		mov	r8, r0
 1964 0006 0C46     		mov	r4, r1
 1965 0008 9146     		mov	r9, r2
 127:User/Src/command.c ****     uint8_t i;
 1966              		.loc 1 127 5 is_stmt 1 view .LVU503
 127:User/Src/command.c ****     uint8_t i;
 1967              		.loc 1 127 22 is_stmt 0 view .LVU504
 1968 000a FFF7FEFF 		bl	strlen
 1969              	.LVL201:
 127:User/Src/command.c ****     uint8_t i;
 1970              		.loc 1 127 13 view .LVU505
 1971 000e C7B2     		uxtb	r7, r0
 1972              	.LVL202:
 128:User/Src/command.c ****     float sum = 0;
 1973              		.loc 1 128 5 is_stmt 1 view .LVU506
 129:User/Src/command.c ****     int state = 1;
 1974              		.loc 1 129 5 view .LVU507
 130:User/Src/command.c ****     float small_num = 0.1f;
 1975              		.loc 1 130 5 view .LVU508
 131:User/Src/command.c **** 
 1976              		.loc 1 131 5 view .LVU509
 133:User/Src/command.c ****     if (length <= start) return 0;
 1977              		.loc 1 133 5 view .LVU510
 133:User/Src/command.c ****     if (length <= start) return 0;
 1978              		.loc 1 133 13 is_stmt 0 view .LVU511
 1979 0010 0023     		movs	r3, #0
 1980 0012 C9F80030 		str	r3, [r9]	@ float
 134:User/Src/command.c **** 
 1981              		.loc 1 134 5 is_stmt 1 view .LVU512
 134:User/Src/command.c **** 
 1982              		.loc 1 134 8 is_stmt 0 view .LVU513
 1983 0016 A742     		cmp	r7, r4
 1984 0018 5DD9     		bls	.L143
ARM GAS  C:\Users\84759\AppData\Local\Temp\cc7RoKct.s 			page 58


 136:User/Src/command.c ****     {
 1985              		.loc 1 136 5 is_stmt 1 view .LVU514
 136:User/Src/command.c ****     {
 1986              		.loc 1 136 15 is_stmt 0 view .LVU515
 1987 001a 18F80430 		ldrb	r3, [r8, r4]	@ zero_extendqisi2
 136:User/Src/command.c ****     {
 1988              		.loc 1 136 8 view .LVU516
 1989 001e 2D2B     		cmp	r3, #45
 1990 0020 1CD0     		beq	.L146
 130:User/Src/command.c ****     float small_num = 0.1f;
 1991              		.loc 1 130 9 view .LVU517
 1992 0022 4FF0010A 		mov	r10, #1
 1993              	.LVL203:
 1994              	.L133:
 142:User/Src/command.c ****     {
 1995              		.loc 1 142 5 is_stmt 1 view .LVU518
 129:User/Src/command.c ****     int state = 1;
 1996              		.loc 1 129 11 is_stmt 0 view .LVU519
 1997 0026 0025     		movs	r5, #0
 1998              	.LVL204:
 1999              	.L134:
 142:User/Src/command.c ****     {
 2000              		.loc 1 142 21 is_stmt 1 discriminator 1 view .LVU520
 142:User/Src/command.c ****     {
 2001              		.loc 1 142 5 is_stmt 0 discriminator 1 view .LVU521
 2002 0028 BC42     		cmp	r4, r7
 2003 002a 26D2     		bcs	.L138
 144:User/Src/command.c ****         {
 2004              		.loc 1 144 9 is_stmt 1 view .LVU522
 144:User/Src/command.c ****         {
 2005              		.loc 1 144 19 is_stmt 0 view .LVU523
 2006 002c 18F80460 		ldrb	r6, [r8, r4]	@ zero_extendqisi2
 144:User/Src/command.c ****         {
 2007              		.loc 1 144 30 view .LVU524
 2008 0030 A6F13003 		sub	r3, r6, #48
 2009 0034 DBB2     		uxtb	r3, r3
 144:User/Src/command.c ****         {
 2010              		.loc 1 144 12 view .LVU525
 2011 0036 092B     		cmp	r3, #9
 2012 0038 15D8     		bhi	.L135
 146:User/Src/command.c ****         }
 2013              		.loc 1 146 13 is_stmt 1 view .LVU526
 146:User/Src/command.c ****         }
 2014              		.loc 1 146 23 is_stmt 0 view .LVU527
 2015 003a 2849     		ldr	r1, .L149
 2016 003c 2846     		mov	r0, r5
 2017 003e FFF7FEFF 		bl	__aeabi_fmul
 2018              	.LVL205:
 2019 0042 0546     		mov	r5, r0
 2020              	.LVL206:
 146:User/Src/command.c ****         }
 2021              		.loc 1 146 28 view .LVU528
 2022 0044 A6F13000 		sub	r0, r6, #48
 2023 0048 FFF7FEFF 		bl	__aeabi_i2f
 2024              	.LVL207:
 2025 004c 0146     		mov	r1, r0
 146:User/Src/command.c ****         }
ARM GAS  C:\Users\84759\AppData\Local\Temp\cc7RoKct.s 			page 59


 2026              		.loc 1 146 17 view .LVU529
 2027 004e 2846     		mov	r0, r5
 2028 0050 FFF7FEFF 		bl	__aeabi_fadd
 2029              	.LVL208:
 2030 0054 0546     		mov	r5, r0
 2031              	.LVL209:
 142:User/Src/command.c ****     {
 2032              		.loc 1 142 33 is_stmt 1 view .LVU530
 142:User/Src/command.c ****     {
 2033              		.loc 1 142 34 is_stmt 0 view .LVU531
 2034 0056 0134     		adds	r4, r4, #1
 2035              	.LVL210:
 142:User/Src/command.c ****     {
 2036              		.loc 1 142 34 view .LVU532
 2037 0058 E4B2     		uxtb	r4, r4
 2038              	.LVL211:
 142:User/Src/command.c ****     {
 2039              		.loc 1 142 34 view .LVU533
 2040 005a E5E7     		b	.L134
 2041              	.LVL212:
 2042              	.L146:
 138:User/Src/command.c ****         start++;
 2043              		.loc 1 138 9 is_stmt 1 view .LVU534
 139:User/Src/command.c ****     }
 2044              		.loc 1 139 9 view .LVU535
 139:User/Src/command.c ****     }
 2045              		.loc 1 139 14 is_stmt 0 view .LVU536
 2046 005c 0134     		adds	r4, r4, #1
 2047 005e E4B2     		uxtb	r4, r4
 2048              	.LVL213:
 138:User/Src/command.c ****         start++;
 2049              		.loc 1 138 15 view .LVU537
 2050 0060 4FF0FF3A 		mov	r10, #-1
 2051 0064 DFE7     		b	.L133
 2052              	.LVL214:
 2053              	.L135:
 148:User/Src/command.c ****         {
 2054              		.loc 1 148 14 is_stmt 1 view .LVU538
 148:User/Src/command.c ****         {
 2055              		.loc 1 148 17 is_stmt 0 view .LVU539
 2056 0066 2E2E     		cmp	r6, #46
 2057 0068 05D0     		beq	.L147
 153:User/Src/command.c ****         {
 2058              		.loc 1 153 14 is_stmt 1 view .LVU540
 153:User/Src/command.c ****         {
 2059              		.loc 1 153 17 is_stmt 0 view .LVU541
 2060 006a 202E     		cmp	r6, #32
 2061 006c 05D0     		beq	.L138
 153:User/Src/command.c ****         {
 2062              		.loc 1 153 35 discriminator 1 view .LVU542
 2063 006e 2C2E     		cmp	r6, #44
 2064 0070 03D0     		beq	.L138
 159:User/Src/command.c ****         }
 2065              		.loc 1 159 20 view .LVU543
 2066 0072 0020     		movs	r0, #0
 2067 0074 2DE0     		b	.L132
 2068              	.L147:
ARM GAS  C:\Users\84759\AppData\Local\Temp\cc7RoKct.s 			page 60


 150:User/Src/command.c ****             break;
 2069              		.loc 1 150 13 is_stmt 1 view .LVU544
 150:User/Src/command.c ****             break;
 2070              		.loc 1 150 14 is_stmt 0 view .LVU545
 2071 0076 0134     		adds	r4, r4, #1
 2072              	.LVL215:
 150:User/Src/command.c ****             break;
 2073              		.loc 1 150 14 view .LVU546
 2074 0078 E4B2     		uxtb	r4, r4
 2075              	.LVL216:
 151:User/Src/command.c ****         }
 2076              		.loc 1 151 13 is_stmt 1 view .LVU547
 2077              	.L138:
 129:User/Src/command.c ****     int state = 1;
 2078              		.loc 1 129 11 is_stmt 0 discriminator 1 view .LVU548
 2079 007a 194E     		ldr	r6, .L149+4
 2080 007c 11E0     		b	.L137
 2081              	.LVL217:
 2082              	.L148:
 167:User/Src/command.c ****             small_num *= 0.1f;
 2083              		.loc 1 167 13 is_stmt 1 view .LVU549
 167:User/Src/command.c ****             small_num *= 0.1f;
 2084              		.loc 1 167 30 is_stmt 0 view .LVU550
 2085 007e 3038     		subs	r0, r0, #48
 2086 0080 FFF7FEFF 		bl	__aeabi_i2f
 2087              	.LVL218:
 2088 0084 3146     		mov	r1, r6
 2089 0086 FFF7FEFF 		bl	__aeabi_fmul
 2090              	.LVL219:
 2091 008a 0146     		mov	r1, r0
 167:User/Src/command.c ****             small_num *= 0.1f;
 2092              		.loc 1 167 17 view .LVU551
 2093 008c 2846     		mov	r0, r5
 2094 008e FFF7FEFF 		bl	__aeabi_fadd
 2095              	.LVL220:
 2096 0092 0546     		mov	r5, r0
 2097              	.LVL221:
 168:User/Src/command.c ****         }
 2098              		.loc 1 168 13 is_stmt 1 view .LVU552
 168:User/Src/command.c ****         }
 2099              		.loc 1 168 23 is_stmt 0 view .LVU553
 2100 0094 1249     		ldr	r1, .L149+4
 2101 0096 3046     		mov	r0, r6
 2102              	.LVL222:
 168:User/Src/command.c ****         }
 2103              		.loc 1 168 23 view .LVU554
 2104 0098 FFF7FEFF 		bl	__aeabi_fmul
 2105              	.LVL223:
 2106 009c 0646     		mov	r6, r0
 2107              	.LVL224:
 163:User/Src/command.c ****     {
 2108              		.loc 1 163 24 is_stmt 1 view .LVU555
 163:User/Src/command.c ****     {
 2109              		.loc 1 163 25 is_stmt 0 view .LVU556
 2110 009e 0134     		adds	r4, r4, #1
 2111              	.LVL225:
 163:User/Src/command.c ****     {
ARM GAS  C:\Users\84759\AppData\Local\Temp\cc7RoKct.s 			page 61


 2112              		.loc 1 163 25 view .LVU557
 2113 00a0 E4B2     		uxtb	r4, r4
 2114              	.LVL226:
 2115              	.L137:
 163:User/Src/command.c ****     {
 2116              		.loc 1 163 12 is_stmt 1 discriminator 1 view .LVU558
 163:User/Src/command.c ****     {
 2117              		.loc 1 163 5 is_stmt 0 discriminator 1 view .LVU559
 2118 00a2 BC42     		cmp	r4, r7
 2119 00a4 0CD2     		bcs	.L141
 165:User/Src/command.c ****         {
 2120              		.loc 1 165 9 is_stmt 1 view .LVU560
 165:User/Src/command.c ****         {
 2121              		.loc 1 165 19 is_stmt 0 view .LVU561
 2122 00a6 18F80400 		ldrb	r0, [r8, r4]	@ zero_extendqisi2
 165:User/Src/command.c ****         {
 2123              		.loc 1 165 30 view .LVU562
 2124 00aa A0F13003 		sub	r3, r0, #48
 2125 00ae DBB2     		uxtb	r3, r3
 165:User/Src/command.c ****         {
 2126              		.loc 1 165 12 view .LVU563
 2127 00b0 092B     		cmp	r3, #9
 2128 00b2 E4D9     		bls	.L148
 170:User/Src/command.c ****         {
 2129              		.loc 1 170 14 is_stmt 1 view .LVU564
 170:User/Src/command.c ****         {
 2130              		.loc 1 170 17 is_stmt 0 view .LVU565
 2131 00b4 2028     		cmp	r0, #32
 2132 00b6 03D0     		beq	.L141
 170:User/Src/command.c ****         {
 2133              		.loc 1 170 35 discriminator 1 view .LVU566
 2134 00b8 2C28     		cmp	r0, #44
 2135 00ba 01D0     		beq	.L141
 176:User/Src/command.c ****         }
 2136              		.loc 1 176 20 view .LVU567
 2137 00bc 0020     		movs	r0, #0
 2138 00be 08E0     		b	.L132
 2139              	.L141:
 180:User/Src/command.c ****     return 1;
 2140              		.loc 1 180 5 is_stmt 1 view .LVU568
 180:User/Src/command.c ****     return 1;
 2141              		.loc 1 180 21 is_stmt 0 view .LVU569
 2142 00c0 5046     		mov	r0, r10
 2143 00c2 FFF7FEFF 		bl	__aeabi_i2f
 2144              	.LVL227:
 2145 00c6 2946     		mov	r1, r5
 2146 00c8 FFF7FEFF 		bl	__aeabi_fmul
 2147              	.LVL228:
 180:User/Src/command.c ****     return 1;
 2148              		.loc 1 180 13 view .LVU570
 2149 00cc C9F80000 		str	r0, [r9]	@ float
 181:User/Src/command.c **** }
 2150              		.loc 1 181 5 is_stmt 1 view .LVU571
 181:User/Src/command.c **** }
 2151              		.loc 1 181 12 is_stmt 0 view .LVU572
 2152 00d0 0120     		movs	r0, #1
 2153              	.LVL229:
ARM GAS  C:\Users\84759\AppData\Local\Temp\cc7RoKct.s 			page 62


 2154              	.L132:
 182:User/Src/command.c **** 
 2155              		.loc 1 182 1 view .LVU573
 2156 00d2 BDE8F087 		pop	{r4, r5, r6, r7, r8, r9, r10, pc}
 2157              	.LVL230:
 2158              	.L143:
 134:User/Src/command.c **** 
 2159              		.loc 1 134 33 view .LVU574
 2160 00d6 0020     		movs	r0, #0
 2161 00d8 FBE7     		b	.L132
 2162              	.L150:
 2163 00da 00BF     		.align	2
 2164              	.L149:
 2165 00dc 00002041 		.word	1092616192
 2166 00e0 CDCCCC3D 		.word	1036831949
 2167              		.cfi_endproc
 2168              	.LFE70:
 2170              		.section	.rodata.Data_copy_from_pos.str1.4,"aMS",%progbits,1
 2171              		.align	2
 2172              	.LC37:
 2173 0000 5B636F6D 		.ascii	"[command] error: pointer null !\015\012\000"
 2173      6D616E64 
 2173      5D206572 
 2173      726F723A 
 2173      20706F69 
 2174 0022 0000     		.align	2
 2175              	.LC38:
 2176 0024 5B636F6D 		.ascii	"[command] error: start pos invalid !\015\012\000"
 2176      6D616E64 
 2176      5D206572 
 2176      726F723A 
 2176      20737461 
 2177 004b 00       		.align	2
 2178              	.LC39:
 2179 004c 5B636F6D 		.ascii	"[command] error: copy len invalid !\015\012\000"
 2179      6D616E64 
 2179      5D206572 
 2179      726F723A 
 2179      20636F70 
 2180              		.section	.text.Data_copy_from_pos,"ax",%progbits
 2181              		.align	1
 2182              		.global	Data_copy_from_pos
 2183              		.syntax unified
 2184              		.thumb
 2185              		.thumb_func
 2187              	Data_copy_from_pos:
 2188              	.LVL231:
 2189              	.LFB71:
 185:User/Src/command.c ****     if (dest == NULL || src == NULL)
 2190              		.loc 1 185 1 is_stmt 1 view -0
 2191              		.cfi_startproc
 2192              		@ args = 0, pretend = 0, frame = 0
 2193              		@ frame_needed = 0, uses_anonymous_args = 0
 185:User/Src/command.c ****     if (dest == NULL || src == NULL)
 2194              		.loc 1 185 1 is_stmt 0 view .LVU576
 2195 0000 F8B5     		push	{r3, r4, r5, r6, r7, lr}
 2196              	.LCFI27:
ARM GAS  C:\Users\84759\AppData\Local\Temp\cc7RoKct.s 			page 63


 2197              		.cfi_def_cfa_offset 24
 2198              		.cfi_offset 3, -24
 2199              		.cfi_offset 4, -20
 2200              		.cfi_offset 5, -16
 2201              		.cfi_offset 6, -12
 2202              		.cfi_offset 7, -8
 2203              		.cfi_offset 14, -4
 186:User/Src/command.c ****     {
 2204              		.loc 1 186 5 is_stmt 1 view .LVU577
 186:User/Src/command.c ****     {
 2205              		.loc 1 186 8 is_stmt 0 view .LVU578
 2206 0002 A8B1     		cbz	r0, .L152
 2207 0004 0C46     		mov	r4, r1
 2208 0006 1546     		mov	r5, r2
 2209 0008 1E46     		mov	r6, r3
 2210 000a 0746     		mov	r7, r0
 186:User/Src/command.c ****     {
 2211              		.loc 1 186 22 discriminator 1 view .LVU579
 2212 000c 81B1     		cbz	r1, .L152
 192:User/Src/command.c ****     if (start_pos < 0 || start_pos >= src_len)
 2213              		.loc 1 192 5 is_stmt 1 view .LVU580
 192:User/Src/command.c ****     if (start_pos < 0 || start_pos >= src_len)
 2214              		.loc 1 192 19 is_stmt 0 view .LVU581
 2215 000e 0846     		mov	r0, r1
 2216              	.LVL232:
 192:User/Src/command.c ****     if (start_pos < 0 || start_pos >= src_len)
 2217              		.loc 1 192 19 view .LVU582
 2218 0010 FFF7FEFF 		bl	strlen
 2219              	.LVL233:
 193:User/Src/command.c ****     {
 2220              		.loc 1 193 5 is_stmt 1 view .LVU583
 193:User/Src/command.c ****     {
 2221              		.loc 1 193 8 is_stmt 0 view .LVU584
 2222 0014 8542     		cmp	r5, r0
 2223 0016 10DA     		bge	.L158
 199:User/Src/command.c ****     {
 2224              		.loc 1 199 5 is_stmt 1 view .LVU585
 199:User/Src/command.c ****     {
 2225              		.loc 1 199 36 is_stmt 0 view .LVU586
 2226 0018 7319     		adds	r3, r6, r5
 199:User/Src/command.c ****     {
 2227              		.loc 1 199 8 view .LVU587
 2228 001a 8342     		cmp	r3, r0
 2229 001c 12DC     		bgt	.L159
 205:User/Src/command.c ****     dest[copy_len] = '\0';
 2230              		.loc 1 205 5 is_stmt 1 view .LVU588
 2231 001e 3246     		mov	r2, r6
 2232 0020 6119     		adds	r1, r4, r5
 2233 0022 3846     		mov	r0, r7
 2234              	.LVL234:
 205:User/Src/command.c ****     dest[copy_len] = '\0';
 2235              		.loc 1 205 5 is_stmt 0 view .LVU589
 2236 0024 FFF7FEFF 		bl	memcpy
 2237              	.LVL235:
 206:User/Src/command.c ****     return 1;
 2238              		.loc 1 206 5 is_stmt 1 view .LVU590
 206:User/Src/command.c ****     return 1;
ARM GAS  C:\Users\84759\AppData\Local\Temp\cc7RoKct.s 			page 64


 2239              		.loc 1 206 20 is_stmt 0 view .LVU591
 2240 0028 0023     		movs	r3, #0
 2241 002a BB55     		strb	r3, [r7, r6]
 207:User/Src/command.c **** }
 2242              		.loc 1 207 5 is_stmt 1 view .LVU592
 207:User/Src/command.c **** }
 2243              		.loc 1 207 12 is_stmt 0 view .LVU593
 2244 002c 0120     		movs	r0, #1
 2245              	.LVL236:
 2246              	.L154:
 208:User/Src/command.c **** 
 2247              		.loc 1 208 1 view .LVU594
 2248 002e F8BD     		pop	{r3, r4, r5, r6, r7, pc}
 2249              	.LVL237:
 2250              	.L152:
 188:User/Src/command.c ****         return 0;
 2251              		.loc 1 188 9 is_stmt 1 view .LVU595
 2252 0030 0748     		ldr	r0, .L160
 2253              	.LVL238:
 188:User/Src/command.c ****         return 0;
 2254              		.loc 1 188 9 is_stmt 0 view .LVU596
 2255 0032 FFF7FEFF 		bl	UsbPrintf
 2256              	.LVL239:
 189:User/Src/command.c ****     }
 2257              		.loc 1 189 9 is_stmt 1 view .LVU597
 189:User/Src/command.c ****     }
 2258              		.loc 1 189 16 is_stmt 0 view .LVU598
 2259 0036 0020     		movs	r0, #0
 2260 0038 F9E7     		b	.L154
 2261              	.LVL240:
 2262              	.L158:
 195:User/Src/command.c ****         return 0;
 2263              		.loc 1 195 9 is_stmt 1 view .LVU599
 2264 003a 0648     		ldr	r0, .L160+4
 2265              	.LVL241:
 195:User/Src/command.c ****         return 0;
 2266              		.loc 1 195 9 is_stmt 0 view .LVU600
 2267 003c FFF7FEFF 		bl	UsbPrintf
 2268              	.LVL242:
 196:User/Src/command.c ****     }
 2269              		.loc 1 196 9 is_stmt 1 view .LVU601
 196:User/Src/command.c ****     }
 2270              		.loc 1 196 16 is_stmt 0 view .LVU602
 2271 0040 0020     		movs	r0, #0
 2272 0042 F4E7     		b	.L154
 2273              	.LVL243:
 2274              	.L159:
 201:User/Src/command.c ****         return 0;
 2275              		.loc 1 201 9 is_stmt 1 view .LVU603
 2276 0044 0448     		ldr	r0, .L160+8
 2277              	.LVL244:
 201:User/Src/command.c ****         return 0;
 2278              		.loc 1 201 9 is_stmt 0 view .LVU604
 2279 0046 FFF7FEFF 		bl	UsbPrintf
 2280              	.LVL245:
 202:User/Src/command.c ****     }
 2281              		.loc 1 202 9 is_stmt 1 view .LVU605
ARM GAS  C:\Users\84759\AppData\Local\Temp\cc7RoKct.s 			page 65


 202:User/Src/command.c ****     }
 2282              		.loc 1 202 16 is_stmt 0 view .LVU606
 2283 004a 0020     		movs	r0, #0
 2284 004c EFE7     		b	.L154
 2285              	.L161:
 2286 004e 00BF     		.align	2
 2287              	.L160:
 2288 0050 00000000 		.word	.LC37
 2289 0054 24000000 		.word	.LC38
 2290 0058 4C000000 		.word	.LC39
 2291              		.cfi_endproc
 2292              	.LFE71:
 2294              		.section	.rodata.isFilenameValid.str1.4,"aMS",%progbits,1
 2295              		.align	2
 2296              	.LC40:
 2297 0000 2F5C3A2A 		.ascii	"/\\:*?\"<>|\000"
 2297      3F223C3E 
 2297      7C00
 2298              		.section	.text.isFilenameValid,"ax",%progbits
 2299              		.align	1
 2300              		.global	isFilenameValid
 2301              		.syntax unified
 2302              		.thumb
 2303              		.thumb_func
 2305              	isFilenameValid:
 2306              	.LVL246:
 2307              	.LFB78:
 261:User/Src/command.c ****     if (filename == NULL || strlen(filename) == 0)
 2308              		.loc 1 261 1 is_stmt 1 view -0
 2309              		.cfi_startproc
 2310              		@ args = 0, pretend = 0, frame = 0
 2311              		@ frame_needed = 0, uses_anonymous_args = 0
 262:User/Src/command.c ****         return 0;
 2312              		.loc 1 262 5 view .LVU608
 262:User/Src/command.c ****         return 0;
 2313              		.loc 1 262 8 is_stmt 0 view .LVU609
 2314 0000 88B1     		cbz	r0, .L166
 261:User/Src/command.c ****     if (filename == NULL || strlen(filename) == 0)
 2315              		.loc 1 261 1 discriminator 1 view .LVU610
 2316 0002 38B5     		push	{r3, r4, r5, lr}
 2317              	.LCFI28:
 2318              		.cfi_def_cfa_offset 16
 2319              		.cfi_offset 3, -16
 2320              		.cfi_offset 4, -12
 2321              		.cfi_offset 5, -8
 2322              		.cfi_offset 14, -4
 2323 0004 0546     		mov	r5, r0
 262:User/Src/command.c ****         return 0;
 2324              		.loc 1 262 46 discriminator 1 view .LVU611
 2325 0006 0078     		ldrb	r0, [r0]	@ zero_extendqisi2
 2326              	.LVL247:
 262:User/Src/command.c ****         return 0;
 2327              		.loc 1 262 26 discriminator 1 view .LVU612
 2328 0008 60B1     		cbz	r0, .L163
 2329              	.LBB8:
 265:User/Src/command.c ****     {
 2330              		.loc 1 265 14 view .LVU613
ARM GAS  C:\Users\84759\AppData\Local\Temp\cc7RoKct.s 			page 66


 2331 000a 0024     		movs	r4, #0
 2332 000c 00E0     		b	.L164
 2333              	.LVL248:
 2334              	.L173:
 265:User/Src/command.c ****     {
 2335              		.loc 1 265 42 is_stmt 1 discriminator 2 view .LVU614
 265:User/Src/command.c ****     {
 2336              		.loc 1 265 43 is_stmt 0 discriminator 2 view .LVU615
 2337 000e 0134     		adds	r4, r4, #1
 2338              	.LVL249:
 2339              	.L164:
 265:User/Src/command.c ****     {
 2340              		.loc 1 265 21 is_stmt 1 discriminator 1 view .LVU616
 265:User/Src/command.c ****     {
 2341              		.loc 1 265 29 is_stmt 0 discriminator 1 view .LVU617
 2342 0010 295D     		ldrb	r1, [r5, r4]	@ zero_extendqisi2
 265:User/Src/command.c ****     {
 2343              		.loc 1 265 5 discriminator 1 view .LVU618
 2344 0012 31B1     		cbz	r1, .L172
 267:User/Src/command.c ****             return 0;
 2345              		.loc 1 267 9 is_stmt 1 view .LVU619
 267:User/Src/command.c ****             return 0;
 2346              		.loc 1 267 13 is_stmt 0 view .LVU620
 2347 0014 0548     		ldr	r0, .L174
 2348 0016 FFF7FEFF 		bl	strchr
 2349              	.LVL250:
 267:User/Src/command.c ****             return 0;
 2350              		.loc 1 267 12 view .LVU621
 2351 001a 0028     		cmp	r0, #0
 2352 001c F7D0     		beq	.L173
 268:User/Src/command.c ****     }
 2353              		.loc 1 268 20 view .LVU622
 2354 001e 0020     		movs	r0, #0
 2355 0020 00E0     		b	.L163
 2356              	.L172:
 2357              	.LBE8:
 270:User/Src/command.c **** }
 2358              		.loc 1 270 12 view .LVU623
 2359 0022 0120     		movs	r0, #1
 2360              	.LVL251:
 2361              	.L163:
 271:User/Src/command.c **** 
 2362              		.loc 1 271 1 view .LVU624
 2363 0024 38BD     		pop	{r3, r4, r5, pc}
 2364              	.LVL252:
 2365              	.L166:
 2366              	.LCFI29:
 2367              		.cfi_def_cfa_offset 0
 2368              		.cfi_restore 3
 2369              		.cfi_restore 4
 2370              		.cfi_restore 5
 2371              		.cfi_restore 14
 263:User/Src/command.c **** 
 2372              		.loc 1 263 16 view .LVU625
 2373 0026 0020     		movs	r0, #0
 2374              	.LVL253:
 271:User/Src/command.c **** 
ARM GAS  C:\Users\84759\AppData\Local\Temp\cc7RoKct.s 			page 67


 2375              		.loc 1 271 1 view .LVU626
 2376 0028 7047     		bx	lr
 2377              	.L175:
 2378 002a 00BF     		.align	2
 2379              	.L174:
 2380 002c 00000000 		.word	.LC40
 2381              		.cfi_endproc
 2382              	.LFE78:
 2384              		.section	.rodata.AT_FATFS_WRITE_Handle.str1.4,"aMS",%progbits,1
 2385              		.align	2
 2386              	.LC42:
 2387 0000 5B636F6D 		.ascii	"[command] \264\355\316\363\243\272\316\336\320\247\270"
 2387      6D616E64 
 2387      5D20B4ED 
 2387      CEF3A3BA 
 2387      CEDED0A7 
 2388 0015 F1CABDA3 		.ascii	"\361\312\275\243\241\015\012\000"
 2388      A10D0A00 
 2389 001d 000000   		.align	2
 2390              	.LC43:
 2391 0020 5B636F6D 		.ascii	"[command] \323\303\267\250\243\272AT^FATFS_WRITE=<f"
 2391      6D616E64 
 2391      5D20D3C3 
 2391      B7A8A3BA 
 2391      41545E46 
 2392 0041 696C656E 		.ascii	"ilename>,<data>\015\012\000"
 2392      616D653E 
 2392      2C3C6461 
 2392      74613E0D 
 2392      0A00
 2393 0053 00       		.align	2
 2394              	.LC44:
 2395 0054 5B636F6D 		.ascii	"[command] \264\355\316\363\243\272\262\316\312\375\316"
 2395      6D616E64 
 2395      5D20B4ED 
 2395      CEF3A3BA 
 2395      B2CECAFD 
 2396 0069 AABFD5A3 		.ascii	"\252\277\325\243\241\015\012\000"
 2396      A10D0A00 
 2397 0071 000000   		.align	2
 2398              	.LC45:
 2399 0074 5B636F6D 		.ascii	"[command] \264\355\316\363\243\272\310\261\311\331\262"
 2399      6D616E64 
 2399      5D20B4ED 
 2399      CEF3A3BA 
 2399      C8B1C9D9 
 2400 0089 CECAFDA3 		.ascii	"\316\312\375\243\241\015\012\000"
 2400      A10D0A00 
 2401 0091 000000   		.align	2
 2402              	.LC46:
 2403 0094 2C00     		.ascii	",\000"
 2404 0096 0000     		.align	2
 2405              	.LC47:
 2406 0098 5B636F6D 		.ascii	"[command] \264\355\316\363\243\272\310\261\311\331\266"
 2406      6D616E64 
 2406      5D20B4ED 
 2406      CEF3A3BA 
ARM GAS  C:\Users\84759\AppData\Local\Temp\cc7RoKct.s 			page 68


 2406      C8B1C9D9 
 2407 00ad BABAC5B7 		.ascii	"\272\272\305\267\326\270\364\267\373\243\241\015\012"
 2407      D6B8F4B7 
 2407      FBA3A10D 
 2407      0A
 2408 00ba 00       		.ascii	"\000"
 2409 00bb 00       		.align	2
 2410              	.LC48:
 2411 00bc 5B636F6D 		.ascii	"[command] \264\355\316\363\243\272\316\304\274\376\303"
 2411      6D616E64 
 2411      5D20B4ED 
 2411      CEF3A3BA 
 2411      CEC4BCFE 
 2412 00d1 FBB9FDB3 		.ascii	"\373\271\375\263\244\243\250\327\356\264\363 %d\243"
 2412      A4A3A8D7 
 2412      EEB4F320 
 2412      2564A3
 2413 00e0 A90D0A00 		.ascii	"\251\015\012\000"
 2414              		.align	2
 2415              	.LC49:
 2416 00e4 5B636F6D 		.ascii	"[command] \264\355\316\363\243\272\314\341\310\241\316"
 2416      6D616E64 
 2416      5D20B4ED 
 2416      CEF3A3BA 
 2416      CCE1C8A1 
 2417 00f9 C4BCFEC3 		.ascii	"\304\274\376\303\373\312\247\260\334\015\012\000"
 2417      FBCAA7B0 
 2417      DC0D0A00 
 2418 0105 000000   		.align	2
 2419              	.LC50:
 2420 0108 5B636F6D 		.ascii	"[command] \264\355\316\363\243\272\316\304\274\376\303"
 2420      6D616E64 
 2420      5D20B4ED 
 2420      CEF3A3BA 
 2420      CEC4BCFE 
 2421 011d FBB0FCBA 		.ascii	"\373\260\374\272\254\267\307\267\250\327\326\267\373"
 2421      ACB7C7B7 
 2421      A8D7D6B7 
 2421      FB
 2422 012a 0D0A00   		.ascii	"\015\012\000"
 2423 012d 000000   		.align	2
 2424              	.LC51:
 2425 0130 5B636F6D 		.ascii	"[command] \264\355\316\363\243\272\320\264\310\353\312"
 2425      6D616E64 
 2425      5D20B4ED 
 2425      CEF3A3BA 
 2425      D0B4C8EB 
 2426 0145 FDBEDDCE 		.ascii	"\375\276\335\316\252\277\325\015\012\000"
 2426      AABFD50D 
 2426      0A00
 2427 014f 00       		.align	2
 2428              	.LC52:
 2429 0150 5B636F6D 		.ascii	"[command] \276\257\270\346\243\272\312\375\276\335\271"
 2429      6D616E64 
 2429      5D20BEAF 
 2429      B8E6A3BA 
 2429      CAFDBEDD 
ARM GAS  C:\Users\84759\AppData\Local\Temp\cc7RoKct.s 			page 69


 2430 0165 FDB3A4A3 		.ascii	"\375\263\244\243\254\327\324\266\257\275\330\266\317"
 2430      ACD7D4B6 
 2430      AFBDD8B6 
 2430      CF
 2431 0172 0D0A00   		.ascii	"\015\012\000"
 2432 0175 000000   		.align	2
 2433              	.LC53:
 2434 0178 5B636F6D 		.ascii	"[command] \264\355\316\363\243\272\314\341\310\241\312"
 2434      6D616E64 
 2434      5D20B4ED 
 2434      CEF3A3BA 
 2434      CCE1C8A1 
 2435 018d FDBEDDCA 		.ascii	"\375\276\335\312\247\260\334\015\012\000"
 2435      A7B0DC0D 
 2435      0A00
 2436 0197 00       		.align	2
 2437              	.LC54:
 2438 0198 5B636F6D 		.ascii	"[command] \264\355\316\363\243\272FATFS \316\264\271"
 2438      6D616E64 
 2438      5D20B4ED 
 2438      CEF3A3BA 
 2438      46415446 
 2439 01b1 D2D4D8A3 		.ascii	"\322\324\330\243\241\015\012\000"
 2439      A10D0A00 
 2440 01b9 000000   		.align	2
 2441              	.LC55:
 2442 01bc 0D0A2A2A 		.ascii	"\015\012******[command] \277\252\312\274\316\304\274"
 2442      2A2A2A2A 
 2442      5B636F6D 
 2442      6D616E64 
 2442      5D20BFAA 
 2443 01d5 FED0B4C8 		.ascii	"\376\320\264\310\353 ******\015\012\000"
 2443      EB202A2A 
 2443      2A2A2A2A 
 2443      0D0A00
 2444              		.align	2
 2445              	.LC56:
 2446 01e4 5B636F6D 		.ascii	"[command] \316\304\274\376\303\373: %s\015\012\000"
 2446      6D616E64 
 2446      5D20CEC4 
 2446      BCFEC3FB 
 2446      3A202573 
 2447 01fb 00       		.align	2
 2448              	.LC57:
 2449 01fc 5B636F6D 		.ascii	"[command] \312\375\276\335: %s\015\012\000"
 2449      6D616E64 
 2449      5D20CAFD 
 2449      BEDD3A20 
 2449      25730D0A 
 2450 0211 000000   		.align	2
 2451              	.LC58:
 2452 0214 5B636F6D 		.ascii	"[command] \263\244\266\310: %d \327\326\275\332\015"
 2452      6D616E64 
 2452      5D20B3A4 
 2452      B6C83A20 
 2452      256420D7 
 2453 022c 0A00     		.ascii	"\012\000"
ARM GAS  C:\Users\84759\AppData\Local\Temp\cc7RoKct.s 			page 70


 2454 022e 0000     		.align	2
 2455              	.LC59:
 2456 0230 5B636F6D 		.ascii	"[command] \316\304\274\376\306\360\312\274\264\330\272"
 2456      6D616E64 
 2456      5D20CEC4 
 2456      BCFEC6F0 
 2456      CABCB4D8 
 2457 0245 C5A3BA25 		.ascii	"\305\243\272%lu  \265\261\307\260\320\264\310\353\264"
 2457      6C752020 
 2457      B5B1C7B0 
 2457      D0B4C8EB 
 2457      B4
 2458 0256 D8BAC5A3 		.ascii	"\330\272\305\243\272%lu\015\012\000"
 2458      BA256C75 
 2458      0D0A00
 2459 0261 000000   		.align	2
 2460              	.LC60:
 2461 0264 2A2A2A2A 		.ascii	"******[command] \320\264\310\353\315\352\263\311 **"
 2461      2A2A5B63 
 2461      6F6D6D61 
 2461      6E645D20 
 2461      D0B4C8EB 
 2462 027f 2A2A2A2A 		.ascii	"****\015\012\000"
 2462      0D0A00
 2463 0286 0000     		.align	2
 2464              	.LC61:
 2465 0288 5B636F6D 		.ascii	"[command] \320\264\310\353\312\247\260\334\243\241e"
 2465      6D616E64 
 2465      5D20D0B4 
 2465      C8EBCAA7 
 2465      B0DCA3A1 
 2466 029d 72723D25 		.ascii	"rr=%d \015\012\000"
 2466      64200D0A 
 2466      00
 2467 02a6 0000     		.align	2
 2468              	.LC62:
 2469 02a8 2A2A2A2A 		.ascii	"******[command] \320\264\310\353\312\247\260\334 **"
 2469      2A2A5B63 
 2469      6F6D6D61 
 2469      6E645D20 
 2469      D0B4C8EB 
 2470 02c3 2A2A2A2A 		.ascii	"****\015\012\000"
 2470      0D0A00
 2471 02ca 0000     		.align	2
 2472              	.LC41:
 2473 02cc 41545E46 		.ascii	"AT^FATFS_WRITE=\000"
 2473      41544653 
 2473      5F575249 
 2473      54453D00 
 2474              		.section	.text.AT_FATFS_WRITE_Handle,"ax",%progbits
 2475              		.align	1
 2476              		.global	AT_FATFS_WRITE_Handle
 2477              		.syntax unified
 2478              		.thumb
 2479              		.thumb_func
 2481              	AT_FATFS_WRITE_Handle:
 2482              	.LVL254:
ARM GAS  C:\Users\84759\AppData\Local\Temp\cc7RoKct.s 			page 71


 2483              	.LFB79:
 274:User/Src/command.c ****     if (command == NULL || strlen(command) == 0)
 2484              		.loc 1 274 1 is_stmt 1 view -0
 2485              		.cfi_startproc
 2486              		@ args = 0, pretend = 0, frame = 608
 2487              		@ frame_needed = 0, uses_anonymous_args = 0
 274:User/Src/command.c ****     if (command == NULL || strlen(command) == 0)
 2488              		.loc 1 274 1 is_stmt 0 view .LVU628
 2489 0000 2DE9F041 		push	{r4, r5, r6, r7, r8, lr}
 2490              	.LCFI30:
 2491              		.cfi_def_cfa_offset 24
 2492              		.cfi_offset 4, -24
 2493              		.cfi_offset 5, -20
 2494              		.cfi_offset 6, -16
 2495              		.cfi_offset 7, -12
 2496              		.cfi_offset 8, -8
 2497              		.cfi_offset 14, -4
 2498 0004 ADF5187D 		sub	sp, sp, #608
 2499              	.LCFI31:
 2500              		.cfi_def_cfa_offset 632
 275:User/Src/command.c ****     {
 2501              		.loc 1 275 5 is_stmt 1 view .LVU629
 275:User/Src/command.c ****     {
 2502              		.loc 1 275 8 is_stmt 0 view .LVU630
 2503 0008 0028     		cmp	r0, #0
 2504 000a 00F09580 		beq	.L177
 2505 000e 0546     		mov	r5, r0
 275:User/Src/command.c ****     {
 2506              		.loc 1 275 44 discriminator 1 view .LVU631
 2507 0010 0378     		ldrb	r3, [r0]	@ zero_extendqisi2
 275:User/Src/command.c ****     {
 2508              		.loc 1 275 25 discriminator 1 view .LVU632
 2509 0012 002B     		cmp	r3, #0
 2510 0014 00F09080 		beq	.L177
 281:User/Src/command.c ****     uint16_t header_len = strlen(cmd_header);
 2511              		.loc 1 281 5 is_stmt 1 view .LVU633
 281:User/Src/command.c ****     uint16_t header_len = strlen(cmd_header);
 2512              		.loc 1 281 10 is_stmt 0 view .LVU634
 2513 0018 684B     		ldr	r3, .L206
 2514 001a 94AC     		add	r4, sp, #592
 2515 001c 0FCB     		ldm	r3, {r0, r1, r2, r3}
 2516              	.LVL255:
 281:User/Src/command.c ****     uint16_t header_len = strlen(cmd_header);
 2517              		.loc 1 281 10 view .LVU635
 2518 001e 84E80F00 		stm	r4, {r0, r1, r2, r3}
 282:User/Src/command.c **** 
 2519              		.loc 1 282 5 is_stmt 1 view .LVU636
 282:User/Src/command.c **** 
 2520              		.loc 1 282 27 is_stmt 0 view .LVU637
 2521 0022 2046     		mov	r0, r4
 2522 0024 FFF7FEFF 		bl	strlen
 2523              	.LVL256:
 2524 0028 0646     		mov	r6, r0
 282:User/Src/command.c **** 
 2525              		.loc 1 282 14 view .LVU638
 2526 002a 1FFA80F8 		uxth	r8, r0
 2527              	.LVL257:
ARM GAS  C:\Users\84759\AppData\Local\Temp\cc7RoKct.s 			page 72


 284:User/Src/command.c ****     {
 2528              		.loc 1 284 5 is_stmt 1 view .LVU639
 284:User/Src/command.c ****     {
 2529              		.loc 1 284 9 is_stmt 0 view .LVU640
 2530 002e 2146     		mov	r1, r4
 2531 0030 2846     		mov	r0, r5
 2532 0032 FFF7FEFF 		bl	strSearch
 2533              	.LVL258:
 284:User/Src/command.c ****     {
 2534              		.loc 1 284 8 view .LVU641
 2535 0036 0028     		cmp	r0, #0
 2536 0038 40F08580 		bne	.L195
 291:User/Src/command.c ****     uint16_t data_start = header_len;
 2537              		.loc 1 291 5 is_stmt 1 view .LVU642
 291:User/Src/command.c ****     uint16_t data_start = header_len;
 2538              		.loc 1 291 24 is_stmt 0 view .LVU643
 2539 003c 2846     		mov	r0, r5
 2540 003e FFF7FEFF 		bl	strlen
 2541              	.LVL259:
 291:User/Src/command.c ****     uint16_t data_start = header_len;
 2542              		.loc 1 291 14 view .LVU644
 2543 0042 87B2     		uxth	r7, r0
 2544              	.LVL260:
 292:User/Src/command.c **** 
 2545              		.loc 1 292 5 is_stmt 1 view .LVU645
 294:User/Src/command.c ****     {
 2546              		.loc 1 294 5 view .LVU646
 294:User/Src/command.c ****     {
 2547              		.loc 1 294 8 is_stmt 0 view .LVU647
 2548 0044 B845     		cmp	r8, r7
 2549 0046 80F08580 		bcs	.L196
 300:User/Src/command.c ****     if (strlen(param_part) == 0)
 2550              		.loc 1 300 5 is_stmt 1 view .LVU648
 300:User/Src/command.c ****     if (strlen(param_part) == 0)
 2551              		.loc 1 300 11 is_stmt 0 view .LVU649
 2552 004a A819     		adds	r0, r5, r6
 2553              	.LVL261:
 301:User/Src/command.c ****     {
 2554              		.loc 1 301 5 is_stmt 1 view .LVU650
 301:User/Src/command.c ****     {
 2555              		.loc 1 301 28 is_stmt 0 view .LVU651
 2556 004c AB5D     		ldrb	r3, [r5, r6]	@ zero_extendqisi2
 301:User/Src/command.c ****     {
 2557              		.loc 1 301 8 view .LVU652
 2558 004e 002B     		cmp	r3, #0
 2559 0050 00F08480 		beq	.L197
 307:User/Src/command.c ****     if (comma_pos == -1)
 2560              		.loc 1 307 5 is_stmt 1 view .LVU653
 307:User/Src/command.c ****     if (comma_pos == -1)
 2561              		.loc 1 307 21 is_stmt 0 view .LVU654
 2562 0054 5A49     		ldr	r1, .L206+4
 2563 0056 FFF7FEFF 		bl	strSearch
 2564              	.LVL262:
 308:User/Src/command.c ****     {
 2565              		.loc 1 308 5 is_stmt 1 view .LVU655
 308:User/Src/command.c ****     {
 2566              		.loc 1 308 8 is_stmt 0 view .LVU656
ARM GAS  C:\Users\84759\AppData\Local\Temp\cc7RoKct.s 			page 73


 2567 005a B0F1FF3F 		cmp	r0, #-1
 2568 005e 00F08180 		beq	.L198
 314:User/Src/command.c ****     if (comma_pos > MAX_FILENAME_LEN)
 2569              		.loc 1 314 5 is_stmt 1 view .LVU657
 314:User/Src/command.c ****     if (comma_pos > MAX_FILENAME_LEN)
 2570              		.loc 1 314 10 is_stmt 0 view .LVU658
 2571 0062 0023     		movs	r3, #0
 2572 0064 8C93     		str	r3, [sp, #560]
 2573 0066 8D93     		str	r3, [sp, #564]
 2574 0068 8E93     		str	r3, [sp, #568]
 2575 006a 8F93     		str	r3, [sp, #572]
 2576 006c 9093     		str	r3, [sp, #576]
 2577 006e 9193     		str	r3, [sp, #580]
 2578 0070 9293     		str	r3, [sp, #584]
 2579 0072 9393     		str	r3, [sp, #588]
 315:User/Src/command.c ****     {
 2580              		.loc 1 315 5 is_stmt 1 view .LVU659
 315:User/Src/command.c ****     {
 2581              		.loc 1 315 8 is_stmt 0 view .LVU660
 2582 0074 1F28     		cmp	r0, #31
 2583 0076 79DC     		bgt	.L199
 321:User/Src/command.c ****     {
 2584              		.loc 1 321 5 is_stmt 1 view .LVU661
 321:User/Src/command.c ****     {
 2585              		.loc 1 321 10 is_stmt 0 view .LVU662
 2586 0078 84B2     		uxth	r4, r0
 2587 007a 2346     		mov	r3, r4
 2588 007c 4246     		mov	r2, r8
 2589 007e 2946     		mov	r1, r5
 2590 0080 8CA8     		add	r0, sp, #560
 2591              	.LVL263:
 321:User/Src/command.c ****     {
 2592              		.loc 1 321 10 view .LVU663
 2593 0082 FFF7FEFF 		bl	Data_copy_from_pos
 2594              	.LVL264:
 321:User/Src/command.c ****     {
 2595              		.loc 1 321 8 view .LVU664
 2596 0086 0028     		cmp	r0, #0
 2597 0088 75D0     		beq	.L200
 327:User/Src/command.c ****     {
 2598              		.loc 1 327 5 is_stmt 1 view .LVU665
 327:User/Src/command.c ****     {
 2599              		.loc 1 327 10 is_stmt 0 view .LVU666
 2600 008a 8CA8     		add	r0, sp, #560
 2601 008c FFF7FEFF 		bl	isFilenameValid
 2602              	.LVL265:
 327:User/Src/command.c ****     {
 2603              		.loc 1 327 8 view .LVU667
 2604 0090 0028     		cmp	r0, #0
 2605 0092 74D0     		beq	.L201
 333:User/Src/command.c ****     uint16_t data_len = cmd_len - data_pos;
 2606              		.loc 1 333 5 is_stmt 1 view .LVU668
 333:User/Src/command.c ****     uint16_t data_len = cmd_len - data_pos;
 2607              		.loc 1 333 36 is_stmt 0 view .LVU669
 2608 0094 4444     		add	r4, r4, r8
 2609 0096 A4B2     		uxth	r4, r4
 333:User/Src/command.c ****     uint16_t data_len = cmd_len - data_pos;
ARM GAS  C:\Users\84759\AppData\Local\Temp\cc7RoKct.s 			page 74


 2610              		.loc 1 333 14 view .LVU670
 2611 0098 0134     		adds	r4, r4, #1
 2612 009a A4B2     		uxth	r4, r4
 2613              	.LVL266:
 334:User/Src/command.c **** 
 2614              		.loc 1 334 5 is_stmt 1 view .LVU671
 334:User/Src/command.c **** 
 2615              		.loc 1 334 14 is_stmt 0 view .LVU672
 2616 009c 3F1B     		subs	r7, r7, r4
 2617              	.LVL267:
 334:User/Src/command.c **** 
 2618              		.loc 1 334 14 view .LVU673
 2619 009e BFB2     		uxth	r7, r7
 2620              	.LVL268:
 336:User/Src/command.c ****     {
 2621              		.loc 1 336 5 is_stmt 1 view .LVU674
 336:User/Src/command.c ****     {
 2622              		.loc 1 336 8 is_stmt 0 view .LVU675
 2623 00a0 002F     		cmp	r7, #0
 2624 00a2 70D0     		beq	.L202
 342:User/Src/command.c ****     {
 2625              		.loc 1 342 5 is_stmt 1 view .LVU676
 342:User/Src/command.c ****     {
 2626              		.loc 1 342 8 is_stmt 0 view .LVU677
 2627 00a4 B7F5007F 		cmp	r7, #512
 2628 00a8 71D2     		bcs	.L203
 2629              	.LVL269:
 2630              	.L188:
 348:User/Src/command.c ****     if (!Data_copy_from_pos(write_data, command, data_pos, data_len))
 2631              		.loc 1 348 5 is_stmt 1 view .LVU678
 348:User/Src/command.c ****     if (!Data_copy_from_pos(write_data, command, data_pos, data_len))
 2632              		.loc 1 348 10 is_stmt 0 view .LVU679
 2633 00aa 0021     		movs	r1, #0
 2634 00ac 0C91     		str	r1, [sp, #48]
 2635 00ae 4FF4FE72 		mov	r2, #508
 2636 00b2 0DA8     		add	r0, sp, #52
 2637 00b4 FFF7FEFF 		bl	memset
 2638              	.LVL270:
 349:User/Src/command.c ****     {
 2639              		.loc 1 349 5 is_stmt 1 view .LVU680
 349:User/Src/command.c ****     {
 2640              		.loc 1 349 10 is_stmt 0 view .LVU681
 2641 00b8 3B46     		mov	r3, r7
 2642 00ba 2246     		mov	r2, r4
 2643 00bc 2946     		mov	r1, r5
 2644 00be 0CA8     		add	r0, sp, #48
 2645 00c0 FFF7FEFF 		bl	Data_copy_from_pos
 2646              	.LVL271:
 349:User/Src/command.c ****     {
 2647              		.loc 1 349 8 view .LVU682
 2648 00c4 0028     		cmp	r0, #0
 2649 00c6 68D0     		beq	.L204
 355:User/Src/command.c ****     if (!FatFs_GetInfo(&fs_info))
 2650              		.loc 1 355 5 is_stmt 1 view .LVU683
 355:User/Src/command.c ****     if (!FatFs_GetInfo(&fs_info))
 2651              		.loc 1 355 18 is_stmt 0 view .LVU684
 2652 00c8 2022     		movs	r2, #32
ARM GAS  C:\Users\84759\AppData\Local\Temp\cc7RoKct.s 			page 75


 2653 00ca 0021     		movs	r1, #0
 2654 00cc 04A8     		add	r0, sp, #16
 2655 00ce FFF7FEFF 		bl	memset
 2656              	.LVL272:
 356:User/Src/command.c ****     {
 2657              		.loc 1 356 5 is_stmt 1 view .LVU685
 356:User/Src/command.c ****     {
 2658              		.loc 1 356 10 is_stmt 0 view .LVU686
 2659 00d2 04A8     		add	r0, sp, #16
 2660 00d4 FFF7FEFF 		bl	FatFs_GetInfo
 2661              	.LVL273:
 356:User/Src/command.c ****     {
 2662              		.loc 1 356 8 view .LVU687
 2663 00d8 0028     		cmp	r0, #0
 2664 00da 62D0     		beq	.L205
 362:User/Src/command.c ****     UsbPrintf("[command] ÎÄĽţĂű: %s\r\n", filename);
 2665              		.loc 1 362 5 is_stmt 1 view .LVU688
 2666 00dc 3948     		ldr	r0, .L206+8
 2667 00de FFF7FEFF 		bl	UsbPrintf
 2668              	.LVL274:
 363:User/Src/command.c ****     UsbPrintf("[command] ĘýľÝ: %s\r\n", write_data);
 2669              		.loc 1 363 5 view .LVU689
 2670 00e2 8CA9     		add	r1, sp, #560
 2671 00e4 3848     		ldr	r0, .L206+12
 2672 00e6 FFF7FEFF 		bl	UsbPrintf
 2673              	.LVL275:
 364:User/Src/command.c ****     UsbPrintf("[command] ł¤¶Č: %d ×Ö˝Ú\r\n", data_len);
 2674              		.loc 1 364 5 view .LVU690
 2675 00ea 0CA9     		add	r1, sp, #48
 2676 00ec 3748     		ldr	r0, .L206+16
 2677 00ee FFF7FEFF 		bl	UsbPrintf
 2678              	.LVL276:
 365:User/Src/command.c **** 
 2679              		.loc 1 365 5 view .LVU691
 2680 00f2 3946     		mov	r1, r7
 2681 00f4 3648     		ldr	r0, .L206+20
 2682 00f6 FFF7FEFF 		bl	UsbPrintf
 2683              	.LVL277:
 367:User/Src/command.c ****     File_Write_Result_t write_result = {0};
 2684              		.loc 1 367 5 view .LVU692
 2685 00fa 3648     		ldr	r0, .L206+24
 2686 00fc FFF7FEFF 		bl	f_close
 2687              	.LVL278:
 368:User/Src/command.c ****     retUSER = FatFs_FileWrite(filename, write_data, (UINT)data_len, &write_result);
 2688              		.loc 1 368 5 view .LVU693
 368:User/Src/command.c ****     retUSER = FatFs_FileWrite(filename, write_data, (UINT)data_len, &write_result);
 2689              		.loc 1 368 25 is_stmt 0 view .LVU694
 2690 0100 0023     		movs	r3, #0
 2691 0102 0093     		str	r3, [sp]
 2692 0104 0193     		str	r3, [sp, #4]
 2693 0106 0293     		str	r3, [sp, #8]
 2694 0108 0393     		str	r3, [sp, #12]
 369:User/Src/command.c **** 
 2695              		.loc 1 369 5 is_stmt 1 view .LVU695
 369:User/Src/command.c **** 
 2696              		.loc 1 369 15 is_stmt 0 view .LVU696
 2697 010a 6B46     		mov	r3, sp
ARM GAS  C:\Users\84759\AppData\Local\Temp\cc7RoKct.s 			page 76


 2698 010c 3A46     		mov	r2, r7
 2699 010e 0CA9     		add	r1, sp, #48
 2700 0110 8CA8     		add	r0, sp, #560
 2701 0112 FFF7FEFF 		bl	FatFs_FileWrite
 2702              	.LVL279:
 369:User/Src/command.c **** 
 2703              		.loc 1 369 13 view .LVU697
 2704 0116 304B     		ldr	r3, .L206+28
 2705 0118 1870     		strb	r0, [r3]
 371:User/Src/command.c ****     {
 2706              		.loc 1 371 5 is_stmt 1 view .LVU698
 371:User/Src/command.c ****     {
 2707              		.loc 1 371 8 is_stmt 0 view .LVU699
 2708 011a 0028     		cmp	r0, #0
 2709 011c 45D1     		bne	.L191
 373:User/Src/command.c ****         UsbPrintf("[command] ÎÄĽţĆđĘĽ´ŘşĹŁş%lu  µ±Ç°Đ´Čë´ŘşĹŁş%lu\r\n",
 2710              		.loc 1 373 9 is_stmt 1 view .LVU700
 2711 011e 0199     		ldr	r1, [sp, #4]
 2712 0120 2E48     		ldr	r0, .L206+32
 2713 0122 FFF7FEFF 		bl	UsbPrintf
 2714              	.LVL280:
 374:User/Src/command.c ****                   write_result.start_cluster, write_result.curr_cluster);
 2715              		.loc 1 374 9 view .LVU701
 2716 0126 039A     		ldr	r2, [sp, #12]
 2717 0128 0299     		ldr	r1, [sp, #8]
 2718 012a 2D48     		ldr	r0, .L206+36
 2719 012c FFF7FEFF 		bl	UsbPrintf
 2720              	.LVL281:
 376:User/Src/command.c ****     }
 2721              		.loc 1 376 9 view .LVU702
 2722 0130 2C48     		ldr	r0, .L206+40
 2723 0132 FFF7FEFF 		bl	UsbPrintf
 2724              	.LVL282:
 2725 0136 02E0     		b	.L176
 2726              	.LVL283:
 2727              	.L177:
 277:User/Src/command.c ****         return;
 2728              		.loc 1 277 9 view .LVU703
 2729 0138 2B48     		ldr	r0, .L206+44
 2730              	.LVL284:
 277:User/Src/command.c ****         return;
 2731              		.loc 1 277 9 is_stmt 0 view .LVU704
 2732 013a FFF7FEFF 		bl	UsbPrintf
 2733              	.LVL285:
 278:User/Src/command.c ****     }
 2734              		.loc 1 278 9 is_stmt 1 view .LVU705
 2735              	.L176:
 383:User/Src/command.c **** 
 2736              		.loc 1 383 1 is_stmt 0 view .LVU706
 2737 013e 0DF5187D 		add	sp, sp, #608
 2738              	.LCFI32:
 2739              		.cfi_remember_state
 2740              		.cfi_def_cfa_offset 24
 2741              		@ sp needed
 2742 0142 BDE8F081 		pop	{r4, r5, r6, r7, r8, pc}
 2743              	.LVL286:
 2744              	.L195:
ARM GAS  C:\Users\84759\AppData\Local\Temp\cc7RoKct.s 			page 77


 2745              	.LCFI33:
 2746              		.cfi_restore_state
 286:User/Src/command.c ****         UsbPrintf("[command] ÓĂ·¨ŁşAT^FATFS_WRITE=<filename>,<data>\r\n");
 2747              		.loc 1 286 9 is_stmt 1 view .LVU707
 2748 0146 2948     		ldr	r0, .L206+48
 2749 0148 FFF7FEFF 		bl	UsbPrintf
 2750              	.LVL287:
 287:User/Src/command.c ****         return;
 2751              		.loc 1 287 9 view .LVU708
 2752 014c 2848     		ldr	r0, .L206+52
 2753 014e FFF7FEFF 		bl	UsbPrintf
 2754              	.LVL288:
 288:User/Src/command.c ****     }
 2755              		.loc 1 288 9 view .LVU709
 2756 0152 F4E7     		b	.L176
 2757              	.LVL289:
 2758              	.L196:
 296:User/Src/command.c ****         return;
 2759              		.loc 1 296 9 view .LVU710
 2760 0154 2748     		ldr	r0, .L206+56
 2761 0156 FFF7FEFF 		bl	UsbPrintf
 2762              	.LVL290:
 297:User/Src/command.c ****     }
 2763              		.loc 1 297 9 view .LVU711
 2764 015a F0E7     		b	.L176
 2765              	.LVL291:
 2766              	.L197:
 303:User/Src/command.c ****         return;
 2767              		.loc 1 303 9 view .LVU712
 2768 015c 2648     		ldr	r0, .L206+60
 2769              	.LVL292:
 303:User/Src/command.c ****         return;
 2770              		.loc 1 303 9 is_stmt 0 view .LVU713
 2771 015e FFF7FEFF 		bl	UsbPrintf
 2772              	.LVL293:
 304:User/Src/command.c ****     }
 2773              		.loc 1 304 9 is_stmt 1 view .LVU714
 2774 0162 ECE7     		b	.L176
 2775              	.LVL294:
 2776              	.L198:
 310:User/Src/command.c ****         return;
 2777              		.loc 1 310 9 view .LVU715
 2778 0164 2548     		ldr	r0, .L206+64
 2779              	.LVL295:
 310:User/Src/command.c ****         return;
 2780              		.loc 1 310 9 is_stmt 0 view .LVU716
 2781 0166 FFF7FEFF 		bl	UsbPrintf
 2782              	.LVL296:
 311:User/Src/command.c ****     }
 2783              		.loc 1 311 9 is_stmt 1 view .LVU717
 2784 016a E8E7     		b	.L176
 2785              	.LVL297:
 2786              	.L199:
 317:User/Src/command.c ****         return;
 2787              		.loc 1 317 9 view .LVU718
 2788 016c 1F21     		movs	r1, #31
 2789 016e 2448     		ldr	r0, .L206+68
ARM GAS  C:\Users\84759\AppData\Local\Temp\cc7RoKct.s 			page 78


 2790              	.LVL298:
 317:User/Src/command.c ****         return;
 2791              		.loc 1 317 9 is_stmt 0 view .LVU719
 2792 0170 FFF7FEFF 		bl	UsbPrintf
 2793              	.LVL299:
 318:User/Src/command.c ****     }
 2794              		.loc 1 318 9 is_stmt 1 view .LVU720
 2795 0174 E3E7     		b	.L176
 2796              	.L200:
 323:User/Src/command.c ****         return;
 2797              		.loc 1 323 9 view .LVU721
 2798 0176 2348     		ldr	r0, .L206+72
 2799 0178 FFF7FEFF 		bl	UsbPrintf
 2800              	.LVL300:
 324:User/Src/command.c ****     }
 2801              		.loc 1 324 9 view .LVU722
 2802 017c DFE7     		b	.L176
 2803              	.L201:
 329:User/Src/command.c ****         return;
 2804              		.loc 1 329 9 view .LVU723
 2805 017e 2248     		ldr	r0, .L206+76
 2806 0180 FFF7FEFF 		bl	UsbPrintf
 2807              	.LVL301:
 330:User/Src/command.c ****     }
 2808              		.loc 1 330 9 view .LVU724
 2809 0184 DBE7     		b	.L176
 2810              	.LVL302:
 2811              	.L202:
 338:User/Src/command.c ****         return;
 2812              		.loc 1 338 9 view .LVU725
 2813 0186 2148     		ldr	r0, .L206+80
 2814 0188 FFF7FEFF 		bl	UsbPrintf
 2815              	.LVL303:
 339:User/Src/command.c ****     }
 2816              		.loc 1 339 9 view .LVU726
 2817 018c D7E7     		b	.L176
 2818              	.L203:
 344:User/Src/command.c ****         data_len = MAX_WRITE_DATA_LEN;
 2819              		.loc 1 344 9 view .LVU727
 2820 018e 2048     		ldr	r0, .L206+84
 2821 0190 FFF7FEFF 		bl	UsbPrintf
 2822              	.LVL304:
 345:User/Src/command.c ****     }
 2823              		.loc 1 345 9 view .LVU728
 345:User/Src/command.c ****     }
 2824              		.loc 1 345 18 is_stmt 0 view .LVU729
 2825 0194 40F2FF17 		movw	r7, #511
 2826 0198 87E7     		b	.L188
 2827              	.LVL305:
 2828              	.L204:
 351:User/Src/command.c ****         return;
 2829              		.loc 1 351 9 is_stmt 1 view .LVU730
 2830 019a 1E48     		ldr	r0, .L206+88
 2831 019c FFF7FEFF 		bl	UsbPrintf
 2832              	.LVL306:
 352:User/Src/command.c ****     }
 2833              		.loc 1 352 9 view .LVU731
ARM GAS  C:\Users\84759\AppData\Local\Temp\cc7RoKct.s 			page 79


 2834 01a0 CDE7     		b	.L176
 2835              	.L205:
 358:User/Src/command.c ****         return;
 2836              		.loc 1 358 9 view .LVU732
 2837 01a2 1D48     		ldr	r0, .L206+92
 2838 01a4 FFF7FEFF 		bl	UsbPrintf
 2839              	.LVL307:
 359:User/Src/command.c ****     }
 2840              		.loc 1 359 9 view .LVU733
 2841 01a8 C9E7     		b	.L176
 2842              	.L191:
 380:User/Src/command.c ****         UsbPrintf("******[command] Đ´ČëĘ§°Ü ******\r\n");
 2843              		.loc 1 380 9 view .LVU734
 2844 01aa 0146     		mov	r1, r0
 2845 01ac 1B48     		ldr	r0, .L206+96
 2846 01ae FFF7FEFF 		bl	UsbPrintf
 2847              	.LVL308:
 381:User/Src/command.c ****     }
 2848              		.loc 1 381 9 view .LVU735
 2849 01b2 1B48     		ldr	r0, .L206+100
 2850 01b4 FFF7FEFF 		bl	UsbPrintf
 2851              	.LVL309:
 2852 01b8 C1E7     		b	.L176
 2853              	.L207:
 2854 01ba 00BF     		.align	2
 2855              	.L206:
 2856 01bc CC020000 		.word	.LC41
 2857 01c0 94000000 		.word	.LC46
 2858 01c4 BC010000 		.word	.LC55
 2859 01c8 E4010000 		.word	.LC56
 2860 01cc FC010000 		.word	.LC57
 2861 01d0 14020000 		.word	.LC58
 2862 01d4 00000000 		.word	USERFile
 2863 01d8 00000000 		.word	retUSER
 2864 01dc 40010000 		.word	.LC21
 2865 01e0 30020000 		.word	.LC59
 2866 01e4 64020000 		.word	.LC60
 2867 01e8 00000000 		.word	.LC6
 2868 01ec 00000000 		.word	.LC42
 2869 01f0 20000000 		.word	.LC43
 2870 01f4 54000000 		.word	.LC44
 2871 01f8 74000000 		.word	.LC45
 2872 01fc 98000000 		.word	.LC47
 2873 0200 BC000000 		.word	.LC48
 2874 0204 E4000000 		.word	.LC49
 2875 0208 08010000 		.word	.LC50
 2876 020c 30010000 		.word	.LC51
 2877 0210 50010000 		.word	.LC52
 2878 0214 78010000 		.word	.LC53
 2879 0218 98010000 		.word	.LC54
 2880 021c 88020000 		.word	.LC61
 2881 0220 A8020000 		.word	.LC62
 2882              		.cfi_endproc
 2883              	.LFE79:
 2885              		.section	.text.HAL_UART_RxCpltCallback,"ax",%progbits
 2886              		.align	1
 2887              		.global	HAL_UART_RxCpltCallback
ARM GAS  C:\Users\84759\AppData\Local\Temp\cc7RoKct.s 			page 80


 2888              		.syntax unified
 2889              		.thumb
 2890              		.thumb_func
 2892              	HAL_UART_RxCpltCallback:
 2893              	.LVL310:
 2894              	.LFB85:
 622:User/Src/command.c **** 
 623:User/Src/command.c **** typedef void(*CmdFunc)(char*);
 624:User/Src/command.c **** 
 625:User/Src/command.c **** static CmdFunc UsbCommand[MAX_COMMAND_NUMBER] = {
 626:User/Src/command.c ****     AT_HELP_Handle,
 627:User/Src/command.c ****     AT_TEST_Handle,
 628:User/Src/command.c ****     AT_W25Q64_EraseChip_Handle,
 629:User/Src/command.c ****     AT_FATFS_ListDir_Handle,
 630:User/Src/command.c ****     AT_FATFS_MOUNT_Handle,
 631:User/Src/command.c ****     AT_FATFS_FORMAT_Handle,
 632:User/Src/command.c ****     AT_FATFS_WRITE_Handle,
 633:User/Src/command.c ****     AT_FATFS_READ_Handle,
 634:User/Src/command.c ****     AT_FATFS_CluWrite_Handle,
 635:User/Src/command.c ****     AT_FATFS_GetTime_Handle,
 636:User/Src/command.c **** };
 637:User/Src/command.c **** 
 638:User/Src/command.c **** void HAL_UART_RxCpltCallback(UART_HandleTypeDef *huart)
 639:User/Src/command.c **** {
 2895              		.loc 1 639 1 view -0
 2896              		.cfi_startproc
 2897              		@ args = 0, pretend = 0, frame = 0
 2898              		@ frame_needed = 0, uses_anonymous_args = 0
 2899              		.loc 1 639 1 is_stmt 0 view .LVU737
 2900 0000 10B5     		push	{r4, lr}
 2901              	.LCFI34:
 2902              		.cfi_def_cfa_offset 8
 2903              		.cfi_offset 4, -8
 2904              		.cfi_offset 14, -4
 2905 0002 0446     		mov	r4, r0
 640:User/Src/command.c ****     if (huart->Instance == USART1)
 2906              		.loc 1 640 5 is_stmt 1 view .LVU738
 2907              		.loc 1 640 14 is_stmt 0 view .LVU739
 2908 0004 0268     		ldr	r2, [r0]
 2909              		.loc 1 640 8 view .LVU740
 2910 0006 224B     		ldr	r3, .L218
 2911 0008 9A42     		cmp	r2, r3
 2912 000a 04D0     		beq	.L216
 2913              	.LVL311:
 2914              	.L209:
 641:User/Src/command.c ****     {
 642:User/Src/command.c ****         if (usb_Rx_Cnt < UART_RECEIVE_BUFF_NUMBER && g_UsbATStatus == 0)
 643:User/Src/command.c ****         {
 644:User/Src/command.c ****             g_UsbRxBuff[usb_Rx_Cnt++] = usbRxBuf;
 645:User/Src/command.c ****         }
 646:User/Src/command.c **** 
 647:User/Src/command.c ****         if (usb_Rx_Cnt >= UART_RECEIVE_BUFF_NUMBER || usbRxBuf == '\r' || usbRxBuf == '\n')
 648:User/Src/command.c ****         {
 649:User/Src/command.c ****             g_UsbATStatus = 1;
 650:User/Src/command.c ****         }
 651:User/Src/command.c **** 
 652:User/Src/command.c ****         HAL_UART_Receive_IT(&huart1, &usbRxBuf, 1);
ARM GAS  C:\Users\84759\AppData\Local\Temp\cc7RoKct.s 			page 81


 653:User/Src/command.c ****     }
 654:User/Src/command.c **** 
 655:User/Src/command.c ****     if(huart->Instance == USART2)
 2915              		.loc 1 655 5 is_stmt 1 view .LVU741
 2916              		.loc 1 655 13 is_stmt 0 view .LVU742
 2917 000c 2268     		ldr	r2, [r4]
 2918              		.loc 1 655 7 view .LVU743
 2919 000e 214B     		ldr	r3, .L218+4
 2920 0010 9A42     		cmp	r2, r3
 2921 0012 21D0     		beq	.L217
 2922              	.L208:
 656:User/Src/command.c ****     {
 657:User/Src/command.c ****         // ĽĆËăĎÂŇ»¸ö head Î»ÖĂ
 658:User/Src/command.c ****         uint16_t next_head = (uart2_rx_ringbuf.head + 1) % UART2_RX_BUF_SIZE;
 659:User/Src/command.c **** 
 660:User/Src/command.c ****         // »şłĺÇř˛»ÂúľÍ´ć
 661:User/Src/command.c ****         if(next_head != uart2_rx_ringbuf.tail)
 662:User/Src/command.c ****         {
 663:User/Src/command.c ****             uart2_rx_ringbuf.head = next_head;
 664:User/Src/command.c ****         }
 665:User/Src/command.c **** 
 666:User/Src/command.c ****         // ÖŘĐÂżŞĆôĎÂŇ»´Î˝ÓĘŐ
 667:User/Src/command.c ****         HAL_UART_Receive_IT(&huart2, &uart2_rx_ringbuf.buffer[uart2_rx_ringbuf.head], 1);
 668:User/Src/command.c ****     }
 669:User/Src/command.c **** }
 2923              		.loc 1 669 1 view .LVU744
 2924 0014 10BD     		pop	{r4, pc}
 2925              	.LVL312:
 2926              	.L216:
 642:User/Src/command.c ****         {
 2927              		.loc 1 642 9 is_stmt 1 view .LVU745
 642:User/Src/command.c ****         {
 2928              		.loc 1 642 24 is_stmt 0 view .LVU746
 2929 0016 204B     		ldr	r3, .L218+8
 2930 0018 1B88     		ldrh	r3, [r3]
 642:User/Src/command.c ****         {
 2931              		.loc 1 642 12 view .LVU747
 2932 001a FF2B     		cmp	r3, #255
 2933 001c 09D8     		bhi	.L210
 642:User/Src/command.c ****         {
 2934              		.loc 1 642 68 discriminator 1 view .LVU748
 2935 001e 1F4A     		ldr	r2, .L218+12
 2936 0020 1278     		ldrb	r2, [r2]	@ zero_extendqisi2
 642:User/Src/command.c ****         {
 2937              		.loc 1 642 51 discriminator 1 view .LVU749
 2938 0022 32B9     		cbnz	r2, .L210
 644:User/Src/command.c ****         }
 2939              		.loc 1 644 13 is_stmt 1 view .LVU750
 644:User/Src/command.c ****         }
 2940              		.loc 1 644 35 is_stmt 0 view .LVU751
 2941 0024 591C     		adds	r1, r3, #1
 2942 0026 1C4A     		ldr	r2, .L218+8
 2943 0028 1180     		strh	r1, [r2]	@ movhi
 644:User/Src/command.c ****         }
 2944              		.loc 1 644 39 view .LVU752
 2945 002a 1D4A     		ldr	r2, .L218+16
 2946 002c 1178     		ldrb	r1, [r2]	@ zero_extendqisi2
ARM GAS  C:\Users\84759\AppData\Local\Temp\cc7RoKct.s 			page 82


 2947 002e 1D4A     		ldr	r2, .L218+20
 2948 0030 D154     		strb	r1, [r2, r3]
 2949              	.L210:
 647:User/Src/command.c ****         {
 2950              		.loc 1 647 9 is_stmt 1 view .LVU753
 647:User/Src/command.c ****         {
 2951              		.loc 1 647 24 is_stmt 0 view .LVU754
 2952 0032 194B     		ldr	r3, .L218+8
 2953 0034 1B88     		ldrh	r3, [r3]
 647:User/Src/command.c ****         {
 2954              		.loc 1 647 12 view .LVU755
 2955 0036 FF2B     		cmp	r3, #255
 2956 0038 05D8     		bhi	.L211
 647:User/Src/command.c ****         {
 2957              		.loc 1 647 64 discriminator 1 view .LVU756
 2958 003a 194B     		ldr	r3, .L218+16
 2959 003c 1B78     		ldrb	r3, [r3]	@ zero_extendqisi2
 647:User/Src/command.c ****         {
 2960              		.loc 1 647 52 discriminator 1 view .LVU757
 2961 003e 0D2B     		cmp	r3, #13
 2962 0040 01D0     		beq	.L211
 647:User/Src/command.c ****         {
 2963              		.loc 1 647 72 discriminator 2 view .LVU758
 2964 0042 0A2B     		cmp	r3, #10
 2965 0044 02D1     		bne	.L212
 2966              	.L211:
 649:User/Src/command.c ****         }
 2967              		.loc 1 649 13 is_stmt 1 view .LVU759
 649:User/Src/command.c ****         }
 2968              		.loc 1 649 27 is_stmt 0 view .LVU760
 2969 0046 154B     		ldr	r3, .L218+12
 2970 0048 0122     		movs	r2, #1
 2971 004a 1A70     		strb	r2, [r3]
 2972              	.L212:
 652:User/Src/command.c ****     }
 2973              		.loc 1 652 9 is_stmt 1 view .LVU761
 2974 004c 0122     		movs	r2, #1
 2975 004e 1449     		ldr	r1, .L218+16
 2976 0050 1548     		ldr	r0, .L218+24
 2977              	.LVL313:
 652:User/Src/command.c ****     }
 2978              		.loc 1 652 9 is_stmt 0 view .LVU762
 2979 0052 FFF7FEFF 		bl	HAL_UART_Receive_IT
 2980              	.LVL314:
 2981 0056 D9E7     		b	.L209
 2982              	.L217:
 2983              	.LBB9:
 658:User/Src/command.c **** 
 2984              		.loc 1 658 9 is_stmt 1 view .LVU763
 658:User/Src/command.c **** 
 2985              		.loc 1 658 47 is_stmt 0 view .LVU764
 2986 0058 1449     		ldr	r1, .L218+28
 2987 005a B1F80031 		ldrh	r3, [r1, #256]
 2988 005e 9BB2     		uxth	r3, r3
 658:User/Src/command.c **** 
 2989              		.loc 1 658 53 view .LVU765
 2990 0060 0133     		adds	r3, r3, #1
ARM GAS  C:\Users\84759\AppData\Local\Temp\cc7RoKct.s 			page 83


 658:User/Src/command.c **** 
 2991              		.loc 1 658 58 view .LVU766
 2992 0062 5A42     		rsbs	r2, r3, #0
 2993 0064 DBB2     		uxtb	r3, r3
 2994 0066 D2B2     		uxtb	r2, r2
 2995 0068 58BF     		it	pl
 2996 006a 5342     		rsbpl	r3, r2, #0
 658:User/Src/command.c **** 
 2997              		.loc 1 658 18 view .LVU767
 2998 006c 9BB2     		uxth	r3, r3
 2999              	.LVL315:
 661:User/Src/command.c ****         {
 3000              		.loc 1 661 9 is_stmt 1 view .LVU768
 661:User/Src/command.c ****         {
 3001              		.loc 1 661 41 is_stmt 0 view .LVU769
 3002 006e B1F80221 		ldrh	r2, [r1, #258]
 3003 0072 92B2     		uxth	r2, r2
 661:User/Src/command.c ****         {
 3004              		.loc 1 661 11 view .LVU770
 3005 0074 9A42     		cmp	r2, r3
 3006 0076 01D0     		beq	.L214
 663:User/Src/command.c ****         }
 3007              		.loc 1 663 13 is_stmt 1 view .LVU771
 663:User/Src/command.c ****         }
 3008              		.loc 1 663 35 is_stmt 0 view .LVU772
 3009 0078 A1F80031 		strh	r3, [r1, #256]	@ movhi
 3010              	.L214:
 667:User/Src/command.c ****     }
 3011              		.loc 1 667 9 is_stmt 1 view .LVU773
 667:User/Src/command.c ****     }
 3012              		.loc 1 667 79 is_stmt 0 view .LVU774
 3013 007c 0B49     		ldr	r1, .L218+28
 3014 007e B1F80031 		ldrh	r3, [r1, #256]
 3015              	.LVL316:
 667:User/Src/command.c ****     }
 3016              		.loc 1 667 79 view .LVU775
 3017 0082 9BB2     		uxth	r3, r3
 667:User/Src/command.c ****     }
 3018              		.loc 1 667 9 view .LVU776
 3019 0084 0122     		movs	r2, #1
 3020 0086 1944     		add	r1, r1, r3
 3021 0088 0948     		ldr	r0, .L218+32
 3022 008a FFF7FEFF 		bl	HAL_UART_Receive_IT
 3023              	.LVL317:
 3024              	.LBE9:
 3025              		.loc 1 669 1 view .LVU777
 3026 008e C1E7     		b	.L208
 3027              	.L219:
 3028              		.align	2
 3029              	.L218:
 3030 0090 00380140 		.word	1073821696
 3031 0094 00440040 		.word	1073759232
 3032 0098 00000000 		.word	.LANCHOR1
 3033 009c 00000000 		.word	.LANCHOR2
 3034 00a0 00000000 		.word	.LANCHOR4
 3035 00a4 00000000 		.word	.LANCHOR3
 3036 00a8 00000000 		.word	huart1
ARM GAS  C:\Users\84759\AppData\Local\Temp\cc7RoKct.s 			page 84


 3037 00ac 00000000 		.word	uart2_rx_ringbuf
 3038 00b0 00000000 		.word	huart2
 3039              		.cfi_endproc
 3040              	.LFE85:
 3042              		.section	.rodata.CheckCommandList.str1.4,"aMS",%progbits,1
 3043              		.align	2
 3044              	.LC63:
 3045 0000 5B636F6D 		.ascii	"[command] \264\355\316\363\243\272\316\264\326\252\326"
 3045      6D616E64 
 3045      5D20B4ED 
 3045      CEF3A3BA 
 3045      CEB4D6AA 
 3046 0015 B8C1EEA3 		.ascii	"\270\301\356\243\241\312\344\310\353 AT^HELP \262\351"
 3046      A1CAE4C8 
 3046      EB204154 
 3046      5E48454C 
 3046      5020B2E9 
 3047 0029 BFB4B0EF 		.ascii	"\277\264\260\357\326\372\015\012\000"
 3047      D6FA0D0A 
 3047      00
 3048              		.section	.text.CheckCommandList,"ax",%progbits
 3049              		.align	1
 3050              		.global	CheckCommandList
 3051              		.syntax unified
 3052              		.thumb
 3053              		.thumb_func
 3055              	CheckCommandList:
 3056              	.LFB86:
 670:User/Src/command.c **** 
 671:User/Src/command.c **** void CheckCommandList(void)
 672:User/Src/command.c **** {
 3057              		.loc 1 672 1 is_stmt 1 view -0
 3058              		.cfi_startproc
 3059              		@ args = 0, pretend = 0, frame = 0
 3060              		@ frame_needed = 0, uses_anonymous_args = 0
 3061 0000 38B5     		push	{r3, r4, r5, lr}
 3062              	.LCFI35:
 3063              		.cfi_def_cfa_offset 16
 3064              		.cfi_offset 3, -16
 3065              		.cfi_offset 4, -12
 3066              		.cfi_offset 5, -8
 3067              		.cfi_offset 14, -4
 673:User/Src/command.c ****     static uint16_t usbTick = 0;
 3068              		.loc 1 673 5 view .LVU779
 674:User/Src/command.c ****     static uint16_t lastRx = 0;
 3069              		.loc 1 674 5 view .LVU780
 675:User/Src/command.c ****     uint8_t i;
 3070              		.loc 1 675 5 view .LVU781
 676:User/Src/command.c **** 
 677:User/Src/command.c ****     if (g_UsbATStatus == 0 && usb_Rx_Cnt == 0)
 3071              		.loc 1 677 5 view .LVU782
 3072              		.loc 1 677 23 is_stmt 0 view .LVU783
 3073 0002 294B     		ldr	r3, .L236
 3074 0004 1B78     		ldrb	r3, [r3]	@ zero_extendqisi2
 3075              		.loc 1 677 8 view .LVU784
 3076 0006 13B9     		cbnz	r3, .L221
 3077              		.loc 1 677 42 discriminator 1 view .LVU785
ARM GAS  C:\Users\84759\AppData\Local\Temp\cc7RoKct.s 			page 85


 3078 0008 284A     		ldr	r2, .L236+4
 3079 000a 1288     		ldrh	r2, [r2]
 3080              		.loc 1 677 28 discriminator 1 view .LVU786
 3081 000c 92B1     		cbz	r2, .L234
 3082              	.L221:
 678:User/Src/command.c ****     {
 679:User/Src/command.c ****         usbTick = 0;
 680:User/Src/command.c ****         lastRx = 0;
 681:User/Src/command.c ****         return;
 682:User/Src/command.c ****     }
 683:User/Src/command.c **** 
 684:User/Src/command.c ****     if (usb_Rx_Cnt > lastRx)
 3083              		.loc 1 684 5 is_stmt 1 view .LVU787
 3084              		.loc 1 684 20 is_stmt 0 view .LVU788
 3085 000e 274A     		ldr	r2, .L236+4
 3086 0010 1288     		ldrh	r2, [r2]
 3087 0012 2749     		ldr	r1, .L236+8
 3088 0014 0988     		ldrh	r1, [r1]
 3089              		.loc 1 684 8 view .LVU789
 3090 0016 8A42     		cmp	r2, r1
 3091 0018 11D9     		bls	.L223
 685:User/Src/command.c ****     {
 686:User/Src/command.c ****         lastRx = usb_Rx_Cnt;
 3092              		.loc 1 686 9 is_stmt 1 view .LVU790
 3093              		.loc 1 686 16 is_stmt 0 view .LVU791
 3094 001a 2549     		ldr	r1, .L236+8
 3095 001c 0A80     		strh	r2, [r1]	@ movhi
 687:User/Src/command.c ****         usbTick = 0;
 3096              		.loc 1 687 9 is_stmt 1 view .LVU792
 3097              		.loc 1 687 17 is_stmt 0 view .LVU793
 3098 001e 254A     		ldr	r2, .L236+12
 3099 0020 0021     		movs	r1, #0
 3100 0022 1180     		strh	r1, [r2]	@ movhi
 3101              	.L224:
 688:User/Src/command.c ****     }
 689:User/Src/command.c ****     else
 690:User/Src/command.c ****     {
 691:User/Src/command.c ****         usbTick++;
 692:User/Src/command.c ****     }
 693:User/Src/command.c **** 
 694:User/Src/command.c ****     if (usbTick >= USB_UART_TICK_CLEAR || g_UsbATStatus == 1)
 3102              		.loc 1 694 5 is_stmt 1 view .LVU794
 3103              		.loc 1 694 17 is_stmt 0 view .LVU795
 3104 0024 234A     		ldr	r2, .L236+12
 3105 0026 1288     		ldrh	r2, [r2]
 3106              		.loc 1 694 8 view .LVU796
 3107 0028 632A     		cmp	r2, #99
 3108 002a 36D8     		bhi	.L231
 3109              		.loc 1 694 40 discriminator 1 view .LVU797
 3110 002c 012B     		cmp	r3, #1
 3111 002e 33D1     		bne	.L220
 3112 0030 0024     		movs	r4, #0
 3113 0032 0BE0     		b	.L228
 3114              	.L234:
 679:User/Src/command.c ****         lastRx = 0;
 3115              		.loc 1 679 9 is_stmt 1 view .LVU798
 679:User/Src/command.c ****         lastRx = 0;
ARM GAS  C:\Users\84759\AppData\Local\Temp\cc7RoKct.s 			page 86


 3116              		.loc 1 679 17 is_stmt 0 view .LVU799
 3117 0034 1F4A     		ldr	r2, .L236+12
 3118 0036 1380     		strh	r3, [r2]	@ movhi
 680:User/Src/command.c ****         return;
 3119              		.loc 1 680 9 is_stmt 1 view .LVU800
 680:User/Src/command.c ****         return;
 3120              		.loc 1 680 16 is_stmt 0 view .LVU801
 3121 0038 1D4A     		ldr	r2, .L236+8
 3122 003a 1380     		strh	r3, [r2]	@ movhi
 681:User/Src/command.c ****     }
 3123              		.loc 1 681 9 is_stmt 1 view .LVU802
 3124 003c 2CE0     		b	.L220
 3125              	.L223:
 691:User/Src/command.c ****     }
 3126              		.loc 1 691 9 view .LVU803
 691:User/Src/command.c ****     }
 3127              		.loc 1 691 16 is_stmt 0 view .LVU804
 3128 003e 1D49     		ldr	r1, .L236+12
 3129 0040 0A88     		ldrh	r2, [r1]
 3130 0042 0132     		adds	r2, r2, #1
 3131 0044 0A80     		strh	r2, [r1]	@ movhi
 3132 0046 EDE7     		b	.L224
 3133              	.LVL318:
 3134              	.L226:
 695:User/Src/command.c ****     {
 696:User/Src/command.c ****         for (i = 0; i < MAX_COMMAND_NUMBER; i++)
 3135              		.loc 1 696 45 is_stmt 1 discriminator 2 view .LVU805
 3136              		.loc 1 696 46 is_stmt 0 discriminator 2 view .LVU806
 3137 0048 0134     		adds	r4, r4, #1
 3138              	.LVL319:
 3139              		.loc 1 696 46 discriminator 2 view .LVU807
 3140 004a E4B2     		uxtb	r4, r4
 3141              	.LVL320:
 3142              	.L228:
 3143              		.loc 1 696 21 is_stmt 1 discriminator 1 view .LVU808
 3144              		.loc 1 696 9 is_stmt 0 discriminator 1 view .LVU809
 3145 004c 272C     		cmp	r4, #39
 3146 004e 12D8     		bhi	.L227
 697:User/Src/command.c ****         {
 698:User/Src/command.c ****             if (strlen(CommandList[i]) > 0 &&
 3147              		.loc 1 698 13 is_stmt 1 view .LVU810
 3148              		.loc 1 698 35 is_stmt 0 view .LVU811
 3149 0050 194B     		ldr	r3, .L236+16
 3150 0052 04EB8402 		add	r2, r4, r4, lsl #2
 3151 0056 03EB8201 		add	r1, r3, r2, lsl #2
 3152              		.loc 1 698 40 view .LVU812
 3153 005a 13F82230 		ldrb	r3, [r3, r2, lsl #2]	@ zero_extendqisi2
 3154              		.loc 1 698 16 view .LVU813
 3155 005e 002B     		cmp	r3, #0
 3156 0060 F2D0     		beq	.L226
 699:User/Src/command.c ****                 strSearch((char*)g_UsbRxBuff, CommandList[i]) == 0)
 3157              		.loc 1 699 17 discriminator 1 view .LVU814
 3158 0062 1648     		ldr	r0, .L236+20
 3159 0064 FFF7FEFF 		bl	strSearch
 3160              	.LVL321:
 698:User/Src/command.c ****                 strSearch((char*)g_UsbRxBuff, CommandList[i]) == 0)
 3161              		.loc 1 698 44 discriminator 1 view .LVU815
ARM GAS  C:\Users\84759\AppData\Local\Temp\cc7RoKct.s 			page 87


 3162 0068 0028     		cmp	r0, #0
 3163 006a EDD1     		bne	.L226
 700:User/Src/command.c ****             {
 701:User/Src/command.c ****                 UsbCommand[i]((char*)g_UsbRxBuff);
 3164              		.loc 1 701 17 is_stmt 1 view .LVU816
 3165              		.loc 1 701 27 is_stmt 0 view .LVU817
 3166 006c 144B     		ldr	r3, .L236+24
 3167 006e 53F82430 		ldr	r3, [r3, r4, lsl #2]
 3168              		.loc 1 701 17 view .LVU818
 3169 0072 1248     		ldr	r0, .L236+20
 3170 0074 9847     		blx	r3
 3171              	.LVL322:
 702:User/Src/command.c ****                 break;
 3172              		.loc 1 702 17 is_stmt 1 view .LVU819
 3173              	.L227:
 703:User/Src/command.c ****             }
 704:User/Src/command.c ****         }
 705:User/Src/command.c **** 
 706:User/Src/command.c ****         if (i >= MAX_COMMAND_NUMBER)
 3174              		.loc 1 706 9 view .LVU820
 3175              		.loc 1 706 12 is_stmt 0 view .LVU821
 3176 0076 272C     		cmp	r4, #39
 3177 0078 11D8     		bhi	.L235
 3178              	.L230:
 707:User/Src/command.c ****         {
 708:User/Src/command.c ****             UsbPrintf("[command] ´íÎóŁşÎ´ÖŞÖ¸ÁîŁˇĘäČë AT^HELP ˛éż´°ďÖú\r\n");
 709:User/Src/command.c ****         }
 710:User/Src/command.c **** 
 711:User/Src/command.c ****         memset(g_UsbRxBuff, 0, UART_RECEIVE_BUFF_NUMBER);
 3179              		.loc 1 711 9 is_stmt 1 view .LVU822
 3180 007a 4FF48072 		mov	r2, #256
 3181 007e 0021     		movs	r1, #0
 3182 0080 0E48     		ldr	r0, .L236+20
 3183 0082 FFF7FEFF 		bl	memset
 3184              	.LVL323:
 712:User/Src/command.c ****         usb_Rx_Cnt = 0;
 3185              		.loc 1 712 9 view .LVU823
 3186              		.loc 1 712 20 is_stmt 0 view .LVU824
 3187 0086 0023     		movs	r3, #0
 3188 0088 084A     		ldr	r2, .L236+4
 3189 008a 1380     		strh	r3, [r2]	@ movhi
 713:User/Src/command.c ****         g_UsbATStatus = 0;
 3190              		.loc 1 713 9 is_stmt 1 view .LVU825
 3191              		.loc 1 713 23 is_stmt 0 view .LVU826
 3192 008c 064A     		ldr	r2, .L236
 3193 008e 1370     		strb	r3, [r2]
 714:User/Src/command.c ****         usbTick = 0;
 3194              		.loc 1 714 9 is_stmt 1 view .LVU827
 3195              		.loc 1 714 17 is_stmt 0 view .LVU828
 3196 0090 084A     		ldr	r2, .L236+12
 3197 0092 1380     		strh	r3, [r2]	@ movhi
 715:User/Src/command.c ****         lastRx = 0;
 3198              		.loc 1 715 9 is_stmt 1 view .LVU829
 3199              		.loc 1 715 16 is_stmt 0 view .LVU830
 3200 0094 064A     		ldr	r2, .L236+8
 3201 0096 1380     		strh	r3, [r2]	@ movhi
 3202              	.LVL324:
ARM GAS  C:\Users\84759\AppData\Local\Temp\cc7RoKct.s 			page 88


 3203              	.L220:
 716:User/Src/command.c ****     }
 717:User/Src/command.c **** }
 3204              		.loc 1 717 1 view .LVU831
 3205 0098 38BD     		pop	{r3, r4, r5, pc}
 3206              	.L231:
 3207 009a 0024     		movs	r4, #0
 3208 009c D6E7     		b	.L228
 3209              	.LVL325:
 3210              	.L235:
 708:User/Src/command.c ****         }
 3211              		.loc 1 708 13 is_stmt 1 view .LVU832
 3212 009e 0948     		ldr	r0, .L236+28
 3213 00a0 FFF7FEFF 		bl	UsbPrintf
 3214              	.LVL326:
 3215 00a4 E9E7     		b	.L230
 3216              	.L237:
 3217 00a6 00BF     		.align	2
 3218              	.L236:
 3219 00a8 00000000 		.word	.LANCHOR2
 3220 00ac 00000000 		.word	.LANCHOR1
 3221 00b0 00000000 		.word	.LANCHOR6
 3222 00b4 00000000 		.word	.LANCHOR5
 3223 00b8 00000000 		.word	.LANCHOR0
 3224 00bc 00000000 		.word	.LANCHOR3
 3225 00c0 00000000 		.word	.LANCHOR7
 3226 00c4 00000000 		.word	.LC63
 3227              		.cfi_endproc
 3228              	.LFE86:
 3230              		.global	Command_buf
 3231              		.global	g_UsbATStatus
 3232              		.global	g_UsbTxBuff
 3233              		.global	g_UsbRxBuff
 3234              		.global	usbRxBuf
 3235              		.global	usb_Rx_Cnt
 3236              		.section	.bss.Command_buf,"aw",%nobits
 3237              		.align	2
 3240              	Command_buf:
 3241 0000 00000000 		.space	200
 3241      00000000 
 3241      00000000 
 3241      00000000 
 3241      00000000 
 3242              		.section	.bss.g_UsbATStatus,"aw",%nobits
 3243              		.set	.LANCHOR2,. + 0
 3246              	g_UsbATStatus:
 3247 0000 00       		.space	1
 3248              		.section	.bss.g_UsbRxBuff,"aw",%nobits
 3249              		.align	2
 3250              		.set	.LANCHOR3,. + 0
 3253              	g_UsbRxBuff:
 3254 0000 00000000 		.space	256
 3254      00000000 
 3254      00000000 
 3254      00000000 
 3254      00000000 
 3255              		.section	.bss.g_UsbTxBuff,"aw",%nobits
ARM GAS  C:\Users\84759\AppData\Local\Temp\cc7RoKct.s 			page 89


 3256              		.align	2
 3259              	g_UsbTxBuff:
 3260 0000 00000000 		.space	256
 3260      00000000 
 3260      00000000 
 3260      00000000 
 3260      00000000 
 3261              		.section	.bss.lastRx.0,"aw",%nobits
 3262              		.align	1
 3263              		.set	.LANCHOR6,. + 0
 3266              	lastRx.0:
 3267 0000 0000     		.space	2
 3268              		.section	.bss.usbRxBuf,"aw",%nobits
 3269              		.set	.LANCHOR4,. + 0
 3272              	usbRxBuf:
 3273 0000 00       		.space	1
 3274              		.section	.bss.usbTick.1,"aw",%nobits
 3275              		.align	1
 3276              		.set	.LANCHOR5,. + 0
 3279              	usbTick.1:
 3280 0000 0000     		.space	2
 3281              		.section	.bss.usb_Rx_Cnt,"aw",%nobits
 3282              		.align	1
 3283              		.set	.LANCHOR1,. + 0
 3286              	usb_Rx_Cnt:
 3287 0000 0000     		.space	2
 3288              		.section	.data.CommandList,"aw"
 3289              		.align	2
 3290              		.set	.LANCHOR0,. + 0
 3293              	CommandList:
 3294 0000 41545E48 		.ascii	"AT^HELP\000"
 3294      454C5000 
 3295 0008 00000000 		.space	12
 3295      00000000 
 3295      00000000 
 3296 0014 41545E54 		.ascii	"AT^TEST\000"
 3296      45535400 
 3297 001c 00000000 		.space	12
 3297      00000000 
 3297      00000000 
 3298 0028 41545E57 		.ascii	"AT^W25Q64_EraseChip\000"
 3298      32355136 
 3298      345F4572 
 3298      61736543 
 3298      68697000 
 3299 003c 41545E46 		.ascii	"AT^FATFS_ListDir\000"
 3299      41544653 
 3299      5F4C6973 
 3299      74446972 
 3299      00
 3300 004d 000000   		.space	3
 3301 0050 41545E46 		.ascii	"AT^FATFS_MOUNT\000"
 3301      41544653 
 3301      5F4D4F55 
 3301      4E5400
 3302 005f 00000000 		.space	5
 3302      00
ARM GAS  C:\Users\84759\AppData\Local\Temp\cc7RoKct.s 			page 90


 3303 0064 41545E46 		.ascii	"AT^FATFS_FORMAT\000"
 3303      41544653 
 3303      5F464F52 
 3303      4D415400 
 3304 0074 00000000 		.space	4
 3305 0078 41545E46 		.ascii	"AT^FATFS_WRITE\000"
 3305      41544653 
 3305      5F575249 
 3305      544500
 3306 0087 00000000 		.space	5
 3306      00
 3307 008c 41545E46 		.ascii	"AT^FATFS_READ\000"
 3307      41544653 
 3307      5F524541 
 3307      4400
 3308 009a 00000000 		.space	6
 3308      0000
 3309 00a0 41545E46 		.ascii	"AT^FATFS_CluWrite\000"
 3309      41544653 
 3309      5F436C75 
 3309      57726974 
 3309      6500
 3310 00b2 0000     		.space	2
 3311 00b4 41545E46 		.ascii	"AT^FATFS_GetTime\000"
 3311      41544653 
 3311      5F476574 
 3311      54696D65 
 3311      00
 3312 00c5 000000   		.space	3
 3313 00c8 00000000 		.space	600
 3313      00000000 
 3313      00000000 
 3313      00000000 
 3313      00000000 
 3314              		.section	.rodata.UsbCommand,"a"
 3315              		.align	2
 3316              		.set	.LANCHOR7,. + 0
 3319              	UsbCommand:
 3320 0000 00000000 		.word	AT_HELP_Handle
 3321 0004 00000000 		.word	AT_TEST_Handle
 3322 0008 00000000 		.word	AT_W25Q64_EraseChip_Handle
 3323 000c 00000000 		.word	AT_FATFS_ListDir_Handle
 3324 0010 00000000 		.word	AT_FATFS_MOUNT_Handle
 3325 0014 00000000 		.word	AT_FATFS_FORMAT_Handle
 3326 0018 00000000 		.word	AT_FATFS_WRITE_Handle
 3327 001c 00000000 		.word	AT_FATFS_READ_Handle
 3328 0020 00000000 		.word	AT_FATFS_CluWrite_Handle
 3329 0024 00000000 		.word	AT_FATFS_GetTime_Handle
 3330 0028 00000000 		.space	120
 3330      00000000 
 3330      00000000 
 3330      00000000 
 3330      00000000 
 3331              		.text
 3332              	.Letext0:
 3333              		.file 2 "d:\\mingw\\gcc-arm-none-eabi-10.3-2021.10-win32\\gcc-arm-none-eabi-10.3-2021.10\\arm-none
 3334              		.file 3 "d:\\mingw\\gcc-arm-none-eabi-10.3-2021.10-win32\\gcc-arm-none-eabi-10.3-2021.10\\arm-none
ARM GAS  C:\Users\84759\AppData\Local\Temp\cc7RoKct.s 			page 91


 3335              		.file 4 "Drivers/CMSIS/Device/ST/STM32F1xx/Include/stm32f103xe.h"
 3336              		.file 5 "Drivers/STM32F1xx_HAL_Driver/Inc/stm32f1xx_hal_def.h"
 3337              		.file 6 "Drivers/STM32F1xx_HAL_Driver/Inc/stm32f1xx_hal_dma.h"
 3338              		.file 7 "Drivers/STM32F1xx_HAL_Driver/Inc/stm32f1xx_hal_uart.h"
 3339              		.file 8 "User/Inc/command.h"
 3340              		.file 9 "Core/Inc/usart.h"
 3341              		.file 10 "Middlewares/Third_Party/FatFs/src/integer.h"
 3342              		.file 11 "Middlewares/Third_Party/FatFs/src/ff.h"
 3343              		.file 12 "FATFS/App/fatfs.h"
 3344              		.file 13 "User/Inc/storage.h"
 3345              		.file 14 "Core/Inc/main.h"
 3346              		.file 15 "d:\\mingw\\gcc-arm-none-eabi-10.3-2021.10-win32\\gcc-arm-none-eabi-10.3-2021.10\\arm-non
 3347              		.file 16 "d:\\mingw\\gcc-arm-none-eabi-10.3-2021.10-win32\\gcc-arm-none-eabi-10.3-2021.10\\arm-non
 3348              		.file 17 "Core/Inc/rtc.h"
 3349              		.file 18 "User/Inc/flash.h"
 3350              		.file 19 "<built-in>"
ARM GAS  C:\Users\84759\AppData\Local\Temp\cc7RoKct.s 			page 92

