ARM GAS  C:\Users\84759\AppData\Local\Temp\cc0twHqK.s 			page 1


   1              		.cpu cortex-m3
   2              		.arch armv7-m
   3              		.fpu softvfp
   4              		.eabi_attribute 20, 1
   5              		.eabi_attribute 21, 1
   6              		.eabi_attribute 23, 3
   7              		.eabi_attribute 24, 1
   8              		.eabi_attribute 25, 1
   9              		.eabi_attribute 26, 1
  10              		.eabi_attribute 30, 1
  11              		.eabi_attribute 34, 1
  12              		.eabi_attribute 18, 4
  13              		.file	"ff.c"
  14              		.text
  15              	.Ltext0:
  16              		.cfi_sections	.debug_frame
  17              		.section	.text.ld_16,"ax",%progbits
  18              		.align	1
  19              		.syntax unified
  20              		.thumb
  21              		.thumb_func
  23              	ld_16:
  24              	.LVL0:
  25              	.LFB0:
  26              		.file 1 "Core/FatFs/Src/ff.c"
   1:Core/FatFs/Src/ff.c **** /*----------------------------------------------------------------------------/
   2:Core/FatFs/Src/ff.c **** /  FatFs - Generic FAT Filesystem Module  R0.16                               /
   3:Core/FatFs/Src/ff.c **** /-----------------------------------------------------------------------------/
   4:Core/FatFs/Src/ff.c **** /
   5:Core/FatFs/Src/ff.c **** / Copyright (C) 2025, ChaN, all right reserved.
   6:Core/FatFs/Src/ff.c **** /
   7:Core/FatFs/Src/ff.c **** / FatFs module is an open source software. Redistribution and use of FatFs in
   8:Core/FatFs/Src/ff.c **** / source and binary forms, with or without modification, are permitted provided
   9:Core/FatFs/Src/ff.c **** / that the following condition is met:
  10:Core/FatFs/Src/ff.c **** /
  11:Core/FatFs/Src/ff.c **** / 1. Redistributions of source code must retain the above copyright notice,
  12:Core/FatFs/Src/ff.c **** /    this condition and the following disclaimer.
  13:Core/FatFs/Src/ff.c **** /
  14:Core/FatFs/Src/ff.c **** / This software is provided by the copyright holder and contributors "AS IS"
  15:Core/FatFs/Src/ff.c **** / and any warranties related to this software are DISCLAIMED.
  16:Core/FatFs/Src/ff.c **** / The copyright owner or contributors be NOT LIABLE for any damages caused
  17:Core/FatFs/Src/ff.c **** / by use of this software.
  18:Core/FatFs/Src/ff.c **** /
  19:Core/FatFs/Src/ff.c **** /----------------------------------------------------------------------------*/
  20:Core/FatFs/Src/ff.c **** 
  21:Core/FatFs/Src/ff.c **** 
  22:Core/FatFs/Src/ff.c **** #include <string.h>
  23:Core/FatFs/Src/ff.c **** #include "ff.h"			/* Basic definitions and declarations of API */
  24:Core/FatFs/Src/ff.c **** #include "diskio.h"		/* Declarations of MAI */
  25:Core/FatFs/Src/ff.c **** 
  26:Core/FatFs/Src/ff.c **** /*--------------------------------------------------------------------------
  27:Core/FatFs/Src/ff.c **** 
  28:Core/FatFs/Src/ff.c ****    Module Private Definitions
  29:Core/FatFs/Src/ff.c **** 
  30:Core/FatFs/Src/ff.c **** ---------------------------------------------------------------------------*/
  31:Core/FatFs/Src/ff.c **** 
  32:Core/FatFs/Src/ff.c **** #if FF_DEFINED != 80386	/* Revision ID */
ARM GAS  C:\Users\84759\AppData\Local\Temp\cc0twHqK.s 			page 2


  33:Core/FatFs/Src/ff.c **** #error Wrong include file (ff.h).
  34:Core/FatFs/Src/ff.c **** #endif
  35:Core/FatFs/Src/ff.c **** 
  36:Core/FatFs/Src/ff.c **** 
  37:Core/FatFs/Src/ff.c **** /* Limits and boundaries */
  38:Core/FatFs/Src/ff.c **** #define MAX_DIR		0x200000		/* Max size of FAT directory (byte) */
  39:Core/FatFs/Src/ff.c **** #define MAX_DIR_EX	0x10000000		/* Max size of exFAT directory (byte) */
  40:Core/FatFs/Src/ff.c **** #define MAX_FAT12	0xFF5			/* Max FAT12 clusters (differs from specs, but right for real DOS/Windows
  41:Core/FatFs/Src/ff.c **** #define MAX_FAT16	0xFFF5			/* Max FAT16 clusters (differs from specs, but right for real DOS/Window
  42:Core/FatFs/Src/ff.c **** #define MAX_FAT32	0x0FFFFFF5		/* Max FAT32 clusters (not defined in specs, practical limit) */
  43:Core/FatFs/Src/ff.c **** #define MAX_EXFAT	0x7FFFFFFD		/* Max exFAT clusters (differs from specs, implementation limit) */
  44:Core/FatFs/Src/ff.c **** 
  45:Core/FatFs/Src/ff.c **** 
  46:Core/FatFs/Src/ff.c **** /* Character code support macros */
  47:Core/FatFs/Src/ff.c **** #define IsUpper(c)		((c) >= 'A' && (c) <= 'Z')
  48:Core/FatFs/Src/ff.c **** #define IsLower(c)		((c) >= 'a' && (c) <= 'z')
  49:Core/FatFs/Src/ff.c **** #define IsDigit(c)		((c) >= '0' && (c) <= '9')
  50:Core/FatFs/Src/ff.c **** #define IsSeparator(c)	((c) == '/' || (c) == '\\')
  51:Core/FatFs/Src/ff.c **** #define IsTerminator(c)	((UINT)(c) < (FF_USE_LFN ? ' ' : '!'))
  52:Core/FatFs/Src/ff.c **** #define IsSurrogate(c)	((c) >= 0xD800 && (c) <= 0xDFFF)
  53:Core/FatFs/Src/ff.c **** #define IsSurrogateH(c)	((c) >= 0xD800 && (c) <= 0xDBFF)
  54:Core/FatFs/Src/ff.c **** #define IsSurrogateL(c)	((c) >= 0xDC00 && (c) <= 0xDFFF)
  55:Core/FatFs/Src/ff.c **** 
  56:Core/FatFs/Src/ff.c **** 
  57:Core/FatFs/Src/ff.c **** /* Additional file access control and file status flags for internal use */
  58:Core/FatFs/Src/ff.c **** #define FA_SEEKEND	0x20	/* Seek to end of the file on file open */
  59:Core/FatFs/Src/ff.c **** #define FA_MODIFIED	0x40	/* File has been modified */
  60:Core/FatFs/Src/ff.c **** #define FA_DIRTY	0x80	/* FIL.buf[] needs to be written-back */
  61:Core/FatFs/Src/ff.c **** 
  62:Core/FatFs/Src/ff.c **** 
  63:Core/FatFs/Src/ff.c **** /* Additional file attribute bits for internal use */
  64:Core/FatFs/Src/ff.c **** #define AM_VOL		0x08	/* Volume label */
  65:Core/FatFs/Src/ff.c **** #define AM_LFN		0x0F	/* LFN entry */
  66:Core/FatFs/Src/ff.c **** #define AM_MASK		0x3F	/* Mask of defined bits in FAT */
  67:Core/FatFs/Src/ff.c **** #define AM_MASKX	0x37	/* Mask of defined bits in exFAT */
  68:Core/FatFs/Src/ff.c **** 
  69:Core/FatFs/Src/ff.c **** 
  70:Core/FatFs/Src/ff.c **** /* Name status flags in fn[11] */
  71:Core/FatFs/Src/ff.c **** #define NSFLAG		11		/* Index of the name status byte */
  72:Core/FatFs/Src/ff.c **** #define NS_LOSS		0x01	/* Out of 8.3 format */
  73:Core/FatFs/Src/ff.c **** #define NS_LFN		0x02	/* Force to create LFN entry */
  74:Core/FatFs/Src/ff.c **** #define NS_LAST		0x04	/* Last segment */
  75:Core/FatFs/Src/ff.c **** #define NS_BODY		0x08	/* Lower case flag (body) */
  76:Core/FatFs/Src/ff.c **** #define NS_EXT		0x10	/* Lower case flag (ext) */
  77:Core/FatFs/Src/ff.c **** #define NS_DOT		0x20	/* Dot entry */
  78:Core/FatFs/Src/ff.c **** #define NS_NOLFN	0x40	/* Do not find LFN */
  79:Core/FatFs/Src/ff.c **** #define NS_NONAME	0x80	/* Not followed */
  80:Core/FatFs/Src/ff.c **** 
  81:Core/FatFs/Src/ff.c **** 
  82:Core/FatFs/Src/ff.c **** /* exFAT directory entry types */
  83:Core/FatFs/Src/ff.c **** #define	ET_BITMAP	0x81	/* Allocation bitmap */
  84:Core/FatFs/Src/ff.c **** #define	ET_UPCASE	0x82	/* Up-case table */
  85:Core/FatFs/Src/ff.c **** #define	ET_VLABEL	0x83	/* Volume label */
  86:Core/FatFs/Src/ff.c **** #define	ET_FILEDIR	0x85	/* File and directory */
  87:Core/FatFs/Src/ff.c **** #define	ET_STREAM	0xC0	/* Stream extension */
  88:Core/FatFs/Src/ff.c **** #define	ET_FILENAME	0xC1	/* Name extension */
  89:Core/FatFs/Src/ff.c **** 
ARM GAS  C:\Users\84759\AppData\Local\Temp\cc0twHqK.s 			page 3


  90:Core/FatFs/Src/ff.c **** 
  91:Core/FatFs/Src/ff.c **** /* FatFs refers the FAT structures as simple byte array instead of structure member
  92:Core/FatFs/Src/ff.c **** / because the C structure is not binary compatible between different platforms */
  93:Core/FatFs/Src/ff.c **** 
  94:Core/FatFs/Src/ff.c **** #define BS_JmpBoot			0		/* x86 jump instruction (3-byte) */
  95:Core/FatFs/Src/ff.c **** #define BS_OEMName			3		/* OEM name (8-byte) */
  96:Core/FatFs/Src/ff.c **** #define BPB_BytsPerSec		11		/* Sector size [byte] (WORD) */
  97:Core/FatFs/Src/ff.c **** #define BPB_SecPerClus		13		/* Cluster size [sector] (BYTE) */
  98:Core/FatFs/Src/ff.c **** #define BPB_RsvdSecCnt		14		/* Size of reserved area [sector] (WORD) */
  99:Core/FatFs/Src/ff.c **** #define BPB_NumFATs			16		/* Number of FATs (BYTE) */
 100:Core/FatFs/Src/ff.c **** #define BPB_RootEntCnt		17		/* Size of root directory area for FAT [entry] (WORD) */
 101:Core/FatFs/Src/ff.c **** #define BPB_TotSec16		19		/* Volume size (16-bit) [sector] (WORD) */
 102:Core/FatFs/Src/ff.c **** #define BPB_Media			21		/* Media descriptor byte (BYTE) */
 103:Core/FatFs/Src/ff.c **** #define BPB_FATSz16			22		/* FAT size (16-bit) [sector] (WORD) */
 104:Core/FatFs/Src/ff.c **** #define BPB_SecPerTrk		24		/* Number of sectors per track for int13h [sector] (WORD) */
 105:Core/FatFs/Src/ff.c **** #define BPB_NumHeads		26		/* Number of heads for int13h (WORD) */
 106:Core/FatFs/Src/ff.c **** #define BPB_HiddSec			28		/* Volume offset from top of the drive (DWORD) */
 107:Core/FatFs/Src/ff.c **** #define BPB_TotSec32		32		/* Volume size (32-bit) [sector] (DWORD) */
 108:Core/FatFs/Src/ff.c **** #define BS_DrvNum			36		/* Physical drive number for int13h (BYTE) */
 109:Core/FatFs/Src/ff.c **** #define BS_NTres			37		/* WindowsNT error flag (BYTE) */
 110:Core/FatFs/Src/ff.c **** #define BS_BootSig			38		/* Extended boot signature (BYTE) */
 111:Core/FatFs/Src/ff.c **** #define BS_VolID			39		/* Volume serial number (DWORD) */
 112:Core/FatFs/Src/ff.c **** #define BS_VolLab			43		/* Volume label string (8-byte) */
 113:Core/FatFs/Src/ff.c **** #define BS_FilSysType		54		/* Filesystem type string (8-byte) */
 114:Core/FatFs/Src/ff.c **** #define BS_BootCode			62		/* Boot code (448-byte) */
 115:Core/FatFs/Src/ff.c **** #define BS_55AA				510		/* Boot signature (WORD, for VBR and MBR) */
 116:Core/FatFs/Src/ff.c **** 
 117:Core/FatFs/Src/ff.c **** #define BPB_FATSz32			36		/* FAT32: FAT size [sector] (DWORD) */
 118:Core/FatFs/Src/ff.c **** #define BPB_ExtFlags32		40		/* FAT32: Extended flags (WORD) */
 119:Core/FatFs/Src/ff.c **** #define BPB_FSVer32			42		/* FAT32: Filesystem version (WORD) */
 120:Core/FatFs/Src/ff.c **** #define BPB_RootClus32		44		/* FAT32: Root directory cluster (DWORD) */
 121:Core/FatFs/Src/ff.c **** #define BPB_FSInfo32		48		/* FAT32: Offset of FSINFO sector (WORD) */
 122:Core/FatFs/Src/ff.c **** #define BPB_BkBootSec32		50		/* FAT32: Offset of backup boot sector (WORD) */
 123:Core/FatFs/Src/ff.c **** #define BS_DrvNum32			64		/* FAT32: Physical drive number for int13h (BYTE) */
 124:Core/FatFs/Src/ff.c **** #define BS_NTres32			65		/* FAT32: Error flag (BYTE) */
 125:Core/FatFs/Src/ff.c **** #define BS_BootSig32		66		/* FAT32: Extended boot signature (BYTE) */
 126:Core/FatFs/Src/ff.c **** #define BS_VolID32			67		/* FAT32: Volume serial number (DWORD) */
 127:Core/FatFs/Src/ff.c **** #define BS_VolLab32			71		/* FAT32: Volume label string (8-byte) */
 128:Core/FatFs/Src/ff.c **** #define BS_FilSysType32		82		/* FAT32: Filesystem type string (8-byte) */
 129:Core/FatFs/Src/ff.c **** #define BS_BootCode32		90		/* FAT32: Boot code (420-byte) */
 130:Core/FatFs/Src/ff.c **** 
 131:Core/FatFs/Src/ff.c **** #define BPB_ZeroedEx		11		/* exFAT: MBZ field (53-byte) */
 132:Core/FatFs/Src/ff.c **** #define BPB_VolOfsEx		64		/* exFAT: Volume offset from top of the drive [sector] (QWORD) */
 133:Core/FatFs/Src/ff.c **** #define BPB_TotSecEx		72		/* exFAT: Volume size [sector] (QWORD) */
 134:Core/FatFs/Src/ff.c **** #define BPB_FatOfsEx		80		/* exFAT: FAT offset from top of the volume [sector] (DWORD) */
 135:Core/FatFs/Src/ff.c **** #define BPB_FatSzEx			84		/* exFAT: FAT size [sector] (DWORD) */
 136:Core/FatFs/Src/ff.c **** #define BPB_DataOfsEx		88		/* exFAT: Data offset from top of the volume [sector] (DWORD) */
 137:Core/FatFs/Src/ff.c **** #define BPB_NumClusEx		92		/* exFAT: Number of clusters (DWORD) */
 138:Core/FatFs/Src/ff.c **** #define BPB_RootClusEx		96		/* exFAT: Root directory start cluster (DWORD) */
 139:Core/FatFs/Src/ff.c **** #define BPB_VolIDEx			100		/* exFAT: Volume serial number (DWORD) */
 140:Core/FatFs/Src/ff.c **** #define BPB_FSVerEx			104		/* exFAT: Filesystem version (WORD) */
 141:Core/FatFs/Src/ff.c **** #define BPB_VolFlagEx		106		/* exFAT: Volume flags (WORD, out of check sum calculation) */
 142:Core/FatFs/Src/ff.c **** #define BPB_BytsPerSecEx	108		/* exFAT: Log2 of sector size in unit of byte (BYTE) */
 143:Core/FatFs/Src/ff.c **** #define BPB_SecPerClusEx	109		/* exFAT: Log2 of cluster size in unit of sector (BYTE) */
 144:Core/FatFs/Src/ff.c **** #define BPB_NumFATsEx		110		/* exFAT: Number of FATs (BYTE) */
 145:Core/FatFs/Src/ff.c **** #define BPB_DrvNumEx		111		/* exFAT: Physical drive number for int13h (BYTE) */
 146:Core/FatFs/Src/ff.c **** #define BPB_PercInUseEx		112		/* exFAT: Percent in use (BYTE, out of check sum calculation) */
ARM GAS  C:\Users\84759\AppData\Local\Temp\cc0twHqK.s 			page 4


 147:Core/FatFs/Src/ff.c **** #define BPB_RsvdEx			113		/* exFAT: Reserved (7-byte) */
 148:Core/FatFs/Src/ff.c **** #define BS_BootCodeEx		120		/* exFAT: Boot code (390-byte) */
 149:Core/FatFs/Src/ff.c **** 
 150:Core/FatFs/Src/ff.c **** #define DIR_Name			0		/* Short file name (11-byte) */
 151:Core/FatFs/Src/ff.c **** #define DIR_Attr			11		/* Attribute (BYTE) */
 152:Core/FatFs/Src/ff.c **** #define DIR_NTres			12		/* Low case flags of SFN (BYTE) */
 153:Core/FatFs/Src/ff.c **** #define DIR_CrtTime10		13		/* Created time sub-second (BYTE) */
 154:Core/FatFs/Src/ff.c **** #define DIR_CrtTime			14		/* Created time (DWORD) */
 155:Core/FatFs/Src/ff.c **** #define DIR_LstAccDate		18		/* Last accessed date (WORD) */
 156:Core/FatFs/Src/ff.c **** #define DIR_FstClusHI		20		/* Higher 16-bit of first cluster (WORD) */
 157:Core/FatFs/Src/ff.c **** #define DIR_ModTime			22		/* Modified time (DWORD) */
 158:Core/FatFs/Src/ff.c **** #define DIR_FstClusLO		26		/* Lower 16-bit of first cluster (WORD) */
 159:Core/FatFs/Src/ff.c **** #define DIR_FileSize		28		/* File size (DWORD) */
 160:Core/FatFs/Src/ff.c **** #define LDIR_Ord			0		/* LFN: LFN order and LLE flag (BYTE) */
 161:Core/FatFs/Src/ff.c **** #define LDIR_Attr			11		/* LFN: LFN attribute (BYTE) */
 162:Core/FatFs/Src/ff.c **** #define LDIR_Type			12		/* LFN: Entry type (BYTE) */
 163:Core/FatFs/Src/ff.c **** #define LDIR_Chksum			13		/* LFN: Checksum of the SFN (BYTE) */
 164:Core/FatFs/Src/ff.c **** #define LDIR_FstClusLO		26		/* LFN: MBZ field (WORD) */
 165:Core/FatFs/Src/ff.c **** #define XDIR_Type			0		/* exFAT: Type of exFAT directory entry (BYTE) */
 166:Core/FatFs/Src/ff.c **** #define XDIR_NumLabel		1		/* exFAT: Number of volume label characters (BYTE) */
 167:Core/FatFs/Src/ff.c **** #define XDIR_Label			2		/* exFAT: Volume label (11-WORD) */
 168:Core/FatFs/Src/ff.c **** #define XDIR_CaseSum		4		/* exFAT: Sum of case conversion table (DWORD) */
 169:Core/FatFs/Src/ff.c **** #define XDIR_NumSec			1		/* exFAT: Number of secondary entries (BYTE) */
 170:Core/FatFs/Src/ff.c **** #define XDIR_SetSum			2		/* exFAT: Sum of the set of directory entries (WORD) */
 171:Core/FatFs/Src/ff.c **** #define XDIR_Attr			4		/* exFAT: File attribute (WORD) */
 172:Core/FatFs/Src/ff.c **** #define XDIR_CrtTime		8		/* exFAT: Created time (DWORD) */
 173:Core/FatFs/Src/ff.c **** #define XDIR_ModTime		12		/* exFAT: Modified time (DWORD) */
 174:Core/FatFs/Src/ff.c **** #define XDIR_AccTime		16		/* exFAT: Last accessed time (DWORD) */
 175:Core/FatFs/Src/ff.c **** #define XDIR_CrtTime10		20		/* exFAT: Created time subsecond (BYTE) */
 176:Core/FatFs/Src/ff.c **** #define XDIR_ModTime10		21		/* exFAT: Modified time subsecond (BYTE) */
 177:Core/FatFs/Src/ff.c **** #define XDIR_CrtTZ			22		/* exFAT: Created timezone (BYTE) */
 178:Core/FatFs/Src/ff.c **** #define XDIR_ModTZ			23		/* exFAT: Modified timezone (BYTE) */
 179:Core/FatFs/Src/ff.c **** #define XDIR_AccTZ			24		/* exFAT: Last accessed timezone (BYTE) */
 180:Core/FatFs/Src/ff.c **** #define XDIR_GenFlags		33		/* exFAT: General secondary flags (BYTE) */
 181:Core/FatFs/Src/ff.c **** #define XDIR_NumName		35		/* exFAT: Number of file name characters (BYTE) */
 182:Core/FatFs/Src/ff.c **** #define XDIR_NameHash		36		/* exFAT: Hash of file name (WORD) */
 183:Core/FatFs/Src/ff.c **** #define XDIR_ValidFileSize	40		/* exFAT: Valid file size (QWORD) */
 184:Core/FatFs/Src/ff.c **** #define XDIR_FstClus		52		/* exFAT: First cluster of the file data (DWORD) */
 185:Core/FatFs/Src/ff.c **** #define XDIR_FileSize		56		/* exFAT: File/Directory size (QWORD) */
 186:Core/FatFs/Src/ff.c **** 
 187:Core/FatFs/Src/ff.c **** #define SZDIRE				32		/* Size of a directory entry */
 188:Core/FatFs/Src/ff.c **** #define DDEM				0xE5	/* Deleted directory entry mark set to DIR_Name[0] */
 189:Core/FatFs/Src/ff.c **** #define RDDEM				0x05	/* Replacement of the character collides with DDEM */
 190:Core/FatFs/Src/ff.c **** #define LLEF				0x40	/* Last long entry flag in LDIR_Ord */
 191:Core/FatFs/Src/ff.c **** 
 192:Core/FatFs/Src/ff.c **** #define FSI_LeadSig			0		/* FAT32 FSI: Leading signature (DWORD) */
 193:Core/FatFs/Src/ff.c **** #define FSI_StrucSig		484		/* FAT32 FSI: Structure signature (DWORD) */
 194:Core/FatFs/Src/ff.c **** #define FSI_Free_Count		488		/* FAT32 FSI: Number of free clusters (DWORD) */
 195:Core/FatFs/Src/ff.c **** #define FSI_Nxt_Free		492		/* FAT32 FSI: Last allocated cluster (DWORD) */
 196:Core/FatFs/Src/ff.c **** #define FSI_TrailSig		508		/* FAT32 FSI: Trailing signature (DWORD) */
 197:Core/FatFs/Src/ff.c **** 
 198:Core/FatFs/Src/ff.c **** #define MBR_Table			446		/* MBR: Offset of partition table in the MBR */
 199:Core/FatFs/Src/ff.c **** #define SZ_PTE				16		/* MBR: Size of a partition table entry */
 200:Core/FatFs/Src/ff.c **** #define PTE_Boot			0		/* MBR PTE: Boot indicator */
 201:Core/FatFs/Src/ff.c **** #define PTE_StHead			1		/* MBR PTE: Start head in CHS */
 202:Core/FatFs/Src/ff.c **** #define PTE_StSec			2		/* MBR PTE: Start sector in CHS */
 203:Core/FatFs/Src/ff.c **** #define PTE_StCyl			3		/* MBR PTE: Start cylinder in CHS */
ARM GAS  C:\Users\84759\AppData\Local\Temp\cc0twHqK.s 			page 5


 204:Core/FatFs/Src/ff.c **** #define PTE_System			4		/* MBR PTE: System ID */
 205:Core/FatFs/Src/ff.c **** #define PTE_EdHead			5		/* MBR PTE: End head in CHS */
 206:Core/FatFs/Src/ff.c **** #define PTE_EdSec			6		/* MBR PTE: End sector in CHS */
 207:Core/FatFs/Src/ff.c **** #define PTE_EdCyl			7		/* MBR PTE: End cylinder in CHS */
 208:Core/FatFs/Src/ff.c **** #define PTE_StLba			8		/* MBR PTE: Start in LBA */
 209:Core/FatFs/Src/ff.c **** #define PTE_SizLba			12		/* MBR PTE: Size in LBA */
 210:Core/FatFs/Src/ff.c **** 
 211:Core/FatFs/Src/ff.c **** #define GPTH_Sign			0		/* GPT HDR: Signature (8-byte) */
 212:Core/FatFs/Src/ff.c **** #define GPTH_Rev			8		/* GPT HDR: Revision (DWORD) */
 213:Core/FatFs/Src/ff.c **** #define GPTH_Size			12		/* GPT HDR: Header size (DWORD) */
 214:Core/FatFs/Src/ff.c **** #define GPTH_Bcc			16		/* GPT HDR: Header BCC (DWORD) */
 215:Core/FatFs/Src/ff.c **** #define GPTH_CurLba			24		/* GPT HDR: This header LBA (QWORD) */
 216:Core/FatFs/Src/ff.c **** #define GPTH_BakLba			32		/* GPT HDR: Another header LBA (QWORD) */
 217:Core/FatFs/Src/ff.c **** #define GPTH_FstLba			40		/* GPT HDR: First LBA for partition data (QWORD) */
 218:Core/FatFs/Src/ff.c **** #define GPTH_LstLba			48		/* GPT HDR: Last LBA for partition data (QWORD) */
 219:Core/FatFs/Src/ff.c **** #define GPTH_DskGuid		56		/* GPT HDR: Disk GUID (16-byte) */
 220:Core/FatFs/Src/ff.c **** #define GPTH_PtOfs			72		/* GPT HDR: Partition table LBA (QWORD) */
 221:Core/FatFs/Src/ff.c **** #define GPTH_PtNum			80		/* GPT HDR: Number of table entries (DWORD) */
 222:Core/FatFs/Src/ff.c **** #define GPTH_PteSize		84		/* GPT HDR: Size of table entry (DWORD) */
 223:Core/FatFs/Src/ff.c **** #define GPTH_PtBcc			88		/* GPT HDR: Partition table BCC (DWORD) */
 224:Core/FatFs/Src/ff.c **** #define SZ_GPTE				128		/* GPT PTE: Size of a GPT partition table entry */
 225:Core/FatFs/Src/ff.c **** #define GPTE_PtGuid			0		/* GPT PTE: Partition type GUID (16-byte) */
 226:Core/FatFs/Src/ff.c **** #define GPTE_UpGuid			16		/* GPT PTE: Partition unique GUID (16-byte) */
 227:Core/FatFs/Src/ff.c **** #define GPTE_FstLba			32		/* GPT PTE: First LBA of partition (QWORD) */
 228:Core/FatFs/Src/ff.c **** #define GPTE_LstLba			40		/* GPT PTE: Last LBA of partition (QWORD) */
 229:Core/FatFs/Src/ff.c **** #define GPTE_Flags			48		/* GPT PTE: Partition flags (QWORD) */
 230:Core/FatFs/Src/ff.c **** #define GPTE_Name			56		/* GPT PTE: Partition name */
 231:Core/FatFs/Src/ff.c **** 
 232:Core/FatFs/Src/ff.c **** 
 233:Core/FatFs/Src/ff.c **** /* Post process on fatal error in the file operations */
 234:Core/FatFs/Src/ff.c **** #define ABORT(fs, res)		{ fp->err = (BYTE)(res); LEAVE_FF(fs, res); }
 235:Core/FatFs/Src/ff.c **** 
 236:Core/FatFs/Src/ff.c **** 
 237:Core/FatFs/Src/ff.c **** /* Re-entrancy related */
 238:Core/FatFs/Src/ff.c **** #if FF_FS_REENTRANT
 239:Core/FatFs/Src/ff.c **** #if FF_USE_LFN == 1
 240:Core/FatFs/Src/ff.c **** #error Static LFN work area cannot be used in thread-safe configuration
 241:Core/FatFs/Src/ff.c **** #endif
 242:Core/FatFs/Src/ff.c **** #define LEAVE_FF(fs, res)	{ unlock_volume(fs, res); return res; }
 243:Core/FatFs/Src/ff.c **** #else
 244:Core/FatFs/Src/ff.c **** #define LEAVE_FF(fs, res)	return res
 245:Core/FatFs/Src/ff.c **** #endif
 246:Core/FatFs/Src/ff.c **** 
 247:Core/FatFs/Src/ff.c **** 
 248:Core/FatFs/Src/ff.c **** /* Definitions of logical drive to physical location conversion */
 249:Core/FatFs/Src/ff.c **** #if FF_MULTI_PARTITION
 250:Core/FatFs/Src/ff.c **** #define LD2PD(vol) VolToPart[vol].pd	/* Get physical drive number from the mapping table */
 251:Core/FatFs/Src/ff.c **** #define LD2PT(vol) VolToPart[vol].pt	/* Get partition number from the mapping table (0:auto search,
 252:Core/FatFs/Src/ff.c **** #else
 253:Core/FatFs/Src/ff.c **** #define LD2PD(vol) (BYTE)(vol)	/* Each logical drive is associated with the same physical drive num
 254:Core/FatFs/Src/ff.c **** #define LD2PT(vol) 0			/* Auto partition search */
 255:Core/FatFs/Src/ff.c **** #endif
 256:Core/FatFs/Src/ff.c **** 
 257:Core/FatFs/Src/ff.c **** 
 258:Core/FatFs/Src/ff.c **** /* Definitions of sector size */
 259:Core/FatFs/Src/ff.c **** #if (FF_MAX_SS < FF_MIN_SS) || (FF_MAX_SS != 512 && FF_MAX_SS != 1024 && FF_MAX_SS != 2048 && FF_MA
 260:Core/FatFs/Src/ff.c **** #error Wrong sector size configuration
ARM GAS  C:\Users\84759\AppData\Local\Temp\cc0twHqK.s 			page 6


 261:Core/FatFs/Src/ff.c **** #endif
 262:Core/FatFs/Src/ff.c **** #if FF_MAX_SS == FF_MIN_SS
 263:Core/FatFs/Src/ff.c **** #define SS(fs)	((UINT)FF_MAX_SS)	/* Fixed sector size */
 264:Core/FatFs/Src/ff.c **** #else
 265:Core/FatFs/Src/ff.c **** #define SS(fs)	((fs)->ssize)	/* Variable sector size */
 266:Core/FatFs/Src/ff.c **** #endif
 267:Core/FatFs/Src/ff.c **** 
 268:Core/FatFs/Src/ff.c **** 
 269:Core/FatFs/Src/ff.c **** /* Timestamp */
 270:Core/FatFs/Src/ff.c **** #if FF_FS_NORTC == 1
 271:Core/FatFs/Src/ff.c **** #if FF_NORTC_YEAR < 1980 || FF_NORTC_YEAR > 2107 || FF_NORTC_MON < 1 || FF_NORTC_MON > 12 || FF_NOR
 272:Core/FatFs/Src/ff.c **** #error Invalid FF_FS_NORTC settings
 273:Core/FatFs/Src/ff.c **** #endif
 274:Core/FatFs/Src/ff.c **** #define GET_FATTIME()	((DWORD)(FF_NORTC_YEAR - 1980) << 25 | (DWORD)FF_NORTC_MON << 21 | (DWORD)FF_
 275:Core/FatFs/Src/ff.c **** #else
 276:Core/FatFs/Src/ff.c **** #define GET_FATTIME()	get_fattime()
 277:Core/FatFs/Src/ff.c **** #endif
 278:Core/FatFs/Src/ff.c **** 
 279:Core/FatFs/Src/ff.c **** 
 280:Core/FatFs/Src/ff.c **** /* File lock controls */
 281:Core/FatFs/Src/ff.c **** #if FF_FS_LOCK
 282:Core/FatFs/Src/ff.c **** #if FF_FS_READONLY
 283:Core/FatFs/Src/ff.c **** #error FF_FS_LOCK must be 0 at read-only configuration
 284:Core/FatFs/Src/ff.c **** #endif
 285:Core/FatFs/Src/ff.c **** typedef struct {	/* Open object identifier with status */
 286:Core/FatFs/Src/ff.c **** 	FATFS* fs;		/*  Object ID 1, volume (NULL:blank entry) */
 287:Core/FatFs/Src/ff.c **** 	DWORD clu;		/*  Object ID 2, containing directory (0:root) */
 288:Core/FatFs/Src/ff.c **** 	DWORD ofs;		/*  Object ID 3, offset in the directory */
 289:Core/FatFs/Src/ff.c **** 	UINT ctr;		/*  Object open status, 0:none, 0x01..0xFF:read mode open count, 0x100:write mode */
 290:Core/FatFs/Src/ff.c **** } FILESEM;
 291:Core/FatFs/Src/ff.c **** #endif
 292:Core/FatFs/Src/ff.c **** 
 293:Core/FatFs/Src/ff.c **** 
 294:Core/FatFs/Src/ff.c **** /* SBCS up-case tables (\x80-\xFF) */
 295:Core/FatFs/Src/ff.c **** #define TBL_CT437  {0x80,0x9A,0x45,0x41,0x8E,0x41,0x8F,0x80,0x45,0x45,0x45,0x49,0x49,0x49,0x8E,0x8F
 296:Core/FatFs/Src/ff.c **** 					0x90,0x92,0x92,0x4F,0x99,0x4F,0x55,0x55,0x59,0x99,0x9A,0x9B,0x9C,0x9D,0x9E,0x9F, \
 297:Core/FatFs/Src/ff.c **** 					0x41,0x49,0x4F,0x55,0xA5,0xA5,0xA6,0xA7,0xA8,0xA9,0xAA,0xAB,0xAC,0xAD,0xAE,0xAF, \
 298:Core/FatFs/Src/ff.c **** 					0xB0,0xB1,0xB2,0xB3,0xB4,0xB5,0xB6,0xB7,0xB8,0xB9,0xBA,0xBB,0xBC,0xBD,0xBE,0xBF, \
 299:Core/FatFs/Src/ff.c **** 					0xC0,0xC1,0xC2,0xC3,0xC4,0xC5,0xC6,0xC7,0xC8,0xC9,0xCA,0xCB,0xCC,0xCD,0xCE,0xCF, \
 300:Core/FatFs/Src/ff.c **** 					0xD0,0xD1,0xD2,0xD3,0xD4,0xD5,0xD6,0xD7,0xD8,0xD9,0xDA,0xDB,0xDC,0xDD,0xDE,0xDF, \
 301:Core/FatFs/Src/ff.c **** 					0xE0,0xE1,0xE2,0xE3,0xE4,0xE5,0xE6,0xE7,0xE8,0xE9,0xEA,0xEB,0xEC,0xED,0xEE,0xEF, \
 302:Core/FatFs/Src/ff.c **** 					0xF0,0xF1,0xF2,0xF3,0xF4,0xF5,0xF6,0xF7,0xF8,0xF9,0xFA,0xFB,0xFC,0xFD,0xFE,0xFF}
 303:Core/FatFs/Src/ff.c **** #define TBL_CT720  {0x80,0x81,0x82,0x83,0x84,0x85,0x86,0x87,0x88,0x89,0x8A,0x8B,0x8C,0x8D,0x8E,0x8F
 304:Core/FatFs/Src/ff.c **** 					0x90,0x91,0x92,0x93,0x94,0x95,0x96,0x97,0x98,0x99,0x9A,0x9B,0x9C,0x9D,0x9E,0x9F, \
 305:Core/FatFs/Src/ff.c **** 					0xA0,0xA1,0xA2,0xA3,0xA4,0xA5,0xA6,0xA7,0xA8,0xA9,0xAA,0xAB,0xAC,0xAD,0xAE,0xAF, \
 306:Core/FatFs/Src/ff.c **** 					0xB0,0xB1,0xB2,0xB3,0xB4,0xB5,0xB6,0xB7,0xB8,0xB9,0xBA,0xBB,0xBC,0xBD,0xBE,0xBF, \
 307:Core/FatFs/Src/ff.c **** 					0xC0,0xC1,0xC2,0xC3,0xC4,0xC5,0xC6,0xC7,0xC8,0xC9,0xCA,0xCB,0xCC,0xCD,0xCE,0xCF, \
 308:Core/FatFs/Src/ff.c **** 					0xD0,0xD1,0xD2,0xD3,0xD4,0xD5,0xD6,0xD7,0xD8,0xD9,0xDA,0xDB,0xDC,0xDD,0xDE,0xDF, \
 309:Core/FatFs/Src/ff.c **** 					0xE0,0xE1,0xE2,0xE3,0xE4,0xE5,0xE6,0xE7,0xE8,0xE9,0xEA,0xEB,0xEC,0xED,0xEE,0xEF, \
 310:Core/FatFs/Src/ff.c **** 					0xF0,0xF1,0xF2,0xF3,0xF4,0xF5,0xF6,0xF7,0xF8,0xF9,0xFA,0xFB,0xFC,0xFD,0xFE,0xFF}
 311:Core/FatFs/Src/ff.c **** #define TBL_CT737  {0x80,0x81,0x82,0x83,0x84,0x85,0x86,0x87,0x88,0x89,0x8A,0x8B,0x8C,0x8D,0x8E,0x8F
 312:Core/FatFs/Src/ff.c **** 					0x90,0x92,0x92,0x93,0x94,0x95,0x96,0x97,0x80,0x81,0x82,0x83,0x84,0x85,0x86,0x87, \
 313:Core/FatFs/Src/ff.c **** 					0x88,0x89,0x8A,0x8B,0x8C,0x8D,0x8E,0x8F,0x90,0x91,0xAA,0x92,0x93,0x94,0x95,0x96, \
 314:Core/FatFs/Src/ff.c **** 					0xB0,0xB1,0xB2,0xB3,0xB4,0xB5,0xB6,0xB7,0xB8,0xB9,0xBA,0xBB,0xBC,0xBD,0xBE,0xBF, \
 315:Core/FatFs/Src/ff.c **** 					0xC0,0xC1,0xC2,0xC3,0xC4,0xC5,0xC6,0xC7,0xC8,0xC9,0xCA,0xCB,0xCC,0xCD,0xCE,0xCF, \
 316:Core/FatFs/Src/ff.c **** 					0xD0,0xD1,0xD2,0xD3,0xD4,0xD5,0xD6,0xD7,0xD8,0xD9,0xDA,0xDB,0xDC,0xDD,0xDE,0xDF, \
 317:Core/FatFs/Src/ff.c **** 					0x97,0xEA,0xEB,0xEC,0xE4,0xED,0xEE,0xEF,0xF5,0xF0,0xEA,0xEB,0xEC,0xED,0xEE,0xEF, \
ARM GAS  C:\Users\84759\AppData\Local\Temp\cc0twHqK.s 			page 7


 318:Core/FatFs/Src/ff.c **** 					0xF0,0xF1,0xF2,0xF3,0xF4,0xF5,0xF6,0xF7,0xF8,0xF9,0xFA,0xFB,0xFC,0xFD,0xFE,0xFF}
 319:Core/FatFs/Src/ff.c **** #define TBL_CT771  {0x80,0x81,0x82,0x83,0x84,0x85,0x86,0x87,0x88,0x89,0x8A,0x8B,0x8C,0x8D,0x8E,0x8F
 320:Core/FatFs/Src/ff.c **** 					0x90,0x91,0x92,0x93,0x94,0x95,0x96,0x97,0x98,0x99,0x9A,0x9B,0x9C,0x9D,0x9E,0x9F, \
 321:Core/FatFs/Src/ff.c **** 					0x80,0x81,0x82,0x83,0x84,0x85,0x86,0x87,0x88,0x89,0x8A,0x8B,0x8C,0x8D,0x8E,0x8F, \
 322:Core/FatFs/Src/ff.c **** 					0xB0,0xB1,0xB2,0xB3,0xB4,0xB5,0xB6,0xB7,0xB8,0xB9,0xBA,0xBB,0xBC,0xBD,0xBE,0xBF, \
 323:Core/FatFs/Src/ff.c **** 					0xC0,0xC1,0xC2,0xC3,0xC4,0xC5,0xC6,0xC7,0xC8,0xC9,0xCA,0xCB,0xCC,0xCD,0xCE,0xCF, \
 324:Core/FatFs/Src/ff.c **** 					0xD0,0xD1,0xD2,0xD3,0xD4,0xD5,0xD6,0xD7,0xD8,0xD9,0xDA,0xDB,0xDC,0xDC,0xDE,0xDE, \
 325:Core/FatFs/Src/ff.c **** 					0x90,0x91,0x92,0x93,0x94,0x95,0x96,0x97,0x98,0x99,0x9A,0x9B,0x9C,0x9D,0x9E,0x9F, \
 326:Core/FatFs/Src/ff.c **** 					0xF0,0xF0,0xF2,0xF2,0xF4,0xF4,0xF6,0xF6,0xF8,0xF8,0xFA,0xFA,0xFC,0xFC,0xFE,0xFF}
 327:Core/FatFs/Src/ff.c **** #define TBL_CT775  {0x80,0x9A,0x91,0xA0,0x8E,0x95,0x8F,0x80,0xAD,0xED,0x8A,0x8A,0xA1,0x8D,0x8E,0x8F
 328:Core/FatFs/Src/ff.c **** 					0x90,0x92,0x92,0xE2,0x99,0x95,0x96,0x97,0x97,0x99,0x9A,0x9D,0x9C,0x9D,0x9E,0x9F, \
 329:Core/FatFs/Src/ff.c **** 					0xA0,0xA1,0xE0,0xA3,0xA3,0xA5,0xA6,0xA7,0xA8,0xA9,0xAA,0xAB,0xAC,0xAD,0xAE,0xAF, \
 330:Core/FatFs/Src/ff.c **** 					0xB0,0xB1,0xB2,0xB3,0xB4,0xB5,0xB6,0xB7,0xB8,0xB9,0xBA,0xBB,0xBC,0xBD,0xBE,0xBF, \
 331:Core/FatFs/Src/ff.c **** 					0xC0,0xC1,0xC2,0xC3,0xC4,0xC5,0xC6,0xC7,0xC8,0xC9,0xCA,0xCB,0xCC,0xCD,0xCE,0xCF, \
 332:Core/FatFs/Src/ff.c **** 					0xB5,0xB6,0xB7,0xB8,0xBD,0xBE,0xC6,0xC7,0xA5,0xD9,0xDA,0xDB,0xDC,0xDD,0xDE,0xDF, \
 333:Core/FatFs/Src/ff.c **** 					0xE0,0xE1,0xE2,0xE3,0xE5,0xE5,0xE6,0xE3,0xE8,0xE8,0xEA,0xEA,0xEE,0xED,0xEE,0xEF, \
 334:Core/FatFs/Src/ff.c **** 					0xF0,0xF1,0xF2,0xF3,0xF4,0xF5,0xF6,0xF7,0xF8,0xF9,0xFA,0xFB,0xFC,0xFD,0xFE,0xFF}
 335:Core/FatFs/Src/ff.c **** #define TBL_CT850  {0x43,0x55,0x45,0x41,0x41,0x41,0x41,0x43,0x45,0x45,0x45,0x49,0x49,0x49,0x41,0x41
 336:Core/FatFs/Src/ff.c **** 					0x45,0x92,0x92,0x4F,0x4F,0x4F,0x55,0x55,0x59,0x4F,0x55,0x4F,0x9C,0x4F,0x9E,0x9F, \
 337:Core/FatFs/Src/ff.c **** 					0x41,0x49,0x4F,0x55,0xA5,0xA5,0xA6,0xA7,0xA8,0xA9,0xAA,0xAB,0xAC,0xAD,0xAE,0xAF, \
 338:Core/FatFs/Src/ff.c **** 					0xB0,0xB1,0xB2,0xB3,0xB4,0x41,0x41,0x41,0xB8,0xB9,0xBA,0xBB,0xBC,0xBD,0xBE,0xBF, \
 339:Core/FatFs/Src/ff.c **** 					0xC0,0xC1,0xC2,0xC3,0xC4,0xC5,0x41,0x41,0xC8,0xC9,0xCA,0xCB,0xCC,0xCD,0xCE,0xCF, \
 340:Core/FatFs/Src/ff.c **** 					0xD1,0xD1,0x45,0x45,0x45,0x49,0x49,0x49,0x49,0xD9,0xDA,0xDB,0xDC,0xDD,0x49,0xDF, \
 341:Core/FatFs/Src/ff.c **** 					0x4F,0xE1,0x4F,0x4F,0x4F,0x4F,0xE6,0xE8,0xE8,0x55,0x55,0x55,0x59,0x59,0xEE,0xEF, \
 342:Core/FatFs/Src/ff.c **** 					0xF0,0xF1,0xF2,0xF3,0xF4,0xF5,0xF6,0xF7,0xF8,0xF9,0xFA,0xFB,0xFC,0xFD,0xFE,0xFF}
 343:Core/FatFs/Src/ff.c **** #define TBL_CT852  {0x80,0x9A,0x90,0xB6,0x8E,0xDE,0x8F,0x80,0x9D,0xD3,0x8A,0x8A,0xD7,0x8D,0x8E,0x8F
 344:Core/FatFs/Src/ff.c **** 					0x90,0x91,0x91,0xE2,0x99,0x95,0x95,0x97,0x97,0x99,0x9A,0x9B,0x9B,0x9D,0x9E,0xAC, \
 345:Core/FatFs/Src/ff.c **** 					0xB5,0xD6,0xE0,0xE9,0xA4,0xA4,0xA6,0xA6,0xA8,0xA8,0xAA,0x8D,0xAC,0xB8,0xAE,0xAF, \
 346:Core/FatFs/Src/ff.c **** 					0xB0,0xB1,0xB2,0xB3,0xB4,0xB5,0xB6,0xB7,0xB8,0xB9,0xBA,0xBB,0xBC,0xBD,0xBD,0xBF, \
 347:Core/FatFs/Src/ff.c **** 					0xC0,0xC1,0xC2,0xC3,0xC4,0xC5,0xC6,0xC6,0xC8,0xC9,0xCA,0xCB,0xCC,0xCD,0xCE,0xCF, \
 348:Core/FatFs/Src/ff.c **** 					0xD1,0xD1,0xD2,0xD3,0xD2,0xD5,0xD6,0xD7,0xB7,0xD9,0xDA,0xDB,0xDC,0xDD,0xDE,0xDF, \
 349:Core/FatFs/Src/ff.c **** 					0xE0,0xE1,0xE2,0xE3,0xE3,0xD5,0xE6,0xE6,0xE8,0xE9,0xE8,0xEB,0xED,0xED,0xDD,0xEF, \
 350:Core/FatFs/Src/ff.c **** 					0xF0,0xF1,0xF2,0xF3,0xF4,0xF5,0xF6,0xF7,0xF8,0xF9,0xFA,0xEB,0xFC,0xFC,0xFE,0xFF}
 351:Core/FatFs/Src/ff.c **** #define TBL_CT855  {0x81,0x81,0x83,0x83,0x85,0x85,0x87,0x87,0x89,0x89,0x8B,0x8B,0x8D,0x8D,0x8F,0x8F
 352:Core/FatFs/Src/ff.c **** 					0x91,0x91,0x93,0x93,0x95,0x95,0x97,0x97,0x99,0x99,0x9B,0x9B,0x9D,0x9D,0x9F,0x9F, \
 353:Core/FatFs/Src/ff.c **** 					0xA1,0xA1,0xA3,0xA3,0xA5,0xA5,0xA7,0xA7,0xA9,0xA9,0xAB,0xAB,0xAD,0xAD,0xAE,0xAF, \
 354:Core/FatFs/Src/ff.c **** 					0xB0,0xB1,0xB2,0xB3,0xB4,0xB6,0xB6,0xB8,0xB8,0xB9,0xBA,0xBB,0xBC,0xBE,0xBE,0xBF, \
 355:Core/FatFs/Src/ff.c **** 					0xC0,0xC1,0xC2,0xC3,0xC4,0xC5,0xC7,0xC7,0xC8,0xC9,0xCA,0xCB,0xCC,0xCD,0xCE,0xCF, \
 356:Core/FatFs/Src/ff.c **** 					0xD1,0xD1,0xD3,0xD3,0xD5,0xD5,0xD7,0xD7,0xDD,0xD9,0xDA,0xDB,0xDC,0xDD,0xE0,0xDF, \
 357:Core/FatFs/Src/ff.c **** 					0xE0,0xE2,0xE2,0xE4,0xE4,0xE6,0xE6,0xE8,0xE8,0xEA,0xEA,0xEC,0xEC,0xEE,0xEE,0xEF, \
 358:Core/FatFs/Src/ff.c **** 					0xF0,0xF2,0xF2,0xF4,0xF4,0xF6,0xF6,0xF8,0xF8,0xFA,0xFA,0xFC,0xFC,0xFD,0xFE,0xFF}
 359:Core/FatFs/Src/ff.c **** #define TBL_CT857  {0x80,0x9A,0x90,0xB6,0x8E,0xB7,0x8F,0x80,0xD2,0xD3,0xD4,0xD8,0xD7,0x49,0x8E,0x8F
 360:Core/FatFs/Src/ff.c **** 					0x90,0x92,0x92,0xE2,0x99,0xE3,0xEA,0xEB,0x98,0x99,0x9A,0x9D,0x9C,0x9D,0x9E,0x9E, \
 361:Core/FatFs/Src/ff.c **** 					0xB5,0xD6,0xE0,0xE9,0xA5,0xA5,0xA6,0xA6,0xA8,0xA9,0xAA,0xAB,0xAC,0xAD,0xAE,0xAF, \
 362:Core/FatFs/Src/ff.c **** 					0xB0,0xB1,0xB2,0xB3,0xB4,0xB5,0xB6,0xB7,0xB8,0xB9,0xBA,0xBB,0xBC,0xBD,0xBE,0xBF, \
 363:Core/FatFs/Src/ff.c **** 					0xC0,0xC1,0xC2,0xC3,0xC4,0xC5,0xC7,0xC7,0xC8,0xC9,0xCA,0xCB,0xCC,0xCD,0xCE,0xCF, \
 364:Core/FatFs/Src/ff.c **** 					0xD0,0xD1,0xD2,0xD3,0xD4,0x49,0xD6,0xD7,0xD8,0xD9,0xDA,0xDB,0xDC,0xDD,0xDE,0xDF, \
 365:Core/FatFs/Src/ff.c **** 					0xE0,0xE1,0xE2,0xE3,0xE5,0xE5,0xE6,0xE7,0xE8,0xE9,0xEA,0xEB,0xDE,0xED,0xEE,0xEF, \
 366:Core/FatFs/Src/ff.c **** 					0xF0,0xF1,0xF2,0xF3,0xF4,0xF5,0xF6,0xF7,0xF8,0xF9,0xFA,0xFB,0xFC,0xFD,0xFE,0xFF}
 367:Core/FatFs/Src/ff.c **** #define TBL_CT860  {0x80,0x9A,0x90,0x8F,0x8E,0x91,0x86,0x80,0x89,0x89,0x92,0x8B,0x8C,0x98,0x8E,0x8F
 368:Core/FatFs/Src/ff.c **** 					0x90,0x91,0x92,0x8C,0x99,0xA9,0x96,0x9D,0x98,0x99,0x9A,0x9B,0x9C,0x9D,0x9E,0x9F, \
 369:Core/FatFs/Src/ff.c **** 					0x86,0x8B,0x9F,0x96,0xA5,0xA5,0xA6,0xA7,0xA8,0xA9,0xAA,0xAB,0xAC,0xAD,0xAE,0xAF, \
 370:Core/FatFs/Src/ff.c **** 					0xB0,0xB1,0xB2,0xB3,0xB4,0xB5,0xB6,0xB7,0xB8,0xB9,0xBA,0xBB,0xBC,0xBD,0xBE,0xBF, \
 371:Core/FatFs/Src/ff.c **** 					0xC0,0xC1,0xC2,0xC3,0xC4,0xC5,0xC6,0xC7,0xC8,0xC9,0xCA,0xCB,0xCC,0xCD,0xCE,0xCF, \
 372:Core/FatFs/Src/ff.c **** 					0xD0,0xD1,0xD2,0xD3,0xD4,0xD5,0xD6,0xD7,0xD8,0xD9,0xDA,0xDB,0xDC,0xDD,0xDE,0xDF, \
 373:Core/FatFs/Src/ff.c **** 					0xE0,0xE1,0xE2,0xE3,0xE4,0xE5,0xE6,0xE7,0xE8,0xE9,0xEA,0xEB,0xEC,0xED,0xEE,0xEF, \
 374:Core/FatFs/Src/ff.c **** 					0xF0,0xF1,0xF2,0xF3,0xF4,0xF5,0xF6,0xF7,0xF8,0xF9,0xFA,0xFB,0xFC,0xFD,0xFE,0xFF}
ARM GAS  C:\Users\84759\AppData\Local\Temp\cc0twHqK.s 			page 8


 375:Core/FatFs/Src/ff.c **** #define TBL_CT861  {0x80,0x9A,0x90,0x41,0x8E,0x41,0x8F,0x80,0x45,0x45,0x45,0x8B,0x8B,0x8D,0x8E,0x8F
 376:Core/FatFs/Src/ff.c **** 					0x90,0x92,0x92,0x4F,0x99,0x8D,0x55,0x97,0x97,0x99,0x9A,0x9D,0x9C,0x9D,0x9E,0x9F, \
 377:Core/FatFs/Src/ff.c **** 					0xA4,0xA5,0xA6,0xA7,0xA4,0xA5,0xA6,0xA7,0xA8,0xA9,0xAA,0xAB,0xAC,0xAD,0xAE,0xAF, \
 378:Core/FatFs/Src/ff.c **** 					0xB0,0xB1,0xB2,0xB3,0xB4,0xB5,0xB6,0xB7,0xB8,0xB9,0xBA,0xBB,0xBC,0xBD,0xBE,0xBF, \
 379:Core/FatFs/Src/ff.c **** 					0xC0,0xC1,0xC2,0xC3,0xC4,0xC5,0xC6,0xC7,0xC8,0xC9,0xCA,0xCB,0xCC,0xCD,0xCE,0xCF, \
 380:Core/FatFs/Src/ff.c **** 					0xD0,0xD1,0xD2,0xD3,0xD4,0xD5,0xD6,0xD7,0xD8,0xD9,0xDA,0xDB,0xDC,0xDD,0xDE,0xDF, \
 381:Core/FatFs/Src/ff.c **** 					0xE0,0xE1,0xE2,0xE3,0xE4,0xE5,0xE6,0xE7,0xE8,0xE9,0xEA,0xEB,0xEC,0xED,0xEE,0xEF, \
 382:Core/FatFs/Src/ff.c **** 					0xF0,0xF1,0xF2,0xF3,0xF4,0xF5,0xF6,0xF7,0xF8,0xF9,0xFA,0xFB,0xFC,0xFD,0xFE,0xFF}
 383:Core/FatFs/Src/ff.c **** #define TBL_CT862  {0x80,0x81,0x82,0x83,0x84,0x85,0x86,0x87,0x88,0x89,0x8A,0x8B,0x8C,0x8D,0x8E,0x8F
 384:Core/FatFs/Src/ff.c **** 					0x90,0x91,0x92,0x93,0x94,0x95,0x96,0x97,0x98,0x99,0x9A,0x9B,0x9C,0x9D,0x9E,0x9F, \
 385:Core/FatFs/Src/ff.c **** 					0x41,0x49,0x4F,0x55,0xA5,0xA5,0xA6,0xA7,0xA8,0xA9,0xAA,0xAB,0xAC,0xAD,0xAE,0xAF, \
 386:Core/FatFs/Src/ff.c **** 					0xB0,0xB1,0xB2,0xB3,0xB4,0xB5,0xB6,0xB7,0xB8,0xB9,0xBA,0xBB,0xBC,0xBD,0xBE,0xBF, \
 387:Core/FatFs/Src/ff.c **** 					0xC0,0xC1,0xC2,0xC3,0xC4,0xC5,0xC6,0xC7,0xC8,0xC9,0xCA,0xCB,0xCC,0xCD,0xCE,0xCF, \
 388:Core/FatFs/Src/ff.c **** 					0xD0,0xD1,0xD2,0xD3,0xD4,0xD5,0xD6,0xD7,0xD8,0xD9,0xDA,0xDB,0xDC,0xDD,0xDE,0xDF, \
 389:Core/FatFs/Src/ff.c **** 					0xE0,0xE1,0xE2,0xE3,0xE4,0xE5,0xE6,0xE7,0xE8,0xE9,0xEA,0xEB,0xEC,0xED,0xEE,0xEF, \
 390:Core/FatFs/Src/ff.c **** 					0xF0,0xF1,0xF2,0xF3,0xF4,0xF5,0xF6,0xF7,0xF8,0xF9,0xFA,0xFB,0xFC,0xFD,0xFE,0xFF}
 391:Core/FatFs/Src/ff.c **** #define TBL_CT863  {0x43,0x55,0x45,0x41,0x41,0x41,0x86,0x43,0x45,0x45,0x45,0x49,0x49,0x8D,0x41,0x8F
 392:Core/FatFs/Src/ff.c **** 					0x45,0x45,0x45,0x4F,0x45,0x49,0x55,0x55,0x98,0x4F,0x55,0x9B,0x9C,0x55,0x55,0x9F, \
 393:Core/FatFs/Src/ff.c **** 					0xA0,0xA1,0x4F,0x55,0xA4,0xA5,0xA6,0xA7,0x49,0xA9,0xAA,0xAB,0xAC,0xAD,0xAE,0xAF, \
 394:Core/FatFs/Src/ff.c **** 					0xB0,0xB1,0xB2,0xB3,0xB4,0xB5,0xB6,0xB7,0xB8,0xB9,0xBA,0xBB,0xBC,0xBD,0xBE,0xBF, \
 395:Core/FatFs/Src/ff.c **** 					0xC0,0xC1,0xC2,0xC3,0xC4,0xC5,0xC6,0xC7,0xC8,0xC9,0xCA,0xCB,0xCC,0xCD,0xCE,0xCF, \
 396:Core/FatFs/Src/ff.c **** 					0xD0,0xD1,0xD2,0xD3,0xD4,0xD5,0xD6,0xD7,0xD8,0xD9,0xDA,0xDB,0xDC,0xDD,0xDE,0xDF, \
 397:Core/FatFs/Src/ff.c **** 					0xE0,0xE1,0xE2,0xE3,0xE4,0xE5,0xE6,0xE7,0xE8,0xE9,0xEA,0xEB,0xEC,0xED,0xEE,0xEF, \
 398:Core/FatFs/Src/ff.c **** 					0xF0,0xF1,0xF2,0xF3,0xF4,0xF5,0xF6,0xF7,0xF8,0xF9,0xFA,0xFB,0xFC,0xFD,0xFE,0xFF}
 399:Core/FatFs/Src/ff.c **** #define TBL_CT864  {0x80,0x9A,0x45,0x41,0x8E,0x41,0x8F,0x80,0x45,0x45,0x45,0x49,0x49,0x49,0x8E,0x8F
 400:Core/FatFs/Src/ff.c **** 					0x90,0x92,0x92,0x4F,0x99,0x4F,0x55,0x55,0x59,0x99,0x9A,0x9B,0x9C,0x9D,0x9E,0x9F, \
 401:Core/FatFs/Src/ff.c **** 					0x41,0x49,0x4F,0x55,0xA5,0xA5,0xA6,0xA7,0xA8,0xA9,0xAA,0xAB,0xAC,0xAD,0xAE,0xAF, \
 402:Core/FatFs/Src/ff.c **** 					0xB0,0xB1,0xB2,0xB3,0xB4,0xB5,0xB6,0xB7,0xB8,0xB9,0xBA,0xBB,0xBC,0xBD,0xBE,0xBF, \
 403:Core/FatFs/Src/ff.c **** 					0xC0,0xC1,0xC2,0xC3,0xC4,0xC5,0xC6,0xC7,0xC8,0xC9,0xCA,0xCB,0xCC,0xCD,0xCE,0xCF, \
 404:Core/FatFs/Src/ff.c **** 					0xD0,0xD1,0xD2,0xD3,0xD4,0xD5,0xD6,0xD7,0xD8,0xD9,0xDA,0xDB,0xDC,0xDD,0xDE,0xDF, \
 405:Core/FatFs/Src/ff.c **** 					0xE0,0xE1,0xE2,0xE3,0xE4,0xE5,0xE6,0xE7,0xE8,0xE9,0xEA,0xEB,0xEC,0xED,0xEE,0xEF, \
 406:Core/FatFs/Src/ff.c **** 					0xF0,0xF1,0xF2,0xF3,0xF4,0xF5,0xF6,0xF7,0xF8,0xF9,0xFA,0xFB,0xFC,0xFD,0xFE,0xFF}
 407:Core/FatFs/Src/ff.c **** #define TBL_CT865  {0x80,0x9A,0x90,0x41,0x8E,0x41,0x8F,0x80,0x45,0x45,0x45,0x49,0x49,0x49,0x8E,0x8F
 408:Core/FatFs/Src/ff.c **** 					0x90,0x92,0x92,0x4F,0x99,0x4F,0x55,0x55,0x59,0x99,0x9A,0x9B,0x9C,0x9D,0x9E,0x9F, \
 409:Core/FatFs/Src/ff.c **** 					0x41,0x49,0x4F,0x55,0xA5,0xA5,0xA6,0xA7,0xA8,0xA9,0xAA,0xAB,0xAC,0xAD,0xAE,0xAF, \
 410:Core/FatFs/Src/ff.c **** 					0xB0,0xB1,0xB2,0xB3,0xB4,0xB5,0xB6,0xB7,0xB8,0xB9,0xBA,0xBB,0xBC,0xBD,0xBE,0xBF, \
 411:Core/FatFs/Src/ff.c **** 					0xC0,0xC1,0xC2,0xC3,0xC4,0xC5,0xC6,0xC7,0xC8,0xC9,0xCA,0xCB,0xCC,0xCD,0xCE,0xCF, \
 412:Core/FatFs/Src/ff.c **** 					0xD0,0xD1,0xD2,0xD3,0xD4,0xD5,0xD6,0xD7,0xD8,0xD9,0xDA,0xDB,0xDC,0xDD,0xDE,0xDF, \
 413:Core/FatFs/Src/ff.c **** 					0xE0,0xE1,0xE2,0xE3,0xE4,0xE5,0xE6,0xE7,0xE8,0xE9,0xEA,0xEB,0xEC,0xED,0xEE,0xEF, \
 414:Core/FatFs/Src/ff.c **** 					0xF0,0xF1,0xF2,0xF3,0xF4,0xF5,0xF6,0xF7,0xF8,0xF9,0xFA,0xFB,0xFC,0xFD,0xFE,0xFF}
 415:Core/FatFs/Src/ff.c **** #define TBL_CT866  {0x80,0x81,0x82,0x83,0x84,0x85,0x86,0x87,0x88,0x89,0x8A,0x8B,0x8C,0x8D,0x8E,0x8F
 416:Core/FatFs/Src/ff.c **** 					0x90,0x91,0x92,0x93,0x94,0x95,0x96,0x97,0x98,0x99,0x9A,0x9B,0x9C,0x9D,0x9E,0x9F, \
 417:Core/FatFs/Src/ff.c **** 					0x80,0x81,0x82,0x83,0x84,0x85,0x86,0x87,0x88,0x89,0x8A,0x8B,0x8C,0x8D,0x8E,0x8F, \
 418:Core/FatFs/Src/ff.c **** 					0xB0,0xB1,0xB2,0xB3,0xB4,0xB5,0xB6,0xB7,0xB8,0xB9,0xBA,0xBB,0xBC,0xBD,0xBE,0xBF, \
 419:Core/FatFs/Src/ff.c **** 					0xC0,0xC1,0xC2,0xC3,0xC4,0xC5,0xC6,0xC7,0xC8,0xC9,0xCA,0xCB,0xCC,0xCD,0xCE,0xCF, \
 420:Core/FatFs/Src/ff.c **** 					0xD0,0xD1,0xD2,0xD3,0xD4,0xD5,0xD6,0xD7,0xD8,0xD9,0xDA,0xDB,0xDC,0xDD,0xDE,0xDF, \
 421:Core/FatFs/Src/ff.c **** 					0x90,0x91,0x92,0x93,0x94,0x95,0x96,0x97,0x98,0x99,0x9A,0x9B,0x9C,0x9D,0x9E,0x9F, \
 422:Core/FatFs/Src/ff.c **** 					0xF0,0xF0,0xF2,0xF2,0xF4,0xF4,0xF6,0xF6,0xF8,0xF9,0xFA,0xFB,0xFC,0xFD,0xFE,0xFF}
 423:Core/FatFs/Src/ff.c **** #define TBL_CT869  {0x80,0x81,0x82,0x83,0x84,0x85,0x86,0x87,0x88,0x89,0x8A,0x8B,0x8C,0x8D,0x8E,0x8F
 424:Core/FatFs/Src/ff.c **** 					0x90,0x91,0x92,0x93,0x94,0x95,0x96,0x97,0x98,0x99,0x9A,0x86,0x9C,0x8D,0x8F,0x90, \
 425:Core/FatFs/Src/ff.c **** 					0x91,0x90,0x92,0x95,0xA4,0xA5,0xA6,0xA7,0xA8,0xA9,0xAA,0xAB,0xAC,0xAD,0xAE,0xAF, \
 426:Core/FatFs/Src/ff.c **** 					0xB0,0xB1,0xB2,0xB3,0xB4,0xB5,0xB6,0xB7,0xB8,0xB9,0xBA,0xBB,0xBC,0xBD,0xBE,0xBF, \
 427:Core/FatFs/Src/ff.c **** 					0xC0,0xC1,0xC2,0xC3,0xC4,0xC5,0xC6,0xC7,0xC8,0xC9,0xCA,0xCB,0xCC,0xCD,0xCE,0xCF, \
 428:Core/FatFs/Src/ff.c **** 					0xD0,0xD1,0xD2,0xD3,0xD4,0xD5,0xA4,0xA5,0xA6,0xD9,0xDA,0xDB,0xDC,0xA7,0xA8,0xDF, \
 429:Core/FatFs/Src/ff.c **** 					0xA9,0xAA,0xAC,0xAD,0xB5,0xB6,0xB7,0xB8,0xBD,0xBE,0xC6,0xC7,0xCF,0xCF,0xD0,0xEF, \
 430:Core/FatFs/Src/ff.c **** 					0xF0,0xF1,0xD1,0xD2,0xD3,0xF5,0xD4,0xF7,0xF8,0xF9,0xD5,0x96,0x95,0x98,0xFE,0xFF}
 431:Core/FatFs/Src/ff.c **** 
ARM GAS  C:\Users\84759\AppData\Local\Temp\cc0twHqK.s 			page 9


 432:Core/FatFs/Src/ff.c **** 
 433:Core/FatFs/Src/ff.c **** /* DBCS code range |----- 1st byte -----|  |----------- 2nd byte -----------| */
 434:Core/FatFs/Src/ff.c **** /*                  <------>    <------>    <------>    <------>    <------>  */
 435:Core/FatFs/Src/ff.c **** #define TBL_DC932 {0x81, 0x9F, 0xE0, 0xFC, 0x40, 0x7E, 0x80, 0xFC, 0x00, 0x00}
 436:Core/FatFs/Src/ff.c **** #define TBL_DC936 {0x81, 0xFE, 0x00, 0x00, 0x40, 0x7E, 0x80, 0xFE, 0x00, 0x00}
 437:Core/FatFs/Src/ff.c **** #define TBL_DC949 {0x81, 0xFE, 0x00, 0x00, 0x41, 0x5A, 0x61, 0x7A, 0x81, 0xFE}
 438:Core/FatFs/Src/ff.c **** #define TBL_DC950 {0x81, 0xFE, 0x00, 0x00, 0x40, 0x7E, 0xA1, 0xFE, 0x00, 0x00}
 439:Core/FatFs/Src/ff.c **** 
 440:Core/FatFs/Src/ff.c **** 
 441:Core/FatFs/Src/ff.c **** /* Macros for table definitions */
 442:Core/FatFs/Src/ff.c **** #define MERGE_2STR(a, b) a ## b
 443:Core/FatFs/Src/ff.c **** #define MKCVTBL(hd, cp) MERGE_2STR(hd, cp)
 444:Core/FatFs/Src/ff.c **** 
 445:Core/FatFs/Src/ff.c **** 
 446:Core/FatFs/Src/ff.c **** 
 447:Core/FatFs/Src/ff.c **** 
 448:Core/FatFs/Src/ff.c **** /*--------------------------------------------------------------------------
 449:Core/FatFs/Src/ff.c **** 
 450:Core/FatFs/Src/ff.c ****    Module Private Work Area
 451:Core/FatFs/Src/ff.c **** 
 452:Core/FatFs/Src/ff.c **** ---------------------------------------------------------------------------*/
 453:Core/FatFs/Src/ff.c **** /* Remark: Variables defined here without initial value shall be guaranteed
 454:Core/FatFs/Src/ff.c **** /  zero/null at start-up. If not, the linker option or start-up routine is
 455:Core/FatFs/Src/ff.c **** /  not compliance with C standard. */
 456:Core/FatFs/Src/ff.c **** 
 457:Core/FatFs/Src/ff.c **** /*--------------------------------*/
 458:Core/FatFs/Src/ff.c **** /* File/Volume controls           */
 459:Core/FatFs/Src/ff.c **** /*--------------------------------*/
 460:Core/FatFs/Src/ff.c **** 
 461:Core/FatFs/Src/ff.c **** #if FF_VOLUMES < 1 || FF_VOLUMES > 10
 462:Core/FatFs/Src/ff.c **** #error Wrong FF_VOLUMES setting
 463:Core/FatFs/Src/ff.c **** #endif
 464:Core/FatFs/Src/ff.c **** static FATFS *FatFs[FF_VOLUMES];	/* Pointer to the filesystem objects (logical drives) */
 465:Core/FatFs/Src/ff.c **** static WORD Fsid;					/* Filesystem mount ID */
 466:Core/FatFs/Src/ff.c **** 
 467:Core/FatFs/Src/ff.c **** #if FF_FS_RPATH
 468:Core/FatFs/Src/ff.c **** static BYTE CurrVol;				/* Current drive number set by f_chdrive() */
 469:Core/FatFs/Src/ff.c **** #endif
 470:Core/FatFs/Src/ff.c **** 
 471:Core/FatFs/Src/ff.c **** #if FF_FS_LOCK
 472:Core/FatFs/Src/ff.c **** static FILESEM Files[FF_FS_LOCK];	/* Open object lock semaphores */
 473:Core/FatFs/Src/ff.c **** #if FF_FS_REENTRANT
 474:Core/FatFs/Src/ff.c **** static volatile BYTE SysLock;		/* System lock flag to protect Files[] (0:no mutex, 1:unlocked, 2:lo
 475:Core/FatFs/Src/ff.c **** static volatile BYTE SysLockVolume;	/* Volume id who is locking Files[] */
 476:Core/FatFs/Src/ff.c **** #endif
 477:Core/FatFs/Src/ff.c **** #endif
 478:Core/FatFs/Src/ff.c **** 
 479:Core/FatFs/Src/ff.c **** #if FF_STR_VOLUME_ID
 480:Core/FatFs/Src/ff.c **** #ifdef FF_VOLUME_STRS
 481:Core/FatFs/Src/ff.c **** static const char *const VolumeStr[FF_VOLUMES] = {FF_VOLUME_STRS};	/* Pre-defined volume ID */
 482:Core/FatFs/Src/ff.c **** #endif
 483:Core/FatFs/Src/ff.c **** #endif
 484:Core/FatFs/Src/ff.c **** 
 485:Core/FatFs/Src/ff.c **** #if FF_LBA64
 486:Core/FatFs/Src/ff.c **** #if FF_MIN_GPT > 0x100000000
 487:Core/FatFs/Src/ff.c **** #error Wrong FF_MIN_GPT setting
 488:Core/FatFs/Src/ff.c **** #endif
ARM GAS  C:\Users\84759\AppData\Local\Temp\cc0twHqK.s 			page 10


 489:Core/FatFs/Src/ff.c **** static const BYTE GUID_MS_Basic[16] = {0xA2,0xA0,0xD0,0xEB,0xE5,0xB9,0x33,0x44,0x87,0xC0,0x68,0xB6,
 490:Core/FatFs/Src/ff.c **** #endif
 491:Core/FatFs/Src/ff.c **** 
 492:Core/FatFs/Src/ff.c **** 
 493:Core/FatFs/Src/ff.c **** 
 494:Core/FatFs/Src/ff.c **** /*--------------------------------*/
 495:Core/FatFs/Src/ff.c **** /* LFN/Directory working buffer   */
 496:Core/FatFs/Src/ff.c **** /*--------------------------------*/
 497:Core/FatFs/Src/ff.c **** 
 498:Core/FatFs/Src/ff.c **** #if FF_USE_LFN == 0		/* Non-LFN configuration */
 499:Core/FatFs/Src/ff.c **** #if FF_FS_EXFAT
 500:Core/FatFs/Src/ff.c **** #error LFN must be enabled when enable exFAT
 501:Core/FatFs/Src/ff.c **** #endif
 502:Core/FatFs/Src/ff.c **** #define DEF_NAMEBUFF
 503:Core/FatFs/Src/ff.c **** #define INIT_NAMEBUFF(fs)
 504:Core/FatFs/Src/ff.c **** #define FREE_NAMEBUFF()
 505:Core/FatFs/Src/ff.c **** #define LEAVE_MKFS(res)	return res
 506:Core/FatFs/Src/ff.c **** 
 507:Core/FatFs/Src/ff.c **** #else					/* LFN configurations */
 508:Core/FatFs/Src/ff.c **** #if FF_MAX_LFN < 12 || FF_MAX_LFN > 255
 509:Core/FatFs/Src/ff.c **** #error Wrong setting of FF_MAX_LFN
 510:Core/FatFs/Src/ff.c **** #endif
 511:Core/FatFs/Src/ff.c **** #if FF_LFN_BUF < FF_SFN_BUF || FF_SFN_BUF < 12
 512:Core/FatFs/Src/ff.c **** #error Wrong setting of FF_LFN_BUF or FF_SFN_BUF
 513:Core/FatFs/Src/ff.c **** #endif
 514:Core/FatFs/Src/ff.c **** #if FF_LFN_UNICODE < 0 || FF_LFN_UNICODE > 3
 515:Core/FatFs/Src/ff.c **** #error Wrong setting of FF_LFN_UNICODE
 516:Core/FatFs/Src/ff.c **** #endif
 517:Core/FatFs/Src/ff.c **** static const BYTE LfnOfs[] = {1,3,5,7,9,14,16,18,20,22,24,28,30};	/* FAT: Offset of LFN characters 
 518:Core/FatFs/Src/ff.c **** #define MAXDIRB(nc)	((nc + 44U) / 15 * SZDIRE)	/* exFAT: Size of directory entry block scratchpad b
 519:Core/FatFs/Src/ff.c **** 
 520:Core/FatFs/Src/ff.c **** #if FF_USE_LFN == 1		/* LFN enabled with static working buffer */
 521:Core/FatFs/Src/ff.c **** #if FF_FS_EXFAT
 522:Core/FatFs/Src/ff.c **** static BYTE	DirBuf[MAXDIRB(FF_MAX_LFN)];	/* Directory entry block scratchpad buffer */
 523:Core/FatFs/Src/ff.c **** #endif
 524:Core/FatFs/Src/ff.c **** static WCHAR LfnBuf[FF_MAX_LFN + 1];		/* LFN working buffer */
 525:Core/FatFs/Src/ff.c **** #define DEF_NAMEBUFF
 526:Core/FatFs/Src/ff.c **** #define INIT_NAMEBUFF(fs)
 527:Core/FatFs/Src/ff.c **** #define FREE_NAMEBUFF()
 528:Core/FatFs/Src/ff.c **** #define LEAVE_MKFS(res)	return res
 529:Core/FatFs/Src/ff.c **** 
 530:Core/FatFs/Src/ff.c **** #elif FF_USE_LFN == 2 	/* LFN enabled with dynamic working buffer on the stack */
 531:Core/FatFs/Src/ff.c **** #if FF_FS_EXFAT
 532:Core/FatFs/Src/ff.c **** #define DEF_NAMEBUFF		WCHAR lbuf[FF_MAX_LFN+1]; BYTE dbuf[MAXDIRB(FF_MAX_LFN)];	/* LFN working buff
 533:Core/FatFs/Src/ff.c **** #define INIT_NAMEBUFF(fs)	{ (fs)->lfnbuf = lbuf; (fs)->dirbuf = dbuf; }
 534:Core/FatFs/Src/ff.c **** #define FREE_NAMEBUFF()
 535:Core/FatFs/Src/ff.c **** #else
 536:Core/FatFs/Src/ff.c **** #define DEF_NAMEBUFF		WCHAR lbuf[FF_MAX_LFN+1];	/* LFN working buffer */
 537:Core/FatFs/Src/ff.c **** #define INIT_NAMEBUFF(fs)	{ (fs)->lfnbuf = lbuf; }
 538:Core/FatFs/Src/ff.c **** #define FREE_NAMEBUFF()
 539:Core/FatFs/Src/ff.c **** #endif
 540:Core/FatFs/Src/ff.c **** #define LEAVE_MKFS(res)	return res
 541:Core/FatFs/Src/ff.c **** 
 542:Core/FatFs/Src/ff.c **** #elif FF_USE_LFN == 3 	/* LFN enabled with dynamic working buffer on the heap */
 543:Core/FatFs/Src/ff.c **** #if FF_FS_EXFAT
 544:Core/FatFs/Src/ff.c **** #define DEF_NAMEBUFF		WCHAR *lfn;	/* Pointer to LFN working buffer and directory entry block scratc
 545:Core/FatFs/Src/ff.c **** #define INIT_NAMEBUFF(fs)	{ lfn = ff_memalloc((FF_MAX_LFN+1)*2 + MAXDIRB(FF_MAX_LFN)); if (!lfn) LE
ARM GAS  C:\Users\84759\AppData\Local\Temp\cc0twHqK.s 			page 11


 546:Core/FatFs/Src/ff.c **** #define FREE_NAMEBUFF()	ff_memfree(lfn)
 547:Core/FatFs/Src/ff.c **** #else
 548:Core/FatFs/Src/ff.c **** #define DEF_NAMEBUFF		WCHAR *lfn;	/* Pointer to LFN working buffer */
 549:Core/FatFs/Src/ff.c **** #define INIT_NAMEBUFF(fs)	{ lfn = ff_memalloc((FF_MAX_LFN+1)*2); if (!lfn) LEAVE_FF(fs, FR_NOT_ENOU
 550:Core/FatFs/Src/ff.c **** #define FREE_NAMEBUFF()	ff_memfree(lfn)
 551:Core/FatFs/Src/ff.c **** #endif
 552:Core/FatFs/Src/ff.c **** #define LEAVE_MKFS(res)	{ if (!work) ff_memfree(buf); return res; }
 553:Core/FatFs/Src/ff.c **** #define MAX_MALLOC	0x8000	/* Must be >=FF_MAX_SS */
 554:Core/FatFs/Src/ff.c **** 
 555:Core/FatFs/Src/ff.c **** #else
 556:Core/FatFs/Src/ff.c **** #error Wrong setting of FF_USE_LFN
 557:Core/FatFs/Src/ff.c **** 
 558:Core/FatFs/Src/ff.c **** #endif	/* FF_USE_LFN == 1 */
 559:Core/FatFs/Src/ff.c **** #endif	/* FF_USE_LFN == 0 */
 560:Core/FatFs/Src/ff.c **** 
 561:Core/FatFs/Src/ff.c **** 
 562:Core/FatFs/Src/ff.c **** 
 563:Core/FatFs/Src/ff.c **** /*--------------------------------*/
 564:Core/FatFs/Src/ff.c **** /* Code conversion tables         */
 565:Core/FatFs/Src/ff.c **** /*--------------------------------*/
 566:Core/FatFs/Src/ff.c **** 
 567:Core/FatFs/Src/ff.c **** #if FF_CODE_PAGE == 0	/* Run-time code page configuration */
 568:Core/FatFs/Src/ff.c **** #define CODEPAGE CodePage
 569:Core/FatFs/Src/ff.c **** static WORD CodePage;	/* Current code page */
 570:Core/FatFs/Src/ff.c **** static const BYTE* ExCvt;	/* Pointer to SBCS up-case table Ct???[] (null:disabled) */
 571:Core/FatFs/Src/ff.c **** static const BYTE* DbcTbl;	/* Pointer to DBCS code range table Dc???[] (null:disabled) */
 572:Core/FatFs/Src/ff.c **** 
 573:Core/FatFs/Src/ff.c **** static const BYTE Ct437[] = TBL_CT437;
 574:Core/FatFs/Src/ff.c **** static const BYTE Ct720[] = TBL_CT720;
 575:Core/FatFs/Src/ff.c **** static const BYTE Ct737[] = TBL_CT737;
 576:Core/FatFs/Src/ff.c **** static const BYTE Ct771[] = TBL_CT771;
 577:Core/FatFs/Src/ff.c **** static const BYTE Ct775[] = TBL_CT775;
 578:Core/FatFs/Src/ff.c **** static const BYTE Ct850[] = TBL_CT850;
 579:Core/FatFs/Src/ff.c **** static const BYTE Ct852[] = TBL_CT852;
 580:Core/FatFs/Src/ff.c **** static const BYTE Ct855[] = TBL_CT855;
 581:Core/FatFs/Src/ff.c **** static const BYTE Ct857[] = TBL_CT857;
 582:Core/FatFs/Src/ff.c **** static const BYTE Ct860[] = TBL_CT860;
 583:Core/FatFs/Src/ff.c **** static const BYTE Ct861[] = TBL_CT861;
 584:Core/FatFs/Src/ff.c **** static const BYTE Ct862[] = TBL_CT862;
 585:Core/FatFs/Src/ff.c **** static const BYTE Ct863[] = TBL_CT863;
 586:Core/FatFs/Src/ff.c **** static const BYTE Ct864[] = TBL_CT864;
 587:Core/FatFs/Src/ff.c **** static const BYTE Ct865[] = TBL_CT865;
 588:Core/FatFs/Src/ff.c **** static const BYTE Ct866[] = TBL_CT866;
 589:Core/FatFs/Src/ff.c **** static const BYTE Ct869[] = TBL_CT869;
 590:Core/FatFs/Src/ff.c **** static const BYTE Dc932[] = TBL_DC932;
 591:Core/FatFs/Src/ff.c **** static const BYTE Dc936[] = TBL_DC936;
 592:Core/FatFs/Src/ff.c **** static const BYTE Dc949[] = TBL_DC949;
 593:Core/FatFs/Src/ff.c **** static const BYTE Dc950[] = TBL_DC950;
 594:Core/FatFs/Src/ff.c **** 
 595:Core/FatFs/Src/ff.c **** #elif FF_CODE_PAGE < 900	/* Static code page configuration (SBCS) */
 596:Core/FatFs/Src/ff.c **** #define CODEPAGE FF_CODE_PAGE
 597:Core/FatFs/Src/ff.c **** static const BYTE ExCvt[] = MKCVTBL(TBL_CT, FF_CODE_PAGE);
 598:Core/FatFs/Src/ff.c **** 
 599:Core/FatFs/Src/ff.c **** #else					/* Static code page configuration (DBCS) */
 600:Core/FatFs/Src/ff.c **** #define CODEPAGE FF_CODE_PAGE
 601:Core/FatFs/Src/ff.c **** static const BYTE DbcTbl[] = MKCVTBL(TBL_DC, FF_CODE_PAGE);
 602:Core/FatFs/Src/ff.c **** 
ARM GAS  C:\Users\84759\AppData\Local\Temp\cc0twHqK.s 			page 12


 603:Core/FatFs/Src/ff.c **** #endif
 604:Core/FatFs/Src/ff.c **** 
 605:Core/FatFs/Src/ff.c **** 
 606:Core/FatFs/Src/ff.c **** 
 607:Core/FatFs/Src/ff.c **** 
 608:Core/FatFs/Src/ff.c **** /*--------------------------------------------------------------------------
 609:Core/FatFs/Src/ff.c **** 
 610:Core/FatFs/Src/ff.c ****    Module Private Functions
 611:Core/FatFs/Src/ff.c **** 
 612:Core/FatFs/Src/ff.c **** ---------------------------------------------------------------------------*/
 613:Core/FatFs/Src/ff.c **** 
 614:Core/FatFs/Src/ff.c **** 
 615:Core/FatFs/Src/ff.c **** /*-----------------------------------------------------------------------*/
 616:Core/FatFs/Src/ff.c **** /* Load/Store multi-byte word in the FAT structure                       */
 617:Core/FatFs/Src/ff.c **** /*-----------------------------------------------------------------------*/
 618:Core/FatFs/Src/ff.c **** 
 619:Core/FatFs/Src/ff.c **** static WORD ld_16 (const BYTE* ptr)	/*	 Load a 2-byte little-endian word */
 620:Core/FatFs/Src/ff.c **** {
  27              		.loc 1 620 1 view -0
  28              		.cfi_startproc
  29              		@ args = 0, pretend = 0, frame = 0
  30              		@ frame_needed = 0, uses_anonymous_args = 0
  31              		@ link register save eliminated.
 621:Core/FatFs/Src/ff.c **** 	WORD rv;
  32              		.loc 1 621 2 view .LVU1
 622:Core/FatFs/Src/ff.c **** 
 623:Core/FatFs/Src/ff.c **** 	rv = ptr[1];
  33              		.loc 1 623 2 view .LVU2
  34              		.loc 1 623 10 is_stmt 0 view .LVU3
  35 0000 4278     		ldrb	r2, [r0, #1]	@ zero_extendqisi2
  36              	.LVL1:
 624:Core/FatFs/Src/ff.c **** 	rv = rv << 8 | ptr[0];
  37              		.loc 1 624 2 is_stmt 1 view .LVU4
  38              		.loc 1 624 20 is_stmt 0 view .LVU5
  39 0002 0078     		ldrb	r0, [r0]	@ zero_extendqisi2
  40              	.LVL2:
 625:Core/FatFs/Src/ff.c **** 	return rv;
  41              		.loc 1 625 2 is_stmt 1 view .LVU6
 626:Core/FatFs/Src/ff.c **** }
  42              		.loc 1 626 1 is_stmt 0 view .LVU7
  43 0004 40EA0220 		orr	r0, r0, r2, lsl #8
  44              	.LVL3:
  45              		.loc 1 626 1 view .LVU8
  46 0008 7047     		bx	lr
  47              		.cfi_endproc
  48              	.LFE0:
  50              		.section	.text.ld_32,"ax",%progbits
  51              		.align	1
  52              		.syntax unified
  53              		.thumb
  54              		.thumb_func
  56              	ld_32:
  57              	.LVL4:
  58              	.LFB1:
 627:Core/FatFs/Src/ff.c **** 
 628:Core/FatFs/Src/ff.c **** static DWORD ld_32 (const BYTE* ptr)	/* Load a 4-byte little-endian word */
 629:Core/FatFs/Src/ff.c **** {
ARM GAS  C:\Users\84759\AppData\Local\Temp\cc0twHqK.s 			page 13


  59              		.loc 1 629 1 is_stmt 1 view -0
  60              		.cfi_startproc
  61              		@ args = 0, pretend = 0, frame = 0
  62              		@ frame_needed = 0, uses_anonymous_args = 0
  63              		@ link register save eliminated.
 630:Core/FatFs/Src/ff.c **** 	DWORD rv;
  64              		.loc 1 630 2 view .LVU10
 631:Core/FatFs/Src/ff.c **** 
 632:Core/FatFs/Src/ff.c **** 	rv = ptr[3];
  65              		.loc 1 632 2 view .LVU11
  66              		.loc 1 632 10 is_stmt 0 view .LVU12
  67 0000 C278     		ldrb	r2, [r0, #3]	@ zero_extendqisi2
  68              	.LVL5:
 633:Core/FatFs/Src/ff.c **** 	rv = rv << 8 | ptr[2];
  69              		.loc 1 633 2 is_stmt 1 view .LVU13
  70              		.loc 1 633 20 is_stmt 0 view .LVU14
  71 0002 8378     		ldrb	r3, [r0, #2]	@ zero_extendqisi2
  72              		.loc 1 633 5 view .LVU15
  73 0004 43EA0222 		orr	r2, r3, r2, lsl #8
  74              	.LVL6:
 634:Core/FatFs/Src/ff.c **** 	rv = rv << 8 | ptr[1];
  75              		.loc 1 634 2 is_stmt 1 view .LVU16
  76              		.loc 1 634 20 is_stmt 0 view .LVU17
  77 0008 4378     		ldrb	r3, [r0, #1]	@ zero_extendqisi2
  78              		.loc 1 634 5 view .LVU18
  79 000a 43EA0223 		orr	r3, r3, r2, lsl #8
  80              	.LVL7:
 635:Core/FatFs/Src/ff.c **** 	rv = rv << 8 | ptr[0];
  81              		.loc 1 635 2 is_stmt 1 view .LVU19
  82              		.loc 1 635 20 is_stmt 0 view .LVU20
  83 000e 0078     		ldrb	r0, [r0]	@ zero_extendqisi2
  84              	.LVL8:
 636:Core/FatFs/Src/ff.c **** 	return rv;
  85              		.loc 1 636 2 is_stmt 1 view .LVU21
 637:Core/FatFs/Src/ff.c **** }
  86              		.loc 1 637 1 is_stmt 0 view .LVU22
  87 0010 40EA0320 		orr	r0, r0, r3, lsl #8
  88              	.LVL9:
  89              		.loc 1 637 1 view .LVU23
  90 0014 7047     		bx	lr
  91              		.cfi_endproc
  92              	.LFE1:
  94              		.section	.text.st_16,"ax",%progbits
  95              		.align	1
  96              		.syntax unified
  97              		.thumb
  98              		.thumb_func
 100              	st_16:
 101              	.LVL10:
 102              	.LFB2:
 638:Core/FatFs/Src/ff.c **** 
 639:Core/FatFs/Src/ff.c **** #if FF_FS_EXFAT
 640:Core/FatFs/Src/ff.c **** static QWORD ld_64 (const BYTE* ptr)	/* Load an 8-byte little-endian word */
 641:Core/FatFs/Src/ff.c **** {
 642:Core/FatFs/Src/ff.c **** 	QWORD rv;
 643:Core/FatFs/Src/ff.c **** 
 644:Core/FatFs/Src/ff.c **** 	rv = ptr[7];
ARM GAS  C:\Users\84759\AppData\Local\Temp\cc0twHqK.s 			page 14


 645:Core/FatFs/Src/ff.c **** 	rv = rv << 8 | ptr[6];
 646:Core/FatFs/Src/ff.c **** 	rv = rv << 8 | ptr[5];
 647:Core/FatFs/Src/ff.c **** 	rv = rv << 8 | ptr[4];
 648:Core/FatFs/Src/ff.c **** 	rv = rv << 8 | ptr[3];
 649:Core/FatFs/Src/ff.c **** 	rv = rv << 8 | ptr[2];
 650:Core/FatFs/Src/ff.c **** 	rv = rv << 8 | ptr[1];
 651:Core/FatFs/Src/ff.c **** 	rv = rv << 8 | ptr[0];
 652:Core/FatFs/Src/ff.c **** 	return rv;
 653:Core/FatFs/Src/ff.c **** }
 654:Core/FatFs/Src/ff.c **** #endif
 655:Core/FatFs/Src/ff.c **** 
 656:Core/FatFs/Src/ff.c **** #if !FF_FS_READONLY
 657:Core/FatFs/Src/ff.c **** static void st_16 (BYTE* ptr, WORD val)	/* Store a 2-byte word in little-endian */
 658:Core/FatFs/Src/ff.c **** {
 103              		.loc 1 658 1 is_stmt 1 view -0
 104              		.cfi_startproc
 105              		@ args = 0, pretend = 0, frame = 0
 106              		@ frame_needed = 0, uses_anonymous_args = 0
 107              		@ link register save eliminated.
 659:Core/FatFs/Src/ff.c **** 	*ptr++ = (BYTE)val; val >>= 8;
 108              		.loc 1 659 2 view .LVU25
 109              		.loc 1 659 9 is_stmt 0 view .LVU26
 110 0000 0170     		strb	r1, [r0]
 111              		.loc 1 659 22 is_stmt 1 view .LVU27
 112              	.LVL11:
 660:Core/FatFs/Src/ff.c **** 	*ptr++ = (BYTE)val;
 113              		.loc 1 660 2 view .LVU28
 114              		.loc 1 660 11 is_stmt 0 view .LVU29
 115 0002 090A     		lsrs	r1, r1, #8
 116              	.LVL12:
 117              		.loc 1 660 9 view .LVU30
 118 0004 4170     		strb	r1, [r0, #1]
 661:Core/FatFs/Src/ff.c **** }
 119              		.loc 1 661 1 view .LVU31
 120 0006 7047     		bx	lr
 121              		.cfi_endproc
 122              	.LFE2:
 124              		.section	.text.st_32,"ax",%progbits
 125              		.align	1
 126              		.syntax unified
 127              		.thumb
 128              		.thumb_func
 130              	st_32:
 131              	.LVL13:
 132              	.LFB3:
 662:Core/FatFs/Src/ff.c **** 
 663:Core/FatFs/Src/ff.c **** static void st_32 (BYTE* ptr, DWORD val)	/* Store a 4-byte word in little-endian */
 664:Core/FatFs/Src/ff.c **** {
 133              		.loc 1 664 1 is_stmt 1 view -0
 134              		.cfi_startproc
 135              		@ args = 0, pretend = 0, frame = 0
 136              		@ frame_needed = 0, uses_anonymous_args = 0
 137              		@ link register save eliminated.
 665:Core/FatFs/Src/ff.c **** 	*ptr++ = (BYTE)val; val >>= 8;
 138              		.loc 1 665 2 view .LVU33
 139              		.loc 1 665 9 is_stmt 0 view .LVU34
 140 0000 0170     		strb	r1, [r0]
ARM GAS  C:\Users\84759\AppData\Local\Temp\cc0twHqK.s 			page 15


 141              		.loc 1 665 22 is_stmt 1 view .LVU35
 142              	.LVL14:
 666:Core/FatFs/Src/ff.c **** 	*ptr++ = (BYTE)val; val >>= 8;
 143              		.loc 1 666 2 view .LVU36
 144              		.loc 1 666 11 is_stmt 0 view .LVU37
 145 0002 C1F30723 		ubfx	r3, r1, #8, #8
 146              		.loc 1 666 9 view .LVU38
 147 0006 4370     		strb	r3, [r0, #1]
 148              		.loc 1 666 22 is_stmt 1 view .LVU39
 149              	.LVL15:
 667:Core/FatFs/Src/ff.c **** 	*ptr++ = (BYTE)val; val >>= 8;
 150              		.loc 1 667 2 view .LVU40
 151              		.loc 1 667 11 is_stmt 0 view .LVU41
 152 0008 C1F30743 		ubfx	r3, r1, #16, #8
 153              		.loc 1 667 9 view .LVU42
 154 000c 8370     		strb	r3, [r0, #2]
 155              		.loc 1 667 22 is_stmt 1 view .LVU43
 156              	.LVL16:
 668:Core/FatFs/Src/ff.c **** 	*ptr++ = (BYTE)val;
 157              		.loc 1 668 2 view .LVU44
 158              		.loc 1 668 11 is_stmt 0 view .LVU45
 159 000e 090E     		lsrs	r1, r1, #24
 160              	.LVL17:
 161              		.loc 1 668 9 view .LVU46
 162 0010 C170     		strb	r1, [r0, #3]
 669:Core/FatFs/Src/ff.c **** }
 163              		.loc 1 669 1 view .LVU47
 164 0012 7047     		bx	lr
 165              		.cfi_endproc
 166              	.LFE3:
 168              		.section	.text.dbc_1st,"ax",%progbits
 169              		.align	1
 170              		.syntax unified
 171              		.thumb
 172              		.thumb_func
 174              	dbc_1st:
 175              	.LVL18:
 176              	.LFB4:
 670:Core/FatFs/Src/ff.c **** 
 671:Core/FatFs/Src/ff.c **** #if FF_FS_EXFAT
 672:Core/FatFs/Src/ff.c **** static void st_64 (BYTE* ptr, QWORD val)	/* Store an 8-byte word in little-endian */
 673:Core/FatFs/Src/ff.c **** {
 674:Core/FatFs/Src/ff.c **** 	*ptr++ = (BYTE)val; val >>= 8;
 675:Core/FatFs/Src/ff.c **** 	*ptr++ = (BYTE)val; val >>= 8;
 676:Core/FatFs/Src/ff.c **** 	*ptr++ = (BYTE)val; val >>= 8;
 677:Core/FatFs/Src/ff.c **** 	*ptr++ = (BYTE)val; val >>= 8;
 678:Core/FatFs/Src/ff.c **** 	*ptr++ = (BYTE)val; val >>= 8;
 679:Core/FatFs/Src/ff.c **** 	*ptr++ = (BYTE)val; val >>= 8;
 680:Core/FatFs/Src/ff.c **** 	*ptr++ = (BYTE)val; val >>= 8;
 681:Core/FatFs/Src/ff.c **** 	*ptr++ = (BYTE)val;
 682:Core/FatFs/Src/ff.c **** }
 683:Core/FatFs/Src/ff.c **** #endif
 684:Core/FatFs/Src/ff.c **** #endif	/* !FF_FS_READONLY */
 685:Core/FatFs/Src/ff.c **** 
 686:Core/FatFs/Src/ff.c **** 
 687:Core/FatFs/Src/ff.c **** 
 688:Core/FatFs/Src/ff.c **** /*-----------------------------------------------------------------------*/
ARM GAS  C:\Users\84759\AppData\Local\Temp\cc0twHqK.s 			page 16


 689:Core/FatFs/Src/ff.c **** /* String functions                                                      */
 690:Core/FatFs/Src/ff.c **** /*-----------------------------------------------------------------------*/
 691:Core/FatFs/Src/ff.c **** 
 692:Core/FatFs/Src/ff.c **** /* Test if the byte is DBC 1st byte */
 693:Core/FatFs/Src/ff.c **** static int dbc_1st (BYTE c)
 694:Core/FatFs/Src/ff.c **** {
 177              		.loc 1 694 1 is_stmt 1 view -0
 178              		.cfi_startproc
 179              		@ args = 0, pretend = 0, frame = 0
 180              		@ frame_needed = 0, uses_anonymous_args = 0
 181              		@ link register save eliminated.
 695:Core/FatFs/Src/ff.c **** #if FF_CODE_PAGE == 0		/* Variable code page */
 696:Core/FatFs/Src/ff.c **** 	if (DbcTbl && c >= DbcTbl[0]) {
 697:Core/FatFs/Src/ff.c **** 		if (c <= DbcTbl[1]) return 1;					/* 1st byte range 1 */
 698:Core/FatFs/Src/ff.c **** 		if (c >= DbcTbl[2] && c <= DbcTbl[3]) return 1;	/* 1st byte range 2 */
 699:Core/FatFs/Src/ff.c **** 	}
 700:Core/FatFs/Src/ff.c **** #elif FF_CODE_PAGE >= 900	/* DBCS fixed code page */
 701:Core/FatFs/Src/ff.c **** 	if (c >= DbcTbl[0]) {
 182              		.loc 1 701 2 view .LVU49
 183              		.loc 1 701 5 is_stmt 0 view .LVU50
 184 0000 8028     		cmp	r0, #128
 185 0002 04D9     		bls	.L7
 702:Core/FatFs/Src/ff.c **** 		if (c <= DbcTbl[1]) return 1;
 186              		.loc 1 702 3 is_stmt 1 view .LVU51
 187              		.loc 1 702 6 is_stmt 0 view .LVU52
 188 0004 FF28     		cmp	r0, #255
 189 0006 04D1     		bne	.L8
 703:Core/FatFs/Src/ff.c **** 		if (c >= DbcTbl[2] && c <= DbcTbl[3]) return 1;
 190              		.loc 1 703 3 is_stmt 1 discriminator 1 view .LVU53
 191              		.loc 1 703 22 is_stmt 0 discriminator 1 view .LVU54
 192 0008 28B1     		cbz	r0, .L9
 704:Core/FatFs/Src/ff.c **** 	}
 705:Core/FatFs/Src/ff.c **** #else						/* SBCS fixed code page */
 706:Core/FatFs/Src/ff.c **** 	if (c != 0) return 0;	/* Always false */
 707:Core/FatFs/Src/ff.c **** #endif
 708:Core/FatFs/Src/ff.c **** 	return 0;
 193              		.loc 1 708 9 view .LVU55
 194 000a 0020     		movs	r0, #0
 195              	.LVL19:
 196              		.loc 1 708 9 view .LVU56
 197 000c 7047     		bx	lr
 198              	.LVL20:
 199              	.L7:
 200              		.loc 1 708 9 view .LVU57
 201 000e 0020     		movs	r0, #0
 202              	.LVL21:
 203              		.loc 1 708 9 view .LVU58
 204 0010 7047     		bx	lr
 205              	.LVL22:
 206              	.L8:
 702:Core/FatFs/Src/ff.c **** 		if (c >= DbcTbl[2] && c <= DbcTbl[3]) return 1;
 207              		.loc 1 702 30 view .LVU59
 208 0012 0120     		movs	r0, #1
 209              	.LVL23:
 702:Core/FatFs/Src/ff.c **** 		if (c >= DbcTbl[2] && c <= DbcTbl[3]) return 1;
 210              		.loc 1 702 30 view .LVU60
 211 0014 7047     		bx	lr
ARM GAS  C:\Users\84759\AppData\Local\Temp\cc0twHqK.s 			page 17


 212              	.LVL24:
 213              	.L9:
 703:Core/FatFs/Src/ff.c **** 		if (c >= DbcTbl[2] && c <= DbcTbl[3]) return 1;
 214              		.loc 1 703 48 view .LVU61
 215 0016 0120     		movs	r0, #1
 216              	.LVL25:
 709:Core/FatFs/Src/ff.c **** }
 217              		.loc 1 709 1 view .LVU62
 218 0018 7047     		bx	lr
 219              		.cfi_endproc
 220              	.LFE4:
 222              		.section	.text.dbc_2nd,"ax",%progbits
 223              		.align	1
 224              		.syntax unified
 225              		.thumb
 226              		.thumb_func
 228              	dbc_2nd:
 229              	.LVL26:
 230              	.LFB5:
 710:Core/FatFs/Src/ff.c **** 
 711:Core/FatFs/Src/ff.c **** 
 712:Core/FatFs/Src/ff.c **** /* Test if the byte is DBC 2nd byte */
 713:Core/FatFs/Src/ff.c **** static int dbc_2nd (BYTE c)
 714:Core/FatFs/Src/ff.c **** {
 231              		.loc 1 714 1 is_stmt 1 view -0
 232              		.cfi_startproc
 233              		@ args = 0, pretend = 0, frame = 0
 234              		@ frame_needed = 0, uses_anonymous_args = 0
 235              		@ link register save eliminated.
 715:Core/FatFs/Src/ff.c **** #if FF_CODE_PAGE == 0		/* Variable code page */
 716:Core/FatFs/Src/ff.c **** 	if (DbcTbl && c >= DbcTbl[4]) {
 717:Core/FatFs/Src/ff.c **** 		if (c <= DbcTbl[5]) return 1;					/* 2nd byte range 1 */
 718:Core/FatFs/Src/ff.c **** 		if (c >= DbcTbl[6] && c <= DbcTbl[7]) return 1;	/* 2nd byte range 2 */
 719:Core/FatFs/Src/ff.c **** 		if (c >= DbcTbl[8] && c <= DbcTbl[9]) return 1;	/* 2nd byte range 3 */
 720:Core/FatFs/Src/ff.c **** 	}
 721:Core/FatFs/Src/ff.c **** #elif FF_CODE_PAGE >= 900	/* DBCS fixed code page */
 722:Core/FatFs/Src/ff.c **** 	if (c >= DbcTbl[4]) {
 236              		.loc 1 722 2 view .LVU64
 237              		.loc 1 722 5 is_stmt 0 view .LVU65
 238 0000 3F28     		cmp	r0, #63
 239 0002 0BD9     		bls	.L13
 723:Core/FatFs/Src/ff.c **** 		if (c <= DbcTbl[5]) return 1;
 240              		.loc 1 723 3 is_stmt 1 view .LVU66
 241              		.loc 1 723 6 is_stmt 0 view .LVU67
 242 0004 7E28     		cmp	r0, #126
 243 0006 0BD9     		bls	.L14
 724:Core/FatFs/Src/ff.c **** 		if (c >= DbcTbl[6] && c <= DbcTbl[7]) return 1;
 244              		.loc 1 724 3 is_stmt 1 view .LVU68
 245              		.loc 1 724 6 is_stmt 0 view .LVU69
 246 0008 10F0800F 		tst	r0, #128
 247 000c 02D1     		bne	.L17
 248              	.L12:
 725:Core/FatFs/Src/ff.c **** 		if (c >= DbcTbl[8] && c <= DbcTbl[9]) return 1;
 249              		.loc 1 725 3 is_stmt 1 discriminator 1 view .LVU70
 250              		.loc 1 725 22 is_stmt 0 discriminator 1 view .LVU71
 251 000e 48B1     		cbz	r0, .L16
 726:Core/FatFs/Src/ff.c **** 	}
ARM GAS  C:\Users\84759\AppData\Local\Temp\cc0twHqK.s 			page 18


 727:Core/FatFs/Src/ff.c **** #else						/* SBCS fixed code page */
 728:Core/FatFs/Src/ff.c **** 	if (c != 0) return 0;	/* Always false */
 729:Core/FatFs/Src/ff.c **** #endif
 730:Core/FatFs/Src/ff.c **** 	return 0;
 252              		.loc 1 730 9 view .LVU72
 253 0010 0020     		movs	r0, #0
 254              	.LVL27:
 255              		.loc 1 730 9 view .LVU73
 256 0012 7047     		bx	lr
 257              	.LVL28:
 258              	.L17:
 724:Core/FatFs/Src/ff.c **** 		if (c >= DbcTbl[8] && c <= DbcTbl[9]) return 1;
 259              		.loc 1 724 22 discriminator 1 view .LVU74
 260 0014 FF28     		cmp	r0, #255
 261 0016 FAD0     		beq	.L12
 724:Core/FatFs/Src/ff.c **** 		if (c >= DbcTbl[8] && c <= DbcTbl[9]) return 1;
 262              		.loc 1 724 48 view .LVU75
 263 0018 0120     		movs	r0, #1
 264              	.LVL29:
 724:Core/FatFs/Src/ff.c **** 		if (c >= DbcTbl[8] && c <= DbcTbl[9]) return 1;
 265              		.loc 1 724 48 view .LVU76
 266 001a 7047     		bx	lr
 267              	.LVL30:
 268              	.L13:
 269              		.loc 1 730 9 view .LVU77
 270 001c 0020     		movs	r0, #0
 271              	.LVL31:
 272              		.loc 1 730 9 view .LVU78
 273 001e 7047     		bx	lr
 274              	.LVL32:
 275              	.L14:
 723:Core/FatFs/Src/ff.c **** 		if (c >= DbcTbl[6] && c <= DbcTbl[7]) return 1;
 276              		.loc 1 723 30 view .LVU79
 277 0020 0120     		movs	r0, #1
 278              	.LVL33:
 723:Core/FatFs/Src/ff.c **** 		if (c >= DbcTbl[6] && c <= DbcTbl[7]) return 1;
 279              		.loc 1 723 30 view .LVU80
 280 0022 7047     		bx	lr
 281              	.LVL34:
 282              	.L16:
 725:Core/FatFs/Src/ff.c **** 	}
 283              		.loc 1 725 48 view .LVU81
 284 0024 0120     		movs	r0, #1
 285              	.LVL35:
 731:Core/FatFs/Src/ff.c **** }
 286              		.loc 1 731 1 view .LVU82
 287 0026 7047     		bx	lr
 288              		.cfi_endproc
 289              	.LFE5:
 291              		.section	.text.tchar2uni,"ax",%progbits
 292              		.align	1
 293              		.syntax unified
 294              		.thumb
 295              		.thumb_func
 297              	tchar2uni:
 298              	.LVL36:
 299              	.LFB6:
ARM GAS  C:\Users\84759\AppData\Local\Temp\cc0twHqK.s 			page 19


 732:Core/FatFs/Src/ff.c **** 
 733:Core/FatFs/Src/ff.c **** 
 734:Core/FatFs/Src/ff.c **** #if FF_USE_LFN
 735:Core/FatFs/Src/ff.c **** 
 736:Core/FatFs/Src/ff.c **** /* Get a Unicode code point from the TCHAR string in defined API encodeing */
 737:Core/FatFs/Src/ff.c **** static DWORD tchar2uni (	/* Returns a character in UTF-16 encoding (>=0x10000 on surrogate pair, 0x
 738:Core/FatFs/Src/ff.c **** 	const TCHAR** str		/* Pointer to pointer to TCHAR string in configured encoding */
 739:Core/FatFs/Src/ff.c **** )
 740:Core/FatFs/Src/ff.c **** {
 300              		.loc 1 740 1 is_stmt 1 view -0
 301              		.cfi_startproc
 302              		@ args = 0, pretend = 0, frame = 0
 303              		@ frame_needed = 0, uses_anonymous_args = 0
 304              		.loc 1 740 1 is_stmt 0 view .LVU84
 305 0000 00B5     		push	{lr}
 306              	.LCFI0:
 307              		.cfi_def_cfa_offset 4
 308              		.cfi_offset 14, -4
 309 0002 8646     		mov	lr, r0
 741:Core/FatFs/Src/ff.c **** 	DWORD uc;
 310              		.loc 1 741 2 is_stmt 1 view .LVU85
 742:Core/FatFs/Src/ff.c **** 	const TCHAR *p = *str;
 311              		.loc 1 742 2 view .LVU86
 312              	.LVL37:
 743:Core/FatFs/Src/ff.c **** 
 744:Core/FatFs/Src/ff.c **** #if FF_LFN_UNICODE == 1		/* UTF-16 input */
 745:Core/FatFs/Src/ff.c **** 	WCHAR wc;
 746:Core/FatFs/Src/ff.c **** 
 747:Core/FatFs/Src/ff.c **** 	uc = *p++;	/* Get an encoding unit */
 748:Core/FatFs/Src/ff.c **** 	if (IsSurrogate(uc)) {	/* Surrogate? */
 749:Core/FatFs/Src/ff.c **** 		wc = *p++;		/* Get low surrogate */
 750:Core/FatFs/Src/ff.c **** 		if (!IsSurrogateH(uc) || !IsSurrogateL(wc)) return 0xFFFFFFFF;	/* Wrong surrogate? */
 751:Core/FatFs/Src/ff.c **** 		uc = uc << 16 | wc;
 752:Core/FatFs/Src/ff.c **** 	}
 753:Core/FatFs/Src/ff.c **** 
 754:Core/FatFs/Src/ff.c **** #elif FF_LFN_UNICODE == 2	/* UTF-8 input */
 755:Core/FatFs/Src/ff.c **** 	BYTE tb;
 313              		.loc 1 755 2 view .LVU87
 756:Core/FatFs/Src/ff.c **** 	int nf;
 314              		.loc 1 756 2 view .LVU88
 757:Core/FatFs/Src/ff.c **** 
 758:Core/FatFs/Src/ff.c **** 	uc = (BYTE)*p++;	/* Get an encoding unit */
 315              		.loc 1 758 2 view .LVU89
 316              		.loc 1 758 15 is_stmt 0 view .LVU90
 317 0004 0268     		ldr	r2, [r0]
 318              	.LVL38:
 319              		.loc 1 758 13 view .LVU91
 320 0006 12F8013B 		ldrb	r3, [r2], #1	@ zero_extendqisi2
 321              	.LVL39:
 322              		.loc 1 758 5 view .LVU92
 323 000a 1846     		mov	r0, r3
 324              	.LVL40:
 759:Core/FatFs/Src/ff.c **** 	if (uc & 0x80) {	/* Multiple byte code? */
 325              		.loc 1 759 2 is_stmt 1 view .LVU93
 326              		.loc 1 759 5 is_stmt 0 view .LVU94
 327 000c 13F0800F 		tst	r3, #128
 328 0010 03D1     		bne	.L31
ARM GAS  C:\Users\84759\AppData\Local\Temp\cc0twHqK.s 			page 20


 329              	.LVL41:
 330              	.L19:
 760:Core/FatFs/Src/ff.c **** 		if        ((uc & 0xE0) == 0xC0) {	/* 2-byte sequence? */
 761:Core/FatFs/Src/ff.c **** 			uc &= 0x1F; nf = 1;
 762:Core/FatFs/Src/ff.c **** 		} else if ((uc & 0xF0) == 0xE0) {	/* 3-byte sequence? */
 763:Core/FatFs/Src/ff.c **** 			uc &= 0x0F; nf = 2;
 764:Core/FatFs/Src/ff.c **** 		} else if ((uc & 0xF8) == 0xF0) {	/* 4-byte sequence? */
 765:Core/FatFs/Src/ff.c **** 			uc &= 0x07; nf = 3;
 766:Core/FatFs/Src/ff.c **** 		} else {							/* Wrong sequence */
 767:Core/FatFs/Src/ff.c **** 			return 0xFFFFFFFF;
 768:Core/FatFs/Src/ff.c **** 		}
 769:Core/FatFs/Src/ff.c **** 		do {	/* Get and merge trailing bytes */
 770:Core/FatFs/Src/ff.c **** 			tb = (BYTE)*p++;
 771:Core/FatFs/Src/ff.c **** 			if ((tb & 0xC0) != 0x80) return 0xFFFFFFFF;	/* Wrong sequence? */
 772:Core/FatFs/Src/ff.c **** 			uc = uc << 6 | (tb & 0x3F);
 773:Core/FatFs/Src/ff.c **** 		} while (--nf != 0);
 774:Core/FatFs/Src/ff.c **** 		if (uc < 0x80 || IsSurrogate(uc) || uc >= 0x110000) return 0xFFFFFFFF;	/* Wrong code? */
 775:Core/FatFs/Src/ff.c **** 		if (uc >= 0x010000) uc = 0xD800DC00 | ((uc - 0x10000) << 6 & 0x3FF0000) | (uc & 0x3FF);	/* Make a
 776:Core/FatFs/Src/ff.c **** 	}
 777:Core/FatFs/Src/ff.c **** 
 778:Core/FatFs/Src/ff.c **** #elif FF_LFN_UNICODE == 3	/* UTF-32 input */
 779:Core/FatFs/Src/ff.c **** 	uc = (TCHAR)*p++;	/* Get a unit */
 780:Core/FatFs/Src/ff.c **** 	if (uc >= 0x110000 || IsSurrogate(uc)) return 0xFFFFFFFF;	/* Wrong code? */
 781:Core/FatFs/Src/ff.c **** 	if (uc >= 0x010000) uc = 0xD800DC00 | ((uc - 0x10000) << 6 & 0x3FF0000) | (uc & 0x3FF);	/* Make a 
 782:Core/FatFs/Src/ff.c **** 
 783:Core/FatFs/Src/ff.c **** #else		/* ANSI/OEM input */
 784:Core/FatFs/Src/ff.c **** 	BYTE sb;
 785:Core/FatFs/Src/ff.c **** 	WCHAR wc;
 786:Core/FatFs/Src/ff.c **** 
 787:Core/FatFs/Src/ff.c **** 	wc = (BYTE)*p++;			/* Get a byte */
 788:Core/FatFs/Src/ff.c **** 	if (dbc_1st((BYTE)wc)) {	/* Is it a DBC 1st byte? */
 789:Core/FatFs/Src/ff.c **** 		sb = (BYTE)*p++;		/* Get 2nd byte */
 790:Core/FatFs/Src/ff.c **** 		if (!dbc_2nd(sb)) return 0xFFFFFFFF;	/* Invalid code? */
 791:Core/FatFs/Src/ff.c **** 		wc = (wc << 8) + sb;	/* Make a DBC */
 792:Core/FatFs/Src/ff.c **** 	}
 793:Core/FatFs/Src/ff.c **** 	if (wc != 0) {
 794:Core/FatFs/Src/ff.c **** 		wc = ff_oem2uni(wc, CODEPAGE);	/* ANSI/OEM ==> Unicode */
 795:Core/FatFs/Src/ff.c **** 		if (wc == 0) return 0xFFFFFFFF;	/* Invalid code? */
 796:Core/FatFs/Src/ff.c **** 	}
 797:Core/FatFs/Src/ff.c **** 	uc = wc;
 798:Core/FatFs/Src/ff.c **** 
 799:Core/FatFs/Src/ff.c **** #endif
 800:Core/FatFs/Src/ff.c **** 	*str = p;	/* Next read pointer */
 331              		.loc 1 800 2 is_stmt 1 view .LVU95
 332              		.loc 1 800 7 is_stmt 0 view .LVU96
 333 0012 CEF80020 		str	r2, [lr]
 801:Core/FatFs/Src/ff.c **** 	return uc;
 334              		.loc 1 801 2 is_stmt 1 view .LVU97
 335              	.LVL42:
 336              	.L18:
 802:Core/FatFs/Src/ff.c **** }
 337              		.loc 1 802 1 is_stmt 0 view .LVU98
 338 0016 5DF804FB 		ldr	pc, [sp], #4
 339              	.LVL43:
 340              	.L31:
 760:Core/FatFs/Src/ff.c **** 		if        ((uc & 0xE0) == 0xC0) {	/* 2-byte sequence? */
 341              		.loc 1 760 3 is_stmt 1 view .LVU99
ARM GAS  C:\Users\84759\AppData\Local\Temp\cc0twHqK.s 			page 21


 760:Core/FatFs/Src/ff.c **** 		if        ((uc & 0xE0) == 0xC0) {	/* 2-byte sequence? */
 342              		.loc 1 760 13 is_stmt 0 view .LVU100
 343 001a 03F0E001 		and	r1, r3, #224
 344 001e C029     		cmp	r1, #192
 345 0020 0BD0     		beq	.L32
 762:Core/FatFs/Src/ff.c **** 			uc &= 0x0F; nf = 2;
 346              		.loc 1 762 10 is_stmt 1 view .LVU101
 762:Core/FatFs/Src/ff.c **** 			uc &= 0x0F; nf = 2;
 347              		.loc 1 762 13 is_stmt 0 view .LVU102
 348 0022 03F0F001 		and	r1, r3, #240
 349 0026 E029     		cmp	r1, #224
 350 0028 32D0     		beq	.L33
 764:Core/FatFs/Src/ff.c **** 			uc &= 0x07; nf = 3;
 351              		.loc 1 764 10 is_stmt 1 view .LVU103
 764:Core/FatFs/Src/ff.c **** 			uc &= 0x07; nf = 3;
 352              		.loc 1 764 13 is_stmt 0 view .LVU104
 353 002a 03F0F801 		and	r1, r3, #248
 354 002e F029     		cmp	r1, #240
 355 0030 32D1     		bne	.L25
 765:Core/FatFs/Src/ff.c **** 		} else {							/* Wrong sequence */
 356              		.loc 1 765 4 is_stmt 1 view .LVU105
 765:Core/FatFs/Src/ff.c **** 		} else {							/* Wrong sequence */
 357              		.loc 1 765 7 is_stmt 0 view .LVU106
 358 0032 03F00700 		and	r0, r3, #7
 359              	.LVL44:
 765:Core/FatFs/Src/ff.c **** 		} else {							/* Wrong sequence */
 360              		.loc 1 765 16 is_stmt 1 view .LVU107
 765:Core/FatFs/Src/ff.c **** 		} else {							/* Wrong sequence */
 361              		.loc 1 765 19 is_stmt 0 view .LVU108
 362 0036 0321     		movs	r1, #3
 363 0038 02E0     		b	.L24
 364              	.LVL45:
 365              	.L32:
 761:Core/FatFs/Src/ff.c **** 		} else if ((uc & 0xF0) == 0xE0) {	/* 3-byte sequence? */
 366              		.loc 1 761 4 is_stmt 1 view .LVU109
 761:Core/FatFs/Src/ff.c **** 		} else if ((uc & 0xF0) == 0xE0) {	/* 3-byte sequence? */
 367              		.loc 1 761 7 is_stmt 0 view .LVU110
 368 003a 03F01F00 		and	r0, r3, #31
 369              	.LVL46:
 761:Core/FatFs/Src/ff.c **** 		} else if ((uc & 0xF0) == 0xE0) {	/* 3-byte sequence? */
 370              		.loc 1 761 16 is_stmt 1 view .LVU111
 761:Core/FatFs/Src/ff.c **** 		} else if ((uc & 0xF0) == 0xE0) {	/* 3-byte sequence? */
 371              		.loc 1 761 19 is_stmt 0 view .LVU112
 372 003e 0121     		movs	r1, #1
 373              	.LVL47:
 374              	.L24:
 769:Core/FatFs/Src/ff.c **** 			tb = (BYTE)*p++;
 375              		.loc 1 769 3 is_stmt 1 view .LVU113
 770:Core/FatFs/Src/ff.c **** 			if ((tb & 0xC0) != 0x80) return 0xFFFFFFFF;	/* Wrong sequence? */
 376              		.loc 1 770 4 view .LVU114
 770:Core/FatFs/Src/ff.c **** 			if ((tb & 0xC0) != 0x80) return 0xFFFFFFFF;	/* Wrong sequence? */
 377              		.loc 1 770 7 is_stmt 0 view .LVU115
 378 0040 1378     		ldrb	r3, [r2]	@ zero_extendqisi2
 379 0042 0132     		adds	r2, r2, #1
 380              	.LVL48:
 771:Core/FatFs/Src/ff.c **** 			uc = uc << 6 | (tb & 0x3F);
 381              		.loc 1 771 4 is_stmt 1 view .LVU116
ARM GAS  C:\Users\84759\AppData\Local\Temp\cc0twHqK.s 			page 22


 771:Core/FatFs/Src/ff.c **** 			uc = uc << 6 | (tb & 0x3F);
 382              		.loc 1 771 7 is_stmt 0 view .LVU117
 383 0044 03F0C00C 		and	ip, r3, #192
 384 0048 BCF1800F 		cmp	ip, #128
 385 004c 27D1     		bne	.L26
 772:Core/FatFs/Src/ff.c **** 		} while (--nf != 0);
 386              		.loc 1 772 4 is_stmt 1 view .LVU118
 772:Core/FatFs/Src/ff.c **** 		} while (--nf != 0);
 387              		.loc 1 772 23 is_stmt 0 view .LVU119
 388 004e 03F03F03 		and	r3, r3, #63
 389              	.LVL49:
 772:Core/FatFs/Src/ff.c **** 		} while (--nf != 0);
 390              		.loc 1 772 7 view .LVU120
 391 0052 43EA8010 		orr	r0, r3, r0, lsl #6
 392              	.LVL50:
 773:Core/FatFs/Src/ff.c **** 		if (uc < 0x80 || IsSurrogate(uc) || uc >= 0x110000) return 0xFFFFFFFF;	/* Wrong code? */
 393              		.loc 1 773 11 is_stmt 1 view .LVU121
 773:Core/FatFs/Src/ff.c **** 		if (uc < 0x80 || IsSurrogate(uc) || uc >= 0x110000) return 0xFFFFFFFF;	/* Wrong code? */
 394              		.loc 1 773 3 is_stmt 0 view .LVU122
 395 0056 0139     		subs	r1, r1, #1
 396              	.LVL51:
 773:Core/FatFs/Src/ff.c **** 		if (uc < 0x80 || IsSurrogate(uc) || uc >= 0x110000) return 0xFFFFFFFF;	/* Wrong code? */
 397              		.loc 1 773 3 view .LVU123
 398 0058 F2D1     		bne	.L24
 774:Core/FatFs/Src/ff.c **** 		if (uc >= 0x010000) uc = 0xD800DC00 | ((uc - 0x10000) << 6 & 0x3FF0000) | (uc & 0x3FF);	/* Make a
 399              		.loc 1 774 3 is_stmt 1 view .LVU124
 774:Core/FatFs/Src/ff.c **** 		if (uc >= 0x010000) uc = 0xD800DC00 | ((uc - 0x10000) << 6 & 0x3FF0000) | (uc & 0x3FF);	/* Make a
 400              		.loc 1 774 6 is_stmt 0 view .LVU125
 401 005a 7F28     		cmp	r0, #127
 402 005c 22D9     		bls	.L27
 774:Core/FatFs/Src/ff.c **** 		if (uc >= 0x010000) uc = 0xD800DC00 | ((uc - 0x10000) << 6 & 0x3FF0000) | (uc & 0x3FF);	/* Make a
 403              		.loc 1 774 20 discriminator 2 view .LVU126
 404 005e A0F55843 		sub	r3, r0, #55296
 774:Core/FatFs/Src/ff.c **** 		if (uc >= 0x010000) uc = 0xD800DC00 | ((uc - 0x10000) << 6 & 0x3FF0000) | (uc & 0x3FF);	/* Make a
 405              		.loc 1 774 17 discriminator 2 view .LVU127
 406 0062 B3F5006F 		cmp	r3, #2048
 407 0066 20D3     		bcc	.L28
 774:Core/FatFs/Src/ff.c **** 		if (uc >= 0x010000) uc = 0xD800DC00 | ((uc - 0x10000) << 6 & 0x3FF0000) | (uc & 0x3FF);	/* Make a
 408              		.loc 1 774 36 discriminator 4 view .LVU128
 409 0068 B0F5881F 		cmp	r0, #1114112
 410 006c 20D2     		bcs	.L29
 775:Core/FatFs/Src/ff.c **** 	}
 411              		.loc 1 775 3 is_stmt 1 view .LVU129
 775:Core/FatFs/Src/ff.c **** 	}
 412              		.loc 1 775 6 is_stmt 0 view .LVU130
 413 006e B0F5803F 		cmp	r0, #65536
 414 0072 CED3     		bcc	.L19
 775:Core/FatFs/Src/ff.c **** 	}
 415              		.loc 1 775 23 is_stmt 1 discriminator 1 view .LVU131
 775:Core/FatFs/Src/ff.c **** 	}
 416              		.loc 1 775 46 is_stmt 0 discriminator 1 view .LVU132
 417 0074 A0F58033 		sub	r3, r0, #65536
 775:Core/FatFs/Src/ff.c **** 	}
 418              		.loc 1 775 62 discriminator 1 view .LVU133
 419 0078 0F49     		ldr	r1, .L34
 420              	.LVL52:
 775:Core/FatFs/Src/ff.c **** 	}
ARM GAS  C:\Users\84759\AppData\Local\Temp\cc0twHqK.s 			page 23


 421              		.loc 1 775 62 discriminator 1 view .LVU134
 422 007a 01EA8311 		and	r1, r1, r3, lsl #6
 775:Core/FatFs/Src/ff.c **** 	}
 423              		.loc 1 775 81 discriminator 1 view .LVU135
 424 007e C0F30903 		ubfx	r3, r0, #0, #10
 775:Core/FatFs/Src/ff.c **** 	}
 425              		.loc 1 775 75 discriminator 1 view .LVU136
 426 0082 41EA0300 		orr	r0, r1, r3
 427              	.LVL53:
 775:Core/FatFs/Src/ff.c **** 	}
 428              		.loc 1 775 26 discriminator 1 view .LVU137
 429 0086 40F05840 		orr	r0, r0, #-671088640
 430 008a 40F45C40 		orr	r0, r0, #56320
 431              	.LVL54:
 775:Core/FatFs/Src/ff.c **** 	}
 432              		.loc 1 775 26 discriminator 1 view .LVU138
 433 008e C0E7     		b	.L19
 434              	.LVL55:
 435              	.L33:
 763:Core/FatFs/Src/ff.c **** 		} else if ((uc & 0xF8) == 0xF0) {	/* 4-byte sequence? */
 436              		.loc 1 763 4 is_stmt 1 view .LVU139
 763:Core/FatFs/Src/ff.c **** 		} else if ((uc & 0xF8) == 0xF0) {	/* 4-byte sequence? */
 437              		.loc 1 763 7 is_stmt 0 view .LVU140
 438 0090 03F00F00 		and	r0, r3, #15
 439              	.LVL56:
 763:Core/FatFs/Src/ff.c **** 		} else if ((uc & 0xF8) == 0xF0) {	/* 4-byte sequence? */
 440              		.loc 1 763 16 is_stmt 1 view .LVU141
 763:Core/FatFs/Src/ff.c **** 		} else if ((uc & 0xF8) == 0xF0) {	/* 4-byte sequence? */
 441              		.loc 1 763 19 is_stmt 0 view .LVU142
 442 0094 0221     		movs	r1, #2
 443 0096 D3E7     		b	.L24
 444              	.LVL57:
 445              	.L25:
 767:Core/FatFs/Src/ff.c **** 		}
 446              		.loc 1 767 11 view .LVU143
 447 0098 4FF0FF30 		mov	r0, #-1
 448              	.LVL58:
 767:Core/FatFs/Src/ff.c **** 		}
 449              		.loc 1 767 11 view .LVU144
 450 009c BBE7     		b	.L18
 451              	.LVL59:
 452              	.L26:
 771:Core/FatFs/Src/ff.c **** 			uc = uc << 6 | (tb & 0x3F);
 453              		.loc 1 771 36 view .LVU145
 454 009e 4FF0FF30 		mov	r0, #-1
 455              	.LVL60:
 771:Core/FatFs/Src/ff.c **** 			uc = uc << 6 | (tb & 0x3F);
 456              		.loc 1 771 36 view .LVU146
 457 00a2 B8E7     		b	.L18
 458              	.LVL61:
 459              	.L27:
 774:Core/FatFs/Src/ff.c **** 		if (uc >= 0x010000) uc = 0xD800DC00 | ((uc - 0x10000) << 6 & 0x3FF0000) | (uc & 0x3FF);	/* Make a
 460              		.loc 1 774 62 view .LVU147
 461 00a4 4FF0FF30 		mov	r0, #-1
 462              	.LVL62:
 774:Core/FatFs/Src/ff.c **** 		if (uc >= 0x010000) uc = 0xD800DC00 | ((uc - 0x10000) << 6 & 0x3FF0000) | (uc & 0x3FF);	/* Make a
 463              		.loc 1 774 62 view .LVU148
ARM GAS  C:\Users\84759\AppData\Local\Temp\cc0twHqK.s 			page 24


 464 00a8 B5E7     		b	.L18
 465              	.LVL63:
 466              	.L28:
 774:Core/FatFs/Src/ff.c **** 		if (uc >= 0x010000) uc = 0xD800DC00 | ((uc - 0x10000) << 6 & 0x3FF0000) | (uc & 0x3FF);	/* Make a
 467              		.loc 1 774 62 view .LVU149
 468 00aa 4FF0FF30 		mov	r0, #-1
 469              	.LVL64:
 774:Core/FatFs/Src/ff.c **** 		if (uc >= 0x010000) uc = 0xD800DC00 | ((uc - 0x10000) << 6 & 0x3FF0000) | (uc & 0x3FF);	/* Make a
 470              		.loc 1 774 62 view .LVU150
 471 00ae B2E7     		b	.L18
 472              	.LVL65:
 473              	.L29:
 774:Core/FatFs/Src/ff.c **** 		if (uc >= 0x010000) uc = 0xD800DC00 | ((uc - 0x10000) << 6 & 0x3FF0000) | (uc & 0x3FF);	/* Make a
 474              		.loc 1 774 62 view .LVU151
 475 00b0 4FF0FF30 		mov	r0, #-1
 476              	.LVL66:
 774:Core/FatFs/Src/ff.c **** 		if (uc >= 0x010000) uc = 0xD800DC00 | ((uc - 0x10000) << 6 & 0x3FF0000) | (uc & 0x3FF);	/* Make a
 477              		.loc 1 774 62 view .LVU152
 478 00b4 AFE7     		b	.L18
 479              	.L35:
 480 00b6 00BF     		.align	2
 481              	.L34:
 482 00b8 0000FF03 		.word	67043328
 483              		.cfi_endproc
 484              	.LFE6:
 486              		.section	.text.put_utf,"ax",%progbits
 487              		.align	1
 488              		.syntax unified
 489              		.thumb
 490              		.thumb_func
 492              	put_utf:
 493              	.LVL67:
 494              	.LFB7:
 803:Core/FatFs/Src/ff.c **** 
 804:Core/FatFs/Src/ff.c **** 
 805:Core/FatFs/Src/ff.c **** /* Store a Unicode char in defined API encoding */
 806:Core/FatFs/Src/ff.c **** static UINT put_utf (	/* Returns number of encoding units written (0:buffer overflow or wrong encod
 807:Core/FatFs/Src/ff.c **** 	DWORD chr,	/* UTF-16 encoded character (Surrogate pair if >=0x10000) */
 808:Core/FatFs/Src/ff.c **** 	TCHAR* buf,	/* Output buffer */
 809:Core/FatFs/Src/ff.c **** 	UINT szb	/* Size of the buffer */
 810:Core/FatFs/Src/ff.c **** )
 811:Core/FatFs/Src/ff.c **** {
 495              		.loc 1 811 1 is_stmt 1 view -0
 496              		.cfi_startproc
 497              		@ args = 0, pretend = 0, frame = 0
 498              		@ frame_needed = 0, uses_anonymous_args = 0
 499              		@ link register save eliminated.
 812:Core/FatFs/Src/ff.c **** #if FF_LFN_UNICODE == 1	/* UTF-16 output */
 813:Core/FatFs/Src/ff.c **** 	WCHAR hs, wc;
 814:Core/FatFs/Src/ff.c **** 
 815:Core/FatFs/Src/ff.c **** 	hs = (WCHAR)(chr >> 16);
 816:Core/FatFs/Src/ff.c **** 	wc = (WCHAR)chr;
 817:Core/FatFs/Src/ff.c **** 	if (hs == 0) {	/* Single encoding unit? */
 818:Core/FatFs/Src/ff.c **** 		if (szb < 1 || IsSurrogate(wc)) return 0;	/* Buffer overflow or wrong code? */
 819:Core/FatFs/Src/ff.c **** 		*buf = wc;
 820:Core/FatFs/Src/ff.c **** 		return 1;
 821:Core/FatFs/Src/ff.c **** 	}
ARM GAS  C:\Users\84759\AppData\Local\Temp\cc0twHqK.s 			page 25


 822:Core/FatFs/Src/ff.c **** 	if (szb < 2 || !IsSurrogateH(hs) || !IsSurrogateL(wc)) return 0;	/* Buffer overflow or wrong surro
 823:Core/FatFs/Src/ff.c **** 	*buf++ = hs;
 824:Core/FatFs/Src/ff.c **** 	*buf++ = wc;
 825:Core/FatFs/Src/ff.c **** 	return 2;
 826:Core/FatFs/Src/ff.c **** 
 827:Core/FatFs/Src/ff.c **** #elif FF_LFN_UNICODE == 2	/* UTF-8 output */
 828:Core/FatFs/Src/ff.c **** 	DWORD hc;
 500              		.loc 1 828 2 view .LVU154
 829:Core/FatFs/Src/ff.c **** 
 830:Core/FatFs/Src/ff.c **** 	if (chr < 0x80) {	/* Single byte code? */
 501              		.loc 1 830 2 view .LVU155
 502              		.loc 1 830 5 is_stmt 0 view .LVU156
 503 0000 7F28     		cmp	r0, #127
 504 0002 04D8     		bhi	.L37
 831:Core/FatFs/Src/ff.c **** 		if (szb < 1) return 0;	/* Buffer overflow? */
 505              		.loc 1 831 3 is_stmt 1 view .LVU157
 506              		.loc 1 831 6 is_stmt 0 view .LVU158
 507 0004 002A     		cmp	r2, #0
 508 0006 5BD0     		beq	.L41
 832:Core/FatFs/Src/ff.c **** 		*buf = (TCHAR)chr;
 509              		.loc 1 832 3 is_stmt 1 view .LVU159
 510              		.loc 1 832 8 is_stmt 0 view .LVU160
 511 0008 0870     		strb	r0, [r1]
 833:Core/FatFs/Src/ff.c **** 		return 1;
 512              		.loc 1 833 3 is_stmt 1 view .LVU161
 513              		.loc 1 833 10 is_stmt 0 view .LVU162
 514 000a 0120     		movs	r0, #1
 515              	.LVL68:
 516              		.loc 1 833 10 view .LVU163
 517 000c 7047     		bx	lr
 518              	.LVL69:
 519              	.L37:
 834:Core/FatFs/Src/ff.c **** 	}
 835:Core/FatFs/Src/ff.c **** 	if (chr < 0x800) {	/* 2-byte sequence? */
 520              		.loc 1 835 2 is_stmt 1 view .LVU164
 521              		.loc 1 835 5 is_stmt 0 view .LVU165
 522 000e B0F5006F 		cmp	r0, #2048
 523 0012 0FD2     		bcs	.L39
 836:Core/FatFs/Src/ff.c **** 		if (szb < 2) return 0;	/* Buffer overflow? */
 524              		.loc 1 836 3 is_stmt 1 view .LVU166
 525              		.loc 1 836 6 is_stmt 0 view .LVU167
 526 0014 012A     		cmp	r2, #1
 527 0016 01D8     		bhi	.L48
 528              		.loc 1 836 23 view .LVU168
 529 0018 0020     		movs	r0, #0
 530              	.LVL70:
 531              		.loc 1 836 23 view .LVU169
 532 001a 7047     		bx	lr
 533              	.LVL71:
 534              	.L48:
 837:Core/FatFs/Src/ff.c **** 		*buf++ = (TCHAR)(0xC0 | (chr >> 6 & 0x1F));
 535              		.loc 1 837 3 is_stmt 1 view .LVU170
 536              		.loc 1 837 37 is_stmt 0 view .LVU171
 537 001c C0F38413 		ubfx	r3, r0, #6, #5
 538              	.LVL72:
 539              		.loc 1 837 12 view .LVU172
 540 0020 43F0C003 		orr	r3, r3, #192
ARM GAS  C:\Users\84759\AppData\Local\Temp\cc0twHqK.s 			page 26


 541              		.loc 1 837 10 view .LVU173
 542 0024 0B70     		strb	r3, [r1]
 838:Core/FatFs/Src/ff.c **** 		*buf++ = (TCHAR)(0x80 | (chr >> 0 & 0x3F));
 543              		.loc 1 838 3 is_stmt 1 view .LVU174
 544              		.loc 1 838 37 is_stmt 0 view .LVU175
 545 0026 00F03F00 		and	r0, r0, #63
 546              	.LVL73:
 547              		.loc 1 838 12 view .LVU176
 548 002a 40F08000 		orr	r0, r0, #128
 549              		.loc 1 838 10 view .LVU177
 550 002e 4870     		strb	r0, [r1, #1]
 839:Core/FatFs/Src/ff.c **** 		return 2;
 551              		.loc 1 839 3 is_stmt 1 view .LVU178
 552              		.loc 1 839 10 is_stmt 0 view .LVU179
 553 0030 0220     		movs	r0, #2
 554 0032 7047     		bx	lr
 555              	.LVL74:
 556              	.L39:
 840:Core/FatFs/Src/ff.c **** 	}
 841:Core/FatFs/Src/ff.c **** 	if (chr < 0x10000) {	/* 3-byte sequence? */
 557              		.loc 1 841 2 is_stmt 1 view .LVU180
 558              		.loc 1 841 5 is_stmt 0 view .LVU181
 559 0034 B0F5803F 		cmp	r0, #65536
 560 0038 19D2     		bcs	.L40
 842:Core/FatFs/Src/ff.c **** 		if (szb < 3 || IsSurrogate(chr)) return 0;	/* Buffer overflow or wrong code? */
 561              		.loc 1 842 3 is_stmt 1 view .LVU182
 562              		.loc 1 842 6 is_stmt 0 view .LVU183
 563 003a 022A     		cmp	r2, #2
 564 003c 42D9     		bls	.L43
 565              		.loc 1 842 18 discriminator 2 view .LVU184
 566 003e A0F55843 		sub	r3, r0, #55296
 567              		.loc 1 842 15 discriminator 2 view .LVU185
 568 0042 B3F5006F 		cmp	r3, #2048
 569 0046 01D2     		bcs	.L49
 570              		.loc 1 842 43 view .LVU186
 571 0048 0020     		movs	r0, #0
 572              	.LVL75:
 573              		.loc 1 842 43 view .LVU187
 574 004a 7047     		bx	lr
 575              	.LVL76:
 576              	.L49:
 843:Core/FatFs/Src/ff.c **** 		*buf++ = (TCHAR)(0xE0 | (chr >> 12 & 0x0F));
 577              		.loc 1 843 3 is_stmt 1 view .LVU188
 578              		.loc 1 843 38 is_stmt 0 view .LVU189
 579 004c C0F30333 		ubfx	r3, r0, #12, #4
 580              	.LVL77:
 581              		.loc 1 843 12 view .LVU190
 582 0050 43F0E003 		orr	r3, r3, #224
 583              		.loc 1 843 10 view .LVU191
 584 0054 0B70     		strb	r3, [r1]
 844:Core/FatFs/Src/ff.c **** 		*buf++ = (TCHAR)(0x80 | (chr >> 6 & 0x3F));
 585              		.loc 1 844 3 is_stmt 1 view .LVU192
 586              		.loc 1 844 37 is_stmt 0 view .LVU193
 587 0056 C0F38513 		ubfx	r3, r0, #6, #6
 588              	.LVL78:
 589              		.loc 1 844 12 view .LVU194
 590 005a 43F08003 		orr	r3, r3, #128
ARM GAS  C:\Users\84759\AppData\Local\Temp\cc0twHqK.s 			page 27


 591              		.loc 1 844 10 view .LVU195
 592 005e 4B70     		strb	r3, [r1, #1]
 845:Core/FatFs/Src/ff.c **** 		*buf++ = (TCHAR)(0x80 | (chr >> 0 & 0x3F));
 593              		.loc 1 845 3 is_stmt 1 view .LVU196
 594              		.loc 1 845 37 is_stmt 0 view .LVU197
 595 0060 00F03F00 		and	r0, r0, #63
 596              	.LVL79:
 597              		.loc 1 845 12 view .LVU198
 598 0064 40F08000 		orr	r0, r0, #128
 599              		.loc 1 845 10 view .LVU199
 600 0068 8870     		strb	r0, [r1, #2]
 846:Core/FatFs/Src/ff.c **** 		return 3;
 601              		.loc 1 846 3 is_stmt 1 view .LVU200
 602              		.loc 1 846 10 is_stmt 0 view .LVU201
 603 006a 0320     		movs	r0, #3
 604 006c 7047     		bx	lr
 605              	.LVL80:
 606              	.L40:
 847:Core/FatFs/Src/ff.c **** 	}
 848:Core/FatFs/Src/ff.c **** 	/* 4-byte sequence */
 849:Core/FatFs/Src/ff.c **** 	if (szb < 4) return 0;	/* Buffer overflow? */
 607              		.loc 1 849 2 is_stmt 1 view .LVU202
 608              		.loc 1 849 5 is_stmt 0 view .LVU203
 609 006e 032A     		cmp	r2, #3
 610 0070 2AD9     		bls	.L45
 850:Core/FatFs/Src/ff.c **** 	hc = ((chr & 0xFFFF0000) - 0xD8000000) >> 6;	/* Get high 10 bits */
 611              		.loc 1 850 2 is_stmt 1 view .LVU204
 612              		.loc 1 850 13 is_stmt 0 view .LVU205
 613 0072 030C     		lsrs	r3, r0, #16
 614 0074 1B04     		lsls	r3, r3, #16
 615              		.loc 1 850 27 view .LVU206
 616 0076 03F12053 		add	r3, r3, #671088640
 617              		.loc 1 850 5 view .LVU207
 618 007a 9B09     		lsrs	r3, r3, #6
 619              	.LVL81:
 851:Core/FatFs/Src/ff.c **** 	chr = (chr & 0xFFFF) - 0xDC00;					/* Get low 10 bits */
 620              		.loc 1 851 2 is_stmt 1 view .LVU208
 621              		.loc 1 851 13 is_stmt 0 view .LVU209
 622 007c 80B2     		uxth	r0, r0
 623              	.LVL82:
 624              		.loc 1 851 6 view .LVU210
 625 007e A0F55C40 		sub	r0, r0, #56320
 626              	.LVL83:
 852:Core/FatFs/Src/ff.c **** 	if (hc >= 0x100000 || chr >= 0x400) return 0;	/* Wrong surrogate? */
 627              		.loc 1 852 2 is_stmt 1 view .LVU211
 628              		.loc 1 852 5 is_stmt 0 view .LVU212
 629 0082 B3F5801F 		cmp	r3, #1048576
 630 0086 21D2     		bcs	.L46
 631              		.loc 1 852 21 discriminator 2 view .LVU213
 632 0088 B0F5806F 		cmp	r0, #1024
 633 008c 20D2     		bcs	.L47
 853:Core/FatFs/Src/ff.c **** 	chr = (hc | chr) + 0x10000;
 634              		.loc 1 853 2 is_stmt 1 view .LVU214
 635              		.loc 1 853 12 is_stmt 0 view .LVU215
 636 008e 1843     		orrs	r0, r0, r3
 637              	.LVL84:
 638              		.loc 1 853 6 view .LVU216
ARM GAS  C:\Users\84759\AppData\Local\Temp\cc0twHqK.s 			page 28


 639 0090 00F58030 		add	r0, r0, #65536
 640              	.LVL85:
 854:Core/FatFs/Src/ff.c **** 	*buf++ = (TCHAR)(0xF0 | (chr >> 18 & 0x07));
 641              		.loc 1 854 2 is_stmt 1 view .LVU217
 642              		.loc 1 854 37 is_stmt 0 view .LVU218
 643 0094 C0F38243 		ubfx	r3, r0, #18, #3
 644              	.LVL86:
 645              		.loc 1 854 11 view .LVU219
 646 0098 43F0F003 		orr	r3, r3, #240
 647              		.loc 1 854 9 view .LVU220
 648 009c 0B70     		strb	r3, [r1]
 855:Core/FatFs/Src/ff.c **** 	*buf++ = (TCHAR)(0x80 | (chr >> 12 & 0x3F));
 649              		.loc 1 855 2 is_stmt 1 view .LVU221
 650              		.loc 1 855 37 is_stmt 0 view .LVU222
 651 009e C0F30533 		ubfx	r3, r0, #12, #6
 652              	.LVL87:
 653              		.loc 1 855 11 view .LVU223
 654 00a2 43F08003 		orr	r3, r3, #128
 655              		.loc 1 855 9 view .LVU224
 656 00a6 4B70     		strb	r3, [r1, #1]
 856:Core/FatFs/Src/ff.c **** 	*buf++ = (TCHAR)(0x80 | (chr >> 6 & 0x3F));
 657              		.loc 1 856 2 is_stmt 1 view .LVU225
 658              		.loc 1 856 36 is_stmt 0 view .LVU226
 659 00a8 C0F38513 		ubfx	r3, r0, #6, #6
 660              	.LVL88:
 661              		.loc 1 856 11 view .LVU227
 662 00ac 43F08003 		orr	r3, r3, #128
 663              		.loc 1 856 9 view .LVU228
 664 00b0 8B70     		strb	r3, [r1, #2]
 857:Core/FatFs/Src/ff.c **** 	*buf++ = (TCHAR)(0x80 | (chr >> 0 & 0x3F));
 665              		.loc 1 857 2 is_stmt 1 view .LVU229
 666              		.loc 1 857 36 is_stmt 0 view .LVU230
 667 00b2 00F03F00 		and	r0, r0, #63
 668              	.LVL89:
 669              		.loc 1 857 11 view .LVU231
 670 00b6 40F08000 		orr	r0, r0, #128
 671              		.loc 1 857 9 view .LVU232
 672 00ba C870     		strb	r0, [r1, #3]
 858:Core/FatFs/Src/ff.c **** 	return 4;
 673              		.loc 1 858 2 is_stmt 1 view .LVU233
 674              		.loc 1 858 9 is_stmt 0 view .LVU234
 675 00bc 0420     		movs	r0, #4
 676 00be 7047     		bx	lr
 677              	.LVL90:
 678              	.L41:
 831:Core/FatFs/Src/ff.c **** 		*buf = (TCHAR)chr;
 679              		.loc 1 831 23 view .LVU235
 680 00c0 1046     		mov	r0, r2
 681              	.LVL91:
 831:Core/FatFs/Src/ff.c **** 		*buf = (TCHAR)chr;
 682              		.loc 1 831 23 view .LVU236
 683 00c2 7047     		bx	lr
 684              	.LVL92:
 685              	.L43:
 842:Core/FatFs/Src/ff.c **** 		*buf++ = (TCHAR)(0xE0 | (chr >> 12 & 0x0F));
 686              		.loc 1 842 43 view .LVU237
 687 00c4 0020     		movs	r0, #0
ARM GAS  C:\Users\84759\AppData\Local\Temp\cc0twHqK.s 			page 29


 688              	.LVL93:
 842:Core/FatFs/Src/ff.c **** 		*buf++ = (TCHAR)(0xE0 | (chr >> 12 & 0x0F));
 689              		.loc 1 842 43 view .LVU238
 690 00c6 7047     		bx	lr
 691              	.LVL94:
 692              	.L45:
 849:Core/FatFs/Src/ff.c **** 	hc = ((chr & 0xFFFF0000) - 0xD8000000) >> 6;	/* Get high 10 bits */
 693              		.loc 1 849 22 view .LVU239
 694 00c8 0020     		movs	r0, #0
 695              	.LVL95:
 849:Core/FatFs/Src/ff.c **** 	hc = ((chr & 0xFFFF0000) - 0xD8000000) >> 6;	/* Get high 10 bits */
 696              		.loc 1 849 22 view .LVU240
 697 00ca 7047     		bx	lr
 698              	.LVL96:
 699              	.L46:
 852:Core/FatFs/Src/ff.c **** 	chr = (hc | chr) + 0x10000;
 700              		.loc 1 852 45 view .LVU241
 701 00cc 0020     		movs	r0, #0
 702              	.LVL97:
 852:Core/FatFs/Src/ff.c **** 	chr = (hc | chr) + 0x10000;
 703              		.loc 1 852 45 view .LVU242
 704 00ce 7047     		bx	lr
 705              	.LVL98:
 706              	.L47:
 852:Core/FatFs/Src/ff.c **** 	chr = (hc | chr) + 0x10000;
 707              		.loc 1 852 45 view .LVU243
 708 00d0 0020     		movs	r0, #0
 709              	.LVL99:
 859:Core/FatFs/Src/ff.c **** 
 860:Core/FatFs/Src/ff.c **** #elif FF_LFN_UNICODE == 3	/* UTF-32 output */
 861:Core/FatFs/Src/ff.c **** 	DWORD hc;
 862:Core/FatFs/Src/ff.c **** 
 863:Core/FatFs/Src/ff.c **** 	if (szb < 1) return 0;	/* Buffer overflow? */
 864:Core/FatFs/Src/ff.c **** 	if (chr >= 0x10000) {	/* Out of BMP? */
 865:Core/FatFs/Src/ff.c **** 		hc = ((chr & 0xFFFF0000) - 0xD8000000) >> 6;	/* Get high 10 bits */
 866:Core/FatFs/Src/ff.c **** 		chr = (chr & 0xFFFF) - 0xDC00;					/* Get low 10 bits */
 867:Core/FatFs/Src/ff.c **** 		if (hc >= 0x100000 || chr >= 0x400) return 0;	/* Wrong surrogate? */
 868:Core/FatFs/Src/ff.c **** 		chr = (hc | chr) + 0x10000;
 869:Core/FatFs/Src/ff.c **** 	}
 870:Core/FatFs/Src/ff.c **** 	*buf++ = (TCHAR)chr;
 871:Core/FatFs/Src/ff.c **** 	return 1;
 872:Core/FatFs/Src/ff.c **** 
 873:Core/FatFs/Src/ff.c **** #else						/* ANSI/OEM output */
 874:Core/FatFs/Src/ff.c **** 	WCHAR wc;
 875:Core/FatFs/Src/ff.c **** 
 876:Core/FatFs/Src/ff.c **** 	wc = ff_uni2oem(chr, CODEPAGE);
 877:Core/FatFs/Src/ff.c **** 	if (wc >= 0x100) {	/* Is this a DBC? */
 878:Core/FatFs/Src/ff.c **** 		if (szb < 2) return 0;
 879:Core/FatFs/Src/ff.c **** 		*buf++ = (char)(wc >> 8);	/* Store DBC 1st byte */
 880:Core/FatFs/Src/ff.c **** 		*buf++ = (TCHAR)wc;			/* Store DBC 2nd byte */
 881:Core/FatFs/Src/ff.c **** 		return 2;
 882:Core/FatFs/Src/ff.c **** 	}
 883:Core/FatFs/Src/ff.c **** 	if (wc == 0 || szb < 1) return 0;	/* Invalid character or buffer overflow? */
 884:Core/FatFs/Src/ff.c **** 	*buf++ = (TCHAR)wc;					/* Store the character */
 885:Core/FatFs/Src/ff.c **** 	return 1;
 886:Core/FatFs/Src/ff.c **** #endif
 887:Core/FatFs/Src/ff.c **** }
ARM GAS  C:\Users\84759\AppData\Local\Temp\cc0twHqK.s 			page 30


 710              		.loc 1 887 1 view .LVU244
 711 00d2 7047     		bx	lr
 712              		.cfi_endproc
 713              	.LFE7:
 715              		.section	.text.clst2sect,"ax",%progbits
 716              		.align	1
 717              		.syntax unified
 718              		.thumb
 719              		.thumb_func
 721              	clst2sect:
 722              	.LVL100:
 723              	.LFB11:
 888:Core/FatFs/Src/ff.c **** #endif	/* FF_USE_LFN */
 889:Core/FatFs/Src/ff.c **** 
 890:Core/FatFs/Src/ff.c **** 
 891:Core/FatFs/Src/ff.c **** #if FF_FS_REENTRANT
 892:Core/FatFs/Src/ff.c **** /*-----------------------------------------------------------------------*/
 893:Core/FatFs/Src/ff.c **** /* Request/Release grant to access the volume                            */
 894:Core/FatFs/Src/ff.c **** /*-----------------------------------------------------------------------*/
 895:Core/FatFs/Src/ff.c **** 
 896:Core/FatFs/Src/ff.c **** static int lock_volume (	/* 1:Ok, 0:timeout */
 897:Core/FatFs/Src/ff.c **** 	FATFS* fs,				/* Filesystem object to lock */
 898:Core/FatFs/Src/ff.c **** 	int syslock				/* System lock required */
 899:Core/FatFs/Src/ff.c **** )
 900:Core/FatFs/Src/ff.c **** {
 901:Core/FatFs/Src/ff.c **** 	int rv;
 902:Core/FatFs/Src/ff.c **** 
 903:Core/FatFs/Src/ff.c **** 
 904:Core/FatFs/Src/ff.c **** #if FF_FS_LOCK
 905:Core/FatFs/Src/ff.c **** 	rv = ff_mutex_take(fs->ldrv);	/* Lock the volume */
 906:Core/FatFs/Src/ff.c **** 	if (rv && syslock) {			/* System lock reqiered? */
 907:Core/FatFs/Src/ff.c **** 		rv = ff_mutex_take(FF_VOLUMES);	/* Lock the system */
 908:Core/FatFs/Src/ff.c **** 		if (rv) {
 909:Core/FatFs/Src/ff.c **** 			SysLockVolume = fs->ldrv;
 910:Core/FatFs/Src/ff.c **** 			SysLock = 2;				/* System lock succeeded */
 911:Core/FatFs/Src/ff.c **** 		} else {
 912:Core/FatFs/Src/ff.c **** 			ff_mutex_give(fs->ldrv);	/* Failed system lock */
 913:Core/FatFs/Src/ff.c **** 		}
 914:Core/FatFs/Src/ff.c **** 	}
 915:Core/FatFs/Src/ff.c **** #else
 916:Core/FatFs/Src/ff.c **** 	rv = syslock ? ff_mutex_take(fs->ldrv) : ff_mutex_take(fs->ldrv);	/* Lock the volume (this is to p
 917:Core/FatFs/Src/ff.c **** #endif
 918:Core/FatFs/Src/ff.c **** 	return rv;
 919:Core/FatFs/Src/ff.c **** }
 920:Core/FatFs/Src/ff.c **** 
 921:Core/FatFs/Src/ff.c **** 
 922:Core/FatFs/Src/ff.c **** static void unlock_volume (
 923:Core/FatFs/Src/ff.c **** 	FATFS* fs,		/* Filesystem object */
 924:Core/FatFs/Src/ff.c **** 	FRESULT res		/* Result code to be returned */
 925:Core/FatFs/Src/ff.c **** )
 926:Core/FatFs/Src/ff.c **** {
 927:Core/FatFs/Src/ff.c **** 	if (fs && res != FR_NOT_ENABLED && res != FR_INVALID_DRIVE && res != FR_TIMEOUT) {
 928:Core/FatFs/Src/ff.c **** #if FF_FS_LOCK
 929:Core/FatFs/Src/ff.c **** 		if (SysLock == 2 && SysLockVolume == fs->ldrv) {	/* Unlock system if it has been locked by this t
 930:Core/FatFs/Src/ff.c **** 			SysLock = 1;
 931:Core/FatFs/Src/ff.c **** 			ff_mutex_give(FF_VOLUMES);
 932:Core/FatFs/Src/ff.c **** 		}
ARM GAS  C:\Users\84759\AppData\Local\Temp\cc0twHqK.s 			page 31


 933:Core/FatFs/Src/ff.c **** #endif
 934:Core/FatFs/Src/ff.c **** 		ff_mutex_give(fs->ldrv);	/* Unlock the volume */
 935:Core/FatFs/Src/ff.c **** 	}
 936:Core/FatFs/Src/ff.c **** }
 937:Core/FatFs/Src/ff.c **** 
 938:Core/FatFs/Src/ff.c **** #endif
 939:Core/FatFs/Src/ff.c **** 
 940:Core/FatFs/Src/ff.c **** 
 941:Core/FatFs/Src/ff.c **** 
 942:Core/FatFs/Src/ff.c **** #if FF_FS_LOCK
 943:Core/FatFs/Src/ff.c **** /*-----------------------------------------------------------------------*/
 944:Core/FatFs/Src/ff.c **** /* File sharing control functions                                       */
 945:Core/FatFs/Src/ff.c **** /*-----------------------------------------------------------------------*/
 946:Core/FatFs/Src/ff.c **** 
 947:Core/FatFs/Src/ff.c **** static FRESULT chk_share (	/* Check if the file can be accessed */
 948:Core/FatFs/Src/ff.c **** 	DIR* dp,		/* Directory object pointing the file to be checked */
 949:Core/FatFs/Src/ff.c **** 	int acc			/* Desired access type (0:Read mode open, 1:Write mode open, 2:Delete or rename) */
 950:Core/FatFs/Src/ff.c **** )
 951:Core/FatFs/Src/ff.c **** {
 952:Core/FatFs/Src/ff.c **** 	UINT i, be;
 953:Core/FatFs/Src/ff.c **** 
 954:Core/FatFs/Src/ff.c **** 	/* Search open object table for the object */
 955:Core/FatFs/Src/ff.c **** 	be = 0;
 956:Core/FatFs/Src/ff.c **** 	for (i = 0; i < FF_FS_LOCK; i++) {
 957:Core/FatFs/Src/ff.c **** 		if (Files[i].fs) {	/* Existing entry */
 958:Core/FatFs/Src/ff.c **** 			if (Files[i].fs == dp->obj.fs &&	 	/* Check if the object matches with an open object */
 959:Core/FatFs/Src/ff.c **** 				Files[i].clu == dp->obj.sclust &&
 960:Core/FatFs/Src/ff.c **** 				Files[i].ofs == dp->dptr) break;
 961:Core/FatFs/Src/ff.c **** 		} else {			/* Blank entry */
 962:Core/FatFs/Src/ff.c **** 			be = 1;
 963:Core/FatFs/Src/ff.c **** 		}
 964:Core/FatFs/Src/ff.c **** 	}
 965:Core/FatFs/Src/ff.c **** 	if (i == FF_FS_LOCK) {	/* The object has not been opened */
 966:Core/FatFs/Src/ff.c **** 		return (!be && acc != 2) ? FR_TOO_MANY_OPEN_FILES : FR_OK;	/* Is there a blank entry for new obje
 967:Core/FatFs/Src/ff.c **** 	}
 968:Core/FatFs/Src/ff.c **** 
 969:Core/FatFs/Src/ff.c **** 	/* The object was opened. Reject any open against writing file and all write mode open */
 970:Core/FatFs/Src/ff.c **** 	return (acc != 0 || Files[i].ctr == 0x100) ? FR_LOCKED : FR_OK;
 971:Core/FatFs/Src/ff.c **** }
 972:Core/FatFs/Src/ff.c **** 
 973:Core/FatFs/Src/ff.c **** 
 974:Core/FatFs/Src/ff.c **** static int enq_share (void)	/* Check if an entry is available for a new object */
 975:Core/FatFs/Src/ff.c **** {
 976:Core/FatFs/Src/ff.c **** 	UINT i;
 977:Core/FatFs/Src/ff.c **** 
 978:Core/FatFs/Src/ff.c **** 	for (i = 0; i < FF_FS_LOCK && Files[i].fs; i++) ;	/* Find a free entry */
 979:Core/FatFs/Src/ff.c **** 	return (i == FF_FS_LOCK) ? 0 : 1;
 980:Core/FatFs/Src/ff.c **** }
 981:Core/FatFs/Src/ff.c **** 
 982:Core/FatFs/Src/ff.c **** 
 983:Core/FatFs/Src/ff.c **** static UINT inc_share (	/* Increment object open counter and returns its index (0:Internal error) *
 984:Core/FatFs/Src/ff.c **** 	DIR* dp,	/* Directory object pointing the file to register or increment */
 985:Core/FatFs/Src/ff.c **** 	int acc		/* Desired access (0:Read, 1:Write, 2:Delete/Rename) */
 986:Core/FatFs/Src/ff.c **** )
 987:Core/FatFs/Src/ff.c **** {
 988:Core/FatFs/Src/ff.c **** 	UINT i;
 989:Core/FatFs/Src/ff.c **** 
ARM GAS  C:\Users\84759\AppData\Local\Temp\cc0twHqK.s 			page 32


 990:Core/FatFs/Src/ff.c **** 
 991:Core/FatFs/Src/ff.c **** 	for (i = 0; i < FF_FS_LOCK; i++) {	/* Find the object */
 992:Core/FatFs/Src/ff.c **** 		if (Files[i].fs == dp->obj.fs
 993:Core/FatFs/Src/ff.c **** 		 && Files[i].clu == dp->obj.sclust
 994:Core/FatFs/Src/ff.c **** 		 && Files[i].ofs == dp->dptr) break;
 995:Core/FatFs/Src/ff.c **** 	}
 996:Core/FatFs/Src/ff.c **** 
 997:Core/FatFs/Src/ff.c **** 	if (i == FF_FS_LOCK) {			/* Not opened. Register it as new. */
 998:Core/FatFs/Src/ff.c **** 		for (i = 0; i < FF_FS_LOCK && Files[i].fs; i++) ;	/* Find a free entry */
 999:Core/FatFs/Src/ff.c **** 		if (i == FF_FS_LOCK) return 0;	/* No free entry to register (int err) */
1000:Core/FatFs/Src/ff.c **** 		Files[i].fs = dp->obj.fs;
1001:Core/FatFs/Src/ff.c **** 		Files[i].clu = dp->obj.sclust;
1002:Core/FatFs/Src/ff.c **** 		Files[i].ofs = dp->dptr;
1003:Core/FatFs/Src/ff.c **** 		Files[i].ctr = 0;
1004:Core/FatFs/Src/ff.c **** 	}
1005:Core/FatFs/Src/ff.c **** 
1006:Core/FatFs/Src/ff.c **** 	if (acc >= 1 && Files[i].ctr) return 0;	/* Access violation (int err) */
1007:Core/FatFs/Src/ff.c **** 
1008:Core/FatFs/Src/ff.c **** 	Files[i].ctr = acc ? 0x100 : Files[i].ctr + 1;	/* Set semaphore value */
1009:Core/FatFs/Src/ff.c **** 
1010:Core/FatFs/Src/ff.c **** 	return i + 1;	/* Index number origin from 1 */
1011:Core/FatFs/Src/ff.c **** }
1012:Core/FatFs/Src/ff.c **** 
1013:Core/FatFs/Src/ff.c **** 
1014:Core/FatFs/Src/ff.c **** static FRESULT dec_share (	/* Decrement object open counter */
1015:Core/FatFs/Src/ff.c **** 	UINT i			/* Semaphore index (1..) */
1016:Core/FatFs/Src/ff.c **** )
1017:Core/FatFs/Src/ff.c **** {
1018:Core/FatFs/Src/ff.c **** 	UINT n;
1019:Core/FatFs/Src/ff.c **** 	FRESULT res;
1020:Core/FatFs/Src/ff.c **** 
1021:Core/FatFs/Src/ff.c **** 
1022:Core/FatFs/Src/ff.c **** 	if (--i < FF_FS_LOCK) {	/* Index number origin from 0 */
1023:Core/FatFs/Src/ff.c **** 		n = Files[i].ctr;
1024:Core/FatFs/Src/ff.c **** 		if (n == 0x100) n = 0;	/* If write mode open, delete the object semaphore */
1025:Core/FatFs/Src/ff.c **** 		if (n > 0) n--;			/* Decrement read mode open count */
1026:Core/FatFs/Src/ff.c **** 		Files[i].ctr = n;
1027:Core/FatFs/Src/ff.c **** 		if (n == 0) {			/* Delete the object semaphore if open count becomes zero */
1028:Core/FatFs/Src/ff.c **** 			Files[i].fs = 0;	/* Free the entry <<<If this memory write operation is not in atomic, FF_FS_REE
1029:Core/FatFs/Src/ff.c **** 		}
1030:Core/FatFs/Src/ff.c **** 		res = FR_OK;
1031:Core/FatFs/Src/ff.c **** 	} else {
1032:Core/FatFs/Src/ff.c **** 		res = FR_INT_ERR;		/* Invalid index number */
1033:Core/FatFs/Src/ff.c **** 	}
1034:Core/FatFs/Src/ff.c **** 	return res;
1035:Core/FatFs/Src/ff.c **** }
1036:Core/FatFs/Src/ff.c **** 
1037:Core/FatFs/Src/ff.c **** 
1038:Core/FatFs/Src/ff.c **** static void clear_share (	/* Clear all lock entries of the volume */
1039:Core/FatFs/Src/ff.c **** 	FATFS* fs
1040:Core/FatFs/Src/ff.c **** )
1041:Core/FatFs/Src/ff.c **** {
1042:Core/FatFs/Src/ff.c **** 	UINT i;
1043:Core/FatFs/Src/ff.c **** 
1044:Core/FatFs/Src/ff.c **** 	for (i = 0; i < FF_FS_LOCK; i++) {
1045:Core/FatFs/Src/ff.c **** 		if (Files[i].fs == fs) Files[i].fs = 0;
1046:Core/FatFs/Src/ff.c **** 	}
ARM GAS  C:\Users\84759\AppData\Local\Temp\cc0twHqK.s 			page 33


1047:Core/FatFs/Src/ff.c **** }
1048:Core/FatFs/Src/ff.c **** 
1049:Core/FatFs/Src/ff.c **** #endif	/* FF_FS_LOCK */
1050:Core/FatFs/Src/ff.c **** 
1051:Core/FatFs/Src/ff.c **** 
1052:Core/FatFs/Src/ff.c **** 
1053:Core/FatFs/Src/ff.c **** /*-----------------------------------------------------------------------*/
1054:Core/FatFs/Src/ff.c **** /* Move/Flush disk access window in the filesystem object                */
1055:Core/FatFs/Src/ff.c **** /*-----------------------------------------------------------------------*/
1056:Core/FatFs/Src/ff.c **** #if !FF_FS_READONLY
1057:Core/FatFs/Src/ff.c **** static FRESULT sync_window (	/* Returns FR_OK or FR_DISK_ERR */
1058:Core/FatFs/Src/ff.c **** 	FATFS* fs			/* Filesystem object */
1059:Core/FatFs/Src/ff.c **** )
1060:Core/FatFs/Src/ff.c **** {
1061:Core/FatFs/Src/ff.c **** 	FRESULT res = FR_OK;
1062:Core/FatFs/Src/ff.c **** 
1063:Core/FatFs/Src/ff.c **** 
1064:Core/FatFs/Src/ff.c **** 	if (fs->wflag) {	/* Is the disk access window dirty? */
1065:Core/FatFs/Src/ff.c **** 		if (disk_write(fs->pdrv, fs->win, fs->winsect, 1) == RES_OK) {	/* Write it back into the volume *
1066:Core/FatFs/Src/ff.c **** 			fs->wflag = 0;	/* Clear window dirty flag */
1067:Core/FatFs/Src/ff.c **** 			if (fs->winsect - fs->fatbase < fs->fsize) {	/* Is it in the 1st FAT? */
1068:Core/FatFs/Src/ff.c **** 				if (fs->n_fats == 2) disk_write(fs->pdrv, fs->win, fs->winsect + fs->fsize, 1);	/* Reflect it t
1069:Core/FatFs/Src/ff.c **** 			}
1070:Core/FatFs/Src/ff.c **** 		} else {
1071:Core/FatFs/Src/ff.c **** 			res = FR_DISK_ERR;
1072:Core/FatFs/Src/ff.c **** 		}
1073:Core/FatFs/Src/ff.c **** 	}
1074:Core/FatFs/Src/ff.c **** 	return res;
1075:Core/FatFs/Src/ff.c **** }
1076:Core/FatFs/Src/ff.c **** #endif
1077:Core/FatFs/Src/ff.c **** 
1078:Core/FatFs/Src/ff.c **** 
1079:Core/FatFs/Src/ff.c **** static FRESULT move_window (	/* Returns FR_OK or FR_DISK_ERR */
1080:Core/FatFs/Src/ff.c **** 	FATFS* fs,		/* Filesystem object */
1081:Core/FatFs/Src/ff.c **** 	LBA_t sect		/* Sector LBA to make appearance in the fs->win[] */
1082:Core/FatFs/Src/ff.c **** )
1083:Core/FatFs/Src/ff.c **** {
1084:Core/FatFs/Src/ff.c **** 	FRESULT res = FR_OK;
1085:Core/FatFs/Src/ff.c **** 
1086:Core/FatFs/Src/ff.c **** 
1087:Core/FatFs/Src/ff.c **** 	if (sect != fs->winsect) {	/* Window offset changed? */
1088:Core/FatFs/Src/ff.c **** #if !FF_FS_READONLY
1089:Core/FatFs/Src/ff.c **** 		res = sync_window(fs);		/* Flush the window */
1090:Core/FatFs/Src/ff.c **** #endif
1091:Core/FatFs/Src/ff.c **** 		if (res == FR_OK) {			/* Fill sector window with new data */
1092:Core/FatFs/Src/ff.c **** 			if (disk_read(fs->pdrv, fs->win, sect, 1) != RES_OK) {
1093:Core/FatFs/Src/ff.c **** 				sect = (LBA_t)0 - 1;	/* Invalidate window if read data is not valid */
1094:Core/FatFs/Src/ff.c **** 				res = FR_DISK_ERR;
1095:Core/FatFs/Src/ff.c **** 			}
1096:Core/FatFs/Src/ff.c **** 			fs->winsect = sect;
1097:Core/FatFs/Src/ff.c **** 		}
1098:Core/FatFs/Src/ff.c **** 	}
1099:Core/FatFs/Src/ff.c **** 	return res;
1100:Core/FatFs/Src/ff.c **** }
1101:Core/FatFs/Src/ff.c **** 
1102:Core/FatFs/Src/ff.c **** 
1103:Core/FatFs/Src/ff.c **** 
ARM GAS  C:\Users\84759\AppData\Local\Temp\cc0twHqK.s 			page 34


1104:Core/FatFs/Src/ff.c **** 
1105:Core/FatFs/Src/ff.c **** #if !FF_FS_READONLY
1106:Core/FatFs/Src/ff.c **** /*-----------------------------------------------------------------------*/
1107:Core/FatFs/Src/ff.c **** /* Synchronize filesystem and data on the storage                        */
1108:Core/FatFs/Src/ff.c **** /*-----------------------------------------------------------------------*/
1109:Core/FatFs/Src/ff.c **** 
1110:Core/FatFs/Src/ff.c **** static FRESULT sync_fs (	/* Returns FR_OK or FR_DISK_ERR */
1111:Core/FatFs/Src/ff.c **** 	FATFS* fs		/* Filesystem object */
1112:Core/FatFs/Src/ff.c **** )
1113:Core/FatFs/Src/ff.c **** {
1114:Core/FatFs/Src/ff.c **** 	FRESULT res;
1115:Core/FatFs/Src/ff.c **** 
1116:Core/FatFs/Src/ff.c **** 
1117:Core/FatFs/Src/ff.c **** 	res = sync_window(fs);
1118:Core/FatFs/Src/ff.c **** 	if (res == FR_OK) {
1119:Core/FatFs/Src/ff.c **** 		if (fs->fsi_flag == 1) {	/* Allocation changed? */
1120:Core/FatFs/Src/ff.c **** 			fs->fsi_flag = 0;
1121:Core/FatFs/Src/ff.c **** 			if (fs->fs_type == FS_FAT32) {	/* FAT32: Update FSInfo sector */
1122:Core/FatFs/Src/ff.c **** 				/* Create FSInfo structure */
1123:Core/FatFs/Src/ff.c **** 				memset(fs->win, 0, sizeof fs->win);
1124:Core/FatFs/Src/ff.c **** 				st_32(fs->win + FSI_LeadSig, 0x41615252);		/* Leading signature */
1125:Core/FatFs/Src/ff.c **** 				st_32(fs->win + FSI_StrucSig, 0x61417272);		/* Structure signature */
1126:Core/FatFs/Src/ff.c **** 				st_32(fs->win + FSI_Free_Count, fs->free_clst);	/* Number of free clusters */
1127:Core/FatFs/Src/ff.c **** 				st_32(fs->win + FSI_Nxt_Free, fs->last_clst);	/* Last allocated culuster */
1128:Core/FatFs/Src/ff.c **** 				st_32(fs->win + FSI_TrailSig, 0xAA550000);		/* Trailing signature */
1129:Core/FatFs/Src/ff.c **** 				disk_write(fs->pdrv, fs->win, fs->winsect = fs->volbase + 1, 1);	/* Write it into the FSInfo se
1130:Core/FatFs/Src/ff.c **** 			}
1131:Core/FatFs/Src/ff.c **** #if FF_FS_EXFAT
1132:Core/FatFs/Src/ff.c **** 			else if (fs->fs_type == FS_EXFAT) {	/* exFAT: Update PercInUse field in BPB */
1133:Core/FatFs/Src/ff.c **** 				if (disk_read(fs->pdrv, fs->win, fs->winsect = fs->volbase, 1) == RES_OK) {	/* Load VBR */
1134:Core/FatFs/Src/ff.c **** 					BYTE perc_inuse = (fs->free_clst <= fs->n_fatent - 2) ? (BYTE)((QWORD)(fs->n_fatent - 2 - fs->
1135:Core/FatFs/Src/ff.c **** 
1136:Core/FatFs/Src/ff.c **** 					if (fs->win[BPB_PercInUseEx] != perc_inuse) {	/* Write it back into VBR if needed */
1137:Core/FatFs/Src/ff.c **** 						fs->win[BPB_PercInUseEx] = perc_inuse;
1138:Core/FatFs/Src/ff.c **** 						disk_write(fs->pdrv, fs->win, fs->winsect, 1);
1139:Core/FatFs/Src/ff.c **** 					}
1140:Core/FatFs/Src/ff.c **** 				}
1141:Core/FatFs/Src/ff.c **** 			}
1142:Core/FatFs/Src/ff.c **** #endif
1143:Core/FatFs/Src/ff.c **** 		}
1144:Core/FatFs/Src/ff.c **** 		/* Make sure that no pending write process in the lower layer */
1145:Core/FatFs/Src/ff.c **** 		if (disk_ioctl(fs->pdrv, CTRL_SYNC, 0) != RES_OK) res = FR_DISK_ERR;
1146:Core/FatFs/Src/ff.c **** 	}
1147:Core/FatFs/Src/ff.c **** 
1148:Core/FatFs/Src/ff.c **** 	return res;
1149:Core/FatFs/Src/ff.c **** }
1150:Core/FatFs/Src/ff.c **** 
1151:Core/FatFs/Src/ff.c **** #endif
1152:Core/FatFs/Src/ff.c **** 
1153:Core/FatFs/Src/ff.c **** 
1154:Core/FatFs/Src/ff.c **** 
1155:Core/FatFs/Src/ff.c **** /*-----------------------------------------------------------------------*/
1156:Core/FatFs/Src/ff.c **** /* Get physical sector number from cluster number                        */
1157:Core/FatFs/Src/ff.c **** /*-----------------------------------------------------------------------*/
1158:Core/FatFs/Src/ff.c **** 
1159:Core/FatFs/Src/ff.c **** static LBA_t clst2sect (	/* !=0:Sector number, 0:Failed (invalid cluster#) */
1160:Core/FatFs/Src/ff.c **** 	FATFS* fs,		/* Filesystem object */
ARM GAS  C:\Users\84759\AppData\Local\Temp\cc0twHqK.s 			page 35


1161:Core/FatFs/Src/ff.c **** 	DWORD clst		/* Cluster# to be converted */
1162:Core/FatFs/Src/ff.c **** )
1163:Core/FatFs/Src/ff.c **** {
 724              		.loc 1 1163 1 is_stmt 1 view -0
 725              		.cfi_startproc
 726              		@ args = 0, pretend = 0, frame = 0
 727              		@ frame_needed = 0, uses_anonymous_args = 0
 728              		@ link register save eliminated.
1164:Core/FatFs/Src/ff.c **** 	clst -= 2;		/* Cluster number is origin from 2 */
 729              		.loc 1 1164 2 view .LVU246
 730              		.loc 1 1164 7 is_stmt 0 view .LVU247
 731 0000 0239     		subs	r1, r1, #2
 732              	.LVL101:
1165:Core/FatFs/Src/ff.c **** 	if (clst >= fs->n_fatent - 2) return 0;		/* Is it invalid cluster number? */
 733              		.loc 1 1165 2 is_stmt 1 view .LVU248
 734              		.loc 1 1165 16 is_stmt 0 view .LVU249
 735 0002 8369     		ldr	r3, [r0, #24]
 736              		.loc 1 1165 27 view .LVU250
 737 0004 023B     		subs	r3, r3, #2
 738              		.loc 1 1165 5 view .LVU251
 739 0006 8B42     		cmp	r3, r1
 740 0008 04D9     		bls	.L52
1166:Core/FatFs/Src/ff.c **** 	return fs->database + (LBA_t)fs->csize * clst;	/* Start sector number of the cluster */
 741              		.loc 1 1166 2 is_stmt 1 view .LVU252
 742              		.loc 1 1166 11 is_stmt 0 view .LVU253
 743 000a 036B     		ldr	r3, [r0, #48]
 744              		.loc 1 1166 33 view .LVU254
 745 000c 4089     		ldrh	r0, [r0, #10]
 746              	.LVL102:
 747              		.loc 1 1166 22 view .LVU255
 748 000e 01FB0030 		mla	r0, r1, r0, r3
 749 0012 7047     		bx	lr
 750              	.LVL103:
 751              	.L52:
1165:Core/FatFs/Src/ff.c **** 	if (clst >= fs->n_fatent - 2) return 0;		/* Is it invalid cluster number? */
 752              		.loc 1 1165 39 view .LVU256
 753 0014 0020     		movs	r0, #0
 754              	.LVL104:
1167:Core/FatFs/Src/ff.c **** }
 755              		.loc 1 1167 1 view .LVU257
 756 0016 7047     		bx	lr
 757              		.cfi_endproc
 758              	.LFE11:
 760              		.section	.text.ld_clust,"ax",%progbits
 761              		.align	1
 762              		.syntax unified
 763              		.thumb
 764              		.thumb_func
 766              	ld_clust:
 767              	.LVL105:
 768              	.LFB20:
1168:Core/FatFs/Src/ff.c **** 
1169:Core/FatFs/Src/ff.c **** 
1170:Core/FatFs/Src/ff.c **** 
1171:Core/FatFs/Src/ff.c **** 
1172:Core/FatFs/Src/ff.c **** /*-----------------------------------------------------------------------*/
1173:Core/FatFs/Src/ff.c **** /* FAT access - Read value of an FAT entry                               */
ARM GAS  C:\Users\84759\AppData\Local\Temp\cc0twHqK.s 			page 36


1174:Core/FatFs/Src/ff.c **** /*-----------------------------------------------------------------------*/
1175:Core/FatFs/Src/ff.c **** 
1176:Core/FatFs/Src/ff.c **** static DWORD get_fat (		/* 0xFFFFFFFF:Disk error, 1:Internal error, 2..0x7FFFFFFF:Cluster status */
1177:Core/FatFs/Src/ff.c **** 	FFOBJID* obj,	/* Corresponding object */
1178:Core/FatFs/Src/ff.c **** 	DWORD clst		/* Cluster number to get the value */
1179:Core/FatFs/Src/ff.c **** )
1180:Core/FatFs/Src/ff.c **** {
1181:Core/FatFs/Src/ff.c **** 	UINT wc, bc;
1182:Core/FatFs/Src/ff.c **** 	DWORD val;
1183:Core/FatFs/Src/ff.c **** 	FATFS *fs = obj->fs;
1184:Core/FatFs/Src/ff.c **** 
1185:Core/FatFs/Src/ff.c **** 
1186:Core/FatFs/Src/ff.c **** 	if (clst < 2 || clst >= fs->n_fatent) {	/* Check if in valid range */
1187:Core/FatFs/Src/ff.c **** 		val = 1;	/* Internal error */
1188:Core/FatFs/Src/ff.c **** 
1189:Core/FatFs/Src/ff.c **** 	} else {
1190:Core/FatFs/Src/ff.c **** 		val = 0xFFFFFFFF;	/* Default value falls on disk error */
1191:Core/FatFs/Src/ff.c **** 
1192:Core/FatFs/Src/ff.c **** 		switch (fs->fs_type) {
1193:Core/FatFs/Src/ff.c **** 		case FS_FAT12 :
1194:Core/FatFs/Src/ff.c **** 			bc = (UINT)clst; bc += bc / 2;
1195:Core/FatFs/Src/ff.c **** 			if (move_window(fs, fs->fatbase + (bc / SS(fs))) != FR_OK) break;
1196:Core/FatFs/Src/ff.c **** 			wc = fs->win[bc++ % SS(fs)];		/* Get 1st byte of the entry */
1197:Core/FatFs/Src/ff.c **** 			if (move_window(fs, fs->fatbase + (bc / SS(fs))) != FR_OK) break;
1198:Core/FatFs/Src/ff.c **** 			wc |= fs->win[bc % SS(fs)] << 8;	/* Merge 2nd byte of the entry */
1199:Core/FatFs/Src/ff.c **** 			val = (clst & 1) ? (wc >> 4) : (wc & 0xFFF);	/* Adjust bit position */
1200:Core/FatFs/Src/ff.c **** 			break;
1201:Core/FatFs/Src/ff.c **** 
1202:Core/FatFs/Src/ff.c **** 		case FS_FAT16 :
1203:Core/FatFs/Src/ff.c **** 			if (move_window(fs, fs->fatbase + (clst / (SS(fs) / 2))) != FR_OK) break;
1204:Core/FatFs/Src/ff.c **** 			val = ld_16(fs->win + clst * 2 % SS(fs));		/* Simple WORD array */
1205:Core/FatFs/Src/ff.c **** 			break;
1206:Core/FatFs/Src/ff.c **** 
1207:Core/FatFs/Src/ff.c **** 		case FS_FAT32 :
1208:Core/FatFs/Src/ff.c **** 			if (move_window(fs, fs->fatbase + (clst / (SS(fs) / 4))) != FR_OK) break;
1209:Core/FatFs/Src/ff.c **** 			val = ld_32(fs->win + clst * 4 % SS(fs)) & 0x0FFFFFFF;	/* Simple DWORD array but mask out upper 
1210:Core/FatFs/Src/ff.c **** 			break;
1211:Core/FatFs/Src/ff.c **** #if FF_FS_EXFAT
1212:Core/FatFs/Src/ff.c **** 		case FS_EXFAT :
1213:Core/FatFs/Src/ff.c **** 			if ((obj->objsize != 0 && obj->sclust != 0) || obj->stat == 0) {	/* Object except root dir must 
1214:Core/FatFs/Src/ff.c **** 				DWORD cofs = clst - obj->sclust;	/* Offset from start cluster */
1215:Core/FatFs/Src/ff.c **** 				DWORD clen = (DWORD)((LBA_t)((obj->objsize - 1) / SS(fs)) / fs->csize);	/* Number of clusters -
1216:Core/FatFs/Src/ff.c **** 
1217:Core/FatFs/Src/ff.c **** 				if (obj->stat == 2 && cofs <= clen) {	/* Is it a contiguous chain? */
1218:Core/FatFs/Src/ff.c **** 					val = (cofs == clen) ? 0x7FFFFFFF : clst + 1;	/* No data on the FAT, generate the value */
1219:Core/FatFs/Src/ff.c **** 					break;
1220:Core/FatFs/Src/ff.c **** 				}
1221:Core/FatFs/Src/ff.c **** 				if (obj->stat == 3 && cofs < obj->n_cont) {	/* Is it in the 1st fragment? */
1222:Core/FatFs/Src/ff.c **** 					val = clst + 1; 	/* Generate the value */
1223:Core/FatFs/Src/ff.c **** 					break;
1224:Core/FatFs/Src/ff.c **** 				}
1225:Core/FatFs/Src/ff.c **** 				if (obj->stat != 2) {	/* Get value from FAT if FAT chain is valid */
1226:Core/FatFs/Src/ff.c **** 					if (obj->n_frag != 0) {	/* Is it on the growing edge? */
1227:Core/FatFs/Src/ff.c **** 						val = 0x7FFFFFFF;	/* Generate EOC */
1228:Core/FatFs/Src/ff.c **** 					} else {
1229:Core/FatFs/Src/ff.c **** 						if (move_window(fs, fs->fatbase + (clst / (SS(fs) / 4))) != FR_OK) break;
1230:Core/FatFs/Src/ff.c **** 						val = ld_32(fs->win + clst * 4 % SS(fs)) & 0x7FFFFFFF;
ARM GAS  C:\Users\84759\AppData\Local\Temp\cc0twHqK.s 			page 37


1231:Core/FatFs/Src/ff.c **** 					}
1232:Core/FatFs/Src/ff.c **** 					break;
1233:Core/FatFs/Src/ff.c **** 				}
1234:Core/FatFs/Src/ff.c **** 			}
1235:Core/FatFs/Src/ff.c **** 			val = 1;	/* Internal error */
1236:Core/FatFs/Src/ff.c **** 			break;
1237:Core/FatFs/Src/ff.c **** #endif
1238:Core/FatFs/Src/ff.c **** 		default:
1239:Core/FatFs/Src/ff.c **** 			val = 1;	/* Internal error */
1240:Core/FatFs/Src/ff.c **** 		}
1241:Core/FatFs/Src/ff.c **** 	}
1242:Core/FatFs/Src/ff.c **** 
1243:Core/FatFs/Src/ff.c **** 	return val;
1244:Core/FatFs/Src/ff.c **** }
1245:Core/FatFs/Src/ff.c **** 
1246:Core/FatFs/Src/ff.c **** 
1247:Core/FatFs/Src/ff.c **** 
1248:Core/FatFs/Src/ff.c **** 
1249:Core/FatFs/Src/ff.c **** #if !FF_FS_READONLY
1250:Core/FatFs/Src/ff.c **** /*-----------------------------------------------------------------------*/
1251:Core/FatFs/Src/ff.c **** /* FAT access - Change value of an FAT entry                             */
1252:Core/FatFs/Src/ff.c **** /*-----------------------------------------------------------------------*/
1253:Core/FatFs/Src/ff.c **** 
1254:Core/FatFs/Src/ff.c **** static FRESULT put_fat (	/* FR_OK(0):succeeded, !=0:error */
1255:Core/FatFs/Src/ff.c **** 	FATFS* fs,		/* Corresponding filesystem object */
1256:Core/FatFs/Src/ff.c **** 	DWORD clst,		/* FAT index number (cluster number) to be changed */
1257:Core/FatFs/Src/ff.c **** 	DWORD val		/* New value to be set to the entry */
1258:Core/FatFs/Src/ff.c **** )
1259:Core/FatFs/Src/ff.c **** {
1260:Core/FatFs/Src/ff.c **** 	UINT bc;
1261:Core/FatFs/Src/ff.c **** 	BYTE *p;
1262:Core/FatFs/Src/ff.c **** 	FRESULT res = FR_INT_ERR;
1263:Core/FatFs/Src/ff.c **** 
1264:Core/FatFs/Src/ff.c **** 
1265:Core/FatFs/Src/ff.c **** 	if (clst >= 2 && clst < fs->n_fatent) {	/* Check if in valid range */
1266:Core/FatFs/Src/ff.c **** 		switch (fs->fs_type) {
1267:Core/FatFs/Src/ff.c **** 		case FS_FAT12:
1268:Core/FatFs/Src/ff.c **** 			bc = (UINT)clst; bc += bc / 2;	/* bc: byte offset of the entry */
1269:Core/FatFs/Src/ff.c **** 			res = move_window(fs, fs->fatbase + (bc / SS(fs)));
1270:Core/FatFs/Src/ff.c **** 			if (res != FR_OK) break;
1271:Core/FatFs/Src/ff.c **** 			p = fs->win + bc++ % SS(fs);
1272:Core/FatFs/Src/ff.c **** 			*p = (clst & 1) ? ((*p & 0x0F) | ((BYTE)val << 4)) : (BYTE)val;	/* Update 1st byte */
1273:Core/FatFs/Src/ff.c **** 			fs->wflag = 1;
1274:Core/FatFs/Src/ff.c **** 			res = move_window(fs, fs->fatbase + (bc / SS(fs)));
1275:Core/FatFs/Src/ff.c **** 			if (res != FR_OK) break;
1276:Core/FatFs/Src/ff.c **** 			p = fs->win + bc % SS(fs);
1277:Core/FatFs/Src/ff.c **** 			*p = (clst & 1) ? (BYTE)(val >> 4) : ((*p & 0xF0) | ((BYTE)(val >> 8) & 0x0F));	/* Update 2nd by
1278:Core/FatFs/Src/ff.c **** 			fs->wflag = 1;
1279:Core/FatFs/Src/ff.c **** 			break;
1280:Core/FatFs/Src/ff.c **** 
1281:Core/FatFs/Src/ff.c **** 		case FS_FAT16:
1282:Core/FatFs/Src/ff.c **** 			res = move_window(fs, fs->fatbase + (clst / (SS(fs) / 2)));
1283:Core/FatFs/Src/ff.c **** 			if (res != FR_OK) break;
1284:Core/FatFs/Src/ff.c **** 			st_16(fs->win + clst * 2 % SS(fs), (WORD)val);	/* Simple WORD array */
1285:Core/FatFs/Src/ff.c **** 			fs->wflag = 1;
1286:Core/FatFs/Src/ff.c **** 			break;
1287:Core/FatFs/Src/ff.c **** 
ARM GAS  C:\Users\84759\AppData\Local\Temp\cc0twHqK.s 			page 38


1288:Core/FatFs/Src/ff.c **** 		case FS_FAT32:
1289:Core/FatFs/Src/ff.c **** #if FF_FS_EXFAT
1290:Core/FatFs/Src/ff.c **** 		case FS_EXFAT:
1291:Core/FatFs/Src/ff.c **** #endif
1292:Core/FatFs/Src/ff.c **** 			res = move_window(fs, fs->fatbase + (clst / (SS(fs) / 4)));
1293:Core/FatFs/Src/ff.c **** 			if (res != FR_OK) break;
1294:Core/FatFs/Src/ff.c **** 			if (!FF_FS_EXFAT || fs->fs_type != FS_EXFAT) {
1295:Core/FatFs/Src/ff.c **** 				val = (val & 0x0FFFFFFF) | (ld_32(fs->win + clst * 4 % SS(fs)) & 0xF0000000);
1296:Core/FatFs/Src/ff.c **** 			}
1297:Core/FatFs/Src/ff.c **** 			st_32(fs->win + clst * 4 % SS(fs), val);
1298:Core/FatFs/Src/ff.c **** 			fs->wflag = 1;
1299:Core/FatFs/Src/ff.c **** 			break;
1300:Core/FatFs/Src/ff.c **** 		}
1301:Core/FatFs/Src/ff.c **** 	}
1302:Core/FatFs/Src/ff.c **** 	return res;
1303:Core/FatFs/Src/ff.c **** }
1304:Core/FatFs/Src/ff.c **** 
1305:Core/FatFs/Src/ff.c **** #endif /* !FF_FS_READONLY */
1306:Core/FatFs/Src/ff.c **** 
1307:Core/FatFs/Src/ff.c **** 
1308:Core/FatFs/Src/ff.c **** 
1309:Core/FatFs/Src/ff.c **** 
1310:Core/FatFs/Src/ff.c **** #if FF_FS_EXFAT && !FF_FS_READONLY
1311:Core/FatFs/Src/ff.c **** /*-----------------------------------------------------------------------*/
1312:Core/FatFs/Src/ff.c **** /* exFAT: Accessing FAT and Allocation Bitmap                            */
1313:Core/FatFs/Src/ff.c **** /*-----------------------------------------------------------------------*/
1314:Core/FatFs/Src/ff.c **** 
1315:Core/FatFs/Src/ff.c **** /*--------------------------------------*/
1316:Core/FatFs/Src/ff.c **** /* Find a contiguous free cluster block */
1317:Core/FatFs/Src/ff.c **** /*--------------------------------------*/
1318:Core/FatFs/Src/ff.c **** 
1319:Core/FatFs/Src/ff.c **** static DWORD find_bitmap (	/* 0:Not found, 2..:Cluster block found, 0xFFFFFFFF:Disk error */
1320:Core/FatFs/Src/ff.c **** 	FATFS* fs,	/* Filesystem object */
1321:Core/FatFs/Src/ff.c **** 	DWORD clst,	/* Cluster number to scan from */
1322:Core/FatFs/Src/ff.c **** 	DWORD ncl	/* Number of contiguous clusters to find (1..) */
1323:Core/FatFs/Src/ff.c **** )
1324:Core/FatFs/Src/ff.c **** {
1325:Core/FatFs/Src/ff.c **** 	BYTE bm, bv;
1326:Core/FatFs/Src/ff.c **** 	UINT i;
1327:Core/FatFs/Src/ff.c **** 	DWORD val, scl, ctr;
1328:Core/FatFs/Src/ff.c **** 
1329:Core/FatFs/Src/ff.c **** 
1330:Core/FatFs/Src/ff.c **** 	clst -= 2;	/* The first bit in the bitmap corresponds to cluster #2 */
1331:Core/FatFs/Src/ff.c **** 	if (clst >= fs->n_fatent - 2) clst = 0;
1332:Core/FatFs/Src/ff.c **** 	scl = val = clst; ctr = 0;
1333:Core/FatFs/Src/ff.c **** 	for (;;) {
1334:Core/FatFs/Src/ff.c **** 		if (move_window(fs, fs->bitbase + val / 8 / SS(fs)) != FR_OK) return 0xFFFFFFFF;
1335:Core/FatFs/Src/ff.c **** 		i = val / 8 % SS(fs); bm = 1 << (val % 8);
1336:Core/FatFs/Src/ff.c **** 		do {
1337:Core/FatFs/Src/ff.c **** 			do {
1338:Core/FatFs/Src/ff.c **** 				bv = fs->win[i] & bm; bm <<= 1;		/* Get bit value */
1339:Core/FatFs/Src/ff.c **** 				if (++val >= fs->n_fatent - 2) {	/* Next cluster (with wrap-around) */
1340:Core/FatFs/Src/ff.c **** 					val = 0; bm = 0; i = SS(fs);
1341:Core/FatFs/Src/ff.c **** 				}
1342:Core/FatFs/Src/ff.c **** 				if (bv == 0) {	/* Is it a free cluster? */
1343:Core/FatFs/Src/ff.c **** 					if (++ctr == ncl) return scl + 2;	/* Check if run length is sufficient for required */
1344:Core/FatFs/Src/ff.c **** 				} else {
ARM GAS  C:\Users\84759\AppData\Local\Temp\cc0twHqK.s 			page 39


1345:Core/FatFs/Src/ff.c **** 					scl = val; ctr = 0;		/* Encountered a cluster in-use, restart to scan */
1346:Core/FatFs/Src/ff.c **** 				}
1347:Core/FatFs/Src/ff.c **** 				if (val == clst) return 0;	/* All cluster scanned? */
1348:Core/FatFs/Src/ff.c **** 			} while (bm != 0);
1349:Core/FatFs/Src/ff.c **** 			bm = 1;
1350:Core/FatFs/Src/ff.c **** 		} while (++i < SS(fs));
1351:Core/FatFs/Src/ff.c **** 	}
1352:Core/FatFs/Src/ff.c **** }
1353:Core/FatFs/Src/ff.c **** 
1354:Core/FatFs/Src/ff.c **** 
1355:Core/FatFs/Src/ff.c **** /*----------------------------------------*/
1356:Core/FatFs/Src/ff.c **** /* Set/Clear a block of allocation bitmap */
1357:Core/FatFs/Src/ff.c **** /*----------------------------------------*/
1358:Core/FatFs/Src/ff.c **** 
1359:Core/FatFs/Src/ff.c **** static FRESULT change_bitmap (
1360:Core/FatFs/Src/ff.c **** 	FATFS* fs,	/* Filesystem object */
1361:Core/FatFs/Src/ff.c **** 	DWORD clst,	/* Cluster number to change from */
1362:Core/FatFs/Src/ff.c **** 	DWORD ncl,	/* Number of clusters to be changed */
1363:Core/FatFs/Src/ff.c **** 	int bv		/* bit value to be set (0 or 1) */
1364:Core/FatFs/Src/ff.c **** )
1365:Core/FatFs/Src/ff.c **** {
1366:Core/FatFs/Src/ff.c **** 	BYTE bm;
1367:Core/FatFs/Src/ff.c **** 	UINT i;
1368:Core/FatFs/Src/ff.c **** 	LBA_t sect;
1369:Core/FatFs/Src/ff.c **** 
1370:Core/FatFs/Src/ff.c **** 
1371:Core/FatFs/Src/ff.c **** 	clst -= 2;	/* The first bit corresponds to cluster #2 */
1372:Core/FatFs/Src/ff.c **** 	sect = fs->bitbase + clst / 8 / SS(fs);	/* Sector address */
1373:Core/FatFs/Src/ff.c **** 	i = clst / 8 % SS(fs);					/* Byte offset in the sector */
1374:Core/FatFs/Src/ff.c **** 	bm = 1 << (clst % 8);					/* Bit mask in the byte */
1375:Core/FatFs/Src/ff.c **** 	for (;;) {
1376:Core/FatFs/Src/ff.c **** 		if (move_window(fs, sect++) != FR_OK) return FR_DISK_ERR;
1377:Core/FatFs/Src/ff.c **** 		do {
1378:Core/FatFs/Src/ff.c **** 			do {
1379:Core/FatFs/Src/ff.c **** 				if (bv == (int)((fs->win[i] & bm) != 0)) return FR_INT_ERR;	/* Is the bit expected value? */
1380:Core/FatFs/Src/ff.c **** 				fs->win[i] ^= bm;	/* Flip the bit */
1381:Core/FatFs/Src/ff.c **** 				fs->wflag = 1;
1382:Core/FatFs/Src/ff.c **** 				if (--ncl == 0) return FR_OK;	/* All bits processed? */
1383:Core/FatFs/Src/ff.c **** 			} while (bm <<= 1);		/* Next bit */
1384:Core/FatFs/Src/ff.c **** 			bm = 1;
1385:Core/FatFs/Src/ff.c **** 		} while (++i < SS(fs));		/* Next byte */
1386:Core/FatFs/Src/ff.c **** 		i = 0;
1387:Core/FatFs/Src/ff.c **** 	}
1388:Core/FatFs/Src/ff.c **** }
1389:Core/FatFs/Src/ff.c **** 
1390:Core/FatFs/Src/ff.c **** 
1391:Core/FatFs/Src/ff.c **** /*---------------------------------------------*/
1392:Core/FatFs/Src/ff.c **** /* Fill the first fragment of the FAT chain    */
1393:Core/FatFs/Src/ff.c **** /*---------------------------------------------*/
1394:Core/FatFs/Src/ff.c **** 
1395:Core/FatFs/Src/ff.c **** static FRESULT fill_first_frag (
1396:Core/FatFs/Src/ff.c **** 	FFOBJID* obj	/* Pointer to the corresponding object */
1397:Core/FatFs/Src/ff.c **** )
1398:Core/FatFs/Src/ff.c **** {
1399:Core/FatFs/Src/ff.c **** 	FRESULT res;
1400:Core/FatFs/Src/ff.c **** 	DWORD cl, n;
1401:Core/FatFs/Src/ff.c **** 
ARM GAS  C:\Users\84759\AppData\Local\Temp\cc0twHqK.s 			page 40


1402:Core/FatFs/Src/ff.c **** 
1403:Core/FatFs/Src/ff.c **** 	if (obj->stat == 3) {	/* Has the object been changed 'fragmented' in this session? */
1404:Core/FatFs/Src/ff.c **** 		for (cl = obj->sclust, n = obj->n_cont; n; cl++, n--) {	/* Create cluster chain on the FAT */
1405:Core/FatFs/Src/ff.c **** 			res = put_fat(obj->fs, cl, cl + 1);
1406:Core/FatFs/Src/ff.c **** 			if (res != FR_OK) return res;
1407:Core/FatFs/Src/ff.c **** 		}
1408:Core/FatFs/Src/ff.c **** 		obj->stat = 0;	/* Change status 'FAT chain is valid' */
1409:Core/FatFs/Src/ff.c **** 	}
1410:Core/FatFs/Src/ff.c **** 	return FR_OK;
1411:Core/FatFs/Src/ff.c **** }
1412:Core/FatFs/Src/ff.c **** 
1413:Core/FatFs/Src/ff.c **** 
1414:Core/FatFs/Src/ff.c **** /*---------------------------------------------*/
1415:Core/FatFs/Src/ff.c **** /* Fill the last fragment of the FAT chain     */
1416:Core/FatFs/Src/ff.c **** /*---------------------------------------------*/
1417:Core/FatFs/Src/ff.c **** 
1418:Core/FatFs/Src/ff.c **** static FRESULT fill_last_frag (
1419:Core/FatFs/Src/ff.c **** 	FFOBJID* obj,	/* Pointer to the corresponding object */
1420:Core/FatFs/Src/ff.c **** 	DWORD lcl,		/* Last cluster of the fragment */
1421:Core/FatFs/Src/ff.c **** 	DWORD term		/* Value to set the last FAT entry */
1422:Core/FatFs/Src/ff.c **** )
1423:Core/FatFs/Src/ff.c **** {
1424:Core/FatFs/Src/ff.c **** 	FRESULT res;
1425:Core/FatFs/Src/ff.c **** 
1426:Core/FatFs/Src/ff.c **** 
1427:Core/FatFs/Src/ff.c **** 	while (obj->n_frag > 0) {	/* Create the chain of last fragment */
1428:Core/FatFs/Src/ff.c **** 		res = put_fat(obj->fs, lcl - obj->n_frag + 1, (obj->n_frag > 1) ? lcl - obj->n_frag + 2 : term);
1429:Core/FatFs/Src/ff.c **** 		if (res != FR_OK) return res;
1430:Core/FatFs/Src/ff.c **** 		obj->n_frag--;
1431:Core/FatFs/Src/ff.c **** 	}
1432:Core/FatFs/Src/ff.c **** 	return FR_OK;
1433:Core/FatFs/Src/ff.c **** }
1434:Core/FatFs/Src/ff.c **** 
1435:Core/FatFs/Src/ff.c **** #endif	/* FF_FS_EXFAT && !FF_FS_READONLY */
1436:Core/FatFs/Src/ff.c **** 
1437:Core/FatFs/Src/ff.c **** 
1438:Core/FatFs/Src/ff.c **** 
1439:Core/FatFs/Src/ff.c **** #if !FF_FS_READONLY
1440:Core/FatFs/Src/ff.c **** /*-----------------------------------------------------------------------*/
1441:Core/FatFs/Src/ff.c **** /* FAT handling - Remove a cluster chain                                 */
1442:Core/FatFs/Src/ff.c **** /*-----------------------------------------------------------------------*/
1443:Core/FatFs/Src/ff.c **** 
1444:Core/FatFs/Src/ff.c **** static FRESULT remove_chain (	/* FR_OK(0):succeeded, !=0:error */
1445:Core/FatFs/Src/ff.c **** 	FFOBJID* obj,		/* Corresponding object */
1446:Core/FatFs/Src/ff.c **** 	DWORD clst,			/* Cluster to remove a chain from */
1447:Core/FatFs/Src/ff.c **** 	DWORD pclst			/* Previous cluster of clst (0 if entire chain) */
1448:Core/FatFs/Src/ff.c **** )
1449:Core/FatFs/Src/ff.c **** {
1450:Core/FatFs/Src/ff.c **** 	FRESULT res = FR_OK;
1451:Core/FatFs/Src/ff.c **** 	DWORD nxt;
1452:Core/FatFs/Src/ff.c **** 	FATFS *fs = obj->fs;
1453:Core/FatFs/Src/ff.c **** #if FF_FS_EXFAT || FF_USE_TRIM
1454:Core/FatFs/Src/ff.c **** 	DWORD scl = clst, ecl = clst;
1455:Core/FatFs/Src/ff.c **** #endif
1456:Core/FatFs/Src/ff.c **** #if FF_USE_TRIM
1457:Core/FatFs/Src/ff.c **** 	LBA_t rt[2];
1458:Core/FatFs/Src/ff.c **** #endif
ARM GAS  C:\Users\84759\AppData\Local\Temp\cc0twHqK.s 			page 41


1459:Core/FatFs/Src/ff.c **** 
1460:Core/FatFs/Src/ff.c **** 	if (clst < 2 || clst >= fs->n_fatent) return FR_INT_ERR;	/* Check if in valid range */
1461:Core/FatFs/Src/ff.c **** 
1462:Core/FatFs/Src/ff.c **** 	/* Mark the previous cluster 'EOC' on the FAT if it exists */
1463:Core/FatFs/Src/ff.c **** 	if (pclst != 0 && (!FF_FS_EXFAT || fs->fs_type != FS_EXFAT || obj->stat != 2)) {
1464:Core/FatFs/Src/ff.c **** 		res = put_fat(fs, pclst, 0xFFFFFFFF);
1465:Core/FatFs/Src/ff.c **** 		if (res != FR_OK) return res;
1466:Core/FatFs/Src/ff.c **** 	}
1467:Core/FatFs/Src/ff.c **** 
1468:Core/FatFs/Src/ff.c **** 	/* Remove the chain */
1469:Core/FatFs/Src/ff.c **** 	do {
1470:Core/FatFs/Src/ff.c **** 		nxt = get_fat(obj, clst);			/* Get cluster status */
1471:Core/FatFs/Src/ff.c **** 		if (nxt == 0) break;				/* Empty cluster? */
1472:Core/FatFs/Src/ff.c **** 		if (nxt == 1) return FR_INT_ERR;	/* Internal error? */
1473:Core/FatFs/Src/ff.c **** 		if (nxt == 0xFFFFFFFF) return FR_DISK_ERR;	/* Disk error? */
1474:Core/FatFs/Src/ff.c **** 		if (!FF_FS_EXFAT || fs->fs_type != FS_EXFAT) {
1475:Core/FatFs/Src/ff.c **** 			res = put_fat(fs, clst, 0);		/* Mark the cluster 'free' on the FAT */
1476:Core/FatFs/Src/ff.c **** 			if (res != FR_OK) return res;
1477:Core/FatFs/Src/ff.c **** 		}
1478:Core/FatFs/Src/ff.c **** 		if (fs->free_clst < fs->n_fatent - 2) {	/* Update allocation information if it is valid */
1479:Core/FatFs/Src/ff.c **** 			fs->free_clst++;
1480:Core/FatFs/Src/ff.c **** 			fs->fsi_flag |= 1;
1481:Core/FatFs/Src/ff.c **** 		}
1482:Core/FatFs/Src/ff.c **** #if FF_FS_EXFAT || FF_USE_TRIM
1483:Core/FatFs/Src/ff.c **** 		if (ecl + 1 == nxt) {	/* Is next cluster contiguous? */
1484:Core/FatFs/Src/ff.c **** 			ecl = nxt;
1485:Core/FatFs/Src/ff.c **** 		} else {				/* End of contiguous cluster block */
1486:Core/FatFs/Src/ff.c **** #if FF_FS_EXFAT
1487:Core/FatFs/Src/ff.c **** 			if (fs->fs_type == FS_EXFAT) {
1488:Core/FatFs/Src/ff.c **** 				res = change_bitmap(fs, scl, ecl - scl + 1, 0);	/* Mark the cluster block 'free' on the bitmap 
1489:Core/FatFs/Src/ff.c **** 				if (res != FR_OK) return res;
1490:Core/FatFs/Src/ff.c **** 			}
1491:Core/FatFs/Src/ff.c **** #endif
1492:Core/FatFs/Src/ff.c **** #if FF_USE_TRIM
1493:Core/FatFs/Src/ff.c **** 			rt[0] = clst2sect(fs, scl);					/* Start of data area to be freed */
1494:Core/FatFs/Src/ff.c **** 			rt[1] = clst2sect(fs, ecl) + fs->csize - 1;	/* End of data area to be freed */
1495:Core/FatFs/Src/ff.c **** 			disk_ioctl(fs->pdrv, CTRL_TRIM, rt);		/* Inform storage device that the data in the block may be
1496:Core/FatFs/Src/ff.c **** #endif
1497:Core/FatFs/Src/ff.c **** 			scl = ecl = nxt;
1498:Core/FatFs/Src/ff.c **** 		}
1499:Core/FatFs/Src/ff.c **** #endif
1500:Core/FatFs/Src/ff.c **** 		clst = nxt;					/* Next cluster */
1501:Core/FatFs/Src/ff.c **** 	} while (clst < fs->n_fatent);	/* Repeat until the last link */
1502:Core/FatFs/Src/ff.c **** 
1503:Core/FatFs/Src/ff.c **** #if FF_FS_EXFAT
1504:Core/FatFs/Src/ff.c **** 	/* Some post processes for chain status */
1505:Core/FatFs/Src/ff.c **** 	if (fs->fs_type == FS_EXFAT) {
1506:Core/FatFs/Src/ff.c **** 		if (pclst == 0) {	/* Has the entire chain been removed? */
1507:Core/FatFs/Src/ff.c **** 			obj->stat = 0;		/* Change the chain status 'initial' */
1508:Core/FatFs/Src/ff.c **** 		} else {
1509:Core/FatFs/Src/ff.c **** 			if (obj->stat == 0) {	/* Is it a fragmented chain from the beginning of this session? */
1510:Core/FatFs/Src/ff.c **** 				clst = obj->sclust;		/* Follow the chain to check if it gets contiguous */
1511:Core/FatFs/Src/ff.c **** 				while (clst != pclst) {
1512:Core/FatFs/Src/ff.c **** 					nxt = get_fat(obj, clst);
1513:Core/FatFs/Src/ff.c **** 					if (nxt < 2) return FR_INT_ERR;
1514:Core/FatFs/Src/ff.c **** 					if (nxt == 0xFFFFFFFF) return FR_DISK_ERR;
1515:Core/FatFs/Src/ff.c **** 					if (nxt != clst + 1) break;	/* Not contiguous? */
ARM GAS  C:\Users\84759\AppData\Local\Temp\cc0twHqK.s 			page 42


1516:Core/FatFs/Src/ff.c **** 					clst++;
1517:Core/FatFs/Src/ff.c **** 				}
1518:Core/FatFs/Src/ff.c **** 				if (clst == pclst) {	/* Has the chain got contiguous again? */
1519:Core/FatFs/Src/ff.c **** 					obj->stat = 2;		/* Change the chain status 'contiguous' */
1520:Core/FatFs/Src/ff.c **** 				}
1521:Core/FatFs/Src/ff.c **** 			} else {
1522:Core/FatFs/Src/ff.c **** 				if (obj->stat == 3 && pclst >= obj->sclust && pclst <= obj->sclust + obj->n_cont) {	/* Was the 
1523:Core/FatFs/Src/ff.c **** 					obj->stat = 2;	/* Change the chain status 'contiguous' */
1524:Core/FatFs/Src/ff.c **** 				}
1525:Core/FatFs/Src/ff.c **** 			}
1526:Core/FatFs/Src/ff.c **** 		}
1527:Core/FatFs/Src/ff.c **** 	}
1528:Core/FatFs/Src/ff.c **** #endif
1529:Core/FatFs/Src/ff.c **** 	return FR_OK;
1530:Core/FatFs/Src/ff.c **** }
1531:Core/FatFs/Src/ff.c **** 
1532:Core/FatFs/Src/ff.c **** 
1533:Core/FatFs/Src/ff.c **** 
1534:Core/FatFs/Src/ff.c **** 
1535:Core/FatFs/Src/ff.c **** /*-----------------------------------------------------------------------*/
1536:Core/FatFs/Src/ff.c **** /* FAT handling - Stretch a chain or Create a new chain                  */
1537:Core/FatFs/Src/ff.c **** /*-----------------------------------------------------------------------*/
1538:Core/FatFs/Src/ff.c **** 
1539:Core/FatFs/Src/ff.c **** static DWORD create_chain (	/* 0:No free cluster, 1:Internal error, 0xFFFFFFFF:Disk error, >=2:New 
1540:Core/FatFs/Src/ff.c **** 	FFOBJID* obj,		/* Corresponding object */
1541:Core/FatFs/Src/ff.c **** 	DWORD clst			/* Cluster# to stretch, 0:Create a new chain */
1542:Core/FatFs/Src/ff.c **** )
1543:Core/FatFs/Src/ff.c **** {
1544:Core/FatFs/Src/ff.c **** 	DWORD cs, ncl, scl;
1545:Core/FatFs/Src/ff.c **** 	FRESULT res;
1546:Core/FatFs/Src/ff.c **** 	FATFS *fs = obj->fs;
1547:Core/FatFs/Src/ff.c **** 
1548:Core/FatFs/Src/ff.c **** 
1549:Core/FatFs/Src/ff.c **** 	if (clst == 0) {	/* Create a new chain */
1550:Core/FatFs/Src/ff.c **** 		scl = fs->last_clst;				/* Suggested cluster to start to find */
1551:Core/FatFs/Src/ff.c **** 		if (scl == 0 || scl >= fs->n_fatent) scl = 1;
1552:Core/FatFs/Src/ff.c **** 	}
1553:Core/FatFs/Src/ff.c **** 	else {				/* Stretch a chain */
1554:Core/FatFs/Src/ff.c **** 		cs = get_fat(obj, clst);			/* Check the cluster status */
1555:Core/FatFs/Src/ff.c **** 		if (cs < 2) return 1;				/* Test for insanity */
1556:Core/FatFs/Src/ff.c **** 		if (cs == 0xFFFFFFFF) return cs;	/* Test for disk error */
1557:Core/FatFs/Src/ff.c **** 		if (cs < fs->n_fatent) return cs;	/* It is already followed by next cluster */
1558:Core/FatFs/Src/ff.c **** 		scl = clst;							/* Cluster to start to find */
1559:Core/FatFs/Src/ff.c **** 	}
1560:Core/FatFs/Src/ff.c **** 	if (fs->free_clst == 0) return 0;		/* No free cluster */
1561:Core/FatFs/Src/ff.c **** 
1562:Core/FatFs/Src/ff.c **** #if FF_FS_EXFAT
1563:Core/FatFs/Src/ff.c **** 	if (fs->fs_type == FS_EXFAT) {	/* On the exFAT volume */
1564:Core/FatFs/Src/ff.c **** 		ncl = find_bitmap(fs, scl, 1);				/* Find a free cluster */
1565:Core/FatFs/Src/ff.c **** 		if (ncl == 0 || ncl == 0xFFFFFFFF) return ncl;	/* No free cluster or hard error? */
1566:Core/FatFs/Src/ff.c **** 		res = change_bitmap(fs, ncl, 1, 1);			/* Mark the cluster 'in use' */
1567:Core/FatFs/Src/ff.c **** 		if (res == FR_INT_ERR) return 1;
1568:Core/FatFs/Src/ff.c **** 		if (res == FR_DISK_ERR) return 0xFFFFFFFF;
1569:Core/FatFs/Src/ff.c **** 		if (clst == 0) {							/* Is it a new chain? */
1570:Core/FatFs/Src/ff.c **** 			obj->stat = 2;							/* Set status 'contiguous' */
1571:Core/FatFs/Src/ff.c **** 		} else {									/* It is a stretched chain */
1572:Core/FatFs/Src/ff.c **** 			if (obj->stat == 2 && ncl != scl + 1) {	/* Is the chain got fragmented? */
ARM GAS  C:\Users\84759\AppData\Local\Temp\cc0twHqK.s 			page 43


1573:Core/FatFs/Src/ff.c **** 				obj->n_cont = scl - obj->sclust;	/* Set size of the contiguous part */
1574:Core/FatFs/Src/ff.c **** 				obj->stat = 3;						/* Change status 'just fragmented' */
1575:Core/FatFs/Src/ff.c **** 			}
1576:Core/FatFs/Src/ff.c **** 		}
1577:Core/FatFs/Src/ff.c **** 		if (obj->stat != 2) {	/* Is the file non-contiguous? */
1578:Core/FatFs/Src/ff.c **** 			if (ncl == clst + 1) {	/* Is the cluster next to previous one? */
1579:Core/FatFs/Src/ff.c **** 				obj->n_frag = obj->n_frag ? obj->n_frag + 1 : 2;	/* Increment size of last framgent */
1580:Core/FatFs/Src/ff.c **** 			} else {				/* New fragment */
1581:Core/FatFs/Src/ff.c **** 				if (obj->n_frag == 0) obj->n_frag = 1;
1582:Core/FatFs/Src/ff.c **** 				res = fill_last_frag(obj, clst, ncl);	/* Fill last fragment on the FAT and link it to new one *
1583:Core/FatFs/Src/ff.c **** 				if (res == FR_OK) obj->n_frag = 1;
1584:Core/FatFs/Src/ff.c **** 			}
1585:Core/FatFs/Src/ff.c **** 		}
1586:Core/FatFs/Src/ff.c **** 	} else
1587:Core/FatFs/Src/ff.c **** #endif
1588:Core/FatFs/Src/ff.c **** 	{	/* On the FAT/FAT32 volume */
1589:Core/FatFs/Src/ff.c **** 		ncl = 0;
1590:Core/FatFs/Src/ff.c **** 		if (scl == clst) {						/* Stretching an existing chain? */
1591:Core/FatFs/Src/ff.c **** 			ncl = scl + 1;						/* Test if next cluster is free */
1592:Core/FatFs/Src/ff.c **** 			if (ncl >= fs->n_fatent) ncl = 2;
1593:Core/FatFs/Src/ff.c **** 			cs = get_fat(obj, ncl);				/* Get next cluster status */
1594:Core/FatFs/Src/ff.c **** 			if (cs == 1 || cs == 0xFFFFFFFF) return cs;	/* Test for error */
1595:Core/FatFs/Src/ff.c **** 			if (cs != 0) {						/* Not free? */
1596:Core/FatFs/Src/ff.c **** 				cs = fs->last_clst;				/* Start at suggested cluster if it is valid */
1597:Core/FatFs/Src/ff.c **** 				if (cs >= 2 && cs < fs->n_fatent) scl = cs;
1598:Core/FatFs/Src/ff.c **** 				ncl = 0;
1599:Core/FatFs/Src/ff.c **** 			}
1600:Core/FatFs/Src/ff.c **** 		}
1601:Core/FatFs/Src/ff.c **** 		if (ncl == 0) {	/* The new cluster cannot be contiguous and find another fragment */
1602:Core/FatFs/Src/ff.c **** 			ncl = scl;	/* Start cluster */
1603:Core/FatFs/Src/ff.c **** 			for (;;) {
1604:Core/FatFs/Src/ff.c **** 				ncl++;							/* Next cluster */
1605:Core/FatFs/Src/ff.c **** 				if (ncl >= fs->n_fatent) {		/* Check wrap-around */
1606:Core/FatFs/Src/ff.c **** 					ncl = 2;
1607:Core/FatFs/Src/ff.c **** 					if (ncl > scl) return 0;	/* No free cluster found? */
1608:Core/FatFs/Src/ff.c **** 				}
1609:Core/FatFs/Src/ff.c **** 				cs = get_fat(obj, ncl);			/* Get the cluster status */
1610:Core/FatFs/Src/ff.c **** 				if (cs == 0) break;				/* Found a free cluster? */
1611:Core/FatFs/Src/ff.c **** 				if (cs == 1 || cs == 0xFFFFFFFF) return cs;	/* Test for error */
1612:Core/FatFs/Src/ff.c **** 				if (ncl == scl) return 0;		/* No free cluster found? */
1613:Core/FatFs/Src/ff.c **** 			}
1614:Core/FatFs/Src/ff.c **** 		}
1615:Core/FatFs/Src/ff.c **** 		res = put_fat(fs, ncl, 0xFFFFFFFF);		/* Mark the new cluster 'EOC' */
1616:Core/FatFs/Src/ff.c **** 		if (res == FR_OK && clst != 0) {
1617:Core/FatFs/Src/ff.c **** 			res = put_fat(fs, clst, ncl);		/* Link it from the previous one if needed */
1618:Core/FatFs/Src/ff.c **** 		}
1619:Core/FatFs/Src/ff.c **** 	}
1620:Core/FatFs/Src/ff.c **** 
1621:Core/FatFs/Src/ff.c **** 	if (res == FR_OK) {			/* Update allocation information if the function succeeded */
1622:Core/FatFs/Src/ff.c **** 		fs->last_clst = ncl;
1623:Core/FatFs/Src/ff.c **** 		if (fs->free_clst > 0 && fs->free_clst <= fs->n_fatent - 2) {
1624:Core/FatFs/Src/ff.c **** 			fs->free_clst--;
1625:Core/FatFs/Src/ff.c **** 			fs->fsi_flag |= 1;
1626:Core/FatFs/Src/ff.c **** 		}
1627:Core/FatFs/Src/ff.c **** 	} else {
1628:Core/FatFs/Src/ff.c **** 		ncl = (res == FR_DISK_ERR) ? 0xFFFFFFFF : 1;	/* Failed. Generate error status */
1629:Core/FatFs/Src/ff.c **** 	}
ARM GAS  C:\Users\84759\AppData\Local\Temp\cc0twHqK.s 			page 44


1630:Core/FatFs/Src/ff.c **** 
1631:Core/FatFs/Src/ff.c **** 	return ncl;		/* Return new cluster number or error status */
1632:Core/FatFs/Src/ff.c **** }
1633:Core/FatFs/Src/ff.c **** 
1634:Core/FatFs/Src/ff.c **** #endif /* !FF_FS_READONLY */
1635:Core/FatFs/Src/ff.c **** 
1636:Core/FatFs/Src/ff.c **** 
1637:Core/FatFs/Src/ff.c **** 
1638:Core/FatFs/Src/ff.c **** 
1639:Core/FatFs/Src/ff.c **** #if FF_USE_FASTSEEK
1640:Core/FatFs/Src/ff.c **** /*-----------------------------------------------------------------------*/
1641:Core/FatFs/Src/ff.c **** /* FAT handling - Convert offset into cluster with link map table        */
1642:Core/FatFs/Src/ff.c **** /*-----------------------------------------------------------------------*/
1643:Core/FatFs/Src/ff.c **** 
1644:Core/FatFs/Src/ff.c **** static DWORD clmt_clust (	/* <2:Error, >=2:Cluster number */
1645:Core/FatFs/Src/ff.c **** 	FIL* fp,		/* Pointer to the file object */
1646:Core/FatFs/Src/ff.c **** 	FSIZE_t ofs		/* File offset to be converted to cluster# */
1647:Core/FatFs/Src/ff.c **** )
1648:Core/FatFs/Src/ff.c **** {
1649:Core/FatFs/Src/ff.c **** 	DWORD cl, ncl;
1650:Core/FatFs/Src/ff.c **** 	DWORD *tbl;
1651:Core/FatFs/Src/ff.c **** 	FATFS *fs = fp->obj.fs;
1652:Core/FatFs/Src/ff.c **** 
1653:Core/FatFs/Src/ff.c **** 
1654:Core/FatFs/Src/ff.c **** 	tbl = fp->cltbl + 1;	/* Top of CLMT */
1655:Core/FatFs/Src/ff.c **** 	cl = (DWORD)(ofs / SS(fs) / fs->csize);	/* Cluster order from top of the file */
1656:Core/FatFs/Src/ff.c **** 	for (;;) {
1657:Core/FatFs/Src/ff.c **** 		ncl = *tbl++;			/* Number of cluters in the fragment */
1658:Core/FatFs/Src/ff.c **** 		if (ncl == 0) return 0;	/* End of table? (error) */
1659:Core/FatFs/Src/ff.c **** 		if (cl < ncl) break;	/* In this fragment? */
1660:Core/FatFs/Src/ff.c **** 		cl -= ncl; tbl++;		/* Next fragment */
1661:Core/FatFs/Src/ff.c **** 	}
1662:Core/FatFs/Src/ff.c **** 	return cl + *tbl;	/* Return the cluster number */
1663:Core/FatFs/Src/ff.c **** }
1664:Core/FatFs/Src/ff.c **** 
1665:Core/FatFs/Src/ff.c **** #endif	/* FF_USE_FASTSEEK */
1666:Core/FatFs/Src/ff.c **** 
1667:Core/FatFs/Src/ff.c **** 
1668:Core/FatFs/Src/ff.c **** 
1669:Core/FatFs/Src/ff.c **** 
1670:Core/FatFs/Src/ff.c **** /*-----------------------------------------------------------------------*/
1671:Core/FatFs/Src/ff.c **** /* Directory handling - Fill a cluster with zeros                        */
1672:Core/FatFs/Src/ff.c **** /*-----------------------------------------------------------------------*/
1673:Core/FatFs/Src/ff.c **** 
1674:Core/FatFs/Src/ff.c **** #if !FF_FS_READONLY
1675:Core/FatFs/Src/ff.c **** static FRESULT dir_clear (	/* Returns FR_OK or FR_DISK_ERR */
1676:Core/FatFs/Src/ff.c **** 	FATFS *fs,		/* Filesystem object */
1677:Core/FatFs/Src/ff.c **** 	DWORD clst		/* Directory table to clear */
1678:Core/FatFs/Src/ff.c **** )
1679:Core/FatFs/Src/ff.c **** {
1680:Core/FatFs/Src/ff.c **** 	LBA_t sect;
1681:Core/FatFs/Src/ff.c **** 	UINT n, szb;
1682:Core/FatFs/Src/ff.c **** 	BYTE *ibuf;
1683:Core/FatFs/Src/ff.c **** 
1684:Core/FatFs/Src/ff.c **** 
1685:Core/FatFs/Src/ff.c **** 	if (sync_window(fs) != FR_OK) return FR_DISK_ERR;	/* Flush disk access window */
1686:Core/FatFs/Src/ff.c **** 	sect = clst2sect(fs, clst);		/* Top of the cluster */
ARM GAS  C:\Users\84759\AppData\Local\Temp\cc0twHqK.s 			page 45


1687:Core/FatFs/Src/ff.c **** 	fs->winsect = sect;				/* Set window to top of the cluster */
1688:Core/FatFs/Src/ff.c **** 	memset(fs->win, 0, sizeof fs->win);	/* Clear window buffer */
1689:Core/FatFs/Src/ff.c **** #if FF_USE_LFN == 3		/* Quick table clear by using multi-secter write */
1690:Core/FatFs/Src/ff.c **** 	/* Allocate a temporary buffer */
1691:Core/FatFs/Src/ff.c **** 	for (szb = ((DWORD)fs->csize * SS(fs) >= MAX_MALLOC) ? MAX_MALLOC : fs->csize * SS(fs), ibuf = 0; 
1692:Core/FatFs/Src/ff.c **** 	if (szb > SS(fs)) {		/* Buffer allocated? */
1693:Core/FatFs/Src/ff.c **** 		memset(ibuf, 0, szb);
1694:Core/FatFs/Src/ff.c **** 		szb /= SS(fs);		/* Bytes -> Sectors */
1695:Core/FatFs/Src/ff.c **** 		for (n = 0; n < fs->csize && disk_write(fs->pdrv, ibuf, sect + n, szb) == RES_OK; n += szb) ;	/* 
1696:Core/FatFs/Src/ff.c **** 		ff_memfree(ibuf);
1697:Core/FatFs/Src/ff.c **** 	} else
1698:Core/FatFs/Src/ff.c **** #endif
1699:Core/FatFs/Src/ff.c **** 	{
1700:Core/FatFs/Src/ff.c **** 		ibuf = fs->win; szb = 1;	/* Use window buffer (many single-sector writes may take a time) */
1701:Core/FatFs/Src/ff.c **** 		for (n = 0; n < fs->csize && disk_write(fs->pdrv, ibuf, sect + n, szb) == RES_OK; n += szb) ;	/* 
1702:Core/FatFs/Src/ff.c **** 	}
1703:Core/FatFs/Src/ff.c **** 	return (n == fs->csize) ? FR_OK : FR_DISK_ERR;
1704:Core/FatFs/Src/ff.c **** }
1705:Core/FatFs/Src/ff.c **** #endif	/* !FF_FS_READONLY */
1706:Core/FatFs/Src/ff.c **** 
1707:Core/FatFs/Src/ff.c **** 
1708:Core/FatFs/Src/ff.c **** 
1709:Core/FatFs/Src/ff.c **** 
1710:Core/FatFs/Src/ff.c **** /*-----------------------------------------------------------------------*/
1711:Core/FatFs/Src/ff.c **** /* Directory handling - Set directory index                              */
1712:Core/FatFs/Src/ff.c **** /*-----------------------------------------------------------------------*/
1713:Core/FatFs/Src/ff.c **** 
1714:Core/FatFs/Src/ff.c **** static FRESULT dir_sdi (	/* FR_OK(0):succeeded, !=0:error */
1715:Core/FatFs/Src/ff.c **** 	DIR* dp,		/* Pointer to directory object */
1716:Core/FatFs/Src/ff.c **** 	DWORD ofs		/* Offset of directory table */
1717:Core/FatFs/Src/ff.c **** )
1718:Core/FatFs/Src/ff.c **** {
1719:Core/FatFs/Src/ff.c **** 	DWORD csz, clst;
1720:Core/FatFs/Src/ff.c **** 	FATFS *fs = dp->obj.fs;
1721:Core/FatFs/Src/ff.c **** 
1722:Core/FatFs/Src/ff.c **** 
1723:Core/FatFs/Src/ff.c **** 	if (ofs >= (DWORD)((FF_FS_EXFAT && fs->fs_type == FS_EXFAT) ? MAX_DIR_EX : MAX_DIR) || ofs % SZDIR
1724:Core/FatFs/Src/ff.c **** 		return FR_INT_ERR;
1725:Core/FatFs/Src/ff.c **** 	}
1726:Core/FatFs/Src/ff.c **** 	dp->dptr = ofs;				/* Set current offset */
1727:Core/FatFs/Src/ff.c **** 	clst = dp->obj.sclust;		/* Table start cluster (0:root) */
1728:Core/FatFs/Src/ff.c **** 	if (clst == 0 && fs->fs_type >= FS_FAT32) {	/* Replace cluster# 0 with root cluster# */
1729:Core/FatFs/Src/ff.c **** 		clst = (DWORD)fs->dirbase;
1730:Core/FatFs/Src/ff.c **** 		if (FF_FS_EXFAT) dp->obj.stat = 0;	/* exFAT: Root dir has an FAT chain */
1731:Core/FatFs/Src/ff.c **** 	}
1732:Core/FatFs/Src/ff.c **** 
1733:Core/FatFs/Src/ff.c **** 	if (clst == 0) {	/* Static table (root-directory on the FAT volume) */
1734:Core/FatFs/Src/ff.c **** 		if (ofs / SZDIRE >= fs->n_rootdir) return FR_INT_ERR;	/* Is index out of range? */
1735:Core/FatFs/Src/ff.c **** 		dp->sect = fs->dirbase;
1736:Core/FatFs/Src/ff.c **** 
1737:Core/FatFs/Src/ff.c **** 	} else {			/* Dynamic table (sub-directory or root-directory on the FAT32/exFAT volume) */
1738:Core/FatFs/Src/ff.c **** 		csz = (DWORD)fs->csize * SS(fs);	/* Bytes per cluster */
1739:Core/FatFs/Src/ff.c **** 		while (ofs >= csz) {				/* Follow cluster chain */
1740:Core/FatFs/Src/ff.c **** 			clst = get_fat(&dp->obj, clst);				/* Get next cluster */
1741:Core/FatFs/Src/ff.c **** 			if (clst == 0xFFFFFFFF) return FR_DISK_ERR;	/* Disk error */
1742:Core/FatFs/Src/ff.c **** 			if (clst < 2 || clst >= fs->n_fatent) return FR_INT_ERR;	/* Reached to end of table or internal 
1743:Core/FatFs/Src/ff.c **** 			ofs -= csz;
ARM GAS  C:\Users\84759\AppData\Local\Temp\cc0twHqK.s 			page 46


1744:Core/FatFs/Src/ff.c **** 		}
1745:Core/FatFs/Src/ff.c **** 		dp->sect = clst2sect(fs, clst);
1746:Core/FatFs/Src/ff.c **** 	}
1747:Core/FatFs/Src/ff.c **** 	dp->clust = clst;					/* Current cluster# */
1748:Core/FatFs/Src/ff.c **** 	if (dp->sect == 0) return FR_INT_ERR;
1749:Core/FatFs/Src/ff.c **** 	dp->sect += ofs / SS(fs);			/* Sector# of the directory entry */
1750:Core/FatFs/Src/ff.c **** 	dp->dir = fs->win + (ofs % SS(fs));	/* Pointer to the entry in the win[] */
1751:Core/FatFs/Src/ff.c **** 
1752:Core/FatFs/Src/ff.c **** 	return FR_OK;
1753:Core/FatFs/Src/ff.c **** }
1754:Core/FatFs/Src/ff.c **** 
1755:Core/FatFs/Src/ff.c **** 
1756:Core/FatFs/Src/ff.c **** 
1757:Core/FatFs/Src/ff.c **** 
1758:Core/FatFs/Src/ff.c **** /*-----------------------------------------------------------------------*/
1759:Core/FatFs/Src/ff.c **** /* Directory handling - Move directory table index next                  */
1760:Core/FatFs/Src/ff.c **** /*-----------------------------------------------------------------------*/
1761:Core/FatFs/Src/ff.c **** 
1762:Core/FatFs/Src/ff.c **** static FRESULT dir_next (	/* FR_OK(0):succeeded, FR_NO_FILE:End of table, FR_DENIED:Could not stret
1763:Core/FatFs/Src/ff.c **** 	DIR* dp,				/* Pointer to the directory object */
1764:Core/FatFs/Src/ff.c **** 	int stretch				/* 0: Do not stretch table, 1: Stretch table if needed */
1765:Core/FatFs/Src/ff.c **** )
1766:Core/FatFs/Src/ff.c **** {
1767:Core/FatFs/Src/ff.c **** 	DWORD ofs, clst;
1768:Core/FatFs/Src/ff.c **** 	FATFS *fs = dp->obj.fs;
1769:Core/FatFs/Src/ff.c **** 
1770:Core/FatFs/Src/ff.c **** 
1771:Core/FatFs/Src/ff.c **** 	ofs = dp->dptr + SZDIRE;	/* Next entry */
1772:Core/FatFs/Src/ff.c **** 	if (ofs >= (DWORD)((FF_FS_EXFAT && fs->fs_type == FS_EXFAT) ? MAX_DIR_EX : MAX_DIR)) dp->sect = 0;
1773:Core/FatFs/Src/ff.c **** 	if (dp->sect == 0) return FR_NO_FILE;	/* Report EOT if it has been disabled */
1774:Core/FatFs/Src/ff.c **** 
1775:Core/FatFs/Src/ff.c **** 	if (ofs % SS(fs) == 0) {	/* Sector changed? */
1776:Core/FatFs/Src/ff.c **** 		dp->sect++;				/* Next sector */
1777:Core/FatFs/Src/ff.c **** 
1778:Core/FatFs/Src/ff.c **** 		if (dp->clust == 0) {	/* Static table */
1779:Core/FatFs/Src/ff.c **** 			if (ofs / SZDIRE >= fs->n_rootdir) {	/* Report EOT if it reached end of static table */
1780:Core/FatFs/Src/ff.c **** 				dp->sect = 0; return FR_NO_FILE;
1781:Core/FatFs/Src/ff.c **** 			}
1782:Core/FatFs/Src/ff.c **** 		}
1783:Core/FatFs/Src/ff.c **** 		else {					/* Dynamic table */
1784:Core/FatFs/Src/ff.c **** 			if ((ofs / SS(fs) & (fs->csize - 1)) == 0) {	/* Cluster changed? */
1785:Core/FatFs/Src/ff.c **** 				clst = get_fat(&dp->obj, dp->clust);		/* Get next cluster */
1786:Core/FatFs/Src/ff.c **** 				if (clst <= 1) return FR_INT_ERR;			/* Internal error */
1787:Core/FatFs/Src/ff.c **** 				if (clst == 0xFFFFFFFF) return FR_DISK_ERR;	/* Disk error */
1788:Core/FatFs/Src/ff.c **** 				if (clst >= fs->n_fatent) {					/* It reached end of dynamic table */
1789:Core/FatFs/Src/ff.c **** #if !FF_FS_READONLY
1790:Core/FatFs/Src/ff.c **** 					if (!stretch) {								/* If no stretch, report EOT */
1791:Core/FatFs/Src/ff.c **** 						dp->sect = 0; return FR_NO_FILE;
1792:Core/FatFs/Src/ff.c **** 					}
1793:Core/FatFs/Src/ff.c **** 					clst = create_chain(&dp->obj, dp->clust);	/* Allocate a cluster */
1794:Core/FatFs/Src/ff.c **** 					if (clst == 0) return FR_DENIED;			/* No free cluster */
1795:Core/FatFs/Src/ff.c **** 					if (clst == 1) return FR_INT_ERR;			/* Internal error */
1796:Core/FatFs/Src/ff.c **** 					if (clst == 0xFFFFFFFF) return FR_DISK_ERR;	/* Disk error */
1797:Core/FatFs/Src/ff.c **** 					if (dir_clear(fs, clst) != FR_OK) return FR_DISK_ERR;	/* Clean up the stretched table */
1798:Core/FatFs/Src/ff.c **** 					if (FF_FS_EXFAT) dp->obj.stat |= 4;			/* exFAT: The directory has been stretched */
1799:Core/FatFs/Src/ff.c **** #else
1800:Core/FatFs/Src/ff.c **** 					if (!stretch) dp->sect = 0;					/* (this line is to suppress compiler warning) */
ARM GAS  C:\Users\84759\AppData\Local\Temp\cc0twHqK.s 			page 47


1801:Core/FatFs/Src/ff.c **** 					dp->sect = 0; return FR_NO_FILE;			/* Report EOT */
1802:Core/FatFs/Src/ff.c **** #endif
1803:Core/FatFs/Src/ff.c **** 				}
1804:Core/FatFs/Src/ff.c **** 				dp->clust = clst;		/* Initialize data for new cluster */
1805:Core/FatFs/Src/ff.c **** 				dp->sect = clst2sect(fs, clst);
1806:Core/FatFs/Src/ff.c **** 			}
1807:Core/FatFs/Src/ff.c **** 		}
1808:Core/FatFs/Src/ff.c **** 	}
1809:Core/FatFs/Src/ff.c **** 	dp->dptr = ofs;						/* Current entry */
1810:Core/FatFs/Src/ff.c **** 	dp->dir = fs->win + ofs % SS(fs);	/* Pointer to the entry in the win[] */
1811:Core/FatFs/Src/ff.c **** 
1812:Core/FatFs/Src/ff.c **** 	return FR_OK;
1813:Core/FatFs/Src/ff.c **** }
1814:Core/FatFs/Src/ff.c **** 
1815:Core/FatFs/Src/ff.c **** 
1816:Core/FatFs/Src/ff.c **** 
1817:Core/FatFs/Src/ff.c **** 
1818:Core/FatFs/Src/ff.c **** #if !FF_FS_READONLY
1819:Core/FatFs/Src/ff.c **** /*-----------------------------------------------------------------------*/
1820:Core/FatFs/Src/ff.c **** /* Directory handling - Reserve a block of directory entries             */
1821:Core/FatFs/Src/ff.c **** /*-----------------------------------------------------------------------*/
1822:Core/FatFs/Src/ff.c **** 
1823:Core/FatFs/Src/ff.c **** static FRESULT dir_alloc (	/* FR_OK(0):succeeded, !=0:error */
1824:Core/FatFs/Src/ff.c **** 	DIR* dp,				/* Pointer to the directory object */
1825:Core/FatFs/Src/ff.c **** 	UINT n_ent				/* Number of contiguous entries to allocate */
1826:Core/FatFs/Src/ff.c **** )
1827:Core/FatFs/Src/ff.c **** {
1828:Core/FatFs/Src/ff.c **** 	FRESULT res;
1829:Core/FatFs/Src/ff.c **** 	UINT n;
1830:Core/FatFs/Src/ff.c **** 	FATFS *fs = dp->obj.fs;
1831:Core/FatFs/Src/ff.c **** 
1832:Core/FatFs/Src/ff.c **** 
1833:Core/FatFs/Src/ff.c **** 	res = dir_sdi(dp, 0);
1834:Core/FatFs/Src/ff.c **** 	if (res == FR_OK) {
1835:Core/FatFs/Src/ff.c **** 		n = 0;
1836:Core/FatFs/Src/ff.c **** 		do {
1837:Core/FatFs/Src/ff.c **** 			res = move_window(fs, dp->sect);
1838:Core/FatFs/Src/ff.c **** 			if (res != FR_OK) break;
1839:Core/FatFs/Src/ff.c **** #if FF_FS_EXFAT
1840:Core/FatFs/Src/ff.c **** 			if ((fs->fs_type == FS_EXFAT) ? (int)((dp->dir[XDIR_Type] & 0x80) == 0) : (int)(dp->dir[DIR_Name
1841:Core/FatFs/Src/ff.c **** #else
1842:Core/FatFs/Src/ff.c **** 			if (dp->dir[DIR_Name] == DDEM || dp->dir[DIR_Name] == 0) {	/* Is the entry free? */
1843:Core/FatFs/Src/ff.c **** #endif
1844:Core/FatFs/Src/ff.c **** 				if (++n == n_ent) break;	/* Is a block of contiguous free entries found? */
1845:Core/FatFs/Src/ff.c **** 			} else {
1846:Core/FatFs/Src/ff.c **** 				n = 0;				/* Not a free entry, restart to search */
1847:Core/FatFs/Src/ff.c **** 			}
1848:Core/FatFs/Src/ff.c **** 			res = dir_next(dp, 1);	/* Next entry with table stretch enabled */
1849:Core/FatFs/Src/ff.c **** 		} while (res == FR_OK);
1850:Core/FatFs/Src/ff.c **** 	}
1851:Core/FatFs/Src/ff.c **** 
1852:Core/FatFs/Src/ff.c **** 	if (res == FR_NO_FILE) res = FR_DENIED;	/* No directory entry to allocate */
1853:Core/FatFs/Src/ff.c **** 	return res;
1854:Core/FatFs/Src/ff.c **** }
1855:Core/FatFs/Src/ff.c **** 
1856:Core/FatFs/Src/ff.c **** #endif	/* !FF_FS_READONLY */
1857:Core/FatFs/Src/ff.c **** 
ARM GAS  C:\Users\84759\AppData\Local\Temp\cc0twHqK.s 			page 48


1858:Core/FatFs/Src/ff.c **** 
1859:Core/FatFs/Src/ff.c **** 
1860:Core/FatFs/Src/ff.c **** 
1861:Core/FatFs/Src/ff.c **** /*-----------------------------------------------------------------------*/
1862:Core/FatFs/Src/ff.c **** /* FAT: Directory handling - Load/Store start cluster number             */
1863:Core/FatFs/Src/ff.c **** /*-----------------------------------------------------------------------*/
1864:Core/FatFs/Src/ff.c **** 
1865:Core/FatFs/Src/ff.c **** static DWORD ld_clust (	/* Returns the top cluster value of the SFN entry */
1866:Core/FatFs/Src/ff.c **** 	FATFS* fs,			/* Pointer to the fs object */
1867:Core/FatFs/Src/ff.c **** 	const BYTE* dir		/* Pointer to the key entry */
1868:Core/FatFs/Src/ff.c **** )
1869:Core/FatFs/Src/ff.c **** {
 769              		.loc 1 1869 1 is_stmt 1 view -0
 770              		.cfi_startproc
 771              		@ args = 0, pretend = 0, frame = 0
 772              		@ frame_needed = 0, uses_anonymous_args = 0
 773              		.loc 1 1869 1 is_stmt 0 view .LVU259
 774 0000 70B5     		push	{r4, r5, r6, lr}
 775              	.LCFI1:
 776              		.cfi_def_cfa_offset 16
 777              		.cfi_offset 4, -16
 778              		.cfi_offset 5, -12
 779              		.cfi_offset 6, -8
 780              		.cfi_offset 14, -4
 781 0002 0646     		mov	r6, r0
 782 0004 0D46     		mov	r5, r1
1870:Core/FatFs/Src/ff.c **** 	DWORD cl;
 783              		.loc 1 1870 2 is_stmt 1 view .LVU260
1871:Core/FatFs/Src/ff.c **** 
1872:Core/FatFs/Src/ff.c **** 	cl = ld_16(dir + DIR_FstClusLO);
 784              		.loc 1 1872 2 view .LVU261
 785              		.loc 1 1872 7 is_stmt 0 view .LVU262
 786 0006 01F11A00 		add	r0, r1, #26
 787              	.LVL106:
 788              		.loc 1 1872 7 view .LVU263
 789 000a FFF7FEFF 		bl	ld_16
 790              	.LVL107:
1873:Core/FatFs/Src/ff.c **** 	if (fs->fs_type == FS_FAT32) {
 791              		.loc 1 1873 2 is_stmt 1 view .LVU264
 792              		.loc 1 1873 8 is_stmt 0 view .LVU265
 793 000e 3378     		ldrb	r3, [r6]	@ zero_extendqisi2
 794              		.loc 1 1873 5 view .LVU266
 795 0010 032B     		cmp	r3, #3
 796 0012 00D0     		beq	.L56
 797              	.LVL108:
 798              	.L53:
1874:Core/FatFs/Src/ff.c **** 		cl |= (DWORD)ld_16(dir + DIR_FstClusHI) << 16;
1875:Core/FatFs/Src/ff.c **** 	}
1876:Core/FatFs/Src/ff.c **** 
1877:Core/FatFs/Src/ff.c **** 	return cl;
1878:Core/FatFs/Src/ff.c **** }
 799              		.loc 1 1878 1 view .LVU267
 800 0014 70BD     		pop	{r4, r5, r6, pc}
 801              	.LVL109:
 802              	.L56:
 803              		.loc 1 1878 1 view .LVU268
 804 0016 0446     		mov	r4, r0
ARM GAS  C:\Users\84759\AppData\Local\Temp\cc0twHqK.s 			page 49


1874:Core/FatFs/Src/ff.c **** 		cl |= (DWORD)ld_16(dir + DIR_FstClusHI) << 16;
 805              		.loc 1 1874 3 is_stmt 1 view .LVU269
1874:Core/FatFs/Src/ff.c **** 		cl |= (DWORD)ld_16(dir + DIR_FstClusHI) << 16;
 806              		.loc 1 1874 16 is_stmt 0 view .LVU270
 807 0018 05F11400 		add	r0, r5, #20
 808              	.LVL110:
1874:Core/FatFs/Src/ff.c **** 		cl |= (DWORD)ld_16(dir + DIR_FstClusHI) << 16;
 809              		.loc 1 1874 16 view .LVU271
 810 001c FFF7FEFF 		bl	ld_16
 811              	.LVL111:
1874:Core/FatFs/Src/ff.c **** 		cl |= (DWORD)ld_16(dir + DIR_FstClusHI) << 16;
 812              		.loc 1 1874 6 view .LVU272
 813 0020 44EA0040 		orr	r0, r4, r0, lsl #16
 814              	.LVL112:
1877:Core/FatFs/Src/ff.c **** }
 815              		.loc 1 1877 2 is_stmt 1 view .LVU273
1877:Core/FatFs/Src/ff.c **** }
 816              		.loc 1 1877 9 is_stmt 0 view .LVU274
 817 0024 F6E7     		b	.L53
 818              		.cfi_endproc
 819              	.LFE20:
 821              		.section	.text.st_clust,"ax",%progbits
 822              		.align	1
 823              		.syntax unified
 824              		.thumb
 825              		.thumb_func
 827              	st_clust:
 828              	.LVL113:
 829              	.LFB21:
1879:Core/FatFs/Src/ff.c **** 
1880:Core/FatFs/Src/ff.c **** 
1881:Core/FatFs/Src/ff.c **** #if !FF_FS_READONLY
1882:Core/FatFs/Src/ff.c **** static void st_clust (
1883:Core/FatFs/Src/ff.c **** 	FATFS* fs,	/* Pointer to the fs object */
1884:Core/FatFs/Src/ff.c **** 	BYTE* dir,	/* Pointer to the key entry */
1885:Core/FatFs/Src/ff.c **** 	DWORD cl	/* Value to be set */
1886:Core/FatFs/Src/ff.c **** )
1887:Core/FatFs/Src/ff.c **** {
 830              		.loc 1 1887 1 is_stmt 1 view -0
 831              		.cfi_startproc
 832              		@ args = 0, pretend = 0, frame = 0
 833              		@ frame_needed = 0, uses_anonymous_args = 0
 834              		.loc 1 1887 1 is_stmt 0 view .LVU276
 835 0000 70B5     		push	{r4, r5, r6, lr}
 836              	.LCFI2:
 837              		.cfi_def_cfa_offset 16
 838              		.cfi_offset 4, -16
 839              		.cfi_offset 5, -12
 840              		.cfi_offset 6, -8
 841              		.cfi_offset 14, -4
 842 0002 0646     		mov	r6, r0
 843 0004 0C46     		mov	r4, r1
 844 0006 1546     		mov	r5, r2
1888:Core/FatFs/Src/ff.c **** 	st_16(dir + DIR_FstClusLO, (WORD)cl);
 845              		.loc 1 1888 2 is_stmt 1 view .LVU277
 846 0008 91B2     		uxth	r1, r2
 847              	.LVL114:
ARM GAS  C:\Users\84759\AppData\Local\Temp\cc0twHqK.s 			page 50


 848              		.loc 1 1888 2 is_stmt 0 view .LVU278
 849 000a 04F11A00 		add	r0, r4, #26
 850              	.LVL115:
 851              		.loc 1 1888 2 view .LVU279
 852 000e FFF7FEFF 		bl	st_16
 853              	.LVL116:
1889:Core/FatFs/Src/ff.c **** 	if (fs->fs_type == FS_FAT32) {
 854              		.loc 1 1889 2 is_stmt 1 view .LVU280
 855              		.loc 1 1889 8 is_stmt 0 view .LVU281
 856 0012 3378     		ldrb	r3, [r6]	@ zero_extendqisi2
 857              		.loc 1 1889 5 view .LVU282
 858 0014 032B     		cmp	r3, #3
 859 0016 00D0     		beq	.L60
 860              	.L57:
1890:Core/FatFs/Src/ff.c **** 		st_16(dir + DIR_FstClusHI, (WORD)(cl >> 16));
1891:Core/FatFs/Src/ff.c **** 	}
1892:Core/FatFs/Src/ff.c **** }
 861              		.loc 1 1892 1 view .LVU283
 862 0018 70BD     		pop	{r4, r5, r6, pc}
 863              	.LVL117:
 864              	.L60:
1890:Core/FatFs/Src/ff.c **** 		st_16(dir + DIR_FstClusHI, (WORD)(cl >> 16));
 865              		.loc 1 1890 3 is_stmt 1 view .LVU284
 866 001a 290C     		lsrs	r1, r5, #16
 867 001c 04F11400 		add	r0, r4, #20
 868 0020 FFF7FEFF 		bl	st_16
 869              	.LVL118:
 870              		.loc 1 1892 1 is_stmt 0 view .LVU285
 871 0024 F8E7     		b	.L57
 872              		.cfi_endproc
 873              	.LFE21:
 875              		.section	.text.pick_lfn,"ax",%progbits
 876              		.align	1
 877              		.syntax unified
 878              		.thumb
 879              		.thumb_func
 881              	pick_lfn:
 882              	.LVL119:
 883              	.LFB23:
1893:Core/FatFs/Src/ff.c **** #endif
1894:Core/FatFs/Src/ff.c **** 
1895:Core/FatFs/Src/ff.c **** 
1896:Core/FatFs/Src/ff.c **** 
1897:Core/FatFs/Src/ff.c **** #if FF_USE_LFN
1898:Core/FatFs/Src/ff.c **** /*--------------------------------------------------------*/
1899:Core/FatFs/Src/ff.c **** /* FAT-LFN: Compare a part of file name with an LFN entry */
1900:Core/FatFs/Src/ff.c **** /*--------------------------------------------------------*/
1901:Core/FatFs/Src/ff.c **** 
1902:Core/FatFs/Src/ff.c **** static int cmp_lfn (		/* 1:matched, 0:not matched */
1903:Core/FatFs/Src/ff.c **** 	const WCHAR* lfnbuf,	/* Pointer to the LFN to be compared */
1904:Core/FatFs/Src/ff.c **** 	BYTE* dir				/* Pointer to the LFN entry */
1905:Core/FatFs/Src/ff.c **** )
1906:Core/FatFs/Src/ff.c **** {
1907:Core/FatFs/Src/ff.c **** 	UINT ni, di;
1908:Core/FatFs/Src/ff.c **** 	WCHAR pchr, chr;
1909:Core/FatFs/Src/ff.c **** 
1910:Core/FatFs/Src/ff.c **** 
ARM GAS  C:\Users\84759\AppData\Local\Temp\cc0twHqK.s 			page 51


1911:Core/FatFs/Src/ff.c **** 	if (ld_16(dir + LDIR_FstClusLO) != 0) return 0;	/* Check if LDIR_FstClusLO is 0 */
1912:Core/FatFs/Src/ff.c **** 
1913:Core/FatFs/Src/ff.c **** 	ni = (UINT)((dir[LDIR_Ord] & 0x3F) - 1) * 13;	/* Offset in the name to be compared */
1914:Core/FatFs/Src/ff.c **** 
1915:Core/FatFs/Src/ff.c **** 	for (pchr = 1, di = 0; di < 13; di++) {	/* Process all characters in the entry */
1916:Core/FatFs/Src/ff.c **** 		chr = ld_16(dir + LfnOfs[di]);		/* Pick a character from the entry */
1917:Core/FatFs/Src/ff.c **** 		if (pchr != 0) {
1918:Core/FatFs/Src/ff.c **** 			if (ni >= FF_MAX_LFN + 1 || ff_wtoupper(chr) != ff_wtoupper(lfnbuf[ni++])) {	/* Compare it with 
1919:Core/FatFs/Src/ff.c **** 				return 0;					/* Not matched */
1920:Core/FatFs/Src/ff.c **** 			}
1921:Core/FatFs/Src/ff.c **** 			pchr = chr;
1922:Core/FatFs/Src/ff.c **** 		} else {
1923:Core/FatFs/Src/ff.c **** 			if (chr != 0xFFFF) return 0;	/* Check filler */
1924:Core/FatFs/Src/ff.c **** 		}
1925:Core/FatFs/Src/ff.c **** 	}
1926:Core/FatFs/Src/ff.c **** 
1927:Core/FatFs/Src/ff.c **** 	if ((dir[LDIR_Ord] & LLEF) && pchr && lfnbuf[ni]) return 0;	/* Last name segment matched but diffe
1928:Core/FatFs/Src/ff.c **** 
1929:Core/FatFs/Src/ff.c **** 	return 1;		/* The part of LFN matched */
1930:Core/FatFs/Src/ff.c **** }
1931:Core/FatFs/Src/ff.c **** 
1932:Core/FatFs/Src/ff.c **** 
1933:Core/FatFs/Src/ff.c **** #if FF_FS_MINIMIZE <= 1 || FF_FS_RPATH >= 2 || FF_USE_LABEL || FF_FS_EXFAT
1934:Core/FatFs/Src/ff.c **** /*-----------------------------------------------------*/
1935:Core/FatFs/Src/ff.c **** /* FAT-LFN: Pick a part of file name from an LFN entry */
1936:Core/FatFs/Src/ff.c **** /*-----------------------------------------------------*/
1937:Core/FatFs/Src/ff.c **** 
1938:Core/FatFs/Src/ff.c **** static int pick_lfn (	/* 1:succeeded, 0:buffer overflow or invalid LFN entry */
1939:Core/FatFs/Src/ff.c **** 	WCHAR* lfnbuf,		/* Pointer to the name buffer to be stored */
1940:Core/FatFs/Src/ff.c **** 	const BYTE* dir		/* Pointer to the LFN entry */
1941:Core/FatFs/Src/ff.c **** )
1942:Core/FatFs/Src/ff.c **** {
 884              		.loc 1 1942 1 is_stmt 1 view -0
 885              		.cfi_startproc
 886              		@ args = 0, pretend = 0, frame = 0
 887              		@ frame_needed = 0, uses_anonymous_args = 0
 888              		.loc 1 1942 1 is_stmt 0 view .LVU287
 889 0000 2DE9F041 		push	{r4, r5, r6, r7, r8, lr}
 890              	.LCFI3:
 891              		.cfi_def_cfa_offset 24
 892              		.cfi_offset 4, -24
 893              		.cfi_offset 5, -20
 894              		.cfi_offset 6, -16
 895              		.cfi_offset 7, -12
 896              		.cfi_offset 8, -8
 897              		.cfi_offset 14, -4
 898 0004 8046     		mov	r8, r0
 899 0006 0E46     		mov	r6, r1
1943:Core/FatFs/Src/ff.c **** 	UINT ni, di;
 900              		.loc 1 1943 2 is_stmt 1 view .LVU288
1944:Core/FatFs/Src/ff.c **** 	WCHAR pchr, chr;
 901              		.loc 1 1944 2 view .LVU289
1945:Core/FatFs/Src/ff.c **** 
1946:Core/FatFs/Src/ff.c **** 
1947:Core/FatFs/Src/ff.c **** 	if (ld_16(dir + LDIR_FstClusLO) != 0) return 0;	/* Check if LDIR_FstClusLO is 0 */
 902              		.loc 1 1947 2 view .LVU290
 903              		.loc 1 1947 6 is_stmt 0 view .LVU291
ARM GAS  C:\Users\84759\AppData\Local\Temp\cc0twHqK.s 			page 52


 904 0008 01F11A00 		add	r0, r1, #26
 905              	.LVL120:
 906              		.loc 1 1947 6 view .LVU292
 907 000c FFF7FEFF 		bl	ld_16
 908              	.LVL121:
 909              		.loc 1 1947 5 view .LVU293
 910 0010 58BB     		cbnz	r0, .L67
1948:Core/FatFs/Src/ff.c **** 
1949:Core/FatFs/Src/ff.c **** 	ni = (UINT)((dir[LDIR_Ord] & ~LLEF) - 1) * 13;	/* Offset in the name buffer */
 911              		.loc 1 1949 2 is_stmt 1 view .LVU294
 912              		.loc 1 1949 18 is_stmt 0 view .LVU295
 913 0012 3578     		ldrb	r5, [r6]	@ zero_extendqisi2
 914              		.loc 1 1949 29 view .LVU296
 915 0014 25F04005 		bic	r5, r5, #64
 916              		.loc 1 1949 38 view .LVU297
 917 0018 013D     		subs	r5, r5, #1
 918              		.loc 1 1949 5 view .LVU298
 919 001a 05EB4503 		add	r3, r5, r5, lsl #1
 920 001e 05EB8305 		add	r5, r5, r3, lsl #2
 921              	.LVL122:
1950:Core/FatFs/Src/ff.c **** 
1951:Core/FatFs/Src/ff.c **** 	for (pchr = 1, di = 0; di < 13; di++) {		/* Process all characters in the entry */
 922              		.loc 1 1951 2 is_stmt 1 view .LVU299
 923              		.loc 1 1951 12 is_stmt 0 view .LVU300
 924 0022 0127     		movs	r7, #1
 925              		.loc 1 1951 20 view .LVU301
 926 0024 0024     		movs	r4, #0
 927              		.loc 1 1951 2 view .LVU302
 928 0026 04E0     		b	.L63
 929              	.LVL123:
 930              	.L64:
1952:Core/FatFs/Src/ff.c **** 		chr = ld_16(dir + LfnOfs[di]);			/* Pick a character from the entry */
1953:Core/FatFs/Src/ff.c **** 		if (pchr != 0) {
1954:Core/FatFs/Src/ff.c **** 			if (ni >= FF_MAX_LFN + 1) return 0;	/* Buffer overflow? */
1955:Core/FatFs/Src/ff.c **** 			lfnbuf[ni++] = pchr = chr;			/* Store it */
1956:Core/FatFs/Src/ff.c **** 		} else {
1957:Core/FatFs/Src/ff.c **** 			if (chr != 0xFFFF) return 0;		/* Check filler */
 931              		.loc 1 1957 4 is_stmt 1 view .LVU303
 932              		.loc 1 1957 7 is_stmt 0 view .LVU304
 933 0028 4FF6FF73 		movw	r3, #65535
 934 002c 9842     		cmp	r0, r3
 935 002e 21D1     		bne	.L69
 936              	.LVL124:
 937              	.L65:
1951:Core/FatFs/Src/ff.c **** 		chr = ld_16(dir + LfnOfs[di]);			/* Pick a character from the entry */
 938              		.loc 1 1951 34 is_stmt 1 discriminator 2 view .LVU305
1951:Core/FatFs/Src/ff.c **** 		chr = ld_16(dir + LfnOfs[di]);			/* Pick a character from the entry */
 939              		.loc 1 1951 36 is_stmt 0 discriminator 2 view .LVU306
 940 0030 0134     		adds	r4, r4, #1
 941              	.LVL125:
 942              	.L63:
1951:Core/FatFs/Src/ff.c **** 		chr = ld_16(dir + LfnOfs[di]);			/* Pick a character from the entry */
 943              		.loc 1 1951 25 is_stmt 1 discriminator 1 view .LVU307
1951:Core/FatFs/Src/ff.c **** 		chr = ld_16(dir + LfnOfs[di]);			/* Pick a character from the entry */
 944              		.loc 1 1951 2 is_stmt 0 discriminator 1 view .LVU308
 945 0032 0C2C     		cmp	r4, #12
 946 0034 0DD8     		bhi	.L74
ARM GAS  C:\Users\84759\AppData\Local\Temp\cc0twHqK.s 			page 53


1952:Core/FatFs/Src/ff.c **** 		chr = ld_16(dir + LfnOfs[di]);			/* Pick a character from the entry */
 947              		.loc 1 1952 3 is_stmt 1 view .LVU309
1952:Core/FatFs/Src/ff.c **** 		chr = ld_16(dir + LfnOfs[di]);			/* Pick a character from the entry */
 948              		.loc 1 1952 27 is_stmt 0 view .LVU310
 949 0036 134B     		ldr	r3, .L75
 950 0038 185D     		ldrb	r0, [r3, r4]	@ zero_extendqisi2
1952:Core/FatFs/Src/ff.c **** 		chr = ld_16(dir + LfnOfs[di]);			/* Pick a character from the entry */
 951              		.loc 1 1952 9 view .LVU311
 952 003a 3044     		add	r0, r0, r6
 953 003c FFF7FEFF 		bl	ld_16
 954              	.LVL126:
1953:Core/FatFs/Src/ff.c **** 			if (ni >= FF_MAX_LFN + 1) return 0;	/* Buffer overflow? */
 955              		.loc 1 1953 3 is_stmt 1 view .LVU312
1953:Core/FatFs/Src/ff.c **** 			if (ni >= FF_MAX_LFN + 1) return 0;	/* Buffer overflow? */
 956              		.loc 1 1953 6 is_stmt 0 view .LVU313
 957 0040 002F     		cmp	r7, #0
 958 0042 F1D0     		beq	.L64
1954:Core/FatFs/Src/ff.c **** 			lfnbuf[ni++] = pchr = chr;			/* Store it */
 959              		.loc 1 1954 4 is_stmt 1 view .LVU314
1954:Core/FatFs/Src/ff.c **** 			lfnbuf[ni++] = pchr = chr;			/* Store it */
 960              		.loc 1 1954 7 is_stmt 0 view .LVU315
 961 0044 FF2D     		cmp	r5, #255
 962 0046 13D8     		bhi	.L68
1955:Core/FatFs/Src/ff.c **** 		} else {
 963              		.loc 1 1955 4 is_stmt 1 view .LVU316
 964              	.LVL127:
1955:Core/FatFs/Src/ff.c **** 		} else {
 965              		.loc 1 1955 17 is_stmt 0 view .LVU317
 966 0048 28F81500 		strh	r0, [r8, r5, lsl #1]	@ movhi
1955:Core/FatFs/Src/ff.c **** 		} else {
 967              		.loc 1 1955 24 view .LVU318
 968 004c 0746     		mov	r7, r0
1955:Core/FatFs/Src/ff.c **** 		} else {
 969              		.loc 1 1955 13 view .LVU319
 970 004e 0135     		adds	r5, r5, #1
 971              	.LVL128:
1955:Core/FatFs/Src/ff.c **** 		} else {
 972              		.loc 1 1955 13 view .LVU320
 973 0050 EEE7     		b	.L65
 974              	.LVL129:
 975              	.L74:
1958:Core/FatFs/Src/ff.c **** 		}
1959:Core/FatFs/Src/ff.c **** 	}
1960:Core/FatFs/Src/ff.c **** 
1961:Core/FatFs/Src/ff.c **** 	if (dir[LDIR_Ord] & LLEF && pchr != 0) {	/* Put terminator if it is the last LFN part and not term
 976              		.loc 1 1961 2 is_stmt 1 view .LVU321
 977              		.loc 1 1961 9 is_stmt 0 view .LVU322
 978 0052 3378     		ldrb	r3, [r6]	@ zero_extendqisi2
 979              		.loc 1 1961 5 view .LVU323
 980 0054 13F0400F 		tst	r3, #64
 981 0058 0ED0     		beq	.L70
 982              		.loc 1 1961 27 discriminator 1 view .LVU324
 983 005a 7FB1     		cbz	r7, .L71
1962:Core/FatFs/Src/ff.c **** 		if (ni >= FF_MAX_LFN + 1) return 0;		/* Buffer overflow? */
 984              		.loc 1 1962 3 is_stmt 1 view .LVU325
 985              		.loc 1 1962 6 is_stmt 0 view .LVU326
 986 005c FF2D     		cmp	r5, #255
ARM GAS  C:\Users\84759\AppData\Local\Temp\cc0twHqK.s 			page 54


 987 005e 0FD8     		bhi	.L72
1963:Core/FatFs/Src/ff.c **** 		lfnbuf[ni] = 0;
 988              		.loc 1 1963 3 is_stmt 1 view .LVU327
 989              		.loc 1 1963 14 is_stmt 0 view .LVU328
 990 0060 0023     		movs	r3, #0
 991 0062 28F81530 		strh	r3, [r8, r5, lsl #1]	@ movhi
1964:Core/FatFs/Src/ff.c **** 	}
1965:Core/FatFs/Src/ff.c **** 
1966:Core/FatFs/Src/ff.c **** 	return 1;		/* The part of LFN is valid */
 992              		.loc 1 1966 9 view .LVU329
 993 0066 0120     		movs	r0, #1
 994 0068 00E0     		b	.L61
 995              	.LVL130:
 996              	.L67:
1947:Core/FatFs/Src/ff.c **** 
 997              		.loc 1 1947 47 view .LVU330
 998 006a 0020     		movs	r0, #0
 999              	.L61:
1967:Core/FatFs/Src/ff.c **** }
 1000              		.loc 1 1967 1 view .LVU331
 1001 006c BDE8F081 		pop	{r4, r5, r6, r7, r8, pc}
 1002              	.LVL131:
 1003              	.L68:
1954:Core/FatFs/Src/ff.c **** 			lfnbuf[ni++] = pchr = chr;			/* Store it */
 1004              		.loc 1 1954 37 view .LVU332
 1005 0070 0020     		movs	r0, #0
 1006              	.LVL132:
1954:Core/FatFs/Src/ff.c **** 			lfnbuf[ni++] = pchr = chr;			/* Store it */
 1007              		.loc 1 1954 37 view .LVU333
 1008 0072 FBE7     		b	.L61
 1009              	.LVL133:
 1010              	.L69:
1957:Core/FatFs/Src/ff.c **** 		}
 1011              		.loc 1 1957 30 view .LVU334
 1012 0074 0020     		movs	r0, #0
 1013              	.LVL134:
1957:Core/FatFs/Src/ff.c **** 		}
 1014              		.loc 1 1957 30 view .LVU335
 1015 0076 F9E7     		b	.L61
 1016              	.L70:
1966:Core/FatFs/Src/ff.c **** }
 1017              		.loc 1 1966 9 view .LVU336
 1018 0078 0120     		movs	r0, #1
 1019 007a F7E7     		b	.L61
 1020              	.L71:
 1021 007c 0120     		movs	r0, #1
 1022 007e F5E7     		b	.L61
 1023              	.L72:
1962:Core/FatFs/Src/ff.c **** 		lfnbuf[ni] = 0;
 1024              		.loc 1 1962 36 view .LVU337
 1025 0080 0020     		movs	r0, #0
 1026 0082 F3E7     		b	.L61
 1027              	.L76:
 1028              		.align	2
 1029              	.L75:
 1030 0084 00000000 		.word	.LANCHOR0
 1031              		.cfi_endproc
ARM GAS  C:\Users\84759\AppData\Local\Temp\cc0twHqK.s 			page 55


 1032              	.LFE23:
 1034              		.section	.text.put_lfn,"ax",%progbits
 1035              		.align	1
 1036              		.syntax unified
 1037              		.thumb
 1038              		.thumb_func
 1040              	put_lfn:
 1041              	.LVL135:
 1042              	.LFB24:
1968:Core/FatFs/Src/ff.c **** #endif
1969:Core/FatFs/Src/ff.c **** 
1970:Core/FatFs/Src/ff.c **** 
1971:Core/FatFs/Src/ff.c **** #if !FF_FS_READONLY
1972:Core/FatFs/Src/ff.c **** /*-----------------------------------------*/
1973:Core/FatFs/Src/ff.c **** /* FAT-LFN: Create an entry of LFN entries */
1974:Core/FatFs/Src/ff.c **** /*-----------------------------------------*/
1975:Core/FatFs/Src/ff.c **** 
1976:Core/FatFs/Src/ff.c **** static void put_lfn (
1977:Core/FatFs/Src/ff.c **** 	const WCHAR* lfn,	/* Pointer to the LFN */
1978:Core/FatFs/Src/ff.c **** 	BYTE* dir,			/* Pointer to the LFN entry to be created */
1979:Core/FatFs/Src/ff.c **** 	BYTE ord,			/* LFN order (1-20) */
1980:Core/FatFs/Src/ff.c **** 	BYTE sum			/* Checksum of the corresponding SFN */
1981:Core/FatFs/Src/ff.c **** )
1982:Core/FatFs/Src/ff.c **** {
 1043              		.loc 1 1982 1 is_stmt 1 view -0
 1044              		.cfi_startproc
 1045              		@ args = 0, pretend = 0, frame = 0
 1046              		@ frame_needed = 0, uses_anonymous_args = 0
 1047              		.loc 1 1982 1 is_stmt 0 view .LVU339
 1048 0000 2DE9F843 		push	{r3, r4, r5, r6, r7, r8, r9, lr}
 1049              	.LCFI4:
 1050              		.cfi_def_cfa_offset 32
 1051              		.cfi_offset 3, -32
 1052              		.cfi_offset 4, -28
 1053              		.cfi_offset 5, -24
 1054              		.cfi_offset 6, -20
 1055              		.cfi_offset 7, -16
 1056              		.cfi_offset 8, -12
 1057              		.cfi_offset 9, -8
 1058              		.cfi_offset 14, -4
 1059 0004 8046     		mov	r8, r0
 1060 0006 0F46     		mov	r7, r1
 1061 0008 9146     		mov	r9, r2
1983:Core/FatFs/Src/ff.c **** 	UINT ni, di;
 1062              		.loc 1 1983 2 is_stmt 1 view .LVU340
1984:Core/FatFs/Src/ff.c **** 	WCHAR chr;
 1063              		.loc 1 1984 2 view .LVU341
1985:Core/FatFs/Src/ff.c **** 
1986:Core/FatFs/Src/ff.c **** 
1987:Core/FatFs/Src/ff.c **** 	dir[LDIR_Chksum] = sum;			/* Set checksum */
 1064              		.loc 1 1987 2 view .LVU342
 1065              		.loc 1 1987 19 is_stmt 0 view .LVU343
 1066 000a 4B73     		strb	r3, [r1, #13]
1988:Core/FatFs/Src/ff.c **** 	dir[LDIR_Attr] = AM_LFN;		/* Set attribute */
 1067              		.loc 1 1988 2 is_stmt 1 view .LVU344
 1068              		.loc 1 1988 17 is_stmt 0 view .LVU345
 1069 000c 0F23     		movs	r3, #15
ARM GAS  C:\Users\84759\AppData\Local\Temp\cc0twHqK.s 			page 56


 1070              	.LVL136:
 1071              		.loc 1 1988 17 view .LVU346
 1072 000e CB72     		strb	r3, [r1, #11]
1989:Core/FatFs/Src/ff.c **** 	dir[LDIR_Type] = 0;
 1073              		.loc 1 1989 2 is_stmt 1 view .LVU347
 1074              		.loc 1 1989 17 is_stmt 0 view .LVU348
 1075 0010 0024     		movs	r4, #0
 1076 0012 0C73     		strb	r4, [r1, #12]
1990:Core/FatFs/Src/ff.c **** 	st_16(dir + LDIR_FstClusLO, 0);
 1077              		.loc 1 1990 2 is_stmt 1 view .LVU349
 1078 0014 2146     		mov	r1, r4
 1079              	.LVL137:
 1080              		.loc 1 1990 2 is_stmt 0 view .LVU350
 1081 0016 07F11A00 		add	r0, r7, #26
 1082              	.LVL138:
 1083              		.loc 1 1990 2 view .LVU351
 1084 001a FFF7FEFF 		bl	st_16
 1085              	.LVL139:
1991:Core/FatFs/Src/ff.c **** 
1992:Core/FatFs/Src/ff.c **** 	ni = (UINT)(ord - 1) * 13;		/* Offset in the name */
 1086              		.loc 1 1992 2 is_stmt 1 view .LVU352
 1087              		.loc 1 1992 18 is_stmt 0 view .LVU353
 1088 001e 09F1FF36 		add	r6, r9, #-1
 1089              		.loc 1 1992 5 view .LVU354
 1090 0022 06EB4603 		add	r3, r6, r6, lsl #1
 1091 0026 06EB8306 		add	r6, r6, r3, lsl #2
 1092              	.LVL140:
1993:Core/FatFs/Src/ff.c **** 	di = chr = 0;
 1093              		.loc 1 1993 2 is_stmt 1 view .LVU355
 1094              		.loc 1 1993 11 is_stmt 0 view .LVU356
 1095 002a 2546     		mov	r5, r4
 1096 002c 02E0     		b	.L80
 1097              	.LVL141:
 1098              	.L79:
1994:Core/FatFs/Src/ff.c **** 	do {	/* Fill the directory entry */
1995:Core/FatFs/Src/ff.c **** 		if (chr != 0xFFFF) chr = lfn[ni++];	/* Get an effective character */
1996:Core/FatFs/Src/ff.c **** 		st_16(dir + LfnOfs[di], chr);	/* Set it */
1997:Core/FatFs/Src/ff.c **** 		if (chr == 0) chr = 0xFFFF;		/* Padding characters after the terminator */
1998:Core/FatFs/Src/ff.c **** 	} while (++di < 13);
 1099              		.loc 1 1998 10 is_stmt 1 view .LVU357
 1100              		.loc 1 1998 2 is_stmt 0 view .LVU358
 1101 002e 0134     		adds	r4, r4, #1
 1102              	.LVL142:
 1103              		.loc 1 1998 2 view .LVU359
 1104 0030 0C2C     		cmp	r4, #12
 1105 0032 11D8     		bhi	.L85
 1106              	.LVL143:
 1107              	.L80:
1994:Core/FatFs/Src/ff.c **** 	do {	/* Fill the directory entry */
 1108              		.loc 1 1994 2 is_stmt 1 view .LVU360
1995:Core/FatFs/Src/ff.c **** 		st_16(dir + LfnOfs[di], chr);	/* Set it */
 1109              		.loc 1 1995 3 view .LVU361
1995:Core/FatFs/Src/ff.c **** 		st_16(dir + LfnOfs[di], chr);	/* Set it */
 1110              		.loc 1 1995 6 is_stmt 0 view .LVU362
 1111 0034 4FF6FF73 		movw	r3, #65535
 1112 0038 9D42     		cmp	r5, r3
 1113 003a 02D0     		beq	.L78
ARM GAS  C:\Users\84759\AppData\Local\Temp\cc0twHqK.s 			page 57


1995:Core/FatFs/Src/ff.c **** 		st_16(dir + LfnOfs[di], chr);	/* Set it */
 1114              		.loc 1 1995 22 is_stmt 1 discriminator 1 view .LVU363
 1115              	.LVL144:
1995:Core/FatFs/Src/ff.c **** 		st_16(dir + LfnOfs[di], chr);	/* Set it */
 1116              		.loc 1 1995 26 is_stmt 0 discriminator 1 view .LVU364
 1117 003c 38F81650 		ldrh	r5, [r8, r6, lsl #1]
 1118              	.LVL145:
1995:Core/FatFs/Src/ff.c **** 		st_16(dir + LfnOfs[di], chr);	/* Set it */
 1119              		.loc 1 1995 34 discriminator 1 view .LVU365
 1120 0040 0136     		adds	r6, r6, #1
 1121              	.LVL146:
 1122              	.L78:
1996:Core/FatFs/Src/ff.c **** 		if (chr == 0) chr = 0xFFFF;		/* Padding characters after the terminator */
 1123              		.loc 1 1996 3 is_stmt 1 view .LVU366
1996:Core/FatFs/Src/ff.c **** 		if (chr == 0) chr = 0xFFFF;		/* Padding characters after the terminator */
 1124              		.loc 1 1996 21 is_stmt 0 view .LVU367
 1125 0042 0C4B     		ldr	r3, .L86
 1126 0044 185D     		ldrb	r0, [r3, r4]	@ zero_extendqisi2
1996:Core/FatFs/Src/ff.c **** 		if (chr == 0) chr = 0xFFFF;		/* Padding characters after the terminator */
 1127              		.loc 1 1996 3 view .LVU368
 1128 0046 2946     		mov	r1, r5
 1129 0048 3844     		add	r0, r0, r7
 1130 004a FFF7FEFF 		bl	st_16
 1131              	.LVL147:
1997:Core/FatFs/Src/ff.c **** 	} while (++di < 13);
 1132              		.loc 1 1997 3 is_stmt 1 view .LVU369
1997:Core/FatFs/Src/ff.c **** 	} while (++di < 13);
 1133              		.loc 1 1997 6 is_stmt 0 view .LVU370
 1134 004e 002D     		cmp	r5, #0
 1135 0050 EDD1     		bne	.L79
1997:Core/FatFs/Src/ff.c **** 	} while (++di < 13);
 1136              		.loc 1 1997 21 view .LVU371
 1137 0052 4FF6FF75 		movw	r5, #65535
 1138              	.LVL148:
1997:Core/FatFs/Src/ff.c **** 	} while (++di < 13);
 1139              		.loc 1 1997 21 view .LVU372
 1140 0056 EAE7     		b	.L79
 1141              	.LVL149:
 1142              	.L85:
1999:Core/FatFs/Src/ff.c **** 	if (chr == 0xFFFF || !lfn[ni]) ord |= LLEF;	/* Last LFN part is the start of an enrty set */
 1143              		.loc 1 1999 2 is_stmt 1 view .LVU373
 1144              		.loc 1 1999 5 is_stmt 0 view .LVU374
 1145 0058 4FF6FF73 		movw	r3, #65535
 1146 005c 9D42     		cmp	r5, r3
 1147 005e 02D0     		beq	.L81
 1148              		.loc 1 1999 27 discriminator 2 view .LVU375
 1149 0060 38F81630 		ldrh	r3, [r8, r6, lsl #1]
 1150              		.loc 1 1999 20 discriminator 2 view .LVU376
 1151 0064 0BB9     		cbnz	r3, .L82
 1152              	.L81:
 1153              		.loc 1 1999 33 is_stmt 1 discriminator 3 view .LVU377
 1154              		.loc 1 1999 37 is_stmt 0 discriminator 3 view .LVU378
 1155 0066 49F04009 		orr	r9, r9, #64
 1156              	.LVL150:
 1157              	.L82:
2000:Core/FatFs/Src/ff.c **** 	dir[LDIR_Ord] = ord;			/* Set order in the entry set */
 1158              		.loc 1 2000 2 is_stmt 1 view .LVU379
ARM GAS  C:\Users\84759\AppData\Local\Temp\cc0twHqK.s 			page 58


 1159              		.loc 1 2000 16 is_stmt 0 view .LVU380
 1160 006a 87F80090 		strb	r9, [r7]
2001:Core/FatFs/Src/ff.c **** }
 1161              		.loc 1 2001 1 view .LVU381
 1162 006e BDE8F883 		pop	{r3, r4, r5, r6, r7, r8, r9, pc}
 1163              	.LVL151:
 1164              	.L87:
 1165              		.loc 1 2001 1 view .LVU382
 1166 0072 00BF     		.align	2
 1167              	.L86:
 1168 0074 00000000 		.word	.LANCHOR0
 1169              		.cfi_endproc
 1170              	.LFE24:
 1172              		.section	.text.sum_sfn,"ax",%progbits
 1173              		.align	1
 1174              		.syntax unified
 1175              		.thumb
 1176              		.thumb_func
 1178              	sum_sfn:
 1179              	.LVL152:
 1180              	.LFB26:
2002:Core/FatFs/Src/ff.c **** 
2003:Core/FatFs/Src/ff.c **** #endif	/* !FF_FS_READONLY */
2004:Core/FatFs/Src/ff.c **** #endif	/* FF_USE_LFN */
2005:Core/FatFs/Src/ff.c **** 
2006:Core/FatFs/Src/ff.c **** 
2007:Core/FatFs/Src/ff.c **** 
2008:Core/FatFs/Src/ff.c **** #if FF_USE_LFN && !FF_FS_READONLY
2009:Core/FatFs/Src/ff.c **** /*-----------------------------------------------------------------------*/
2010:Core/FatFs/Src/ff.c **** /* FAT-LFN: Create a Numbered SFN                                        */
2011:Core/FatFs/Src/ff.c **** /*-----------------------------------------------------------------------*/
2012:Core/FatFs/Src/ff.c **** 
2013:Core/FatFs/Src/ff.c **** static void gen_numname (
2014:Core/FatFs/Src/ff.c **** 	BYTE* dst,			/* Pointer to the buffer to store numbered SFN */
2015:Core/FatFs/Src/ff.c **** 	const BYTE* src,	/* Pointer to SFN in directory form */
2016:Core/FatFs/Src/ff.c **** 	const WCHAR* lfn,	/* Pointer to LFN */
2017:Core/FatFs/Src/ff.c **** 	WORD seq			/* Sequence number */
2018:Core/FatFs/Src/ff.c **** )
2019:Core/FatFs/Src/ff.c **** {
2020:Core/FatFs/Src/ff.c **** 	BYTE ns[8], c;
2021:Core/FatFs/Src/ff.c **** 	UINT i, j;
2022:Core/FatFs/Src/ff.c **** 
2023:Core/FatFs/Src/ff.c **** 
2024:Core/FatFs/Src/ff.c **** 	memcpy(dst, src, 11);	/* Prepare the SFN to be modified */
2025:Core/FatFs/Src/ff.c **** 
2026:Core/FatFs/Src/ff.c **** 	if (seq > 5) {	/* In case of many collisions, generate a hash number instead of sequential number 
2027:Core/FatFs/Src/ff.c **** 		WCHAR wc;
2028:Core/FatFs/Src/ff.c **** 		DWORD crc_sreg = seq;
2029:Core/FatFs/Src/ff.c **** 
2030:Core/FatFs/Src/ff.c **** 		while (*lfn) {	/* Create a CRC value as a hash of LFN */
2031:Core/FatFs/Src/ff.c **** 			wc = *lfn++;
2032:Core/FatFs/Src/ff.c **** 			for (i = 0; i < 16; i++) {
2033:Core/FatFs/Src/ff.c **** 				crc_sreg = (crc_sreg << 1) + (wc & 1);
2034:Core/FatFs/Src/ff.c **** 				wc >>= 1;
2035:Core/FatFs/Src/ff.c **** 				if (crc_sreg & 0x10000) crc_sreg ^= 0x11021;
2036:Core/FatFs/Src/ff.c **** 			}
2037:Core/FatFs/Src/ff.c **** 		}
ARM GAS  C:\Users\84759\AppData\Local\Temp\cc0twHqK.s 			page 59


2038:Core/FatFs/Src/ff.c **** 		seq = (WORD)crc_sreg;
2039:Core/FatFs/Src/ff.c **** 	}
2040:Core/FatFs/Src/ff.c **** 
2041:Core/FatFs/Src/ff.c **** 	/* Make suffix (~ + 4-digit hexadecimal) */
2042:Core/FatFs/Src/ff.c **** 	i = 7;
2043:Core/FatFs/Src/ff.c **** 	do {
2044:Core/FatFs/Src/ff.c **** 		c = (BYTE)((seq % 16) + '0'); seq /= 16;
2045:Core/FatFs/Src/ff.c **** 		if (c > '9') c += 7;
2046:Core/FatFs/Src/ff.c **** 		ns[i--] = c;
2047:Core/FatFs/Src/ff.c **** 	} while (i && seq);
2048:Core/FatFs/Src/ff.c **** 	ns[i] = '~';
2049:Core/FatFs/Src/ff.c **** 
2050:Core/FatFs/Src/ff.c **** 	/* Append the suffix to the SFN body */
2051:Core/FatFs/Src/ff.c **** 	for (j = 0; j < i && dst[j] != ' '; j++) {	/* Find the offset to append */
2052:Core/FatFs/Src/ff.c **** 		if (dbc_1st(dst[j])) {	/* To avoid DBC break up */
2053:Core/FatFs/Src/ff.c **** 			if (j == i - 1) break;
2054:Core/FatFs/Src/ff.c **** 			j++;
2055:Core/FatFs/Src/ff.c **** 		}
2056:Core/FatFs/Src/ff.c **** 	}
2057:Core/FatFs/Src/ff.c **** 	do {	/* Append the suffix */
2058:Core/FatFs/Src/ff.c **** 		dst[j++] = (i < 8) ? ns[i++] : ' ';
2059:Core/FatFs/Src/ff.c **** 	} while (j < 8);
2060:Core/FatFs/Src/ff.c **** }
2061:Core/FatFs/Src/ff.c **** #endif	/* FF_USE_LFN && !FF_FS_READONLY */
2062:Core/FatFs/Src/ff.c **** 
2063:Core/FatFs/Src/ff.c **** 
2064:Core/FatFs/Src/ff.c **** 
2065:Core/FatFs/Src/ff.c **** #if FF_USE_LFN
2066:Core/FatFs/Src/ff.c **** /*-----------------------------------------------------------------------*/
2067:Core/FatFs/Src/ff.c **** /* FAT-LFN: Calculate checksum of an SFN entry                           */
2068:Core/FatFs/Src/ff.c **** /*-----------------------------------------------------------------------*/
2069:Core/FatFs/Src/ff.c **** 
2070:Core/FatFs/Src/ff.c **** static BYTE sum_sfn (
2071:Core/FatFs/Src/ff.c **** 	const BYTE* dir		/* Pointer to the SFN entry */
2072:Core/FatFs/Src/ff.c **** )
2073:Core/FatFs/Src/ff.c **** {
 1181              		.loc 1 2073 1 is_stmt 1 view -0
 1182              		.cfi_startproc
 1183              		@ args = 0, pretend = 0, frame = 0
 1184              		@ frame_needed = 0, uses_anonymous_args = 0
 1185              		@ link register save eliminated.
 1186              		.loc 1 2073 1 is_stmt 0 view .LVU384
 1187 0000 0246     		mov	r2, r0
2074:Core/FatFs/Src/ff.c **** 	BYTE sum = 0;
 1188              		.loc 1 2074 2 is_stmt 1 view .LVU385
 1189              	.LVL153:
2075:Core/FatFs/Src/ff.c **** 	UINT n = 11;
 1190              		.loc 1 2075 2 view .LVU386
 1191              		.loc 1 2075 7 is_stmt 0 view .LVU387
 1192 0002 0B21     		movs	r1, #11
2074:Core/FatFs/Src/ff.c **** 	BYTE sum = 0;
 1193              		.loc 1 2074 7 view .LVU388
 1194 0004 0020     		movs	r0, #0
 1195              	.LVL154:
 1196              	.L89:
2076:Core/FatFs/Src/ff.c **** 
2077:Core/FatFs/Src/ff.c **** 	do {
ARM GAS  C:\Users\84759\AppData\Local\Temp\cc0twHqK.s 			page 60


 1197              		.loc 1 2077 2 is_stmt 1 discriminator 1 view .LVU389
2078:Core/FatFs/Src/ff.c **** 		sum = (sum >> 1) + (sum << 7) + *dir++;
 1198              		.loc 1 2078 3 discriminator 1 view .LVU390
 1199              		.loc 1 2078 20 is_stmt 0 discriminator 1 view .LVU391
 1200 0006 C301     		lsls	r3, r0, #7
 1201 0008 43EA5000 		orr	r0, r3, r0, lsr #1
 1202              	.LVL155:
 1203              		.loc 1 2078 20 discriminator 1 view .LVU392
 1204 000c C0B2     		uxtb	r0, r0
 1205              		.loc 1 2078 35 discriminator 1 view .LVU393
 1206 000e 1378     		ldrb	r3, [r2]	@ zero_extendqisi2
 1207 0010 0132     		adds	r2, r2, #1
 1208              	.LVL156:
 1209              		.loc 1 2078 7 discriminator 1 view .LVU394
 1210 0012 1844     		add	r0, r0, r3
 1211 0014 C0B2     		uxtb	r0, r0
 1212              	.LVL157:
2079:Core/FatFs/Src/ff.c **** 	} while (--n);
 1213              		.loc 1 2079 10 is_stmt 1 discriminator 1 view .LVU395
 1214              		.loc 1 2079 2 is_stmt 0 discriminator 1 view .LVU396
 1215 0016 0139     		subs	r1, r1, #1
 1216              	.LVL158:
 1217              		.loc 1 2079 2 discriminator 1 view .LVU397
 1218 0018 F5D1     		bne	.L89
2080:Core/FatFs/Src/ff.c **** 	return sum;
 1219              		.loc 1 2080 2 is_stmt 1 view .LVU398
2081:Core/FatFs/Src/ff.c **** }
 1220              		.loc 1 2081 1 is_stmt 0 view .LVU399
 1221 001a 7047     		bx	lr
 1222              		.cfi_endproc
 1223              	.LFE26:
 1225              		.section	.text.get_ldnumber,"ax",%progbits
 1226              		.align	1
 1227              		.syntax unified
 1228              		.thumb
 1229              		.thumb_func
 1231              	get_ldnumber:
 1232              	.LVL159:
 1233              	.LFB34:
2082:Core/FatFs/Src/ff.c **** 
2083:Core/FatFs/Src/ff.c **** #endif	/* FF_USE_LFN */
2084:Core/FatFs/Src/ff.c **** 
2085:Core/FatFs/Src/ff.c **** 
2086:Core/FatFs/Src/ff.c **** 
2087:Core/FatFs/Src/ff.c **** #if FF_FS_EXFAT
2088:Core/FatFs/Src/ff.c **** /*-----------------------------------------------------------------------*/
2089:Core/FatFs/Src/ff.c **** /* exFAT: Checksum                                                       */
2090:Core/FatFs/Src/ff.c **** /*-----------------------------------------------------------------------*/
2091:Core/FatFs/Src/ff.c **** 
2092:Core/FatFs/Src/ff.c **** static WORD xdir_sum (	/* Get checksum of the directoly entry block */
2093:Core/FatFs/Src/ff.c **** 	const BYTE* dir		/* Directory entry block to be calculated */
2094:Core/FatFs/Src/ff.c **** )
2095:Core/FatFs/Src/ff.c **** {
2096:Core/FatFs/Src/ff.c **** 	UINT i, szblk;
2097:Core/FatFs/Src/ff.c **** 	WORD sum;
2098:Core/FatFs/Src/ff.c **** 
2099:Core/FatFs/Src/ff.c **** 
ARM GAS  C:\Users\84759\AppData\Local\Temp\cc0twHqK.s 			page 61


2100:Core/FatFs/Src/ff.c **** 	szblk = ((UINT)dir[XDIR_NumSec] + 1) * SZDIRE;	/* Number of bytes of the entry block */
2101:Core/FatFs/Src/ff.c **** 	for (i = sum = 0; i < szblk; i++) {
2102:Core/FatFs/Src/ff.c **** 		if (i == XDIR_SetSum) {	/* Skip 2-byte sum field */
2103:Core/FatFs/Src/ff.c **** 			i++;
2104:Core/FatFs/Src/ff.c **** 		} else {
2105:Core/FatFs/Src/ff.c **** 			sum = ((sum & 1) ? 0x8000 : 0) + (sum >> 1) + dir[i];
2106:Core/FatFs/Src/ff.c **** 		}
2107:Core/FatFs/Src/ff.c **** 	}
2108:Core/FatFs/Src/ff.c **** 	return sum;
2109:Core/FatFs/Src/ff.c **** }
2110:Core/FatFs/Src/ff.c **** 
2111:Core/FatFs/Src/ff.c **** 
2112:Core/FatFs/Src/ff.c **** 
2113:Core/FatFs/Src/ff.c **** static WORD xname_sum (	/* Get check sum (to be used as hash) of the file name */
2114:Core/FatFs/Src/ff.c **** 	const WCHAR* name	/* File name to be calculated */
2115:Core/FatFs/Src/ff.c **** )
2116:Core/FatFs/Src/ff.c **** {
2117:Core/FatFs/Src/ff.c **** 	WCHAR chr;
2118:Core/FatFs/Src/ff.c **** 	WORD sum = 0;
2119:Core/FatFs/Src/ff.c **** 
2120:Core/FatFs/Src/ff.c **** 
2121:Core/FatFs/Src/ff.c **** 	while ((chr = *name++) != 0) {
2122:Core/FatFs/Src/ff.c **** 		chr = (WCHAR)ff_wtoupper(chr);		/* File name needs to be up-case converted */
2123:Core/FatFs/Src/ff.c **** 		sum = ((sum & 1) ? 0x8000 : 0) + (sum >> 1) + (chr & 0xFF);
2124:Core/FatFs/Src/ff.c **** 		sum = ((sum & 1) ? 0x8000 : 0) + (sum >> 1) + (chr >> 8);
2125:Core/FatFs/Src/ff.c **** 	}
2126:Core/FatFs/Src/ff.c **** 	return sum;
2127:Core/FatFs/Src/ff.c **** }
2128:Core/FatFs/Src/ff.c **** 
2129:Core/FatFs/Src/ff.c **** 
2130:Core/FatFs/Src/ff.c **** #if !FF_FS_READONLY && FF_USE_MKFS
2131:Core/FatFs/Src/ff.c **** static DWORD xsum32 (	/* Returns 32-bit checksum */
2132:Core/FatFs/Src/ff.c **** 	BYTE  dat,			/* Byte to be calculated (byte-by-byte processing) */
2133:Core/FatFs/Src/ff.c **** 	DWORD sum			/* Previous sum value */
2134:Core/FatFs/Src/ff.c **** )
2135:Core/FatFs/Src/ff.c **** {
2136:Core/FatFs/Src/ff.c **** 	sum = ((sum & 1) ? 0x80000000 : 0) + (sum >> 1) + dat;
2137:Core/FatFs/Src/ff.c **** 	return sum;
2138:Core/FatFs/Src/ff.c **** }
2139:Core/FatFs/Src/ff.c **** #endif
2140:Core/FatFs/Src/ff.c **** 
2141:Core/FatFs/Src/ff.c **** 
2142:Core/FatFs/Src/ff.c **** 
2143:Core/FatFs/Src/ff.c **** /*------------------------------------*/
2144:Core/FatFs/Src/ff.c **** /* exFAT: Get a directory entry block */
2145:Core/FatFs/Src/ff.c **** /*------------------------------------*/
2146:Core/FatFs/Src/ff.c **** 
2147:Core/FatFs/Src/ff.c **** static FRESULT load_xdir (	/* FR_INT_ERR: invalid entry block */
2148:Core/FatFs/Src/ff.c **** 	DIR* dp					/* Reading directory object pointing top of the entry block to load */
2149:Core/FatFs/Src/ff.c **** )
2150:Core/FatFs/Src/ff.c **** {
2151:Core/FatFs/Src/ff.c **** 	FRESULT res;
2152:Core/FatFs/Src/ff.c **** 	UINT i, sz_ent;
2153:Core/FatFs/Src/ff.c **** 	BYTE *dirb = dp->obj.fs->dirbuf;	/* Pointer to the on-memory directory entry block 85+C0+C1s */
2154:Core/FatFs/Src/ff.c **** 
2155:Core/FatFs/Src/ff.c **** 
2156:Core/FatFs/Src/ff.c **** 	/* Load file-directory entry */
ARM GAS  C:\Users\84759\AppData\Local\Temp\cc0twHqK.s 			page 62


2157:Core/FatFs/Src/ff.c **** 	res = move_window(dp->obj.fs, dp->sect);
2158:Core/FatFs/Src/ff.c **** 	if (res != FR_OK) return res;
2159:Core/FatFs/Src/ff.c **** 	if (dp->dir[XDIR_Type] != ET_FILEDIR) return FR_INT_ERR;	/* Invalid order? */
2160:Core/FatFs/Src/ff.c **** 	memcpy(dirb + 0 * SZDIRE, dp->dir, SZDIRE);
2161:Core/FatFs/Src/ff.c **** 	sz_ent = ((UINT)dirb[XDIR_NumSec] + 1) * SZDIRE;	/* Size of this entry block */
2162:Core/FatFs/Src/ff.c **** 	if (sz_ent < 3 * SZDIRE || sz_ent > 19 * SZDIRE) return FR_INT_ERR;	/* Invalid block size? */
2163:Core/FatFs/Src/ff.c **** 
2164:Core/FatFs/Src/ff.c **** 	/* Load stream extension entry */
2165:Core/FatFs/Src/ff.c **** 	res = dir_next(dp, 0);
2166:Core/FatFs/Src/ff.c **** 	if (res == FR_NO_FILE) res = FR_INT_ERR;	/* It cannot be */
2167:Core/FatFs/Src/ff.c **** 	if (res != FR_OK) return res;
2168:Core/FatFs/Src/ff.c **** 	res = move_window(dp->obj.fs, dp->sect);
2169:Core/FatFs/Src/ff.c **** 	if (res != FR_OK) return res;
2170:Core/FatFs/Src/ff.c **** 	if (dp->dir[XDIR_Type] != ET_STREAM) return FR_INT_ERR;	/* Invalid order? */
2171:Core/FatFs/Src/ff.c **** 	memcpy(dirb + 1 * SZDIRE, dp->dir, SZDIRE);
2172:Core/FatFs/Src/ff.c **** 	if (MAXDIRB(dirb[XDIR_NumName]) > sz_ent) return FR_INT_ERR;	/* Invalid block size for the name? *
2173:Core/FatFs/Src/ff.c **** 
2174:Core/FatFs/Src/ff.c **** 	/* Load file name entries */
2175:Core/FatFs/Src/ff.c **** 	i = 2 * SZDIRE;	/* Name offset to load */
2176:Core/FatFs/Src/ff.c **** 	do {
2177:Core/FatFs/Src/ff.c **** 		res = dir_next(dp, 0);
2178:Core/FatFs/Src/ff.c **** 		if (res == FR_NO_FILE) res = FR_INT_ERR;	/* It cannot be */
2179:Core/FatFs/Src/ff.c **** 		if (res != FR_OK) return res;
2180:Core/FatFs/Src/ff.c **** 		res = move_window(dp->obj.fs, dp->sect);
2181:Core/FatFs/Src/ff.c **** 		if (res != FR_OK) return res;
2182:Core/FatFs/Src/ff.c **** 		if (dp->dir[XDIR_Type] != ET_FILENAME) return FR_INT_ERR;	/* Invalid order? */
2183:Core/FatFs/Src/ff.c **** 		if (i < MAXDIRB(FF_MAX_LFN)) memcpy(dirb + i, dp->dir, SZDIRE);	/* Load name entries only if the 
2184:Core/FatFs/Src/ff.c **** 	} while ((i += SZDIRE) < sz_ent);
2185:Core/FatFs/Src/ff.c **** 
2186:Core/FatFs/Src/ff.c **** 	/* Sanity check (do it for only accessible object) */
2187:Core/FatFs/Src/ff.c **** 	if (i <= MAXDIRB(FF_MAX_LFN)) {
2188:Core/FatFs/Src/ff.c **** 		if (xdir_sum(dirb) != ld_16(dirb + XDIR_SetSum)) return FR_INT_ERR;
2189:Core/FatFs/Src/ff.c **** 	}
2190:Core/FatFs/Src/ff.c **** 
2191:Core/FatFs/Src/ff.c **** 	return FR_OK;
2192:Core/FatFs/Src/ff.c **** }
2193:Core/FatFs/Src/ff.c **** 
2194:Core/FatFs/Src/ff.c **** 
2195:Core/FatFs/Src/ff.c **** /*------------------------------------------------------------------*/
2196:Core/FatFs/Src/ff.c **** /* exFAT: Initialize object allocation info with loaded entry block */
2197:Core/FatFs/Src/ff.c **** /*------------------------------------------------------------------*/
2198:Core/FatFs/Src/ff.c **** 
2199:Core/FatFs/Src/ff.c **** static void init_alloc_info (
2200:Core/FatFs/Src/ff.c **** 	FFOBJID* dobj,	/* Object allocation information to be initialized */
2201:Core/FatFs/Src/ff.c **** 	DIR* sdir		/* Additional source about containing direcotry */
2202:Core/FatFs/Src/ff.c **** )
2203:Core/FatFs/Src/ff.c **** {
2204:Core/FatFs/Src/ff.c **** 	FATFS *fs = dobj->fs;
2205:Core/FatFs/Src/ff.c **** 
2206:Core/FatFs/Src/ff.c **** 
2207:Core/FatFs/Src/ff.c **** 	if (sdir) {	/* Initialize the containing directory. This block needs to precede the followings. */
2208:Core/FatFs/Src/ff.c **** 		dobj->c_scl = sdir->obj.sclust;
2209:Core/FatFs/Src/ff.c **** 		dobj->c_size = ((DWORD)sdir->obj.objsize & 0xFFFFFF00) | sdir->obj.stat;
2210:Core/FatFs/Src/ff.c **** 		dobj->c_ofs = sdir->blk_ofs;
2211:Core/FatFs/Src/ff.c **** 	}
2212:Core/FatFs/Src/ff.c **** 	dobj->sclust = ld_32(fs->dirbuf + XDIR_FstClus);	/* Start cluster */
2213:Core/FatFs/Src/ff.c **** 	dobj->objsize = ld_64(fs->dirbuf + XDIR_FileSize);	/* Size */
ARM GAS  C:\Users\84759\AppData\Local\Temp\cc0twHqK.s 			page 63


2214:Core/FatFs/Src/ff.c **** 	dobj->stat = fs->dirbuf[XDIR_GenFlags] & 2;			/* Allocation status */
2215:Core/FatFs/Src/ff.c **** 	dobj->n_frag = 0;									/* No last fragment info */
2216:Core/FatFs/Src/ff.c **** }
2217:Core/FatFs/Src/ff.c **** 
2218:Core/FatFs/Src/ff.c **** 
2219:Core/FatFs/Src/ff.c **** 
2220:Core/FatFs/Src/ff.c **** #if !FF_FS_READONLY || FF_FS_RPATH
2221:Core/FatFs/Src/ff.c **** /*------------------------------------------------*/
2222:Core/FatFs/Src/ff.c **** /* exFAT: Load the object's directory entry block */
2223:Core/FatFs/Src/ff.c **** /*------------------------------------------------*/
2224:Core/FatFs/Src/ff.c **** 
2225:Core/FatFs/Src/ff.c **** static FRESULT load_obj_xdir (
2226:Core/FatFs/Src/ff.c **** 	DIR* dp,			/* Blank directory object to be used to access containing directory */
2227:Core/FatFs/Src/ff.c **** 	const FFOBJID* obj	/* Object with its containing directory information */
2228:Core/FatFs/Src/ff.c **** )
2229:Core/FatFs/Src/ff.c **** {
2230:Core/FatFs/Src/ff.c **** 	FRESULT res;
2231:Core/FatFs/Src/ff.c **** 
2232:Core/FatFs/Src/ff.c **** 	/* Open object containing directory */
2233:Core/FatFs/Src/ff.c **** 	dp->obj.fs = obj->fs;
2234:Core/FatFs/Src/ff.c **** 	dp->obj.sclust = obj->c_scl;
2235:Core/FatFs/Src/ff.c **** 	dp->obj.stat = (BYTE)obj->c_size;
2236:Core/FatFs/Src/ff.c **** 	dp->obj.objsize = obj->c_size & 0xFFFFFF00;
2237:Core/FatFs/Src/ff.c **** 	dp->obj.n_frag = 0;
2238:Core/FatFs/Src/ff.c **** 	dp->blk_ofs = obj->c_ofs;
2239:Core/FatFs/Src/ff.c **** 
2240:Core/FatFs/Src/ff.c **** 	res = dir_sdi(dp, dp->blk_ofs);	/* Goto object's entry block */
2241:Core/FatFs/Src/ff.c **** 	if (res == FR_OK) {
2242:Core/FatFs/Src/ff.c **** 		res = load_xdir(dp);		/* Load the object's entry block */
2243:Core/FatFs/Src/ff.c **** 	}
2244:Core/FatFs/Src/ff.c **** 	return res;
2245:Core/FatFs/Src/ff.c **** }
2246:Core/FatFs/Src/ff.c **** #endif
2247:Core/FatFs/Src/ff.c **** 
2248:Core/FatFs/Src/ff.c **** 
2249:Core/FatFs/Src/ff.c **** #if !FF_FS_READONLY
2250:Core/FatFs/Src/ff.c **** /*----------------------------------------*/
2251:Core/FatFs/Src/ff.c **** /* exFAT: Store the directory entry block */
2252:Core/FatFs/Src/ff.c **** /*----------------------------------------*/
2253:Core/FatFs/Src/ff.c **** 
2254:Core/FatFs/Src/ff.c **** static FRESULT store_xdir (
2255:Core/FatFs/Src/ff.c **** 	DIR* dp				/* Pointer to the directory object */
2256:Core/FatFs/Src/ff.c **** )
2257:Core/FatFs/Src/ff.c **** {
2258:Core/FatFs/Src/ff.c **** 	FRESULT res;
2259:Core/FatFs/Src/ff.c **** 	UINT nent;
2260:Core/FatFs/Src/ff.c **** 	BYTE *dirb = dp->obj.fs->dirbuf;	/* Pointer to the entry set 85+C0+C1s */
2261:Core/FatFs/Src/ff.c **** 
2262:Core/FatFs/Src/ff.c **** 
2263:Core/FatFs/Src/ff.c **** 	st_16(dirb + XDIR_SetSum, xdir_sum(dirb));	/* Create check sum */
2264:Core/FatFs/Src/ff.c **** 
2265:Core/FatFs/Src/ff.c **** 	/* Store the entry set to the directory */
2266:Core/FatFs/Src/ff.c **** 	nent = dirb[XDIR_NumSec] + 1;	/* Number of entries */
2267:Core/FatFs/Src/ff.c **** 	res = dir_sdi(dp, dp->blk_ofs);	/* Top of the entry set */
2268:Core/FatFs/Src/ff.c **** 	while (res == FR_OK) {
2269:Core/FatFs/Src/ff.c **** 		/* Set an entry to the directory */
2270:Core/FatFs/Src/ff.c **** 		res = move_window(dp->obj.fs, dp->sect);
ARM GAS  C:\Users\84759\AppData\Local\Temp\cc0twHqK.s 			page 64


2271:Core/FatFs/Src/ff.c **** 		if (res != FR_OK) break;
2272:Core/FatFs/Src/ff.c **** 		memcpy(dp->dir, dirb, SZDIRE);
2273:Core/FatFs/Src/ff.c **** 		dp->obj.fs->wflag = 1;
2274:Core/FatFs/Src/ff.c **** 
2275:Core/FatFs/Src/ff.c **** 		if (--nent == 0) break;	/* All done? */
2276:Core/FatFs/Src/ff.c **** 		dirb += SZDIRE;
2277:Core/FatFs/Src/ff.c **** 		res = dir_next(dp, 0);	/* Next entry */
2278:Core/FatFs/Src/ff.c **** 	}
2279:Core/FatFs/Src/ff.c **** 	return (res == FR_OK || res == FR_DISK_ERR) ? res : FR_INT_ERR;
2280:Core/FatFs/Src/ff.c **** }
2281:Core/FatFs/Src/ff.c **** 
2282:Core/FatFs/Src/ff.c **** 
2283:Core/FatFs/Src/ff.c **** 
2284:Core/FatFs/Src/ff.c **** /*-------------------------------------------*/
2285:Core/FatFs/Src/ff.c **** /* exFAT: Create a new directory entry block */
2286:Core/FatFs/Src/ff.c **** /*-------------------------------------------*/
2287:Core/FatFs/Src/ff.c **** 
2288:Core/FatFs/Src/ff.c **** static void create_xdir (
2289:Core/FatFs/Src/ff.c **** 	BYTE* dirb,			/* Pointer to the directory entry block buffer */
2290:Core/FatFs/Src/ff.c **** 	const WCHAR* lfn	/* Pointer to the object name */
2291:Core/FatFs/Src/ff.c **** )
2292:Core/FatFs/Src/ff.c **** {
2293:Core/FatFs/Src/ff.c **** 	UINT i;
2294:Core/FatFs/Src/ff.c **** 	BYTE n_c1, nlen;
2295:Core/FatFs/Src/ff.c **** 	WCHAR chr;
2296:Core/FatFs/Src/ff.c **** 
2297:Core/FatFs/Src/ff.c **** 
2298:Core/FatFs/Src/ff.c **** 	/* Create file-directory and stream-extension entry (1st and 2nd entry) */
2299:Core/FatFs/Src/ff.c **** 	memset(dirb, 0, 2 * SZDIRE);
2300:Core/FatFs/Src/ff.c **** 	dirb[0 * SZDIRE + XDIR_Type] = ET_FILEDIR;
2301:Core/FatFs/Src/ff.c **** 	dirb[1 * SZDIRE + XDIR_Type] = ET_STREAM;
2302:Core/FatFs/Src/ff.c **** 
2303:Core/FatFs/Src/ff.c **** 	/* Create file name entries (3rd enrty and follows) */
2304:Core/FatFs/Src/ff.c **** 	i = SZDIRE * 2;	/* Top of file name entries */
2305:Core/FatFs/Src/ff.c **** 	nlen = n_c1 = 0; chr = 1;
2306:Core/FatFs/Src/ff.c **** 	do {
2307:Core/FatFs/Src/ff.c **** 		dirb[i++] = ET_FILENAME; dirb[i++] = 0;
2308:Core/FatFs/Src/ff.c **** 		do {	/* Fill name field */
2309:Core/FatFs/Src/ff.c **** 			if (chr != 0 && (chr = lfn[nlen]) != 0) nlen++;	/* Get a character if exist */
2310:Core/FatFs/Src/ff.c **** 			st_16(dirb + i, chr); 	/* Store it */
2311:Core/FatFs/Src/ff.c **** 			i += 2;
2312:Core/FatFs/Src/ff.c **** 		} while (i % SZDIRE != 0);
2313:Core/FatFs/Src/ff.c **** 		n_c1++;
2314:Core/FatFs/Src/ff.c **** 	} while (lfn[nlen]);	/* Fill next C1 entry if any char follows */
2315:Core/FatFs/Src/ff.c **** 
2316:Core/FatFs/Src/ff.c **** 	dirb[XDIR_NumName] = nlen;		/* Set name length */
2317:Core/FatFs/Src/ff.c **** 	dirb[XDIR_NumSec] = 1 + n_c1;	/* Set secondary count (C0 + C1s) */
2318:Core/FatFs/Src/ff.c **** 	st_16(dirb + XDIR_NameHash, xname_sum(lfn));	/* Set name hash */
2319:Core/FatFs/Src/ff.c **** }
2320:Core/FatFs/Src/ff.c **** 
2321:Core/FatFs/Src/ff.c **** #endif	/* !FF_FS_READONLY */
2322:Core/FatFs/Src/ff.c **** #endif	/* FF_FS_EXFAT */
2323:Core/FatFs/Src/ff.c **** 
2324:Core/FatFs/Src/ff.c **** 
2325:Core/FatFs/Src/ff.c **** 
2326:Core/FatFs/Src/ff.c **** #if FF_FS_MINIMIZE <= 1 || FF_FS_RPATH >= 2 || FF_USE_LABEL || FF_FS_EXFAT
2327:Core/FatFs/Src/ff.c **** /*-----------------------------------------------------------------------*/
ARM GAS  C:\Users\84759\AppData\Local\Temp\cc0twHqK.s 			page 65


2328:Core/FatFs/Src/ff.c **** /* Read an object from the directory                                     */
2329:Core/FatFs/Src/ff.c **** /*-----------------------------------------------------------------------*/
2330:Core/FatFs/Src/ff.c **** 
2331:Core/FatFs/Src/ff.c **** #define DIR_READ_FILE(dp) dir_read(dp, 0)
2332:Core/FatFs/Src/ff.c **** #define DIR_READ_LABEL(dp) dir_read(dp, 1)
2333:Core/FatFs/Src/ff.c **** 
2334:Core/FatFs/Src/ff.c **** static FRESULT dir_read (
2335:Core/FatFs/Src/ff.c **** 	DIR* dp,		/* Pointer to the directory object */
2336:Core/FatFs/Src/ff.c **** 	int vol			/* Filtered by 0:file/directory or 1:volume label */
2337:Core/FatFs/Src/ff.c **** )
2338:Core/FatFs/Src/ff.c **** {
2339:Core/FatFs/Src/ff.c **** 	FRESULT res = FR_NO_FILE;
2340:Core/FatFs/Src/ff.c **** 	FATFS *fs = dp->obj.fs;
2341:Core/FatFs/Src/ff.c **** 	BYTE attr, et;
2342:Core/FatFs/Src/ff.c **** #if FF_USE_LFN
2343:Core/FatFs/Src/ff.c **** 	BYTE ord = 0xFF, sum = 0xFF;
2344:Core/FatFs/Src/ff.c **** #endif
2345:Core/FatFs/Src/ff.c **** 
2346:Core/FatFs/Src/ff.c **** 	while (dp->sect) {
2347:Core/FatFs/Src/ff.c **** 		res = move_window(fs, dp->sect);
2348:Core/FatFs/Src/ff.c **** 		if (res != FR_OK) break;
2349:Core/FatFs/Src/ff.c **** 		et = dp->dir[DIR_Name];	/* Test for the entry type */
2350:Core/FatFs/Src/ff.c **** 		if (et == 0) {
2351:Core/FatFs/Src/ff.c **** 			res = FR_NO_FILE; break; /* Reached to end of the directory */
2352:Core/FatFs/Src/ff.c **** 		}
2353:Core/FatFs/Src/ff.c **** #if FF_FS_EXFAT
2354:Core/FatFs/Src/ff.c **** 		if (fs->fs_type == FS_EXFAT) {	/* On the exFAT volume */
2355:Core/FatFs/Src/ff.c **** 			if (FF_USE_LABEL && vol) {
2356:Core/FatFs/Src/ff.c **** 				if (et == ET_VLABEL) break;	/* Volume label entry? */
2357:Core/FatFs/Src/ff.c **** 			} else {
2358:Core/FatFs/Src/ff.c **** 				if (et == ET_FILEDIR) {		/* Start of the file entry block? */
2359:Core/FatFs/Src/ff.c **** 					dp->blk_ofs = dp->dptr;	/* Get location of the block */
2360:Core/FatFs/Src/ff.c **** 					res = load_xdir(dp);	/* Load the entry block */
2361:Core/FatFs/Src/ff.c **** 					if (res == FR_OK) {
2362:Core/FatFs/Src/ff.c **** 						dp->obj.attr = fs->dirbuf[XDIR_Attr] & AM_MASK;	/* Get attribute */
2363:Core/FatFs/Src/ff.c **** 					}
2364:Core/FatFs/Src/ff.c **** 					break;
2365:Core/FatFs/Src/ff.c **** 				}
2366:Core/FatFs/Src/ff.c **** 			}
2367:Core/FatFs/Src/ff.c **** 		} else
2368:Core/FatFs/Src/ff.c **** #endif
2369:Core/FatFs/Src/ff.c **** 		{	/* On the FAT/FAT32 volume */
2370:Core/FatFs/Src/ff.c **** 			dp->obj.attr = attr = dp->dir[DIR_Attr] & AM_MASK;	/* Get attribute */
2371:Core/FatFs/Src/ff.c **** #if FF_USE_LFN		/* LFN configuration */
2372:Core/FatFs/Src/ff.c **** 			if (et == DDEM || et == '.' || (int)((attr & ~AM_ARC) == AM_VOL) != vol) {	/* An entry without v
2373:Core/FatFs/Src/ff.c **** 				ord = 0xFF;
2374:Core/FatFs/Src/ff.c **** 			} else {
2375:Core/FatFs/Src/ff.c **** 				if (attr == AM_LFN) {	/* An LFN entry is found */
2376:Core/FatFs/Src/ff.c **** 					if (et & LLEF) {		/* Is it start of an LFN sequence? */
2377:Core/FatFs/Src/ff.c **** 						sum = dp->dir[LDIR_Chksum];
2378:Core/FatFs/Src/ff.c **** 						et &= (BYTE)~LLEF; ord = et;
2379:Core/FatFs/Src/ff.c **** 						dp->blk_ofs = dp->dptr;
2380:Core/FatFs/Src/ff.c **** 					}
2381:Core/FatFs/Src/ff.c **** 					/* Check LFN validity and capture it */
2382:Core/FatFs/Src/ff.c **** 					ord = (et == ord && sum == dp->dir[LDIR_Chksum] && pick_lfn(fs->lfnbuf, dp->dir)) ? ord - 1 : 
2383:Core/FatFs/Src/ff.c **** 				} else {				/* An SFN entry is found */
2384:Core/FatFs/Src/ff.c **** 					if (ord != 0 || sum != sum_sfn(dp->dir)) {	/* Is there a valid LFN? */
ARM GAS  C:\Users\84759\AppData\Local\Temp\cc0twHqK.s 			page 66


2385:Core/FatFs/Src/ff.c **** 						dp->blk_ofs = 0xFFFFFFFF;	/* It has no LFN. */
2386:Core/FatFs/Src/ff.c **** 					}
2387:Core/FatFs/Src/ff.c **** 					break;
2388:Core/FatFs/Src/ff.c **** 				}
2389:Core/FatFs/Src/ff.c **** 			}
2390:Core/FatFs/Src/ff.c **** #else		/* Non LFN configuration */
2391:Core/FatFs/Src/ff.c **** 			if (et != DDEM && et != '.' && attr != AM_LFN && (int)((attr & ~AM_ARC) == AM_VOL) == vol) {	/* 
2392:Core/FatFs/Src/ff.c **** 				break;
2393:Core/FatFs/Src/ff.c **** 			}
2394:Core/FatFs/Src/ff.c **** #endif
2395:Core/FatFs/Src/ff.c **** 		}
2396:Core/FatFs/Src/ff.c **** 		res = dir_next(dp, 0);		/* Next entry */
2397:Core/FatFs/Src/ff.c **** 		if (res != FR_OK) break;
2398:Core/FatFs/Src/ff.c **** 	}
2399:Core/FatFs/Src/ff.c **** 
2400:Core/FatFs/Src/ff.c **** 	if (res != FR_OK) dp->sect = 0;		/* Terminate the read operation on error or EOT */
2401:Core/FatFs/Src/ff.c **** 	return res;
2402:Core/FatFs/Src/ff.c **** }
2403:Core/FatFs/Src/ff.c **** 
2404:Core/FatFs/Src/ff.c **** #endif	/* FF_FS_MINIMIZE <= 1 || FF_USE_LABEL || FF_FS_RPATH >= 2 */
2405:Core/FatFs/Src/ff.c **** 
2406:Core/FatFs/Src/ff.c **** 
2407:Core/FatFs/Src/ff.c **** 
2408:Core/FatFs/Src/ff.c **** /*-----------------------------------------------------------------------*/
2409:Core/FatFs/Src/ff.c **** /* Directory handling - Find an object in the directory                  */
2410:Core/FatFs/Src/ff.c **** /*-----------------------------------------------------------------------*/
2411:Core/FatFs/Src/ff.c **** 
2412:Core/FatFs/Src/ff.c **** static FRESULT dir_find (	/* FR_OK(0):succeeded, !=0:error */
2413:Core/FatFs/Src/ff.c **** 	DIR* dp					/* Pointer to the directory object with the file name */
2414:Core/FatFs/Src/ff.c **** )
2415:Core/FatFs/Src/ff.c **** {
2416:Core/FatFs/Src/ff.c **** 	FRESULT res;
2417:Core/FatFs/Src/ff.c **** 	FATFS *fs = dp->obj.fs;
2418:Core/FatFs/Src/ff.c **** 	BYTE et;
2419:Core/FatFs/Src/ff.c **** #if FF_USE_LFN
2420:Core/FatFs/Src/ff.c **** 	BYTE attr, ord, sum;
2421:Core/FatFs/Src/ff.c **** #endif
2422:Core/FatFs/Src/ff.c **** 
2423:Core/FatFs/Src/ff.c **** 	res = dir_sdi(dp, 0);			/* Rewind directory object */
2424:Core/FatFs/Src/ff.c **** 	if (res != FR_OK) return res;
2425:Core/FatFs/Src/ff.c **** #if FF_FS_EXFAT
2426:Core/FatFs/Src/ff.c **** 	if (fs->fs_type == FS_EXFAT) {	/* On the exFAT volume */
2427:Core/FatFs/Src/ff.c **** 		BYTE nc;
2428:Core/FatFs/Src/ff.c **** 		UINT di, ni;
2429:Core/FatFs/Src/ff.c **** 		WORD hash = xname_sum(fs->lfnbuf);		/* Hash value of the name to find */
2430:Core/FatFs/Src/ff.c **** 
2431:Core/FatFs/Src/ff.c **** 		while ((res = DIR_READ_FILE(dp)) == FR_OK) {	/* Read an item */
2432:Core/FatFs/Src/ff.c **** #if FF_MAX_LFN < 255
2433:Core/FatFs/Src/ff.c **** 			if (fs->dirbuf[XDIR_NumName] > FF_MAX_LFN) continue;		/* Skip comparison if inaccessible object 
2434:Core/FatFs/Src/ff.c **** #endif
2435:Core/FatFs/Src/ff.c **** 			if (ld_16(fs->dirbuf + XDIR_NameHash) != hash) continue;	/* Skip comparison if hash mismatched *
2436:Core/FatFs/Src/ff.c **** 			for (nc = fs->dirbuf[XDIR_NumName], di = SZDIRE * 2, ni = 0; nc; nc--, di += 2, ni++) {	/* Compa
2437:Core/FatFs/Src/ff.c **** 				if ((di % SZDIRE) == 0) di += 2;
2438:Core/FatFs/Src/ff.c **** 				if (ff_wtoupper(ld_16(fs->dirbuf + di)) != ff_wtoupper(fs->lfnbuf[ni])) break;
2439:Core/FatFs/Src/ff.c **** 			}
2440:Core/FatFs/Src/ff.c **** 			if (nc == 0 && !fs->lfnbuf[ni]) break;	/* Name matched? */
2441:Core/FatFs/Src/ff.c **** 		}
ARM GAS  C:\Users\84759\AppData\Local\Temp\cc0twHqK.s 			page 67


2442:Core/FatFs/Src/ff.c **** 		return res;
2443:Core/FatFs/Src/ff.c **** 	}
2444:Core/FatFs/Src/ff.c **** #endif
2445:Core/FatFs/Src/ff.c **** 	/* On the FAT/FAT32 volume */
2446:Core/FatFs/Src/ff.c **** #if FF_USE_LFN
2447:Core/FatFs/Src/ff.c **** 	ord = sum = 0xFF; dp->blk_ofs = 0xFFFFFFFF;	/* Reset LFN sequence */
2448:Core/FatFs/Src/ff.c **** #endif
2449:Core/FatFs/Src/ff.c **** 	do {
2450:Core/FatFs/Src/ff.c **** 		res = move_window(fs, dp->sect);
2451:Core/FatFs/Src/ff.c **** 		if (res != FR_OK) break;
2452:Core/FatFs/Src/ff.c **** 		et = dp->dir[DIR_Name];		/* Entry type */
2453:Core/FatFs/Src/ff.c **** 		if (et == 0) { res = FR_NO_FILE; break; }	/* Reached end of directory table */
2454:Core/FatFs/Src/ff.c **** #if FF_USE_LFN		/* LFN configuration */
2455:Core/FatFs/Src/ff.c **** 		dp->obj.attr = attr = dp->dir[DIR_Attr] & AM_MASK;
2456:Core/FatFs/Src/ff.c **** 		if (et == DDEM || ((attr & AM_VOL) && attr != AM_LFN)) {	/* An entry without valid data */
2457:Core/FatFs/Src/ff.c **** 			ord = 0xFF; dp->blk_ofs = 0xFFFFFFFF;	/* Reset LFN sequence */
2458:Core/FatFs/Src/ff.c **** 		} else {
2459:Core/FatFs/Src/ff.c **** 			if (attr == AM_LFN) {			/* Is it an LFN entry? */
2460:Core/FatFs/Src/ff.c **** 				if (!(dp->fn[NSFLAG] & NS_NOLFN)) {
2461:Core/FatFs/Src/ff.c **** 					if (et & LLEF) {		/* Is it start of an entry set? */
2462:Core/FatFs/Src/ff.c **** 						et &= (BYTE)~LLEF;
2463:Core/FatFs/Src/ff.c **** 						ord = et;					/* Number of LFN entries */
2464:Core/FatFs/Src/ff.c **** 						dp->blk_ofs = dp->dptr;		/* Start offset of LFN */
2465:Core/FatFs/Src/ff.c **** 						sum = dp->dir[LDIR_Chksum];	/* Sum of the SFN */
2466:Core/FatFs/Src/ff.c **** 					}
2467:Core/FatFs/Src/ff.c **** 					/* Check validity of the LFN entry and compare it with given name */
2468:Core/FatFs/Src/ff.c **** 					ord = (et == ord && sum == dp->dir[LDIR_Chksum] && cmp_lfn(fs->lfnbuf, dp->dir)) ? ord - 1 : 0
2469:Core/FatFs/Src/ff.c **** 				}
2470:Core/FatFs/Src/ff.c **** 			} else {					/* SFN entry */
2471:Core/FatFs/Src/ff.c **** 				if (ord == 0 && sum == sum_sfn(dp->dir)) break;	/* LFN matched? */
2472:Core/FatFs/Src/ff.c **** 				if (!(dp->fn[NSFLAG] & NS_LOSS) && !memcmp(dp->dir, dp->fn, 11)) break;	/* SFN matched? */
2473:Core/FatFs/Src/ff.c **** 				ord = 0xFF; dp->blk_ofs = 0xFFFFFFFF;	/* Not matched, reset LFN sequence */
2474:Core/FatFs/Src/ff.c **** 			}
2475:Core/FatFs/Src/ff.c **** 		}
2476:Core/FatFs/Src/ff.c **** #else		/* Non LFN configuration */
2477:Core/FatFs/Src/ff.c **** 		dp->obj.attr = dp->dir[DIR_Attr] & AM_MASK;
2478:Core/FatFs/Src/ff.c **** 		if (!(dp->dir[DIR_Attr] & AM_VOL) && !memcmp(dp->dir, dp->fn, 11)) break;	/* Is it a valid entry?
2479:Core/FatFs/Src/ff.c **** #endif
2480:Core/FatFs/Src/ff.c **** 		res = dir_next(dp, 0);	/* Next entry */
2481:Core/FatFs/Src/ff.c **** 	} while (res == FR_OK);
2482:Core/FatFs/Src/ff.c **** 
2483:Core/FatFs/Src/ff.c **** 	return res;
2484:Core/FatFs/Src/ff.c **** }
2485:Core/FatFs/Src/ff.c **** 
2486:Core/FatFs/Src/ff.c **** 
2487:Core/FatFs/Src/ff.c **** 
2488:Core/FatFs/Src/ff.c **** 
2489:Core/FatFs/Src/ff.c **** #if !FF_FS_READONLY
2490:Core/FatFs/Src/ff.c **** /*-----------------------------------------------------------------------*/
2491:Core/FatFs/Src/ff.c **** /* Register an object to the directory                                   */
2492:Core/FatFs/Src/ff.c **** /*-----------------------------------------------------------------------*/
2493:Core/FatFs/Src/ff.c **** 
2494:Core/FatFs/Src/ff.c **** static FRESULT dir_register (	/* FR_OK:succeeded, FR_DENIED:no free entry or too many SFN collision
2495:Core/FatFs/Src/ff.c **** 	DIR* dp						/* Target directory with object name to be created */
2496:Core/FatFs/Src/ff.c **** )
2497:Core/FatFs/Src/ff.c **** {
2498:Core/FatFs/Src/ff.c **** 	FRESULT res;
ARM GAS  C:\Users\84759\AppData\Local\Temp\cc0twHqK.s 			page 68


2499:Core/FatFs/Src/ff.c **** 	FATFS *fs = dp->obj.fs;
2500:Core/FatFs/Src/ff.c **** #if FF_USE_LFN		/* LFN configuration */
2501:Core/FatFs/Src/ff.c **** 	UINT n, len, n_ent;
2502:Core/FatFs/Src/ff.c **** 	BYTE sn[12];
2503:Core/FatFs/Src/ff.c **** 
2504:Core/FatFs/Src/ff.c **** 
2505:Core/FatFs/Src/ff.c **** 	if (dp->fn[NSFLAG] & (NS_DOT | NS_NONAME)) return FR_INVALID_NAME;	/* Check name validity */
2506:Core/FatFs/Src/ff.c **** 	for (len = 0; fs->lfnbuf[len]; len++) ;	/* Get lfn length */
2507:Core/FatFs/Src/ff.c **** 
2508:Core/FatFs/Src/ff.c **** #if FF_FS_EXFAT
2509:Core/FatFs/Src/ff.c **** 	if (fs->fs_type == FS_EXFAT) {	/* On the exFAT volume */
2510:Core/FatFs/Src/ff.c **** 		n_ent = (len + 14) / 15 + 2;	/* Number of entries to allocate (85+C0+C1s) */
2511:Core/FatFs/Src/ff.c **** 		res = dir_alloc(dp, n_ent);		/* Allocate directory entries */
2512:Core/FatFs/Src/ff.c **** 		if (res != FR_OK) return res;
2513:Core/FatFs/Src/ff.c **** 		dp->blk_ofs = dp->dptr - SZDIRE * (n_ent - 1);	/* Set the allocated entry block offset */
2514:Core/FatFs/Src/ff.c **** 
2515:Core/FatFs/Src/ff.c **** 		if (dp->obj.stat & 4) {			/* Has the directory been stretched by new allocation? */
2516:Core/FatFs/Src/ff.c **** 			dp->obj.stat &= ~4;
2517:Core/FatFs/Src/ff.c **** 			res = fill_first_frag(&dp->obj);	/* Fill the first fragment on the FAT if needed */
2518:Core/FatFs/Src/ff.c **** 			if (res != FR_OK) return res;
2519:Core/FatFs/Src/ff.c **** 			res = fill_last_frag(&dp->obj, dp->clust, 0xFFFFFFFF);	/* Fill the last fragment on the FAT if n
2520:Core/FatFs/Src/ff.c **** 			if (res != FR_OK) return res;
2521:Core/FatFs/Src/ff.c **** 			if (dp->obj.sclust != 0) {		/* Is it a sub-directory? */
2522:Core/FatFs/Src/ff.c **** 				DIR dj;
2523:Core/FatFs/Src/ff.c **** 
2524:Core/FatFs/Src/ff.c **** 				res = load_obj_xdir(&dj, &dp->obj);	/* Load the object status */
2525:Core/FatFs/Src/ff.c **** 				if (res != FR_OK) return res;
2526:Core/FatFs/Src/ff.c **** 				dp->obj.objsize += (DWORD)fs->csize * SS(fs);		/* Increase the directory size by cluster size *
2527:Core/FatFs/Src/ff.c **** 				st_64(fs->dirbuf + XDIR_FileSize, dp->obj.objsize);
2528:Core/FatFs/Src/ff.c **** 				st_64(fs->dirbuf + XDIR_ValidFileSize, dp->obj.objsize);
2529:Core/FatFs/Src/ff.c **** 				fs->dirbuf[XDIR_GenFlags] = dp->obj.stat | 1;	/* Update the allocation status */
2530:Core/FatFs/Src/ff.c **** 				res = store_xdir(&dj);				/* Store the object status */
2531:Core/FatFs/Src/ff.c **** 				if (res != FR_OK) return res;
2532:Core/FatFs/Src/ff.c **** #if FF_FS_RPATH	/* Refrect changes to the current dir chain if the stretched dir is in it */
2533:Core/FatFs/Src/ff.c **** 				for (n = 1; n <= fs->xcwds.depth && dp->obj.sclust != fs->xcwds.tbl[n].d_scl; n++) ;	/* Check i
2534:Core/FatFs/Src/ff.c **** 				if (n <= fs->xcwds.depth) {		/* If exist, update it */
2535:Core/FatFs/Src/ff.c **** 					fs->xcwds.tbl[n].d_size = (DWORD)dp->obj.objsize | dp->obj.stat;
2536:Core/FatFs/Src/ff.c **** 				}
2537:Core/FatFs/Src/ff.c **** #endif
2538:Core/FatFs/Src/ff.c **** 			}
2539:Core/FatFs/Src/ff.c **** 		}
2540:Core/FatFs/Src/ff.c **** 
2541:Core/FatFs/Src/ff.c **** 		create_xdir(fs->dirbuf, fs->lfnbuf);	/* Create on-memory directory block to be written later */
2542:Core/FatFs/Src/ff.c **** 		return FR_OK;
2543:Core/FatFs/Src/ff.c **** 	}
2544:Core/FatFs/Src/ff.c **** #endif
2545:Core/FatFs/Src/ff.c **** 	/* On the FAT/FAT32 volume */
2546:Core/FatFs/Src/ff.c **** 	memcpy(sn, dp->fn, 12);
2547:Core/FatFs/Src/ff.c **** 	if (sn[NSFLAG] & NS_LOSS) {			/* When LFN is out of 8.3 format, generate a numbered name */
2548:Core/FatFs/Src/ff.c **** 		dp->fn[NSFLAG] = NS_NOLFN;		/* Find only SFN */
2549:Core/FatFs/Src/ff.c **** 		for (n = 1; n < 100; n++) {
2550:Core/FatFs/Src/ff.c **** 			gen_numname(dp->fn, sn, fs->lfnbuf, (WORD)n);	/* Generate a numbered name */
2551:Core/FatFs/Src/ff.c **** 			res = dir_find(dp);				/* Check if the name collides with existing SFN */
2552:Core/FatFs/Src/ff.c **** 			if (res != FR_OK) break;
2553:Core/FatFs/Src/ff.c **** 		}
2554:Core/FatFs/Src/ff.c **** 		if (n == 100) return FR_DENIED;		/* Abort if too many collisions */
2555:Core/FatFs/Src/ff.c **** 		if (res != FR_NO_FILE) return res;	/* Abort if the result is other than 'not collided' */
ARM GAS  C:\Users\84759\AppData\Local\Temp\cc0twHqK.s 			page 69


2556:Core/FatFs/Src/ff.c **** 		dp->fn[NSFLAG] = sn[NSFLAG];
2557:Core/FatFs/Src/ff.c **** 	}
2558:Core/FatFs/Src/ff.c **** 
2559:Core/FatFs/Src/ff.c **** 	/* Create an SFN with/without LFNs. */
2560:Core/FatFs/Src/ff.c **** 	n_ent = (sn[NSFLAG] & NS_LFN) ? (len + 12) / 13 + 1 : 1;	/* Number of entries to allocate */
2561:Core/FatFs/Src/ff.c **** 	res = dir_alloc(dp, n_ent);		/* Allocate entries */
2562:Core/FatFs/Src/ff.c **** 	if (res == FR_OK && --n_ent) {	/* Set LFN entry if needed */
2563:Core/FatFs/Src/ff.c **** 		res = dir_sdi(dp, dp->dptr - n_ent * SZDIRE);
2564:Core/FatFs/Src/ff.c **** 		if (res == FR_OK) {
2565:Core/FatFs/Src/ff.c **** 			BYTE sum = sum_sfn(dp->fn);	/* Checksum value of the SFN tied to the LFN */
2566:Core/FatFs/Src/ff.c **** 
2567:Core/FatFs/Src/ff.c **** 			do {					/* Store LFN entries in bottom first */
2568:Core/FatFs/Src/ff.c **** 				res = move_window(fs, dp->sect);
2569:Core/FatFs/Src/ff.c **** 				if (res != FR_OK) break;
2570:Core/FatFs/Src/ff.c **** 				put_lfn(fs->lfnbuf, dp->dir, (BYTE)n_ent, sum);
2571:Core/FatFs/Src/ff.c **** 				fs->wflag = 1;
2572:Core/FatFs/Src/ff.c **** 				res = dir_next(dp, 0);	/* Next entry */
2573:Core/FatFs/Src/ff.c **** 			} while (res == FR_OK && --n_ent);
2574:Core/FatFs/Src/ff.c **** 		}
2575:Core/FatFs/Src/ff.c **** 	}
2576:Core/FatFs/Src/ff.c **** 
2577:Core/FatFs/Src/ff.c **** #else	/* Non LFN configuration */
2578:Core/FatFs/Src/ff.c **** 	res = dir_alloc(dp, 1);		/* Allocate an entry for SFN */
2579:Core/FatFs/Src/ff.c **** 
2580:Core/FatFs/Src/ff.c **** #endif
2581:Core/FatFs/Src/ff.c **** 
2582:Core/FatFs/Src/ff.c **** 	/* Set SFN entry */
2583:Core/FatFs/Src/ff.c **** 	if (res == FR_OK) {
2584:Core/FatFs/Src/ff.c **** 		res = move_window(fs, dp->sect);
2585:Core/FatFs/Src/ff.c **** 		if (res == FR_OK) {
2586:Core/FatFs/Src/ff.c **** 			memset(dp->dir, 0, SZDIRE);	/* Clean the entry */
2587:Core/FatFs/Src/ff.c **** 			memcpy(dp->dir + DIR_Name, dp->fn, 11);	/* Put SFN */
2588:Core/FatFs/Src/ff.c **** #if FF_USE_LFN
2589:Core/FatFs/Src/ff.c **** 			dp->dir[DIR_NTres] = dp->fn[NSFLAG] & (NS_BODY | NS_EXT);	/* Put low-case flags */
2590:Core/FatFs/Src/ff.c **** #endif
2591:Core/FatFs/Src/ff.c **** 			fs->wflag = 1;
2592:Core/FatFs/Src/ff.c **** 		}
2593:Core/FatFs/Src/ff.c **** 	}
2594:Core/FatFs/Src/ff.c **** 
2595:Core/FatFs/Src/ff.c **** 	return res;
2596:Core/FatFs/Src/ff.c **** }
2597:Core/FatFs/Src/ff.c **** 
2598:Core/FatFs/Src/ff.c **** #endif /* !FF_FS_READONLY */
2599:Core/FatFs/Src/ff.c **** 
2600:Core/FatFs/Src/ff.c **** 
2601:Core/FatFs/Src/ff.c **** 
2602:Core/FatFs/Src/ff.c **** #if !FF_FS_READONLY && FF_FS_MINIMIZE == 0
2603:Core/FatFs/Src/ff.c **** /*-----------------------------------------------------------------------*/
2604:Core/FatFs/Src/ff.c **** /* Remove an object from the directory                                   */
2605:Core/FatFs/Src/ff.c **** /*-----------------------------------------------------------------------*/
2606:Core/FatFs/Src/ff.c **** 
2607:Core/FatFs/Src/ff.c **** static FRESULT dir_remove (	/* FR_OK:Succeeded, FR_DISK_ERR:A disk error */
2608:Core/FatFs/Src/ff.c **** 	DIR* dp					/* Directory object pointing the entry to be removed */
2609:Core/FatFs/Src/ff.c **** )
2610:Core/FatFs/Src/ff.c **** {
2611:Core/FatFs/Src/ff.c **** 	FRESULT res;
2612:Core/FatFs/Src/ff.c **** 	FATFS *fs = dp->obj.fs;
ARM GAS  C:\Users\84759\AppData\Local\Temp\cc0twHqK.s 			page 70


2613:Core/FatFs/Src/ff.c **** #if FF_USE_LFN		/* LFN configuration */
2614:Core/FatFs/Src/ff.c **** 	DWORD last = dp->dptr;
2615:Core/FatFs/Src/ff.c **** 
2616:Core/FatFs/Src/ff.c **** 	res = (dp->blk_ofs == 0xFFFFFFFF) ? FR_OK : dir_sdi(dp, dp->blk_ofs);	/* Goto top of the entry blo
2617:Core/FatFs/Src/ff.c **** 	if (res == FR_OK) {
2618:Core/FatFs/Src/ff.c **** 		do {
2619:Core/FatFs/Src/ff.c **** 			res = move_window(fs, dp->sect);
2620:Core/FatFs/Src/ff.c **** 			if (res != FR_OK) break;
2621:Core/FatFs/Src/ff.c **** 			if (FF_FS_EXFAT && fs->fs_type == FS_EXFAT) {	/* On the exFAT volume */
2622:Core/FatFs/Src/ff.c **** 				dp->dir[XDIR_Type] &= 0x7F;	/* Clear the entry InUse flag. */
2623:Core/FatFs/Src/ff.c **** 			} else {										/* On the FAT/FAT32 volume */
2624:Core/FatFs/Src/ff.c **** 				dp->dir[DIR_Name] = DDEM;	/* Mark the entry 'deleted'. */
2625:Core/FatFs/Src/ff.c **** 			}
2626:Core/FatFs/Src/ff.c **** 			fs->wflag = 1;
2627:Core/FatFs/Src/ff.c **** 			if (dp->dptr >= last) break;	/* If reached last entry then all entries of the object has been de
2628:Core/FatFs/Src/ff.c **** 			res = dir_next(dp, 0);	/* Next entry */
2629:Core/FatFs/Src/ff.c **** 		} while (res == FR_OK);
2630:Core/FatFs/Src/ff.c **** 		if (res == FR_NO_FILE) res = FR_INT_ERR;
2631:Core/FatFs/Src/ff.c **** 	}
2632:Core/FatFs/Src/ff.c **** #else			/* Non LFN configuration */
2633:Core/FatFs/Src/ff.c **** 
2634:Core/FatFs/Src/ff.c **** 	res = move_window(fs, dp->sect);
2635:Core/FatFs/Src/ff.c **** 	if (res == FR_OK) {
2636:Core/FatFs/Src/ff.c **** 		dp->dir[DIR_Name] = DDEM;	/* Mark the entry 'deleted'.*/
2637:Core/FatFs/Src/ff.c **** 		fs->wflag = 1;
2638:Core/FatFs/Src/ff.c **** 	}
2639:Core/FatFs/Src/ff.c **** #endif
2640:Core/FatFs/Src/ff.c **** 
2641:Core/FatFs/Src/ff.c **** 	return res;
2642:Core/FatFs/Src/ff.c **** }
2643:Core/FatFs/Src/ff.c **** 
2644:Core/FatFs/Src/ff.c **** #endif /* !FF_FS_READONLY && FF_FS_MINIMIZE == 0 */
2645:Core/FatFs/Src/ff.c **** 
2646:Core/FatFs/Src/ff.c **** 
2647:Core/FatFs/Src/ff.c **** 
2648:Core/FatFs/Src/ff.c **** #if FF_FS_MINIMIZE <= 1 || FF_FS_RPATH >= 2
2649:Core/FatFs/Src/ff.c **** /*-----------------------------------------------------------------------*/
2650:Core/FatFs/Src/ff.c **** /* Get file information from directory entry                             */
2651:Core/FatFs/Src/ff.c **** /*-----------------------------------------------------------------------*/
2652:Core/FatFs/Src/ff.c **** 
2653:Core/FatFs/Src/ff.c **** static void get_fileinfo (
2654:Core/FatFs/Src/ff.c **** 	DIR* dp,			/* Pointer to the directory object */
2655:Core/FatFs/Src/ff.c **** 	FILINFO* fno		/* Pointer to the file information to be filled */
2656:Core/FatFs/Src/ff.c **** )
2657:Core/FatFs/Src/ff.c **** {
2658:Core/FatFs/Src/ff.c **** 	UINT si, di;
2659:Core/FatFs/Src/ff.c **** #if FF_USE_LFN
2660:Core/FatFs/Src/ff.c **** 	WCHAR wc, hs;
2661:Core/FatFs/Src/ff.c **** 	FATFS *fs = dp->obj.fs;
2662:Core/FatFs/Src/ff.c **** 	UINT nw;
2663:Core/FatFs/Src/ff.c **** #else
2664:Core/FatFs/Src/ff.c **** 	TCHAR c;
2665:Core/FatFs/Src/ff.c **** #endif
2666:Core/FatFs/Src/ff.c **** 
2667:Core/FatFs/Src/ff.c **** 
2668:Core/FatFs/Src/ff.c **** 	fno->fname[0] = 0;
2669:Core/FatFs/Src/ff.c **** 	if (dp->sect == 0) return;	/* Exit if read pointer has reached end of directory */
ARM GAS  C:\Users\84759\AppData\Local\Temp\cc0twHqK.s 			page 71


2670:Core/FatFs/Src/ff.c **** 
2671:Core/FatFs/Src/ff.c **** #if FF_USE_LFN		/* LFN configuration */
2672:Core/FatFs/Src/ff.c **** #if FF_FS_EXFAT
2673:Core/FatFs/Src/ff.c **** 	if (fs->fs_type == FS_EXFAT) {	/* exFAT volume */
2674:Core/FatFs/Src/ff.c **** 		UINT nc = 0;
2675:Core/FatFs/Src/ff.c **** 
2676:Core/FatFs/Src/ff.c **** 		si = SZDIRE * 2; di = 0;	/* 1st C1 entry in the entry block */
2677:Core/FatFs/Src/ff.c **** 		hs = 0;
2678:Core/FatFs/Src/ff.c **** 		while (nc < fs->dirbuf[XDIR_NumName]) {
2679:Core/FatFs/Src/ff.c **** 			if (si >= MAXDIRB(FF_MAX_LFN)) {	/* Truncated directory block? */
2680:Core/FatFs/Src/ff.c **** 				di = 0; break;
2681:Core/FatFs/Src/ff.c **** 			}
2682:Core/FatFs/Src/ff.c **** 			if ((si % SZDIRE) == 0) si += 2;	/* Skip entry type field */
2683:Core/FatFs/Src/ff.c **** 			wc = ld_16(fs->dirbuf + si); si += 2; nc++;	/* Get a character */
2684:Core/FatFs/Src/ff.c **** 			if (hs == 0 && IsSurrogate(wc)) {	/* Is it a surrogate? */
2685:Core/FatFs/Src/ff.c **** 				hs = wc; continue;				/* Get low surrogate */
2686:Core/FatFs/Src/ff.c **** 			}
2687:Core/FatFs/Src/ff.c **** 			nw = put_utf((DWORD)hs << 16 | wc, &fno->fname[di], FF_LFN_BUF - di);	/* Store it in API encodin
2688:Core/FatFs/Src/ff.c **** 			if (nw == 0) {						/* Buffer overflow or wrong char? */
2689:Core/FatFs/Src/ff.c **** 				di = 0; break;
2690:Core/FatFs/Src/ff.c **** 			}
2691:Core/FatFs/Src/ff.c **** 			di += nw;
2692:Core/FatFs/Src/ff.c **** 			hs = 0;
2693:Core/FatFs/Src/ff.c **** 		}
2694:Core/FatFs/Src/ff.c **** 		if (hs != 0) di = 0;					/* Broken surrogate pair? */
2695:Core/FatFs/Src/ff.c **** 		if (di == 0) fno->fname[di++] = '\?';	/* Inaccessible object name? */
2696:Core/FatFs/Src/ff.c **** 		fno->fname[di] = 0;						/* Terminate the name */
2697:Core/FatFs/Src/ff.c **** 		fno->altname[0] = 0;					/* exFAT does not support SFN */
2698:Core/FatFs/Src/ff.c **** 
2699:Core/FatFs/Src/ff.c **** 		fno->fattrib = fs->dirbuf[XDIR_Attr] & AM_MASKX;	/* Attribute */
2700:Core/FatFs/Src/ff.c **** 		fno->fsize = (fno->fattrib & AM_DIR) ? 0 : ld_64(fs->dirbuf + XDIR_FileSize);	/* Size */
2701:Core/FatFs/Src/ff.c **** 		fno->ftime = ld_16(fs->dirbuf + XDIR_ModTime + 0);	/* Last modified time */
2702:Core/FatFs/Src/ff.c **** 		fno->fdate = ld_16(fs->dirbuf + XDIR_ModTime + 2);	/* Last modified date */
2703:Core/FatFs/Src/ff.c **** #if FF_FS_CRTIME
2704:Core/FatFs/Src/ff.c **** 		fno->crtime = ld_16(fs->dirbuf + XDIR_CrtTime + 0);	/* Created time */
2705:Core/FatFs/Src/ff.c **** 		fno->crdate = ld_16(fs->dirbuf + XDIR_CrtTime + 2);	/* Created date */
2706:Core/FatFs/Src/ff.c **** #endif
2707:Core/FatFs/Src/ff.c **** 		return;
2708:Core/FatFs/Src/ff.c **** 	} else
2709:Core/FatFs/Src/ff.c **** #endif
2710:Core/FatFs/Src/ff.c **** 	{	/* FAT/FAT32 volume */
2711:Core/FatFs/Src/ff.c **** 		if (dp->blk_ofs != 0xFFFFFFFF) {	/* Get LFN if available */
2712:Core/FatFs/Src/ff.c **** 			si = di = 0;
2713:Core/FatFs/Src/ff.c **** 			hs = 0;
2714:Core/FatFs/Src/ff.c **** 			while (fs->lfnbuf[si] != 0) {
2715:Core/FatFs/Src/ff.c **** 				wc = fs->lfnbuf[si++];		/* Get an LFN character (UTF-16) */
2716:Core/FatFs/Src/ff.c **** 				if (hs == 0 && IsSurrogate(wc)) {	/* Is it a surrogate? */
2717:Core/FatFs/Src/ff.c **** 					hs = wc; continue;		/* Get low surrogate */
2718:Core/FatFs/Src/ff.c **** 				}
2719:Core/FatFs/Src/ff.c **** 				nw = put_utf((DWORD)hs << 16 | wc, &fno->fname[di], FF_LFN_BUF - di);	/* Store it in API encodi
2720:Core/FatFs/Src/ff.c **** 				if (nw == 0) {				/* Buffer overflow or wrong char? */
2721:Core/FatFs/Src/ff.c **** 					di = 0; break;
2722:Core/FatFs/Src/ff.c **** 				}
2723:Core/FatFs/Src/ff.c **** 				di += nw;
2724:Core/FatFs/Src/ff.c **** 				hs = 0;
2725:Core/FatFs/Src/ff.c **** 			}
2726:Core/FatFs/Src/ff.c **** 			if (hs != 0) di = 0;	/* Broken surrogate pair? */
ARM GAS  C:\Users\84759\AppData\Local\Temp\cc0twHqK.s 			page 72


2727:Core/FatFs/Src/ff.c **** 			fno->fname[di] = 0;		/* Terminate the LFN (null string means LFN is invalid) */
2728:Core/FatFs/Src/ff.c **** 		}
2729:Core/FatFs/Src/ff.c **** 	}
2730:Core/FatFs/Src/ff.c **** 
2731:Core/FatFs/Src/ff.c **** 	si = di = 0;
2732:Core/FatFs/Src/ff.c **** 	while (si < 11) {		/* Get SFN from SFN entry */
2733:Core/FatFs/Src/ff.c **** 		wc = dp->dir[si++];			/* Get a char */
2734:Core/FatFs/Src/ff.c **** 		if (wc == ' ') continue;	/* Skip padding spaces */
2735:Core/FatFs/Src/ff.c **** 		if (wc == RDDEM) wc = DDEM;	/* Restore replaced DDEM character */
2736:Core/FatFs/Src/ff.c **** 		if (si == 9 && di < FF_SFN_BUF) fno->altname[di++] = '.';	/* Insert a . if extension is exist */
2737:Core/FatFs/Src/ff.c **** #if FF_LFN_UNICODE >= 1	/* Unicode output */
2738:Core/FatFs/Src/ff.c **** 		if (dbc_1st((BYTE)wc) && si != 8 && si != 11 && dbc_2nd(dp->dir[si])) {	/* Make a DBC if needed *
2739:Core/FatFs/Src/ff.c **** 			wc = wc << 8 | dp->dir[si++];
2740:Core/FatFs/Src/ff.c **** 		}
2741:Core/FatFs/Src/ff.c **** 		wc = ff_oem2uni(wc, CODEPAGE);		/* ANSI/OEM -> Unicode */
2742:Core/FatFs/Src/ff.c **** 		if (wc == 0) {				/* Wrong char in the current code page? */
2743:Core/FatFs/Src/ff.c **** 			di = 0; break;
2744:Core/FatFs/Src/ff.c **** 		}
2745:Core/FatFs/Src/ff.c **** 		nw = put_utf(wc, &fno->altname[di], FF_SFN_BUF - di);	/* Store it in API encoding */
2746:Core/FatFs/Src/ff.c **** 		if (nw == 0) {				/* Buffer overflow? */
2747:Core/FatFs/Src/ff.c **** 			di = 0; break;
2748:Core/FatFs/Src/ff.c **** 		}
2749:Core/FatFs/Src/ff.c **** 		di += nw;
2750:Core/FatFs/Src/ff.c **** #else					/* ANSI/OEM output */
2751:Core/FatFs/Src/ff.c **** 		fno->altname[di++] = (TCHAR)wc;	/* Store it without any conversion */
2752:Core/FatFs/Src/ff.c **** #endif
2753:Core/FatFs/Src/ff.c **** 	}
2754:Core/FatFs/Src/ff.c **** 	fno->altname[di] = 0;	/* Terminate the SFN  (null string means SFN is invalid) */
2755:Core/FatFs/Src/ff.c **** 
2756:Core/FatFs/Src/ff.c **** 	if (!fno->fname[0]) {	/* If LFN is invalid, altname[] needs to be copied to fname[] */
2757:Core/FatFs/Src/ff.c **** 		if (di == 0) {		/* If LFN and SFN both are invalid, */
2758:Core/FatFs/Src/ff.c **** 			fno->fname[di++] = '\?';	/* This object is inaccessible due to wrong buffer or locale settings *
2759:Core/FatFs/Src/ff.c **** 		} else {
2760:Core/FatFs/Src/ff.c **** 			BYTE lcflg = NS_BODY;
2761:Core/FatFs/Src/ff.c **** 
2762:Core/FatFs/Src/ff.c **** 			for (si = di = 0; fno->altname[si]; si++, di++) {	/* Copy altname[] to fname[] with case informa
2763:Core/FatFs/Src/ff.c **** 				wc = (WCHAR)fno->altname[si];
2764:Core/FatFs/Src/ff.c **** 				if (wc == '.') lcflg = NS_EXT;
2765:Core/FatFs/Src/ff.c **** 				if (IsUpper(wc) && (dp->dir[DIR_NTres] & lcflg)) wc += 0x20;
2766:Core/FatFs/Src/ff.c **** 				fno->fname[di] = (TCHAR)wc;
2767:Core/FatFs/Src/ff.c **** 			}
2768:Core/FatFs/Src/ff.c **** 		}
2769:Core/FatFs/Src/ff.c **** 		fno->fname[di] = 0;	/* Terminate the LFN */
2770:Core/FatFs/Src/ff.c **** 		if (!dp->dir[DIR_NTres]) fno->altname[0] = 0;	/* Altname is not needed if neither LFN nor case in
2771:Core/FatFs/Src/ff.c **** 	}
2772:Core/FatFs/Src/ff.c **** 
2773:Core/FatFs/Src/ff.c **** #else	/* Non-LFN configuration */
2774:Core/FatFs/Src/ff.c **** 	si = di = 0;
2775:Core/FatFs/Src/ff.c **** 	while (si < 11) {		/* Copy name body and extension */
2776:Core/FatFs/Src/ff.c **** 		c = (TCHAR)dp->dir[si++];
2777:Core/FatFs/Src/ff.c **** 		if (c == ' ') continue;		/* Skip padding spaces */
2778:Core/FatFs/Src/ff.c **** 		if (c == RDDEM) c = DDEM;	/* Restore replaced DDEM character */
2779:Core/FatFs/Src/ff.c **** 		if (si == 9) fno->fname[di++] = '.';/* Insert a . if extension is exist */
2780:Core/FatFs/Src/ff.c **** 		fno->fname[di++] = c;
2781:Core/FatFs/Src/ff.c **** 	}
2782:Core/FatFs/Src/ff.c **** 	fno->fname[di] = 0;		/* Terminate the SFN */
2783:Core/FatFs/Src/ff.c **** #endif
ARM GAS  C:\Users\84759\AppData\Local\Temp\cc0twHqK.s 			page 73


2784:Core/FatFs/Src/ff.c **** 
2785:Core/FatFs/Src/ff.c **** 	fno->fattrib = dp->dir[DIR_Attr] & AM_MASK;		/* Attribute */
2786:Core/FatFs/Src/ff.c **** 	fno->fsize = ld_32(dp->dir + DIR_FileSize);		/* Size */
2787:Core/FatFs/Src/ff.c **** 	fno->ftime = ld_16(dp->dir + DIR_ModTime + 0);	/* Last modified time */
2788:Core/FatFs/Src/ff.c **** 	fno->fdate = ld_16(dp->dir + DIR_ModTime + 2);	/* Last Modified date */
2789:Core/FatFs/Src/ff.c **** #if FF_FS_CRTIME
2790:Core/FatFs/Src/ff.c **** 	fno->crtime = ld_16(dp->dir + DIR_CrtTime + 0);	/* Created time */
2791:Core/FatFs/Src/ff.c **** 	fno->crdate = ld_16(dp->dir + DIR_CrtTime + 2);	/* Created date */
2792:Core/FatFs/Src/ff.c **** #endif
2793:Core/FatFs/Src/ff.c **** }
2794:Core/FatFs/Src/ff.c **** 
2795:Core/FatFs/Src/ff.c **** #endif /* FF_FS_MINIMIZE <= 1 || FF_FS_RPATH >= 2 */
2796:Core/FatFs/Src/ff.c **** 
2797:Core/FatFs/Src/ff.c **** 
2798:Core/FatFs/Src/ff.c **** 
2799:Core/FatFs/Src/ff.c **** #if FF_USE_FIND && FF_FS_MINIMIZE <= 1
2800:Core/FatFs/Src/ff.c **** /*-----------------------------------------------------------------------*/
2801:Core/FatFs/Src/ff.c **** /* Pattern matching                                                      */
2802:Core/FatFs/Src/ff.c **** /*-----------------------------------------------------------------------*/
2803:Core/FatFs/Src/ff.c **** 
2804:Core/FatFs/Src/ff.c **** #define FIND_RECURS	4	/* Maximum number of wildcard terms in the pattern to limit recursion */
2805:Core/FatFs/Src/ff.c **** 
2806:Core/FatFs/Src/ff.c **** 
2807:Core/FatFs/Src/ff.c **** static DWORD get_achar (	/* Get a character and advance ptr */
2808:Core/FatFs/Src/ff.c **** 	const TCHAR** ptr		/* Pointer to pointer to the ANSI/OEM or Unicode string */
2809:Core/FatFs/Src/ff.c **** )
2810:Core/FatFs/Src/ff.c **** {
2811:Core/FatFs/Src/ff.c **** 	DWORD chr;
2812:Core/FatFs/Src/ff.c **** 
2813:Core/FatFs/Src/ff.c **** 
2814:Core/FatFs/Src/ff.c **** #if FF_USE_LFN && FF_LFN_UNICODE >= 1	/* Unicode input */
2815:Core/FatFs/Src/ff.c **** 	chr = tchar2uni(ptr);
