ARM GAS  C:\Users\84759\AppData\Local\Temp\ccCf9GIG.s 			page 1


   1              		.cpu cortex-m3
   2              		.arch armv7-m
   3              		.fpu softvfp
   4              		.eabi_attribute 20, 1
   5              		.eabi_attribute 21, 1
   6              		.eabi_attribute 23, 3
   7              		.eabi_attribute 24, 1
   8              		.eabi_attribute 25, 1
   9              		.eabi_attribute 26, 1
  10              		.eabi_attribute 30, 1
  11              		.eabi_attribute 34, 1
  12              		.eabi_attribute 18, 4
  13              		.file	"main.c"
  14              		.text
  15              	.Ltext0:
  16              		.cfi_sections	.debug_frame
  17              		.section	.text.UsbPrintf,"ax",%progbits
  18              		.align	1
  19              		.global	UsbPrintf
  20              		.syntax unified
  21              		.thumb
  22              		.thumb_func
  24              	UsbPrintf:
  25              	.LVL0:
  26              	.LFB70:
  27              		.file 1 "Core/Src/main.c"
   1:Core/Src/main.c **** /* USER CODE BEGIN Header */
   2:Core/Src/main.c **** /**
   3:Core/Src/main.c ****   ******************************************************************************
   4:Core/Src/main.c ****   * @file           : main.c
   5:Core/Src/main.c ****   * @brief          : Main program body
   6:Core/Src/main.c ****   ******************************************************************************
   7:Core/Src/main.c ****   * @attention
   8:Core/Src/main.c ****   *
   9:Core/Src/main.c ****   * Copyright (c) 2025 STMicroelectronics.
  10:Core/Src/main.c ****   * All rights reserved.
  11:Core/Src/main.c ****   *
  12:Core/Src/main.c ****   * This software is licensed under terms that can be found in the LICENSE file
  13:Core/Src/main.c ****   * in the root directory of this software component.
  14:Core/Src/main.c ****   * If no LICENSE file comes with this software, it is provided AS-IS.
  15:Core/Src/main.c ****   *
  16:Core/Src/main.c ****   ******************************************************************************
  17:Core/Src/main.c ****   */
  18:Core/Src/main.c **** /* USER CODE END Header */
  19:Core/Src/main.c **** /* Includes ------------------------------------------------------------------*/
  20:Core/Src/main.c **** #include "main.h"
  21:Core/Src/main.c **** #include "dma.h"
  22:Core/Src/main.c **** #include "i2c.h"
  23:Core/Src/main.c **** #include "spi.h"
  24:Core/Src/main.c **** #include "usart.h"
  25:Core/Src/main.c **** #include "gpio.h"
  26:Core/Src/main.c **** #include "flash.h"
  27:Core/Src/main.c **** 
  28:Core/Src/main.c **** /* Private includes ----------------------------------------------------------*/
  29:Core/Src/main.c **** /* USER CODE BEGIN Includes */
  30:Core/Src/main.c **** #include "../FatFs/Inc/diskio.h"
  31:Core/Src/main.c **** #include "../FatFs/Inc/ff.h"
ARM GAS  C:\Users\84759\AppData\Local\Temp\ccCf9GIG.s 			page 2


  32:Core/Src/main.c **** #include "../FatFs/Inc/ffconf.h"
  33:Core/Src/main.c **** 
  34:Core/Src/main.c **** 
  35:Core/Src/main.c **** /* USER CODE END Includes */
  36:Core/Src/main.c **** 
  37:Core/Src/main.c **** /* Private typedef -----------------------------------------------------------*/
  38:Core/Src/main.c **** /* USER CODE BEGIN PTD */
  39:Core/Src/main.c **** 
  40:Core/Src/main.c **** /* USER CODE END PTD */
  41:Core/Src/main.c **** 
  42:Core/Src/main.c **** /* Private define ------------------------------------------------------------*/
  43:Core/Src/main.c **** /* USER CODE BEGIN PD */
  44:Core/Src/main.c **** 
  45:Core/Src/main.c **** /* USER CODE END PD */
  46:Core/Src/main.c **** 
  47:Core/Src/main.c **** /* Private macro -------------------------------------------------------------*/
  48:Core/Src/main.c **** /* USER CODE BEGIN PM */
  49:Core/Src/main.c **** 
  50:Core/Src/main.c **** /* USER CODE END PM */
  51:Core/Src/main.c **** 
  52:Core/Src/main.c **** /* Private variables ---------------------------------------------------------*/
  53:Core/Src/main.c **** 
  54:Core/Src/main.c **** /* USER CODE BEGIN PV */
  55:Core/Src/main.c **** 
  56:Core/Src/main.c **** /* USER CODE END PV */
  57:Core/Src/main.c **** 
  58:Core/Src/main.c **** /* Private function prototypes -----------------------------------------------*/
  59:Core/Src/main.c **** void SystemClock_Config(void);
  60:Core/Src/main.c **** /* USER CODE BEGIN PFP */
  61:Core/Src/main.c **** 
  62:Core/Src/main.c **** /* USER CODE END PFP */
  63:Core/Src/main.c **** 
  64:Core/Src/main.c **** /* Private user code ---------------------------------------------------------*/
  65:Core/Src/main.c **** /* USER CODE BEGIN 0 */
  66:Core/Src/main.c ****   uint8_t send_test[] = "USART1 DMA Idle Test\r\n";
  67:Core/Src/main.c ****   uint8_t recv_buff[USART1_DMA_RX_BUFF_SIZE] = {0};  // 用户数据缓冲区
  68:Core/Src/main.c **** 
  69:Core/Src/main.c **** 
  70:Core/Src/main.c ****   FATFS fs;        // FatFs文件系统对象
  71:Core/Src/main.c ****   FRESULT res;     // 操作结果
  72:Core/Src/main.c **** 
  73:Core/Src/main.c **** 
  74:Core/Src/main.c **** 
  75:Core/Src/main.c **** /* USER CODE END 0 */
  76:Core/Src/main.c **** 
  77:Core/Src/main.c **** /**
  78:Core/Src/main.c ****   * @brief  The application entry point.
  79:Core/Src/main.c ****   * @retval int
  80:Core/Src/main.c ****   */
  81:Core/Src/main.c **** int main(void)
  82:Core/Src/main.c **** {
  83:Core/Src/main.c ****   /* USER CODE BEGIN 1 */
  84:Core/Src/main.c **** 
  85:Core/Src/main.c ****   /* USER CODE END 1 */
  86:Core/Src/main.c **** 
  87:Core/Src/main.c ****   /* MCU Configuration--------------------------------------------------------*/
  88:Core/Src/main.c **** 
ARM GAS  C:\Users\84759\AppData\Local\Temp\ccCf9GIG.s 			page 3


  89:Core/Src/main.c ****   /* Reset of all peripherals, Initializes the Flash interface and the Systick. */
  90:Core/Src/main.c ****   HAL_Init();
  91:Core/Src/main.c **** 
  92:Core/Src/main.c ****   /* USER CODE BEGIN Init */
  93:Core/Src/main.c **** 
  94:Core/Src/main.c ****   /* USER CODE END Init */
  95:Core/Src/main.c **** 
  96:Core/Src/main.c ****   /* Configure the system clock */
  97:Core/Src/main.c ****   SystemClock_Config();
  98:Core/Src/main.c **** 
  99:Core/Src/main.c ****   /* USER CODE BEGIN SysInit */
 100:Core/Src/main.c **** 
 101:Core/Src/main.c ****   /* USER CODE END SysInit */
 102:Core/Src/main.c **** 
 103:Core/Src/main.c ****   /* Initialize all configured peripherals */
 104:Core/Src/main.c ****   MX_GPIO_Init();
 105:Core/Src/main.c ****   MX_DMA_Init();
 106:Core/Src/main.c ****   MX_USART1_UART_Init();
 107:Core/Src/main.c ****   MX_SPI1_Init();
 108:Core/Src/main.c ****   MX_SPI2_Init();
 109:Core/Src/main.c ****   MX_USART2_UART_Init();
 110:Core/Src/main.c ****   MX_I2C1_Init();
 111:Core/Src/main.c ****   HAL_Delay(50);  // 硬件稳定延时
 112:Core/Src/main.c ****   /* USER CODE BEGIN 2 */
 113:Core/Src/main.c ****   uint32_t systemTick = 0;//, FLASH_ID=0；
 114:Core/Src/main.c **** 
 115:Core/Src/main.c ****   /* spi测试
 116:Core/Src/main.c ****   //UsbPrintf("SPI TEST\n");   
 117:Core/Src/main.c ****   //FLASH_ID=SPI1_ReadID();//EF 40 17
 118:Core/Src/main.c ****   //UsbPrintf("%x\n",FLASH_ID);
 119:Core/Src/main.c ****   //SPI2_Send(); //25 07 29 30 24 26 82 96
 120:Core/Src/main.c ****  
 121:Core/Src/main.c ****   // 启动USART1 DMA接收
 122:Core/Src/main.c ****   // if (USART1_DMA_StartRx() != HAL_OK) {
 123:Core/Src/main.c ****   //   Error_Handler();
 124:Core/Src/main.c ****   // }
 125:Core/Src/main.c ****   //uint8_t recv_buff[USART1_DMA_RX_BUFF_SIZE] = {0};  // 用户数据缓冲区
 126:Core/Src/main.c ****  */
 127:Core/Src/main.c ****  
 128:Core/Src/main.c ****   flash_device_id();
 129:Core/Src/main.c ****  
 130:Core/Src/main.c ****   /* USER CODE END 2 */
 131:Core/Src/main.c ****   /* Infinite loop */
 132:Core/Src/main.c ****   /* USER CODE BEGIN WHILE */
 133:Core/Src/main.c **** 
 134:Core/Src/main.c ****   /* flash测试
 135:Core/Src/main.c ****   // 1. 读取Flash ID
 136:Core/Src/main.c ****   uint16_t flash_id = flash_device_id();
 137:Core/Src/main.c ****   UsbPrintf("Flash ID: 0x%04X\r\n", flash_id); // 
 138:Core/Src/main.c **** 
 139:Core/Src/main.c ****   // 2. 测试扇区擦除+读写
 140:Core/Src/main.c ****   uint8_t test_buf[4096] = {0x55};
 141:Core/Src/main.c ****   int erase_res = flash_erase_sector(0); // 擦除0号扇区
 142:Core/Src/main.c ****   UsbPrintf("Erase Sector 0: %d\r\n", erase_res); // 必须返回1（成功）
 143:Core/Src/main.c ****   int write_res = flash_write_data(0, test_buf, 4096); // 写入0号扇区
 144:Core/Src/main.c ****   UsbPrintf("Write Sector 0: %d\r\n", write_res); // 必须返回1（成功）
 145:Core/Src/main.c ****   memset(test_buf, 0, 4096);
ARM GAS  C:\Users\84759\AppData\Local\Temp\ccCf9GIG.s 			page 4


 146:Core/Src/main.c ****   int read_res = flash_read_data(0, test_buf, 4096); // 读取0号扇区
 147:Core/Src/main.c ****   UsbPrintf("Read Sector 0: %d, Data[0]: 0x%02X\r\n", read_res, test_buf[0]); // 必须返回1，Data[0]
 148:Core/Src/main.c ****   */
 149:Core/Src/main.c **** 
 150:Core/Src/main.c ****   /*diskio测试
 151:Core/Src/main.c ****   // 1. 检查设备状态
 152:Core/Src/main.c ****    
 153:Core/Src/main.c ****   DSTATUS stat = disk_status(0);
 154:Core/Src/main.c ****   UsbPrintf("Disk Status: %d\r\n", stat); // 必须返回0（STA_OK）
 155:Core/Src/main.c **** 
 156:Core/Src/main.c ****   // 2. 检查扇区参数
 157:Core/Src/main.c ****   WORD sector_size;
 158:Core/Src/main.c ****   DWORD sector_count, block_size;
 159:Core/Src/main.c ****   disk_ioctl(0, GET_SECTOR_SIZE, &sector_size);
 160:Core/Src/main.c ****   disk_ioctl(0, GET_SECTOR_COUNT, &sector_count);
 161:Core/Src/main.c ****   disk_ioctl(0, GET_BLOCK_SIZE, &block_size);
 162:Core/Src/main.c ****   UsbPrintf("Sector Size: %d, Total Sector: %d, Block Size: %d\r\n", sector_size, sector_count, blo
 163:Core/Src/main.c ****   // 必须打印：4096, 2048, 16
 164:Core/Src/main.c ****   */
 165:Core/Src/main.c **** 
 166:Core/Src/main.c ****   //fatfs测试
 167:Core/Src/main.c ****   // 挂载+格式化核心逻辑（适配你提供的MKFS_PARM结构体）
 168:Core/Src/main.c ****   UsbPrintf("===== W25Q16 FatFs Mount Test =====\r\n");
 169:Core/Src/main.c ****   res = f_mount(&fs, "0:", 1); // 先尝试挂载逻辑盘0:
 170:Core/Src/main.c ****   if(res == FR_NO_FILESYSTEM)  // 无文件系统，执行格式化
 171:Core/Src/main.c ****   {
 172:Core/Src/main.c ****       UsbPrintf("No FileSystem, Start Format...\r\n");
 173:Core/Src/main.c ****       BYTE work[4096];    // 强制4096字节缓冲区，避免宏定义问题
 174:Core/Src/main.c ****       
 175:Core/Src/main.c ****       // 初始化MKFS_PARM结构体（严格适配W25Q16 2MB）
 176:Core/Src/main.c ****       MKFS_PARM mkfs_param = {0};
 177:Core/Src/main.c ****       mkfs_param.fmt      = FM_FAT | FM_SFD ; // FAT16 + 单分区（2MB仅支持FAT16）
 178:Core/Src/main.c ****       mkfs_param.n_fat    = 2;                // 2个FAT表（标准配置）
 179:Core/Src/main.c ****       mkfs_param.align    = 1;                // 数据区对齐到1个扇区
 180:Core/Src/main.c ****       mkfs_param.n_root   = 64;               // 根目录项数（适配2MB，64项=2KB，节省空间）
 181:Core/Src/main.c ****       mkfs_param.au_size  = 4096;             // 簇大小=4KB（匹配W25Q16物理扇区）
 182:Core/Src/main.c ****       // 调用f_mkfs（传结构体指针，适配新版FatFs）
 183:Core/Src/main.c ****       res = f_mkfs("0:", &mkfs_param, work, sizeof(work));
 184:Core/Src/main.c ****       UsbPrintf("Format Result: %d\r\n", res); // 成功返回0（FR_OK）
 185:Core/Src/main.c ****       
 186:Core/Src/main.c ****       // 格式化成功后，先卸载再重新挂载（避免缓存冲突）
 187:Core/Src/main.c ****       if(res == FR_OK)
 188:Core/Src/main.c ****       {
 189:Core/Src/main.c ****           f_mount(NULL, "0:", 0); // 清空挂载缓存
 190:Core/Src/main.c ****           res = f_mount(&fs, "0:", 1); // 重新挂载
 191:Core/Src/main.c ****       }
 192:Core/Src/main.c ****   }
 193:Core/Src/main.c ****   // 挂载结果校验
 194:Core/Src/main.c ****   if(res == FR_OK)
 195:Core/Src/main.c ****   {
 196:Core/Src/main.c ****       UsbPrintf("Mount W25Q16 Success!\r\n");
 197:Core/Src/main.c ****       // 挂载成功后创建测试文件（验证读写）
 198:Core/Src/main.c ****       FIL f;
 199:Core/Src/main.c ****       res = f_open(&f, "0:test.txt", FA_CREATE_ALWAYS | FA_WRITE);
 200:Core/Src/main.c ****       if(res == FR_OK)
 201:Core/Src/main.c ****       {
 202:Core/Src/main.c ****           UINT bw; // 实际写入字节数
ARM GAS  C:\Users\84759\AppData\Local\Temp\ccCf9GIG.s 			page 5


 203:Core/Src/main.c ****           f_write(&f, "W25Q16 FatFs OK!", strlen("W25Q16 FatFs OK!"), &bw);
 204:Core/Src/main.c ****           f_close(&f); // 必须关闭，否则数据不落地
 205:Core/Src/main.c ****           UsbPrintf("Create test.txt Success! Write %d bytes\r\n", bw);
 206:Core/Src/main.c ****       }
 207:Core/Src/main.c ****       else
 208:Core/Src/main.c ****       {
 209:Core/Src/main.c ****           UsbPrintf("Create test.txt Fail! Res=%d\r\n", res);
 210:Core/Src/main.c ****       }
 211:Core/Src/main.c ****   }
 212:Core/Src/main.c ****   else
 213:Core/Src/main.c ****   {
 214:Core/Src/main.c ****       UsbPrintf("Mount Fail! Res=%d\r\n", res);
 215:Core/Src/main.c ****   }
 216:Core/Src/main.c **** 
 217:Core/Src/main.c **** 
 218:Core/Src/main.c **** 
 219:Core/Src/main.c ****   while (1)
 220:Core/Src/main.c ****   {
 221:Core/Src/main.c ****     /* USER CODE END WHILE */
 222:Core/Src/main.c ****     /* USER CODE BEGIN 3 */
 223:Core/Src/main.c ****     //HAL_Delay(2000);
 224:Core/Src/main.c ****   
 225:Core/Src/main.c ****     /* // 3. 检查是否有数据接收完成 DMA接收完成标志
 226:Core/Src/main.c ****     if (g_usart1_rx_done == 1) 
 227:Core/Src/main.c ****     {
 228:Core/Src/main.c ****       memcpy(recv_buff, g_usart1_dma_rx_buff, g_usart1_rx_len);
 229:Core/Src/main.c ****       UsbPrintf("%s ", recv_buff);
 230:Core/Src/main.c **** 
 231:Core/Src/main.c ****       //USART1_DMA_SendData(recv_buff, g_usart1_rx_len);
 232:Core/Src/main.c ****       HAL_UART_Transmit_DMA(&huart1, g_usart1_dma_rx_buff, g_usart1_rx_len);
 233:Core/Src/main.c ****       memset(recv_buff, 0, sizeof(recv_buff));
 234:Core/Src/main.c **** 
 235:Core/Src/main.c ****       g_usart1_rx_done = 0;
 236:Core/Src/main.c ****       g_usart1_rx_len = 0;
 237:Core/Src/main.c ****       //memset(recv_buff, 0, g_usart1_rx_len);
 238:Core/Src/main.c ****       //
 239:Core/Src/main.c ****     }
 240:Core/Src/main.c ****     */
 241:Core/Src/main.c ****     
 242:Core/Src/main.c ****     if (systemTick != HAL_GetTick()) 
 243:Core/Src/main.c ****     {
 244:Core/Src/main.c ****       
 245:Core/Src/main.c ****       if (systemTick % 1000 == 0)
 246:Core/Src/main.c ****       {
 247:Core/Src/main.c ****         /*SPI2 测试
 248:Core/Src/main.c ****         //uint8_t i=0;
 249:Core/Src/main.c ****         // CS2_HIGH;
 250:Core/Src/main.c ****         // uint8_t send=0xB8;
 251:Core/Src/main.c ****         // uint8_t rece[7]={0x08};
 252:Core/Src/main.c ****         // if(HAL_SPI_Transmit(&hspi2, &send,  1, 1000) != HAL_OK)
 253:Core/Src/main.c ****         // { 
 254:Core/Src/main.c ****         //   UsbPrintf("send2 error ");
 255:Core/Src/main.c ****         // }
 256:Core/Src/main.c ****     
 257:Core/Src/main.c ****         // if(HAL_SPI_Receive(&hspi2, rece,  7, 1000)!= HAL_OK)
 258:Core/Src/main.c ****         // {
 259:Core/Src/main.c ****         //   UsbPrintf("receive2 error ");
ARM GAS  C:\Users\84759\AppData\Local\Temp\ccCf9GIG.s 			page 6


 260:Core/Src/main.c ****         // }
 261:Core/Src/main.c ****         // for(i = 0; i < 7; i++) {
 262:Core/Src/main.c ****         //   UsbPrintf("%02x ",rece[i]);   
 263:Core/Src/main.c ****         // }
 264:Core/Src/main.c ****         // CS2_LOW;
 265:Core/Src/main.c ****         */
 266:Core/Src/main.c ****     
 267:Core/Src/main.c ****         
 268:Core/Src/main.c ****       }
 269:Core/Src/main.c ****       systemTick = HAL_GetTick();
 270:Core/Src/main.c ****     }
 271:Core/Src/main.c ****     
 272:Core/Src/main.c ****   }
 273:Core/Src/main.c ****   /* USER CODE END 3 */
 274:Core/Src/main.c **** }
 275:Core/Src/main.c **** 
 276:Core/Src/main.c **** /**
 277:Core/Src/main.c ****   * @brief System Clock Configuration
 278:Core/Src/main.c ****   * @retval None
 279:Core/Src/main.c ****   */
 280:Core/Src/main.c **** void SystemClock_Config(void)
 281:Core/Src/main.c **** {
 282:Core/Src/main.c ****   RCC_OscInitTypeDef RCC_OscInitStruct = {0};
 283:Core/Src/main.c ****   RCC_ClkInitTypeDef RCC_ClkInitStruct = {0};
 284:Core/Src/main.c **** 
 285:Core/Src/main.c ****   /** Initializes the RCC Oscillators according to the specified parameters
 286:Core/Src/main.c ****   * in the RCC_OscInitTypeDef structure.
 287:Core/Src/main.c ****   */
 288:Core/Src/main.c ****   RCC_OscInitStruct.OscillatorType = RCC_OSCILLATORTYPE_HSE;
 289:Core/Src/main.c ****   RCC_OscInitStruct.HSEState = RCC_HSE_ON;
 290:Core/Src/main.c ****   RCC_OscInitStruct.HSEPredivValue = RCC_HSE_PREDIV_DIV1;
 291:Core/Src/main.c ****   RCC_OscInitStruct.HSIState = RCC_HSI_ON;
 292:Core/Src/main.c ****   RCC_OscInitStruct.PLL.PLLState = RCC_PLL_ON;
 293:Core/Src/main.c ****   RCC_OscInitStruct.PLL.PLLSource = RCC_PLLSOURCE_HSE;
 294:Core/Src/main.c ****   RCC_OscInitStruct.PLL.PLLMUL = RCC_PLL_MUL9;
 295:Core/Src/main.c ****   if (HAL_RCC_OscConfig(&RCC_OscInitStruct) != HAL_OK)
 296:Core/Src/main.c ****   {
 297:Core/Src/main.c ****     Error_Handler();
 298:Core/Src/main.c ****   }
 299:Core/Src/main.c **** 
 300:Core/Src/main.c ****   /** Initializes the CPU, AHB and APB buses clocks
 301:Core/Src/main.c ****   */
 302:Core/Src/main.c ****   RCC_ClkInitStruct.ClockType = RCC_CLOCKTYPE_HCLK|RCC_CLOCKTYPE_SYSCLK
 303:Core/Src/main.c ****                               |RCC_CLOCKTYPE_PCLK1|RCC_CLOCKTYPE_PCLK2;
 304:Core/Src/main.c ****   RCC_ClkInitStruct.SYSCLKSource = RCC_SYSCLKSOURCE_PLLCLK;
 305:Core/Src/main.c ****   RCC_ClkInitStruct.AHBCLKDivider = RCC_SYSCLK_DIV1;
 306:Core/Src/main.c ****   RCC_ClkInitStruct.APB1CLKDivider = RCC_HCLK_DIV2;
 307:Core/Src/main.c ****   RCC_ClkInitStruct.APB2CLKDivider = RCC_HCLK_DIV1;
 308:Core/Src/main.c **** 
 309:Core/Src/main.c ****   if (HAL_RCC_ClockConfig(&RCC_ClkInitStruct, FLASH_LATENCY_2) != HAL_OK)
 310:Core/Src/main.c ****   {
 311:Core/Src/main.c ****     Error_Handler();
 312:Core/Src/main.c ****   }
 313:Core/Src/main.c **** }
 314:Core/Src/main.c **** 
 315:Core/Src/main.c **** /* USER CODE BEGIN 4 */
 316:Core/Src/main.c **** #define UART_TRANSMIT_BUFF_NUMBER   256
ARM GAS  C:\Users\84759\AppData\Local\Temp\ccCf9GIG.s 			page 7


 317:Core/Src/main.c **** uint8_t g_UsbTxBuff[UART_TRANSMIT_BUFF_NUMBER] = {0};
 318:Core/Src/main.c **** void UsbPrintf(char* fmt,...)  
 319:Core/Src/main.c **** {  
  28              		.loc 1 319 1 view -0
  29              		.cfi_startproc
  30              		@ args = 4, pretend = 16, frame = 8
  31              		@ frame_needed = 0, uses_anonymous_args = 1
  32              		.loc 1 319 1 is_stmt 0 view .LVU1
  33 0000 0FB4     		push	{r0, r1, r2, r3}
  34              	.LCFI0:
  35              		.cfi_def_cfa_offset 16
  36              		.cfi_offset 0, -16
  37              		.cfi_offset 1, -12
  38              		.cfi_offset 2, -8
  39              		.cfi_offset 3, -4
  40 0002 F0B5     		push	{r4, r5, r6, r7, lr}
  41              	.LCFI1:
  42              		.cfi_def_cfa_offset 36
  43              		.cfi_offset 4, -36
  44              		.cfi_offset 5, -32
  45              		.cfi_offset 6, -28
  46              		.cfi_offset 7, -24
  47              		.cfi_offset 14, -20
  48 0004 83B0     		sub	sp, sp, #12
  49              	.LCFI2:
  50              		.cfi_def_cfa_offset 48
  51 0006 08AD     		add	r5, sp, #32
  52 0008 55F8047B 		ldr	r7, [r5], #4
 320:Core/Src/main.c **** 	va_list ap;
  53              		.loc 1 320 2 is_stmt 1 view .LVU2
 321:Core/Src/main.c **** 	memset(g_UsbTxBuff, 0, UART_TRANSMIT_BUFF_NUMBER);
  54              		.loc 1 321 2 view .LVU3
  55 000c 0E4C     		ldr	r4, .L3
  56 000e 4FF48076 		mov	r6, #256
  57 0012 3246     		mov	r2, r6
  58 0014 0021     		movs	r1, #0
  59 0016 2046     		mov	r0, r4
  60 0018 FFF7FEFF 		bl	memset
  61              	.LVL1:
 322:Core/Src/main.c **** 	va_start(ap, fmt);
  62              		.loc 1 322 2 view .LVU4
  63 001c 0195     		str	r5, [sp, #4]
 323:Core/Src/main.c **** 	vsnprintf((char*)g_UsbTxBuff, UART_TRANSMIT_BUFF_NUMBER, fmt, ap);
  64              		.loc 1 323 2 view .LVU5
  65 001e 2B46     		mov	r3, r5
  66 0020 3A46     		mov	r2, r7
  67 0022 3146     		mov	r1, r6
  68 0024 2046     		mov	r0, r4
  69 0026 FFF7FEFF 		bl	vsnprintf
  70              	.LVL2:
 324:Core/Src/main.c **** 	va_end(ap);
  71              		.loc 1 324 2 view .LVU6
 325:Core/Src/main.c **** 	HAL_UART_Transmit(&huart1, g_UsbTxBuff, strlen((char*)g_UsbTxBuff), 1000);
  72              		.loc 1 325 2 view .LVU7
  73              		.loc 1 325 42 is_stmt 0 view .LVU8
  74 002a 2046     		mov	r0, r4
  75 002c FFF7FEFF 		bl	strlen
ARM GAS  C:\Users\84759\AppData\Local\Temp\ccCf9GIG.s 			page 8


  76              	.LVL3:
  77              		.loc 1 325 2 view .LVU9
  78 0030 4FF47A73 		mov	r3, #1000
  79 0034 82B2     		uxth	r2, r0
  80 0036 2146     		mov	r1, r4
  81 0038 0448     		ldr	r0, .L3+4
  82 003a FFF7FEFF 		bl	HAL_UART_Transmit
  83              	.LVL4:
 326:Core/Src/main.c **** }
  84              		.loc 1 326 1 view .LVU10
  85 003e 03B0     		add	sp, sp, #12
  86              	.LCFI3:
  87              		.cfi_def_cfa_offset 36
  88              		@ sp needed
  89 0040 BDE8F040 		pop	{r4, r5, r6, r7, lr}
  90              	.LCFI4:
  91              		.cfi_restore 14
  92              		.cfi_restore 7
  93              		.cfi_restore 6
  94              		.cfi_restore 5
  95              		.cfi_restore 4
  96              		.cfi_def_cfa_offset 16
  97 0044 04B0     		add	sp, sp, #16
  98              	.LCFI5:
  99              		.cfi_restore 3
 100              		.cfi_restore 2
 101              		.cfi_restore 1
 102              		.cfi_restore 0
 103              		.cfi_def_cfa_offset 0
 104 0046 7047     		bx	lr
 105              	.L4:
 106              		.align	2
 107              	.L3:
 108 0048 00000000 		.word	.LANCHOR0
 109 004c 00000000 		.word	huart1
 110              		.cfi_endproc
 111              	.LFE70:
 113              		.section	.text.Error_Handler,"ax",%progbits
 114              		.align	1
 115              		.global	Error_Handler
 116              		.syntax unified
 117              		.thumb
 118              		.thumb_func
 120              	Error_Handler:
 121              	.LFB71:
 327:Core/Src/main.c **** 
 328:Core/Src/main.c **** /* USER CODE END 4 */
 329:Core/Src/main.c **** 
 330:Core/Src/main.c **** /**
 331:Core/Src/main.c ****   * @brief  This function is executed in case of error occurrence.
 332:Core/Src/main.c ****   * @retval None
 333:Core/Src/main.c ****   */
 334:Core/Src/main.c **** void Error_Handler(void)
 335:Core/Src/main.c **** {
 122              		.loc 1 335 1 is_stmt 1 view -0
 123              		.cfi_startproc
 124              		@ Volatile: function does not return.
ARM GAS  C:\Users\84759\AppData\Local\Temp\ccCf9GIG.s 			page 9


 125              		@ args = 0, pretend = 0, frame = 0
 126              		@ frame_needed = 0, uses_anonymous_args = 0
 127              		@ link register save eliminated.
 336:Core/Src/main.c ****   /* USER CODE BEGIN Error_Handler_Debug */
 337:Core/Src/main.c ****   /* User can add his own implementation to report the HAL error return state */
 338:Core/Src/main.c ****   __disable_irq();
 128              		.loc 1 338 3 view .LVU12
 129              	.LBB4:
 130              	.LBI4:
 131              		.file 2 "Drivers/CMSIS/Include/cmsis_gcc.h"
   1:Drivers/CMSIS/Include/cmsis_gcc.h **** /**************************************************************************//**
   2:Drivers/CMSIS/Include/cmsis_gcc.h ****  * @file     cmsis_gcc.h
   3:Drivers/CMSIS/Include/cmsis_gcc.h ****  * @brief    CMSIS compiler GCC header file
   4:Drivers/CMSIS/Include/cmsis_gcc.h ****  * @version  V5.0.4
   5:Drivers/CMSIS/Include/cmsis_gcc.h ****  * @date     09. April 2018
   6:Drivers/CMSIS/Include/cmsis_gcc.h ****  ******************************************************************************/
   7:Drivers/CMSIS/Include/cmsis_gcc.h **** /*
   8:Drivers/CMSIS/Include/cmsis_gcc.h ****  * Copyright (c) 2009-2018 Arm Limited. All rights reserved.
   9:Drivers/CMSIS/Include/cmsis_gcc.h ****  *
  10:Drivers/CMSIS/Include/cmsis_gcc.h ****  * SPDX-License-Identifier: Apache-2.0
  11:Drivers/CMSIS/Include/cmsis_gcc.h ****  *
  12:Drivers/CMSIS/Include/cmsis_gcc.h ****  * Licensed under the Apache License, Version 2.0 (the License); you may
  13:Drivers/CMSIS/Include/cmsis_gcc.h ****  * not use this file except in compliance with the License.
  14:Drivers/CMSIS/Include/cmsis_gcc.h ****  * You may obtain a copy of the License at
  15:Drivers/CMSIS/Include/cmsis_gcc.h ****  *
  16:Drivers/CMSIS/Include/cmsis_gcc.h ****  * www.apache.org/licenses/LICENSE-2.0
  17:Drivers/CMSIS/Include/cmsis_gcc.h ****  *
  18:Drivers/CMSIS/Include/cmsis_gcc.h ****  * Unless required by applicable law or agreed to in writing, software
  19:Drivers/CMSIS/Include/cmsis_gcc.h ****  * distributed under the License is distributed on an AS IS BASIS, WITHOUT
  20:Drivers/CMSIS/Include/cmsis_gcc.h ****  * WARRANTIES OR CONDITIONS OF ANY KIND, either express or implied.
  21:Drivers/CMSIS/Include/cmsis_gcc.h ****  * See the License for the specific language governing permissions and
  22:Drivers/CMSIS/Include/cmsis_gcc.h ****  * limitations under the License.
  23:Drivers/CMSIS/Include/cmsis_gcc.h ****  */
  24:Drivers/CMSIS/Include/cmsis_gcc.h **** 
  25:Drivers/CMSIS/Include/cmsis_gcc.h **** #ifndef __CMSIS_GCC_H
  26:Drivers/CMSIS/Include/cmsis_gcc.h **** #define __CMSIS_GCC_H
  27:Drivers/CMSIS/Include/cmsis_gcc.h **** 
  28:Drivers/CMSIS/Include/cmsis_gcc.h **** /* ignore some GCC warnings */
  29:Drivers/CMSIS/Include/cmsis_gcc.h **** #pragma GCC diagnostic push
  30:Drivers/CMSIS/Include/cmsis_gcc.h **** #pragma GCC diagnostic ignored "-Wsign-conversion"
  31:Drivers/CMSIS/Include/cmsis_gcc.h **** #pragma GCC diagnostic ignored "-Wconversion"
  32:Drivers/CMSIS/Include/cmsis_gcc.h **** #pragma GCC diagnostic ignored "-Wunused-parameter"
  33:Drivers/CMSIS/Include/cmsis_gcc.h **** 
  34:Drivers/CMSIS/Include/cmsis_gcc.h **** /* Fallback for __has_builtin */
  35:Drivers/CMSIS/Include/cmsis_gcc.h **** #ifndef __has_builtin
  36:Drivers/CMSIS/Include/cmsis_gcc.h ****   #define __has_builtin(x) (0)
  37:Drivers/CMSIS/Include/cmsis_gcc.h **** #endif
  38:Drivers/CMSIS/Include/cmsis_gcc.h **** 
  39:Drivers/CMSIS/Include/cmsis_gcc.h **** /* CMSIS compiler specific defines */
  40:Drivers/CMSIS/Include/cmsis_gcc.h **** #ifndef   __ASM
  41:Drivers/CMSIS/Include/cmsis_gcc.h ****   #define __ASM                                  __asm
  42:Drivers/CMSIS/Include/cmsis_gcc.h **** #endif
  43:Drivers/CMSIS/Include/cmsis_gcc.h **** #ifndef   __INLINE
  44:Drivers/CMSIS/Include/cmsis_gcc.h ****   #define __INLINE                               inline
  45:Drivers/CMSIS/Include/cmsis_gcc.h **** #endif
  46:Drivers/CMSIS/Include/cmsis_gcc.h **** #ifndef   __STATIC_INLINE
  47:Drivers/CMSIS/Include/cmsis_gcc.h ****   #define __STATIC_INLINE                        static inline
ARM GAS  C:\Users\84759\AppData\Local\Temp\ccCf9GIG.s 			page 10


  48:Drivers/CMSIS/Include/cmsis_gcc.h **** #endif
  49:Drivers/CMSIS/Include/cmsis_gcc.h **** #ifndef   __STATIC_FORCEINLINE                 
  50:Drivers/CMSIS/Include/cmsis_gcc.h ****   #define __STATIC_FORCEINLINE                   __attribute__((always_inline)) static inline
  51:Drivers/CMSIS/Include/cmsis_gcc.h **** #endif                                           
  52:Drivers/CMSIS/Include/cmsis_gcc.h **** #ifndef   __NO_RETURN
  53:Drivers/CMSIS/Include/cmsis_gcc.h ****   #define __NO_RETURN                            __attribute__((__noreturn__))
  54:Drivers/CMSIS/Include/cmsis_gcc.h **** #endif
  55:Drivers/CMSIS/Include/cmsis_gcc.h **** #ifndef   __USED
  56:Drivers/CMSIS/Include/cmsis_gcc.h ****   #define __USED                                 __attribute__((used))
  57:Drivers/CMSIS/Include/cmsis_gcc.h **** #endif
  58:Drivers/CMSIS/Include/cmsis_gcc.h **** #ifndef   __WEAK
  59:Drivers/CMSIS/Include/cmsis_gcc.h ****   #define __WEAK                                 __attribute__((weak))
  60:Drivers/CMSIS/Include/cmsis_gcc.h **** #endif
  61:Drivers/CMSIS/Include/cmsis_gcc.h **** #ifndef   __PACKED
  62:Drivers/CMSIS/Include/cmsis_gcc.h ****   #define __PACKED                               __attribute__((packed, aligned(1)))
  63:Drivers/CMSIS/Include/cmsis_gcc.h **** #endif
  64:Drivers/CMSIS/Include/cmsis_gcc.h **** #ifndef   __PACKED_STRUCT
  65:Drivers/CMSIS/Include/cmsis_gcc.h ****   #define __PACKED_STRUCT                        struct __attribute__((packed, aligned(1)))
  66:Drivers/CMSIS/Include/cmsis_gcc.h **** #endif
  67:Drivers/CMSIS/Include/cmsis_gcc.h **** #ifndef   __PACKED_UNION
  68:Drivers/CMSIS/Include/cmsis_gcc.h ****   #define __PACKED_UNION                         union __attribute__((packed, aligned(1)))
  69:Drivers/CMSIS/Include/cmsis_gcc.h **** #endif
  70:Drivers/CMSIS/Include/cmsis_gcc.h **** #ifndef   __UNALIGNED_UINT32        /* deprecated */
  71:Drivers/CMSIS/Include/cmsis_gcc.h ****   #pragma GCC diagnostic push
  72:Drivers/CMSIS/Include/cmsis_gcc.h ****   #pragma GCC diagnostic ignored "-Wpacked"
  73:Drivers/CMSIS/Include/cmsis_gcc.h ****   #pragma GCC diagnostic ignored "-Wattributes"
  74:Drivers/CMSIS/Include/cmsis_gcc.h ****   struct __attribute__((packed)) T_UINT32 { uint32_t v; };
  75:Drivers/CMSIS/Include/cmsis_gcc.h ****   #pragma GCC diagnostic pop
  76:Drivers/CMSIS/Include/cmsis_gcc.h ****   #define __UNALIGNED_UINT32(x)                  (((struct T_UINT32 *)(x))->v)
  77:Drivers/CMSIS/Include/cmsis_gcc.h **** #endif
  78:Drivers/CMSIS/Include/cmsis_gcc.h **** #ifndef   __UNALIGNED_UINT16_WRITE
  79:Drivers/CMSIS/Include/cmsis_gcc.h ****   #pragma GCC diagnostic push
  80:Drivers/CMSIS/Include/cmsis_gcc.h ****   #pragma GCC diagnostic ignored "-Wpacked"
  81:Drivers/CMSIS/Include/cmsis_gcc.h ****   #pragma GCC diagnostic ignored "-Wattributes"
  82:Drivers/CMSIS/Include/cmsis_gcc.h ****   __PACKED_STRUCT T_UINT16_WRITE { uint16_t v; };
  83:Drivers/CMSIS/Include/cmsis_gcc.h ****   #pragma GCC diagnostic pop
  84:Drivers/CMSIS/Include/cmsis_gcc.h ****   #define __UNALIGNED_UINT16_WRITE(addr, val)    (void)((((struct T_UINT16_WRITE *)(void *)(addr))-
  85:Drivers/CMSIS/Include/cmsis_gcc.h **** #endif
  86:Drivers/CMSIS/Include/cmsis_gcc.h **** #ifndef   __UNALIGNED_UINT16_READ
  87:Drivers/CMSIS/Include/cmsis_gcc.h ****   #pragma GCC diagnostic push
  88:Drivers/CMSIS/Include/cmsis_gcc.h ****   #pragma GCC diagnostic ignored "-Wpacked"
  89:Drivers/CMSIS/Include/cmsis_gcc.h ****   #pragma GCC diagnostic ignored "-Wattributes"
  90:Drivers/CMSIS/Include/cmsis_gcc.h ****   __PACKED_STRUCT T_UINT16_READ { uint16_t v; };
  91:Drivers/CMSIS/Include/cmsis_gcc.h ****   #pragma GCC diagnostic pop
  92:Drivers/CMSIS/Include/cmsis_gcc.h ****   #define __UNALIGNED_UINT16_READ(addr)          (((const struct T_UINT16_READ *)(const void *)(add
  93:Drivers/CMSIS/Include/cmsis_gcc.h **** #endif
  94:Drivers/CMSIS/Include/cmsis_gcc.h **** #ifndef   __UNALIGNED_UINT32_WRITE
  95:Drivers/CMSIS/Include/cmsis_gcc.h ****   #pragma GCC diagnostic push
  96:Drivers/CMSIS/Include/cmsis_gcc.h ****   #pragma GCC diagnostic ignored "-Wpacked"
  97:Drivers/CMSIS/Include/cmsis_gcc.h ****   #pragma GCC diagnostic ignored "-Wattributes"
  98:Drivers/CMSIS/Include/cmsis_gcc.h ****   __PACKED_STRUCT T_UINT32_WRITE { uint32_t v; };
  99:Drivers/CMSIS/Include/cmsis_gcc.h ****   #pragma GCC diagnostic pop
 100:Drivers/CMSIS/Include/cmsis_gcc.h ****   #define __UNALIGNED_UINT32_WRITE(addr, val)    (void)((((struct T_UINT32_WRITE *)(void *)(addr))-
 101:Drivers/CMSIS/Include/cmsis_gcc.h **** #endif
 102:Drivers/CMSIS/Include/cmsis_gcc.h **** #ifndef   __UNALIGNED_UINT32_READ
 103:Drivers/CMSIS/Include/cmsis_gcc.h ****   #pragma GCC diagnostic push
 104:Drivers/CMSIS/Include/cmsis_gcc.h ****   #pragma GCC diagnostic ignored "-Wpacked"
ARM GAS  C:\Users\84759\AppData\Local\Temp\ccCf9GIG.s 			page 11


 105:Drivers/CMSIS/Include/cmsis_gcc.h ****   #pragma GCC diagnostic ignored "-Wattributes"
 106:Drivers/CMSIS/Include/cmsis_gcc.h ****   __PACKED_STRUCT T_UINT32_READ { uint32_t v; };
 107:Drivers/CMSIS/Include/cmsis_gcc.h ****   #pragma GCC diagnostic pop
 108:Drivers/CMSIS/Include/cmsis_gcc.h ****   #define __UNALIGNED_UINT32_READ(addr)          (((const struct T_UINT32_READ *)(const void *)(add
 109:Drivers/CMSIS/Include/cmsis_gcc.h **** #endif
 110:Drivers/CMSIS/Include/cmsis_gcc.h **** #ifndef   __ALIGNED
 111:Drivers/CMSIS/Include/cmsis_gcc.h ****   #define __ALIGNED(x)                           __attribute__((aligned(x)))
 112:Drivers/CMSIS/Include/cmsis_gcc.h **** #endif
 113:Drivers/CMSIS/Include/cmsis_gcc.h **** #ifndef   __RESTRICT
 114:Drivers/CMSIS/Include/cmsis_gcc.h ****   #define __RESTRICT                             __restrict
 115:Drivers/CMSIS/Include/cmsis_gcc.h **** #endif
 116:Drivers/CMSIS/Include/cmsis_gcc.h **** 
 117:Drivers/CMSIS/Include/cmsis_gcc.h **** 
 118:Drivers/CMSIS/Include/cmsis_gcc.h **** /* ###########################  Core Function Access  ########################### */
 119:Drivers/CMSIS/Include/cmsis_gcc.h **** /** \ingroup  CMSIS_Core_FunctionInterface
 120:Drivers/CMSIS/Include/cmsis_gcc.h ****     \defgroup CMSIS_Core_RegAccFunctions CMSIS Core Register Access Functions
 121:Drivers/CMSIS/Include/cmsis_gcc.h ****   @{
 122:Drivers/CMSIS/Include/cmsis_gcc.h ****  */
 123:Drivers/CMSIS/Include/cmsis_gcc.h **** 
 124:Drivers/CMSIS/Include/cmsis_gcc.h **** /**
 125:Drivers/CMSIS/Include/cmsis_gcc.h ****   \brief   Enable IRQ Interrupts
 126:Drivers/CMSIS/Include/cmsis_gcc.h ****   \details Enables IRQ interrupts by clearing the I-bit in the CPSR.
 127:Drivers/CMSIS/Include/cmsis_gcc.h ****            Can only be executed in Privileged modes.
 128:Drivers/CMSIS/Include/cmsis_gcc.h ****  */
 129:Drivers/CMSIS/Include/cmsis_gcc.h **** __STATIC_FORCEINLINE void __enable_irq(void)
 130:Drivers/CMSIS/Include/cmsis_gcc.h **** {
 131:Drivers/CMSIS/Include/cmsis_gcc.h ****   __ASM volatile ("cpsie i" : : : "memory");
 132:Drivers/CMSIS/Include/cmsis_gcc.h **** }
 133:Drivers/CMSIS/Include/cmsis_gcc.h **** 
 134:Drivers/CMSIS/Include/cmsis_gcc.h **** 
 135:Drivers/CMSIS/Include/cmsis_gcc.h **** /**
 136:Drivers/CMSIS/Include/cmsis_gcc.h ****   \brief   Disable IRQ Interrupts
 137:Drivers/CMSIS/Include/cmsis_gcc.h ****   \details Disables IRQ interrupts by setting the I-bit in the CPSR.
 138:Drivers/CMSIS/Include/cmsis_gcc.h ****            Can only be executed in Privileged modes.
 139:Drivers/CMSIS/Include/cmsis_gcc.h ****  */
 140:Drivers/CMSIS/Include/cmsis_gcc.h **** __STATIC_FORCEINLINE void __disable_irq(void)
 132              		.loc 2 140 27 view .LVU13
 133              	.LBB5:
 141:Drivers/CMSIS/Include/cmsis_gcc.h **** {
 142:Drivers/CMSIS/Include/cmsis_gcc.h ****   __ASM volatile ("cpsid i" : : : "memory");
 134              		.loc 2 142 3 view .LVU14
 135              		.syntax unified
 136              	@ 142 "Drivers/CMSIS/Include/cmsis_gcc.h" 1
 137 0000 72B6     		cpsid i
 138              	@ 0 "" 2
 139              		.thumb
 140              		.syntax unified
 141              	.L6:
 142              	.LBE5:
 143              	.LBE4:
 339:Core/Src/main.c ****   while (1)
 144              		.loc 1 339 3 discriminator 1 view .LVU15
 340:Core/Src/main.c ****   {
 341:Core/Src/main.c ****   }
 145              		.loc 1 341 3 discriminator 1 view .LVU16
 339:Core/Src/main.c ****   while (1)
 146              		.loc 1 339 9 discriminator 1 view .LVU17
ARM GAS  C:\Users\84759\AppData\Local\Temp\ccCf9GIG.s 			page 12


 147 0002 FEE7     		b	.L6
 148              		.cfi_endproc
 149              	.LFE71:
 151              		.section	.text.SystemClock_Config,"ax",%progbits
 152              		.align	1
 153              		.global	SystemClock_Config
 154              		.syntax unified
 155              		.thumb
 156              		.thumb_func
 158              	SystemClock_Config:
 159              	.LFB69:
 281:Core/Src/main.c ****   RCC_OscInitTypeDef RCC_OscInitStruct = {0};
 160              		.loc 1 281 1 view -0
 161              		.cfi_startproc
 162              		@ args = 0, pretend = 0, frame = 64
 163              		@ frame_needed = 0, uses_anonymous_args = 0
 164 0000 00B5     		push	{lr}
 165              	.LCFI6:
 166              		.cfi_def_cfa_offset 4
 167              		.cfi_offset 14, -4
 168 0002 91B0     		sub	sp, sp, #68
 169              	.LCFI7:
 170              		.cfi_def_cfa_offset 72
 282:Core/Src/main.c ****   RCC_ClkInitTypeDef RCC_ClkInitStruct = {0};
 171              		.loc 1 282 3 view .LVU19
 282:Core/Src/main.c ****   RCC_ClkInitTypeDef RCC_ClkInitStruct = {0};
 172              		.loc 1 282 22 is_stmt 0 view .LVU20
 173 0004 2822     		movs	r2, #40
 174 0006 0021     		movs	r1, #0
 175 0008 06A8     		add	r0, sp, #24
 176 000a FFF7FEFF 		bl	memset
 177              	.LVL5:
 283:Core/Src/main.c **** 
 178              		.loc 1 283 3 is_stmt 1 view .LVU21
 283:Core/Src/main.c **** 
 179              		.loc 1 283 22 is_stmt 0 view .LVU22
 180 000e 0023     		movs	r3, #0
 181 0010 0193     		str	r3, [sp, #4]
 182 0012 0293     		str	r3, [sp, #8]
 183 0014 0393     		str	r3, [sp, #12]
 184 0016 0493     		str	r3, [sp, #16]
 185 0018 0593     		str	r3, [sp, #20]
 288:Core/Src/main.c ****   RCC_OscInitStruct.HSEState = RCC_HSE_ON;
 186              		.loc 1 288 3 is_stmt 1 view .LVU23
 288:Core/Src/main.c ****   RCC_OscInitStruct.HSEState = RCC_HSE_ON;
 187              		.loc 1 288 36 is_stmt 0 view .LVU24
 188 001a 0122     		movs	r2, #1
 189 001c 0692     		str	r2, [sp, #24]
 289:Core/Src/main.c ****   RCC_OscInitStruct.HSEPredivValue = RCC_HSE_PREDIV_DIV1;
 190              		.loc 1 289 3 is_stmt 1 view .LVU25
 289:Core/Src/main.c ****   RCC_OscInitStruct.HSEPredivValue = RCC_HSE_PREDIV_DIV1;
 191              		.loc 1 289 30 is_stmt 0 view .LVU26
 192 001e 4FF48033 		mov	r3, #65536
 193 0022 0793     		str	r3, [sp, #28]
 290:Core/Src/main.c ****   RCC_OscInitStruct.HSIState = RCC_HSI_ON;
 194              		.loc 1 290 3 is_stmt 1 view .LVU27
 291:Core/Src/main.c ****   RCC_OscInitStruct.PLL.PLLState = RCC_PLL_ON;
ARM GAS  C:\Users\84759\AppData\Local\Temp\ccCf9GIG.s 			page 13


 195              		.loc 1 291 3 view .LVU28
 291:Core/Src/main.c ****   RCC_OscInitStruct.PLL.PLLState = RCC_PLL_ON;
 196              		.loc 1 291 30 is_stmt 0 view .LVU29
 197 0024 0A92     		str	r2, [sp, #40]
 292:Core/Src/main.c ****   RCC_OscInitStruct.PLL.PLLSource = RCC_PLLSOURCE_HSE;
 198              		.loc 1 292 3 is_stmt 1 view .LVU30
 292:Core/Src/main.c ****   RCC_OscInitStruct.PLL.PLLSource = RCC_PLLSOURCE_HSE;
 199              		.loc 1 292 34 is_stmt 0 view .LVU31
 200 0026 0222     		movs	r2, #2
 201 0028 0D92     		str	r2, [sp, #52]
 293:Core/Src/main.c ****   RCC_OscInitStruct.PLL.PLLMUL = RCC_PLL_MUL9;
 202              		.loc 1 293 3 is_stmt 1 view .LVU32
 293:Core/Src/main.c ****   RCC_OscInitStruct.PLL.PLLMUL = RCC_PLL_MUL9;
 203              		.loc 1 293 35 is_stmt 0 view .LVU33
 204 002a 0E93     		str	r3, [sp, #56]
 294:Core/Src/main.c ****   if (HAL_RCC_OscConfig(&RCC_OscInitStruct) != HAL_OK)
 205              		.loc 1 294 3 is_stmt 1 view .LVU34
 294:Core/Src/main.c ****   if (HAL_RCC_OscConfig(&RCC_OscInitStruct) != HAL_OK)
 206              		.loc 1 294 32 is_stmt 0 view .LVU35
 207 002c 4FF4E013 		mov	r3, #1835008
 208 0030 0F93     		str	r3, [sp, #60]
 295:Core/Src/main.c ****   {
 209              		.loc 1 295 3 is_stmt 1 view .LVU36
 295:Core/Src/main.c ****   {
 210              		.loc 1 295 7 is_stmt 0 view .LVU37
 211 0032 06A8     		add	r0, sp, #24
 212 0034 FFF7FEFF 		bl	HAL_RCC_OscConfig
 213              	.LVL6:
 295:Core/Src/main.c ****   {
 214              		.loc 1 295 6 view .LVU38
 215 0038 80B9     		cbnz	r0, .L11
 302:Core/Src/main.c ****                               |RCC_CLOCKTYPE_PCLK1|RCC_CLOCKTYPE_PCLK2;
 216              		.loc 1 302 3 is_stmt 1 view .LVU39
 302:Core/Src/main.c ****                               |RCC_CLOCKTYPE_PCLK1|RCC_CLOCKTYPE_PCLK2;
 217              		.loc 1 302 31 is_stmt 0 view .LVU40
 218 003a 0F23     		movs	r3, #15
 219 003c 0193     		str	r3, [sp, #4]
 304:Core/Src/main.c ****   RCC_ClkInitStruct.AHBCLKDivider = RCC_SYSCLK_DIV1;
 220              		.loc 1 304 3 is_stmt 1 view .LVU41
 304:Core/Src/main.c ****   RCC_ClkInitStruct.AHBCLKDivider = RCC_SYSCLK_DIV1;
 221              		.loc 1 304 34 is_stmt 0 view .LVU42
 222 003e 0221     		movs	r1, #2
 223 0040 0291     		str	r1, [sp, #8]
 305:Core/Src/main.c ****   RCC_ClkInitStruct.APB1CLKDivider = RCC_HCLK_DIV2;
 224              		.loc 1 305 3 is_stmt 1 view .LVU43
 305:Core/Src/main.c ****   RCC_ClkInitStruct.APB1CLKDivider = RCC_HCLK_DIV2;
 225              		.loc 1 305 35 is_stmt 0 view .LVU44
 226 0042 0023     		movs	r3, #0
 227 0044 0393     		str	r3, [sp, #12]
 306:Core/Src/main.c ****   RCC_ClkInitStruct.APB2CLKDivider = RCC_HCLK_DIV1;
 228              		.loc 1 306 3 is_stmt 1 view .LVU45
 306:Core/Src/main.c ****   RCC_ClkInitStruct.APB2CLKDivider = RCC_HCLK_DIV1;
 229              		.loc 1 306 36 is_stmt 0 view .LVU46
 230 0046 4FF48062 		mov	r2, #1024
 231 004a 0492     		str	r2, [sp, #16]
 307:Core/Src/main.c **** 
 232              		.loc 1 307 3 is_stmt 1 view .LVU47
ARM GAS  C:\Users\84759\AppData\Local\Temp\ccCf9GIG.s 			page 14


 307:Core/Src/main.c **** 
 233              		.loc 1 307 36 is_stmt 0 view .LVU48
 234 004c 0593     		str	r3, [sp, #20]
 309:Core/Src/main.c ****   {
 235              		.loc 1 309 3 is_stmt 1 view .LVU49
 309:Core/Src/main.c ****   {
 236              		.loc 1 309 7 is_stmt 0 view .LVU50
 237 004e 01A8     		add	r0, sp, #4
 238 0050 FFF7FEFF 		bl	HAL_RCC_ClockConfig
 239              	.LVL7:
 309:Core/Src/main.c ****   {
 240              		.loc 1 309 6 view .LVU51
 241 0054 20B9     		cbnz	r0, .L12
 313:Core/Src/main.c **** 
 242              		.loc 1 313 1 view .LVU52
 243 0056 11B0     		add	sp, sp, #68
 244              	.LCFI8:
 245              		.cfi_remember_state
 246              		.cfi_def_cfa_offset 4
 247              		@ sp needed
 248 0058 5DF804FB 		ldr	pc, [sp], #4
 249              	.L11:
 250              	.LCFI9:
 251              		.cfi_restore_state
 297:Core/Src/main.c ****   }
 252              		.loc 1 297 5 is_stmt 1 view .LVU53
 253 005c FFF7FEFF 		bl	Error_Handler
 254              	.LVL8:
 255              	.L12:
 311:Core/Src/main.c ****   }
 256              		.loc 1 311 5 view .LVU54
 257 0060 FFF7FEFF 		bl	Error_Handler
 258              	.LVL9:
 259              		.cfi_endproc
 260              	.LFE69:
 262              		.section	.rodata.main.str1.4,"aMS",%progbits,1
 263              		.align	2
 264              	.LC0:
 265 0000 3D3D3D3D 		.ascii	"===== W25Q16 FatFs Mount Test =====\015\012\000"
 265      3D205732 
 265      35513136 
 265      20466174 
 265      4673204D 
 266 0026 0000     		.align	2
 267              	.LC1:
 268 0028 303A00   		.ascii	"0:\000"
 269 002b 00       		.align	2
 270              	.LC2:
 271 002c 4E6F2046 		.ascii	"No FileSystem, Start Format...\015\012\000"
 271      696C6553 
 271      79737465 
 271      6D2C2053 
 271      74617274 
 272 004d 000000   		.align	2
 273              	.LC3:
 274 0050 466F726D 		.ascii	"Format Result: %d\015\012\000"
 274      61742052 
ARM GAS  C:\Users\84759\AppData\Local\Temp\ccCf9GIG.s 			page 15


 274      6573756C 
 274      743A2025 
 274      640D0A00 
 275              		.align	2
 276              	.LC4:
 277 0064 4D6F756E 		.ascii	"Mount W25Q16 Success!\015\012\000"
 277      74205732 
 277      35513136 
 277      20537563 
 277      63657373 
 278              		.align	2
 279              	.LC5:
 280 007c 303A7465 		.ascii	"0:test.txt\000"
 280      73742E74 
 280      787400
 281 0087 00       		.align	2
 282              	.LC6:
 283 0088 57323551 		.ascii	"W25Q16 FatFs OK!\000"
 283      31362046 
 283      61744673 
 283      204F4B21 
 283      00
 284 0099 000000   		.align	2
 285              	.LC7:
 286 009c 43726561 		.ascii	"Create test.txt Success! Write %d bytes\015\012\000"
 286      74652074 
 286      6573742E 
 286      74787420 
 286      53756363 
 287 00c6 0000     		.align	2
 288              	.LC8:
 289 00c8 43726561 		.ascii	"Create test.txt Fail! Res=%d\015\012\000"
 289      74652074 
 289      6573742E 
 289      74787420 
 289      4661696C 
 290 00e7 00       		.align	2
 291              	.LC9:
 292 00e8 4D6F756E 		.ascii	"Mount Fail! Res=%d\015\012\000"
 292      74204661 
 292      696C2120 
 292      5265733D 
 292      25640D0A 
 293              		.section	.text.main,"ax",%progbits
 294              		.align	1
 295              		.global	main
 296              		.syntax unified
 297              		.thumb
 298              		.thumb_func
 300              	main:
 301              	.LFB68:
  82:Core/Src/main.c ****   /* USER CODE BEGIN 1 */
 302              		.loc 1 82 1 view -0
 303              		.cfi_startproc
 304              		@ args = 0, pretend = 0, frame = 4152
 305              		@ frame_needed = 0, uses_anonymous_args = 0
 306 0000 10B5     		push	{r4, lr}
ARM GAS  C:\Users\84759\AppData\Local\Temp\ccCf9GIG.s 			page 16


 307              	.LCFI10:
 308              		.cfi_def_cfa_offset 8
 309              		.cfi_offset 4, -8
 310              		.cfi_offset 14, -4
 311 0002 ADF5815D 		sub	sp, sp, #4128
 312              	.LCFI11:
 313              		.cfi_def_cfa_offset 4136
 314 0006 86B0     		sub	sp, sp, #24
 315              	.LCFI12:
 316              		.cfi_def_cfa_offset 4160
  90:Core/Src/main.c **** 
 317              		.loc 1 90 3 view .LVU56
 318 0008 FFF7FEFF 		bl	HAL_Init
 319              	.LVL10:
  97:Core/Src/main.c **** 
 320              		.loc 1 97 3 view .LVU57
 321 000c FFF7FEFF 		bl	SystemClock_Config
 322              	.LVL11:
 104:Core/Src/main.c ****   MX_DMA_Init();
 323              		.loc 1 104 3 view .LVU58
 324 0010 FFF7FEFF 		bl	MX_GPIO_Init
 325              	.LVL12:
 105:Core/Src/main.c ****   MX_USART1_UART_Init();
 326              		.loc 1 105 3 view .LVU59
 327 0014 FFF7FEFF 		bl	MX_DMA_Init
 328              	.LVL13:
 106:Core/Src/main.c ****   MX_SPI1_Init();
 329              		.loc 1 106 3 view .LVU60
 330 0018 FFF7FEFF 		bl	MX_USART1_UART_Init
 331              	.LVL14:
 107:Core/Src/main.c ****   MX_SPI2_Init();
 332              		.loc 1 107 3 view .LVU61
 333 001c FFF7FEFF 		bl	MX_SPI1_Init
 334              	.LVL15:
 108:Core/Src/main.c ****   MX_USART2_UART_Init();
 335              		.loc 1 108 3 view .LVU62
 336 0020 FFF7FEFF 		bl	MX_SPI2_Init
 337              	.LVL16:
 109:Core/Src/main.c ****   MX_I2C1_Init();
 338              		.loc 1 109 3 view .LVU63
 339 0024 FFF7FEFF 		bl	MX_USART2_UART_Init
 340              	.LVL17:
 110:Core/Src/main.c ****   HAL_Delay(50);  // 硬件稳定延时
 341              		.loc 1 110 3 view .LVU64
 342 0028 FFF7FEFF 		bl	MX_I2C1_Init
 343              	.LVL18:
 111:Core/Src/main.c ****   /* USER CODE BEGIN 2 */
 344              		.loc 1 111 3 view .LVU65
 345 002c 3220     		movs	r0, #50
 346 002e FFF7FEFF 		bl	HAL_Delay
 347              	.LVL19:
 113:Core/Src/main.c **** 
 348              		.loc 1 113 3 view .LVU66
 128:Core/Src/main.c ****  
 349              		.loc 1 128 3 view .LVU67
 350 0032 FFF7FEFF 		bl	flash_device_id
 351              	.LVL20:
ARM GAS  C:\Users\84759\AppData\Local\Temp\ccCf9GIG.s 			page 17


 168:Core/Src/main.c ****   res = f_mount(&fs, "0:", 1); // 先尝试挂载逻辑盘0:
 352              		.loc 1 168 3 view .LVU68
 353 0036 3748     		ldr	r0, .L24
 354 0038 FFF7FEFF 		bl	UsbPrintf
 355              	.LVL21:
 169:Core/Src/main.c ****   if(res == FR_NO_FILESYSTEM)  // 无文件系统，执行格式化
 356              		.loc 1 169 3 view .LVU69
 169:Core/Src/main.c ****   if(res == FR_NO_FILESYSTEM)  // 无文件系统，执行格式化
 357              		.loc 1 169 9 is_stmt 0 view .LVU70
 358 003c 0122     		movs	r2, #1
 359 003e 3649     		ldr	r1, .L24+4
 360 0040 3648     		ldr	r0, .L24+8
 361 0042 FFF7FEFF 		bl	f_mount
 362              	.LVL22:
 169:Core/Src/main.c ****   if(res == FR_NO_FILESYSTEM)  // 无文件系统，执行格式化
 363              		.loc 1 169 7 view .LVU71
 364 0046 364B     		ldr	r3, .L24+12
 365 0048 1870     		strb	r0, [r3]
 170:Core/Src/main.c ****   {
 366              		.loc 1 170 3 is_stmt 1 view .LVU72
 170:Core/Src/main.c ****   {
 367              		.loc 1 170 5 is_stmt 0 view .LVU73
 368 004a 0D28     		cmp	r0, #13
 369 004c 1FD0     		beq	.L23
 370              	.L14:
 194:Core/Src/main.c ****   {
 371              		.loc 1 194 3 is_stmt 1 view .LVU74
 194:Core/Src/main.c ****   {
 372              		.loc 1 194 10 is_stmt 0 view .LVU75
 373 004e 344B     		ldr	r3, .L24+12
 374 0050 1978     		ldrb	r1, [r3]	@ zero_extendqisi2
 194:Core/Src/main.c ****   {
 375              		.loc 1 194 5 view .LVU76
 376 0052 0029     		cmp	r1, #0
 377 0054 51D1     		bne	.L16
 378              	.LBB6:
 196:Core/Src/main.c ****       // 挂载成功后创建测试文件（验证读写）
 379              		.loc 1 196 7 is_stmt 1 view .LVU77
 380 0056 3348     		ldr	r0, .L24+16
 381 0058 FFF7FEFF 		bl	UsbPrintf
 382              	.LVL23:
 198:Core/Src/main.c ****       res = f_open(&f, "0:test.txt", FA_CREATE_ALWAYS | FA_WRITE);
 383              		.loc 1 198 7 view .LVU78
 199:Core/Src/main.c ****       if(res == FR_OK)
 384              		.loc 1 199 7 view .LVU79
 199:Core/Src/main.c ****       if(res == FR_OK)
 385              		.loc 1 199 13 is_stmt 0 view .LVU80
 386 005c 0A22     		movs	r2, #10
 387 005e 3249     		ldr	r1, .L24+20
 388 0060 04A8     		add	r0, sp, #16
 389 0062 FFF7FEFF 		bl	f_open
 390              	.LVL24:
 391 0066 0146     		mov	r1, r0
 199:Core/Src/main.c ****       if(res == FR_OK)
 392              		.loc 1 199 11 view .LVU81
 393 0068 2D4B     		ldr	r3, .L24+12
 394 006a 1870     		strb	r0, [r3]
ARM GAS  C:\Users\84759\AppData\Local\Temp\ccCf9GIG.s 			page 18


 200:Core/Src/main.c ****       {
 395              		.loc 1 200 7 is_stmt 1 view .LVU82
 200:Core/Src/main.c ****       {
 396              		.loc 1 200 9 is_stmt 0 view .LVU83
 397 006c 0028     		cmp	r0, #0
 398 006e 40D1     		bne	.L17
 399              	.LBB7:
 202:Core/Src/main.c ****           f_write(&f, "W25Q16 FatFs OK!", strlen("W25Q16 FatFs OK!"), &bw);
 400              		.loc 1 202 11 is_stmt 1 view .LVU84
 203:Core/Src/main.c ****           f_close(&f); // 必须关闭，否则数据不落地
 401              		.loc 1 203 11 view .LVU85
 402 0070 6B46     		mov	r3, sp
 403 0072 1022     		movs	r2, #16
 404 0074 2D49     		ldr	r1, .L24+24
 405 0076 0DEB0200 		add	r0, sp, r2
 406 007a FFF7FEFF 		bl	f_write
 407              	.LVL25:
 204:Core/Src/main.c ****           UsbPrintf("Create test.txt Success! Write %d bytes\r\n", bw);
 408              		.loc 1 204 11 view .LVU86
 409 007e 04A8     		add	r0, sp, #16
 410 0080 FFF7FEFF 		bl	f_close
 411              	.LVL26:
 205:Core/Src/main.c ****       }
 412              		.loc 1 205 11 view .LVU87
 413 0084 0099     		ldr	r1, [sp, #0]
 414 0086 2A48     		ldr	r0, .L24+28
 415 0088 FFF7FEFF 		bl	UsbPrintf
 416              	.LVL27:
 417              	.LBE7:
 418 008c 38E0     		b	.L19
 419              	.L23:
 420              	.LBE6:
 421              	.LBB8:
 172:Core/Src/main.c ****       BYTE work[4096];    // 强制4096字节缓冲区，避免宏定义问题
 422              		.loc 1 172 7 view .LVU88
 423 008e 2948     		ldr	r0, .L24+32
 424 0090 FFF7FEFF 		bl	UsbPrintf
 425              	.LVL28:
 173:Core/Src/main.c ****       
 426              		.loc 1 173 7 view .LVU89
 176:Core/Src/main.c ****       mkfs_param.fmt      = FM_FAT | FM_SFD ; // FAT16 + 单分区（2MB仅支持FAT16）
 427              		.loc 1 176 7 view .LVU90
 176:Core/Src/main.c ****       mkfs_param.fmt      = FM_FAT | FM_SFD ; // FAT16 + 单分区（2MB仅支持FAT16）
 428              		.loc 1 176 17 is_stmt 0 view .LVU91
 429 0094 6A46     		mov	r2, sp
 430 0096 0023     		movs	r3, #0
 431 0098 0093     		str	r3, [sp, #0]
 432 009a 5360     		str	r3, [r2, #4]
 433 009c 9360     		str	r3, [r2, #8]
 434 009e D360     		str	r3, [r2, #12]
 177:Core/Src/main.c ****       mkfs_param.n_fat    = 2;                // 2个FAT表（标准配置）
 435              		.loc 1 177 7 is_stmt 1 view .LVU92
 177:Core/Src/main.c ****       mkfs_param.n_fat    = 2;                // 2个FAT表（标准配置）
 436              		.loc 1 177 27 is_stmt 0 view .LVU93
 437 00a0 0923     		movs	r3, #9
 438 00a2 8DF80030 		strb	r3, [sp, #0]
 178:Core/Src/main.c ****       mkfs_param.align    = 1;                // 数据区对齐到1个扇区
ARM GAS  C:\Users\84759\AppData\Local\Temp\ccCf9GIG.s 			page 19


 439              		.loc 1 178 7 is_stmt 1 view .LVU94
 178:Core/Src/main.c ****       mkfs_param.align    = 1;                // 数据区对齐到1个扇区
 440              		.loc 1 178 27 is_stmt 0 view .LVU95
 441 00a6 0223     		movs	r3, #2
 442 00a8 8DF80130 		strb	r3, [sp, #1]
 179:Core/Src/main.c ****       mkfs_param.n_root   = 64;               // 根目录项数（适配2MB，64项=2KB，节省空间）
 443              		.loc 1 179 7 is_stmt 1 view .LVU96
 179:Core/Src/main.c ****       mkfs_param.n_root   = 64;               // 根目录项数（适配2MB，64项=2KB，节省空间）
 444              		.loc 1 179 27 is_stmt 0 view .LVU97
 445 00ac 0123     		movs	r3, #1
 446 00ae 0193     		str	r3, [sp, #4]
 180:Core/Src/main.c ****       mkfs_param.au_size  = 4096;             // 簇大小=4KB（匹配W25Q16物理扇区）
 447              		.loc 1 180 7 is_stmt 1 view .LVU98
 180:Core/Src/main.c ****       mkfs_param.au_size  = 4096;             // 簇大小=4KB（匹配W25Q16物理扇区）
 448              		.loc 1 180 27 is_stmt 0 view .LVU99
 449 00b0 4023     		movs	r3, #64
 450 00b2 0293     		str	r3, [sp, #8]
 181:Core/Src/main.c ****       // 调用f_mkfs（传结构体指针，适配新版FatFs）
 451              		.loc 1 181 7 is_stmt 1 view .LVU100
 181:Core/Src/main.c ****       // 调用f_mkfs（传结构体指针，适配新版FatFs）
 452              		.loc 1 181 27 is_stmt 0 view .LVU101
 453 00b4 4FF48053 		mov	r3, #4096
 454 00b8 0393     		str	r3, [sp, #12]
 183:Core/Src/main.c ****       UsbPrintf("Format Result: %d\r\n", res); // 成功返回0（FR_OK）
 455              		.loc 1 183 7 is_stmt 1 view .LVU102
 183:Core/Src/main.c ****       UsbPrintf("Format Result: %d\r\n", res); // 成功返回0（FR_OK）
 456              		.loc 1 183 13 is_stmt 0 view .LVU103
 457 00ba 04AA     		add	r2, sp, #16
 458 00bc 6946     		mov	r1, sp
 459 00be 1648     		ldr	r0, .L24+4
 460 00c0 FFF7FEFF 		bl	f_mkfs
 461              	.LVL29:
 462 00c4 0146     		mov	r1, r0
 183:Core/Src/main.c ****       UsbPrintf("Format Result: %d\r\n", res); // 成功返回0（FR_OK）
 463              		.loc 1 183 11 view .LVU104
 464 00c6 164C     		ldr	r4, .L24+12
 465 00c8 2070     		strb	r0, [r4]
 184:Core/Src/main.c ****       
 466              		.loc 1 184 7 is_stmt 1 view .LVU105
 467 00ca 1B48     		ldr	r0, .L24+36
 468 00cc FFF7FEFF 		bl	UsbPrintf
 469              	.LVL30:
 187:Core/Src/main.c ****       {
 470              		.loc 1 187 7 view .LVU106
 187:Core/Src/main.c ****       {
 471              		.loc 1 187 14 is_stmt 0 view .LVU107
 472 00d0 2378     		ldrb	r3, [r4]	@ zero_extendqisi2
 187:Core/Src/main.c ****       {
 473              		.loc 1 187 9 view .LVU108
 474 00d2 002B     		cmp	r3, #0
 475 00d4 BBD1     		bne	.L14
 189:Core/Src/main.c ****           res = f_mount(&fs, "0:", 1); // 重新挂载
 476              		.loc 1 189 11 is_stmt 1 view .LVU109
 477 00d6 104C     		ldr	r4, .L24+4
 478 00d8 0022     		movs	r2, #0
 479 00da 2146     		mov	r1, r4
 480 00dc 1046     		mov	r0, r2
ARM GAS  C:\Users\84759\AppData\Local\Temp\ccCf9GIG.s 			page 20


 481 00de FFF7FEFF 		bl	f_mount
 482              	.LVL31:
 190:Core/Src/main.c ****       }
 483              		.loc 1 190 11 view .LVU110
 190:Core/Src/main.c ****       }
 484              		.loc 1 190 17 is_stmt 0 view .LVU111
 485 00e2 0122     		movs	r2, #1
 486 00e4 2146     		mov	r1, r4
 487 00e6 0D48     		ldr	r0, .L24+8
 488 00e8 FFF7FEFF 		bl	f_mount
 489              	.LVL32:
 190:Core/Src/main.c ****       }
 490              		.loc 1 190 15 view .LVU112
 491 00ec 0C4B     		ldr	r3, .L24+12
 492 00ee 1870     		strb	r0, [r3]
 493 00f0 ADE7     		b	.L14
 494              	.L17:
 495              	.LBE8:
 496              	.LBB9:
 209:Core/Src/main.c ****       }
 497              		.loc 1 209 11 is_stmt 1 view .LVU113
 498 00f2 1248     		ldr	r0, .L24+40
 499 00f4 FFF7FEFF 		bl	UsbPrintf
 500              	.LVL33:
 501 00f8 02E0     		b	.L19
 502              	.L16:
 503              	.LBE9:
 214:Core/Src/main.c ****   }
 504              		.loc 1 214 7 view .LVU114
 505 00fa 1148     		ldr	r0, .L24+44
 506 00fc FFF7FEFF 		bl	UsbPrintf
 507              	.LVL34:
 508              	.L19:
  82:Core/Src/main.c ****   /* USER CODE BEGIN 1 */
 509              		.loc 1 82 1 is_stmt 0 view .LVU115
 510 0100 0024     		movs	r4, #0
 511              	.LVL35:
 512              	.L20:
 219:Core/Src/main.c ****   {
 513              		.loc 1 219 3 is_stmt 1 view .LVU116
 242:Core/Src/main.c ****     {
 514              		.loc 1 242 5 view .LVU117
 242:Core/Src/main.c ****     {
 515              		.loc 1 242 23 is_stmt 0 view .LVU118
 516 0102 FFF7FEFF 		bl	HAL_GetTick
 517              	.LVL36:
 242:Core/Src/main.c ****     {
 518              		.loc 1 242 8 view .LVU119
 519 0106 A042     		cmp	r0, r4
 520 0108 FBD0     		beq	.L20
 245:Core/Src/main.c ****       {
 521              		.loc 1 245 7 is_stmt 1 view .LVU120
 268:Core/Src/main.c ****       systemTick = HAL_GetTick();
 522              		.loc 1 268 7 view .LVU121
 269:Core/Src/main.c ****     }
 523              		.loc 1 269 7 view .LVU122
 269:Core/Src/main.c ****     }
ARM GAS  C:\Users\84759\AppData\Local\Temp\ccCf9GIG.s 			page 21


 524              		.loc 1 269 20 is_stmt 0 view .LVU123
 525 010a FFF7FEFF 		bl	HAL_GetTick
 526              	.LVL37:
 527 010e 0446     		mov	r4, r0
 528              	.LVL38:
 269:Core/Src/main.c ****     }
 529              		.loc 1 269 20 view .LVU124
 530 0110 F7E7     		b	.L20
 531              	.L25:
 532 0112 00BF     		.align	2
 533              	.L24:
 534 0114 00000000 		.word	.LC0
 535 0118 28000000 		.word	.LC1
 536 011c 00000000 		.word	fs
 537 0120 00000000 		.word	.LANCHOR1
 538 0124 64000000 		.word	.LC4
 539 0128 7C000000 		.word	.LC5
 540 012c 88000000 		.word	.LC6
 541 0130 9C000000 		.word	.LC7
 542 0134 2C000000 		.word	.LC2
 543 0138 50000000 		.word	.LC3
 544 013c C8000000 		.word	.LC8
 545 0140 E8000000 		.word	.LC9
 546              		.cfi_endproc
 547              	.LFE68:
 549              		.global	g_UsbTxBuff
 550              		.global	res
 551              		.global	fs
 552              		.global	recv_buff
 553              		.global	send_test
 554              		.section	.bss.fs,"aw",%nobits
 555              		.align	2
 558              	fs:
 559 0000 00000000 		.space	4148
 559      00000000 
 559      00000000 
 559      00000000 
 559      00000000 
 560              		.section	.bss.g_UsbTxBuff,"aw",%nobits
 561              		.align	2
 562              		.set	.LANCHOR0,. + 0
 565              	g_UsbTxBuff:
 566 0000 00000000 		.space	256
 566      00000000 
 566      00000000 
 566      00000000 
 566      00000000 
 567              		.section	.bss.recv_buff,"aw",%nobits
 568              		.align	2
 571              	recv_buff:
 572 0000 00000000 		.space	256
 572      00000000 
 572      00000000 
 572      00000000 
 572      00000000 
 573              		.section	.bss.res,"aw",%nobits
 574              		.set	.LANCHOR1,. + 0
ARM GAS  C:\Users\84759\AppData\Local\Temp\ccCf9GIG.s 			page 22


 577              	res:
 578 0000 00       		.space	1
 579              		.section	.data.send_test,"aw"
 580              		.align	2
 583              	send_test:
 584 0000 55534152 		.ascii	"USART1 DMA Idle Test\015\012\000"
 584      54312044 
 584      4D412049 
 584      646C6520 
 584      54657374 
 585              		.text
 586              	.Letext0:
 587              		.file 3 "d:\\mingw\\gcc-arm-none-eabi-10.3-2021.10-win32\\gcc-arm-none-eabi-10.3-2021.10\\arm-none
 588              		.file 4 "d:\\mingw\\gcc-arm-none-eabi-10.3-2021.10-win32\\gcc-arm-none-eabi-10.3-2021.10\\arm-none
 589              		.file 5 "Drivers/CMSIS/Device/ST/STM32F1xx/Include/stm32f103xe.h"
 590              		.file 6 "Drivers/STM32F1xx_HAL_Driver/Inc/stm32f1xx_hal_def.h"
 591              		.file 7 "Drivers/STM32F1xx_HAL_Driver/Inc/stm32f1xx_hal_rcc.h"
 592              		.file 8 "Drivers/STM32F1xx_HAL_Driver/Inc/stm32f1xx_hal_rcc_ex.h"
 593              		.file 9 "Drivers/STM32F1xx_HAL_Driver/Inc/stm32f1xx_hal_dma.h"
 594              		.file 10 "Drivers/STM32F1xx_HAL_Driver/Inc/stm32f1xx_hal_uart.h"
 595              		.file 11 "d:\\mingw\\gcc-arm-none-eabi-10.3-2021.10-win32\\gcc-arm-none-eabi-10.3-2021.10\\lib\\gc
 596              		.file 12 "d:\\mingw\\gcc-arm-none-eabi-10.3-2021.10-win32\\gcc-arm-none-eabi-10.3-2021.10\\arm-non
 597              		.file 13 "Core/Src/../FatFs/Inc/ff.h"
 598              		.file 14 "Core/Inc/usart.h"
 599              		.file 15 "d:\\mingw\\gcc-arm-none-eabi-10.3-2021.10-win32\\gcc-arm-none-eabi-10.3-2021.10\\arm-non
 600              		.file 16 "Drivers/STM32F1xx_HAL_Driver/Inc/stm32f1xx_hal.h"
 601              		.file 17 "Core/Inc/gpio.h"
 602              		.file 18 "Core/Inc/dma.h"
 603              		.file 19 "Core/Inc/spi.h"
 604              		.file 20 "Core/Inc/i2c.h"
 605              		.file 21 "Core/Inc/flash.h"
 606              		.file 22 "<built-in>"
ARM GAS  C:\Users\84759\AppData\Local\Temp\ccCf9GIG.s 			page 23

