ARM GAS  C:\Users\86134\AppData\Local\Temp\ccuTN5uR.s 			page 1


   1              		.cpu cortex-m3
   2              		.eabi_attribute 20, 1
   3              		.eabi_attribute 21, 1
   4              		.eabi_attribute 23, 3
   5              		.eabi_attribute 24, 1
   6              		.eabi_attribute 25, 1
   7              		.eabi_attribute 26, 1
   8              		.eabi_attribute 30, 6
   9              		.eabi_attribute 34, 1
  10              		.eabi_attribute 18, 4
  11              		.file	"menu_data.c"
  12              		.text
  13              	.Ltext0:
  14              		.cfi_sections	.debug_frame
  15              		.section	.text.sd2506_messgae,"ax",%progbits
  16              		.align	1
  17              		.global	sd2506_messgae
  18              		.arch armv7-m
  19              		.syntax unified
  20              		.thumb
  21              		.thumb_func
  22              		.fpu softvfp
  24              	sd2506_messgae:
  25              	.LFB32:
  26              		.file 1 "./Hardware/hardware/menu_data.c"
   1:./Hardware/hardware/menu_data.c **** #include "menu.h"
   2:./Hardware/hardware/menu_data.c **** 
   3:./Hardware/hardware/menu_data.c **** 
   4:./Hardware/hardware/menu_data.c **** //void init_timer() {
   5:./Hardware/hardware/menu_data.c **** //    TIM_TimeBaseInitTypeDef TIM_InitStruct;
   6:./Hardware/hardware/menu_data.c **** //    NVIC_InitTypeDef NVIC_InitStruct;
   7:./Hardware/hardware/menu_data.c **** 
   8:./Hardware/hardware/menu_data.c **** //    RCC_APB1PeriphClockCmd(RCC_APB1Periph_TIM2, ENABLE);
   9:./Hardware/hardware/menu_data.c **** 
  10:./Hardware/hardware/menu_data.c **** //    TIM_InitStruct.TIM_Period = 500 - 1; // 500ms
  11:./Hardware/hardware/menu_data.c **** //    TIM_InitStruct.TIM_Prescaler = 7200 - 1; // 84MHz / 8400 = 10kHz
  12:./Hardware/hardware/menu_data.c **** //    TIM_InitStruct.TIM_ClockDivision = TIM_CKD_DIV1;
  13:./Hardware/hardware/menu_data.c **** //    TIM_InitStruct.TIM_CounterMode = TIM_CounterMode_Up;
  14:./Hardware/hardware/menu_data.c **** //    TIM_TimeBaseInit(TIM2, &TIM_InitStruct);
  15:./Hardware/hardware/menu_data.c **** 
  16:./Hardware/hardware/menu_data.c **** //    TIM_ITConfig(TIM2, TIM_IT_Update, ENABLE);
  17:./Hardware/hardware/menu_data.c **** 
  18:./Hardware/hardware/menu_data.c **** //    NVIC_InitStruct.NVIC_IRQChannel = TIM2_IRQn;
  19:./Hardware/hardware/menu_data.c **** //    NVIC_InitStruct.NVIC_IRQChannelPreemptionPriority = 0;
  20:./Hardware/hardware/menu_data.c **** //    NVIC_InitStruct.NVIC_IRQChannelSubPriority = 0;
  21:./Hardware/hardware/menu_data.c **** //    NVIC_InitStruct.NVIC_IRQChannelCmd = ENABLE;
  22:./Hardware/hardware/menu_data.c **** //    NVIC_Init(&NVIC_InitStruct);
  23:./Hardware/hardware/menu_data.c **** 
  24:./Hardware/hardware/menu_data.c **** //    TIM_Cmd(TIM2, ENABLE);
  25:./Hardware/hardware/menu_data.c **** //}
  26:./Hardware/hardware/menu_data.c **** 
  27:./Hardware/hardware/menu_data.c **** //void TIM2_IRQHandler(void) {
  28:./Hardware/hardware/menu_data.c **** //    if (TIM_GetITStatus(TIM2, TIM_IT_Update) != RESET) {
  29:./Hardware/hardware/menu_data.c **** //        sd2505showtime();
  30:./Hardware/hardware/menu_data.c **** //        sd2506_messgae_line();
  31:./Hardware/hardware/menu_data.c **** //        OLED_Update();
  32:./Hardware/hardware/menu_data.c **** 
ARM GAS  C:\Users\86134\AppData\Local\Temp\ccuTN5uR.s 			page 2


  33:./Hardware/hardware/menu_data.c **** //        TIM_ClearITPendingBit(TIM2, TIM_IT_Update);
  34:./Hardware/hardware/menu_data.c **** //    }
  35:./Hardware/hardware/menu_data.c **** //}
  36:./Hardware/hardware/menu_data.c **** 
  37:./Hardware/hardware/menu_data.c **** 
  38:./Hardware/hardware/menu_data.c **** void sd2506_messgae(void)
  39:./Hardware/hardware/menu_data.c **** {
  27              		.loc 1 39 1
  28              		.cfi_startproc
  29              		@ args = 0, pretend = 0, frame = 8
  30              		@ frame_needed = 1, uses_anonymous_args = 0
  31 0000 80B5     		push	{r7, lr}
  32              	.LCFI0:
  33              		.cfi_def_cfa_offset 8
  34              		.cfi_offset 7, -8
  35              		.cfi_offset 14, -4
  36 0002 82B0     		sub	sp, sp, #8
  37              	.LCFI1:
  38              		.cfi_def_cfa_offset 16
  39 0004 00AF     		add	r7, sp, #0
  40              	.LCFI2:
  41              		.cfi_def_cfa_register 7
  40:./Hardware/hardware/menu_data.c **** 	
  41:./Hardware/hardware/menu_data.c **** //	while(1)
  42:./Hardware/hardware/menu_data.c **** //	{
  43:./Hardware/hardware/menu_data.c **** //		sd2505showtime();
  44:./Hardware/hardware/menu_data.c **** //		sd2506_messgae_line();
  45:./Hardware/hardware/menu_data.c **** //		OLED_Update();
  46:./Hardware/hardware/menu_data.c **** //		if(KEY_BACK == 0)
  47:./Hardware/hardware/menu_data.c **** //		{
  48:./Hardware/hardware/menu_data.c **** //			Delay_ms(10);
  49:./Hardware/hardware/menu_data.c **** //			return;
  50:./Hardware/hardware/menu_data.c **** //		}
  51:./Hardware/hardware/menu_data.c **** //	}
  52:./Hardware/hardware/menu_data.c **** 	
  53:./Hardware/hardware/menu_data.c **** 	uint8_t back_press_time = 0;
  42              		.loc 1 53 10
  43 0006 0023     		movs	r3, #0
  44 0008 FB71     		strb	r3, [r7, #7]
  45              	.L6:
  54:./Hardware/hardware/menu_data.c **** 	
  55:./Hardware/hardware/menu_data.c **** 	while(1)
  56:./Hardware/hardware/menu_data.c **** 	{
  57:./Hardware/hardware/menu_data.c **** 		sd2505showtime();
  46              		.loc 1 57 3
  47 000a FFF7FEFF 		bl	sd2505showtime
  58:./Hardware/hardware/menu_data.c **** 		sd2506_messgae_line();
  48              		.loc 1 58 3
  49 000e FFF7FEFF 		bl	sd2506_messgae_line
  59:./Hardware/hardware/menu_data.c **** 		OLED_Update();
  50              		.loc 1 59 3
  51 0012 FFF7FEFF 		bl	OLED_Update
  60:./Hardware/hardware/menu_data.c **** 		
  61:./Hardware/hardware/menu_data.c **** 		if(Key_back == 0)
  52              		.loc 1 61 6
  53 0016 0D4B     		ldr	r3, .L8
  54 0018 1B68     		ldr	r3, [r3]
ARM GAS  C:\Users\86134\AppData\Local\Temp\ccuTN5uR.s 			page 3


  55              		.loc 1 61 5
  56 001a 002B     		cmp	r3, #0
  57 001c 0ED1     		bne	.L2
  62:./Hardware/hardware/menu_data.c **** 		{
  63:./Hardware/hardware/menu_data.c **** 			Delay_ms(10); // 消抖
  58              		.loc 1 63 4
  59 001e 0A20     		movs	r0, #10
  60 0020 FFF7FEFF 		bl	Delay_ms
  64:./Hardware/hardware/menu_data.c **** 			back_press_time += 50; // 每次循环递增50ms
  61              		.loc 1 64 20
  62 0024 FB79     		ldrb	r3, [r7, #7]
  63 0026 3233     		adds	r3, r3, #50
  64 0028 FB71     		strb	r3, [r7, #7]
  65:./Hardware/hardware/menu_data.c **** 			if(back_press_time >= 100)
  65              		.loc 1 65 6
  66 002a FB79     		ldrb	r3, [r7, #7]	@ zero_extendqisi2
  67 002c 632B     		cmp	r3, #99
  68 002e 08D9     		bls	.L7
  66:./Hardware/hardware/menu_data.c **** 			{
  67:./Hardware/hardware/menu_data.c **** 				// 长按200ms，退出函数
  68:./Hardware/hardware/menu_data.c **** 				while(Key_back == 0); // 等待松手
  69              		.loc 1 68 10
  70 0030 00BF     		nop
  71              	.L4:
  72              		.loc 1 68 11 discriminator 1
  73 0032 064B     		ldr	r3, .L8
  74 0034 1B68     		ldr	r3, [r3]
  75              		.loc 1 68 10 discriminator 1
  76 0036 002B     		cmp	r3, #0
  77 0038 FBD0     		beq	.L4
  69:./Hardware/hardware/menu_data.c **** 				break;
  78              		.loc 1 69 5
  79 003a 03E0     		b	.L1
  80              	.L2:
  70:./Hardware/hardware/menu_data.c **** 			}
  71:./Hardware/hardware/menu_data.c **** 			return;
  72:./Hardware/hardware/menu_data.c **** 		}
  73:./Hardware/hardware/menu_data.c **** 		else
  74:./Hardware/hardware/menu_data.c **** 		{
  75:./Hardware/hardware/menu_data.c **** 			back_press_time = 0; // 重置计时器
  81              		.loc 1 75 20
  82 003c 0023     		movs	r3, #0
  83 003e FB71     		strb	r3, [r7, #7]
  57:./Hardware/hardware/menu_data.c **** 		sd2506_messgae_line();
  84              		.loc 1 57 3
  85 0040 E3E7     		b	.L6
  86              	.L7:
  71:./Hardware/hardware/menu_data.c **** 		}
  87              		.loc 1 71 4
  88 0042 00BF     		nop
  89              	.L1:
  76:./Hardware/hardware/menu_data.c **** 		}
  77:./Hardware/hardware/menu_data.c **** 	}
  78:./Hardware/hardware/menu_data.c **** }
  90              		.loc 1 78 1
  91 0044 0837     		adds	r7, r7, #8
  92              	.LCFI3:
ARM GAS  C:\Users\86134\AppData\Local\Temp\ccuTN5uR.s 			page 4


  93              		.cfi_def_cfa_offset 8
  94 0046 BD46     		mov	sp, r7
  95              	.LCFI4:
  96              		.cfi_def_cfa_register 13
  97              		@ sp needed
  98 0048 80BD     		pop	{r7, pc}
  99              	.L9:
 100 004a 00BF     		.align	2
 101              	.L8:
 102 004c 34812142 		.word	1109492020
 103              		.cfi_endproc
 104              	.LFE32:
 106              		.section	.text.SD_Series_64addr_time,"ax",%progbits
 107              		.align	1
 108              		.global	SD_Series_64addr_time
 109              		.syntax unified
 110              		.thumb
 111              		.thumb_func
 112              		.fpu softvfp
 114              	SD_Series_64addr_time:
 115              	.LFB33:
  79:./Hardware/hardware/menu_data.c **** 
  80:./Hardware/hardware/menu_data.c **** void SD_Series_64addr_time(void)
  81:./Hardware/hardware/menu_data.c **** {
 116              		.loc 1 81 1
 117              		.cfi_startproc
 118              		@ args = 0, pretend = 0, frame = 8
 119              		@ frame_needed = 1, uses_anonymous_args = 0
 120 0000 80B5     		push	{r7, lr}
 121              	.LCFI5:
 122              		.cfi_def_cfa_offset 8
 123              		.cfi_offset 7, -8
 124              		.cfi_offset 14, -4
 125 0002 82B0     		sub	sp, sp, #8
 126              	.LCFI6:
 127              		.cfi_def_cfa_offset 16
 128 0004 00AF     		add	r7, sp, #0
 129              	.LCFI7:
 130              		.cfi_def_cfa_register 7
  82:./Hardware/hardware/menu_data.c **** 	uint8_t back_press_time = 0;
 131              		.loc 1 82 10
 132 0006 0023     		movs	r3, #0
 133 0008 FB71     		strb	r3, [r7, #7]
  83:./Hardware/hardware/menu_data.c **** 	uint8_t enter_press_time = 0;
 134              		.loc 1 83 10
 135 000a 0023     		movs	r3, #0
 136 000c BB71     		strb	r3, [r7, #6]
 137              	.L19:
  84:./Hardware/hardware/menu_data.c **** 	
  85:./Hardware/hardware/menu_data.c **** 	while(1)
  86:./Hardware/hardware/menu_data.c **** 	{
  87:./Hardware/hardware/menu_data.c **** 		sd2xxx_and_std();
 138              		.loc 1 87 3
 139 000e FFF7FEFF 		bl	sd2xxx_and_std
  88:./Hardware/hardware/menu_data.c **** 		OLED_Update();
 140              		.loc 1 88 3
 141 0012 FFF7FEFF 		bl	OLED_Update
ARM GAS  C:\Users\86134\AppData\Local\Temp\ccuTN5uR.s 			page 5


  89:./Hardware/hardware/menu_data.c **** 		
  90:./Hardware/hardware/menu_data.c **** 		if(Key_back == 0)
 142              		.loc 1 90 6
 143 0016 194B     		ldr	r3, .L21
 144 0018 1B68     		ldr	r3, [r3]
 145              		.loc 1 90 5
 146 001a 002B     		cmp	r3, #0
 147 001c 0ED1     		bne	.L11
  91:./Hardware/hardware/menu_data.c **** 		{
  92:./Hardware/hardware/menu_data.c **** 			Delay_ms(10); // 消抖
 148              		.loc 1 92 4
 149 001e 0A20     		movs	r0, #10
 150 0020 FFF7FEFF 		bl	Delay_ms
  93:./Hardware/hardware/menu_data.c **** 			back_press_time += 50; // 每次循环递增50ms
 151              		.loc 1 93 20
 152 0024 FB79     		ldrb	r3, [r7, #7]
 153 0026 3233     		adds	r3, r3, #50
 154 0028 FB71     		strb	r3, [r7, #7]
  94:./Hardware/hardware/menu_data.c **** 			if(back_press_time >= 100)
 155              		.loc 1 94 6
 156 002a FB79     		ldrb	r3, [r7, #7]	@ zero_extendqisi2
 157 002c 632B     		cmp	r3, #99
 158 002e 21D9     		bls	.L20
  95:./Hardware/hardware/menu_data.c **** 			{
  96:./Hardware/hardware/menu_data.c **** 				// 长按200ms，退出函数
  97:./Hardware/hardware/menu_data.c **** 				while(Key_back == 0); // 等待松手
 159              		.loc 1 97 10
 160 0030 00BF     		nop
 161              	.L13:
 162              		.loc 1 97 11 discriminator 1
 163 0032 124B     		ldr	r3, .L21
 164 0034 1B68     		ldr	r3, [r3]
 165              		.loc 1 97 10 discriminator 1
 166 0036 002B     		cmp	r3, #0
 167 0038 FBD0     		beq	.L13
  98:./Hardware/hardware/menu_data.c **** 				break;
 168              		.loc 1 98 5
 169 003a 1CE0     		b	.L10
 170              	.L11:
  99:./Hardware/hardware/menu_data.c **** 			}
 100:./Hardware/hardware/menu_data.c **** 			return;
 101:./Hardware/hardware/menu_data.c **** 		}
 102:./Hardware/hardware/menu_data.c **** 		else
 103:./Hardware/hardware/menu_data.c **** 		{
 104:./Hardware/hardware/menu_data.c **** 			back_press_time = 0; // 重置计时器
 171              		.loc 1 104 20
 172 003c 0023     		movs	r3, #0
 173 003e FB71     		strb	r3, [r7, #7]
 105:./Hardware/hardware/menu_data.c **** 		}
 106:./Hardware/hardware/menu_data.c **** 		
 107:./Hardware/hardware/menu_data.c **** 		if(Key_up == 0)
 174              		.loc 1 107 6
 175 0040 0F4B     		ldr	r3, .L21+4
 176 0042 1B68     		ldr	r3, [r3]
 177              		.loc 1 107 5
 178 0044 002B     		cmp	r3, #0
 179 0046 12D1     		bne	.L15
ARM GAS  C:\Users\86134\AppData\Local\Temp\ccuTN5uR.s 			page 6


 108:./Hardware/hardware/menu_data.c **** 		{
 109:./Hardware/hardware/menu_data.c **** 			Delay_ms(10); // 消抖
 180              		.loc 1 109 4
 181 0048 0A20     		movs	r0, #10
 182 004a FFF7FEFF 		bl	Delay_ms
 110:./Hardware/hardware/menu_data.c **** 			enter_press_time += 50; // 每次循环递增50ms
 183              		.loc 1 110 21
 184 004e BB79     		ldrb	r3, [r7, #6]
 185 0050 3233     		adds	r3, r3, #50
 186 0052 BB71     		strb	r3, [r7, #6]
 111:./Hardware/hardware/menu_data.c **** 			if(enter_press_time >= 100)
 187              		.loc 1 111 6
 188 0054 BB79     		ldrb	r3, [r7, #6]	@ zero_extendqisi2
 189 0056 632B     		cmp	r3, #99
 190 0058 D9D9     		bls	.L19
 112:./Hardware/hardware/menu_data.c **** 			{
 113:./Hardware/hardware/menu_data.c **** 				// 长按200ms，退出函数
 114:./Hardware/hardware/menu_data.c **** 				while(Key_up == 0) // 等待松手
 191              		.loc 1 114 10
 192 005a 03E0     		b	.L17
 193              	.L18:
 115:./Hardware/hardware/menu_data.c **** 				{
 116:./Hardware/hardware/menu_data.c **** 					sd2xxx_time_copy();
 194              		.loc 1 116 6
 195 005c FFF7FEFF 		bl	sd2xxx_time_copy
 117:./Hardware/hardware/menu_data.c **** 					OLED_Update();
 196              		.loc 1 117 6
 197 0060 FFF7FEFF 		bl	OLED_Update
 198              	.L17:
 114:./Hardware/hardware/menu_data.c **** 				{
 199              		.loc 1 114 11
 200 0064 064B     		ldr	r3, .L21+4
 201 0066 1B68     		ldr	r3, [r3]
 114:./Hardware/hardware/menu_data.c **** 				{
 202              		.loc 1 114 10
 203 0068 002B     		cmp	r3, #0
 204 006a F7D0     		beq	.L18
 205 006c CFE7     		b	.L19
 206              	.L15:
 118:./Hardware/hardware/menu_data.c **** 				}
 119:./Hardware/hardware/menu_data.c **** 			} 
 120:./Hardware/hardware/menu_data.c **** 		}
 121:./Hardware/hardware/menu_data.c **** 		else
 122:./Hardware/hardware/menu_data.c **** 		{
 123:./Hardware/hardware/menu_data.c **** 			enter_press_time = 0; // 重置计时器
 207              		.loc 1 123 21
 208 006e 0023     		movs	r3, #0
 209 0070 BB71     		strb	r3, [r7, #6]
  87:./Hardware/hardware/menu_data.c **** 		OLED_Update();
 210              		.loc 1 87 3
 211 0072 CCE7     		b	.L19
 212              	.L20:
 100:./Hardware/hardware/menu_data.c **** 		}
 213              		.loc 1 100 4
 214 0074 00BF     		nop
 215              	.L10:
 124:./Hardware/hardware/menu_data.c **** 		}
ARM GAS  C:\Users\86134\AppData\Local\Temp\ccuTN5uR.s 			page 7


 125:./Hardware/hardware/menu_data.c **** 		
 126:./Hardware/hardware/menu_data.c **** 	}
 127:./Hardware/hardware/menu_data.c **** 	
 128:./Hardware/hardware/menu_data.c **** }
 216              		.loc 1 128 1
 217 0076 0837     		adds	r7, r7, #8
 218              	.LCFI8:
 219              		.cfi_def_cfa_offset 8
 220 0078 BD46     		mov	sp, r7
 221              	.LCFI9:
 222              		.cfi_def_cfa_register 13
 223              		@ sp needed
 224 007a 80BD     		pop	{r7, pc}
 225              	.L22:
 226              		.align	2
 227              	.L21:
 228 007c 34812142 		.word	1109492020
 229 0080 30812142 		.word	1109492016
 230              		.cfi_endproc
 231              	.LFE33:
 233              		.section	.text.SD3XXX_and_std,"ax",%progbits
 234              		.align	1
 235              		.global	SD3XXX_and_std
 236              		.syntax unified
 237              		.thumb
 238              		.thumb_func
 239              		.fpu softvfp
 241              	SD3XXX_and_std:
 242              	.LFB34:
 129:./Hardware/hardware/menu_data.c **** 
 130:./Hardware/hardware/menu_data.c **** void SD3XXX_and_std(void)
 131:./Hardware/hardware/menu_data.c **** {
 243              		.loc 1 131 1
 244              		.cfi_startproc
 245              		@ args = 0, pretend = 0, frame = 8
 246              		@ frame_needed = 1, uses_anonymous_args = 0
 247 0000 80B5     		push	{r7, lr}
 248              	.LCFI10:
 249              		.cfi_def_cfa_offset 8
 250              		.cfi_offset 7, -8
 251              		.cfi_offset 14, -4
 252 0002 82B0     		sub	sp, sp, #8
 253              	.LCFI11:
 254              		.cfi_def_cfa_offset 16
 255 0004 00AF     		add	r7, sp, #0
 256              	.LCFI12:
 257              		.cfi_def_cfa_register 7
 132:./Hardware/hardware/menu_data.c **** 	uint8_t back_press_time = 0;
 258              		.loc 1 132 10
 259 0006 0023     		movs	r3, #0
 260 0008 FB71     		strb	r3, [r7, #7]
 133:./Hardware/hardware/menu_data.c **** 	uint8_t enter_press_time = 0;
 261              		.loc 1 133 10
 262 000a 0023     		movs	r3, #0
 263 000c BB71     		strb	r3, [r7, #6]
 134:./Hardware/hardware/menu_data.c **** 	uint8_t down_press_time = 0;
 264              		.loc 1 134 10
ARM GAS  C:\Users\86134\AppData\Local\Temp\ccuTN5uR.s 			page 8


 265 000e 0023     		movs	r3, #0
 266 0010 7B71     		strb	r3, [r7, #5]
 135:./Hardware/hardware/menu_data.c **** 	uint8_t key_state = 0;
 267              		.loc 1 135 10
 268 0012 0023     		movs	r3, #0
 269 0014 3B71     		strb	r3, [r7, #4]
 270              	.L34:
 136:./Hardware/hardware/menu_data.c **** 	
 137:./Hardware/hardware/menu_data.c **** 	while(1)
 138:./Hardware/hardware/menu_data.c **** 	{
 139:./Hardware/hardware/menu_data.c **** 		sd3xxx_and_std();
 271              		.loc 1 139 3
 272 0016 FFF7FEFF 		bl	sd3xxx_and_std
 140:./Hardware/hardware/menu_data.c **** 		OLED_Update();
 273              		.loc 1 140 3
 274 001a FFF7FEFF 		bl	OLED_Update
 141:./Hardware/hardware/menu_data.c **** 		
 142:./Hardware/hardware/menu_data.c **** 		if(Key_back == 0)
 275              		.loc 1 142 6
 276 001e 264B     		ldr	r3, .L36
 277 0020 1B68     		ldr	r3, [r3]
 278              		.loc 1 142 5
 279 0022 002B     		cmp	r3, #0
 280 0024 0ED1     		bne	.L24
 143:./Hardware/hardware/menu_data.c **** 		{
 144:./Hardware/hardware/menu_data.c **** 			Delay_ms(10); // 消抖
 281              		.loc 1 144 4
 282 0026 0A20     		movs	r0, #10
 283 0028 FFF7FEFF 		bl	Delay_ms
 145:./Hardware/hardware/menu_data.c **** 			back_press_time += 50; // 每次循环递增50ms
 284              		.loc 1 145 20
 285 002c FB79     		ldrb	r3, [r7, #7]
 286 002e 3233     		adds	r3, r3, #50
 287 0030 FB71     		strb	r3, [r7, #7]
 146:./Hardware/hardware/menu_data.c **** 			if(back_press_time >= 100)
 288              		.loc 1 146 6
 289 0032 FB79     		ldrb	r3, [r7, #7]	@ zero_extendqisi2
 290 0034 632B     		cmp	r3, #99
 291 0036 3AD9     		bls	.L35
 147:./Hardware/hardware/menu_data.c **** 			{
 148:./Hardware/hardware/menu_data.c **** 				// 长按200ms，退出函数
 149:./Hardware/hardware/menu_data.c **** 				while(Key_back == 0); // 等待松手
 292              		.loc 1 149 10
 293 0038 00BF     		nop
 294              	.L26:
 295              		.loc 1 149 11 discriminator 1
 296 003a 1F4B     		ldr	r3, .L36
 297 003c 1B68     		ldr	r3, [r3]
 298              		.loc 1 149 10 discriminator 1
 299 003e 002B     		cmp	r3, #0
 300 0040 FBD0     		beq	.L26
 150:./Hardware/hardware/menu_data.c **** 				break;
 301              		.loc 1 150 5
 302 0042 35E0     		b	.L23
 303              	.L24:
 151:./Hardware/hardware/menu_data.c **** 			}
 152:./Hardware/hardware/menu_data.c **** 			return;
ARM GAS  C:\Users\86134\AppData\Local\Temp\ccuTN5uR.s 			page 9


 153:./Hardware/hardware/menu_data.c **** 		}
 154:./Hardware/hardware/menu_data.c **** 		else
 155:./Hardware/hardware/menu_data.c **** 		{
 156:./Hardware/hardware/menu_data.c **** 			back_press_time = 0; // 重置计时器
 304              		.loc 1 156 20
 305 0044 0023     		movs	r3, #0
 306 0046 FB71     		strb	r3, [r7, #7]
 157:./Hardware/hardware/menu_data.c **** 		}
 158:./Hardware/hardware/menu_data.c **** /******************上按键************************/
 159:./Hardware/hardware/menu_data.c **** 		if(Key_up == 0)
 307              		.loc 1 159 6
 308 0048 1C4B     		ldr	r3, .L36+4
 309 004a 1B68     		ldr	r3, [r3]
 310              		.loc 1 159 5
 311 004c 002B     		cmp	r3, #0
 312 004e 0DD1     		bne	.L28
 160:./Hardware/hardware/menu_data.c **** 		{
 161:./Hardware/hardware/menu_data.c **** 			Delay_ms(10); // 消抖
 313              		.loc 1 161 4
 314 0050 0A20     		movs	r0, #10
 315 0052 FFF7FEFF 		bl	Delay_ms
 162:./Hardware/hardware/menu_data.c **** 			enter_press_time += 50; // 每次循环递增50ms
 316              		.loc 1 162 21
 317 0056 BB79     		ldrb	r3, [r7, #6]
 318 0058 3233     		adds	r3, r3, #50
 319 005a BB71     		strb	r3, [r7, #6]
 163:./Hardware/hardware/menu_data.c **** 			if(enter_press_time >= 100)
 320              		.loc 1 163 6
 321 005c BB79     		ldrb	r3, [r7, #6]	@ zero_extendqisi2
 322 005e 632B     		cmp	r3, #99
 323 0060 06D9     		bls	.L29
 164:./Hardware/hardware/menu_data.c **** 			{
 165:./Hardware/hardware/menu_data.c **** 				sd3xxx_time_copy();
 324              		.loc 1 165 5
 325 0062 FFF7FEFF 		bl	sd3xxx_time_copy
 166:./Hardware/hardware/menu_data.c **** 				OLED_Update();
 326              		.loc 1 166 5
 327 0066 FFF7FEFF 		bl	OLED_Update
 328 006a 01E0     		b	.L29
 329              	.L28:
 167:./Hardware/hardware/menu_data.c **** 			}
 168:./Hardware/hardware/menu_data.c **** 		}
 169:./Hardware/hardware/menu_data.c **** 		else
 170:./Hardware/hardware/menu_data.c **** 		{
 171:./Hardware/hardware/menu_data.c **** 			enter_press_time = 0; // 重置计时器
 330              		.loc 1 171 21
 331 006c 0023     		movs	r3, #0
 332 006e BB71     		strb	r3, [r7, #6]
 333              	.L29:
 172:./Hardware/hardware/menu_data.c **** 		}
 173:./Hardware/hardware/menu_data.c **** /******************下按键************************/
 174:./Hardware/hardware/menu_data.c ****     if (Key_down == 0)
 334              		.loc 1 174 9
 335 0070 134B     		ldr	r3, .L36+8
 336 0072 1B68     		ldr	r3, [r3]
 337              		.loc 1 174 8
 338 0074 002B     		cmp	r3, #0
ARM GAS  C:\Users\86134\AppData\Local\Temp\ccuTN5uR.s 			page 10


 339 0076 17D1     		bne	.L30
 175:./Hardware/hardware/menu_data.c **** 	{
 176:./Hardware/hardware/menu_data.c ****         Delay_ms(10); // 消抖
 340              		.loc 1 176 9
 341 0078 0A20     		movs	r0, #10
 342 007a FFF7FEFF 		bl	Delay_ms
 177:./Hardware/hardware/menu_data.c ****         down_press_time += 50; // 每次循环递增50ms
 343              		.loc 1 177 25
 344 007e 7B79     		ldrb	r3, [r7, #5]
 345 0080 3233     		adds	r3, r3, #50
 346 0082 7B71     		strb	r3, [r7, #5]
 178:./Hardware/hardware/menu_data.c ****         if (down_press_time >= 200)
 347              		.loc 1 178 12
 348 0084 7B79     		ldrb	r3, [r7, #5]	@ zero_extendqisi2
 349 0086 C72B     		cmp	r3, #199
 350 0088 C5D9     		bls	.L34
 179:./Hardware/hardware/menu_data.c **** 		{
 180:./Hardware/hardware/menu_data.c ****             if (key_state == 0) 
 351              		.loc 1 180 16
 352 008a 3B79     		ldrb	r3, [r7, #4]	@ zero_extendqisi2
 353 008c 002B     		cmp	r3, #0
 354 008e 04D1     		bne	.L32
 181:./Hardware/hardware/menu_data.c **** 			{
 182:./Hardware/hardware/menu_data.c ****                 sd3xxx_charge_on(); // 执行sd3xxx_charge_on()函数
 355              		.loc 1 182 17
 356 0090 FFF7FEFF 		bl	sd3xxx_charge_on
 183:./Hardware/hardware/menu_data.c ****                 key_state = 1; // 更新按键状态为已按下
 357              		.loc 1 183 27
 358 0094 0123     		movs	r3, #1
 359 0096 3B71     		strb	r3, [r7, #4]
 360 0098 03E0     		b	.L33
 361              	.L32:
 184:./Hardware/hardware/menu_data.c ****             } else {
 185:./Hardware/hardware/menu_data.c ****                 sd3xxx_charge_off(); // 执行sd3xxx_charge_off()函数
 362              		.loc 1 185 17
 363 009a FFF7FEFF 		bl	sd3xxx_charge_off
 186:./Hardware/hardware/menu_data.c ****                 key_state = 0; // 更新按键状态为未按下
 364              		.loc 1 186 27
 365 009e 0023     		movs	r3, #0
 366 00a0 3B71     		strb	r3, [r7, #4]
 367              	.L33:
 187:./Hardware/hardware/menu_data.c ****             }
 188:./Hardware/hardware/menu_data.c ****             down_press_time = 0; // 重置计时器
 368              		.loc 1 188 29
 369 00a2 0023     		movs	r3, #0
 370 00a4 7B71     		strb	r3, [r7, #5]
 371 00a6 B6E7     		b	.L34
 372              	.L30:
 189:./Hardware/hardware/menu_data.c ****         }
 190:./Hardware/hardware/menu_data.c ****     } else {
 191:./Hardware/hardware/menu_data.c ****         down_press_time = 0; // 重置计时器
 373              		.loc 1 191 25
 374 00a8 0023     		movs	r3, #0
 375 00aa 7B71     		strb	r3, [r7, #5]
 139:./Hardware/hardware/menu_data.c **** 		OLED_Update();
 376              		.loc 1 139 3
 377 00ac B3E7     		b	.L34
ARM GAS  C:\Users\86134\AppData\Local\Temp\ccuTN5uR.s 			page 11


 378              	.L35:
 152:./Hardware/hardware/menu_data.c **** 		}
 379              		.loc 1 152 4
 380 00ae 00BF     		nop
 381              	.L23:
 192:./Hardware/hardware/menu_data.c **** 		
 193:./Hardware/hardware/menu_data.c **** 		}
 194:./Hardware/hardware/menu_data.c **** 	
 195:./Hardware/hardware/menu_data.c **** 	}
 196:./Hardware/hardware/menu_data.c **** 	
 197:./Hardware/hardware/menu_data.c **** }
 382              		.loc 1 197 1
 383 00b0 0837     		adds	r7, r7, #8
 384              	.LCFI13:
 385              		.cfi_def_cfa_offset 8
 386 00b2 BD46     		mov	sp, r7
 387              	.LCFI14:
 388              		.cfi_def_cfa_register 13
 389              		@ sp needed
 390 00b4 80BD     		pop	{r7, pc}
 391              	.L37:
 392 00b6 00BF     		.align	2
 393              	.L36:
 394 00b8 34812142 		.word	1109492020
 395 00bc 30812142 		.word	1109492016
 396 00c0 38812142 		.word	1109492024
 397              		.cfi_endproc
 398              	.LFE34:
 400              		.section	.text.SD2XXX_Series,"ax",%progbits
 401              		.align	1
 402              		.global	SD2XXX_Series
 403              		.syntax unified
 404              		.thumb
 405              		.thumb_func
 406              		.fpu softvfp
 408              	SD2XXX_Series:
 409              	.LFB35:
 198:./Hardware/hardware/menu_data.c **** 
 199:./Hardware/hardware/menu_data.c **** 
 200:./Hardware/hardware/menu_data.c **** void SD2XXX_Series(void)
 201:./Hardware/hardware/menu_data.c **** {
 410              		.loc 1 201 1
 411              		.cfi_startproc
 412              		@ args = 0, pretend = 0, frame = 8
 413              		@ frame_needed = 1, uses_anonymous_args = 0
 414 0000 80B5     		push	{r7, lr}
 415              	.LCFI15:
 416              		.cfi_def_cfa_offset 8
 417              		.cfi_offset 7, -8
 418              		.cfi_offset 14, -4
 419 0002 82B0     		sub	sp, sp, #8
 420              	.LCFI16:
 421              		.cfi_def_cfa_offset 16
 422 0004 00AF     		add	r7, sp, #0
 423              	.LCFI17:
 424              		.cfi_def_cfa_register 7
 202:./Hardware/hardware/menu_data.c **** 	uint8_t back_press_time = 0;
ARM GAS  C:\Users\86134\AppData\Local\Temp\ccuTN5uR.s 			page 12


 425              		.loc 1 202 10
 426 0006 0023     		movs	r3, #0
 427 0008 FB71     		strb	r3, [r7, #7]
 428              	.L43:
 203:./Hardware/hardware/menu_data.c **** 	
 204:./Hardware/hardware/menu_data.c **** 	while(1)
 205:./Hardware/hardware/menu_data.c **** 	{
 206:./Hardware/hardware/menu_data.c **** 		sd2xxx_time_show();
 429              		.loc 1 206 3
 430 000a FFF7FEFF 		bl	sd2xxx_time_show
 207:./Hardware/hardware/menu_data.c **** 		OLED_Update();
 431              		.loc 1 207 3
 432 000e FFF7FEFF 		bl	OLED_Update
 208:./Hardware/hardware/menu_data.c **** 		if(Key_back == 0)
 433              		.loc 1 208 6
 434 0012 0D4B     		ldr	r3, .L45
 435 0014 1B68     		ldr	r3, [r3]
 436              		.loc 1 208 5
 437 0016 002B     		cmp	r3, #0
 438 0018 0ED1     		bne	.L39
 209:./Hardware/hardware/menu_data.c **** 		{
 210:./Hardware/hardware/menu_data.c **** 			Delay_ms(10); // 消抖
 439              		.loc 1 210 4
 440 001a 0A20     		movs	r0, #10
 441 001c FFF7FEFF 		bl	Delay_ms
 211:./Hardware/hardware/menu_data.c **** 			back_press_time += 50; // 每次循环递增50ms
 442              		.loc 1 211 20
 443 0020 FB79     		ldrb	r3, [r7, #7]
 444 0022 3233     		adds	r3, r3, #50
 445 0024 FB71     		strb	r3, [r7, #7]
 212:./Hardware/hardware/menu_data.c **** 			if(back_press_time >= 100)
 446              		.loc 1 212 6
 447 0026 FB79     		ldrb	r3, [r7, #7]	@ zero_extendqisi2
 448 0028 632B     		cmp	r3, #99
 449 002a 08D9     		bls	.L44
 213:./Hardware/hardware/menu_data.c **** 			{
 214:./Hardware/hardware/menu_data.c **** 				// 长按200ms，退出函数
 215:./Hardware/hardware/menu_data.c **** 				while(Key_back == 0); // 等待松手
 450              		.loc 1 215 10
 451 002c 00BF     		nop
 452              	.L41:
 453              		.loc 1 215 11 discriminator 1
 454 002e 064B     		ldr	r3, .L45
 455 0030 1B68     		ldr	r3, [r3]
 456              		.loc 1 215 10 discriminator 1
 457 0032 002B     		cmp	r3, #0
 458 0034 FBD0     		beq	.L41
 216:./Hardware/hardware/menu_data.c **** 				break;
 459              		.loc 1 216 5
 460 0036 03E0     		b	.L38
 461              	.L39:
 217:./Hardware/hardware/menu_data.c **** 			}
 218:./Hardware/hardware/menu_data.c **** 			return;
 219:./Hardware/hardware/menu_data.c **** 		}
 220:./Hardware/hardware/menu_data.c **** 		else
 221:./Hardware/hardware/menu_data.c **** 		{
 222:./Hardware/hardware/menu_data.c **** 			back_press_time = 0; // 重置计时器
ARM GAS  C:\Users\86134\AppData\Local\Temp\ccuTN5uR.s 			page 13


 462              		.loc 1 222 20
 463 0038 0023     		movs	r3, #0
 464 003a FB71     		strb	r3, [r7, #7]
 206:./Hardware/hardware/menu_data.c **** 		OLED_Update();
 465              		.loc 1 206 3
 466 003c E5E7     		b	.L43
 467              	.L44:
 218:./Hardware/hardware/menu_data.c **** 		}
 468              		.loc 1 218 4
 469 003e 00BF     		nop
 470              	.L38:
 223:./Hardware/hardware/menu_data.c **** 		}
 224:./Hardware/hardware/menu_data.c **** 	}
 225:./Hardware/hardware/menu_data.c **** 	
 226:./Hardware/hardware/menu_data.c **** }
 471              		.loc 1 226 1
 472 0040 0837     		adds	r7, r7, #8
 473              	.LCFI18:
 474              		.cfi_def_cfa_offset 8
 475 0042 BD46     		mov	sp, r7
 476              	.LCFI19:
 477              		.cfi_def_cfa_register 13
 478              		@ sp needed
 479 0044 80BD     		pop	{r7, pc}
 480              	.L46:
 481 0046 00BF     		.align	2
 482              	.L45:
 483 0048 34812142 		.word	1109492020
 484              		.cfi_endproc
 485              	.LFE35:
 487              		.section	.text.SD3XXX_Series,"ax",%progbits
 488              		.align	1
 489              		.global	SD3XXX_Series
 490              		.syntax unified
 491              		.thumb
 492              		.thumb_func
 493              		.fpu softvfp
 495              	SD3XXX_Series:
 496              	.LFB36:
 227:./Hardware/hardware/menu_data.c **** 
 228:./Hardware/hardware/menu_data.c **** void SD3XXX_Series(void)
 229:./Hardware/hardware/menu_data.c **** {
 497              		.loc 1 229 1
 498              		.cfi_startproc
 499              		@ args = 0, pretend = 0, frame = 8
 500              		@ frame_needed = 1, uses_anonymous_args = 0
 501 0000 80B5     		push	{r7, lr}
 502              	.LCFI20:
 503              		.cfi_def_cfa_offset 8
 504              		.cfi_offset 7, -8
 505              		.cfi_offset 14, -4
 506 0002 82B0     		sub	sp, sp, #8
 507              	.LCFI21:
 508              		.cfi_def_cfa_offset 16
 509 0004 00AF     		add	r7, sp, #0
 510              	.LCFI22:
 511              		.cfi_def_cfa_register 7
ARM GAS  C:\Users\86134\AppData\Local\Temp\ccuTN5uR.s 			page 14


 230:./Hardware/hardware/menu_data.c **** 	uint8_t back_press_time = 0;
 512              		.loc 1 230 10
 513 0006 0023     		movs	r3, #0
 514 0008 FB71     		strb	r3, [r7, #7]
 515              	.L52:
 231:./Hardware/hardware/menu_data.c **** 	
 232:./Hardware/hardware/menu_data.c **** 	while(1)
 233:./Hardware/hardware/menu_data.c **** 	{
 234:./Hardware/hardware/menu_data.c **** 		sd3xxx_time_show();
 516              		.loc 1 234 3
 517 000a FFF7FEFF 		bl	sd3xxx_time_show
 235:./Hardware/hardware/menu_data.c **** 		OLED_Update();
 518              		.loc 1 235 3
 519 000e FFF7FEFF 		bl	OLED_Update
 236:./Hardware/hardware/menu_data.c **** 		if(Key_back == 0)
 520              		.loc 1 236 6
 521 0012 0D4B     		ldr	r3, .L54
 522 0014 1B68     		ldr	r3, [r3]
 523              		.loc 1 236 5
 524 0016 002B     		cmp	r3, #0
 525 0018 0ED1     		bne	.L48
 237:./Hardware/hardware/menu_data.c **** 		{
 238:./Hardware/hardware/menu_data.c **** 			Delay_ms(10); // 消抖
 526              		.loc 1 238 4
 527 001a 0A20     		movs	r0, #10
 528 001c FFF7FEFF 		bl	Delay_ms
 239:./Hardware/hardware/menu_data.c **** 			back_press_time += 50; // 每次循环递增50ms
 529              		.loc 1 239 20
 530 0020 FB79     		ldrb	r3, [r7, #7]
 531 0022 3233     		adds	r3, r3, #50
 532 0024 FB71     		strb	r3, [r7, #7]
 240:./Hardware/hardware/menu_data.c **** 			if(back_press_time >= 100)
 533              		.loc 1 240 6
 534 0026 FB79     		ldrb	r3, [r7, #7]	@ zero_extendqisi2
 535 0028 632B     		cmp	r3, #99
 536 002a 08D9     		bls	.L53
 241:./Hardware/hardware/menu_data.c **** 			{
 242:./Hardware/hardware/menu_data.c **** 				// 长按200ms，退出函数
 243:./Hardware/hardware/menu_data.c **** 				while(Key_back == 0); // 等待松手
 537              		.loc 1 243 10
 538 002c 00BF     		nop
 539              	.L50:
 540              		.loc 1 243 11 discriminator 1
 541 002e 064B     		ldr	r3, .L54
 542 0030 1B68     		ldr	r3, [r3]
 543              		.loc 1 243 10 discriminator 1
 544 0032 002B     		cmp	r3, #0
 545 0034 FBD0     		beq	.L50
 244:./Hardware/hardware/menu_data.c **** 				break;
 546              		.loc 1 244 5
 547 0036 03E0     		b	.L47
 548              	.L48:
 245:./Hardware/hardware/menu_data.c **** 			}
 246:./Hardware/hardware/menu_data.c **** 			return;
 247:./Hardware/hardware/menu_data.c **** 		}
 248:./Hardware/hardware/menu_data.c **** 		else
 249:./Hardware/hardware/menu_data.c **** 		{
ARM GAS  C:\Users\86134\AppData\Local\Temp\ccuTN5uR.s 			page 15


 250:./Hardware/hardware/menu_data.c **** 			back_press_time = 0; // 重置计时器
 549              		.loc 1 250 20
 550 0038 0023     		movs	r3, #0
 551 003a FB71     		strb	r3, [r7, #7]
 234:./Hardware/hardware/menu_data.c **** 		OLED_Update();
 552              		.loc 1 234 3
 553 003c E5E7     		b	.L52
 554              	.L53:
 246:./Hardware/hardware/menu_data.c **** 		}
 555              		.loc 1 246 4
 556 003e 00BF     		nop
 557              	.L47:
 251:./Hardware/hardware/menu_data.c **** 		}
 252:./Hardware/hardware/menu_data.c **** 	}
 253:./Hardware/hardware/menu_data.c **** }
 558              		.loc 1 253 1
 559 0040 0837     		adds	r7, r7, #8
 560              	.LCFI23:
 561              		.cfi_def_cfa_offset 8
 562 0042 BD46     		mov	sp, r7
 563              	.LCFI24:
 564              		.cfi_def_cfa_register 13
 565              		@ sp needed
 566 0044 80BD     		pop	{r7, pc}
 567              	.L55:
 568 0046 00BF     		.align	2
 569              	.L54:
 570 0048 34812142 		.word	1109492020
 571              		.cfi_endproc
 572              	.LFE36:
 574              		.section	.text.SD85XX_Series,"ax",%progbits
 575              		.align	1
 576              		.global	SD85XX_Series
 577              		.syntax unified
 578              		.thumb
 579              		.thumb_func
 580              		.fpu softvfp
 582              	SD85XX_Series:
 583              	.LFB37:
 254:./Hardware/hardware/menu_data.c **** 
 255:./Hardware/hardware/menu_data.c **** void SD85XX_Series(void)
 256:./Hardware/hardware/menu_data.c **** {
 584              		.loc 1 256 1
 585              		.cfi_startproc
 586              		@ args = 0, pretend = 0, frame = 8
 587              		@ frame_needed = 1, uses_anonymous_args = 0
 588 0000 80B5     		push	{r7, lr}
 589              	.LCFI25:
 590              		.cfi_def_cfa_offset 8
 591              		.cfi_offset 7, -8
 592              		.cfi_offset 14, -4
 593 0002 82B0     		sub	sp, sp, #8
 594              	.LCFI26:
 595              		.cfi_def_cfa_offset 16
 596 0004 00AF     		add	r7, sp, #0
 597              	.LCFI27:
 598              		.cfi_def_cfa_register 7
ARM GAS  C:\Users\86134\AppData\Local\Temp\ccuTN5uR.s 			page 16


 257:./Hardware/hardware/menu_data.c **** 	uint8_t back_press_time = 0;
 599              		.loc 1 257 10
 600 0006 0023     		movs	r3, #0
 601 0008 FB71     		strb	r3, [r7, #7]
 602              	.L61:
 258:./Hardware/hardware/menu_data.c **** 	
 259:./Hardware/hardware/menu_data.c **** 	while(1)
 260:./Hardware/hardware/menu_data.c **** 	{
 261:./Hardware/hardware/menu_data.c **** 		sd85xx_time_show();
 603              		.loc 1 261 3
 604 000a FFF7FEFF 		bl	sd85xx_time_show
 262:./Hardware/hardware/menu_data.c **** 		OLED_Update();
 605              		.loc 1 262 3
 606 000e FFF7FEFF 		bl	OLED_Update
 263:./Hardware/hardware/menu_data.c **** 		if(Key_back == 0)
 607              		.loc 1 263 6
 608 0012 0D4B     		ldr	r3, .L63
 609 0014 1B68     		ldr	r3, [r3]
 610              		.loc 1 263 5
 611 0016 002B     		cmp	r3, #0
 612 0018 0ED1     		bne	.L57
 264:./Hardware/hardware/menu_data.c **** 		{
 265:./Hardware/hardware/menu_data.c **** 			Delay_ms(10); // 消抖
 613              		.loc 1 265 4
 614 001a 0A20     		movs	r0, #10
 615 001c FFF7FEFF 		bl	Delay_ms
 266:./Hardware/hardware/menu_data.c **** 			back_press_time += 50; // 每次循环递增50ms
 616              		.loc 1 266 20
 617 0020 FB79     		ldrb	r3, [r7, #7]
 618 0022 3233     		adds	r3, r3, #50
 619 0024 FB71     		strb	r3, [r7, #7]
 267:./Hardware/hardware/menu_data.c **** 			if(back_press_time >= 100)
 620              		.loc 1 267 6
 621 0026 FB79     		ldrb	r3, [r7, #7]	@ zero_extendqisi2
 622 0028 632B     		cmp	r3, #99
 623 002a 08D9     		bls	.L62
 268:./Hardware/hardware/menu_data.c **** 			{
 269:./Hardware/hardware/menu_data.c **** 				// 长按200ms，退出函数
 270:./Hardware/hardware/menu_data.c **** 				while(Key_back == 0); // 等待松手
 624              		.loc 1 270 10
 625 002c 00BF     		nop
 626              	.L59:
 627              		.loc 1 270 11 discriminator 1
 628 002e 064B     		ldr	r3, .L63
 629 0030 1B68     		ldr	r3, [r3]
 630              		.loc 1 270 10 discriminator 1
 631 0032 002B     		cmp	r3, #0
 632 0034 FBD0     		beq	.L59
 271:./Hardware/hardware/menu_data.c **** 				break;
 633              		.loc 1 271 5
 634 0036 03E0     		b	.L56
 635              	.L57:
 272:./Hardware/hardware/menu_data.c **** 			}
 273:./Hardware/hardware/menu_data.c **** 			return;
 274:./Hardware/hardware/menu_data.c **** 		}
 275:./Hardware/hardware/menu_data.c **** 		else
 276:./Hardware/hardware/menu_data.c **** 		{
ARM GAS  C:\Users\86134\AppData\Local\Temp\ccuTN5uR.s 			page 17


 277:./Hardware/hardware/menu_data.c **** 			back_press_time = 0; // 重置计时器
 636              		.loc 1 277 20
 637 0038 0023     		movs	r3, #0
 638 003a FB71     		strb	r3, [r7, #7]
 261:./Hardware/hardware/menu_data.c **** 		OLED_Update();
 639              		.loc 1 261 3
 640 003c E5E7     		b	.L61
 641              	.L62:
 273:./Hardware/hardware/menu_data.c **** 		}
 642              		.loc 1 273 4
 643 003e 00BF     		nop
 644              	.L56:
 278:./Hardware/hardware/menu_data.c **** 		}
 279:./Hardware/hardware/menu_data.c **** 	}
 280:./Hardware/hardware/menu_data.c **** }
 645              		.loc 1 280 1
 646 0040 0837     		adds	r7, r7, #8
 647              	.LCFI28:
 648              		.cfi_def_cfa_offset 8
 649 0042 BD46     		mov	sp, r7
 650              	.LCFI29:
 651              		.cfi_def_cfa_register 13
 652              		@ sp needed
 653 0044 80BD     		pop	{r7, pc}
 654              	.L64:
 655 0046 00BF     		.align	2
 656              	.L63:
 657 0048 34812142 		.word	1109492020
 658              		.cfi_endproc
 659              	.LFE37:
 661              		.section	.text.SD85XX_and_std,"ax",%progbits
 662              		.align	1
 663              		.global	SD85XX_and_std
 664              		.syntax unified
 665              		.thumb
 666              		.thumb_func
 667              		.fpu softvfp
 669              	SD85XX_and_std:
 670              	.LFB38:
 281:./Hardware/hardware/menu_data.c **** 
 282:./Hardware/hardware/menu_data.c **** void SD85XX_and_std(void)
 283:./Hardware/hardware/menu_data.c **** {
 671              		.loc 1 283 1
 672              		.cfi_startproc
 673              		@ args = 0, pretend = 0, frame = 8
 674              		@ frame_needed = 1, uses_anonymous_args = 0
 675 0000 80B5     		push	{r7, lr}
 676              	.LCFI30:
 677              		.cfi_def_cfa_offset 8
 678              		.cfi_offset 7, -8
 679              		.cfi_offset 14, -4
 680 0002 82B0     		sub	sp, sp, #8
 681              	.LCFI31:
 682              		.cfi_def_cfa_offset 16
 683 0004 00AF     		add	r7, sp, #0
 684              	.LCFI32:
 685              		.cfi_def_cfa_register 7
ARM GAS  C:\Users\86134\AppData\Local\Temp\ccuTN5uR.s 			page 18


 284:./Hardware/hardware/menu_data.c **** 	uint8_t back_press_time = 0;
 686              		.loc 1 284 10
 687 0006 0023     		movs	r3, #0
 688 0008 FB71     		strb	r3, [r7, #7]
 285:./Hardware/hardware/menu_data.c **** 	uint8_t enter_press_time = 0;
 689              		.loc 1 285 10
 690 000a 0023     		movs	r3, #0
 691 000c BB71     		strb	r3, [r7, #6]
 692              	.L74:
 286:./Hardware/hardware/menu_data.c **** 	
 287:./Hardware/hardware/menu_data.c **** 	while(1)
 288:./Hardware/hardware/menu_data.c **** 	{
 289:./Hardware/hardware/menu_data.c **** 		sd85xx_and_std();
 693              		.loc 1 289 3
 694 000e FFF7FEFF 		bl	sd85xx_and_std
 290:./Hardware/hardware/menu_data.c **** 		OLED_Update();
 695              		.loc 1 290 3
 696 0012 FFF7FEFF 		bl	OLED_Update
 291:./Hardware/hardware/menu_data.c **** 		
 292:./Hardware/hardware/menu_data.c **** 		if(Key_back == 0)
 697              		.loc 1 292 6
 698 0016 194B     		ldr	r3, .L76
 699 0018 1B68     		ldr	r3, [r3]
 700              		.loc 1 292 5
 701 001a 002B     		cmp	r3, #0
 702 001c 0ED1     		bne	.L66
 293:./Hardware/hardware/menu_data.c **** 		{
 294:./Hardware/hardware/menu_data.c **** 			Delay_ms(10); // 消抖
 703              		.loc 1 294 4
 704 001e 0A20     		movs	r0, #10
 705 0020 FFF7FEFF 		bl	Delay_ms
 295:./Hardware/hardware/menu_data.c **** 			back_press_time += 50; // 每次循环递增50ms
 706              		.loc 1 295 20
 707 0024 FB79     		ldrb	r3, [r7, #7]
 708 0026 3233     		adds	r3, r3, #50
 709 0028 FB71     		strb	r3, [r7, #7]
 296:./Hardware/hardware/menu_data.c **** 			if(back_press_time >= 100)
 710              		.loc 1 296 6
 711 002a FB79     		ldrb	r3, [r7, #7]	@ zero_extendqisi2
 712 002c 632B     		cmp	r3, #99
 713 002e 21D9     		bls	.L75
 297:./Hardware/hardware/menu_data.c **** 			{
 298:./Hardware/hardware/menu_data.c **** 				// 长按200ms，退出函数
 299:./Hardware/hardware/menu_data.c **** 				while(Key_back == 0); // 等待松手
 714              		.loc 1 299 10
 715 0030 00BF     		nop
 716              	.L68:
 717              		.loc 1 299 11 discriminator 1
 718 0032 124B     		ldr	r3, .L76
 719 0034 1B68     		ldr	r3, [r3]
 720              		.loc 1 299 10 discriminator 1
 721 0036 002B     		cmp	r3, #0
 722 0038 FBD0     		beq	.L68
 300:./Hardware/hardware/menu_data.c **** 				break;
 723              		.loc 1 300 5
 724 003a 1CE0     		b	.L65
 725              	.L66:
ARM GAS  C:\Users\86134\AppData\Local\Temp\ccuTN5uR.s 			page 19


 301:./Hardware/hardware/menu_data.c **** 			}
 302:./Hardware/hardware/menu_data.c **** 			return;
 303:./Hardware/hardware/menu_data.c **** 		}
 304:./Hardware/hardware/menu_data.c **** 		else
 305:./Hardware/hardware/menu_data.c **** 		{
 306:./Hardware/hardware/menu_data.c **** 			back_press_time = 0; // 重置计时器
 726              		.loc 1 306 20
 727 003c 0023     		movs	r3, #0
 728 003e FB71     		strb	r3, [r7, #7]
 307:./Hardware/hardware/menu_data.c **** 		}
 308:./Hardware/hardware/menu_data.c **** 		
 309:./Hardware/hardware/menu_data.c **** 		if(Key_up == 0)
 729              		.loc 1 309 6
 730 0040 0F4B     		ldr	r3, .L76+4
 731 0042 1B68     		ldr	r3, [r3]
 732              		.loc 1 309 5
 733 0044 002B     		cmp	r3, #0
 734 0046 12D1     		bne	.L70
 310:./Hardware/hardware/menu_data.c **** 		{
 311:./Hardware/hardware/menu_data.c **** 			Delay_ms(10); // 消抖
 735              		.loc 1 311 4
 736 0048 0A20     		movs	r0, #10
 737 004a FFF7FEFF 		bl	Delay_ms
 312:./Hardware/hardware/menu_data.c **** 			enter_press_time += 50; // 每次循环递增50ms
 738              		.loc 1 312 21
 739 004e BB79     		ldrb	r3, [r7, #6]
 740 0050 3233     		adds	r3, r3, #50
 741 0052 BB71     		strb	r3, [r7, #6]
 313:./Hardware/hardware/menu_data.c **** 			if(enter_press_time >= 100)
 742              		.loc 1 313 6
 743 0054 BB79     		ldrb	r3, [r7, #6]	@ zero_extendqisi2
 744 0056 632B     		cmp	r3, #99
 745 0058 D9D9     		bls	.L74
 314:./Hardware/hardware/menu_data.c **** 			{
 315:./Hardware/hardware/menu_data.c **** 				// 长按200ms，退出函数
 316:./Hardware/hardware/menu_data.c **** 				while(Key_up == 0) // 等待松手
 746              		.loc 1 316 10
 747 005a 03E0     		b	.L72
 748              	.L73:
 317:./Hardware/hardware/menu_data.c **** 				{
 318:./Hardware/hardware/menu_data.c **** 					sd85xx_time_copy();
 749              		.loc 1 318 6
 750 005c FFF7FEFF 		bl	sd85xx_time_copy
 319:./Hardware/hardware/menu_data.c **** 					OLED_Update();
 751              		.loc 1 319 6
 752 0060 FFF7FEFF 		bl	OLED_Update
 753              	.L72:
 316:./Hardware/hardware/menu_data.c **** 				{
 754              		.loc 1 316 11
 755 0064 064B     		ldr	r3, .L76+4
 756 0066 1B68     		ldr	r3, [r3]
 316:./Hardware/hardware/menu_data.c **** 				{
 757              		.loc 1 316 10
 758 0068 002B     		cmp	r3, #0
 759 006a F7D0     		beq	.L73
 760 006c CFE7     		b	.L74
 761              	.L70:
ARM GAS  C:\Users\86134\AppData\Local\Temp\ccuTN5uR.s 			page 20


 320:./Hardware/hardware/menu_data.c **** 				}
 321:./Hardware/hardware/menu_data.c **** 			} 
 322:./Hardware/hardware/menu_data.c **** 		}
 323:./Hardware/hardware/menu_data.c **** 		else
 324:./Hardware/hardware/menu_data.c **** 		{
 325:./Hardware/hardware/menu_data.c **** 			enter_press_time = 0; // 重置计时器
 762              		.loc 1 325 21
 763 006e 0023     		movs	r3, #0
 764 0070 BB71     		strb	r3, [r7, #6]
 289:./Hardware/hardware/menu_data.c **** 		OLED_Update();
 765              		.loc 1 289 3
 766 0072 CCE7     		b	.L74
 767              	.L75:
 302:./Hardware/hardware/menu_data.c **** 		}
 768              		.loc 1 302 4
 769 0074 00BF     		nop
 770              	.L65:
 326:./Hardware/hardware/menu_data.c **** 		}
 327:./Hardware/hardware/menu_data.c **** 
 328:./Hardware/hardware/menu_data.c **** 	}
 329:./Hardware/hardware/menu_data.c **** }
 771              		.loc 1 329 1
 772 0076 0837     		adds	r7, r7, #8
 773              	.LCFI33:
 774              		.cfi_def_cfa_offset 8
 775 0078 BD46     		mov	sp, r7
 776              	.LCFI34:
 777              		.cfi_def_cfa_register 13
 778              		@ sp needed
 779 007a 80BD     		pop	{r7, pc}
 780              	.L77:
 781              		.align	2
 782              	.L76:
 783 007c 34812142 		.word	1109492020
 784 0080 30812142 		.word	1109492016
 785              		.cfi_endproc
 786              	.LFE38:
 788              		.section	.text.SD8800_Series,"ax",%progbits
 789              		.align	1
 790              		.global	SD8800_Series
 791              		.syntax unified
 792              		.thumb
 793              		.thumb_func
 794              		.fpu softvfp
 796              	SD8800_Series:
 797              	.LFB39:
 330:./Hardware/hardware/menu_data.c **** 
 331:./Hardware/hardware/menu_data.c **** void SD8800_Series(void)
 332:./Hardware/hardware/menu_data.c **** {
 798              		.loc 1 332 1
 799              		.cfi_startproc
 800              		@ args = 0, pretend = 0, frame = 8
 801              		@ frame_needed = 1, uses_anonymous_args = 0
 802 0000 80B5     		push	{r7, lr}
 803              	.LCFI35:
 804              		.cfi_def_cfa_offset 8
 805              		.cfi_offset 7, -8
ARM GAS  C:\Users\86134\AppData\Local\Temp\ccuTN5uR.s 			page 21


 806              		.cfi_offset 14, -4
 807 0002 82B0     		sub	sp, sp, #8
 808              	.LCFI36:
 809              		.cfi_def_cfa_offset 16
 810 0004 00AF     		add	r7, sp, #0
 811              	.LCFI37:
 812              		.cfi_def_cfa_register 7
 333:./Hardware/hardware/menu_data.c **** 	uint8_t back_press_time = 0;
 813              		.loc 1 333 10
 814 0006 0023     		movs	r3, #0
 815 0008 FB71     		strb	r3, [r7, #7]
 816              	.L83:
 334:./Hardware/hardware/menu_data.c **** 	
 335:./Hardware/hardware/menu_data.c **** 	while(1)
 336:./Hardware/hardware/menu_data.c **** 	{
 337:./Hardware/hardware/menu_data.c **** 		sd8800_time_show();
 817              		.loc 1 337 3
 818 000a FFF7FEFF 		bl	sd8800_time_show
 338:./Hardware/hardware/menu_data.c **** 		OLED_Update();
 819              		.loc 1 338 3
 820 000e FFF7FEFF 		bl	OLED_Update
 339:./Hardware/hardware/menu_data.c **** 		if(Key_back == 0)
 821              		.loc 1 339 6
 822 0012 0D4B     		ldr	r3, .L85
 823 0014 1B68     		ldr	r3, [r3]
 824              		.loc 1 339 5
 825 0016 002B     		cmp	r3, #0
 826 0018 0ED1     		bne	.L79
 340:./Hardware/hardware/menu_data.c **** 		{
 341:./Hardware/hardware/menu_data.c **** 			Delay_ms(10); // 消抖
 827              		.loc 1 341 4
 828 001a 0A20     		movs	r0, #10
 829 001c FFF7FEFF 		bl	Delay_ms
 342:./Hardware/hardware/menu_data.c **** 			back_press_time += 50; // 每次循环递增50ms
 830              		.loc 1 342 20
 831 0020 FB79     		ldrb	r3, [r7, #7]
 832 0022 3233     		adds	r3, r3, #50
 833 0024 FB71     		strb	r3, [r7, #7]
 343:./Hardware/hardware/menu_data.c **** 			if(back_press_time >= 100)
 834              		.loc 1 343 6
 835 0026 FB79     		ldrb	r3, [r7, #7]	@ zero_extendqisi2
 836 0028 632B     		cmp	r3, #99
 837 002a 08D9     		bls	.L84
 344:./Hardware/hardware/menu_data.c **** 			{
 345:./Hardware/hardware/menu_data.c **** 				// 长按200ms，退出函数
 346:./Hardware/hardware/menu_data.c **** 				while(Key_back == 0); // 等待松手
 838              		.loc 1 346 10
 839 002c 00BF     		nop
 840              	.L81:
 841              		.loc 1 346 11 discriminator 1
 842 002e 064B     		ldr	r3, .L85
 843 0030 1B68     		ldr	r3, [r3]
 844              		.loc 1 346 10 discriminator 1
 845 0032 002B     		cmp	r3, #0
 846 0034 FBD0     		beq	.L81
 347:./Hardware/hardware/menu_data.c **** 				break;
 847              		.loc 1 347 5
ARM GAS  C:\Users\86134\AppData\Local\Temp\ccuTN5uR.s 			page 22


 848 0036 03E0     		b	.L78
 849              	.L79:
 348:./Hardware/hardware/menu_data.c **** 			}
 349:./Hardware/hardware/menu_data.c **** 			return;
 350:./Hardware/hardware/menu_data.c **** 		}
 351:./Hardware/hardware/menu_data.c **** 		else
 352:./Hardware/hardware/menu_data.c **** 		{
 353:./Hardware/hardware/menu_data.c **** 			back_press_time = 0; // 重置计时器
 850              		.loc 1 353 20
 851 0038 0023     		movs	r3, #0
 852 003a FB71     		strb	r3, [r7, #7]
 337:./Hardware/hardware/menu_data.c **** 		OLED_Update();
 853              		.loc 1 337 3
 854 003c E5E7     		b	.L83
 855              	.L84:
 349:./Hardware/hardware/menu_data.c **** 		}
 856              		.loc 1 349 4
 857 003e 00BF     		nop
 858              	.L78:
 354:./Hardware/hardware/menu_data.c **** 		}
 355:./Hardware/hardware/menu_data.c **** 	}
 356:./Hardware/hardware/menu_data.c **** }
 859              		.loc 1 356 1
 860 0040 0837     		adds	r7, r7, #8
 861              	.LCFI38:
 862              		.cfi_def_cfa_offset 8
 863 0042 BD46     		mov	sp, r7
 864              	.LCFI39:
 865              		.cfi_def_cfa_register 13
 866              		@ sp needed
 867 0044 80BD     		pop	{r7, pc}
 868              	.L86:
 869 0046 00BF     		.align	2
 870              	.L85:
 871 0048 34812142 		.word	1109492020
 872              		.cfi_endproc
 873              	.LFE39:
 875              		.section	.text.SD8800_and_std,"ax",%progbits
 876              		.align	1
 877              		.global	SD8800_and_std
 878              		.syntax unified
 879              		.thumb
 880              		.thumb_func
 881              		.fpu softvfp
 883              	SD8800_and_std:
 884              	.LFB40:
 357:./Hardware/hardware/menu_data.c **** 
 358:./Hardware/hardware/menu_data.c **** void SD8800_and_std(void)
 359:./Hardware/hardware/menu_data.c **** {
 885              		.loc 1 359 1
 886              		.cfi_startproc
 887              		@ args = 0, pretend = 0, frame = 8
 888              		@ frame_needed = 1, uses_anonymous_args = 0
 889 0000 80B5     		push	{r7, lr}
 890              	.LCFI40:
 891              		.cfi_def_cfa_offset 8
 892              		.cfi_offset 7, -8
ARM GAS  C:\Users\86134\AppData\Local\Temp\ccuTN5uR.s 			page 23


 893              		.cfi_offset 14, -4
 894 0002 82B0     		sub	sp, sp, #8
 895              	.LCFI41:
 896              		.cfi_def_cfa_offset 16
 897 0004 00AF     		add	r7, sp, #0
 898              	.LCFI42:
 899              		.cfi_def_cfa_register 7
 360:./Hardware/hardware/menu_data.c **** 	uint8_t back_press_time = 0;
 900              		.loc 1 360 10
 901 0006 0023     		movs	r3, #0
 902 0008 FB71     		strb	r3, [r7, #7]
 361:./Hardware/hardware/menu_data.c **** 	uint8_t enter_press_time = 0;
 903              		.loc 1 361 10
 904 000a 0023     		movs	r3, #0
 905 000c BB71     		strb	r3, [r7, #6]
 362:./Hardware/hardware/menu_data.c **** 	uint8_t down_press_time = 0;
 906              		.loc 1 362 10
 907 000e 0023     		movs	r3, #0
 908 0010 7B71     		strb	r3, [r7, #5]
 363:./Hardware/hardware/menu_data.c **** 	uint8_t key_state = 0;
 909              		.loc 1 363 10
 910 0012 0023     		movs	r3, #0
 911 0014 3B71     		strb	r3, [r7, #4]
 912              	.L100:
 364:./Hardware/hardware/menu_data.c **** 	
 365:./Hardware/hardware/menu_data.c **** 	while(1)
 366:./Hardware/hardware/menu_data.c **** 	{
 367:./Hardware/hardware/menu_data.c **** 		sd8800_and_std();
 913              		.loc 1 367 3
 914 0016 FFF7FEFF 		bl	sd8800_and_std
 368:./Hardware/hardware/menu_data.c **** 		OLED_Update();
 915              		.loc 1 368 3
 916 001a FFF7FEFF 		bl	OLED_Update
 369:./Hardware/hardware/menu_data.c **** 		
 370:./Hardware/hardware/menu_data.c **** 		if(Key_back == 0)
 917              		.loc 1 370 6
 918 001e 284B     		ldr	r3, .L102
 919 0020 1B68     		ldr	r3, [r3]
 920              		.loc 1 370 5
 921 0022 002B     		cmp	r3, #0
 922 0024 0ED1     		bne	.L88
 371:./Hardware/hardware/menu_data.c **** 		{
 372:./Hardware/hardware/menu_data.c **** 			Delay_ms(10); // 消抖
 923              		.loc 1 372 4
 924 0026 0A20     		movs	r0, #10
 925 0028 FFF7FEFF 		bl	Delay_ms
 373:./Hardware/hardware/menu_data.c **** 			back_press_time += 50; // 每次循环递增50ms
 926              		.loc 1 373 20
 927 002c FB79     		ldrb	r3, [r7, #7]
 928 002e 3233     		adds	r3, r3, #50
 929 0030 FB71     		strb	r3, [r7, #7]
 374:./Hardware/hardware/menu_data.c **** 			if(back_press_time >= 100)
 930              		.loc 1 374 6
 931 0032 FB79     		ldrb	r3, [r7, #7]	@ zero_extendqisi2
 932 0034 632B     		cmp	r3, #99
 933 0036 3FD9     		bls	.L101
 375:./Hardware/hardware/menu_data.c **** 			{
ARM GAS  C:\Users\86134\AppData\Local\Temp\ccuTN5uR.s 			page 24


 376:./Hardware/hardware/menu_data.c **** 				// 长按200ms，退出函数
 377:./Hardware/hardware/menu_data.c **** 				while(Key_back == 0); // 等待松手
 934              		.loc 1 377 10
 935 0038 00BF     		nop
 936              	.L90:
 937              		.loc 1 377 11 discriminator 1
 938 003a 214B     		ldr	r3, .L102
 939 003c 1B68     		ldr	r3, [r3]
 940              		.loc 1 377 10 discriminator 1
 941 003e 002B     		cmp	r3, #0
 942 0040 FBD0     		beq	.L90
 378:./Hardware/hardware/menu_data.c **** 				break;
 943              		.loc 1 378 5
 944 0042 3AE0     		b	.L87
 945              	.L88:
 379:./Hardware/hardware/menu_data.c **** 			}
 380:./Hardware/hardware/menu_data.c **** 			return;
 381:./Hardware/hardware/menu_data.c **** 		}
 382:./Hardware/hardware/menu_data.c **** 		else
 383:./Hardware/hardware/menu_data.c **** 		{
 384:./Hardware/hardware/menu_data.c **** 			back_press_time = 0; // 重置计时器
 946              		.loc 1 384 20
 947 0044 0023     		movs	r3, #0
 948 0046 FB71     		strb	r3, [r7, #7]
 385:./Hardware/hardware/menu_data.c **** 		}
 386:./Hardware/hardware/menu_data.c **** 		
 387:./Hardware/hardware/menu_data.c **** 		if(Key_up == 0)
 949              		.loc 1 387 6
 950 0048 1E4B     		ldr	r3, .L102+4
 951 004a 1B68     		ldr	r3, [r3]
 952              		.loc 1 387 5
 953 004c 002B     		cmp	r3, #0
 954 004e 12D1     		bne	.L92
 388:./Hardware/hardware/menu_data.c **** 		{
 389:./Hardware/hardware/menu_data.c **** 			Delay_ms(10); // 消抖
 955              		.loc 1 389 4
 956 0050 0A20     		movs	r0, #10
 957 0052 FFF7FEFF 		bl	Delay_ms
 390:./Hardware/hardware/menu_data.c **** 			enter_press_time += 50; // 每次循环递增50ms
 958              		.loc 1 390 21
 959 0056 BB79     		ldrb	r3, [r7, #6]
 960 0058 3233     		adds	r3, r3, #50
 961 005a BB71     		strb	r3, [r7, #6]
 391:./Hardware/hardware/menu_data.c **** 			if(enter_press_time >= 100)
 962              		.loc 1 391 6
 963 005c BB79     		ldrb	r3, [r7, #6]	@ zero_extendqisi2
 964 005e 632B     		cmp	r3, #99
 965 0060 0BD9     		bls	.L93
 392:./Hardware/hardware/menu_data.c **** 			{
 393:./Hardware/hardware/menu_data.c **** 				// 长按200ms，退出函数
 394:./Hardware/hardware/menu_data.c **** 				while(Key_up == 0) // 等待松手
 966              		.loc 1 394 10
 967 0062 03E0     		b	.L94
 968              	.L95:
 395:./Hardware/hardware/menu_data.c **** 				{
 396:./Hardware/hardware/menu_data.c **** 					sd8800_time_copy();
 969              		.loc 1 396 6
ARM GAS  C:\Users\86134\AppData\Local\Temp\ccuTN5uR.s 			page 25


 970 0064 FFF7FEFF 		bl	sd8800_time_copy
 397:./Hardware/hardware/menu_data.c **** 					OLED_Update();
 971              		.loc 1 397 6
 972 0068 FFF7FEFF 		bl	OLED_Update
 973              	.L94:
 394:./Hardware/hardware/menu_data.c **** 				{
 974              		.loc 1 394 11
 975 006c 154B     		ldr	r3, .L102+4
 976 006e 1B68     		ldr	r3, [r3]
 394:./Hardware/hardware/menu_data.c **** 				{
 977              		.loc 1 394 10
 978 0070 002B     		cmp	r3, #0
 979 0072 F7D0     		beq	.L95
 980 0074 01E0     		b	.L93
 981              	.L92:
 398:./Hardware/hardware/menu_data.c **** 				}
 399:./Hardware/hardware/menu_data.c **** 			} 
 400:./Hardware/hardware/menu_data.c **** 		}
 401:./Hardware/hardware/menu_data.c **** 		else
 402:./Hardware/hardware/menu_data.c **** 		{
 403:./Hardware/hardware/menu_data.c **** 			enter_press_time = 0; // 重置计时器
 982              		.loc 1 403 21
 983 0076 0023     		movs	r3, #0
 984 0078 BB71     		strb	r3, [r7, #6]
 985              	.L93:
 404:./Hardware/hardware/menu_data.c **** 		}
 405:./Hardware/hardware/menu_data.c **** /******************下按键************************/
 406:./Hardware/hardware/menu_data.c ****     if (Key_down == 0)
 986              		.loc 1 406 9
 987 007a 134B     		ldr	r3, .L102+8
 988 007c 1B68     		ldr	r3, [r3]
 989              		.loc 1 406 8
 990 007e 002B     		cmp	r3, #0
 991 0080 17D1     		bne	.L96
 407:./Hardware/hardware/menu_data.c **** 	{
 408:./Hardware/hardware/menu_data.c ****         Delay_ms(10); // 消抖
 992              		.loc 1 408 9
 993 0082 0A20     		movs	r0, #10
 994 0084 FFF7FEFF 		bl	Delay_ms
 409:./Hardware/hardware/menu_data.c ****         down_press_time += 50; // 每次循环递增50ms
 995              		.loc 1 409 25
 996 0088 7B79     		ldrb	r3, [r7, #5]
 997 008a 3233     		adds	r3, r3, #50
 998 008c 7B71     		strb	r3, [r7, #5]
 410:./Hardware/hardware/menu_data.c ****         if (down_press_time >= 100)
 999              		.loc 1 410 12
 1000 008e 7B79     		ldrb	r3, [r7, #5]	@ zero_extendqisi2
 1001 0090 632B     		cmp	r3, #99
 1002 0092 C0D9     		bls	.L100
 411:./Hardware/hardware/menu_data.c **** 		{
 412:./Hardware/hardware/menu_data.c ****             if (key_state == 0) 
 1003              		.loc 1 412 16
 1004 0094 3B79     		ldrb	r3, [r7, #4]	@ zero_extendqisi2
 1005 0096 002B     		cmp	r3, #0
 1006 0098 04D1     		bne	.L98
 413:./Hardware/hardware/menu_data.c **** 			{
 414:./Hardware/hardware/menu_data.c ****                 sd8200_charge_on(); // 执行sd3xxx_charge_on()函数
ARM GAS  C:\Users\86134\AppData\Local\Temp\ccuTN5uR.s 			page 26


 1007              		.loc 1 414 17
 1008 009a FFF7FEFF 		bl	sd8200_charge_on
 415:./Hardware/hardware/menu_data.c ****                 key_state = 1; // 更新按键状态为已按下
 1009              		.loc 1 415 27
 1010 009e 0123     		movs	r3, #1
 1011 00a0 3B71     		strb	r3, [r7, #4]
 1012 00a2 03E0     		b	.L99
 1013              	.L98:
 416:./Hardware/hardware/menu_data.c ****             } else {
 417:./Hardware/hardware/menu_data.c ****                 sd8200_charge_off(); // 执行sd3xxx_charge_off()函数
 1014              		.loc 1 417 17
 1015 00a4 FFF7FEFF 		bl	sd8200_charge_off
 418:./Hardware/hardware/menu_data.c ****                 key_state = 0; // 更新按键状态为未按下
 1016              		.loc 1 418 27
 1017 00a8 0023     		movs	r3, #0
 1018 00aa 3B71     		strb	r3, [r7, #4]
 1019              	.L99:
 419:./Hardware/hardware/menu_data.c ****             }
 420:./Hardware/hardware/menu_data.c ****             down_press_time = 0; // 重置计时器
 1020              		.loc 1 420 29
 1021 00ac 0023     		movs	r3, #0
 1022 00ae 7B71     		strb	r3, [r7, #5]
 1023 00b0 B1E7     		b	.L100
 1024              	.L96:
 421:./Hardware/hardware/menu_data.c ****         }
 422:./Hardware/hardware/menu_data.c ****     } else {
 423:./Hardware/hardware/menu_data.c ****         down_press_time = 0; // 重置计时器
 1025              		.loc 1 423 25
 1026 00b2 0023     		movs	r3, #0
 1027 00b4 7B71     		strb	r3, [r7, #5]
 367:./Hardware/hardware/menu_data.c **** 		OLED_Update();
 1028              		.loc 1 367 3
 1029 00b6 AEE7     		b	.L100
 1030              	.L101:
 380:./Hardware/hardware/menu_data.c **** 		}
 1031              		.loc 1 380 4
 1032 00b8 00BF     		nop
 1033              	.L87:
 424:./Hardware/hardware/menu_data.c **** 		
 425:./Hardware/hardware/menu_data.c **** 		}
 426:./Hardware/hardware/menu_data.c **** 	}
 427:./Hardware/hardware/menu_data.c **** }
 1034              		.loc 1 427 1
 1035 00ba 0837     		adds	r7, r7, #8
 1036              	.LCFI43:
 1037              		.cfi_def_cfa_offset 8
 1038 00bc BD46     		mov	sp, r7
 1039              	.LCFI44:
 1040              		.cfi_def_cfa_register 13
 1041              		@ sp needed
 1042 00be 80BD     		pop	{r7, pc}
 1043              	.L103:
 1044              		.align	2
 1045              	.L102:
 1046 00c0 34812142 		.word	1109492020
 1047 00c4 30812142 		.word	1109492016
 1048 00c8 38812142 		.word	1109492024
ARM GAS  C:\Users\86134\AppData\Local\Temp\ccuTN5uR.s 			page 27


 1049              		.cfi_endproc
 1050              	.LFE40:
 1052              		.section	.text.SD8804_Series,"ax",%progbits
 1053              		.align	1
 1054              		.global	SD8804_Series
 1055              		.syntax unified
 1056              		.thumb
 1057              		.thumb_func
 1058              		.fpu softvfp
 1060              	SD8804_Series:
 1061              	.LFB41:
 428:./Hardware/hardware/menu_data.c **** 
 429:./Hardware/hardware/menu_data.c **** void SD8804_Series(void)
 430:./Hardware/hardware/menu_data.c **** {
 1062              		.loc 1 430 1
 1063              		.cfi_startproc
 1064              		@ args = 0, pretend = 0, frame = 8
 1065              		@ frame_needed = 1, uses_anonymous_args = 0
 1066 0000 80B5     		push	{r7, lr}
 1067              	.LCFI45:
 1068              		.cfi_def_cfa_offset 8
 1069              		.cfi_offset 7, -8
 1070              		.cfi_offset 14, -4
 1071 0002 82B0     		sub	sp, sp, #8
 1072              	.LCFI46:
 1073              		.cfi_def_cfa_offset 16
 1074 0004 00AF     		add	r7, sp, #0
 1075              	.LCFI47:
 1076              		.cfi_def_cfa_register 7
 431:./Hardware/hardware/menu_data.c **** 	uint8_t back_press_time = 0;
 1077              		.loc 1 431 10
 1078 0006 0023     		movs	r3, #0
 1079 0008 FB71     		strb	r3, [r7, #7]
 1080              	.L109:
 432:./Hardware/hardware/menu_data.c **** 	
 433:./Hardware/hardware/menu_data.c **** 	while(1)
 434:./Hardware/hardware/menu_data.c **** 	{
 435:./Hardware/hardware/menu_data.c **** 		sd8804_time_show();
 1081              		.loc 1 435 3
 1082 000a FFF7FEFF 		bl	sd8804_time_show
 436:./Hardware/hardware/menu_data.c **** 		OLED_Update();
 1083              		.loc 1 436 3
 1084 000e FFF7FEFF 		bl	OLED_Update
 437:./Hardware/hardware/menu_data.c **** 		if(Key_back == 0)
 1085              		.loc 1 437 6
 1086 0012 0D4B     		ldr	r3, .L111
 1087 0014 1B68     		ldr	r3, [r3]
 1088              		.loc 1 437 5
 1089 0016 002B     		cmp	r3, #0
 1090 0018 0ED1     		bne	.L105
 438:./Hardware/hardware/menu_data.c **** 		{
 439:./Hardware/hardware/menu_data.c **** 			Delay_ms(10); // 消抖
 1091              		.loc 1 439 4
 1092 001a 0A20     		movs	r0, #10
 1093 001c FFF7FEFF 		bl	Delay_ms
 440:./Hardware/hardware/menu_data.c **** 			back_press_time += 50; // 每次循环递增50ms
 1094              		.loc 1 440 20
ARM GAS  C:\Users\86134\AppData\Local\Temp\ccuTN5uR.s 			page 28


 1095 0020 FB79     		ldrb	r3, [r7, #7]
 1096 0022 3233     		adds	r3, r3, #50
 1097 0024 FB71     		strb	r3, [r7, #7]
 441:./Hardware/hardware/menu_data.c **** 			if(back_press_time >= 100)
 1098              		.loc 1 441 6
 1099 0026 FB79     		ldrb	r3, [r7, #7]	@ zero_extendqisi2
 1100 0028 632B     		cmp	r3, #99
 1101 002a 08D9     		bls	.L110
 442:./Hardware/hardware/menu_data.c **** 			{
 443:./Hardware/hardware/menu_data.c **** 				// 长按200ms，退出函数
 444:./Hardware/hardware/menu_data.c **** 				while(Key_back == 0); // 等待松手
 1102              		.loc 1 444 10
 1103 002c 00BF     		nop
 1104              	.L107:
 1105              		.loc 1 444 11 discriminator 1
 1106 002e 064B     		ldr	r3, .L111
 1107 0030 1B68     		ldr	r3, [r3]
 1108              		.loc 1 444 10 discriminator 1
 1109 0032 002B     		cmp	r3, #0
 1110 0034 FBD0     		beq	.L107
 445:./Hardware/hardware/menu_data.c **** 				break;
 1111              		.loc 1 445 5
 1112 0036 03E0     		b	.L104
 1113              	.L105:
 446:./Hardware/hardware/menu_data.c **** 			}
 447:./Hardware/hardware/menu_data.c **** 			return;
 448:./Hardware/hardware/menu_data.c **** 		}
 449:./Hardware/hardware/menu_data.c **** 		else
 450:./Hardware/hardware/menu_data.c **** 		{
 451:./Hardware/hardware/menu_data.c **** 			back_press_time = 0; // 重置计时器
 1114              		.loc 1 451 20
 1115 0038 0023     		movs	r3, #0
 1116 003a FB71     		strb	r3, [r7, #7]
 435:./Hardware/hardware/menu_data.c **** 		OLED_Update();
 1117              		.loc 1 435 3
 1118 003c E5E7     		b	.L109
 1119              	.L110:
 447:./Hardware/hardware/menu_data.c **** 		}
 1120              		.loc 1 447 4
 1121 003e 00BF     		nop
 1122              	.L104:
 452:./Hardware/hardware/menu_data.c **** 		}
 453:./Hardware/hardware/menu_data.c **** 	}
 454:./Hardware/hardware/menu_data.c **** }
 1123              		.loc 1 454 1
 1124 0040 0837     		adds	r7, r7, #8
 1125              	.LCFI48:
 1126              		.cfi_def_cfa_offset 8
 1127 0042 BD46     		mov	sp, r7
 1128              	.LCFI49:
 1129              		.cfi_def_cfa_register 13
 1130              		@ sp needed
 1131 0044 80BD     		pop	{r7, pc}
 1132              	.L112:
 1133 0046 00BF     		.align	2
 1134              	.L111:
 1135 0048 34812142 		.word	1109492020
ARM GAS  C:\Users\86134\AppData\Local\Temp\ccuTN5uR.s 			page 29


 1136              		.cfi_endproc
 1137              	.LFE41:
 1139              		.section	.text.SD8804_and_std,"ax",%progbits
 1140              		.align	1
 1141              		.global	SD8804_and_std
 1142              		.syntax unified
 1143              		.thumb
 1144              		.thumb_func
 1145              		.fpu softvfp
 1147              	SD8804_and_std:
 1148              	.LFB42:
 455:./Hardware/hardware/menu_data.c **** 
 456:./Hardware/hardware/menu_data.c **** void SD8804_and_std(void)
 457:./Hardware/hardware/menu_data.c **** {
 1149              		.loc 1 457 1
 1150              		.cfi_startproc
 1151              		@ args = 0, pretend = 0, frame = 8
 1152              		@ frame_needed = 1, uses_anonymous_args = 0
 1153 0000 80B5     		push	{r7, lr}
 1154              	.LCFI50:
 1155              		.cfi_def_cfa_offset 8
 1156              		.cfi_offset 7, -8
 1157              		.cfi_offset 14, -4
 1158 0002 82B0     		sub	sp, sp, #8
 1159              	.LCFI51:
 1160              		.cfi_def_cfa_offset 16
 1161 0004 00AF     		add	r7, sp, #0
 1162              	.LCFI52:
 1163              		.cfi_def_cfa_register 7
 458:./Hardware/hardware/menu_data.c **** 	uint8_t back_press_time = 0;
 1164              		.loc 1 458 10
 1165 0006 0023     		movs	r3, #0
 1166 0008 FB71     		strb	r3, [r7, #7]
 459:./Hardware/hardware/menu_data.c **** 	uint8_t enter_press_time = 0;
 1167              		.loc 1 459 10
 1168 000a 0023     		movs	r3, #0
 1169 000c BB71     		strb	r3, [r7, #6]
 1170              	.L122:
 460:./Hardware/hardware/menu_data.c **** 	
 461:./Hardware/hardware/menu_data.c **** 	while(1)
 462:./Hardware/hardware/menu_data.c **** 	{
 463:./Hardware/hardware/menu_data.c **** 		sd8804_and_std();
 1171              		.loc 1 463 3
 1172 000e FFF7FEFF 		bl	sd8804_and_std
 464:./Hardware/hardware/menu_data.c **** 		OLED_Update();
 1173              		.loc 1 464 3
 1174 0012 FFF7FEFF 		bl	OLED_Update
 465:./Hardware/hardware/menu_data.c **** 		
 466:./Hardware/hardware/menu_data.c **** 		if(Key_back == 0)
 1175              		.loc 1 466 6
 1176 0016 194B     		ldr	r3, .L124
 1177 0018 1B68     		ldr	r3, [r3]
 1178              		.loc 1 466 5
 1179 001a 002B     		cmp	r3, #0
 1180 001c 0ED1     		bne	.L114
 467:./Hardware/hardware/menu_data.c **** 		{
 468:./Hardware/hardware/menu_data.c **** 			Delay_ms(10); // 消抖
ARM GAS  C:\Users\86134\AppData\Local\Temp\ccuTN5uR.s 			page 30


 1181              		.loc 1 468 4
 1182 001e 0A20     		movs	r0, #10
 1183 0020 FFF7FEFF 		bl	Delay_ms
 469:./Hardware/hardware/menu_data.c **** 			back_press_time += 50; // 每次循环递增50ms
 1184              		.loc 1 469 20
 1185 0024 FB79     		ldrb	r3, [r7, #7]
 1186 0026 3233     		adds	r3, r3, #50
 1187 0028 FB71     		strb	r3, [r7, #7]
 470:./Hardware/hardware/menu_data.c **** 			if(back_press_time >= 100)
 1188              		.loc 1 470 6
 1189 002a FB79     		ldrb	r3, [r7, #7]	@ zero_extendqisi2
 1190 002c 632B     		cmp	r3, #99
 1191 002e 21D9     		bls	.L123
 471:./Hardware/hardware/menu_data.c **** 			{
 472:./Hardware/hardware/menu_data.c **** 				// 长按200ms，退出函数
 473:./Hardware/hardware/menu_data.c **** 				while(Key_back == 0); // 等待松手
 1192              		.loc 1 473 10
 1193 0030 00BF     		nop
 1194              	.L116:
 1195              		.loc 1 473 11 discriminator 1
 1196 0032 124B     		ldr	r3, .L124
 1197 0034 1B68     		ldr	r3, [r3]
 1198              		.loc 1 473 10 discriminator 1
 1199 0036 002B     		cmp	r3, #0
 1200 0038 FBD0     		beq	.L116
 474:./Hardware/hardware/menu_data.c **** 				break;
 1201              		.loc 1 474 5
 1202 003a 1CE0     		b	.L113
 1203              	.L114:
 475:./Hardware/hardware/menu_data.c **** 			}
 476:./Hardware/hardware/menu_data.c **** 			return;
 477:./Hardware/hardware/menu_data.c **** 		}
 478:./Hardware/hardware/menu_data.c **** 		else
 479:./Hardware/hardware/menu_data.c **** 		{
 480:./Hardware/hardware/menu_data.c **** 			back_press_time = 0; // 重置计时器
 1204              		.loc 1 480 20
 1205 003c 0023     		movs	r3, #0
 1206 003e FB71     		strb	r3, [r7, #7]
 481:./Hardware/hardware/menu_data.c **** 		}
 482:./Hardware/hardware/menu_data.c **** 		
 483:./Hardware/hardware/menu_data.c **** 		if(Key_up == 0)
 1207              		.loc 1 483 6
 1208 0040 0F4B     		ldr	r3, .L124+4
 1209 0042 1B68     		ldr	r3, [r3]
 1210              		.loc 1 483 5
 1211 0044 002B     		cmp	r3, #0
 1212 0046 12D1     		bne	.L118
 484:./Hardware/hardware/menu_data.c **** 		{
 485:./Hardware/hardware/menu_data.c **** 			Delay_ms(10); // 消抖
 1213              		.loc 1 485 4
 1214 0048 0A20     		movs	r0, #10
 1215 004a FFF7FEFF 		bl	Delay_ms
 486:./Hardware/hardware/menu_data.c **** 			enter_press_time += 50; // 每次循环递增50ms
 1216              		.loc 1 486 21
 1217 004e BB79     		ldrb	r3, [r7, #6]
 1218 0050 3233     		adds	r3, r3, #50
 1219 0052 BB71     		strb	r3, [r7, #6]
ARM GAS  C:\Users\86134\AppData\Local\Temp\ccuTN5uR.s 			page 31


 487:./Hardware/hardware/menu_data.c **** 			if(enter_press_time >= 100)
 1220              		.loc 1 487 6
 1221 0054 BB79     		ldrb	r3, [r7, #6]	@ zero_extendqisi2
 1222 0056 632B     		cmp	r3, #99
 1223 0058 D9D9     		bls	.L122
 488:./Hardware/hardware/menu_data.c **** 			{
 489:./Hardware/hardware/menu_data.c **** 				// 长按200ms，退出函数
 490:./Hardware/hardware/menu_data.c **** 				while(Key_up == 0) // 等待松手
 1224              		.loc 1 490 10
 1225 005a 03E0     		b	.L120
 1226              	.L121:
 491:./Hardware/hardware/menu_data.c **** 				{
 492:./Hardware/hardware/menu_data.c **** 					sd8804_time_copy();
 1227              		.loc 1 492 6
 1228 005c FFF7FEFF 		bl	sd8804_time_copy
 493:./Hardware/hardware/menu_data.c **** 					OLED_Update();
 1229              		.loc 1 493 6
 1230 0060 FFF7FEFF 		bl	OLED_Update
 1231              	.L120:
 490:./Hardware/hardware/menu_data.c **** 				{
 1232              		.loc 1 490 11
 1233 0064 064B     		ldr	r3, .L124+4
 1234 0066 1B68     		ldr	r3, [r3]
 490:./Hardware/hardware/menu_data.c **** 				{
 1235              		.loc 1 490 10
 1236 0068 002B     		cmp	r3, #0
 1237 006a F7D0     		beq	.L121
 1238 006c CFE7     		b	.L122
 1239              	.L118:
 494:./Hardware/hardware/menu_data.c **** 				}
 495:./Hardware/hardware/menu_data.c **** 			} 
 496:./Hardware/hardware/menu_data.c **** 		}
 497:./Hardware/hardware/menu_data.c **** 		else
 498:./Hardware/hardware/menu_data.c **** 		{
 499:./Hardware/hardware/menu_data.c **** 			enter_press_time = 0; // 重置计时器
 1240              		.loc 1 499 21
 1241 006e 0023     		movs	r3, #0
 1242 0070 BB71     		strb	r3, [r7, #6]
 463:./Hardware/hardware/menu_data.c **** 		OLED_Update();
 1243              		.loc 1 463 3
 1244 0072 CCE7     		b	.L122
 1245              	.L123:
 476:./Hardware/hardware/menu_data.c **** 		}
 1246              		.loc 1 476 4
 1247 0074 00BF     		nop
 1248              	.L113:
 500:./Hardware/hardware/menu_data.c **** 		}
 501:./Hardware/hardware/menu_data.c **** 
 502:./Hardware/hardware/menu_data.c **** 	}
 503:./Hardware/hardware/menu_data.c **** }
 1249              		.loc 1 503 1
 1250 0076 0837     		adds	r7, r7, #8
 1251              	.LCFI53:
 1252              		.cfi_def_cfa_offset 8
 1253 0078 BD46     		mov	sp, r7
 1254              	.LCFI54:
 1255              		.cfi_def_cfa_register 13
ARM GAS  C:\Users\86134\AppData\Local\Temp\ccuTN5uR.s 			page 32


 1256              		@ sp needed
 1257 007a 80BD     		pop	{r7, pc}
 1258              	.L125:
 1259              		.align	2
 1260              	.L124:
 1261 007c 34812142 		.word	1109492020
 1262 0080 30812142 		.word	1109492016
 1263              		.cfi_endproc
 1264              	.LFE42:
 1266              		.section	.text.SD8810_Series,"ax",%progbits
 1267              		.align	1
 1268              		.global	SD8810_Series
 1269              		.syntax unified
 1270              		.thumb
 1271              		.thumb_func
 1272              		.fpu softvfp
 1274              	SD8810_Series:
 1275              	.LFB43:
 504:./Hardware/hardware/menu_data.c **** 
 505:./Hardware/hardware/menu_data.c **** void SD8810_Series(void)
 506:./Hardware/hardware/menu_data.c **** {
 1276              		.loc 1 506 1
 1277              		.cfi_startproc
 1278              		@ args = 0, pretend = 0, frame = 8
 1279              		@ frame_needed = 1, uses_anonymous_args = 0
 1280 0000 80B5     		push	{r7, lr}
 1281              	.LCFI55:
 1282              		.cfi_def_cfa_offset 8
 1283              		.cfi_offset 7, -8
 1284              		.cfi_offset 14, -4
 1285 0002 82B0     		sub	sp, sp, #8
 1286              	.LCFI56:
 1287              		.cfi_def_cfa_offset 16
 1288 0004 00AF     		add	r7, sp, #0
 1289              	.LCFI57:
 1290              		.cfi_def_cfa_register 7
 507:./Hardware/hardware/menu_data.c **** 	uint8_t back_press_time = 0;
 1291              		.loc 1 507 10
 1292 0006 0023     		movs	r3, #0
 1293 0008 FB71     		strb	r3, [r7, #7]
 1294              	.L131:
 508:./Hardware/hardware/menu_data.c **** 	
 509:./Hardware/hardware/menu_data.c **** 	while(1)
 510:./Hardware/hardware/menu_data.c **** 	{
 511:./Hardware/hardware/menu_data.c **** 		sd8810_time_show();
 1295              		.loc 1 511 3
 1296 000a FFF7FEFF 		bl	sd8810_time_show
 512:./Hardware/hardware/menu_data.c **** 		OLED_Update();
 1297              		.loc 1 512 3
 1298 000e FFF7FEFF 		bl	OLED_Update
 513:./Hardware/hardware/menu_data.c **** 		if(Key_back == 0)
 1299              		.loc 1 513 6
 1300 0012 0D4B     		ldr	r3, .L133
 1301 0014 1B68     		ldr	r3, [r3]
 1302              		.loc 1 513 5
 1303 0016 002B     		cmp	r3, #0
 1304 0018 0ED1     		bne	.L127
ARM GAS  C:\Users\86134\AppData\Local\Temp\ccuTN5uR.s 			page 33


 514:./Hardware/hardware/menu_data.c **** 		{
 515:./Hardware/hardware/menu_data.c **** 			Delay_ms(10); // 消抖
 1305              		.loc 1 515 4
 1306 001a 0A20     		movs	r0, #10
 1307 001c FFF7FEFF 		bl	Delay_ms
 516:./Hardware/hardware/menu_data.c **** 			back_press_time += 50; // 每次循环递增50ms
 1308              		.loc 1 516 20
 1309 0020 FB79     		ldrb	r3, [r7, #7]
 1310 0022 3233     		adds	r3, r3, #50
 1311 0024 FB71     		strb	r3, [r7, #7]
 517:./Hardware/hardware/menu_data.c **** 			if(back_press_time >= 100)
 1312              		.loc 1 517 6
 1313 0026 FB79     		ldrb	r3, [r7, #7]	@ zero_extendqisi2
 1314 0028 632B     		cmp	r3, #99
 1315 002a 08D9     		bls	.L132
 518:./Hardware/hardware/menu_data.c **** 			{
 519:./Hardware/hardware/menu_data.c **** 				// 长按200ms，退出函数
 520:./Hardware/hardware/menu_data.c **** 				while(Key_back == 0); // 等待松手
 1316              		.loc 1 520 10
 1317 002c 00BF     		nop
 1318              	.L129:
 1319              		.loc 1 520 11 discriminator 1
 1320 002e 064B     		ldr	r3, .L133
 1321 0030 1B68     		ldr	r3, [r3]
 1322              		.loc 1 520 10 discriminator 1
 1323 0032 002B     		cmp	r3, #0
 1324 0034 FBD0     		beq	.L129
 521:./Hardware/hardware/menu_data.c **** 				break;
 1325              		.loc 1 521 5
 1326 0036 03E0     		b	.L126
 1327              	.L127:
 522:./Hardware/hardware/menu_data.c **** 			}
 523:./Hardware/hardware/menu_data.c **** 			return;
 524:./Hardware/hardware/menu_data.c **** 		}
 525:./Hardware/hardware/menu_data.c **** 		else
 526:./Hardware/hardware/menu_data.c **** 		{
 527:./Hardware/hardware/menu_data.c **** 			back_press_time = 0; // 重置计时器
 1328              		.loc 1 527 20
 1329 0038 0023     		movs	r3, #0
 1330 003a FB71     		strb	r3, [r7, #7]
 511:./Hardware/hardware/menu_data.c **** 		OLED_Update();
 1331              		.loc 1 511 3
 1332 003c E5E7     		b	.L131
 1333              	.L132:
 523:./Hardware/hardware/menu_data.c **** 		}
 1334              		.loc 1 523 4
 1335 003e 00BF     		nop
 1336              	.L126:
 528:./Hardware/hardware/menu_data.c **** 		}
 529:./Hardware/hardware/menu_data.c **** 	}
 530:./Hardware/hardware/menu_data.c **** }
 1337              		.loc 1 530 1
 1338 0040 0837     		adds	r7, r7, #8
 1339              	.LCFI58:
 1340              		.cfi_def_cfa_offset 8
 1341 0042 BD46     		mov	sp, r7
 1342              	.LCFI59:
ARM GAS  C:\Users\86134\AppData\Local\Temp\ccuTN5uR.s 			page 34


 1343              		.cfi_def_cfa_register 13
 1344              		@ sp needed
 1345 0044 80BD     		pop	{r7, pc}
 1346              	.L134:
 1347 0046 00BF     		.align	2
 1348              	.L133:
 1349 0048 34812142 		.word	1109492020
 1350              		.cfi_endproc
 1351              	.LFE43:
 1353              		.section	.text.SD8810_and_std,"ax",%progbits
 1354              		.align	1
 1355              		.global	SD8810_and_std
 1356              		.syntax unified
 1357              		.thumb
 1358              		.thumb_func
 1359              		.fpu softvfp
 1361              	SD8810_and_std:
 1362              	.LFB44:
 531:./Hardware/hardware/menu_data.c **** 
 532:./Hardware/hardware/menu_data.c **** void SD8810_and_std(void)
 533:./Hardware/hardware/menu_data.c **** {
 1363              		.loc 1 533 1
 1364              		.cfi_startproc
 1365              		@ args = 0, pretend = 0, frame = 8
 1366              		@ frame_needed = 1, uses_anonymous_args = 0
 1367 0000 80B5     		push	{r7, lr}
 1368              	.LCFI60:
 1369              		.cfi_def_cfa_offset 8
 1370              		.cfi_offset 7, -8
 1371              		.cfi_offset 14, -4
 1372 0002 82B0     		sub	sp, sp, #8
 1373              	.LCFI61:
 1374              		.cfi_def_cfa_offset 16
 1375 0004 00AF     		add	r7, sp, #0
 1376              	.LCFI62:
 1377              		.cfi_def_cfa_register 7
 534:./Hardware/hardware/menu_data.c **** 	uint8_t back_press_time = 0;
 1378              		.loc 1 534 10
 1379 0006 0023     		movs	r3, #0
 1380 0008 FB71     		strb	r3, [r7, #7]
 535:./Hardware/hardware/menu_data.c **** 	uint8_t enter_press_time = 0;
 1381              		.loc 1 535 10
 1382 000a 0023     		movs	r3, #0
 1383 000c BB71     		strb	r3, [r7, #6]
 1384              	.L144:
 536:./Hardware/hardware/menu_data.c **** 	
 537:./Hardware/hardware/menu_data.c **** 	while(1)
 538:./Hardware/hardware/menu_data.c **** 	{
 539:./Hardware/hardware/menu_data.c **** 		sd8810_and_std();
 1385              		.loc 1 539 3
 1386 000e FFF7FEFF 		bl	sd8810_and_std
 540:./Hardware/hardware/menu_data.c **** 		OLED_Update();
 1387              		.loc 1 540 3
 1388 0012 FFF7FEFF 		bl	OLED_Update
 541:./Hardware/hardware/menu_data.c **** 		
 542:./Hardware/hardware/menu_data.c **** 		if(Key_back == 0)
 1389              		.loc 1 542 6
ARM GAS  C:\Users\86134\AppData\Local\Temp\ccuTN5uR.s 			page 35


 1390 0016 194B     		ldr	r3, .L146
 1391 0018 1B68     		ldr	r3, [r3]
 1392              		.loc 1 542 5
 1393 001a 002B     		cmp	r3, #0
 1394 001c 0ED1     		bne	.L136
 543:./Hardware/hardware/menu_data.c **** 		{
 544:./Hardware/hardware/menu_data.c **** 			Delay_ms(10); // 消抖
 1395              		.loc 1 544 4
 1396 001e 0A20     		movs	r0, #10
 1397 0020 FFF7FEFF 		bl	Delay_ms
 545:./Hardware/hardware/menu_data.c **** 			back_press_time += 50; // 每次循环递增50ms
 1398              		.loc 1 545 20
 1399 0024 FB79     		ldrb	r3, [r7, #7]
 1400 0026 3233     		adds	r3, r3, #50
 1401 0028 FB71     		strb	r3, [r7, #7]
 546:./Hardware/hardware/menu_data.c **** 			if(back_press_time >= 100)
 1402              		.loc 1 546 6
 1403 002a FB79     		ldrb	r3, [r7, #7]	@ zero_extendqisi2
 1404 002c 632B     		cmp	r3, #99
 1405 002e 21D9     		bls	.L145
 547:./Hardware/hardware/menu_data.c **** 			{
 548:./Hardware/hardware/menu_data.c **** 				// 长按200ms，退出函数
 549:./Hardware/hardware/menu_data.c **** 				while(Key_back == 0); // 等待松手
 1406              		.loc 1 549 10
 1407 0030 00BF     		nop
 1408              	.L138:
 1409              		.loc 1 549 11 discriminator 1
 1410 0032 124B     		ldr	r3, .L146
 1411 0034 1B68     		ldr	r3, [r3]
 1412              		.loc 1 549 10 discriminator 1
 1413 0036 002B     		cmp	r3, #0
 1414 0038 FBD0     		beq	.L138
 550:./Hardware/hardware/menu_data.c **** 				break;
 1415              		.loc 1 550 5
 1416 003a 1CE0     		b	.L135
 1417              	.L136:
 551:./Hardware/hardware/menu_data.c **** 			}
 552:./Hardware/hardware/menu_data.c **** 			return;
 553:./Hardware/hardware/menu_data.c **** 		}
 554:./Hardware/hardware/menu_data.c **** 		else
 555:./Hardware/hardware/menu_data.c **** 		{
 556:./Hardware/hardware/menu_data.c **** 			back_press_time = 0; // 重置计时器
 1418              		.loc 1 556 20
 1419 003c 0023     		movs	r3, #0
 1420 003e FB71     		strb	r3, [r7, #7]
 557:./Hardware/hardware/menu_data.c **** 		}
 558:./Hardware/hardware/menu_data.c **** 		
 559:./Hardware/hardware/menu_data.c **** 		if(Key_up == 0)
 1421              		.loc 1 559 6
 1422 0040 0F4B     		ldr	r3, .L146+4
 1423 0042 1B68     		ldr	r3, [r3]
 1424              		.loc 1 559 5
 1425 0044 002B     		cmp	r3, #0
 1426 0046 12D1     		bne	.L140
 560:./Hardware/hardware/menu_data.c **** 		{
 561:./Hardware/hardware/menu_data.c **** 			Delay_ms(10); // 消抖
 1427              		.loc 1 561 4
ARM GAS  C:\Users\86134\AppData\Local\Temp\ccuTN5uR.s 			page 36


 1428 0048 0A20     		movs	r0, #10
 1429 004a FFF7FEFF 		bl	Delay_ms
 562:./Hardware/hardware/menu_data.c **** 			enter_press_time += 50; // 每次循环递增50ms
 1430              		.loc 1 562 21
 1431 004e BB79     		ldrb	r3, [r7, #6]
 1432 0050 3233     		adds	r3, r3, #50
 1433 0052 BB71     		strb	r3, [r7, #6]
 563:./Hardware/hardware/menu_data.c **** 			if(enter_press_time >= 100)
 1434              		.loc 1 563 6
 1435 0054 BB79     		ldrb	r3, [r7, #6]	@ zero_extendqisi2
 1436 0056 632B     		cmp	r3, #99
 1437 0058 D9D9     		bls	.L144
 564:./Hardware/hardware/menu_data.c **** 			{
 565:./Hardware/hardware/menu_data.c **** 				// 长按200ms，退出函数
 566:./Hardware/hardware/menu_data.c **** 				while(Key_up == 0) // 等待松手
 1438              		.loc 1 566 10
 1439 005a 03E0     		b	.L142
 1440              	.L143:
 567:./Hardware/hardware/menu_data.c **** 				{
 568:./Hardware/hardware/menu_data.c **** 					sd8810_time_copy();
 1441              		.loc 1 568 6
 1442 005c FFF7FEFF 		bl	sd8810_time_copy
 569:./Hardware/hardware/menu_data.c **** 					OLED_Update();
 1443              		.loc 1 569 6
 1444 0060 FFF7FEFF 		bl	OLED_Update
 1445              	.L142:
 566:./Hardware/hardware/menu_data.c **** 				{
 1446              		.loc 1 566 11
 1447 0064 064B     		ldr	r3, .L146+4
 1448 0066 1B68     		ldr	r3, [r3]
 566:./Hardware/hardware/menu_data.c **** 				{
 1449              		.loc 1 566 10
 1450 0068 002B     		cmp	r3, #0
 1451 006a F7D0     		beq	.L143
 1452 006c CFE7     		b	.L144
 1453              	.L140:
 570:./Hardware/hardware/menu_data.c **** 				}
 571:./Hardware/hardware/menu_data.c **** 			} 
 572:./Hardware/hardware/menu_data.c **** 		}
 573:./Hardware/hardware/menu_data.c **** 		else
 574:./Hardware/hardware/menu_data.c **** 		{
 575:./Hardware/hardware/menu_data.c **** 			enter_press_time = 0; // 重置计时器
 1454              		.loc 1 575 21
 1455 006e 0023     		movs	r3, #0
 1456 0070 BB71     		strb	r3, [r7, #6]
 539:./Hardware/hardware/menu_data.c **** 		OLED_Update();
 1457              		.loc 1 539 3
 1458 0072 CCE7     		b	.L144
 1459              	.L145:
 552:./Hardware/hardware/menu_data.c **** 		}
 1460              		.loc 1 552 4
 1461 0074 00BF     		nop
 1462              	.L135:
 576:./Hardware/hardware/menu_data.c **** 		}
 577:./Hardware/hardware/menu_data.c **** 
 578:./Hardware/hardware/menu_data.c **** 	}
 579:./Hardware/hardware/menu_data.c **** }
ARM GAS  C:\Users\86134\AppData\Local\Temp\ccuTN5uR.s 			page 37


 1463              		.loc 1 579 1
 1464 0076 0837     		adds	r7, r7, #8
 1465              	.LCFI63:
 1466              		.cfi_def_cfa_offset 8
 1467 0078 BD46     		mov	sp, r7
 1468              	.LCFI64:
 1469              		.cfi_def_cfa_register 13
 1470              		@ sp needed
 1471 007a 80BD     		pop	{r7, pc}
 1472              	.L147:
 1473              		.align	2
 1474              	.L146:
 1475 007c 34812142 		.word	1109492020
 1476 0080 30812142 		.word	1109492016
 1477              		.cfi_endproc
 1478              	.LFE44:
 1480              		.section	.text.SD8825_Series,"ax",%progbits
 1481              		.align	1
 1482              		.global	SD8825_Series
 1483              		.syntax unified
 1484              		.thumb
 1485              		.thumb_func
 1486              		.fpu softvfp
 1488              	SD8825_Series:
 1489              	.LFB45:
 580:./Hardware/hardware/menu_data.c **** 
 581:./Hardware/hardware/menu_data.c **** void SD8825_Series(void)
 582:./Hardware/hardware/menu_data.c **** {
 1490              		.loc 1 582 1
 1491              		.cfi_startproc
 1492              		@ args = 0, pretend = 0, frame = 8
 1493              		@ frame_needed = 1, uses_anonymous_args = 0
 1494 0000 80B5     		push	{r7, lr}
 1495              	.LCFI65:
 1496              		.cfi_def_cfa_offset 8
 1497              		.cfi_offset 7, -8
 1498              		.cfi_offset 14, -4
 1499 0002 82B0     		sub	sp, sp, #8
 1500              	.LCFI66:
 1501              		.cfi_def_cfa_offset 16
 1502 0004 00AF     		add	r7, sp, #0
 1503              	.LCFI67:
 1504              		.cfi_def_cfa_register 7
 583:./Hardware/hardware/menu_data.c **** 	uint8_t back_press_time = 0;
 1505              		.loc 1 583 10
 1506 0006 0023     		movs	r3, #0
 1507 0008 FB71     		strb	r3, [r7, #7]
 1508              	.L153:
 584:./Hardware/hardware/menu_data.c **** 	
 585:./Hardware/hardware/menu_data.c **** 	while(1)
 586:./Hardware/hardware/menu_data.c **** 	{
 587:./Hardware/hardware/menu_data.c **** 		sd8825_time_show();
 1509              		.loc 1 587 3
 1510 000a FFF7FEFF 		bl	sd8825_time_show
 588:./Hardware/hardware/menu_data.c **** 		OLED_Update();
 1511              		.loc 1 588 3
 1512 000e FFF7FEFF 		bl	OLED_Update
ARM GAS  C:\Users\86134\AppData\Local\Temp\ccuTN5uR.s 			page 38


 589:./Hardware/hardware/menu_data.c **** 		if(Key_back == 0)
 1513              		.loc 1 589 6
 1514 0012 0D4B     		ldr	r3, .L155
 1515 0014 1B68     		ldr	r3, [r3]
 1516              		.loc 1 589 5
 1517 0016 002B     		cmp	r3, #0
 1518 0018 0ED1     		bne	.L149
 590:./Hardware/hardware/menu_data.c **** 		{
 591:./Hardware/hardware/menu_data.c **** 			Delay_ms(10); // 消抖
 1519              		.loc 1 591 4
 1520 001a 0A20     		movs	r0, #10
 1521 001c FFF7FEFF 		bl	Delay_ms
 592:./Hardware/hardware/menu_data.c **** 			back_press_time += 50; // 每次循环递增50ms
 1522              		.loc 1 592 20
 1523 0020 FB79     		ldrb	r3, [r7, #7]
 1524 0022 3233     		adds	r3, r3, #50
 1525 0024 FB71     		strb	r3, [r7, #7]
 593:./Hardware/hardware/menu_data.c **** 			if(back_press_time >= 100)
 1526              		.loc 1 593 6
 1527 0026 FB79     		ldrb	r3, [r7, #7]	@ zero_extendqisi2
 1528 0028 632B     		cmp	r3, #99
 1529 002a 08D9     		bls	.L154
 594:./Hardware/hardware/menu_data.c **** 			{
 595:./Hardware/hardware/menu_data.c **** 				// 长按200ms，退出函数
 596:./Hardware/hardware/menu_data.c **** 				while(Key_back == 0); // 等待松手
 1530              		.loc 1 596 10
 1531 002c 00BF     		nop
 1532              	.L151:
 1533              		.loc 1 596 11 discriminator 1
 1534 002e 064B     		ldr	r3, .L155
 1535 0030 1B68     		ldr	r3, [r3]
 1536              		.loc 1 596 10 discriminator 1
 1537 0032 002B     		cmp	r3, #0
 1538 0034 FBD0     		beq	.L151
 597:./Hardware/hardware/menu_data.c **** 				break;
 1539              		.loc 1 597 5
 1540 0036 03E0     		b	.L148
 1541              	.L149:
 598:./Hardware/hardware/menu_data.c **** 			}
 599:./Hardware/hardware/menu_data.c **** 			return;
 600:./Hardware/hardware/menu_data.c **** 		}
 601:./Hardware/hardware/menu_data.c **** 		else
 602:./Hardware/hardware/menu_data.c **** 		{
 603:./Hardware/hardware/menu_data.c **** 			back_press_time = 0; // 重置计时器
 1542              		.loc 1 603 20
 1543 0038 0023     		movs	r3, #0
 1544 003a FB71     		strb	r3, [r7, #7]
 587:./Hardware/hardware/menu_data.c **** 		OLED_Update();
 1545              		.loc 1 587 3
 1546 003c E5E7     		b	.L153
 1547              	.L154:
 599:./Hardware/hardware/menu_data.c **** 		}
 1548              		.loc 1 599 4
 1549 003e 00BF     		nop
 1550              	.L148:
 604:./Hardware/hardware/menu_data.c **** 		}
 605:./Hardware/hardware/menu_data.c **** 	}
ARM GAS  C:\Users\86134\AppData\Local\Temp\ccuTN5uR.s 			page 39


 606:./Hardware/hardware/menu_data.c **** }
 1551              		.loc 1 606 1
 1552 0040 0837     		adds	r7, r7, #8
 1553              	.LCFI68:
 1554              		.cfi_def_cfa_offset 8
 1555 0042 BD46     		mov	sp, r7
 1556              	.LCFI69:
 1557              		.cfi_def_cfa_register 13
 1558              		@ sp needed
 1559 0044 80BD     		pop	{r7, pc}
 1560              	.L156:
 1561 0046 00BF     		.align	2
 1562              	.L155:
 1563 0048 34812142 		.word	1109492020
 1564              		.cfi_endproc
 1565              	.LFE45:
 1567              		.section	.text.SD8825_and_std,"ax",%progbits
 1568              		.align	1
 1569              		.global	SD8825_and_std
 1570              		.syntax unified
 1571              		.thumb
 1572              		.thumb_func
 1573              		.fpu softvfp
 1575              	SD8825_and_std:
 1576              	.LFB46:
 607:./Hardware/hardware/menu_data.c **** 
 608:./Hardware/hardware/menu_data.c **** void SD8825_and_std(void)
 609:./Hardware/hardware/menu_data.c **** {
 1577              		.loc 1 609 1
 1578              		.cfi_startproc
 1579              		@ args = 0, pretend = 0, frame = 8
 1580              		@ frame_needed = 1, uses_anonymous_args = 0
 1581 0000 80B5     		push	{r7, lr}
 1582              	.LCFI70:
 1583              		.cfi_def_cfa_offset 8
 1584              		.cfi_offset 7, -8
 1585              		.cfi_offset 14, -4
 1586 0002 82B0     		sub	sp, sp, #8
 1587              	.LCFI71:
 1588              		.cfi_def_cfa_offset 16
 1589 0004 00AF     		add	r7, sp, #0
 1590              	.LCFI72:
 1591              		.cfi_def_cfa_register 7
 610:./Hardware/hardware/menu_data.c **** 	uint8_t back_press_time = 0;
 1592              		.loc 1 610 10
 1593 0006 0023     		movs	r3, #0
 1594 0008 FB71     		strb	r3, [r7, #7]
 611:./Hardware/hardware/menu_data.c **** 	uint8_t enter_press_time = 0;
 1595              		.loc 1 611 10
 1596 000a 0023     		movs	r3, #0
 1597 000c BB71     		strb	r3, [r7, #6]
 1598              	.L166:
 612:./Hardware/hardware/menu_data.c **** 	
 613:./Hardware/hardware/menu_data.c **** 	while(1)
 614:./Hardware/hardware/menu_data.c **** 	{
 615:./Hardware/hardware/menu_data.c **** 		sd8825_and_std();
 1599              		.loc 1 615 3
ARM GAS  C:\Users\86134\AppData\Local\Temp\ccuTN5uR.s 			page 40


 1600 000e FFF7FEFF 		bl	sd8825_and_std
 616:./Hardware/hardware/menu_data.c **** 		OLED_Update();
 1601              		.loc 1 616 3
 1602 0012 FFF7FEFF 		bl	OLED_Update
 617:./Hardware/hardware/menu_data.c **** 		
 618:./Hardware/hardware/menu_data.c **** 		if(Key_back == 0)
 1603              		.loc 1 618 6
 1604 0016 194B     		ldr	r3, .L168
 1605 0018 1B68     		ldr	r3, [r3]
 1606              		.loc 1 618 5
 1607 001a 002B     		cmp	r3, #0
 1608 001c 0ED1     		bne	.L158
 619:./Hardware/hardware/menu_data.c **** 		{
 620:./Hardware/hardware/menu_data.c **** 			Delay_ms(10); // 消抖
 1609              		.loc 1 620 4
 1610 001e 0A20     		movs	r0, #10
 1611 0020 FFF7FEFF 		bl	Delay_ms
 621:./Hardware/hardware/menu_data.c **** 			back_press_time += 50; // 每次循环递增50ms
 1612              		.loc 1 621 20
 1613 0024 FB79     		ldrb	r3, [r7, #7]
 1614 0026 3233     		adds	r3, r3, #50
 1615 0028 FB71     		strb	r3, [r7, #7]
 622:./Hardware/hardware/menu_data.c **** 			if(back_press_time >= 100)
 1616              		.loc 1 622 6
 1617 002a FB79     		ldrb	r3, [r7, #7]	@ zero_extendqisi2
 1618 002c 632B     		cmp	r3, #99
 1619 002e 21D9     		bls	.L167
 623:./Hardware/hardware/menu_data.c **** 			{
 624:./Hardware/hardware/menu_data.c **** 				// 长按200ms，退出函数
 625:./Hardware/hardware/menu_data.c **** 				while(Key_back == 0); // 等待松手
 1620              		.loc 1 625 10
 1621 0030 00BF     		nop
 1622              	.L160:
 1623              		.loc 1 625 11 discriminator 1
 1624 0032 124B     		ldr	r3, .L168
 1625 0034 1B68     		ldr	r3, [r3]
 1626              		.loc 1 625 10 discriminator 1
 1627 0036 002B     		cmp	r3, #0
 1628 0038 FBD0     		beq	.L160
 626:./Hardware/hardware/menu_data.c **** 				break;
 1629              		.loc 1 626 5
 1630 003a 1CE0     		b	.L157
 1631              	.L158:
 627:./Hardware/hardware/menu_data.c **** 			}
 628:./Hardware/hardware/menu_data.c **** 			return;
 629:./Hardware/hardware/menu_data.c **** 		}
 630:./Hardware/hardware/menu_data.c **** 		else
 631:./Hardware/hardware/menu_data.c **** 		{
 632:./Hardware/hardware/menu_data.c **** 			back_press_time = 0; // 重置计时器
 1632              		.loc 1 632 20
 1633 003c 0023     		movs	r3, #0
 1634 003e FB71     		strb	r3, [r7, #7]
 633:./Hardware/hardware/menu_data.c **** 		}
 634:./Hardware/hardware/menu_data.c **** 		
 635:./Hardware/hardware/menu_data.c **** 		if(Key_up == 0)
 1635              		.loc 1 635 6
 1636 0040 0F4B     		ldr	r3, .L168+4
ARM GAS  C:\Users\86134\AppData\Local\Temp\ccuTN5uR.s 			page 41


 1637 0042 1B68     		ldr	r3, [r3]
 1638              		.loc 1 635 5
 1639 0044 002B     		cmp	r3, #0
 1640 0046 12D1     		bne	.L162
 636:./Hardware/hardware/menu_data.c **** 		{
 637:./Hardware/hardware/menu_data.c **** 			Delay_ms(10); // 消抖
 1641              		.loc 1 637 4
 1642 0048 0A20     		movs	r0, #10
 1643 004a FFF7FEFF 		bl	Delay_ms
 638:./Hardware/hardware/menu_data.c **** 			enter_press_time += 50; // 每次循环递增50ms
 1644              		.loc 1 638 21
 1645 004e BB79     		ldrb	r3, [r7, #6]
 1646 0050 3233     		adds	r3, r3, #50
 1647 0052 BB71     		strb	r3, [r7, #6]
 639:./Hardware/hardware/menu_data.c **** 			if(enter_press_time >= 100)
 1648              		.loc 1 639 6
 1649 0054 BB79     		ldrb	r3, [r7, #6]	@ zero_extendqisi2
 1650 0056 632B     		cmp	r3, #99
 1651 0058 D9D9     		bls	.L166
 640:./Hardware/hardware/menu_data.c **** 			{
 641:./Hardware/hardware/menu_data.c **** 				// 长按200ms，退出函数
 642:./Hardware/hardware/menu_data.c **** 				while(Key_up == 0) // 等待松手
 1652              		.loc 1 642 10
 1653 005a 03E0     		b	.L164
 1654              	.L165:
 643:./Hardware/hardware/menu_data.c **** 				{
 644:./Hardware/hardware/menu_data.c **** 					sd8825_time_copy();
 1655              		.loc 1 644 6
 1656 005c FFF7FEFF 		bl	sd8825_time_copy
 645:./Hardware/hardware/menu_data.c **** 					OLED_Update();
 1657              		.loc 1 645 6
 1658 0060 FFF7FEFF 		bl	OLED_Update
 1659              	.L164:
 642:./Hardware/hardware/menu_data.c **** 				{
 1660              		.loc 1 642 11
 1661 0064 064B     		ldr	r3, .L168+4
 1662 0066 1B68     		ldr	r3, [r3]
 642:./Hardware/hardware/menu_data.c **** 				{
 1663              		.loc 1 642 10
 1664 0068 002B     		cmp	r3, #0
 1665 006a F7D0     		beq	.L165
 1666 006c CFE7     		b	.L166
 1667              	.L162:
 646:./Hardware/hardware/menu_data.c **** 				}
 647:./Hardware/hardware/menu_data.c **** 			} 
 648:./Hardware/hardware/menu_data.c **** 		}
 649:./Hardware/hardware/menu_data.c **** 		else
 650:./Hardware/hardware/menu_data.c **** 		{
 651:./Hardware/hardware/menu_data.c **** 			enter_press_time = 0; // 重置计时器
 1668              		.loc 1 651 21
 1669 006e 0023     		movs	r3, #0
 1670 0070 BB71     		strb	r3, [r7, #6]
 615:./Hardware/hardware/menu_data.c **** 		OLED_Update();
 1671              		.loc 1 615 3
 1672 0072 CCE7     		b	.L166
 1673              	.L167:
 628:./Hardware/hardware/menu_data.c **** 		}
ARM GAS  C:\Users\86134\AppData\Local\Temp\ccuTN5uR.s 			page 42


 1674              		.loc 1 628 4
 1675 0074 00BF     		nop
 1676              	.L157:
 652:./Hardware/hardware/menu_data.c **** 		}
 653:./Hardware/hardware/menu_data.c **** 
 654:./Hardware/hardware/menu_data.c **** 	}
 655:./Hardware/hardware/menu_data.c **** }
 1677              		.loc 1 655 1
 1678 0076 0837     		adds	r7, r7, #8
 1679              	.LCFI73:
 1680              		.cfi_def_cfa_offset 8
 1681 0078 BD46     		mov	sp, r7
 1682              	.LCFI74:
 1683              		.cfi_def_cfa_register 13
 1684              		@ sp needed
 1685 007a 80BD     		pop	{r7, pc}
 1686              	.L169:
 1687              		.align	2
 1688              	.L168:
 1689 007c 34812142 		.word	1109492020
 1690 0080 30812142 		.word	1109492016
 1691              		.cfi_endproc
 1692              	.LFE46:
 1694              		.section	.text.SD8840_Series,"ax",%progbits
 1695              		.align	1
 1696              		.global	SD8840_Series
 1697              		.syntax unified
 1698              		.thumb
 1699              		.thumb_func
 1700              		.fpu softvfp
 1702              	SD8840_Series:
 1703              	.LFB47:
 656:./Hardware/hardware/menu_data.c **** 
 657:./Hardware/hardware/menu_data.c **** void SD8840_Series(void)
 658:./Hardware/hardware/menu_data.c **** {
 1704              		.loc 1 658 1
 1705              		.cfi_startproc
 1706              		@ args = 0, pretend = 0, frame = 8
 1707              		@ frame_needed = 1, uses_anonymous_args = 0
 1708 0000 80B5     		push	{r7, lr}
 1709              	.LCFI75:
 1710              		.cfi_def_cfa_offset 8
 1711              		.cfi_offset 7, -8
 1712              		.cfi_offset 14, -4
 1713 0002 82B0     		sub	sp, sp, #8
 1714              	.LCFI76:
 1715              		.cfi_def_cfa_offset 16
 1716 0004 00AF     		add	r7, sp, #0
 1717              	.LCFI77:
 1718              		.cfi_def_cfa_register 7
 659:./Hardware/hardware/menu_data.c **** 	uint8_t back_press_time = 0;
 1719              		.loc 1 659 10
 1720 0006 0023     		movs	r3, #0
 1721 0008 FB71     		strb	r3, [r7, #7]
 1722              	.L175:
 660:./Hardware/hardware/menu_data.c **** 	
 661:./Hardware/hardware/menu_data.c **** 	while(1)
ARM GAS  C:\Users\86134\AppData\Local\Temp\ccuTN5uR.s 			page 43


 662:./Hardware/hardware/menu_data.c **** 	{
 663:./Hardware/hardware/menu_data.c **** 		sd8840_time_show();
 1723              		.loc 1 663 3
 1724 000a FFF7FEFF 		bl	sd8840_time_show
 664:./Hardware/hardware/menu_data.c **** 		OLED_Update();
 1725              		.loc 1 664 3
 1726 000e FFF7FEFF 		bl	OLED_Update
 665:./Hardware/hardware/menu_data.c **** 		if(Key_back == 0)
 1727              		.loc 1 665 6
 1728 0012 0D4B     		ldr	r3, .L177
 1729 0014 1B68     		ldr	r3, [r3]
 1730              		.loc 1 665 5
 1731 0016 002B     		cmp	r3, #0
 1732 0018 0ED1     		bne	.L171
 666:./Hardware/hardware/menu_data.c **** 		{
 667:./Hardware/hardware/menu_data.c **** 			Delay_ms(10); // 消抖
 1733              		.loc 1 667 4
 1734 001a 0A20     		movs	r0, #10
 1735 001c FFF7FEFF 		bl	Delay_ms
 668:./Hardware/hardware/menu_data.c **** 			back_press_time += 50; // 每次循环递增50ms
 1736              		.loc 1 668 20
 1737 0020 FB79     		ldrb	r3, [r7, #7]
 1738 0022 3233     		adds	r3, r3, #50
 1739 0024 FB71     		strb	r3, [r7, #7]
 669:./Hardware/hardware/menu_data.c **** 			if(back_press_time >= 100)
 1740              		.loc 1 669 6
 1741 0026 FB79     		ldrb	r3, [r7, #7]	@ zero_extendqisi2
 1742 0028 632B     		cmp	r3, #99
 1743 002a 08D9     		bls	.L176
 670:./Hardware/hardware/menu_data.c **** 			{
 671:./Hardware/hardware/menu_data.c **** 				// 长按200ms，退出函数
 672:./Hardware/hardware/menu_data.c **** 				while(Key_back == 0); // 等待松手
 1744              		.loc 1 672 10
 1745 002c 00BF     		nop
 1746              	.L173:
 1747              		.loc 1 672 11 discriminator 1
 1748 002e 064B     		ldr	r3, .L177
 1749 0030 1B68     		ldr	r3, [r3]
 1750              		.loc 1 672 10 discriminator 1
 1751 0032 002B     		cmp	r3, #0
 1752 0034 FBD0     		beq	.L173
 673:./Hardware/hardware/menu_data.c **** 				break;
 1753              		.loc 1 673 5
 1754 0036 03E0     		b	.L170
 1755              	.L171:
 674:./Hardware/hardware/menu_data.c **** 			}
 675:./Hardware/hardware/menu_data.c **** 			return;
 676:./Hardware/hardware/menu_data.c **** 		}
 677:./Hardware/hardware/menu_data.c **** 		else
 678:./Hardware/hardware/menu_data.c **** 		{
 679:./Hardware/hardware/menu_data.c **** 			back_press_time = 0; // 重置计时器
 1756              		.loc 1 679 20
 1757 0038 0023     		movs	r3, #0
 1758 003a FB71     		strb	r3, [r7, #7]
 663:./Hardware/hardware/menu_data.c **** 		OLED_Update();
 1759              		.loc 1 663 3
 1760 003c E5E7     		b	.L175
ARM GAS  C:\Users\86134\AppData\Local\Temp\ccuTN5uR.s 			page 44


 1761              	.L176:
 675:./Hardware/hardware/menu_data.c **** 		}
 1762              		.loc 1 675 4
 1763 003e 00BF     		nop
 1764              	.L170:
 680:./Hardware/hardware/menu_data.c **** 		}
 681:./Hardware/hardware/menu_data.c **** 	}
 682:./Hardware/hardware/menu_data.c **** }
 1765              		.loc 1 682 1
 1766 0040 0837     		adds	r7, r7, #8
 1767              	.LCFI78:
 1768              		.cfi_def_cfa_offset 8
 1769 0042 BD46     		mov	sp, r7
 1770              	.LCFI79:
 1771              		.cfi_def_cfa_register 13
 1772              		@ sp needed
 1773 0044 80BD     		pop	{r7, pc}
 1774              	.L178:
 1775 0046 00BF     		.align	2
 1776              	.L177:
 1777 0048 34812142 		.word	1109492020
 1778              		.cfi_endproc
 1779              	.LFE47:
 1781              		.section	.text.SD8840_and_std,"ax",%progbits
 1782              		.align	1
 1783              		.global	SD8840_and_std
 1784              		.syntax unified
 1785              		.thumb
 1786              		.thumb_func
 1787              		.fpu softvfp
 1789              	SD8840_and_std:
 1790              	.LFB48:
 683:./Hardware/hardware/menu_data.c **** 
 684:./Hardware/hardware/menu_data.c **** void SD8840_and_std(void)
 685:./Hardware/hardware/menu_data.c **** {
 1791              		.loc 1 685 1
 1792              		.cfi_startproc
 1793              		@ args = 0, pretend = 0, frame = 8
 1794              		@ frame_needed = 1, uses_anonymous_args = 0
 1795 0000 80B5     		push	{r7, lr}
 1796              	.LCFI80:
 1797              		.cfi_def_cfa_offset 8
 1798              		.cfi_offset 7, -8
 1799              		.cfi_offset 14, -4
 1800 0002 82B0     		sub	sp, sp, #8
 1801              	.LCFI81:
 1802              		.cfi_def_cfa_offset 16
 1803 0004 00AF     		add	r7, sp, #0
 1804              	.LCFI82:
 1805              		.cfi_def_cfa_register 7
 686:./Hardware/hardware/menu_data.c **** 	uint8_t back_press_time = 0;
 1806              		.loc 1 686 10
 1807 0006 0023     		movs	r3, #0
 1808 0008 FB71     		strb	r3, [r7, #7]
 687:./Hardware/hardware/menu_data.c **** 	uint8_t enter_press_time = 0;
 1809              		.loc 1 687 10
 1810 000a 0023     		movs	r3, #0
ARM GAS  C:\Users\86134\AppData\Local\Temp\ccuTN5uR.s 			page 45


 1811 000c BB71     		strb	r3, [r7, #6]
 1812              	.L188:
 688:./Hardware/hardware/menu_data.c **** 	
 689:./Hardware/hardware/menu_data.c **** 	while(1)
 690:./Hardware/hardware/menu_data.c **** 	{
 691:./Hardware/hardware/menu_data.c **** 		sd8840_and_std();
 1813              		.loc 1 691 3
 1814 000e FFF7FEFF 		bl	sd8840_and_std
 692:./Hardware/hardware/menu_data.c **** 		OLED_Update();
 1815              		.loc 1 692 3
 1816 0012 FFF7FEFF 		bl	OLED_Update
 693:./Hardware/hardware/menu_data.c **** 		
 694:./Hardware/hardware/menu_data.c **** 		if(Key_back == 0)
 1817              		.loc 1 694 6
 1818 0016 194B     		ldr	r3, .L190
 1819 0018 1B68     		ldr	r3, [r3]
 1820              		.loc 1 694 5
 1821 001a 002B     		cmp	r3, #0
 1822 001c 0ED1     		bne	.L180
 695:./Hardware/hardware/menu_data.c **** 		{
 696:./Hardware/hardware/menu_data.c **** 			Delay_ms(10); // 消抖
 1823              		.loc 1 696 4
 1824 001e 0A20     		movs	r0, #10
 1825 0020 FFF7FEFF 		bl	Delay_ms
 697:./Hardware/hardware/menu_data.c **** 			back_press_time += 50; // 每次循环递增50ms
 1826              		.loc 1 697 20
 1827 0024 FB79     		ldrb	r3, [r7, #7]
 1828 0026 3233     		adds	r3, r3, #50
 1829 0028 FB71     		strb	r3, [r7, #7]
 698:./Hardware/hardware/menu_data.c **** 			if(back_press_time >= 100)
 1830              		.loc 1 698 6
 1831 002a FB79     		ldrb	r3, [r7, #7]	@ zero_extendqisi2
 1832 002c 632B     		cmp	r3, #99
 1833 002e 21D9     		bls	.L189
 699:./Hardware/hardware/menu_data.c **** 			{
 700:./Hardware/hardware/menu_data.c **** 				// 长按200ms，退出函数
 701:./Hardware/hardware/menu_data.c **** 				while(Key_back == 0); // 等待松手
 1834              		.loc 1 701 10
 1835 0030 00BF     		nop
 1836              	.L182:
 1837              		.loc 1 701 11 discriminator 1
 1838 0032 124B     		ldr	r3, .L190
 1839 0034 1B68     		ldr	r3, [r3]
 1840              		.loc 1 701 10 discriminator 1
 1841 0036 002B     		cmp	r3, #0
 1842 0038 FBD0     		beq	.L182
 702:./Hardware/hardware/menu_data.c **** 				break;
 1843              		.loc 1 702 5
 1844 003a 1CE0     		b	.L179
 1845              	.L180:
 703:./Hardware/hardware/menu_data.c **** 			}
 704:./Hardware/hardware/menu_data.c **** 			return;
 705:./Hardware/hardware/menu_data.c **** 		}
 706:./Hardware/hardware/menu_data.c **** 		else
 707:./Hardware/hardware/menu_data.c **** 		{
 708:./Hardware/hardware/menu_data.c **** 			back_press_time = 0; // 重置计时器
 1846              		.loc 1 708 20
ARM GAS  C:\Users\86134\AppData\Local\Temp\ccuTN5uR.s 			page 46


 1847 003c 0023     		movs	r3, #0
 1848 003e FB71     		strb	r3, [r7, #7]
 709:./Hardware/hardware/menu_data.c **** 		}
 710:./Hardware/hardware/menu_data.c **** 		
 711:./Hardware/hardware/menu_data.c **** 		if(Key_up == 0)
 1849              		.loc 1 711 6
 1850 0040 0F4B     		ldr	r3, .L190+4
 1851 0042 1B68     		ldr	r3, [r3]
 1852              		.loc 1 711 5
 1853 0044 002B     		cmp	r3, #0
 1854 0046 12D1     		bne	.L184
 712:./Hardware/hardware/menu_data.c **** 		{
 713:./Hardware/hardware/menu_data.c **** 			Delay_ms(10); // 消抖
 1855              		.loc 1 713 4
 1856 0048 0A20     		movs	r0, #10
 1857 004a FFF7FEFF 		bl	Delay_ms
 714:./Hardware/hardware/menu_data.c **** 			enter_press_time += 50; // 每次循环递增50ms
 1858              		.loc 1 714 21
 1859 004e BB79     		ldrb	r3, [r7, #6]
 1860 0050 3233     		adds	r3, r3, #50
 1861 0052 BB71     		strb	r3, [r7, #6]
 715:./Hardware/hardware/menu_data.c **** 			if(enter_press_time >= 100)
 1862              		.loc 1 715 6
 1863 0054 BB79     		ldrb	r3, [r7, #6]	@ zero_extendqisi2
 1864 0056 632B     		cmp	r3, #99
 1865 0058 D9D9     		bls	.L188
 716:./Hardware/hardware/menu_data.c **** 			{
 717:./Hardware/hardware/menu_data.c **** 				// 长按200ms，退出函数
 718:./Hardware/hardware/menu_data.c **** 				while(Key_up == 0) // 等待松手
 1866              		.loc 1 718 10
 1867 005a 03E0     		b	.L186
 1868              	.L187:
 719:./Hardware/hardware/menu_data.c **** 				{
 720:./Hardware/hardware/menu_data.c **** 					sd8840_time_copy();
 1869              		.loc 1 720 6
 1870 005c FFF7FEFF 		bl	sd8840_time_copy
 721:./Hardware/hardware/menu_data.c **** 					OLED_Update();
 1871              		.loc 1 721 6
 1872 0060 FFF7FEFF 		bl	OLED_Update
 1873              	.L186:
 718:./Hardware/hardware/menu_data.c **** 				{
 1874              		.loc 1 718 11
 1875 0064 064B     		ldr	r3, .L190+4
 1876 0066 1B68     		ldr	r3, [r3]
 718:./Hardware/hardware/menu_data.c **** 				{
 1877              		.loc 1 718 10
 1878 0068 002B     		cmp	r3, #0
 1879 006a F7D0     		beq	.L187
 1880 006c CFE7     		b	.L188
 1881              	.L184:
 722:./Hardware/hardware/menu_data.c **** 				}
 723:./Hardware/hardware/menu_data.c **** 			} 
 724:./Hardware/hardware/menu_data.c **** 		}
 725:./Hardware/hardware/menu_data.c **** 		else
 726:./Hardware/hardware/menu_data.c **** 		{
 727:./Hardware/hardware/menu_data.c **** 			enter_press_time = 0; // 重置计时器
 1882              		.loc 1 727 21
ARM GAS  C:\Users\86134\AppData\Local\Temp\ccuTN5uR.s 			page 47


 1883 006e 0023     		movs	r3, #0
 1884 0070 BB71     		strb	r3, [r7, #6]
 691:./Hardware/hardware/menu_data.c **** 		OLED_Update();
 1885              		.loc 1 691 3
 1886 0072 CCE7     		b	.L188
 1887              	.L189:
 704:./Hardware/hardware/menu_data.c **** 		}
 1888              		.loc 1 704 4
 1889 0074 00BF     		nop
 1890              	.L179:
 728:./Hardware/hardware/menu_data.c **** 		}
 729:./Hardware/hardware/menu_data.c **** 
 730:./Hardware/hardware/menu_data.c **** 	}
 731:./Hardware/hardware/menu_data.c **** }
 1891              		.loc 1 731 1
 1892 0076 0837     		adds	r7, r7, #8
 1893              	.LCFI83:
 1894              		.cfi_def_cfa_offset 8
 1895 0078 BD46     		mov	sp, r7
 1896              	.LCFI84:
 1897              		.cfi_def_cfa_register 13
 1898              		@ sp needed
 1899 007a 80BD     		pop	{r7, pc}
 1900              	.L191:
 1901              		.align	2
 1902              	.L190:
 1903 007c 34812142 		.word	1109492020
 1904 0080 30812142 		.word	1109492016
 1905              		.cfi_endproc
 1906              	.LFE48:
 1908              		.section	.text.SD8200_Series,"ax",%progbits
 1909              		.align	1
 1910              		.global	SD8200_Series
 1911              		.syntax unified
 1912              		.thumb
 1913              		.thumb_func
 1914              		.fpu softvfp
 1916              	SD8200_Series:
 1917              	.LFB49:
 732:./Hardware/hardware/menu_data.c **** 
 733:./Hardware/hardware/menu_data.c **** void SD8200_Series(void)
 734:./Hardware/hardware/menu_data.c **** {
 1918              		.loc 1 734 1
 1919              		.cfi_startproc
 1920              		@ args = 0, pretend = 0, frame = 8
 1921              		@ frame_needed = 1, uses_anonymous_args = 0
 1922 0000 80B5     		push	{r7, lr}
 1923              	.LCFI85:
 1924              		.cfi_def_cfa_offset 8
 1925              		.cfi_offset 7, -8
 1926              		.cfi_offset 14, -4
 1927 0002 82B0     		sub	sp, sp, #8
 1928              	.LCFI86:
 1929              		.cfi_def_cfa_offset 16
 1930 0004 00AF     		add	r7, sp, #0
 1931              	.LCFI87:
 1932              		.cfi_def_cfa_register 7
ARM GAS  C:\Users\86134\AppData\Local\Temp\ccuTN5uR.s 			page 48


 735:./Hardware/hardware/menu_data.c **** 	uint8_t back_press_time = 0;
 1933              		.loc 1 735 10
 1934 0006 0023     		movs	r3, #0
 1935 0008 FB71     		strb	r3, [r7, #7]
 1936              	.L197:
 736:./Hardware/hardware/menu_data.c **** 	
 737:./Hardware/hardware/menu_data.c **** 	while(1)
 738:./Hardware/hardware/menu_data.c **** 	{
 739:./Hardware/hardware/menu_data.c **** 		sd8200_time_show();
 1937              		.loc 1 739 3
 1938 000a FFF7FEFF 		bl	sd8200_time_show
 740:./Hardware/hardware/menu_data.c **** 		OLED_Update();
 1939              		.loc 1 740 3
 1940 000e FFF7FEFF 		bl	OLED_Update
 741:./Hardware/hardware/menu_data.c **** 		if(Key_back == 0)
 1941              		.loc 1 741 6
 1942 0012 0D4B     		ldr	r3, .L199
 1943 0014 1B68     		ldr	r3, [r3]
 1944              		.loc 1 741 5
 1945 0016 002B     		cmp	r3, #0
 1946 0018 0ED1     		bne	.L193
 742:./Hardware/hardware/menu_data.c **** 		{
 743:./Hardware/hardware/menu_data.c **** 			Delay_ms(10); // 消抖
 1947              		.loc 1 743 4
 1948 001a 0A20     		movs	r0, #10
 1949 001c FFF7FEFF 		bl	Delay_ms
 744:./Hardware/hardware/menu_data.c **** 			back_press_time += 50; // 每次循环递增50ms
 1950              		.loc 1 744 20
 1951 0020 FB79     		ldrb	r3, [r7, #7]
 1952 0022 3233     		adds	r3, r3, #50
 1953 0024 FB71     		strb	r3, [r7, #7]
 745:./Hardware/hardware/menu_data.c **** 			if(back_press_time >= 100)
 1954              		.loc 1 745 6
 1955 0026 FB79     		ldrb	r3, [r7, #7]	@ zero_extendqisi2
 1956 0028 632B     		cmp	r3, #99
 1957 002a 08D9     		bls	.L198
 746:./Hardware/hardware/menu_data.c **** 			{
 747:./Hardware/hardware/menu_data.c **** 				// 长按200ms，退出函数
 748:./Hardware/hardware/menu_data.c **** 				while(Key_back == 0); // 等待松手
 1958              		.loc 1 748 10
 1959 002c 00BF     		nop
 1960              	.L195:
 1961              		.loc 1 748 11 discriminator 1
 1962 002e 064B     		ldr	r3, .L199
 1963 0030 1B68     		ldr	r3, [r3]
 1964              		.loc 1 748 10 discriminator 1
 1965 0032 002B     		cmp	r3, #0
 1966 0034 FBD0     		beq	.L195
 749:./Hardware/hardware/menu_data.c **** 				break;
 1967              		.loc 1 749 5
 1968 0036 03E0     		b	.L192
 1969              	.L193:
 750:./Hardware/hardware/menu_data.c **** 			}
 751:./Hardware/hardware/menu_data.c **** 			return;
 752:./Hardware/hardware/menu_data.c **** 		}
 753:./Hardware/hardware/menu_data.c **** 		else
 754:./Hardware/hardware/menu_data.c **** 		{
ARM GAS  C:\Users\86134\AppData\Local\Temp\ccuTN5uR.s 			page 49


 755:./Hardware/hardware/menu_data.c **** 			back_press_time = 0; // 重置计时器
 1970              		.loc 1 755 20
 1971 0038 0023     		movs	r3, #0
 1972 003a FB71     		strb	r3, [r7, #7]
 739:./Hardware/hardware/menu_data.c **** 		OLED_Update();
 1973              		.loc 1 739 3
 1974 003c E5E7     		b	.L197
 1975              	.L198:
 751:./Hardware/hardware/menu_data.c **** 		}
 1976              		.loc 1 751 4
 1977 003e 00BF     		nop
 1978              	.L192:
 756:./Hardware/hardware/menu_data.c **** 		}
 757:./Hardware/hardware/menu_data.c **** 	}
 758:./Hardware/hardware/menu_data.c **** }
 1979              		.loc 1 758 1
 1980 0040 0837     		adds	r7, r7, #8
 1981              	.LCFI88:
 1982              		.cfi_def_cfa_offset 8
 1983 0042 BD46     		mov	sp, r7
 1984              	.LCFI89:
 1985              		.cfi_def_cfa_register 13
 1986              		@ sp needed
 1987 0044 80BD     		pop	{r7, pc}
 1988              	.L200:
 1989 0046 00BF     		.align	2
 1990              	.L199:
 1991 0048 34812142 		.word	1109492020
 1992              		.cfi_endproc
 1993              	.LFE49:
 1995              		.section	.text.SD8200_and_std,"ax",%progbits
 1996              		.align	1
 1997              		.global	SD8200_and_std
 1998              		.syntax unified
 1999              		.thumb
 2000              		.thumb_func
 2001              		.fpu softvfp
 2003              	SD8200_and_std:
 2004              	.LFB50:
 759:./Hardware/hardware/menu_data.c **** 
 760:./Hardware/hardware/menu_data.c **** void SD8200_and_std(void)
 761:./Hardware/hardware/menu_data.c **** {
 2005              		.loc 1 761 1
 2006              		.cfi_startproc
 2007              		@ args = 0, pretend = 0, frame = 8
 2008              		@ frame_needed = 1, uses_anonymous_args = 0
 2009 0000 80B5     		push	{r7, lr}
 2010              	.LCFI90:
 2011              		.cfi_def_cfa_offset 8
 2012              		.cfi_offset 7, -8
 2013              		.cfi_offset 14, -4
 2014 0002 82B0     		sub	sp, sp, #8
 2015              	.LCFI91:
 2016              		.cfi_def_cfa_offset 16
 2017 0004 00AF     		add	r7, sp, #0
 2018              	.LCFI92:
 2019              		.cfi_def_cfa_register 7
ARM GAS  C:\Users\86134\AppData\Local\Temp\ccuTN5uR.s 			page 50


 762:./Hardware/hardware/menu_data.c **** 	uint8_t back_press_time = 0;
 2020              		.loc 1 762 10
 2021 0006 0023     		movs	r3, #0
 2022 0008 FB71     		strb	r3, [r7, #7]
 763:./Hardware/hardware/menu_data.c **** 	uint8_t enter_press_time = 0;
 2023              		.loc 1 763 10
 2024 000a 0023     		movs	r3, #0
 2025 000c BB71     		strb	r3, [r7, #6]
 764:./Hardware/hardware/menu_data.c **** 	uint8_t down_press_time = 0;
 2026              		.loc 1 764 10
 2027 000e 0023     		movs	r3, #0
 2028 0010 7B71     		strb	r3, [r7, #5]
 765:./Hardware/hardware/menu_data.c **** 	uint8_t key_state = 0;
 2029              		.loc 1 765 10
 2030 0012 0023     		movs	r3, #0
 2031 0014 3B71     		strb	r3, [r7, #4]
 2032              	.L214:
 766:./Hardware/hardware/menu_data.c **** 
 767:./Hardware/hardware/menu_data.c **** 	
 768:./Hardware/hardware/menu_data.c **** 	while(1)
 769:./Hardware/hardware/menu_data.c **** 	{
 770:./Hardware/hardware/menu_data.c **** 		sd8200_and_std();
 2033              		.loc 1 770 3
 2034 0016 FFF7FEFF 		bl	sd8200_and_std
 771:./Hardware/hardware/menu_data.c **** 		OLED_Update();
 2035              		.loc 1 771 3
 2036 001a FFF7FEFF 		bl	OLED_Update
 772:./Hardware/hardware/menu_data.c **** 		
 773:./Hardware/hardware/menu_data.c **** 		if(Key_back == 0)
 2037              		.loc 1 773 6
 2038 001e 284B     		ldr	r3, .L216
 2039 0020 1B68     		ldr	r3, [r3]
 2040              		.loc 1 773 5
 2041 0022 002B     		cmp	r3, #0
 2042 0024 0ED1     		bne	.L202
 774:./Hardware/hardware/menu_data.c **** 		{
 775:./Hardware/hardware/menu_data.c **** 			Delay_ms(10); // 消抖
 2043              		.loc 1 775 4
 2044 0026 0A20     		movs	r0, #10
 2045 0028 FFF7FEFF 		bl	Delay_ms
 776:./Hardware/hardware/menu_data.c **** 			back_press_time += 50; // 每次循环递增50ms
 2046              		.loc 1 776 20
 2047 002c FB79     		ldrb	r3, [r7, #7]
 2048 002e 3233     		adds	r3, r3, #50
 2049 0030 FB71     		strb	r3, [r7, #7]
 777:./Hardware/hardware/menu_data.c **** 			if(back_press_time >= 100)
 2050              		.loc 1 777 6
 2051 0032 FB79     		ldrb	r3, [r7, #7]	@ zero_extendqisi2
 2052 0034 632B     		cmp	r3, #99
 2053 0036 3FD9     		bls	.L215
 778:./Hardware/hardware/menu_data.c **** 			{
 779:./Hardware/hardware/menu_data.c **** 				// 长按200ms，退出函数
 780:./Hardware/hardware/menu_data.c **** 				while(Key_back == 0); // 等待松手
 2054              		.loc 1 780 10
 2055 0038 00BF     		nop
 2056              	.L204:
 2057              		.loc 1 780 11 discriminator 1
ARM GAS  C:\Users\86134\AppData\Local\Temp\ccuTN5uR.s 			page 51


 2058 003a 214B     		ldr	r3, .L216
 2059 003c 1B68     		ldr	r3, [r3]
 2060              		.loc 1 780 10 discriminator 1
 2061 003e 002B     		cmp	r3, #0
 2062 0040 FBD0     		beq	.L204
 781:./Hardware/hardware/menu_data.c **** 				break;
 2063              		.loc 1 781 5
 2064 0042 3AE0     		b	.L201
 2065              	.L202:
 782:./Hardware/hardware/menu_data.c **** 			}
 783:./Hardware/hardware/menu_data.c **** 			return;
 784:./Hardware/hardware/menu_data.c **** 		}
 785:./Hardware/hardware/menu_data.c **** 		else
 786:./Hardware/hardware/menu_data.c **** 		{
 787:./Hardware/hardware/menu_data.c **** 			back_press_time = 0; // 重置计时器
 2066              		.loc 1 787 20
 2067 0044 0023     		movs	r3, #0
 2068 0046 FB71     		strb	r3, [r7, #7]
 788:./Hardware/hardware/menu_data.c **** 		}
 789:./Hardware/hardware/menu_data.c **** 		
 790:./Hardware/hardware/menu_data.c **** 		if(Key_up == 0)
 2069              		.loc 1 790 6
 2070 0048 1E4B     		ldr	r3, .L216+4
 2071 004a 1B68     		ldr	r3, [r3]
 2072              		.loc 1 790 5
 2073 004c 002B     		cmp	r3, #0
 2074 004e 12D1     		bne	.L206
 791:./Hardware/hardware/menu_data.c **** 		{
 792:./Hardware/hardware/menu_data.c **** 			Delay_ms(10); // 消抖
 2075              		.loc 1 792 4
 2076 0050 0A20     		movs	r0, #10
 2077 0052 FFF7FEFF 		bl	Delay_ms
 793:./Hardware/hardware/menu_data.c **** 			enter_press_time += 50; // 每次循环递增50ms
 2078              		.loc 1 793 21
 2079 0056 BB79     		ldrb	r3, [r7, #6]
 2080 0058 3233     		adds	r3, r3, #50
 2081 005a BB71     		strb	r3, [r7, #6]
 794:./Hardware/hardware/menu_data.c **** 			if(enter_press_time >= 100)
 2082              		.loc 1 794 6
 2083 005c BB79     		ldrb	r3, [r7, #6]	@ zero_extendqisi2
 2084 005e 632B     		cmp	r3, #99
 2085 0060 0BD9     		bls	.L207
 795:./Hardware/hardware/menu_data.c **** 			{
 796:./Hardware/hardware/menu_data.c **** 				// 长按200ms，退出函数
 797:./Hardware/hardware/menu_data.c **** 				while(Key_up == 0) // 等待松手
 2086              		.loc 1 797 10
 2087 0062 03E0     		b	.L208
 2088              	.L209:
 798:./Hardware/hardware/menu_data.c **** 				{
 799:./Hardware/hardware/menu_data.c **** 					sd8200_time_copy();
 2089              		.loc 1 799 6
 2090 0064 FFF7FEFF 		bl	sd8200_time_copy
 800:./Hardware/hardware/menu_data.c **** 					OLED_Update();
 2091              		.loc 1 800 6
 2092 0068 FFF7FEFF 		bl	OLED_Update
 2093              	.L208:
 797:./Hardware/hardware/menu_data.c **** 				{
ARM GAS  C:\Users\86134\AppData\Local\Temp\ccuTN5uR.s 			page 52


 2094              		.loc 1 797 11
 2095 006c 154B     		ldr	r3, .L216+4
 2096 006e 1B68     		ldr	r3, [r3]
 797:./Hardware/hardware/menu_data.c **** 				{
 2097              		.loc 1 797 10
 2098 0070 002B     		cmp	r3, #0
 2099 0072 F7D0     		beq	.L209
 2100 0074 01E0     		b	.L207
 2101              	.L206:
 801:./Hardware/hardware/menu_data.c **** 				}
 802:./Hardware/hardware/menu_data.c **** 			} 
 803:./Hardware/hardware/menu_data.c **** 		}
 804:./Hardware/hardware/menu_data.c **** 		else
 805:./Hardware/hardware/menu_data.c **** 		{
 806:./Hardware/hardware/menu_data.c **** 			enter_press_time = 0; // 重置计时器
 2102              		.loc 1 806 21
 2103 0076 0023     		movs	r3, #0
 2104 0078 BB71     		strb	r3, [r7, #6]
 2105              	.L207:
 807:./Hardware/hardware/menu_data.c **** 		}
 808:./Hardware/hardware/menu_data.c **** /******************下按键************************/
 809:./Hardware/hardware/menu_data.c ****     if (Key_down == 0)
 2106              		.loc 1 809 9
 2107 007a 134B     		ldr	r3, .L216+8
 2108 007c 1B68     		ldr	r3, [r3]
 2109              		.loc 1 809 8
 2110 007e 002B     		cmp	r3, #0
 2111 0080 17D1     		bne	.L210
 810:./Hardware/hardware/menu_data.c **** 	{
 811:./Hardware/hardware/menu_data.c ****         Delay_ms(10); // 消抖
 2112              		.loc 1 811 9
 2113 0082 0A20     		movs	r0, #10
 2114 0084 FFF7FEFF 		bl	Delay_ms
 812:./Hardware/hardware/menu_data.c ****         down_press_time += 50; // 每次循环递增50ms
 2115              		.loc 1 812 25
 2116 0088 7B79     		ldrb	r3, [r7, #5]
 2117 008a 3233     		adds	r3, r3, #50
 2118 008c 7B71     		strb	r3, [r7, #5]
 813:./Hardware/hardware/menu_data.c ****         if (down_press_time >= 100)
 2119              		.loc 1 813 12
 2120 008e 7B79     		ldrb	r3, [r7, #5]	@ zero_extendqisi2
 2121 0090 632B     		cmp	r3, #99
 2122 0092 C0D9     		bls	.L214
 814:./Hardware/hardware/menu_data.c **** 		{
 815:./Hardware/hardware/menu_data.c ****             if (key_state == 0) 
 2123              		.loc 1 815 16
 2124 0094 3B79     		ldrb	r3, [r7, #4]	@ zero_extendqisi2
 2125 0096 002B     		cmp	r3, #0
 2126 0098 04D1     		bne	.L212
 816:./Hardware/hardware/menu_data.c **** 			{
 817:./Hardware/hardware/menu_data.c ****                 sd8200_charge_on(); // 执行sd3xxx_charge_on()函数
 2127              		.loc 1 817 17
 2128 009a FFF7FEFF 		bl	sd8200_charge_on
 818:./Hardware/hardware/menu_data.c ****                 key_state = 1; // 更新按键状态为已按下
 2129              		.loc 1 818 27
 2130 009e 0123     		movs	r3, #1
 2131 00a0 3B71     		strb	r3, [r7, #4]
ARM GAS  C:\Users\86134\AppData\Local\Temp\ccuTN5uR.s 			page 53


 2132 00a2 03E0     		b	.L213
 2133              	.L212:
 819:./Hardware/hardware/menu_data.c ****             } else {
 820:./Hardware/hardware/menu_data.c ****                 sd8200_charge_off(); // 执行sd3xxx_charge_off()函数
 2134              		.loc 1 820 17
 2135 00a4 FFF7FEFF 		bl	sd8200_charge_off
 821:./Hardware/hardware/menu_data.c ****                 key_state = 0; // 更新按键状态为未按下
 2136              		.loc 1 821 27
 2137 00a8 0023     		movs	r3, #0
 2138 00aa 3B71     		strb	r3, [r7, #4]
 2139              	.L213:
 822:./Hardware/hardware/menu_data.c ****             }
 823:./Hardware/hardware/menu_data.c ****             down_press_time = 0; // 重置计时器
 2140              		.loc 1 823 29
 2141 00ac 0023     		movs	r3, #0
 2142 00ae 7B71     		strb	r3, [r7, #5]
 2143 00b0 B1E7     		b	.L214
 2144              	.L210:
 824:./Hardware/hardware/menu_data.c ****         }
 825:./Hardware/hardware/menu_data.c ****     } else {
 826:./Hardware/hardware/menu_data.c ****         down_press_time = 0; // 重置计时器
 2145              		.loc 1 826 25
 2146 00b2 0023     		movs	r3, #0
 2147 00b4 7B71     		strb	r3, [r7, #5]
 770:./Hardware/hardware/menu_data.c **** 		OLED_Update();
 2148              		.loc 1 770 3
 2149 00b6 AEE7     		b	.L214
 2150              	.L215:
 783:./Hardware/hardware/menu_data.c **** 		}
 2151              		.loc 1 783 4
 2152 00b8 00BF     		nop
 2153              	.L201:
 827:./Hardware/hardware/menu_data.c **** 		
 828:./Hardware/hardware/menu_data.c **** 		}
 829:./Hardware/hardware/menu_data.c **** 	}
 830:./Hardware/hardware/menu_data.c **** }
 2154              		.loc 1 830 1
 2155 00ba 0837     		adds	r7, r7, #8
 2156              	.LCFI93:
 2157              		.cfi_def_cfa_offset 8
 2158 00bc BD46     		mov	sp, r7
 2159              	.LCFI94:
 2160              		.cfi_def_cfa_register 13
 2161              		@ sp needed
 2162 00be 80BD     		pop	{r7, pc}
 2163              	.L217:
 2164              		.align	2
 2165              	.L216:
 2166 00c0 34812142 		.word	1109492020
 2167 00c4 30812142 		.word	1109492016
 2168 00c8 38812142 		.word	1109492024
 2169              		.cfi_endproc
 2170              	.LFE50:
 2172              		.section	.text.SD8931_Series,"ax",%progbits
 2173              		.align	1
 2174              		.global	SD8931_Series
 2175              		.syntax unified
ARM GAS  C:\Users\86134\AppData\Local\Temp\ccuTN5uR.s 			page 54


 2176              		.thumb
 2177              		.thumb_func
 2178              		.fpu softvfp
 2180              	SD8931_Series:
 2181              	.LFB51:
 831:./Hardware/hardware/menu_data.c **** 
 832:./Hardware/hardware/menu_data.c **** 
 833:./Hardware/hardware/menu_data.c **** void SD8931_Series(void)
 834:./Hardware/hardware/menu_data.c **** {
 2182              		.loc 1 834 1
 2183              		.cfi_startproc
 2184              		@ args = 0, pretend = 0, frame = 8
 2185              		@ frame_needed = 1, uses_anonymous_args = 0
 2186 0000 80B5     		push	{r7, lr}
 2187              	.LCFI95:
 2188              		.cfi_def_cfa_offset 8
 2189              		.cfi_offset 7, -8
 2190              		.cfi_offset 14, -4
 2191 0002 82B0     		sub	sp, sp, #8
 2192              	.LCFI96:
 2193              		.cfi_def_cfa_offset 16
 2194 0004 00AF     		add	r7, sp, #0
 2195              	.LCFI97:
 2196              		.cfi_def_cfa_register 7
 835:./Hardware/hardware/menu_data.c **** 	uint8_t back_press_time = 0;
 2197              		.loc 1 835 10
 2198 0006 0023     		movs	r3, #0
 2199 0008 FB71     		strb	r3, [r7, #7]
 2200              	.L223:
 836:./Hardware/hardware/menu_data.c **** 	
 837:./Hardware/hardware/menu_data.c **** 	while(1)
 838:./Hardware/hardware/menu_data.c **** 	{
 839:./Hardware/hardware/menu_data.c **** 		sd8931_time_show();
 2201              		.loc 1 839 3
 2202 000a FFF7FEFF 		bl	sd8931_time_show
 840:./Hardware/hardware/menu_data.c **** 		OLED_Update();
 2203              		.loc 1 840 3
 2204 000e FFF7FEFF 		bl	OLED_Update
 841:./Hardware/hardware/menu_data.c **** 		if(Key_back == 0)
 2205              		.loc 1 841 6
 2206 0012 0D4B     		ldr	r3, .L225
 2207 0014 1B68     		ldr	r3, [r3]
 2208              		.loc 1 841 5
 2209 0016 002B     		cmp	r3, #0
 2210 0018 0ED1     		bne	.L219
 842:./Hardware/hardware/menu_data.c **** 		{
 843:./Hardware/hardware/menu_data.c **** 			Delay_ms(10); // 消抖
 2211              		.loc 1 843 4
 2212 001a 0A20     		movs	r0, #10
 2213 001c FFF7FEFF 		bl	Delay_ms
 844:./Hardware/hardware/menu_data.c **** 			back_press_time += 50; // 每次循环递增50ms
 2214              		.loc 1 844 20
 2215 0020 FB79     		ldrb	r3, [r7, #7]
 2216 0022 3233     		adds	r3, r3, #50
 2217 0024 FB71     		strb	r3, [r7, #7]
 845:./Hardware/hardware/menu_data.c **** 			if(back_press_time >= 100)
 2218              		.loc 1 845 6
ARM GAS  C:\Users\86134\AppData\Local\Temp\ccuTN5uR.s 			page 55


 2219 0026 FB79     		ldrb	r3, [r7, #7]	@ zero_extendqisi2
 2220 0028 632B     		cmp	r3, #99
 2221 002a 08D9     		bls	.L224
 846:./Hardware/hardware/menu_data.c **** 			{
 847:./Hardware/hardware/menu_data.c **** 				// 长按200ms，退出函数
 848:./Hardware/hardware/menu_data.c **** 				while(Key_back == 0); // 等待松手
 2222              		.loc 1 848 10
 2223 002c 00BF     		nop
 2224              	.L221:
 2225              		.loc 1 848 11 discriminator 1
 2226 002e 064B     		ldr	r3, .L225
 2227 0030 1B68     		ldr	r3, [r3]
 2228              		.loc 1 848 10 discriminator 1
 2229 0032 002B     		cmp	r3, #0
 2230 0034 FBD0     		beq	.L221
 849:./Hardware/hardware/menu_data.c **** 				break;
 2231              		.loc 1 849 5
 2232 0036 03E0     		b	.L218
 2233              	.L219:
 850:./Hardware/hardware/menu_data.c **** 			}
 851:./Hardware/hardware/menu_data.c **** 			return;
 852:./Hardware/hardware/menu_data.c **** 		}
 853:./Hardware/hardware/menu_data.c **** 		else
 854:./Hardware/hardware/menu_data.c **** 		{
 855:./Hardware/hardware/menu_data.c **** 			back_press_time = 0; // 重置计时器
 2234              		.loc 1 855 20
 2235 0038 0023     		movs	r3, #0
 2236 003a FB71     		strb	r3, [r7, #7]
 839:./Hardware/hardware/menu_data.c **** 		OLED_Update();
 2237              		.loc 1 839 3
 2238 003c E5E7     		b	.L223
 2239              	.L224:
 851:./Hardware/hardware/menu_data.c **** 		}
 2240              		.loc 1 851 4
 2241 003e 00BF     		nop
 2242              	.L218:
 856:./Hardware/hardware/menu_data.c **** 		}
 857:./Hardware/hardware/menu_data.c **** 	}
 858:./Hardware/hardware/menu_data.c **** }
 2243              		.loc 1 858 1
 2244 0040 0837     		adds	r7, r7, #8
 2245              	.LCFI98:
 2246              		.cfi_def_cfa_offset 8
 2247 0042 BD46     		mov	sp, r7
 2248              	.LCFI99:
 2249              		.cfi_def_cfa_register 13
 2250              		@ sp needed
 2251 0044 80BD     		pop	{r7, pc}
 2252              	.L226:
 2253 0046 00BF     		.align	2
 2254              	.L225:
 2255 0048 34812142 		.word	1109492020
 2256              		.cfi_endproc
 2257              	.LFE51:
 2259              		.section	.text.SD8931_and_std,"ax",%progbits
 2260              		.align	1
 2261              		.global	SD8931_and_std
ARM GAS  C:\Users\86134\AppData\Local\Temp\ccuTN5uR.s 			page 56


 2262              		.syntax unified
 2263              		.thumb
 2264              		.thumb_func
 2265              		.fpu softvfp
 2267              	SD8931_and_std:
 2268              	.LFB52:
 859:./Hardware/hardware/menu_data.c **** 
 860:./Hardware/hardware/menu_data.c **** void SD8931_and_std(void)
 861:./Hardware/hardware/menu_data.c **** {
 2269              		.loc 1 861 1
 2270              		.cfi_startproc
 2271              		@ args = 0, pretend = 0, frame = 8
 2272              		@ frame_needed = 1, uses_anonymous_args = 0
 2273 0000 80B5     		push	{r7, lr}
 2274              	.LCFI100:
 2275              		.cfi_def_cfa_offset 8
 2276              		.cfi_offset 7, -8
 2277              		.cfi_offset 14, -4
 2278 0002 82B0     		sub	sp, sp, #8
 2279              	.LCFI101:
 2280              		.cfi_def_cfa_offset 16
 2281 0004 00AF     		add	r7, sp, #0
 2282              	.LCFI102:
 2283              		.cfi_def_cfa_register 7
 862:./Hardware/hardware/menu_data.c **** 	uint8_t back_press_time = 0;
 2284              		.loc 1 862 10
 2285 0006 0023     		movs	r3, #0
 2286 0008 FB71     		strb	r3, [r7, #7]
 863:./Hardware/hardware/menu_data.c **** 	uint8_t enter_press_time = 0;
 2287              		.loc 1 863 10
 2288 000a 0023     		movs	r3, #0
 2289 000c BB71     		strb	r3, [r7, #6]
 864:./Hardware/hardware/menu_data.c **** 	uint8_t down_press_time = 0;
 2290              		.loc 1 864 10
 2291 000e 0023     		movs	r3, #0
 2292 0010 7B71     		strb	r3, [r7, #5]
 865:./Hardware/hardware/menu_data.c **** 	uint8_t key_state = 0;
 2293              		.loc 1 865 10
 2294 0012 0023     		movs	r3, #0
 2295 0014 3B71     		strb	r3, [r7, #4]
 2296              	.L240:
 866:./Hardware/hardware/menu_data.c **** 
 867:./Hardware/hardware/menu_data.c **** 	while(1)
 868:./Hardware/hardware/menu_data.c **** 	{
 869:./Hardware/hardware/menu_data.c **** 		sd8931_and_std();
 2297              		.loc 1 869 3
 2298 0016 FFF7FEFF 		bl	sd8931_and_std
 870:./Hardware/hardware/menu_data.c **** 		OLED_Update();
 2299              		.loc 1 870 3
 2300 001a FFF7FEFF 		bl	OLED_Update
 871:./Hardware/hardware/menu_data.c **** 		
 872:./Hardware/hardware/menu_data.c **** 		if(Key_back == 0)
 2301              		.loc 1 872 6
 2302 001e 284B     		ldr	r3, .L242
 2303 0020 1B68     		ldr	r3, [r3]
 2304              		.loc 1 872 5
 2305 0022 002B     		cmp	r3, #0
ARM GAS  C:\Users\86134\AppData\Local\Temp\ccuTN5uR.s 			page 57


 2306 0024 0ED1     		bne	.L228
 873:./Hardware/hardware/menu_data.c **** 		{
 874:./Hardware/hardware/menu_data.c **** 			Delay_ms(10); // 消抖
 2307              		.loc 1 874 4
 2308 0026 0A20     		movs	r0, #10
 2309 0028 FFF7FEFF 		bl	Delay_ms
 875:./Hardware/hardware/menu_data.c **** 			back_press_time += 50; // 每次循环递增50ms
 2310              		.loc 1 875 20
 2311 002c FB79     		ldrb	r3, [r7, #7]
 2312 002e 3233     		adds	r3, r3, #50
 2313 0030 FB71     		strb	r3, [r7, #7]
 876:./Hardware/hardware/menu_data.c **** 			if(back_press_time >= 100)
 2314              		.loc 1 876 6
 2315 0032 FB79     		ldrb	r3, [r7, #7]	@ zero_extendqisi2
 2316 0034 632B     		cmp	r3, #99
 2317 0036 3FD9     		bls	.L241
 877:./Hardware/hardware/menu_data.c **** 			{
 878:./Hardware/hardware/menu_data.c **** 				// 长按200ms，退出函数
 879:./Hardware/hardware/menu_data.c **** 				while(Key_back == 0); // 等待松手
 2318              		.loc 1 879 10
 2319 0038 00BF     		nop
 2320              	.L230:
 2321              		.loc 1 879 11 discriminator 1
 2322 003a 214B     		ldr	r3, .L242
 2323 003c 1B68     		ldr	r3, [r3]
 2324              		.loc 1 879 10 discriminator 1
 2325 003e 002B     		cmp	r3, #0
 2326 0040 FBD0     		beq	.L230
 880:./Hardware/hardware/menu_data.c **** 				break;
 2327              		.loc 1 880 5
 2328 0042 3AE0     		b	.L227
 2329              	.L228:
 881:./Hardware/hardware/menu_data.c **** 			}
 882:./Hardware/hardware/menu_data.c **** 			return;
 883:./Hardware/hardware/menu_data.c **** 		}
 884:./Hardware/hardware/menu_data.c **** 		else
 885:./Hardware/hardware/menu_data.c **** 		{
 886:./Hardware/hardware/menu_data.c **** 			back_press_time = 0; // 重置计时器
 2330              		.loc 1 886 20
 2331 0044 0023     		movs	r3, #0
 2332 0046 FB71     		strb	r3, [r7, #7]
 887:./Hardware/hardware/menu_data.c **** 		}
 888:./Hardware/hardware/menu_data.c **** 		
 889:./Hardware/hardware/menu_data.c **** 		if(Key_up == 0)
 2333              		.loc 1 889 6
 2334 0048 1E4B     		ldr	r3, .L242+4
 2335 004a 1B68     		ldr	r3, [r3]
 2336              		.loc 1 889 5
 2337 004c 002B     		cmp	r3, #0
 2338 004e 12D1     		bne	.L232
 890:./Hardware/hardware/menu_data.c **** 		{
 891:./Hardware/hardware/menu_data.c **** 			Delay_ms(10); // 消抖
 2339              		.loc 1 891 4
 2340 0050 0A20     		movs	r0, #10
 2341 0052 FFF7FEFF 		bl	Delay_ms
 892:./Hardware/hardware/menu_data.c **** 			enter_press_time += 50; // 每次循环递增50ms
 2342              		.loc 1 892 21
ARM GAS  C:\Users\86134\AppData\Local\Temp\ccuTN5uR.s 			page 58


 2343 0056 BB79     		ldrb	r3, [r7, #6]
 2344 0058 3233     		adds	r3, r3, #50
 2345 005a BB71     		strb	r3, [r7, #6]
 893:./Hardware/hardware/menu_data.c **** 			if(enter_press_time >= 100)
 2346              		.loc 1 893 6
 2347 005c BB79     		ldrb	r3, [r7, #6]	@ zero_extendqisi2
 2348 005e 632B     		cmp	r3, #99
 2349 0060 0BD9     		bls	.L233
 894:./Hardware/hardware/menu_data.c **** 			{
 895:./Hardware/hardware/menu_data.c **** 				// 长按200ms，退出函数
 896:./Hardware/hardware/menu_data.c **** 				while(Key_up == 0) // 等待松手
 2350              		.loc 1 896 10
 2351 0062 03E0     		b	.L234
 2352              	.L235:
 897:./Hardware/hardware/menu_data.c **** 				{
 898:./Hardware/hardware/menu_data.c **** 					sd8931_time_copy();
 2353              		.loc 1 898 6
 2354 0064 FFF7FEFF 		bl	sd8931_time_copy
 899:./Hardware/hardware/menu_data.c **** 					OLED_Update();
 2355              		.loc 1 899 6
 2356 0068 FFF7FEFF 		bl	OLED_Update
 2357              	.L234:
 896:./Hardware/hardware/menu_data.c **** 				{
 2358              		.loc 1 896 11
 2359 006c 154B     		ldr	r3, .L242+4
 2360 006e 1B68     		ldr	r3, [r3]
 896:./Hardware/hardware/menu_data.c **** 				{
 2361              		.loc 1 896 10
 2362 0070 002B     		cmp	r3, #0
 2363 0072 F7D0     		beq	.L235
 2364 0074 01E0     		b	.L233
 2365              	.L232:
 900:./Hardware/hardware/menu_data.c **** 				}
 901:./Hardware/hardware/menu_data.c **** 			} 
 902:./Hardware/hardware/menu_data.c **** 		}
 903:./Hardware/hardware/menu_data.c **** 		else
 904:./Hardware/hardware/menu_data.c **** 		{
 905:./Hardware/hardware/menu_data.c **** 			enter_press_time = 0; // 重置计时器
 2366              		.loc 1 905 21
 2367 0076 0023     		movs	r3, #0
 2368 0078 BB71     		strb	r3, [r7, #6]
 2369              	.L233:
 906:./Hardware/hardware/menu_data.c **** 		}
 907:./Hardware/hardware/menu_data.c **** /******************下按键************************/
 908:./Hardware/hardware/menu_data.c ****     if (Key_down == 0)
 2370              		.loc 1 908 9
 2371 007a 134B     		ldr	r3, .L242+8
 2372 007c 1B68     		ldr	r3, [r3]
 2373              		.loc 1 908 8
 2374 007e 002B     		cmp	r3, #0
 2375 0080 17D1     		bne	.L236
 909:./Hardware/hardware/menu_data.c **** 	{
 910:./Hardware/hardware/menu_data.c ****         Delay_ms(10); // 消抖
 2376              		.loc 1 910 9
 2377 0082 0A20     		movs	r0, #10
 2378 0084 FFF7FEFF 		bl	Delay_ms
 911:./Hardware/hardware/menu_data.c ****         down_press_time += 50; // 每次循环递增50ms
ARM GAS  C:\Users\86134\AppData\Local\Temp\ccuTN5uR.s 			page 59


 2379              		.loc 1 911 25
 2380 0088 7B79     		ldrb	r3, [r7, #5]
 2381 008a 3233     		adds	r3, r3, #50
 2382 008c 7B71     		strb	r3, [r7, #5]
 912:./Hardware/hardware/menu_data.c ****         if (down_press_time >= 100)
 2383              		.loc 1 912 12
 2384 008e 7B79     		ldrb	r3, [r7, #5]	@ zero_extendqisi2
 2385 0090 632B     		cmp	r3, #99
 2386 0092 C0D9     		bls	.L240
 913:./Hardware/hardware/menu_data.c **** 		{
 914:./Hardware/hardware/menu_data.c ****             if (key_state == 0) 
 2387              		.loc 1 914 16
 2388 0094 3B79     		ldrb	r3, [r7, #4]	@ zero_extendqisi2
 2389 0096 002B     		cmp	r3, #0
 2390 0098 04D1     		bne	.L238
 915:./Hardware/hardware/menu_data.c **** 			{
 916:./Hardware/hardware/menu_data.c ****                 sd8931_charge_on(); // 执行sd3xxx_charge_on()函数
 2391              		.loc 1 916 17
 2392 009a FFF7FEFF 		bl	sd8931_charge_on
 917:./Hardware/hardware/menu_data.c ****                 key_state = 1; // 更新按键状态为已按下
 2393              		.loc 1 917 27
 2394 009e 0123     		movs	r3, #1
 2395 00a0 3B71     		strb	r3, [r7, #4]
 2396 00a2 03E0     		b	.L239
 2397              	.L238:
 918:./Hardware/hardware/menu_data.c ****             } else {
 919:./Hardware/hardware/menu_data.c ****                 sd8931_charge_off(); // 执行sd3xxx_charge_off()函数
 2398              		.loc 1 919 17
 2399 00a4 FFF7FEFF 		bl	sd8931_charge_off
 920:./Hardware/hardware/menu_data.c ****                 key_state = 0; // 更新按键状态为未按下
 2400              		.loc 1 920 27
 2401 00a8 0023     		movs	r3, #0
 2402 00aa 3B71     		strb	r3, [r7, #4]
 2403              	.L239:
 921:./Hardware/hardware/menu_data.c ****             }
 922:./Hardware/hardware/menu_data.c ****             down_press_time = 0; // 重置计时器
 2404              		.loc 1 922 29
 2405 00ac 0023     		movs	r3, #0
 2406 00ae 7B71     		strb	r3, [r7, #5]
 2407 00b0 B1E7     		b	.L240
 2408              	.L236:
 923:./Hardware/hardware/menu_data.c ****         }
 924:./Hardware/hardware/menu_data.c ****     } else {
 925:./Hardware/hardware/menu_data.c ****         down_press_time = 0; // 重置计时器
 2409              		.loc 1 925 25
 2410 00b2 0023     		movs	r3, #0
 2411 00b4 7B71     		strb	r3, [r7, #5]
 869:./Hardware/hardware/menu_data.c **** 		OLED_Update();
 2412              		.loc 1 869 3
 2413 00b6 AEE7     		b	.L240
 2414              	.L241:
 882:./Hardware/hardware/menu_data.c **** 		}
 2415              		.loc 1 882 4
 2416 00b8 00BF     		nop
 2417              	.L227:
 926:./Hardware/hardware/menu_data.c **** 		
 927:./Hardware/hardware/menu_data.c **** 		}	
ARM GAS  C:\Users\86134\AppData\Local\Temp\ccuTN5uR.s 			page 60


 928:./Hardware/hardware/menu_data.c **** 		
 929:./Hardware/hardware/menu_data.c **** 	}
 930:./Hardware/hardware/menu_data.c **** }
 2418              		.loc 1 930 1
 2419 00ba 0837     		adds	r7, r7, #8
 2420              	.LCFI103:
 2421              		.cfi_def_cfa_offset 8
 2422 00bc BD46     		mov	sp, r7
 2423              	.LCFI104:
 2424              		.cfi_def_cfa_register 13
 2425              		@ sp needed
 2426 00be 80BD     		pop	{r7, pc}
 2427              	.L243:
 2428              		.align	2
 2429              	.L242:
 2430 00c0 34812142 		.word	1109492020
 2431 00c4 30812142 		.word	1109492016
 2432 00c8 38812142 		.word	1109492024
 2433              		.cfi_endproc
 2434              	.LFE52:
 2436              		.section	.text.SD8939_Series,"ax",%progbits
 2437              		.align	1
 2438              		.global	SD8939_Series
 2439              		.syntax unified
 2440              		.thumb
 2441              		.thumb_func
 2442              		.fpu softvfp
 2444              	SD8939_Series:
 2445              	.LFB53:
 931:./Hardware/hardware/menu_data.c **** 
 932:./Hardware/hardware/menu_data.c **** void SD8939_Series(void)
 933:./Hardware/hardware/menu_data.c **** {
 2446              		.loc 1 933 1
 2447              		.cfi_startproc
 2448              		@ args = 0, pretend = 0, frame = 8
 2449              		@ frame_needed = 1, uses_anonymous_args = 0
 2450 0000 80B5     		push	{r7, lr}
 2451              	.LCFI105:
 2452              		.cfi_def_cfa_offset 8
 2453              		.cfi_offset 7, -8
 2454              		.cfi_offset 14, -4
 2455 0002 82B0     		sub	sp, sp, #8
 2456              	.LCFI106:
 2457              		.cfi_def_cfa_offset 16
 2458 0004 00AF     		add	r7, sp, #0
 2459              	.LCFI107:
 2460              		.cfi_def_cfa_register 7
 934:./Hardware/hardware/menu_data.c **** 	uint8_t back_press_time = 0;
 2461              		.loc 1 934 10
 2462 0006 0023     		movs	r3, #0
 2463 0008 FB71     		strb	r3, [r7, #7]
 2464              	.L249:
 935:./Hardware/hardware/menu_data.c **** 	
 936:./Hardware/hardware/menu_data.c **** 	while(1)
 937:./Hardware/hardware/menu_data.c **** 	{
 938:./Hardware/hardware/menu_data.c **** 		sd8939_time_show();
 2465              		.loc 1 938 3
ARM GAS  C:\Users\86134\AppData\Local\Temp\ccuTN5uR.s 			page 61


 2466 000a FFF7FEFF 		bl	sd8939_time_show
 939:./Hardware/hardware/menu_data.c **** 		OLED_Update();
 2467              		.loc 1 939 3
 2468 000e FFF7FEFF 		bl	OLED_Update
 940:./Hardware/hardware/menu_data.c **** 		if(Key_back == 0)
 2469              		.loc 1 940 6
 2470 0012 0D4B     		ldr	r3, .L251
 2471 0014 1B68     		ldr	r3, [r3]
 2472              		.loc 1 940 5
 2473 0016 002B     		cmp	r3, #0
 2474 0018 0ED1     		bne	.L245
 941:./Hardware/hardware/menu_data.c **** 		{
 942:./Hardware/hardware/menu_data.c **** 			Delay_ms(10); // 消抖
 2475              		.loc 1 942 4
 2476 001a 0A20     		movs	r0, #10
 2477 001c FFF7FEFF 		bl	Delay_ms
 943:./Hardware/hardware/menu_data.c **** 			back_press_time += 50; // 每次循环递增50ms
 2478              		.loc 1 943 20
 2479 0020 FB79     		ldrb	r3, [r7, #7]
 2480 0022 3233     		adds	r3, r3, #50
 2481 0024 FB71     		strb	r3, [r7, #7]
 944:./Hardware/hardware/menu_data.c **** 			if(back_press_time >= 100)
 2482              		.loc 1 944 6
 2483 0026 FB79     		ldrb	r3, [r7, #7]	@ zero_extendqisi2
 2484 0028 632B     		cmp	r3, #99
 2485 002a 08D9     		bls	.L250
 945:./Hardware/hardware/menu_data.c **** 			{
 946:./Hardware/hardware/menu_data.c **** 				// 长按200ms，退出函数
 947:./Hardware/hardware/menu_data.c **** 				while(Key_back == 0); // 等待松手
 2486              		.loc 1 947 10
 2487 002c 00BF     		nop
 2488              	.L247:
 2489              		.loc 1 947 11 discriminator 1
 2490 002e 064B     		ldr	r3, .L251
 2491 0030 1B68     		ldr	r3, [r3]
 2492              		.loc 1 947 10 discriminator 1
 2493 0032 002B     		cmp	r3, #0
 2494 0034 FBD0     		beq	.L247
 948:./Hardware/hardware/menu_data.c **** 				break;
 2495              		.loc 1 948 5
 2496 0036 03E0     		b	.L244
 2497              	.L245:
 949:./Hardware/hardware/menu_data.c **** 			}
 950:./Hardware/hardware/menu_data.c **** 			return;
 951:./Hardware/hardware/menu_data.c **** 		}
 952:./Hardware/hardware/menu_data.c **** 		else
 953:./Hardware/hardware/menu_data.c **** 		{
 954:./Hardware/hardware/menu_data.c **** 			back_press_time = 0; // 重置计时器
 2498              		.loc 1 954 20
 2499 0038 0023     		movs	r3, #0
 2500 003a FB71     		strb	r3, [r7, #7]
 938:./Hardware/hardware/menu_data.c **** 		OLED_Update();
 2501              		.loc 1 938 3
 2502 003c E5E7     		b	.L249
 2503              	.L250:
 950:./Hardware/hardware/menu_data.c **** 		}
 2504              		.loc 1 950 4
ARM GAS  C:\Users\86134\AppData\Local\Temp\ccuTN5uR.s 			page 62


 2505 003e 00BF     		nop
 2506              	.L244:
 955:./Hardware/hardware/menu_data.c **** 		}
 956:./Hardware/hardware/menu_data.c **** 	}
 957:./Hardware/hardware/menu_data.c **** }
 2507              		.loc 1 957 1
 2508 0040 0837     		adds	r7, r7, #8
 2509              	.LCFI108:
 2510              		.cfi_def_cfa_offset 8
 2511 0042 BD46     		mov	sp, r7
 2512              	.LCFI109:
 2513              		.cfi_def_cfa_register 13
 2514              		@ sp needed
 2515 0044 80BD     		pop	{r7, pc}
 2516              	.L252:
 2517 0046 00BF     		.align	2
 2518              	.L251:
 2519 0048 34812142 		.word	1109492020
 2520              		.cfi_endproc
 2521              	.LFE53:
 2523              		.section	.text.SD8939_and_std,"ax",%progbits
 2524              		.align	1
 2525              		.global	SD8939_and_std
 2526              		.syntax unified
 2527              		.thumb
 2528              		.thumb_func
 2529              		.fpu softvfp
 2531              	SD8939_and_std:
 2532              	.LFB54:
 958:./Hardware/hardware/menu_data.c **** 
 959:./Hardware/hardware/menu_data.c **** void SD8939_and_std(void)
 960:./Hardware/hardware/menu_data.c **** {
 2533              		.loc 1 960 1
 2534              		.cfi_startproc
 2535              		@ args = 0, pretend = 0, frame = 8
 2536              		@ frame_needed = 1, uses_anonymous_args = 0
 2537 0000 80B5     		push	{r7, lr}
 2538              	.LCFI110:
 2539              		.cfi_def_cfa_offset 8
 2540              		.cfi_offset 7, -8
 2541              		.cfi_offset 14, -4
 2542 0002 82B0     		sub	sp, sp, #8
 2543              	.LCFI111:
 2544              		.cfi_def_cfa_offset 16
 2545 0004 00AF     		add	r7, sp, #0
 2546              	.LCFI112:
 2547              		.cfi_def_cfa_register 7
 961:./Hardware/hardware/menu_data.c **** 	uint8_t back_press_time = 0;
 2548              		.loc 1 961 10
 2549 0006 0023     		movs	r3, #0
 2550 0008 FB71     		strb	r3, [r7, #7]
 962:./Hardware/hardware/menu_data.c **** 	uint8_t enter_press_time = 0;
 2551              		.loc 1 962 10
 2552 000a 0023     		movs	r3, #0
 2553 000c BB71     		strb	r3, [r7, #6]
 2554              	.L262:
 963:./Hardware/hardware/menu_data.c **** 	
ARM GAS  C:\Users\86134\AppData\Local\Temp\ccuTN5uR.s 			page 63


 964:./Hardware/hardware/menu_data.c **** 	while(1)
 965:./Hardware/hardware/menu_data.c **** 	{
 966:./Hardware/hardware/menu_data.c **** 		sd8939_and_std();
 2555              		.loc 1 966 3
 2556 000e FFF7FEFF 		bl	sd8939_and_std
 967:./Hardware/hardware/menu_data.c **** 		OLED_Update();
 2557              		.loc 1 967 3
 2558 0012 FFF7FEFF 		bl	OLED_Update
 968:./Hardware/hardware/menu_data.c **** 		
 969:./Hardware/hardware/menu_data.c **** 		if(Key_back == 0)
 2559              		.loc 1 969 6
 2560 0016 194B     		ldr	r3, .L264
 2561 0018 1B68     		ldr	r3, [r3]
 2562              		.loc 1 969 5
 2563 001a 002B     		cmp	r3, #0
 2564 001c 0ED1     		bne	.L254
 970:./Hardware/hardware/menu_data.c **** 		{
 971:./Hardware/hardware/menu_data.c **** 			Delay_ms(10); // 消抖
 2565              		.loc 1 971 4
 2566 001e 0A20     		movs	r0, #10
 2567 0020 FFF7FEFF 		bl	Delay_ms
 972:./Hardware/hardware/menu_data.c **** 			back_press_time += 50; // 每次循环递增50ms
 2568              		.loc 1 972 20
 2569 0024 FB79     		ldrb	r3, [r7, #7]
 2570 0026 3233     		adds	r3, r3, #50
 2571 0028 FB71     		strb	r3, [r7, #7]
 973:./Hardware/hardware/menu_data.c **** 			if(back_press_time >= 100)
 2572              		.loc 1 973 6
 2573 002a FB79     		ldrb	r3, [r7, #7]	@ zero_extendqisi2
 2574 002c 632B     		cmp	r3, #99
 2575 002e 21D9     		bls	.L263
 974:./Hardware/hardware/menu_data.c **** 			{
 975:./Hardware/hardware/menu_data.c **** 				// 长按200ms，退出函数
 976:./Hardware/hardware/menu_data.c **** 				while(Key_back == 0); // 等待松手
 2576              		.loc 1 976 10
 2577 0030 00BF     		nop
 2578              	.L256:
 2579              		.loc 1 976 11 discriminator 1
 2580 0032 124B     		ldr	r3, .L264
 2581 0034 1B68     		ldr	r3, [r3]
 2582              		.loc 1 976 10 discriminator 1
 2583 0036 002B     		cmp	r3, #0
 2584 0038 FBD0     		beq	.L256
 977:./Hardware/hardware/menu_data.c **** 				break;
 2585              		.loc 1 977 5
 2586 003a 1CE0     		b	.L253
 2587              	.L254:
 978:./Hardware/hardware/menu_data.c **** 			}
 979:./Hardware/hardware/menu_data.c **** 			return;
 980:./Hardware/hardware/menu_data.c **** 		}
 981:./Hardware/hardware/menu_data.c **** 		else
 982:./Hardware/hardware/menu_data.c **** 		{
 983:./Hardware/hardware/menu_data.c **** 			back_press_time = 0; // 重置计时器
 2588              		.loc 1 983 20
 2589 003c 0023     		movs	r3, #0
 2590 003e FB71     		strb	r3, [r7, #7]
 984:./Hardware/hardware/menu_data.c **** 		}
ARM GAS  C:\Users\86134\AppData\Local\Temp\ccuTN5uR.s 			page 64


 985:./Hardware/hardware/menu_data.c **** 		
 986:./Hardware/hardware/menu_data.c **** 		if(Key_up == 0)
 2591              		.loc 1 986 6
 2592 0040 0F4B     		ldr	r3, .L264+4
 2593 0042 1B68     		ldr	r3, [r3]
 2594              		.loc 1 986 5
 2595 0044 002B     		cmp	r3, #0
 2596 0046 12D1     		bne	.L258
 987:./Hardware/hardware/menu_data.c **** 		{
 988:./Hardware/hardware/menu_data.c **** 			Delay_ms(10); // 消抖
 2597              		.loc 1 988 4
 2598 0048 0A20     		movs	r0, #10
 2599 004a FFF7FEFF 		bl	Delay_ms
 989:./Hardware/hardware/menu_data.c **** 			enter_press_time += 50; // 每次循环递增50ms
 2600              		.loc 1 989 21
 2601 004e BB79     		ldrb	r3, [r7, #6]
 2602 0050 3233     		adds	r3, r3, #50
 2603 0052 BB71     		strb	r3, [r7, #6]
 990:./Hardware/hardware/menu_data.c **** 			if(enter_press_time >= 100)
 2604              		.loc 1 990 6
 2605 0054 BB79     		ldrb	r3, [r7, #6]	@ zero_extendqisi2
 2606 0056 632B     		cmp	r3, #99
 2607 0058 D9D9     		bls	.L262
 991:./Hardware/hardware/menu_data.c **** 			{
 992:./Hardware/hardware/menu_data.c **** 				// 长按200ms，退出函数
 993:./Hardware/hardware/menu_data.c **** 				while(Key_up == 0) // 等待松手
 2608              		.loc 1 993 10
 2609 005a 03E0     		b	.L260
 2610              	.L261:
 994:./Hardware/hardware/menu_data.c **** 				{
 995:./Hardware/hardware/menu_data.c **** 					sd8939_time_copy();
 2611              		.loc 1 995 6
 2612 005c FFF7FEFF 		bl	sd8939_time_copy
 996:./Hardware/hardware/menu_data.c **** 					OLED_Update();
 2613              		.loc 1 996 6
 2614 0060 FFF7FEFF 		bl	OLED_Update
 2615              	.L260:
 993:./Hardware/hardware/menu_data.c **** 				{
 2616              		.loc 1 993 11
 2617 0064 064B     		ldr	r3, .L264+4
 2618 0066 1B68     		ldr	r3, [r3]
 993:./Hardware/hardware/menu_data.c **** 				{
 2619              		.loc 1 993 10
 2620 0068 002B     		cmp	r3, #0
 2621 006a F7D0     		beq	.L261
 2622 006c CFE7     		b	.L262
 2623              	.L258:
 997:./Hardware/hardware/menu_data.c **** 				}
 998:./Hardware/hardware/menu_data.c **** 			} 
 999:./Hardware/hardware/menu_data.c **** 		}
1000:./Hardware/hardware/menu_data.c **** 		else
1001:./Hardware/hardware/menu_data.c **** 		{
1002:./Hardware/hardware/menu_data.c **** 			enter_press_time = 0; // 重置计时器
 2624              		.loc 1 1002 21
 2625 006e 0023     		movs	r3, #0
 2626 0070 BB71     		strb	r3, [r7, #6]
 966:./Hardware/hardware/menu_data.c **** 		OLED_Update();
ARM GAS  C:\Users\86134\AppData\Local\Temp\ccuTN5uR.s 			page 65


 2627              		.loc 1 966 3
 2628 0072 CCE7     		b	.L262
 2629              	.L263:
 979:./Hardware/hardware/menu_data.c **** 		}
 2630              		.loc 1 979 4
 2631 0074 00BF     		nop
 2632              	.L253:
1003:./Hardware/hardware/menu_data.c **** 		}
1004:./Hardware/hardware/menu_data.c **** 
1005:./Hardware/hardware/menu_data.c **** 	}
1006:./Hardware/hardware/menu_data.c **** }
 2633              		.loc 1 1006 1
 2634 0076 0837     		adds	r7, r7, #8
 2635              	.LCFI113:
 2636              		.cfi_def_cfa_offset 8
 2637 0078 BD46     		mov	sp, r7
 2638              	.LCFI114:
 2639              		.cfi_def_cfa_register 13
 2640              		@ sp needed
 2641 007a 80BD     		pop	{r7, pc}
 2642              	.L265:
 2643              		.align	2
 2644              	.L264:
 2645 007c 34812142 		.word	1109492020
 2646 0080 30812142 		.word	1109492016
 2647              		.cfi_endproc
 2648              	.LFE54:
 2650              		.section	.text.SD8902_Series,"ax",%progbits
 2651              		.align	1
 2652              		.global	SD8902_Series
 2653              		.syntax unified
 2654              		.thumb
 2655              		.thumb_func
 2656              		.fpu softvfp
 2658              	SD8902_Series:
 2659              	.LFB55:
1007:./Hardware/hardware/menu_data.c **** 
1008:./Hardware/hardware/menu_data.c **** 
1009:./Hardware/hardware/menu_data.c **** void SD8902_Series(void)
1010:./Hardware/hardware/menu_data.c **** {
 2660              		.loc 1 1010 1
 2661              		.cfi_startproc
 2662              		@ args = 0, pretend = 0, frame = 8
 2663              		@ frame_needed = 1, uses_anonymous_args = 0
 2664 0000 80B5     		push	{r7, lr}
 2665              	.LCFI115:
 2666              		.cfi_def_cfa_offset 8
 2667              		.cfi_offset 7, -8
 2668              		.cfi_offset 14, -4
 2669 0002 82B0     		sub	sp, sp, #8
 2670              	.LCFI116:
 2671              		.cfi_def_cfa_offset 16
 2672 0004 00AF     		add	r7, sp, #0
 2673              	.LCFI117:
 2674              		.cfi_def_cfa_register 7
1011:./Hardware/hardware/menu_data.c **** 	uint8_t back_press_time = 0;
 2675              		.loc 1 1011 10
ARM GAS  C:\Users\86134\AppData\Local\Temp\ccuTN5uR.s 			page 66


 2676 0006 0023     		movs	r3, #0
 2677 0008 FB71     		strb	r3, [r7, #7]
 2678              	.L271:
1012:./Hardware/hardware/menu_data.c **** 	
1013:./Hardware/hardware/menu_data.c **** 	while(1)
1014:./Hardware/hardware/menu_data.c **** 	{
1015:./Hardware/hardware/menu_data.c **** 		sd8902_time_show();
 2679              		.loc 1 1015 3
 2680 000a FFF7FEFF 		bl	sd8902_time_show
1016:./Hardware/hardware/menu_data.c **** 		OLED_Update();
 2681              		.loc 1 1016 3
 2682 000e FFF7FEFF 		bl	OLED_Update
1017:./Hardware/hardware/menu_data.c **** 		if(Key_back == 0)
 2683              		.loc 1 1017 6
 2684 0012 0D4B     		ldr	r3, .L273
 2685 0014 1B68     		ldr	r3, [r3]
 2686              		.loc 1 1017 5
 2687 0016 002B     		cmp	r3, #0
 2688 0018 0ED1     		bne	.L267
1018:./Hardware/hardware/menu_data.c **** 		{
1019:./Hardware/hardware/menu_data.c **** 			Delay_ms(10); // 消抖
 2689              		.loc 1 1019 4
 2690 001a 0A20     		movs	r0, #10
 2691 001c FFF7FEFF 		bl	Delay_ms
1020:./Hardware/hardware/menu_data.c **** 			back_press_time += 50; // 每次循环递增50ms
 2692              		.loc 1 1020 20
 2693 0020 FB79     		ldrb	r3, [r7, #7]
 2694 0022 3233     		adds	r3, r3, #50
 2695 0024 FB71     		strb	r3, [r7, #7]
1021:./Hardware/hardware/menu_data.c **** 			if(back_press_time >= 100)
 2696              		.loc 1 1021 6
 2697 0026 FB79     		ldrb	r3, [r7, #7]	@ zero_extendqisi2
 2698 0028 632B     		cmp	r3, #99
 2699 002a 08D9     		bls	.L272
1022:./Hardware/hardware/menu_data.c **** 			{
1023:./Hardware/hardware/menu_data.c **** 				// 长按200ms，退出函数
1024:./Hardware/hardware/menu_data.c **** 				while(Key_back == 0); // 等待松手
 2700              		.loc 1 1024 10
 2701 002c 00BF     		nop
 2702              	.L269:
 2703              		.loc 1 1024 11 discriminator 1
 2704 002e 064B     		ldr	r3, .L273
 2705 0030 1B68     		ldr	r3, [r3]
 2706              		.loc 1 1024 10 discriminator 1
 2707 0032 002B     		cmp	r3, #0
 2708 0034 FBD0     		beq	.L269
1025:./Hardware/hardware/menu_data.c **** 				break;
 2709              		.loc 1 1025 5
 2710 0036 03E0     		b	.L266
 2711              	.L267:
1026:./Hardware/hardware/menu_data.c **** 			}
1027:./Hardware/hardware/menu_data.c **** 			return;
1028:./Hardware/hardware/menu_data.c **** 		}
1029:./Hardware/hardware/menu_data.c **** 		else
1030:./Hardware/hardware/menu_data.c **** 		{
1031:./Hardware/hardware/menu_data.c **** 			back_press_time = 0; // 重置计时器
 2712              		.loc 1 1031 20
ARM GAS  C:\Users\86134\AppData\Local\Temp\ccuTN5uR.s 			page 67


 2713 0038 0023     		movs	r3, #0
 2714 003a FB71     		strb	r3, [r7, #7]
1015:./Hardware/hardware/menu_data.c **** 		OLED_Update();
 2715              		.loc 1 1015 3
 2716 003c E5E7     		b	.L271
 2717              	.L272:
1027:./Hardware/hardware/menu_data.c **** 		}
 2718              		.loc 1 1027 4
 2719 003e 00BF     		nop
 2720              	.L266:
1032:./Hardware/hardware/menu_data.c **** 		}
1033:./Hardware/hardware/menu_data.c **** 	}
1034:./Hardware/hardware/menu_data.c **** }
 2721              		.loc 1 1034 1
 2722 0040 0837     		adds	r7, r7, #8
 2723              	.LCFI118:
 2724              		.cfi_def_cfa_offset 8
 2725 0042 BD46     		mov	sp, r7
 2726              	.LCFI119:
 2727              		.cfi_def_cfa_register 13
 2728              		@ sp needed
 2729 0044 80BD     		pop	{r7, pc}
 2730              	.L274:
 2731 0046 00BF     		.align	2
 2732              	.L273:
 2733 0048 34812142 		.word	1109492020
 2734              		.cfi_endproc
 2735              	.LFE55:
 2737              		.section	.text.SD8902_and_std,"ax",%progbits
 2738              		.align	1
 2739              		.global	SD8902_and_std
 2740              		.syntax unified
 2741              		.thumb
 2742              		.thumb_func
 2743              		.fpu softvfp
 2745              	SD8902_and_std:
 2746              	.LFB56:
1035:./Hardware/hardware/menu_data.c **** 
1036:./Hardware/hardware/menu_data.c **** void SD8902_and_std(void)
1037:./Hardware/hardware/menu_data.c **** {
 2747              		.loc 1 1037 1
 2748              		.cfi_startproc
 2749              		@ args = 0, pretend = 0, frame = 8
 2750              		@ frame_needed = 1, uses_anonymous_args = 0
 2751 0000 80B5     		push	{r7, lr}
 2752              	.LCFI120:
 2753              		.cfi_def_cfa_offset 8
 2754              		.cfi_offset 7, -8
 2755              		.cfi_offset 14, -4
 2756 0002 82B0     		sub	sp, sp, #8
 2757              	.LCFI121:
 2758              		.cfi_def_cfa_offset 16
 2759 0004 00AF     		add	r7, sp, #0
 2760              	.LCFI122:
 2761              		.cfi_def_cfa_register 7
1038:./Hardware/hardware/menu_data.c **** 	uint8_t back_press_time = 0;
 2762              		.loc 1 1038 10
ARM GAS  C:\Users\86134\AppData\Local\Temp\ccuTN5uR.s 			page 68


 2763 0006 0023     		movs	r3, #0
 2764 0008 FB71     		strb	r3, [r7, #7]
1039:./Hardware/hardware/menu_data.c **** 	uint8_t enter_press_time = 0;
 2765              		.loc 1 1039 10
 2766 000a 0023     		movs	r3, #0
 2767 000c BB71     		strb	r3, [r7, #6]
1040:./Hardware/hardware/menu_data.c **** 	uint8_t down_press_time = 0;
 2768              		.loc 1 1040 10
 2769 000e 0023     		movs	r3, #0
 2770 0010 7B71     		strb	r3, [r7, #5]
1041:./Hardware/hardware/menu_data.c **** 	uint8_t key_state = 0;
 2771              		.loc 1 1041 10
 2772 0012 0023     		movs	r3, #0
 2773 0014 3B71     		strb	r3, [r7, #4]
 2774              	.L288:
1042:./Hardware/hardware/menu_data.c **** 	
1043:./Hardware/hardware/menu_data.c **** 	while(1)
1044:./Hardware/hardware/menu_data.c **** 	{
1045:./Hardware/hardware/menu_data.c **** 		sd8902_and_std();
 2775              		.loc 1 1045 3
 2776 0016 FFF7FEFF 		bl	sd8902_and_std
1046:./Hardware/hardware/menu_data.c **** 		OLED_Update();
 2777              		.loc 1 1046 3
 2778 001a FFF7FEFF 		bl	OLED_Update
1047:./Hardware/hardware/menu_data.c **** 		
1048:./Hardware/hardware/menu_data.c **** 		if(Key_back == 0)
 2779              		.loc 1 1048 6
 2780 001e 284B     		ldr	r3, .L290
 2781 0020 1B68     		ldr	r3, [r3]
 2782              		.loc 1 1048 5
 2783 0022 002B     		cmp	r3, #0
 2784 0024 0ED1     		bne	.L276
1049:./Hardware/hardware/menu_data.c **** 		{
1050:./Hardware/hardware/menu_data.c **** 			Delay_ms(10); // 消抖
 2785              		.loc 1 1050 4
 2786 0026 0A20     		movs	r0, #10
 2787 0028 FFF7FEFF 		bl	Delay_ms
1051:./Hardware/hardware/menu_data.c **** 			back_press_time += 50; // 每次循环递增50ms
 2788              		.loc 1 1051 20
 2789 002c FB79     		ldrb	r3, [r7, #7]
 2790 002e 3233     		adds	r3, r3, #50
 2791 0030 FB71     		strb	r3, [r7, #7]
1052:./Hardware/hardware/menu_data.c **** 			if(back_press_time >= 100)
 2792              		.loc 1 1052 6
 2793 0032 FB79     		ldrb	r3, [r7, #7]	@ zero_extendqisi2
 2794 0034 632B     		cmp	r3, #99
 2795 0036 3FD9     		bls	.L289
1053:./Hardware/hardware/menu_data.c **** 			{
1054:./Hardware/hardware/menu_data.c **** 				// 长按200ms，退出函数
1055:./Hardware/hardware/menu_data.c **** 				while(Key_back == 0); // 等待松手
 2796              		.loc 1 1055 10
 2797 0038 00BF     		nop
 2798              	.L278:
 2799              		.loc 1 1055 11 discriminator 1
 2800 003a 214B     		ldr	r3, .L290
 2801 003c 1B68     		ldr	r3, [r3]
 2802              		.loc 1 1055 10 discriminator 1
ARM GAS  C:\Users\86134\AppData\Local\Temp\ccuTN5uR.s 			page 69


 2803 003e 002B     		cmp	r3, #0
 2804 0040 FBD0     		beq	.L278
1056:./Hardware/hardware/menu_data.c **** 				break;
 2805              		.loc 1 1056 5
 2806 0042 3AE0     		b	.L275
 2807              	.L276:
1057:./Hardware/hardware/menu_data.c **** 			}
1058:./Hardware/hardware/menu_data.c **** 			return;
1059:./Hardware/hardware/menu_data.c **** 		}
1060:./Hardware/hardware/menu_data.c **** 		else
1061:./Hardware/hardware/menu_data.c **** 		{
1062:./Hardware/hardware/menu_data.c **** 			back_press_time = 0; // 重置计时器
 2808              		.loc 1 1062 20
 2809 0044 0023     		movs	r3, #0
 2810 0046 FB71     		strb	r3, [r7, #7]
1063:./Hardware/hardware/menu_data.c **** 		}
1064:./Hardware/hardware/menu_data.c **** 		
1065:./Hardware/hardware/menu_data.c **** 		if(Key_up == 0)
 2811              		.loc 1 1065 6
 2812 0048 1E4B     		ldr	r3, .L290+4
 2813 004a 1B68     		ldr	r3, [r3]
 2814              		.loc 1 1065 5
 2815 004c 002B     		cmp	r3, #0
 2816 004e 12D1     		bne	.L280
1066:./Hardware/hardware/menu_data.c **** 		{
1067:./Hardware/hardware/menu_data.c **** 			Delay_ms(10); // 消抖
 2817              		.loc 1 1067 4
 2818 0050 0A20     		movs	r0, #10
 2819 0052 FFF7FEFF 		bl	Delay_ms
1068:./Hardware/hardware/menu_data.c **** 			enter_press_time += 50; // 每次循环递增50ms
 2820              		.loc 1 1068 21
 2821 0056 BB79     		ldrb	r3, [r7, #6]
 2822 0058 3233     		adds	r3, r3, #50
 2823 005a BB71     		strb	r3, [r7, #6]
1069:./Hardware/hardware/menu_data.c **** 			if(enter_press_time >= 100)
 2824              		.loc 1 1069 6
 2825 005c BB79     		ldrb	r3, [r7, #6]	@ zero_extendqisi2
 2826 005e 632B     		cmp	r3, #99
 2827 0060 0BD9     		bls	.L281
1070:./Hardware/hardware/menu_data.c **** 			{
1071:./Hardware/hardware/menu_data.c **** 				// 长按200ms，退出函数
1072:./Hardware/hardware/menu_data.c **** 				while(Key_up == 0) // 等待松手
 2828              		.loc 1 1072 10
 2829 0062 03E0     		b	.L282
 2830              	.L283:
1073:./Hardware/hardware/menu_data.c **** 				{
1074:./Hardware/hardware/menu_data.c **** 					sd8902_time_copy();
 2831              		.loc 1 1074 6
 2832 0064 FFF7FEFF 		bl	sd8902_time_copy
1075:./Hardware/hardware/menu_data.c **** 					OLED_Update();
 2833              		.loc 1 1075 6
 2834 0068 FFF7FEFF 		bl	OLED_Update
 2835              	.L282:
1072:./Hardware/hardware/menu_data.c **** 				{
 2836              		.loc 1 1072 11
 2837 006c 154B     		ldr	r3, .L290+4
 2838 006e 1B68     		ldr	r3, [r3]
ARM GAS  C:\Users\86134\AppData\Local\Temp\ccuTN5uR.s 			page 70


1072:./Hardware/hardware/menu_data.c **** 				{
 2839              		.loc 1 1072 10
 2840 0070 002B     		cmp	r3, #0
 2841 0072 F7D0     		beq	.L283
 2842 0074 01E0     		b	.L281
 2843              	.L280:
1076:./Hardware/hardware/menu_data.c **** 				}
1077:./Hardware/hardware/menu_data.c **** 			} 
1078:./Hardware/hardware/menu_data.c **** 		}
1079:./Hardware/hardware/menu_data.c **** 		else
1080:./Hardware/hardware/menu_data.c **** 		{
1081:./Hardware/hardware/menu_data.c **** 			enter_press_time = 0; // 重置计时器
 2844              		.loc 1 1081 21
 2845 0076 0023     		movs	r3, #0
 2846 0078 BB71     		strb	r3, [r7, #6]
 2847              	.L281:
1082:./Hardware/hardware/menu_data.c **** 		}
1083:./Hardware/hardware/menu_data.c **** /******************下按键************************/
1084:./Hardware/hardware/menu_data.c ****     if (Key_down == 0)
 2848              		.loc 1 1084 9
 2849 007a 134B     		ldr	r3, .L290+8
 2850 007c 1B68     		ldr	r3, [r3]
 2851              		.loc 1 1084 8
 2852 007e 002B     		cmp	r3, #0
 2853 0080 17D1     		bne	.L284
1085:./Hardware/hardware/menu_data.c **** 	{
1086:./Hardware/hardware/menu_data.c ****         Delay_ms(10); // 消抖
 2854              		.loc 1 1086 9
 2855 0082 0A20     		movs	r0, #10
 2856 0084 FFF7FEFF 		bl	Delay_ms
1087:./Hardware/hardware/menu_data.c ****         down_press_time += 50; // 每次循环递增50ms
 2857              		.loc 1 1087 25
 2858 0088 7B79     		ldrb	r3, [r7, #5]
 2859 008a 3233     		adds	r3, r3, #50
 2860 008c 7B71     		strb	r3, [r7, #5]
1088:./Hardware/hardware/menu_data.c ****         if (down_press_time >= 100)
 2861              		.loc 1 1088 12
 2862 008e 7B79     		ldrb	r3, [r7, #5]	@ zero_extendqisi2
 2863 0090 632B     		cmp	r3, #99
 2864 0092 C0D9     		bls	.L288
1089:./Hardware/hardware/menu_data.c **** 		{
1090:./Hardware/hardware/menu_data.c ****             if (key_state == 0) 
 2865              		.loc 1 1090 16
 2866 0094 3B79     		ldrb	r3, [r7, #4]	@ zero_extendqisi2
 2867 0096 002B     		cmp	r3, #0
 2868 0098 04D1     		bne	.L286
1091:./Hardware/hardware/menu_data.c **** 			{
1092:./Hardware/hardware/menu_data.c ****                 sd8902_charge_on(); // 执行sd3xxx_charge_on()函数
 2869              		.loc 1 1092 17
 2870 009a FFF7FEFF 		bl	sd8902_charge_on
1093:./Hardware/hardware/menu_data.c ****                 key_state = 1; // 更新按键状态为已按下
 2871              		.loc 1 1093 27
 2872 009e 0123     		movs	r3, #1
 2873 00a0 3B71     		strb	r3, [r7, #4]
 2874 00a2 03E0     		b	.L287
 2875              	.L286:
1094:./Hardware/hardware/menu_data.c ****             } else {
ARM GAS  C:\Users\86134\AppData\Local\Temp\ccuTN5uR.s 			page 71


1095:./Hardware/hardware/menu_data.c ****                 sd8902_charge_off(); // 执行sd3xxx_charge_off()函数
 2876              		.loc 1 1095 17
 2877 00a4 FFF7FEFF 		bl	sd8902_charge_off
1096:./Hardware/hardware/menu_data.c ****                 key_state = 0; // 更新按键状态为未按下
 2878              		.loc 1 1096 27
 2879 00a8 0023     		movs	r3, #0
 2880 00aa 3B71     		strb	r3, [r7, #4]
 2881              	.L287:
1097:./Hardware/hardware/menu_data.c ****             }
1098:./Hardware/hardware/menu_data.c ****             down_press_time = 0; // 重置计时器
 2882              		.loc 1 1098 29
 2883 00ac 0023     		movs	r3, #0
 2884 00ae 7B71     		strb	r3, [r7, #5]
 2885 00b0 B1E7     		b	.L288
 2886              	.L284:
1099:./Hardware/hardware/menu_data.c ****         }
1100:./Hardware/hardware/menu_data.c ****     } else {
1101:./Hardware/hardware/menu_data.c ****         down_press_time = 0; // 重置计时器
 2887              		.loc 1 1101 25
 2888 00b2 0023     		movs	r3, #0
 2889 00b4 7B71     		strb	r3, [r7, #5]
1045:./Hardware/hardware/menu_data.c **** 		OLED_Update();
 2890              		.loc 1 1045 3
 2891 00b6 AEE7     		b	.L288
 2892              	.L289:
1058:./Hardware/hardware/menu_data.c **** 		}
 2893              		.loc 1 1058 4
 2894 00b8 00BF     		nop
 2895              	.L275:
1102:./Hardware/hardware/menu_data.c **** 		
1103:./Hardware/hardware/menu_data.c **** 		}		
1104:./Hardware/hardware/menu_data.c **** 
1105:./Hardware/hardware/menu_data.c **** 	}
1106:./Hardware/hardware/menu_data.c **** }
 2896              		.loc 1 1106 1
 2897 00ba 0837     		adds	r7, r7, #8
 2898              	.LCFI123:
 2899              		.cfi_def_cfa_offset 8
 2900 00bc BD46     		mov	sp, r7
 2901              	.LCFI124:
 2902              		.cfi_def_cfa_register 13
 2903              		@ sp needed
 2904 00be 80BD     		pop	{r7, pc}
 2905              	.L291:
 2906              		.align	2
 2907              	.L290:
 2908 00c0 34812142 		.word	1109492020
 2909 00c4 30812142 		.word	1109492016
 2910 00c8 38812142 		.word	1109492024
 2911              		.cfi_endproc
 2912              	.LFE56:
 2914              		.section	.text.null,"ax",%progbits
 2915              		.align	1
 2916              		.global	null
 2917              		.syntax unified
 2918              		.thumb
 2919              		.thumb_func
ARM GAS  C:\Users\86134\AppData\Local\Temp\ccuTN5uR.s 			page 72


 2920              		.fpu softvfp
 2922              	null:
 2923              	.LFB57:
1107:./Hardware/hardware/menu_data.c **** 
1108:./Hardware/hardware/menu_data.c **** void null(void)
1109:./Hardware/hardware/menu_data.c **** {
 2924              		.loc 1 1109 1
 2925              		.cfi_startproc
 2926              		@ args = 0, pretend = 0, frame = 0
 2927              		@ frame_needed = 1, uses_anonymous_args = 0
 2928              		@ link register save eliminated.
 2929 0000 80B4     		push	{r7}
 2930              	.LCFI125:
 2931              		.cfi_def_cfa_offset 4
 2932              		.cfi_offset 7, -4
 2933 0002 00AF     		add	r7, sp, #0
 2934              	.LCFI126:
 2935              		.cfi_def_cfa_register 7
1110:./Hardware/hardware/menu_data.c **** 
1111:./Hardware/hardware/menu_data.c **** 
1112:./Hardware/hardware/menu_data.c **** }
 2936              		.loc 1 1112 1
 2937 0004 00BF     		nop
 2938 0006 BD46     		mov	sp, r7
 2939              	.LCFI127:
 2940              		.cfi_def_cfa_register 13
 2941              		@ sp needed
 2942 0008 80BC     		pop	{r7}
 2943              	.LCFI128:
 2944              		.cfi_restore 7
 2945              		.cfi_def_cfa_offset 0
 2946 000a 7047     		bx	lr
 2947              		.cfi_endproc
 2948              	.LFE57:
 2950              		.section	.text.f32768_8563_Out,"ax",%progbits
 2951              		.align	1
 2952              		.global	f32768_8563_Out
 2953              		.syntax unified
 2954              		.thumb
 2955              		.thumb_func
 2956              		.fpu softvfp
 2958              	f32768_8563_Out:
 2959              	.LFB58:
1113:./Hardware/hardware/menu_data.c **** 
1114:./Hardware/hardware/menu_data.c **** 
1115:./Hardware/hardware/menu_data.c **** 
1116:./Hardware/hardware/menu_data.c **** void f32768_8563_Out(void)
1117:./Hardware/hardware/menu_data.c **** {
 2960              		.loc 1 1117 1
 2961              		.cfi_startproc
 2962              		@ args = 0, pretend = 0, frame = 8
 2963              		@ frame_needed = 1, uses_anonymous_args = 0
 2964 0000 80B5     		push	{r7, lr}
 2965              	.LCFI129:
 2966              		.cfi_def_cfa_offset 8
 2967              		.cfi_offset 7, -8
 2968              		.cfi_offset 14, -4
ARM GAS  C:\Users\86134\AppData\Local\Temp\ccuTN5uR.s 			page 73


 2969 0002 82B0     		sub	sp, sp, #8
 2970              	.LCFI130:
 2971              		.cfi_def_cfa_offset 16
 2972 0004 00AF     		add	r7, sp, #0
 2973              	.LCFI131:
 2974              		.cfi_def_cfa_register 7
1118:./Hardware/hardware/menu_data.c **** 	uint8_t back_press_time = 0;
 2975              		.loc 1 1118 10
 2976 0006 0023     		movs	r3, #0
 2977 0008 FB71     		strb	r3, [r7, #7]
 2978              	.L298:
1119:./Hardware/hardware/menu_data.c **** 	
1120:./Hardware/hardware/menu_data.c **** 	while(1)
1121:./Hardware/hardware/menu_data.c **** 	{
1122:./Hardware/hardware/menu_data.c **** 		sd8563_f32768(IIC_TEST);
 2979              		.loc 1 1122 3
 2980 000a 0020     		movs	r0, #0
 2981 000c FFF7FEFF 		bl	sd8563_f32768
1123:./Hardware/hardware/menu_data.c **** 		OLED_Update();
 2982              		.loc 1 1123 3
 2983 0010 FFF7FEFF 		bl	OLED_Update
1124:./Hardware/hardware/menu_data.c **** 		if(Key_back == 0)
 2984              		.loc 1 1124 6
 2985 0014 0E4B     		ldr	r3, .L299
 2986 0016 1B68     		ldr	r3, [r3]
 2987              		.loc 1 1124 5
 2988 0018 002B     		cmp	r3, #0
 2989 001a 12D1     		bne	.L294
1125:./Hardware/hardware/menu_data.c **** 		{
1126:./Hardware/hardware/menu_data.c **** 			Delay_ms(10); // 消抖
 2990              		.loc 1 1126 4
 2991 001c 0A20     		movs	r0, #10
 2992 001e FFF7FEFF 		bl	Delay_ms
1127:./Hardware/hardware/menu_data.c **** 			back_press_time += 50; // 每次循环递增50ms
 2993              		.loc 1 1127 20
 2994 0022 FB79     		ldrb	r3, [r7, #7]
 2995 0024 3233     		adds	r3, r3, #50
 2996 0026 FB71     		strb	r3, [r7, #7]
1128:./Hardware/hardware/menu_data.c **** 			if(back_press_time >= 100)
 2997              		.loc 1 1128 6
 2998 0028 FB79     		ldrb	r3, [r7, #7]	@ zero_extendqisi2
 2999 002a 632B     		cmp	r3, #99
 3000 002c 05D9     		bls	.L295
1129:./Hardware/hardware/menu_data.c **** 			{
1130:./Hardware/hardware/menu_data.c **** 				// 长按200ms，退出函数
1131:./Hardware/hardware/menu_data.c **** 				while(Key_back == 0); // 等待松手
 3001              		.loc 1 1131 10
 3002 002e 00BF     		nop
 3003              	.L296:
 3004              		.loc 1 1131 11 discriminator 1
 3005 0030 074B     		ldr	r3, .L299
 3006 0032 1B68     		ldr	r3, [r3]
 3007              		.loc 1 1131 10 discriminator 1
 3008 0034 002B     		cmp	r3, #0
 3009 0036 FBD0     		beq	.L296
1132:./Hardware/hardware/menu_data.c **** 				break;
 3010              		.loc 1 1132 5
ARM GAS  C:\Users\86134\AppData\Local\Temp\ccuTN5uR.s 			page 74


 3011 0038 06E0     		b	.L293
 3012              	.L295:
1133:./Hardware/hardware/menu_data.c **** 			}
1134:./Hardware/hardware/menu_data.c **** 			sd8563_f32768_off(IIC_TEST);
 3013              		.loc 1 1134 4
 3014 003a 0020     		movs	r0, #0
 3015 003c FFF7FEFF 		bl	sd8563_f32768_off
1135:./Hardware/hardware/menu_data.c **** 			return;
 3016              		.loc 1 1135 4
 3017 0040 02E0     		b	.L293
 3018              	.L294:
1136:./Hardware/hardware/menu_data.c **** 		}
1137:./Hardware/hardware/menu_data.c **** 		else
1138:./Hardware/hardware/menu_data.c **** 		{
1139:./Hardware/hardware/menu_data.c **** 			back_press_time = 0; // 重置计时器
 3019              		.loc 1 1139 20
 3020 0042 0023     		movs	r3, #0
 3021 0044 FB71     		strb	r3, [r7, #7]
1122:./Hardware/hardware/menu_data.c **** 		OLED_Update();
 3022              		.loc 1 1122 3
 3023 0046 E0E7     		b	.L298
 3024              	.L293:
1140:./Hardware/hardware/menu_data.c **** 		}
1141:./Hardware/hardware/menu_data.c **** 	}
1142:./Hardware/hardware/menu_data.c **** 	
1143:./Hardware/hardware/menu_data.c **** }
 3025              		.loc 1 1143 1
 3026 0048 0837     		adds	r7, r7, #8
 3027              	.LCFI132:
 3028              		.cfi_def_cfa_offset 8
 3029 004a BD46     		mov	sp, r7
 3030              	.LCFI133:
 3031              		.cfi_def_cfa_register 13
 3032              		@ sp needed
 3033 004c 80BD     		pop	{r7, pc}
 3034              	.L300:
 3035 004e 00BF     		.align	2
 3036              	.L299:
 3037 0050 34812142 		.word	1109492020
 3038              		.cfi_endproc
 3039              	.LFE58:
 3041              		.section	.text.f1024_8563_Out,"ax",%progbits
 3042              		.align	1
 3043              		.global	f1024_8563_Out
 3044              		.syntax unified
 3045              		.thumb
 3046              		.thumb_func
 3047              		.fpu softvfp
 3049              	f1024_8563_Out:
 3050              	.LFB59:
1144:./Hardware/hardware/menu_data.c **** 
1145:./Hardware/hardware/menu_data.c **** void f1024_8563_Out(void)
1146:./Hardware/hardware/menu_data.c **** {
 3051              		.loc 1 1146 1
 3052              		.cfi_startproc
 3053              		@ args = 0, pretend = 0, frame = 8
 3054              		@ frame_needed = 1, uses_anonymous_args = 0
ARM GAS  C:\Users\86134\AppData\Local\Temp\ccuTN5uR.s 			page 75


 3055 0000 80B5     		push	{r7, lr}
 3056              	.LCFI134:
 3057              		.cfi_def_cfa_offset 8
 3058              		.cfi_offset 7, -8
 3059              		.cfi_offset 14, -4
 3060 0002 82B0     		sub	sp, sp, #8
 3061              	.LCFI135:
 3062              		.cfi_def_cfa_offset 16
 3063 0004 00AF     		add	r7, sp, #0
 3064              	.LCFI136:
 3065              		.cfi_def_cfa_register 7
1147:./Hardware/hardware/menu_data.c **** 	uint8_t back_press_time = 0;
 3066              		.loc 1 1147 10
 3067 0006 0023     		movs	r3, #0
 3068 0008 FB71     		strb	r3, [r7, #7]
 3069              	.L306:
1148:./Hardware/hardware/menu_data.c **** 	
1149:./Hardware/hardware/menu_data.c **** 	while(1)
1150:./Hardware/hardware/menu_data.c **** 	{
1151:./Hardware/hardware/menu_data.c **** 		sd8563_f1024(IIC_TEST);
 3070              		.loc 1 1151 3
 3071 000a 0020     		movs	r0, #0
 3072 000c FFF7FEFF 		bl	sd8563_f1024
1152:./Hardware/hardware/menu_data.c **** 		OLED_Update();
 3073              		.loc 1 1152 3
 3074 0010 FFF7FEFF 		bl	OLED_Update
1153:./Hardware/hardware/menu_data.c **** 		if(Key_back == 0)
 3075              		.loc 1 1153 6
 3076 0014 0E4B     		ldr	r3, .L307
 3077 0016 1B68     		ldr	r3, [r3]
 3078              		.loc 1 1153 5
 3079 0018 002B     		cmp	r3, #0
 3080 001a 12D1     		bne	.L302
1154:./Hardware/hardware/menu_data.c **** 		{
1155:./Hardware/hardware/menu_data.c **** 			Delay_ms(10); // 消抖
 3081              		.loc 1 1155 4
 3082 001c 0A20     		movs	r0, #10
 3083 001e FFF7FEFF 		bl	Delay_ms
1156:./Hardware/hardware/menu_data.c **** 			back_press_time += 50; // 每次循环递增50ms
 3084              		.loc 1 1156 20
 3085 0022 FB79     		ldrb	r3, [r7, #7]
 3086 0024 3233     		adds	r3, r3, #50
 3087 0026 FB71     		strb	r3, [r7, #7]
1157:./Hardware/hardware/menu_data.c **** 			if(back_press_time >= 100)
 3088              		.loc 1 1157 6
 3089 0028 FB79     		ldrb	r3, [r7, #7]	@ zero_extendqisi2
 3090 002a 632B     		cmp	r3, #99
 3091 002c 05D9     		bls	.L303
1158:./Hardware/hardware/menu_data.c **** 			{
1159:./Hardware/hardware/menu_data.c **** 				// 长按200ms，退出函数
1160:./Hardware/hardware/menu_data.c **** 				while(Key_back == 0); // 等待松手
 3092              		.loc 1 1160 10
 3093 002e 00BF     		nop
 3094              	.L304:
 3095              		.loc 1 1160 11 discriminator 1
 3096 0030 074B     		ldr	r3, .L307
 3097 0032 1B68     		ldr	r3, [r3]
ARM GAS  C:\Users\86134\AppData\Local\Temp\ccuTN5uR.s 			page 76


 3098              		.loc 1 1160 10 discriminator 1
 3099 0034 002B     		cmp	r3, #0
 3100 0036 FBD0     		beq	.L304
1161:./Hardware/hardware/menu_data.c **** 				break;
 3101              		.loc 1 1161 5
 3102 0038 06E0     		b	.L301
 3103              	.L303:
1162:./Hardware/hardware/menu_data.c **** 			}
1163:./Hardware/hardware/menu_data.c **** 			sd8563_f1024_off(IIC_TEST);
 3104              		.loc 1 1163 4
 3105 003a 0020     		movs	r0, #0
 3106 003c FFF7FEFF 		bl	sd8563_f1024_off
1164:./Hardware/hardware/menu_data.c **** 			return;
 3107              		.loc 1 1164 4
 3108 0040 02E0     		b	.L301
 3109              	.L302:
1165:./Hardware/hardware/menu_data.c **** 		}
1166:./Hardware/hardware/menu_data.c **** 		else
1167:./Hardware/hardware/menu_data.c **** 		{
1168:./Hardware/hardware/menu_data.c **** 			back_press_time = 0; // 重置计时器
 3110              		.loc 1 1168 20
 3111 0042 0023     		movs	r3, #0
 3112 0044 FB71     		strb	r3, [r7, #7]
1151:./Hardware/hardware/menu_data.c **** 		OLED_Update();
 3113              		.loc 1 1151 3
 3114 0046 E0E7     		b	.L306
 3115              	.L301:
1169:./Hardware/hardware/menu_data.c **** 		}
1170:./Hardware/hardware/menu_data.c **** 	}
1171:./Hardware/hardware/menu_data.c **** 
1172:./Hardware/hardware/menu_data.c **** }
 3116              		.loc 1 1172 1
 3117 0048 0837     		adds	r7, r7, #8
 3118              	.LCFI137:
 3119              		.cfi_def_cfa_offset 8
 3120 004a BD46     		mov	sp, r7
 3121              	.LCFI138:
 3122              		.cfi_def_cfa_register 13
 3123              		@ sp needed
 3124 004c 80BD     		pop	{r7, pc}
 3125              	.L308:
 3126 004e 00BF     		.align	2
 3127              	.L307:
 3128 0050 34812142 		.word	1109492020
 3129              		.cfi_endproc
 3130              	.LFE59:
 3132              		.section	.text.f32_8563_Out,"ax",%progbits
 3133              		.align	1
 3134              		.global	f32_8563_Out
 3135              		.syntax unified
 3136              		.thumb
 3137              		.thumb_func
 3138              		.fpu softvfp
 3140              	f32_8563_Out:
 3141              	.LFB60:
1173:./Hardware/hardware/menu_data.c **** 
1174:./Hardware/hardware/menu_data.c **** void f32_8563_Out(void)
ARM GAS  C:\Users\86134\AppData\Local\Temp\ccuTN5uR.s 			page 77


1175:./Hardware/hardware/menu_data.c **** {
 3142              		.loc 1 1175 1
 3143              		.cfi_startproc
 3144              		@ args = 0, pretend = 0, frame = 8
 3145              		@ frame_needed = 1, uses_anonymous_args = 0
 3146 0000 80B5     		push	{r7, lr}
 3147              	.LCFI139:
 3148              		.cfi_def_cfa_offset 8
 3149              		.cfi_offset 7, -8
 3150              		.cfi_offset 14, -4
 3151 0002 82B0     		sub	sp, sp, #8
 3152              	.LCFI140:
 3153              		.cfi_def_cfa_offset 16
 3154 0004 00AF     		add	r7, sp, #0
 3155              	.LCFI141:
 3156              		.cfi_def_cfa_register 7
1176:./Hardware/hardware/menu_data.c **** 	uint8_t back_press_time = 0;
 3157              		.loc 1 1176 10
 3158 0006 0023     		movs	r3, #0
 3159 0008 FB71     		strb	r3, [r7, #7]
 3160              	.L314:
1177:./Hardware/hardware/menu_data.c **** 	
1178:./Hardware/hardware/menu_data.c **** 	while(1)
1179:./Hardware/hardware/menu_data.c **** 	{
1180:./Hardware/hardware/menu_data.c **** 		sd8563_f32(IIC_TEST);
 3161              		.loc 1 1180 3
 3162 000a 0020     		movs	r0, #0
 3163 000c FFF7FEFF 		bl	sd8563_f32
1181:./Hardware/hardware/menu_data.c **** 		OLED_Update();
 3164              		.loc 1 1181 3
 3165 0010 FFF7FEFF 		bl	OLED_Update
1182:./Hardware/hardware/menu_data.c **** 		if(Key_back == 0)
 3166              		.loc 1 1182 6
 3167 0014 0E4B     		ldr	r3, .L315
 3168 0016 1B68     		ldr	r3, [r3]
 3169              		.loc 1 1182 5
 3170 0018 002B     		cmp	r3, #0
 3171 001a 12D1     		bne	.L310
1183:./Hardware/hardware/menu_data.c **** 		{
1184:./Hardware/hardware/menu_data.c **** 			Delay_ms(10); // 消抖
 3172              		.loc 1 1184 4
 3173 001c 0A20     		movs	r0, #10
 3174 001e FFF7FEFF 		bl	Delay_ms
1185:./Hardware/hardware/menu_data.c **** 			back_press_time += 50; // 每次循环递增50ms
 3175              		.loc 1 1185 20
 3176 0022 FB79     		ldrb	r3, [r7, #7]
 3177 0024 3233     		adds	r3, r3, #50
 3178 0026 FB71     		strb	r3, [r7, #7]
1186:./Hardware/hardware/menu_data.c **** 			if(back_press_time >= 100)
 3179              		.loc 1 1186 6
 3180 0028 FB79     		ldrb	r3, [r7, #7]	@ zero_extendqisi2
 3181 002a 632B     		cmp	r3, #99
 3182 002c 05D9     		bls	.L311
1187:./Hardware/hardware/menu_data.c **** 			{
1188:./Hardware/hardware/menu_data.c **** 				// 长按200ms，退出函数
1189:./Hardware/hardware/menu_data.c **** 				while(Key_back == 0); // 等待松手
 3183              		.loc 1 1189 10
ARM GAS  C:\Users\86134\AppData\Local\Temp\ccuTN5uR.s 			page 78


 3184 002e 00BF     		nop
 3185              	.L312:
 3186              		.loc 1 1189 11 discriminator 1
 3187 0030 074B     		ldr	r3, .L315
 3188 0032 1B68     		ldr	r3, [r3]
 3189              		.loc 1 1189 10 discriminator 1
 3190 0034 002B     		cmp	r3, #0
 3191 0036 FBD0     		beq	.L312
1190:./Hardware/hardware/menu_data.c **** 				break;
 3192              		.loc 1 1190 5
 3193 0038 06E0     		b	.L309
 3194              	.L311:
1191:./Hardware/hardware/menu_data.c **** 			}
1192:./Hardware/hardware/menu_data.c **** 			sd8563_f32_off(IIC_TEST);
 3195              		.loc 1 1192 4
 3196 003a 0020     		movs	r0, #0
 3197 003c FFF7FEFF 		bl	sd8563_f32_off
1193:./Hardware/hardware/menu_data.c **** 			return;
 3198              		.loc 1 1193 4
 3199 0040 02E0     		b	.L309
 3200              	.L310:
1194:./Hardware/hardware/menu_data.c **** 		}
1195:./Hardware/hardware/menu_data.c **** 		else
1196:./Hardware/hardware/menu_data.c **** 		{
1197:./Hardware/hardware/menu_data.c **** 			back_press_time = 0; // 重置计时器
 3201              		.loc 1 1197 20
 3202 0042 0023     		movs	r3, #0
 3203 0044 FB71     		strb	r3, [r7, #7]
1180:./Hardware/hardware/menu_data.c **** 		OLED_Update();
 3204              		.loc 1 1180 3
 3205 0046 E0E7     		b	.L314
 3206              	.L309:
1198:./Hardware/hardware/menu_data.c **** 		}
1199:./Hardware/hardware/menu_data.c **** 	}
1200:./Hardware/hardware/menu_data.c **** }
 3207              		.loc 1 1200 1
 3208 0048 0837     		adds	r7, r7, #8
 3209              	.LCFI142:
 3210              		.cfi_def_cfa_offset 8
 3211 004a BD46     		mov	sp, r7
 3212              	.LCFI143:
 3213              		.cfi_def_cfa_register 13
 3214              		@ sp needed
 3215 004c 80BD     		pop	{r7, pc}
 3216              	.L316:
 3217 004e 00BF     		.align	2
 3218              	.L315:
 3219 0050 34812142 		.word	1109492020
 3220              		.cfi_endproc
 3221              	.LFE60:
 3223              		.section	.text.f1_8563_Out,"ax",%progbits
 3224              		.align	1
 3225              		.global	f1_8563_Out
 3226              		.syntax unified
 3227              		.thumb
 3228              		.thumb_func
 3229              		.fpu softvfp
ARM GAS  C:\Users\86134\AppData\Local\Temp\ccuTN5uR.s 			page 79


 3231              	f1_8563_Out:
 3232              	.LFB61:
1201:./Hardware/hardware/menu_data.c **** 
1202:./Hardware/hardware/menu_data.c **** void f1_8563_Out(void)
1203:./Hardware/hardware/menu_data.c **** {
 3233              		.loc 1 1203 1
 3234              		.cfi_startproc
 3235              		@ args = 0, pretend = 0, frame = 8
 3236              		@ frame_needed = 1, uses_anonymous_args = 0
 3237 0000 80B5     		push	{r7, lr}
 3238              	.LCFI144:
 3239              		.cfi_def_cfa_offset 8
 3240              		.cfi_offset 7, -8
 3241              		.cfi_offset 14, -4
 3242 0002 82B0     		sub	sp, sp, #8
 3243              	.LCFI145:
 3244              		.cfi_def_cfa_offset 16
 3245 0004 00AF     		add	r7, sp, #0
 3246              	.LCFI146:
 3247              		.cfi_def_cfa_register 7
1204:./Hardware/hardware/menu_data.c **** 	uint8_t back_press_time = 0;
 3248              		.loc 1 1204 10
 3249 0006 0023     		movs	r3, #0
 3250 0008 FB71     		strb	r3, [r7, #7]
 3251              	.L322:
1205:./Hardware/hardware/menu_data.c **** 	
1206:./Hardware/hardware/menu_data.c **** 	while(1)
1207:./Hardware/hardware/menu_data.c **** 	{
1208:./Hardware/hardware/menu_data.c **** 		sd8563_f1(IIC_TEST);
 3252              		.loc 1 1208 3
 3253 000a 0020     		movs	r0, #0
 3254 000c FFF7FEFF 		bl	sd8563_f1
1209:./Hardware/hardware/menu_data.c **** 		OLED_Update();
 3255              		.loc 1 1209 3
 3256 0010 FFF7FEFF 		bl	OLED_Update
1210:./Hardware/hardware/menu_data.c **** 		if(Key_back == 0)
 3257              		.loc 1 1210 6
 3258 0014 0E4B     		ldr	r3, .L323
 3259 0016 1B68     		ldr	r3, [r3]
 3260              		.loc 1 1210 5
 3261 0018 002B     		cmp	r3, #0
 3262 001a 12D1     		bne	.L318
1211:./Hardware/hardware/menu_data.c **** 		{
1212:./Hardware/hardware/menu_data.c **** 			Delay_ms(10); // 消抖
 3263              		.loc 1 1212 4
 3264 001c 0A20     		movs	r0, #10
 3265 001e FFF7FEFF 		bl	Delay_ms
1213:./Hardware/hardware/menu_data.c **** 			back_press_time += 50; // 每次循环递增50ms
 3266              		.loc 1 1213 20
 3267 0022 FB79     		ldrb	r3, [r7, #7]
 3268 0024 3233     		adds	r3, r3, #50
 3269 0026 FB71     		strb	r3, [r7, #7]
1214:./Hardware/hardware/menu_data.c **** 			if(back_press_time >= 100)
 3270              		.loc 1 1214 6
 3271 0028 FB79     		ldrb	r3, [r7, #7]	@ zero_extendqisi2
 3272 002a 632B     		cmp	r3, #99
 3273 002c 05D9     		bls	.L319
ARM GAS  C:\Users\86134\AppData\Local\Temp\ccuTN5uR.s 			page 80


1215:./Hardware/hardware/menu_data.c **** 			{
1216:./Hardware/hardware/menu_data.c **** 				// 长按200ms，退出函数
1217:./Hardware/hardware/menu_data.c **** 				while(Key_back == 0); // 等待松手
 3274              		.loc 1 1217 10
 3275 002e 00BF     		nop
 3276              	.L320:
 3277              		.loc 1 1217 11 discriminator 1
 3278 0030 074B     		ldr	r3, .L323
 3279 0032 1B68     		ldr	r3, [r3]
 3280              		.loc 1 1217 10 discriminator 1
 3281 0034 002B     		cmp	r3, #0
 3282 0036 FBD0     		beq	.L320
1218:./Hardware/hardware/menu_data.c **** 				break;
 3283              		.loc 1 1218 5
 3284 0038 06E0     		b	.L317
 3285              	.L319:
1219:./Hardware/hardware/menu_data.c **** 			}
1220:./Hardware/hardware/menu_data.c **** 			sd8563_f1_off(IIC_TEST);
 3286              		.loc 1 1220 4
 3287 003a 0020     		movs	r0, #0
 3288 003c FFF7FEFF 		bl	sd8563_f1_off
1221:./Hardware/hardware/menu_data.c **** 			return;
 3289              		.loc 1 1221 4
 3290 0040 02E0     		b	.L317
 3291              	.L318:
1222:./Hardware/hardware/menu_data.c **** 		}
1223:./Hardware/hardware/menu_data.c **** 		else
1224:./Hardware/hardware/menu_data.c **** 		{
1225:./Hardware/hardware/menu_data.c **** 			back_press_time = 0; // 重置计时器
 3292              		.loc 1 1225 20
 3293 0042 0023     		movs	r3, #0
 3294 0044 FB71     		strb	r3, [r7, #7]
1208:./Hardware/hardware/menu_data.c **** 		OLED_Update();
 3295              		.loc 1 1208 3
 3296 0046 E0E7     		b	.L322
 3297              	.L317:
1226:./Hardware/hardware/menu_data.c **** 		}
1227:./Hardware/hardware/menu_data.c **** 	}
1228:./Hardware/hardware/menu_data.c **** }
 3298              		.loc 1 1228 1
 3299 0048 0837     		adds	r7, r7, #8
 3300              	.LCFI147:
 3301              		.cfi_def_cfa_offset 8
 3302 004a BD46     		mov	sp, r7
 3303              	.LCFI148:
 3304              		.cfi_def_cfa_register 13
 3305              		@ sp needed
 3306 004c 80BD     		pop	{r7, pc}
 3307              	.L324:
 3308 004e 00BF     		.align	2
 3309              	.L323:
 3310 0050 34812142 		.word	1109492020
 3311              		.cfi_endproc
 3312              	.LFE61:
 3314              		.section	.text.f32768_8939_Out,"ax",%progbits
 3315              		.align	1
 3316              		.global	f32768_8939_Out
ARM GAS  C:\Users\86134\AppData\Local\Temp\ccuTN5uR.s 			page 81


 3317              		.syntax unified
 3318              		.thumb
 3319              		.thumb_func
 3320              		.fpu softvfp
 3322              	f32768_8939_Out:
 3323              	.LFB62:
1229:./Hardware/hardware/menu_data.c **** 
1230:./Hardware/hardware/menu_data.c **** void f32768_8939_Out(void)
1231:./Hardware/hardware/menu_data.c **** {
 3324              		.loc 1 1231 1
 3325              		.cfi_startproc
 3326              		@ args = 0, pretend = 0, frame = 8
 3327              		@ frame_needed = 1, uses_anonymous_args = 0
 3328 0000 80B5     		push	{r7, lr}
 3329              	.LCFI149:
 3330              		.cfi_def_cfa_offset 8
 3331              		.cfi_offset 7, -8
 3332              		.cfi_offset 14, -4
 3333 0002 82B0     		sub	sp, sp, #8
 3334              	.LCFI150:
 3335              		.cfi_def_cfa_offset 16
 3336 0004 00AF     		add	r7, sp, #0
 3337              	.LCFI151:
 3338              		.cfi_def_cfa_register 7
1232:./Hardware/hardware/menu_data.c **** 	uint8_t back_press_time = 0;
 3339              		.loc 1 1232 10
 3340 0006 0023     		movs	r3, #0
 3341 0008 FB71     		strb	r3, [r7, #7]
 3342              	.L330:
1233:./Hardware/hardware/menu_data.c **** 	
1234:./Hardware/hardware/menu_data.c **** 	while(1)
1235:./Hardware/hardware/menu_data.c **** 	{
1236:./Hardware/hardware/menu_data.c **** 		sd8939_f32768(IIC_TEST);
 3343              		.loc 1 1236 3
 3344 000a 0020     		movs	r0, #0
 3345 000c FFF7FEFF 		bl	sd8939_f32768
1237:./Hardware/hardware/menu_data.c **** 		OLED_Update();
 3346              		.loc 1 1237 3
 3347 0010 FFF7FEFF 		bl	OLED_Update
1238:./Hardware/hardware/menu_data.c **** 		if(Key_back == 0)
 3348              		.loc 1 1238 6
 3349 0014 0E4B     		ldr	r3, .L331
 3350 0016 1B68     		ldr	r3, [r3]
 3351              		.loc 1 1238 5
 3352 0018 002B     		cmp	r3, #0
 3353 001a 12D1     		bne	.L326
1239:./Hardware/hardware/menu_data.c **** 		{
1240:./Hardware/hardware/menu_data.c **** 			Delay_ms(10); // 消抖
 3354              		.loc 1 1240 4
 3355 001c 0A20     		movs	r0, #10
 3356 001e FFF7FEFF 		bl	Delay_ms
1241:./Hardware/hardware/menu_data.c **** 			back_press_time += 50; // 每次循环递增50ms
 3357              		.loc 1 1241 20
 3358 0022 FB79     		ldrb	r3, [r7, #7]
 3359 0024 3233     		adds	r3, r3, #50
 3360 0026 FB71     		strb	r3, [r7, #7]
1242:./Hardware/hardware/menu_data.c **** 			if(back_press_time >= 100)
ARM GAS  C:\Users\86134\AppData\Local\Temp\ccuTN5uR.s 			page 82


 3361              		.loc 1 1242 6
 3362 0028 FB79     		ldrb	r3, [r7, #7]	@ zero_extendqisi2
 3363 002a 632B     		cmp	r3, #99
 3364 002c 05D9     		bls	.L327
1243:./Hardware/hardware/menu_data.c **** 			{
1244:./Hardware/hardware/menu_data.c **** 				// 长按200ms，退出函数
1245:./Hardware/hardware/menu_data.c **** 				while(Key_back == 0); // 等待松手
 3365              		.loc 1 1245 10
 3366 002e 00BF     		nop
 3367              	.L328:
 3368              		.loc 1 1245 11 discriminator 1
 3369 0030 074B     		ldr	r3, .L331
 3370 0032 1B68     		ldr	r3, [r3]
 3371              		.loc 1 1245 10 discriminator 1
 3372 0034 002B     		cmp	r3, #0
 3373 0036 FBD0     		beq	.L328
1246:./Hardware/hardware/menu_data.c **** 				break;
 3374              		.loc 1 1246 5
 3375 0038 06E0     		b	.L325
 3376              	.L327:
1247:./Hardware/hardware/menu_data.c **** 			}
1248:./Hardware/hardware/menu_data.c **** 			sd8939_f32768_off(IIC_TEST);
 3377              		.loc 1 1248 4
 3378 003a 0020     		movs	r0, #0
 3379 003c FFF7FEFF 		bl	sd8939_f32768_off
1249:./Hardware/hardware/menu_data.c **** 			return;
 3380              		.loc 1 1249 4
 3381 0040 02E0     		b	.L325
 3382              	.L326:
1250:./Hardware/hardware/menu_data.c **** 		}
1251:./Hardware/hardware/menu_data.c **** 		else
1252:./Hardware/hardware/menu_data.c **** 		{
1253:./Hardware/hardware/menu_data.c **** 			back_press_time = 0; // 重置计时器
 3383              		.loc 1 1253 20
 3384 0042 0023     		movs	r3, #0
 3385 0044 FB71     		strb	r3, [r7, #7]
1236:./Hardware/hardware/menu_data.c **** 		OLED_Update();
 3386              		.loc 1 1236 3
 3387 0046 E0E7     		b	.L330
 3388              	.L325:
1254:./Hardware/hardware/menu_data.c **** 		}
1255:./Hardware/hardware/menu_data.c **** 	}
1256:./Hardware/hardware/menu_data.c **** 
1257:./Hardware/hardware/menu_data.c **** }
 3389              		.loc 1 1257 1
 3390 0048 0837     		adds	r7, r7, #8
 3391              	.LCFI152:
 3392              		.cfi_def_cfa_offset 8
 3393 004a BD46     		mov	sp, r7
 3394              	.LCFI153:
 3395              		.cfi_def_cfa_register 13
 3396              		@ sp needed
 3397 004c 80BD     		pop	{r7, pc}
 3398              	.L332:
 3399 004e 00BF     		.align	2
 3400              	.L331:
 3401 0050 34812142 		.word	1109492020
ARM GAS  C:\Users\86134\AppData\Local\Temp\ccuTN5uR.s 			page 83


 3402              		.cfi_endproc
 3403              	.LFE62:
 3405              		.section	.text.f8192_8939_Out,"ax",%progbits
 3406              		.align	1
 3407              		.global	f8192_8939_Out
 3408              		.syntax unified
 3409              		.thumb
 3410              		.thumb_func
 3411              		.fpu softvfp
 3413              	f8192_8939_Out:
 3414              	.LFB63:
1258:./Hardware/hardware/menu_data.c **** 
1259:./Hardware/hardware/menu_data.c **** void f8192_8939_Out(void)
1260:./Hardware/hardware/menu_data.c **** {
 3415              		.loc 1 1260 1
 3416              		.cfi_startproc
 3417              		@ args = 0, pretend = 0, frame = 8
 3418              		@ frame_needed = 1, uses_anonymous_args = 0
 3419 0000 80B5     		push	{r7, lr}
 3420              	.LCFI154:
 3421              		.cfi_def_cfa_offset 8
 3422              		.cfi_offset 7, -8
 3423              		.cfi_offset 14, -4
 3424 0002 82B0     		sub	sp, sp, #8
 3425              	.LCFI155:
 3426              		.cfi_def_cfa_offset 16
 3427 0004 00AF     		add	r7, sp, #0
 3428              	.LCFI156:
 3429              		.cfi_def_cfa_register 7
1261:./Hardware/hardware/menu_data.c **** 	uint8_t back_press_time = 0;
 3430              		.loc 1 1261 10
 3431 0006 0023     		movs	r3, #0
 3432 0008 FB71     		strb	r3, [r7, #7]
 3433              	.L338:
1262:./Hardware/hardware/menu_data.c **** 	
1263:./Hardware/hardware/menu_data.c **** 	while(1)
1264:./Hardware/hardware/menu_data.c **** 	{
1265:./Hardware/hardware/menu_data.c **** 		sd8939_f8192(IIC_TEST);
 3434              		.loc 1 1265 3
 3435 000a 0020     		movs	r0, #0
 3436 000c FFF7FEFF 		bl	sd8939_f8192
1266:./Hardware/hardware/menu_data.c **** 		OLED_Update();
 3437              		.loc 1 1266 3
 3438 0010 FFF7FEFF 		bl	OLED_Update
1267:./Hardware/hardware/menu_data.c **** 		if(Key_back == 0)
 3439              		.loc 1 1267 6
 3440 0014 0E4B     		ldr	r3, .L339
 3441 0016 1B68     		ldr	r3, [r3]
 3442              		.loc 1 1267 5
 3443 0018 002B     		cmp	r3, #0
 3444 001a 12D1     		bne	.L334
1268:./Hardware/hardware/menu_data.c **** 		{
1269:./Hardware/hardware/menu_data.c **** 			Delay_ms(10); // 消抖
 3445              		.loc 1 1269 4
 3446 001c 0A20     		movs	r0, #10
 3447 001e FFF7FEFF 		bl	Delay_ms
1270:./Hardware/hardware/menu_data.c **** 			back_press_time += 50; // 每次循环递增50ms
ARM GAS  C:\Users\86134\AppData\Local\Temp\ccuTN5uR.s 			page 84


 3448              		.loc 1 1270 20
 3449 0022 FB79     		ldrb	r3, [r7, #7]
 3450 0024 3233     		adds	r3, r3, #50
 3451 0026 FB71     		strb	r3, [r7, #7]
1271:./Hardware/hardware/menu_data.c **** 			if(back_press_time >= 100)
 3452              		.loc 1 1271 6
 3453 0028 FB79     		ldrb	r3, [r7, #7]	@ zero_extendqisi2
 3454 002a 632B     		cmp	r3, #99
 3455 002c 05D9     		bls	.L335
1272:./Hardware/hardware/menu_data.c **** 			{
1273:./Hardware/hardware/menu_data.c **** 				// 长按200ms，退出函数
1274:./Hardware/hardware/menu_data.c **** 				while(Key_back == 0); // 等待松手
 3456              		.loc 1 1274 10
 3457 002e 00BF     		nop
 3458              	.L336:
 3459              		.loc 1 1274 11 discriminator 1
 3460 0030 074B     		ldr	r3, .L339
 3461 0032 1B68     		ldr	r3, [r3]
 3462              		.loc 1 1274 10 discriminator 1
 3463 0034 002B     		cmp	r3, #0
 3464 0036 FBD0     		beq	.L336
1275:./Hardware/hardware/menu_data.c **** 				break;
 3465              		.loc 1 1275 5
 3466 0038 06E0     		b	.L333
 3467              	.L335:
1276:./Hardware/hardware/menu_data.c **** 			}
1277:./Hardware/hardware/menu_data.c **** 			sd8939_f8192_off(IIC_TEST);
 3468              		.loc 1 1277 4
 3469 003a 0020     		movs	r0, #0
 3470 003c FFF7FEFF 		bl	sd8939_f8192_off
1278:./Hardware/hardware/menu_data.c **** 			return;
 3471              		.loc 1 1278 4
 3472 0040 02E0     		b	.L333
 3473              	.L334:
1279:./Hardware/hardware/menu_data.c **** 		}
1280:./Hardware/hardware/menu_data.c **** 		else
1281:./Hardware/hardware/menu_data.c **** 		{
1282:./Hardware/hardware/menu_data.c **** 			back_press_time = 0; // 重置计时器
 3474              		.loc 1 1282 20
 3475 0042 0023     		movs	r3, #0
 3476 0044 FB71     		strb	r3, [r7, #7]
1265:./Hardware/hardware/menu_data.c **** 		OLED_Update();
 3477              		.loc 1 1265 3
 3478 0046 E0E7     		b	.L338
 3479              	.L333:
1283:./Hardware/hardware/menu_data.c **** 		}
1284:./Hardware/hardware/menu_data.c **** 	}
1285:./Hardware/hardware/menu_data.c **** 
1286:./Hardware/hardware/menu_data.c **** }
 3480              		.loc 1 1286 1
 3481 0048 0837     		adds	r7, r7, #8
 3482              	.LCFI157:
 3483              		.cfi_def_cfa_offset 8
 3484 004a BD46     		mov	sp, r7
 3485              	.LCFI158:
 3486              		.cfi_def_cfa_register 13
 3487              		@ sp needed
ARM GAS  C:\Users\86134\AppData\Local\Temp\ccuTN5uR.s 			page 85


 3488 004c 80BD     		pop	{r7, pc}
 3489              	.L340:
 3490 004e 00BF     		.align	2
 3491              	.L339:
 3492 0050 34812142 		.word	1109492020
 3493              		.cfi_endproc
 3494              	.LFE63:
 3496              		.section	.text.f4096_8939_Out,"ax",%progbits
 3497              		.align	1
 3498              		.global	f4096_8939_Out
 3499              		.syntax unified
 3500              		.thumb
 3501              		.thumb_func
 3502              		.fpu softvfp
 3504              	f4096_8939_Out:
 3505              	.LFB64:
1287:./Hardware/hardware/menu_data.c **** 
1288:./Hardware/hardware/menu_data.c **** void f4096_8939_Out(void)
1289:./Hardware/hardware/menu_data.c **** {
 3506              		.loc 1 1289 1
 3507              		.cfi_startproc
 3508              		@ args = 0, pretend = 0, frame = 8
 3509              		@ frame_needed = 1, uses_anonymous_args = 0
 3510 0000 80B5     		push	{r7, lr}
 3511              	.LCFI159:
 3512              		.cfi_def_cfa_offset 8
 3513              		.cfi_offset 7, -8
 3514              		.cfi_offset 14, -4
 3515 0002 82B0     		sub	sp, sp, #8
 3516              	.LCFI160:
 3517              		.cfi_def_cfa_offset 16
 3518 0004 00AF     		add	r7, sp, #0
 3519              	.LCFI161:
 3520              		.cfi_def_cfa_register 7
1290:./Hardware/hardware/menu_data.c **** 	uint8_t back_press_time = 0;
 3521              		.loc 1 1290 10
 3522 0006 0023     		movs	r3, #0
 3523 0008 FB71     		strb	r3, [r7, #7]
 3524              	.L346:
1291:./Hardware/hardware/menu_data.c **** 	
1292:./Hardware/hardware/menu_data.c **** 	while(1)
1293:./Hardware/hardware/menu_data.c **** 	{
1294:./Hardware/hardware/menu_data.c **** 		sd8939_f4096(IIC_TEST);
 3525              		.loc 1 1294 3
 3526 000a 0020     		movs	r0, #0
 3527 000c FFF7FEFF 		bl	sd8939_f4096
1295:./Hardware/hardware/menu_data.c **** 		OLED_Update();
 3528              		.loc 1 1295 3
 3529 0010 FFF7FEFF 		bl	OLED_Update
1296:./Hardware/hardware/menu_data.c **** 		if(Key_back == 0)
 3530              		.loc 1 1296 6
 3531 0014 0E4B     		ldr	r3, .L347
 3532 0016 1B68     		ldr	r3, [r3]
 3533              		.loc 1 1296 5
 3534 0018 002B     		cmp	r3, #0
 3535 001a 12D1     		bne	.L342
1297:./Hardware/hardware/menu_data.c **** 		{
ARM GAS  C:\Users\86134\AppData\Local\Temp\ccuTN5uR.s 			page 86


1298:./Hardware/hardware/menu_data.c **** 			Delay_ms(10); // 消抖
 3536              		.loc 1 1298 4
 3537 001c 0A20     		movs	r0, #10
 3538 001e FFF7FEFF 		bl	Delay_ms
1299:./Hardware/hardware/menu_data.c **** 			back_press_time += 50; // 每次循环递增50ms
 3539              		.loc 1 1299 20
 3540 0022 FB79     		ldrb	r3, [r7, #7]
 3541 0024 3233     		adds	r3, r3, #50
 3542 0026 FB71     		strb	r3, [r7, #7]
1300:./Hardware/hardware/menu_data.c **** 			if(back_press_time >= 100)
 3543              		.loc 1 1300 6
 3544 0028 FB79     		ldrb	r3, [r7, #7]	@ zero_extendqisi2
 3545 002a 632B     		cmp	r3, #99
 3546 002c 05D9     		bls	.L343
1301:./Hardware/hardware/menu_data.c **** 			{
1302:./Hardware/hardware/menu_data.c **** 				// 长按200ms，退出函数
1303:./Hardware/hardware/menu_data.c **** 				while(Key_back == 0); // 等待松手
 3547              		.loc 1 1303 10
 3548 002e 00BF     		nop
 3549              	.L344:
 3550              		.loc 1 1303 11 discriminator 1
 3551 0030 074B     		ldr	r3, .L347
 3552 0032 1B68     		ldr	r3, [r3]
 3553              		.loc 1 1303 10 discriminator 1
 3554 0034 002B     		cmp	r3, #0
 3555 0036 FBD0     		beq	.L344
1304:./Hardware/hardware/menu_data.c **** 				break;
 3556              		.loc 1 1304 5
 3557 0038 06E0     		b	.L341
 3558              	.L343:
1305:./Hardware/hardware/menu_data.c **** 			}
1306:./Hardware/hardware/menu_data.c **** 			sd8939_f4096_off(IIC_TEST);
 3559              		.loc 1 1306 4
 3560 003a 0020     		movs	r0, #0
 3561 003c FFF7FEFF 		bl	sd8939_f4096_off
1307:./Hardware/hardware/menu_data.c **** 			return;
 3562              		.loc 1 1307 4
 3563 0040 02E0     		b	.L341
 3564              	.L342:
1308:./Hardware/hardware/menu_data.c **** 		}
1309:./Hardware/hardware/menu_data.c **** 		else
1310:./Hardware/hardware/menu_data.c **** 		{
1311:./Hardware/hardware/menu_data.c **** 			back_press_time = 0; // 重置计时器
 3565              		.loc 1 1311 20
 3566 0042 0023     		movs	r3, #0
 3567 0044 FB71     		strb	r3, [r7, #7]
1294:./Hardware/hardware/menu_data.c **** 		OLED_Update();
 3568              		.loc 1 1294 3
 3569 0046 E0E7     		b	.L346
 3570              	.L341:
1312:./Hardware/hardware/menu_data.c **** 		}
1313:./Hardware/hardware/menu_data.c **** 	}
1314:./Hardware/hardware/menu_data.c **** 
1315:./Hardware/hardware/menu_data.c **** }
 3571              		.loc 1 1315 1
 3572 0048 0837     		adds	r7, r7, #8
 3573              	.LCFI162:
ARM GAS  C:\Users\86134\AppData\Local\Temp\ccuTN5uR.s 			page 87


 3574              		.cfi_def_cfa_offset 8
 3575 004a BD46     		mov	sp, r7
 3576              	.LCFI163:
 3577              		.cfi_def_cfa_register 13
 3578              		@ sp needed
 3579 004c 80BD     		pop	{r7, pc}
 3580              	.L348:
 3581 004e 00BF     		.align	2
 3582              	.L347:
 3583 0050 34812142 		.word	1109492020
 3584              		.cfi_endproc
 3585              	.LFE64:
 3587              		.section	.text.f1_8939_Out,"ax",%progbits
 3588              		.align	1
 3589              		.global	f1_8939_Out
 3590              		.syntax unified
 3591              		.thumb
 3592              		.thumb_func
 3593              		.fpu softvfp
 3595              	f1_8939_Out:
 3596              	.LFB65:
1316:./Hardware/hardware/menu_data.c **** 
1317:./Hardware/hardware/menu_data.c **** void f1_8939_Out(void)
1318:./Hardware/hardware/menu_data.c **** {
 3597              		.loc 1 1318 1
 3598              		.cfi_startproc
 3599              		@ args = 0, pretend = 0, frame = 8
 3600              		@ frame_needed = 1, uses_anonymous_args = 0
 3601 0000 80B5     		push	{r7, lr}
 3602              	.LCFI164:
 3603              		.cfi_def_cfa_offset 8
 3604              		.cfi_offset 7, -8
 3605              		.cfi_offset 14, -4
 3606 0002 82B0     		sub	sp, sp, #8
 3607              	.LCFI165:
 3608              		.cfi_def_cfa_offset 16
 3609 0004 00AF     		add	r7, sp, #0
 3610              	.LCFI166:
 3611              		.cfi_def_cfa_register 7
1319:./Hardware/hardware/menu_data.c **** 	uint8_t back_press_time = 0;
 3612              		.loc 1 1319 10
 3613 0006 0023     		movs	r3, #0
 3614 0008 FB71     		strb	r3, [r7, #7]
 3615              	.L354:
1320:./Hardware/hardware/menu_data.c **** 	
1321:./Hardware/hardware/menu_data.c **** 	while(1)
1322:./Hardware/hardware/menu_data.c **** 	{
1323:./Hardware/hardware/menu_data.c **** 		sd8939_f1(IIC_TEST);
 3616              		.loc 1 1323 3
 3617 000a 0020     		movs	r0, #0
 3618 000c FFF7FEFF 		bl	sd8939_f1
1324:./Hardware/hardware/menu_data.c **** 		OLED_Update();
 3619              		.loc 1 1324 3
 3620 0010 FFF7FEFF 		bl	OLED_Update
1325:./Hardware/hardware/menu_data.c **** 		if(Key_back == 0)
 3621              		.loc 1 1325 6
 3622 0014 0E4B     		ldr	r3, .L355
ARM GAS  C:\Users\86134\AppData\Local\Temp\ccuTN5uR.s 			page 88


 3623 0016 1B68     		ldr	r3, [r3]
 3624              		.loc 1 1325 5
 3625 0018 002B     		cmp	r3, #0
 3626 001a 12D1     		bne	.L350
1326:./Hardware/hardware/menu_data.c **** 		{
1327:./Hardware/hardware/menu_data.c **** 			Delay_ms(10); // 消抖
 3627              		.loc 1 1327 4
 3628 001c 0A20     		movs	r0, #10
 3629 001e FFF7FEFF 		bl	Delay_ms
1328:./Hardware/hardware/menu_data.c **** 			back_press_time += 50; // 每次循环递增50ms
 3630              		.loc 1 1328 20
 3631 0022 FB79     		ldrb	r3, [r7, #7]
 3632 0024 3233     		adds	r3, r3, #50
 3633 0026 FB71     		strb	r3, [r7, #7]
1329:./Hardware/hardware/menu_data.c **** 			if(back_press_time >= 100)
 3634              		.loc 1 1329 6
 3635 0028 FB79     		ldrb	r3, [r7, #7]	@ zero_extendqisi2
 3636 002a 632B     		cmp	r3, #99
 3637 002c 05D9     		bls	.L351
1330:./Hardware/hardware/menu_data.c **** 			{
1331:./Hardware/hardware/menu_data.c **** 				// 长按200ms，退出函数
1332:./Hardware/hardware/menu_data.c **** 				while(Key_back == 0); // 等待松手
 3638              		.loc 1 1332 10
 3639 002e 00BF     		nop
 3640              	.L352:
 3641              		.loc 1 1332 11 discriminator 1
 3642 0030 074B     		ldr	r3, .L355
 3643 0032 1B68     		ldr	r3, [r3]
 3644              		.loc 1 1332 10 discriminator 1
 3645 0034 002B     		cmp	r3, #0
 3646 0036 FBD0     		beq	.L352
1333:./Hardware/hardware/menu_data.c **** 				break;
 3647              		.loc 1 1333 5
 3648 0038 06E0     		b	.L349
 3649              	.L351:
1334:./Hardware/hardware/menu_data.c **** 			}
1335:./Hardware/hardware/menu_data.c **** 			sd8939_f1_off(IIC_TEST);
 3650              		.loc 1 1335 4
 3651 003a 0020     		movs	r0, #0
 3652 003c FFF7FEFF 		bl	sd8939_f1_off
1336:./Hardware/hardware/menu_data.c **** 			return;
 3653              		.loc 1 1336 4
 3654 0040 02E0     		b	.L349
 3655              	.L350:
1337:./Hardware/hardware/menu_data.c **** 		}
1338:./Hardware/hardware/menu_data.c **** 		else
1339:./Hardware/hardware/menu_data.c **** 		{
1340:./Hardware/hardware/menu_data.c **** 			back_press_time = 0; // 重置计时器
 3656              		.loc 1 1340 20
 3657 0042 0023     		movs	r3, #0
 3658 0044 FB71     		strb	r3, [r7, #7]
1323:./Hardware/hardware/menu_data.c **** 		OLED_Update();
 3659              		.loc 1 1323 3
 3660 0046 E0E7     		b	.L354
 3661              	.L349:
1341:./Hardware/hardware/menu_data.c **** 		}
1342:./Hardware/hardware/menu_data.c **** 	}
ARM GAS  C:\Users\86134\AppData\Local\Temp\ccuTN5uR.s 			page 89


1343:./Hardware/hardware/menu_data.c **** 
1344:./Hardware/hardware/menu_data.c **** }
 3662              		.loc 1 1344 1
 3663 0048 0837     		adds	r7, r7, #8
 3664              	.LCFI167:
 3665              		.cfi_def_cfa_offset 8
 3666 004a BD46     		mov	sp, r7
 3667              	.LCFI168:
 3668              		.cfi_def_cfa_register 13
 3669              		@ sp needed
 3670 004c 80BD     		pop	{r7, pc}
 3671              	.L356:
 3672 004e 00BF     		.align	2
 3673              	.L355:
 3674 0050 34812142 		.word	1109492020
 3675              		.cfi_endproc
 3676              	.LFE65:
 3678              		.section	.text.f32768_8825_Out,"ax",%progbits
 3679              		.align	1
 3680              		.global	f32768_8825_Out
 3681              		.syntax unified
 3682              		.thumb
 3683              		.thumb_func
 3684              		.fpu softvfp
 3686              	f32768_8825_Out:
 3687              	.LFB66:
1345:./Hardware/hardware/menu_data.c **** 
1346:./Hardware/hardware/menu_data.c **** void f32768_8825_Out(void)
1347:./Hardware/hardware/menu_data.c **** {
 3688              		.loc 1 1347 1
 3689              		.cfi_startproc
 3690              		@ args = 0, pretend = 0, frame = 8
 3691              		@ frame_needed = 1, uses_anonymous_args = 0
 3692 0000 80B5     		push	{r7, lr}
 3693              	.LCFI169:
 3694              		.cfi_def_cfa_offset 8
 3695              		.cfi_offset 7, -8
 3696              		.cfi_offset 14, -4
 3697 0002 82B0     		sub	sp, sp, #8
 3698              	.LCFI170:
 3699              		.cfi_def_cfa_offset 16
 3700 0004 00AF     		add	r7, sp, #0
 3701              	.LCFI171:
 3702              		.cfi_def_cfa_register 7
1348:./Hardware/hardware/menu_data.c **** 	uint8_t back_press_time = 0;
 3703              		.loc 1 1348 10
 3704 0006 0023     		movs	r3, #0
 3705 0008 FB71     		strb	r3, [r7, #7]
 3706              	.L362:
1349:./Hardware/hardware/menu_data.c **** 	
1350:./Hardware/hardware/menu_data.c **** 	while(1)
1351:./Hardware/hardware/menu_data.c **** 	{
1352:./Hardware/hardware/menu_data.c **** 		sd8825_f32768(IIC_TEST);
 3707              		.loc 1 1352 3
 3708 000a 0020     		movs	r0, #0
 3709 000c FFF7FEFF 		bl	sd8825_f32768
1353:./Hardware/hardware/menu_data.c **** 		OLED_Update();
ARM GAS  C:\Users\86134\AppData\Local\Temp\ccuTN5uR.s 			page 90


 3710              		.loc 1 1353 3
 3711 0010 FFF7FEFF 		bl	OLED_Update
1354:./Hardware/hardware/menu_data.c **** 		if(Key_back == 0)
 3712              		.loc 1 1354 6
 3713 0014 0E4B     		ldr	r3, .L363
 3714 0016 1B68     		ldr	r3, [r3]
 3715              		.loc 1 1354 5
 3716 0018 002B     		cmp	r3, #0
 3717 001a 12D1     		bne	.L358
1355:./Hardware/hardware/menu_data.c **** 		{
1356:./Hardware/hardware/menu_data.c **** 			Delay_ms(10); // 消抖
 3718              		.loc 1 1356 4
 3719 001c 0A20     		movs	r0, #10
 3720 001e FFF7FEFF 		bl	Delay_ms
1357:./Hardware/hardware/menu_data.c **** 			back_press_time += 50; // 每次循环递增50ms
 3721              		.loc 1 1357 20
 3722 0022 FB79     		ldrb	r3, [r7, #7]
 3723 0024 3233     		adds	r3, r3, #50
 3724 0026 FB71     		strb	r3, [r7, #7]
1358:./Hardware/hardware/menu_data.c **** 			if(back_press_time >= 100)
 3725              		.loc 1 1358 6
 3726 0028 FB79     		ldrb	r3, [r7, #7]	@ zero_extendqisi2
 3727 002a 632B     		cmp	r3, #99
 3728 002c 05D9     		bls	.L359
1359:./Hardware/hardware/menu_data.c **** 			{
1360:./Hardware/hardware/menu_data.c **** 				// 长按200ms，退出函数
1361:./Hardware/hardware/menu_data.c **** 				while(Key_back == 0); // 等待松手
 3729              		.loc 1 1361 10
 3730 002e 00BF     		nop
 3731              	.L360:
 3732              		.loc 1 1361 11 discriminator 1
 3733 0030 074B     		ldr	r3, .L363
 3734 0032 1B68     		ldr	r3, [r3]
 3735              		.loc 1 1361 10 discriminator 1
 3736 0034 002B     		cmp	r3, #0
 3737 0036 FBD0     		beq	.L360
1362:./Hardware/hardware/menu_data.c **** 				break;
 3738              		.loc 1 1362 5
 3739 0038 06E0     		b	.L357
 3740              	.L359:
1363:./Hardware/hardware/menu_data.c **** 			}
1364:./Hardware/hardware/menu_data.c **** 			sd8825_f32768_off(IIC_TEST);
 3741              		.loc 1 1364 4
 3742 003a 0020     		movs	r0, #0
 3743 003c FFF7FEFF 		bl	sd8825_f32768_off
1365:./Hardware/hardware/menu_data.c **** 			return;
 3744              		.loc 1 1365 4
 3745 0040 02E0     		b	.L357
 3746              	.L358:
1366:./Hardware/hardware/menu_data.c **** 		}
1367:./Hardware/hardware/menu_data.c **** 		else
1368:./Hardware/hardware/menu_data.c **** 		{
1369:./Hardware/hardware/menu_data.c **** 			back_press_time = 0; // 重置计时器
 3747              		.loc 1 1369 20
 3748 0042 0023     		movs	r3, #0
 3749 0044 FB71     		strb	r3, [r7, #7]
1352:./Hardware/hardware/menu_data.c **** 		OLED_Update();
ARM GAS  C:\Users\86134\AppData\Local\Temp\ccuTN5uR.s 			page 91


 3750              		.loc 1 1352 3
 3751 0046 E0E7     		b	.L362
 3752              	.L357:
1370:./Hardware/hardware/menu_data.c **** 		}
1371:./Hardware/hardware/menu_data.c **** 	}
1372:./Hardware/hardware/menu_data.c **** }
 3753              		.loc 1 1372 1
 3754 0048 0837     		adds	r7, r7, #8
 3755              	.LCFI172:
 3756              		.cfi_def_cfa_offset 8
 3757 004a BD46     		mov	sp, r7
 3758              	.LCFI173:
 3759              		.cfi_def_cfa_register 13
 3760              		@ sp needed
 3761 004c 80BD     		pop	{r7, pc}
 3762              	.L364:
 3763 004e 00BF     		.align	2
 3764              	.L363:
 3765 0050 34812142 		.word	1109492020
 3766              		.cfi_endproc
 3767              	.LFE66:
 3769              		.section	.text.f1024_8825_Out,"ax",%progbits
 3770              		.align	1
 3771              		.global	f1024_8825_Out
 3772              		.syntax unified
 3773              		.thumb
 3774              		.thumb_func
 3775              		.fpu softvfp
 3777              	f1024_8825_Out:
 3778              	.LFB67:
1373:./Hardware/hardware/menu_data.c **** 
1374:./Hardware/hardware/menu_data.c **** void f1024_8825_Out(void)
1375:./Hardware/hardware/menu_data.c **** {
 3779              		.loc 1 1375 1
 3780              		.cfi_startproc
 3781              		@ args = 0, pretend = 0, frame = 8
 3782              		@ frame_needed = 1, uses_anonymous_args = 0
 3783 0000 80B5     		push	{r7, lr}
 3784              	.LCFI174:
 3785              		.cfi_def_cfa_offset 8
 3786              		.cfi_offset 7, -8
 3787              		.cfi_offset 14, -4
 3788 0002 82B0     		sub	sp, sp, #8
 3789              	.LCFI175:
 3790              		.cfi_def_cfa_offset 16
 3791 0004 00AF     		add	r7, sp, #0
 3792              	.LCFI176:
 3793              		.cfi_def_cfa_register 7
1376:./Hardware/hardware/menu_data.c **** 	uint8_t back_press_time = 0;
 3794              		.loc 1 1376 10
 3795 0006 0023     		movs	r3, #0
 3796 0008 FB71     		strb	r3, [r7, #7]
 3797              	.L370:
1377:./Hardware/hardware/menu_data.c **** 	
1378:./Hardware/hardware/menu_data.c **** 	while(1)
1379:./Hardware/hardware/menu_data.c **** 	{
1380:./Hardware/hardware/menu_data.c **** 		sd8825_f1024(IIC_TEST);
ARM GAS  C:\Users\86134\AppData\Local\Temp\ccuTN5uR.s 			page 92


 3798              		.loc 1 1380 3
 3799 000a 0020     		movs	r0, #0
 3800 000c FFF7FEFF 		bl	sd8825_f1024
1381:./Hardware/hardware/menu_data.c **** 		OLED_Update();
 3801              		.loc 1 1381 3
 3802 0010 FFF7FEFF 		bl	OLED_Update
1382:./Hardware/hardware/menu_data.c **** 		if(Key_back == 0)
 3803              		.loc 1 1382 6
 3804 0014 0E4B     		ldr	r3, .L371
 3805 0016 1B68     		ldr	r3, [r3]
 3806              		.loc 1 1382 5
 3807 0018 002B     		cmp	r3, #0
 3808 001a 12D1     		bne	.L366
1383:./Hardware/hardware/menu_data.c **** 		{
1384:./Hardware/hardware/menu_data.c **** 			Delay_ms(10); // 消抖
 3809              		.loc 1 1384 4
 3810 001c 0A20     		movs	r0, #10
 3811 001e FFF7FEFF 		bl	Delay_ms
1385:./Hardware/hardware/menu_data.c **** 			back_press_time += 50; // 每次循环递增50ms
 3812              		.loc 1 1385 20
 3813 0022 FB79     		ldrb	r3, [r7, #7]
 3814 0024 3233     		adds	r3, r3, #50
 3815 0026 FB71     		strb	r3, [r7, #7]
1386:./Hardware/hardware/menu_data.c **** 			if(back_press_time >= 100)
 3816              		.loc 1 1386 6
 3817 0028 FB79     		ldrb	r3, [r7, #7]	@ zero_extendqisi2
 3818 002a 632B     		cmp	r3, #99
 3819 002c 05D9     		bls	.L367
1387:./Hardware/hardware/menu_data.c **** 			{
1388:./Hardware/hardware/menu_data.c **** 				// 长按200ms，退出函数
1389:./Hardware/hardware/menu_data.c **** 				while(Key_back == 0); // 等待松手
 3820              		.loc 1 1389 10
 3821 002e 00BF     		nop
 3822              	.L368:
 3823              		.loc 1 1389 11 discriminator 1
 3824 0030 074B     		ldr	r3, .L371
 3825 0032 1B68     		ldr	r3, [r3]
 3826              		.loc 1 1389 10 discriminator 1
 3827 0034 002B     		cmp	r3, #0
 3828 0036 FBD0     		beq	.L368
1390:./Hardware/hardware/menu_data.c **** 				break;
 3829              		.loc 1 1390 5
 3830 0038 06E0     		b	.L365
 3831              	.L367:
1391:./Hardware/hardware/menu_data.c **** 			}
1392:./Hardware/hardware/menu_data.c **** 			sd8825_f1024_off(IIC_TEST);
 3832              		.loc 1 1392 4
 3833 003a 0020     		movs	r0, #0
 3834 003c FFF7FEFF 		bl	sd8825_f1024_off
1393:./Hardware/hardware/menu_data.c **** 			return;
 3835              		.loc 1 1393 4
 3836 0040 02E0     		b	.L365
 3837              	.L366:
1394:./Hardware/hardware/menu_data.c **** 		}
1395:./Hardware/hardware/menu_data.c **** 		else
1396:./Hardware/hardware/menu_data.c **** 		{
1397:./Hardware/hardware/menu_data.c **** 			back_press_time = 0; // 重置计时器
ARM GAS  C:\Users\86134\AppData\Local\Temp\ccuTN5uR.s 			page 93


 3838              		.loc 1 1397 20
 3839 0042 0023     		movs	r3, #0
 3840 0044 FB71     		strb	r3, [r7, #7]
1380:./Hardware/hardware/menu_data.c **** 		OLED_Update();
 3841              		.loc 1 1380 3
 3842 0046 E0E7     		b	.L370
 3843              	.L365:
1398:./Hardware/hardware/menu_data.c **** 		}
1399:./Hardware/hardware/menu_data.c **** 	}
1400:./Hardware/hardware/menu_data.c **** }
 3844              		.loc 1 1400 1
 3845 0048 0837     		adds	r7, r7, #8
 3846              	.LCFI177:
 3847              		.cfi_def_cfa_offset 8
 3848 004a BD46     		mov	sp, r7
 3849              	.LCFI178:
 3850              		.cfi_def_cfa_register 13
 3851              		@ sp needed
 3852 004c 80BD     		pop	{r7, pc}
 3853              	.L372:
 3854 004e 00BF     		.align	2
 3855              	.L371:
 3856 0050 34812142 		.word	1109492020
 3857              		.cfi_endproc
 3858              	.LFE67:
 3860              		.section	.text.f1_8825_Out,"ax",%progbits
 3861              		.align	1
 3862              		.global	f1_8825_Out
 3863              		.syntax unified
 3864              		.thumb
 3865              		.thumb_func
 3866              		.fpu softvfp
 3868              	f1_8825_Out:
 3869              	.LFB68:
1401:./Hardware/hardware/menu_data.c **** 
1402:./Hardware/hardware/menu_data.c **** void f1_8825_Out(void)
1403:./Hardware/hardware/menu_data.c **** {
 3870              		.loc 1 1403 1
 3871              		.cfi_startproc
 3872              		@ args = 0, pretend = 0, frame = 8
 3873              		@ frame_needed = 1, uses_anonymous_args = 0
 3874 0000 80B5     		push	{r7, lr}
 3875              	.LCFI179:
 3876              		.cfi_def_cfa_offset 8
 3877              		.cfi_offset 7, -8
 3878              		.cfi_offset 14, -4
 3879 0002 82B0     		sub	sp, sp, #8
 3880              	.LCFI180:
 3881              		.cfi_def_cfa_offset 16
 3882 0004 00AF     		add	r7, sp, #0
 3883              	.LCFI181:
 3884              		.cfi_def_cfa_register 7
1404:./Hardware/hardware/menu_data.c **** 	uint8_t back_press_time = 0;
 3885              		.loc 1 1404 10
 3886 0006 0023     		movs	r3, #0
 3887 0008 FB71     		strb	r3, [r7, #7]
 3888              	.L378:
ARM GAS  C:\Users\86134\AppData\Local\Temp\ccuTN5uR.s 			page 94


1405:./Hardware/hardware/menu_data.c **** 	
1406:./Hardware/hardware/menu_data.c **** 	while(1)
1407:./Hardware/hardware/menu_data.c **** 	{
1408:./Hardware/hardware/menu_data.c **** 		sd8825_f1(IIC_TEST);
 3889              		.loc 1 1408 3
 3890 000a 0020     		movs	r0, #0
 3891 000c FFF7FEFF 		bl	sd8825_f1
1409:./Hardware/hardware/menu_data.c **** 		OLED_Update();
 3892              		.loc 1 1409 3
 3893 0010 FFF7FEFF 		bl	OLED_Update
1410:./Hardware/hardware/menu_data.c **** 		if(Key_back == 0)
 3894              		.loc 1 1410 6
 3895 0014 0E4B     		ldr	r3, .L379
 3896 0016 1B68     		ldr	r3, [r3]
 3897              		.loc 1 1410 5
 3898 0018 002B     		cmp	r3, #0
 3899 001a 12D1     		bne	.L374
1411:./Hardware/hardware/menu_data.c **** 		{
1412:./Hardware/hardware/menu_data.c **** 			Delay_ms(10); // 消抖
 3900              		.loc 1 1412 4
 3901 001c 0A20     		movs	r0, #10
 3902 001e FFF7FEFF 		bl	Delay_ms
1413:./Hardware/hardware/menu_data.c **** 			back_press_time += 50; // 每次循环递增50ms
 3903              		.loc 1 1413 20
 3904 0022 FB79     		ldrb	r3, [r7, #7]
 3905 0024 3233     		adds	r3, r3, #50
 3906 0026 FB71     		strb	r3, [r7, #7]
1414:./Hardware/hardware/menu_data.c **** 			if(back_press_time >= 100)
 3907              		.loc 1 1414 6
 3908 0028 FB79     		ldrb	r3, [r7, #7]	@ zero_extendqisi2
 3909 002a 632B     		cmp	r3, #99
 3910 002c 05D9     		bls	.L375
1415:./Hardware/hardware/menu_data.c **** 			{
1416:./Hardware/hardware/menu_data.c **** 				// 长按200ms，退出函数
1417:./Hardware/hardware/menu_data.c **** 				while(Key_back == 0); // 等待松手
 3911              		.loc 1 1417 10
 3912 002e 00BF     		nop
 3913              	.L376:
 3914              		.loc 1 1417 11 discriminator 1
 3915 0030 074B     		ldr	r3, .L379
 3916 0032 1B68     		ldr	r3, [r3]
 3917              		.loc 1 1417 10 discriminator 1
 3918 0034 002B     		cmp	r3, #0
 3919 0036 FBD0     		beq	.L376
1418:./Hardware/hardware/menu_data.c **** 				break;
 3920              		.loc 1 1418 5
 3921 0038 06E0     		b	.L373
 3922              	.L375:
1419:./Hardware/hardware/menu_data.c **** 			}
1420:./Hardware/hardware/menu_data.c **** 			sd8825_f1_off(IIC_TEST);
 3923              		.loc 1 1420 4
 3924 003a 0020     		movs	r0, #0
 3925 003c FFF7FEFF 		bl	sd8825_f1_off
1421:./Hardware/hardware/menu_data.c **** 			return;
 3926              		.loc 1 1421 4
 3927 0040 02E0     		b	.L373
 3928              	.L374:
ARM GAS  C:\Users\86134\AppData\Local\Temp\ccuTN5uR.s 			page 95


1422:./Hardware/hardware/menu_data.c **** 		}
1423:./Hardware/hardware/menu_data.c **** 		else
1424:./Hardware/hardware/menu_data.c **** 		{
1425:./Hardware/hardware/menu_data.c **** 			back_press_time = 0; // 重置计时器
 3929              		.loc 1 1425 20
 3930 0042 0023     		movs	r3, #0
 3931 0044 FB71     		strb	r3, [r7, #7]
1408:./Hardware/hardware/menu_data.c **** 		OLED_Update();
 3932              		.loc 1 1408 3
 3933 0046 E0E7     		b	.L378
 3934              	.L373:
1426:./Hardware/hardware/menu_data.c **** 		}
1427:./Hardware/hardware/menu_data.c **** 	}
1428:./Hardware/hardware/menu_data.c **** }
 3935              		.loc 1 1428 1
 3936 0048 0837     		adds	r7, r7, #8
 3937              	.LCFI182:
 3938              		.cfi_def_cfa_offset 8
 3939 004a BD46     		mov	sp, r7
 3940              	.LCFI183:
 3941              		.cfi_def_cfa_register 13
 3942              		@ sp needed
 3943 004c 80BD     		pop	{r7, pc}
 3944              	.L380:
 3945 004e 00BF     		.align	2
 3946              	.L379:
 3947 0050 34812142 		.word	1109492020
 3948              		.cfi_endproc
 3949              	.LFE68:
 3951              		.section	.text.f32_8902_Out,"ax",%progbits
 3952              		.align	1
 3953              		.global	f32_8902_Out
 3954              		.syntax unified
 3955              		.thumb
 3956              		.thumb_func
 3957              		.fpu softvfp
 3959              	f32_8902_Out:
 3960              	.LFB69:
1429:./Hardware/hardware/menu_data.c **** 
1430:./Hardware/hardware/menu_data.c **** void f32_8902_Out(void)
1431:./Hardware/hardware/menu_data.c **** {
 3961              		.loc 1 1431 1
 3962              		.cfi_startproc
 3963              		@ args = 0, pretend = 0, frame = 8
 3964              		@ frame_needed = 1, uses_anonymous_args = 0
 3965 0000 80B5     		push	{r7, lr}
 3966              	.LCFI184:
 3967              		.cfi_def_cfa_offset 8
 3968              		.cfi_offset 7, -8
 3969              		.cfi_offset 14, -4
 3970 0002 82B0     		sub	sp, sp, #8
 3971              	.LCFI185:
 3972              		.cfi_def_cfa_offset 16
 3973 0004 00AF     		add	r7, sp, #0
 3974              	.LCFI186:
 3975              		.cfi_def_cfa_register 7
1432:./Hardware/hardware/menu_data.c **** 	uint8_t back_press_time = 0;
ARM GAS  C:\Users\86134\AppData\Local\Temp\ccuTN5uR.s 			page 96


 3976              		.loc 1 1432 10
 3977 0006 0023     		movs	r3, #0
 3978 0008 FB71     		strb	r3, [r7, #7]
 3979              	.L386:
1433:./Hardware/hardware/menu_data.c **** 	
1434:./Hardware/hardware/menu_data.c **** 	while(1)
1435:./Hardware/hardware/menu_data.c **** 	{
1436:./Hardware/hardware/menu_data.c **** 		sd8902_f32768();
 3980              		.loc 1 1436 3
 3981 000a FFF7FEFF 		bl	sd8902_f32768
1437:./Hardware/hardware/menu_data.c **** 		OLED_Update();
 3982              		.loc 1 1437 3
 3983 000e FFF7FEFF 		bl	OLED_Update
1438:./Hardware/hardware/menu_data.c **** 		if(Key_back == 0)
 3984              		.loc 1 1438 6
 3985 0012 0E4B     		ldr	r3, .L387
 3986 0014 1B68     		ldr	r3, [r3]
 3987              		.loc 1 1438 5
 3988 0016 002B     		cmp	r3, #0
 3989 0018 11D1     		bne	.L382
1439:./Hardware/hardware/menu_data.c **** 		{
1440:./Hardware/hardware/menu_data.c **** 			Delay_ms(10); // 消抖
 3990              		.loc 1 1440 4
 3991 001a 0A20     		movs	r0, #10
 3992 001c FFF7FEFF 		bl	Delay_ms
1441:./Hardware/hardware/menu_data.c **** 			back_press_time += 50; // 每次循环递增50ms
 3993              		.loc 1 1441 20
 3994 0020 FB79     		ldrb	r3, [r7, #7]
 3995 0022 3233     		adds	r3, r3, #50
 3996 0024 FB71     		strb	r3, [r7, #7]
1442:./Hardware/hardware/menu_data.c **** 			if(back_press_time >= 100)
 3997              		.loc 1 1442 6
 3998 0026 FB79     		ldrb	r3, [r7, #7]	@ zero_extendqisi2
 3999 0028 632B     		cmp	r3, #99
 4000 002a 05D9     		bls	.L383
1443:./Hardware/hardware/menu_data.c **** 			{
1444:./Hardware/hardware/menu_data.c **** 				// 长按200ms，退出函数
1445:./Hardware/hardware/menu_data.c **** 				while(Key_back == 0); // 等待松手
 4001              		.loc 1 1445 10
 4002 002c 00BF     		nop
 4003              	.L384:
 4004              		.loc 1 1445 11 discriminator 1
 4005 002e 074B     		ldr	r3, .L387
 4006 0030 1B68     		ldr	r3, [r3]
 4007              		.loc 1 1445 10 discriminator 1
 4008 0032 002B     		cmp	r3, #0
 4009 0034 FBD0     		beq	.L384
1446:./Hardware/hardware/menu_data.c **** 				break;
 4010              		.loc 1 1446 5
 4011 0036 05E0     		b	.L381
 4012              	.L383:
1447:./Hardware/hardware/menu_data.c **** 			}
1448:./Hardware/hardware/menu_data.c **** 			sd8902_f32768_off();
 4013              		.loc 1 1448 4
 4014 0038 FFF7FEFF 		bl	sd8902_f32768_off
1449:./Hardware/hardware/menu_data.c **** 			return;
 4015              		.loc 1 1449 4
ARM GAS  C:\Users\86134\AppData\Local\Temp\ccuTN5uR.s 			page 97


 4016 003c 02E0     		b	.L381
 4017              	.L382:
1450:./Hardware/hardware/menu_data.c **** 		}
1451:./Hardware/hardware/menu_data.c **** 		else
1452:./Hardware/hardware/menu_data.c **** 		{
1453:./Hardware/hardware/menu_data.c **** 			back_press_time = 0; // 重置计时器
 4018              		.loc 1 1453 20
 4019 003e 0023     		movs	r3, #0
 4020 0040 FB71     		strb	r3, [r7, #7]
1436:./Hardware/hardware/menu_data.c **** 		OLED_Update();
 4021              		.loc 1 1436 3
 4022 0042 E2E7     		b	.L386
 4023              	.L381:
1454:./Hardware/hardware/menu_data.c **** 		}
1455:./Hardware/hardware/menu_data.c **** 	}
1456:./Hardware/hardware/menu_data.c **** 
1457:./Hardware/hardware/menu_data.c **** 
1458:./Hardware/hardware/menu_data.c **** }
 4024              		.loc 1 1458 1
 4025 0044 0837     		adds	r7, r7, #8
 4026              	.LCFI187:
 4027              		.cfi_def_cfa_offset 8
 4028 0046 BD46     		mov	sp, r7
 4029              	.LCFI188:
 4030              		.cfi_def_cfa_register 13
 4031              		@ sp needed
 4032 0048 80BD     		pop	{r7, pc}
 4033              	.L388:
 4034 004a 00BF     		.align	2
 4035              	.L387:
 4036 004c 34812142 		.word	1109492020
 4037              		.cfi_endproc
 4038              	.LFE69:
 4040              		.section	.text.f32768_8804_Out,"ax",%progbits
 4041              		.align	1
 4042              		.global	f32768_8804_Out
 4043              		.syntax unified
 4044              		.thumb
 4045              		.thumb_func
 4046              		.fpu softvfp
 4048              	f32768_8804_Out:
 4049              	.LFB70:
1459:./Hardware/hardware/menu_data.c **** 
1460:./Hardware/hardware/menu_data.c **** void f32768_8804_Out(void)
1461:./Hardware/hardware/menu_data.c **** {
 4050              		.loc 1 1461 1
 4051              		.cfi_startproc
 4052              		@ args = 0, pretend = 0, frame = 8
 4053              		@ frame_needed = 1, uses_anonymous_args = 0
 4054 0000 80B5     		push	{r7, lr}
 4055              	.LCFI189:
 4056              		.cfi_def_cfa_offset 8
 4057              		.cfi_offset 7, -8
 4058              		.cfi_offset 14, -4
 4059 0002 82B0     		sub	sp, sp, #8
 4060              	.LCFI190:
 4061              		.cfi_def_cfa_offset 16
ARM GAS  C:\Users\86134\AppData\Local\Temp\ccuTN5uR.s 			page 98


 4062 0004 00AF     		add	r7, sp, #0
 4063              	.LCFI191:
 4064              		.cfi_def_cfa_register 7
1462:./Hardware/hardware/menu_data.c **** 	uint8_t back_press_time = 0;
 4065              		.loc 1 1462 10
 4066 0006 0023     		movs	r3, #0
 4067 0008 FB71     		strb	r3, [r7, #7]
 4068              	.L394:
1463:./Hardware/hardware/menu_data.c **** 	
1464:./Hardware/hardware/menu_data.c **** 	while(1)
1465:./Hardware/hardware/menu_data.c **** 	{
1466:./Hardware/hardware/menu_data.c **** 		sd8804_f32768(IIC_TEST);
 4069              		.loc 1 1466 3
 4070 000a 0020     		movs	r0, #0
 4071 000c FFF7FEFF 		bl	sd8804_f32768
1467:./Hardware/hardware/menu_data.c **** 		OLED_Update();
 4072              		.loc 1 1467 3
 4073 0010 FFF7FEFF 		bl	OLED_Update
1468:./Hardware/hardware/menu_data.c **** 		if(Key_back == 0)
 4074              		.loc 1 1468 6
 4075 0014 0E4B     		ldr	r3, .L395
 4076 0016 1B68     		ldr	r3, [r3]
 4077              		.loc 1 1468 5
 4078 0018 002B     		cmp	r3, #0
 4079 001a 12D1     		bne	.L390
1469:./Hardware/hardware/menu_data.c **** 		{
1470:./Hardware/hardware/menu_data.c **** 			Delay_ms(10); // 消抖
 4080              		.loc 1 1470 4
 4081 001c 0A20     		movs	r0, #10
 4082 001e FFF7FEFF 		bl	Delay_ms
1471:./Hardware/hardware/menu_data.c **** 			back_press_time += 50; // 每次循环递增50ms
 4083              		.loc 1 1471 20
 4084 0022 FB79     		ldrb	r3, [r7, #7]
 4085 0024 3233     		adds	r3, r3, #50
 4086 0026 FB71     		strb	r3, [r7, #7]
1472:./Hardware/hardware/menu_data.c **** 			if(back_press_time >= 100)
 4087              		.loc 1 1472 6
 4088 0028 FB79     		ldrb	r3, [r7, #7]	@ zero_extendqisi2
 4089 002a 632B     		cmp	r3, #99
 4090 002c 05D9     		bls	.L391
1473:./Hardware/hardware/menu_data.c **** 			{
1474:./Hardware/hardware/menu_data.c **** 				// 长按200ms，退出函数
1475:./Hardware/hardware/menu_data.c **** 				while(Key_back == 0); // 等待松手
 4091              		.loc 1 1475 10
 4092 002e 00BF     		nop
 4093              	.L392:
 4094              		.loc 1 1475 11 discriminator 1
 4095 0030 074B     		ldr	r3, .L395
 4096 0032 1B68     		ldr	r3, [r3]
 4097              		.loc 1 1475 10 discriminator 1
 4098 0034 002B     		cmp	r3, #0
 4099 0036 FBD0     		beq	.L392
1476:./Hardware/hardware/menu_data.c **** 				break;
 4100              		.loc 1 1476 5
 4101 0038 06E0     		b	.L389
 4102              	.L391:
1477:./Hardware/hardware/menu_data.c **** 			}
ARM GAS  C:\Users\86134\AppData\Local\Temp\ccuTN5uR.s 			page 99


1478:./Hardware/hardware/menu_data.c **** 			sd8804_f32768_off(IIC_TEST);
 4103              		.loc 1 1478 4
 4104 003a 0020     		movs	r0, #0
 4105 003c FFF7FEFF 		bl	sd8804_f32768_off
1479:./Hardware/hardware/menu_data.c **** 			return;
 4106              		.loc 1 1479 4
 4107 0040 02E0     		b	.L389
 4108              	.L390:
1480:./Hardware/hardware/menu_data.c **** 		}
1481:./Hardware/hardware/menu_data.c **** 		else
1482:./Hardware/hardware/menu_data.c **** 		{
1483:./Hardware/hardware/menu_data.c **** 			back_press_time = 0; // 重置计时器
 4109              		.loc 1 1483 20
 4110 0042 0023     		movs	r3, #0
 4111 0044 FB71     		strb	r3, [r7, #7]
1466:./Hardware/hardware/menu_data.c **** 		OLED_Update();
 4112              		.loc 1 1466 3
 4113 0046 E0E7     		b	.L394
 4114              	.L389:
1484:./Hardware/hardware/menu_data.c **** 		}
1485:./Hardware/hardware/menu_data.c **** 	}
1486:./Hardware/hardware/menu_data.c **** }
 4115              		.loc 1 1486 1
 4116 0048 0837     		adds	r7, r7, #8
 4117              	.LCFI192:
 4118              		.cfi_def_cfa_offset 8
 4119 004a BD46     		mov	sp, r7
 4120              	.LCFI193:
 4121              		.cfi_def_cfa_register 13
 4122              		@ sp needed
 4123 004c 80BD     		pop	{r7, pc}
 4124              	.L396:
 4125 004e 00BF     		.align	2
 4126              	.L395:
 4127 0050 34812142 		.word	1109492020
 4128              		.cfi_endproc
 4129              	.LFE70:
 4131              		.section	.text.f1024_8804_Out,"ax",%progbits
 4132              		.align	1
 4133              		.global	f1024_8804_Out
 4134              		.syntax unified
 4135              		.thumb
 4136              		.thumb_func
 4137              		.fpu softvfp
 4139              	f1024_8804_Out:
 4140              	.LFB71:
1487:./Hardware/hardware/menu_data.c **** 
1488:./Hardware/hardware/menu_data.c **** void f1024_8804_Out(void)
1489:./Hardware/hardware/menu_data.c **** {
 4141              		.loc 1 1489 1
 4142              		.cfi_startproc
 4143              		@ args = 0, pretend = 0, frame = 8
 4144              		@ frame_needed = 1, uses_anonymous_args = 0
 4145 0000 80B5     		push	{r7, lr}
 4146              	.LCFI194:
 4147              		.cfi_def_cfa_offset 8
 4148              		.cfi_offset 7, -8
ARM GAS  C:\Users\86134\AppData\Local\Temp\ccuTN5uR.s 			page 100


 4149              		.cfi_offset 14, -4
 4150 0002 82B0     		sub	sp, sp, #8
 4151              	.LCFI195:
 4152              		.cfi_def_cfa_offset 16
 4153 0004 00AF     		add	r7, sp, #0
 4154              	.LCFI196:
 4155              		.cfi_def_cfa_register 7
1490:./Hardware/hardware/menu_data.c **** 	uint8_t back_press_time = 0;
 4156              		.loc 1 1490 10
 4157 0006 0023     		movs	r3, #0
 4158 0008 FB71     		strb	r3, [r7, #7]
 4159              	.L402:
1491:./Hardware/hardware/menu_data.c **** 	
1492:./Hardware/hardware/menu_data.c **** 	while(1)
1493:./Hardware/hardware/menu_data.c **** 	{
1494:./Hardware/hardware/menu_data.c **** 		sd8804_f1024(IIC_TEST);
 4160              		.loc 1 1494 3
 4161 000a 0020     		movs	r0, #0
 4162 000c FFF7FEFF 		bl	sd8804_f1024
1495:./Hardware/hardware/menu_data.c **** 		OLED_Update();
 4163              		.loc 1 1495 3
 4164 0010 FFF7FEFF 		bl	OLED_Update
1496:./Hardware/hardware/menu_data.c **** 		if(Key_back == 0)
 4165              		.loc 1 1496 6
 4166 0014 0E4B     		ldr	r3, .L403
 4167 0016 1B68     		ldr	r3, [r3]
 4168              		.loc 1 1496 5
 4169 0018 002B     		cmp	r3, #0
 4170 001a 12D1     		bne	.L398
1497:./Hardware/hardware/menu_data.c **** 		{
1498:./Hardware/hardware/menu_data.c **** 			Delay_ms(10); // 消抖
 4171              		.loc 1 1498 4
 4172 001c 0A20     		movs	r0, #10
 4173 001e FFF7FEFF 		bl	Delay_ms
1499:./Hardware/hardware/menu_data.c **** 			back_press_time += 50; // 每次循环递增50ms
 4174              		.loc 1 1499 20
 4175 0022 FB79     		ldrb	r3, [r7, #7]
 4176 0024 3233     		adds	r3, r3, #50
 4177 0026 FB71     		strb	r3, [r7, #7]
1500:./Hardware/hardware/menu_data.c **** 			if(back_press_time >= 100)
 4178              		.loc 1 1500 6
 4179 0028 FB79     		ldrb	r3, [r7, #7]	@ zero_extendqisi2
 4180 002a 632B     		cmp	r3, #99
 4181 002c 05D9     		bls	.L399
1501:./Hardware/hardware/menu_data.c **** 			{
1502:./Hardware/hardware/menu_data.c **** 				// 长按200ms，退出函数
1503:./Hardware/hardware/menu_data.c **** 				while(Key_back == 0); // 等待松手
 4182              		.loc 1 1503 10
 4183 002e 00BF     		nop
 4184              	.L400:
 4185              		.loc 1 1503 11 discriminator 1
 4186 0030 074B     		ldr	r3, .L403
 4187 0032 1B68     		ldr	r3, [r3]
 4188              		.loc 1 1503 10 discriminator 1
 4189 0034 002B     		cmp	r3, #0
 4190 0036 FBD0     		beq	.L400
1504:./Hardware/hardware/menu_data.c **** 				break;
ARM GAS  C:\Users\86134\AppData\Local\Temp\ccuTN5uR.s 			page 101


 4191              		.loc 1 1504 5
 4192 0038 06E0     		b	.L397
 4193              	.L399:
1505:./Hardware/hardware/menu_data.c **** 			}
1506:./Hardware/hardware/menu_data.c **** 			sd8804_f1024_off(IIC_TEST);
 4194              		.loc 1 1506 4
 4195 003a 0020     		movs	r0, #0
 4196 003c FFF7FEFF 		bl	sd8804_f1024_off
1507:./Hardware/hardware/menu_data.c **** 			return;
 4197              		.loc 1 1507 4
 4198 0040 02E0     		b	.L397
 4199              	.L398:
1508:./Hardware/hardware/menu_data.c **** 		}
1509:./Hardware/hardware/menu_data.c **** 		else
1510:./Hardware/hardware/menu_data.c **** 		{
1511:./Hardware/hardware/menu_data.c **** 			back_press_time = 0; // 重置计时器
 4200              		.loc 1 1511 20
 4201 0042 0023     		movs	r3, #0
 4202 0044 FB71     		strb	r3, [r7, #7]
1494:./Hardware/hardware/menu_data.c **** 		OLED_Update();
 4203              		.loc 1 1494 3
 4204 0046 E0E7     		b	.L402
 4205              	.L397:
1512:./Hardware/hardware/menu_data.c **** 		}
1513:./Hardware/hardware/menu_data.c **** 	}
1514:./Hardware/hardware/menu_data.c **** }
 4206              		.loc 1 1514 1
 4207 0048 0837     		adds	r7, r7, #8
 4208              	.LCFI197:
 4209              		.cfi_def_cfa_offset 8
 4210 004a BD46     		mov	sp, r7
 4211              	.LCFI198:
 4212              		.cfi_def_cfa_register 13
 4213              		@ sp needed
 4214 004c 80BD     		pop	{r7, pc}
 4215              	.L404:
 4216 004e 00BF     		.align	2
 4217              	.L403:
 4218 0050 34812142 		.word	1109492020
 4219              		.cfi_endproc
 4220              	.LFE71:
 4222              		.section	.text.f1_8804_Out,"ax",%progbits
 4223              		.align	1
 4224              		.global	f1_8804_Out
 4225              		.syntax unified
 4226              		.thumb
 4227              		.thumb_func
 4228              		.fpu softvfp
 4230              	f1_8804_Out:
 4231              	.LFB72:
1515:./Hardware/hardware/menu_data.c **** 
1516:./Hardware/hardware/menu_data.c **** void f1_8804_Out(void)
1517:./Hardware/hardware/menu_data.c **** {
 4232              		.loc 1 1517 1
 4233              		.cfi_startproc
 4234              		@ args = 0, pretend = 0, frame = 8
 4235              		@ frame_needed = 1, uses_anonymous_args = 0
ARM GAS  C:\Users\86134\AppData\Local\Temp\ccuTN5uR.s 			page 102


 4236 0000 80B5     		push	{r7, lr}
 4237              	.LCFI199:
 4238              		.cfi_def_cfa_offset 8
 4239              		.cfi_offset 7, -8
 4240              		.cfi_offset 14, -4
 4241 0002 82B0     		sub	sp, sp, #8
 4242              	.LCFI200:
 4243              		.cfi_def_cfa_offset 16
 4244 0004 00AF     		add	r7, sp, #0
 4245              	.LCFI201:
 4246              		.cfi_def_cfa_register 7
1518:./Hardware/hardware/menu_data.c **** 	uint8_t back_press_time = 0;
 4247              		.loc 1 1518 10
 4248 0006 0023     		movs	r3, #0
 4249 0008 FB71     		strb	r3, [r7, #7]
 4250              	.L410:
1519:./Hardware/hardware/menu_data.c **** 	
1520:./Hardware/hardware/menu_data.c **** 	while(1)
1521:./Hardware/hardware/menu_data.c **** 	{
1522:./Hardware/hardware/menu_data.c **** 		sd8804_f1(IIC_TEST);
 4251              		.loc 1 1522 3
 4252 000a 0020     		movs	r0, #0
 4253 000c FFF7FEFF 		bl	sd8804_f1
1523:./Hardware/hardware/menu_data.c **** 		OLED_Update();
 4254              		.loc 1 1523 3
 4255 0010 FFF7FEFF 		bl	OLED_Update
1524:./Hardware/hardware/menu_data.c **** 		if(Key_back == 0)
 4256              		.loc 1 1524 6
 4257 0014 0E4B     		ldr	r3, .L411
 4258 0016 1B68     		ldr	r3, [r3]
 4259              		.loc 1 1524 5
 4260 0018 002B     		cmp	r3, #0
 4261 001a 12D1     		bne	.L406
1525:./Hardware/hardware/menu_data.c **** 		{
1526:./Hardware/hardware/menu_data.c **** 			Delay_ms(10); // 消抖
 4262              		.loc 1 1526 4
 4263 001c 0A20     		movs	r0, #10
 4264 001e FFF7FEFF 		bl	Delay_ms
1527:./Hardware/hardware/menu_data.c **** 			back_press_time += 50; // 每次循环递增50ms
 4265              		.loc 1 1527 20
 4266 0022 FB79     		ldrb	r3, [r7, #7]
 4267 0024 3233     		adds	r3, r3, #50
 4268 0026 FB71     		strb	r3, [r7, #7]
1528:./Hardware/hardware/menu_data.c **** 			if(back_press_time >= 100)
 4269              		.loc 1 1528 6
 4270 0028 FB79     		ldrb	r3, [r7, #7]	@ zero_extendqisi2
 4271 002a 632B     		cmp	r3, #99
 4272 002c 05D9     		bls	.L407
1529:./Hardware/hardware/menu_data.c **** 			{
1530:./Hardware/hardware/menu_data.c **** 				// 长按200ms，退出函数
1531:./Hardware/hardware/menu_data.c **** 				while(Key_back == 0); // 等待松手
 4273              		.loc 1 1531 10
 4274 002e 00BF     		nop
 4275              	.L408:
 4276              		.loc 1 1531 11 discriminator 1
 4277 0030 074B     		ldr	r3, .L411
 4278 0032 1B68     		ldr	r3, [r3]
ARM GAS  C:\Users\86134\AppData\Local\Temp\ccuTN5uR.s 			page 103


 4279              		.loc 1 1531 10 discriminator 1
 4280 0034 002B     		cmp	r3, #0
 4281 0036 FBD0     		beq	.L408
1532:./Hardware/hardware/menu_data.c **** 				break;
 4282              		.loc 1 1532 5
 4283 0038 06E0     		b	.L405
 4284              	.L407:
1533:./Hardware/hardware/menu_data.c **** 			}
1534:./Hardware/hardware/menu_data.c **** 			sd8804_f1_off(IIC_TEST);
 4285              		.loc 1 1534 4
 4286 003a 0020     		movs	r0, #0
 4287 003c FFF7FEFF 		bl	sd8804_f1_off
1535:./Hardware/hardware/menu_data.c **** 			return;
 4288              		.loc 1 1535 4
 4289 0040 02E0     		b	.L405
 4290              	.L406:
1536:./Hardware/hardware/menu_data.c **** 		}
1537:./Hardware/hardware/menu_data.c **** 		else
1538:./Hardware/hardware/menu_data.c **** 		{
1539:./Hardware/hardware/menu_data.c **** 			back_press_time = 0; // 重置计时器
 4291              		.loc 1 1539 20
 4292 0042 0023     		movs	r3, #0
 4293 0044 FB71     		strb	r3, [r7, #7]
1522:./Hardware/hardware/menu_data.c **** 		OLED_Update();
 4294              		.loc 1 1522 3
 4295 0046 E0E7     		b	.L410
 4296              	.L405:
1540:./Hardware/hardware/menu_data.c **** 		}
1541:./Hardware/hardware/menu_data.c **** 	}
1542:./Hardware/hardware/menu_data.c **** }
 4297              		.loc 1 1542 1
 4298 0048 0837     		adds	r7, r7, #8
 4299              	.LCFI202:
 4300              		.cfi_def_cfa_offset 8
 4301 004a BD46     		mov	sp, r7
 4302              	.LCFI203:
 4303              		.cfi_def_cfa_register 13
 4304              		@ sp needed
 4305 004c 80BD     		pop	{r7, pc}
 4306              	.L412:
 4307 004e 00BF     		.align	2
 4308              	.L411:
 4309 0050 34812142 		.word	1109492020
 4310              		.cfi_endproc
 4311              	.LFE72:
 4313              		.section	.text.f32768_8810_Out,"ax",%progbits
 4314              		.align	1
 4315              		.global	f32768_8810_Out
 4316              		.syntax unified
 4317              		.thumb
 4318              		.thumb_func
 4319              		.fpu softvfp
 4321              	f32768_8810_Out:
 4322              	.LFB73:
1543:./Hardware/hardware/menu_data.c **** 
1544:./Hardware/hardware/menu_data.c **** void f32768_8810_Out(void)
1545:./Hardware/hardware/menu_data.c **** {
ARM GAS  C:\Users\86134\AppData\Local\Temp\ccuTN5uR.s 			page 104


 4323              		.loc 1 1545 1
 4324              		.cfi_startproc
 4325              		@ args = 0, pretend = 0, frame = 8
 4326              		@ frame_needed = 1, uses_anonymous_args = 0
 4327 0000 80B5     		push	{r7, lr}
 4328              	.LCFI204:
 4329              		.cfi_def_cfa_offset 8
 4330              		.cfi_offset 7, -8
 4331              		.cfi_offset 14, -4
 4332 0002 82B0     		sub	sp, sp, #8
 4333              	.LCFI205:
 4334              		.cfi_def_cfa_offset 16
 4335 0004 00AF     		add	r7, sp, #0
 4336              	.LCFI206:
 4337              		.cfi_def_cfa_register 7
1546:./Hardware/hardware/menu_data.c **** 	uint8_t back_press_time = 0;
 4338              		.loc 1 1546 10
 4339 0006 0023     		movs	r3, #0
 4340 0008 FB71     		strb	r3, [r7, #7]
 4341              	.L418:
1547:./Hardware/hardware/menu_data.c **** 	
1548:./Hardware/hardware/menu_data.c **** 	while(1)
1549:./Hardware/hardware/menu_data.c **** 	{
1550:./Hardware/hardware/menu_data.c **** 		sd8810_f32768(IIC_TEST);
 4342              		.loc 1 1550 3
 4343 000a 0020     		movs	r0, #0
 4344 000c FFF7FEFF 		bl	sd8810_f32768
1551:./Hardware/hardware/menu_data.c **** 		OLED_Update();
 4345              		.loc 1 1551 3
 4346 0010 FFF7FEFF 		bl	OLED_Update
1552:./Hardware/hardware/menu_data.c **** 		if(Key_back == 0)
 4347              		.loc 1 1552 6
 4348 0014 0E4B     		ldr	r3, .L419
 4349 0016 1B68     		ldr	r3, [r3]
 4350              		.loc 1 1552 5
 4351 0018 002B     		cmp	r3, #0
 4352 001a 12D1     		bne	.L414
1553:./Hardware/hardware/menu_data.c **** 		{
1554:./Hardware/hardware/menu_data.c **** 			Delay_ms(10); // 消抖
 4353              		.loc 1 1554 4
 4354 001c 0A20     		movs	r0, #10
 4355 001e FFF7FEFF 		bl	Delay_ms
1555:./Hardware/hardware/menu_data.c **** 			back_press_time += 50; // 每次循环递增50ms
 4356              		.loc 1 1555 20
 4357 0022 FB79     		ldrb	r3, [r7, #7]
 4358 0024 3233     		adds	r3, r3, #50
 4359 0026 FB71     		strb	r3, [r7, #7]
1556:./Hardware/hardware/menu_data.c **** 			if(back_press_time >= 100)
 4360              		.loc 1 1556 6
 4361 0028 FB79     		ldrb	r3, [r7, #7]	@ zero_extendqisi2
 4362 002a 632B     		cmp	r3, #99
 4363 002c 05D9     		bls	.L415
1557:./Hardware/hardware/menu_data.c **** 			{
1558:./Hardware/hardware/menu_data.c **** 				// 长按200ms，退出函数
1559:./Hardware/hardware/menu_data.c **** 				while(Key_back == 0); // 等待松手
 4364              		.loc 1 1559 10
 4365 002e 00BF     		nop
ARM GAS  C:\Users\86134\AppData\Local\Temp\ccuTN5uR.s 			page 105


 4366              	.L416:
 4367              		.loc 1 1559 11 discriminator 1
 4368 0030 074B     		ldr	r3, .L419
 4369 0032 1B68     		ldr	r3, [r3]
 4370              		.loc 1 1559 10 discriminator 1
 4371 0034 002B     		cmp	r3, #0
 4372 0036 FBD0     		beq	.L416
1560:./Hardware/hardware/menu_data.c **** 				break;
 4373              		.loc 1 1560 5
 4374 0038 06E0     		b	.L413
 4375              	.L415:
1561:./Hardware/hardware/menu_data.c **** 			}
1562:./Hardware/hardware/menu_data.c **** 			sd8810_f32768_off(IIC_TEST);
 4376              		.loc 1 1562 4
 4377 003a 0020     		movs	r0, #0
 4378 003c FFF7FEFF 		bl	sd8810_f32768_off
1563:./Hardware/hardware/menu_data.c **** 			return;
 4379              		.loc 1 1563 4
 4380 0040 02E0     		b	.L413
 4381              	.L414:
1564:./Hardware/hardware/menu_data.c **** 		}
1565:./Hardware/hardware/menu_data.c **** 		else
1566:./Hardware/hardware/menu_data.c **** 		{
1567:./Hardware/hardware/menu_data.c **** 			back_press_time = 0; // 重置计时器
 4382              		.loc 1 1567 20
 4383 0042 0023     		movs	r3, #0
 4384 0044 FB71     		strb	r3, [r7, #7]
1550:./Hardware/hardware/menu_data.c **** 		OLED_Update();
 4385              		.loc 1 1550 3
 4386 0046 E0E7     		b	.L418
 4387              	.L413:
1568:./Hardware/hardware/menu_data.c **** 		}
1569:./Hardware/hardware/menu_data.c **** 	}
1570:./Hardware/hardware/menu_data.c **** }
 4388              		.loc 1 1570 1
 4389 0048 0837     		adds	r7, r7, #8
 4390              	.LCFI207:
 4391              		.cfi_def_cfa_offset 8
 4392 004a BD46     		mov	sp, r7
 4393              	.LCFI208:
 4394              		.cfi_def_cfa_register 13
 4395              		@ sp needed
 4396 004c 80BD     		pop	{r7, pc}
 4397              	.L420:
 4398 004e 00BF     		.align	2
 4399              	.L419:
 4400 0050 34812142 		.word	1109492020
 4401              		.cfi_endproc
 4402              	.LFE73:
 4404              		.section	.text.f1024_8810_Out,"ax",%progbits
 4405              		.align	1
 4406              		.global	f1024_8810_Out
 4407              		.syntax unified
 4408              		.thumb
 4409              		.thumb_func
 4410              		.fpu softvfp
 4412              	f1024_8810_Out:
ARM GAS  C:\Users\86134\AppData\Local\Temp\ccuTN5uR.s 			page 106


 4413              	.LFB74:
1571:./Hardware/hardware/menu_data.c **** 
1572:./Hardware/hardware/menu_data.c **** void f1024_8810_Out(void)
1573:./Hardware/hardware/menu_data.c **** {
 4414              		.loc 1 1573 1
 4415              		.cfi_startproc
 4416              		@ args = 0, pretend = 0, frame = 8
 4417              		@ frame_needed = 1, uses_anonymous_args = 0
 4418 0000 80B5     		push	{r7, lr}
 4419              	.LCFI209:
 4420              		.cfi_def_cfa_offset 8
 4421              		.cfi_offset 7, -8
 4422              		.cfi_offset 14, -4
 4423 0002 82B0     		sub	sp, sp, #8
 4424              	.LCFI210:
 4425              		.cfi_def_cfa_offset 16
 4426 0004 00AF     		add	r7, sp, #0
 4427              	.LCFI211:
 4428              		.cfi_def_cfa_register 7
1574:./Hardware/hardware/menu_data.c **** 	uint8_t back_press_time = 0;
 4429              		.loc 1 1574 10
 4430 0006 0023     		movs	r3, #0
 4431 0008 FB71     		strb	r3, [r7, #7]
 4432              	.L426:
1575:./Hardware/hardware/menu_data.c **** 	
1576:./Hardware/hardware/menu_data.c **** 	while(1)
1577:./Hardware/hardware/menu_data.c **** 	{
1578:./Hardware/hardware/menu_data.c **** 		sd8810_f1024(IIC_TEST);
 4433              		.loc 1 1578 3
 4434 000a 0020     		movs	r0, #0
 4435 000c FFF7FEFF 		bl	sd8810_f1024
1579:./Hardware/hardware/menu_data.c **** 		OLED_Update();
 4436              		.loc 1 1579 3
 4437 0010 FFF7FEFF 		bl	OLED_Update
1580:./Hardware/hardware/menu_data.c **** 		if(Key_back == 0)
 4438              		.loc 1 1580 6
 4439 0014 0E4B     		ldr	r3, .L427
 4440 0016 1B68     		ldr	r3, [r3]
 4441              		.loc 1 1580 5
 4442 0018 002B     		cmp	r3, #0
 4443 001a 12D1     		bne	.L422
1581:./Hardware/hardware/menu_data.c **** 		{
1582:./Hardware/hardware/menu_data.c **** 			Delay_ms(10); // 消抖
 4444              		.loc 1 1582 4
 4445 001c 0A20     		movs	r0, #10
 4446 001e FFF7FEFF 		bl	Delay_ms
1583:./Hardware/hardware/menu_data.c **** 			back_press_time += 50; // 每次循环递增50ms
 4447              		.loc 1 1583 20
 4448 0022 FB79     		ldrb	r3, [r7, #7]
 4449 0024 3233     		adds	r3, r3, #50
 4450 0026 FB71     		strb	r3, [r7, #7]
1584:./Hardware/hardware/menu_data.c **** 			if(back_press_time >= 100)
 4451              		.loc 1 1584 6
 4452 0028 FB79     		ldrb	r3, [r7, #7]	@ zero_extendqisi2
 4453 002a 632B     		cmp	r3, #99
 4454 002c 05D9     		bls	.L423
1585:./Hardware/hardware/menu_data.c **** 			{
ARM GAS  C:\Users\86134\AppData\Local\Temp\ccuTN5uR.s 			page 107


1586:./Hardware/hardware/menu_data.c **** 				// 长按200ms，退出函数
1587:./Hardware/hardware/menu_data.c **** 				while(Key_back == 0); // 等待松手
 4455              		.loc 1 1587 10
 4456 002e 00BF     		nop
 4457              	.L424:
 4458              		.loc 1 1587 11 discriminator 1
 4459 0030 074B     		ldr	r3, .L427
 4460 0032 1B68     		ldr	r3, [r3]
 4461              		.loc 1 1587 10 discriminator 1
 4462 0034 002B     		cmp	r3, #0
 4463 0036 FBD0     		beq	.L424
1588:./Hardware/hardware/menu_data.c **** 				break;
 4464              		.loc 1 1588 5
 4465 0038 06E0     		b	.L421
 4466              	.L423:
1589:./Hardware/hardware/menu_data.c **** 			}
1590:./Hardware/hardware/menu_data.c **** 			sd8810_f1024_off(IIC_TEST);
 4467              		.loc 1 1590 4
 4468 003a 0020     		movs	r0, #0
 4469 003c FFF7FEFF 		bl	sd8810_f1024_off
1591:./Hardware/hardware/menu_data.c **** 			return;
 4470              		.loc 1 1591 4
 4471 0040 02E0     		b	.L421
 4472              	.L422:
1592:./Hardware/hardware/menu_data.c **** 		}
1593:./Hardware/hardware/menu_data.c **** 		else
1594:./Hardware/hardware/menu_data.c **** 		{
1595:./Hardware/hardware/menu_data.c **** 			back_press_time = 0; // 重置计时器
 4473              		.loc 1 1595 20
 4474 0042 0023     		movs	r3, #0
 4475 0044 FB71     		strb	r3, [r7, #7]
1578:./Hardware/hardware/menu_data.c **** 		OLED_Update();
 4476              		.loc 1 1578 3
 4477 0046 E0E7     		b	.L426
 4478              	.L421:
1596:./Hardware/hardware/menu_data.c **** 		}
1597:./Hardware/hardware/menu_data.c **** 	}
1598:./Hardware/hardware/menu_data.c **** }
 4479              		.loc 1 1598 1
 4480 0048 0837     		adds	r7, r7, #8
 4481              	.LCFI212:
 4482              		.cfi_def_cfa_offset 8
 4483 004a BD46     		mov	sp, r7
 4484              	.LCFI213:
 4485              		.cfi_def_cfa_register 13
 4486              		@ sp needed
 4487 004c 80BD     		pop	{r7, pc}
 4488              	.L428:
 4489 004e 00BF     		.align	2
 4490              	.L427:
 4491 0050 34812142 		.word	1109492020
 4492              		.cfi_endproc
 4493              	.LFE74:
 4495              		.section	.text.f1_8810_Out,"ax",%progbits
 4496              		.align	1
 4497              		.global	f1_8810_Out
 4498              		.syntax unified
ARM GAS  C:\Users\86134\AppData\Local\Temp\ccuTN5uR.s 			page 108


 4499              		.thumb
 4500              		.thumb_func
 4501              		.fpu softvfp
 4503              	f1_8810_Out:
 4504              	.LFB75:
1599:./Hardware/hardware/menu_data.c **** 
1600:./Hardware/hardware/menu_data.c **** void f1_8810_Out(void)
1601:./Hardware/hardware/menu_data.c **** {
 4505              		.loc 1 1601 1
 4506              		.cfi_startproc
 4507              		@ args = 0, pretend = 0, frame = 8
 4508              		@ frame_needed = 1, uses_anonymous_args = 0
 4509 0000 80B5     		push	{r7, lr}
 4510              	.LCFI214:
 4511              		.cfi_def_cfa_offset 8
 4512              		.cfi_offset 7, -8
 4513              		.cfi_offset 14, -4
 4514 0002 82B0     		sub	sp, sp, #8
 4515              	.LCFI215:
 4516              		.cfi_def_cfa_offset 16
 4517 0004 00AF     		add	r7, sp, #0
 4518              	.LCFI216:
 4519              		.cfi_def_cfa_register 7
1602:./Hardware/hardware/menu_data.c **** 	uint8_t back_press_time = 0;
 4520              		.loc 1 1602 10
 4521 0006 0023     		movs	r3, #0
 4522 0008 FB71     		strb	r3, [r7, #7]
 4523              	.L434:
1603:./Hardware/hardware/menu_data.c **** 	
1604:./Hardware/hardware/menu_data.c **** 	while(1)
1605:./Hardware/hardware/menu_data.c **** 	{
1606:./Hardware/hardware/menu_data.c **** 		sd8810_f1(IIC_TEST);
 4524              		.loc 1 1606 3
 4525 000a 0020     		movs	r0, #0
 4526 000c FFF7FEFF 		bl	sd8810_f1
1607:./Hardware/hardware/menu_data.c **** 		OLED_Update();
 4527              		.loc 1 1607 3
 4528 0010 FFF7FEFF 		bl	OLED_Update
1608:./Hardware/hardware/menu_data.c **** 		if(Key_back == 0)
 4529              		.loc 1 1608 6
 4530 0014 0E4B     		ldr	r3, .L435
 4531 0016 1B68     		ldr	r3, [r3]
 4532              		.loc 1 1608 5
 4533 0018 002B     		cmp	r3, #0
 4534 001a 12D1     		bne	.L430
1609:./Hardware/hardware/menu_data.c **** 		{
1610:./Hardware/hardware/menu_data.c **** 			Delay_ms(10); // 消抖
 4535              		.loc 1 1610 4
 4536 001c 0A20     		movs	r0, #10
 4537 001e FFF7FEFF 		bl	Delay_ms
1611:./Hardware/hardware/menu_data.c **** 			back_press_time += 50; // 每次循环递增50ms
 4538              		.loc 1 1611 20
 4539 0022 FB79     		ldrb	r3, [r7, #7]
 4540 0024 3233     		adds	r3, r3, #50
 4541 0026 FB71     		strb	r3, [r7, #7]
1612:./Hardware/hardware/menu_data.c **** 			if(back_press_time >= 100)
 4542              		.loc 1 1612 6
ARM GAS  C:\Users\86134\AppData\Local\Temp\ccuTN5uR.s 			page 109


 4543 0028 FB79     		ldrb	r3, [r7, #7]	@ zero_extendqisi2
 4544 002a 632B     		cmp	r3, #99
 4545 002c 05D9     		bls	.L431
1613:./Hardware/hardware/menu_data.c **** 			{
1614:./Hardware/hardware/menu_data.c **** 				// 长按200ms，退出函数
1615:./Hardware/hardware/menu_data.c **** 				while(Key_back == 0); // 等待松手
 4546              		.loc 1 1615 10
 4547 002e 00BF     		nop
 4548              	.L432:
 4549              		.loc 1 1615 11 discriminator 1
 4550 0030 074B     		ldr	r3, .L435
 4551 0032 1B68     		ldr	r3, [r3]
 4552              		.loc 1 1615 10 discriminator 1
 4553 0034 002B     		cmp	r3, #0
 4554 0036 FBD0     		beq	.L432
1616:./Hardware/hardware/menu_data.c **** 				break;
 4555              		.loc 1 1616 5
 4556 0038 06E0     		b	.L429
 4557              	.L431:
1617:./Hardware/hardware/menu_data.c **** 			}
1618:./Hardware/hardware/menu_data.c **** 			sd8810_f1_off(IIC_TEST);
 4558              		.loc 1 1618 4
 4559 003a 0020     		movs	r0, #0
 4560 003c FFF7FEFF 		bl	sd8810_f1_off
1619:./Hardware/hardware/menu_data.c **** 			return;
 4561              		.loc 1 1619 4
 4562 0040 02E0     		b	.L429
 4563              	.L430:
1620:./Hardware/hardware/menu_data.c **** 		}
1621:./Hardware/hardware/menu_data.c **** 		else
1622:./Hardware/hardware/menu_data.c **** 		{
1623:./Hardware/hardware/menu_data.c **** 			back_press_time = 0; // 重置计时器
 4564              		.loc 1 1623 20
 4565 0042 0023     		movs	r3, #0
 4566 0044 FB71     		strb	r3, [r7, #7]
1606:./Hardware/hardware/menu_data.c **** 		OLED_Update();
 4567              		.loc 1 1606 3
 4568 0046 E0E7     		b	.L434
 4569              	.L429:
1624:./Hardware/hardware/menu_data.c **** 		}
1625:./Hardware/hardware/menu_data.c **** 	}
1626:./Hardware/hardware/menu_data.c **** }
 4570              		.loc 1 1626 1
 4571 0048 0837     		adds	r7, r7, #8
 4572              	.LCFI217:
 4573              		.cfi_def_cfa_offset 8
 4574 004a BD46     		mov	sp, r7
 4575              	.LCFI218:
 4576              		.cfi_def_cfa_register 13
 4577              		@ sp needed
 4578 004c 80BD     		pop	{r7, pc}
 4579              	.L436:
 4580 004e 00BF     		.align	2
 4581              	.L435:
 4582 0050 34812142 		.word	1109492020
 4583              		.cfi_endproc
 4584              	.LFE75:
ARM GAS  C:\Users\86134\AppData\Local\Temp\ccuTN5uR.s 			page 110


 4586              		.section	.text.f512_8200_Out,"ax",%progbits
 4587              		.align	1
 4588              		.global	f512_8200_Out
 4589              		.syntax unified
 4590              		.thumb
 4591              		.thumb_func
 4592              		.fpu softvfp
 4594              	f512_8200_Out:
 4595              	.LFB76:
1627:./Hardware/hardware/menu_data.c **** 
1628:./Hardware/hardware/menu_data.c **** void f512_8200_Out(void)
1629:./Hardware/hardware/menu_data.c **** {
 4596              		.loc 1 1629 1
 4597              		.cfi_startproc
 4598              		@ args = 0, pretend = 0, frame = 8
 4599              		@ frame_needed = 1, uses_anonymous_args = 0
 4600 0000 80B5     		push	{r7, lr}
 4601              	.LCFI219:
 4602              		.cfi_def_cfa_offset 8
 4603              		.cfi_offset 7, -8
 4604              		.cfi_offset 14, -4
 4605 0002 82B0     		sub	sp, sp, #8
 4606              	.LCFI220:
 4607              		.cfi_def_cfa_offset 16
 4608 0004 00AF     		add	r7, sp, #0
 4609              	.LCFI221:
 4610              		.cfi_def_cfa_register 7
1630:./Hardware/hardware/menu_data.c **** 	uint8_t back_press_time = 0;
 4611              		.loc 1 1630 10
 4612 0006 0023     		movs	r3, #0
 4613 0008 FB71     		strb	r3, [r7, #7]
 4614              	.L442:
1631:./Hardware/hardware/menu_data.c **** 	
1632:./Hardware/hardware/menu_data.c **** 	while(1)
1633:./Hardware/hardware/menu_data.c **** 	{
1634:./Hardware/hardware/menu_data.c **** 		sd8200_f512(IIC_TEST);
 4615              		.loc 1 1634 3
 4616 000a 0020     		movs	r0, #0
 4617 000c FFF7FEFF 		bl	sd8200_f512
1635:./Hardware/hardware/menu_data.c **** 		OLED_Update();
 4618              		.loc 1 1635 3
 4619 0010 FFF7FEFF 		bl	OLED_Update
1636:./Hardware/hardware/menu_data.c **** 		if(Key_back == 0)
 4620              		.loc 1 1636 6
 4621 0014 0E4B     		ldr	r3, .L443
 4622 0016 1B68     		ldr	r3, [r3]
 4623              		.loc 1 1636 5
 4624 0018 002B     		cmp	r3, #0
 4625 001a 12D1     		bne	.L438
1637:./Hardware/hardware/menu_data.c **** 		{
1638:./Hardware/hardware/menu_data.c **** 			Delay_ms(10); // 消抖
 4626              		.loc 1 1638 4
 4627 001c 0A20     		movs	r0, #10
 4628 001e FFF7FEFF 		bl	Delay_ms
1639:./Hardware/hardware/menu_data.c **** 			back_press_time += 50; // 每次循环递增50ms
 4629              		.loc 1 1639 20
 4630 0022 FB79     		ldrb	r3, [r7, #7]
ARM GAS  C:\Users\86134\AppData\Local\Temp\ccuTN5uR.s 			page 111


 4631 0024 3233     		adds	r3, r3, #50
 4632 0026 FB71     		strb	r3, [r7, #7]
1640:./Hardware/hardware/menu_data.c **** 			if(back_press_time >= 100)
 4633              		.loc 1 1640 6
 4634 0028 FB79     		ldrb	r3, [r7, #7]	@ zero_extendqisi2
 4635 002a 632B     		cmp	r3, #99
 4636 002c 05D9     		bls	.L439
1641:./Hardware/hardware/menu_data.c **** 			{
1642:./Hardware/hardware/menu_data.c **** 				// 长按200ms，退出函数
1643:./Hardware/hardware/menu_data.c **** 				while(Key_back == 0); // 等待松手
 4637              		.loc 1 1643 10
 4638 002e 00BF     		nop
 4639              	.L440:
 4640              		.loc 1 1643 11 discriminator 1
 4641 0030 074B     		ldr	r3, .L443
 4642 0032 1B68     		ldr	r3, [r3]
 4643              		.loc 1 1643 10 discriminator 1
 4644 0034 002B     		cmp	r3, #0
 4645 0036 FBD0     		beq	.L440
1644:./Hardware/hardware/menu_data.c **** 				break;
 4646              		.loc 1 1644 5
 4647 0038 06E0     		b	.L437
 4648              	.L439:
1645:./Hardware/hardware/menu_data.c **** 			}
1646:./Hardware/hardware/menu_data.c **** 			sd8200_f512_off(IIC_TEST);
 4649              		.loc 1 1646 4
 4650 003a 0020     		movs	r0, #0
 4651 003c FFF7FEFF 		bl	sd8200_f512_off
1647:./Hardware/hardware/menu_data.c **** 			return;
 4652              		.loc 1 1647 4
 4653 0040 02E0     		b	.L437
 4654              	.L438:
1648:./Hardware/hardware/menu_data.c **** 		}
1649:./Hardware/hardware/menu_data.c **** 		else
1650:./Hardware/hardware/menu_data.c **** 		{
1651:./Hardware/hardware/menu_data.c **** 			back_press_time = 0; // 重置计时器
 4655              		.loc 1 1651 20
 4656 0042 0023     		movs	r3, #0
 4657 0044 FB71     		strb	r3, [r7, #7]
1634:./Hardware/hardware/menu_data.c **** 		OLED_Update();
 4658              		.loc 1 1634 3
 4659 0046 E0E7     		b	.L442
 4660              	.L437:
1652:./Hardware/hardware/menu_data.c **** 		}
1653:./Hardware/hardware/menu_data.c **** 	}
1654:./Hardware/hardware/menu_data.c **** 
1655:./Hardware/hardware/menu_data.c **** }
 4661              		.loc 1 1655 1
 4662 0048 0837     		adds	r7, r7, #8
 4663              	.LCFI222:
 4664              		.cfi_def_cfa_offset 8
 4665 004a BD46     		mov	sp, r7
 4666              	.LCFI223:
 4667              		.cfi_def_cfa_register 13
 4668              		@ sp needed
 4669 004c 80BD     		pop	{r7, pc}
 4670              	.L444:
ARM GAS  C:\Users\86134\AppData\Local\Temp\ccuTN5uR.s 			page 112


 4671 004e 00BF     		.align	2
 4672              	.L443:
 4673 0050 34812142 		.word	1109492020
 4674              		.cfi_endproc
 4675              	.LFE76:
 4677              		.section	.text.f1_8200_Out,"ax",%progbits
 4678              		.align	1
 4679              		.global	f1_8200_Out
 4680              		.syntax unified
 4681              		.thumb
 4682              		.thumb_func
 4683              		.fpu softvfp
 4685              	f1_8200_Out:
 4686              	.LFB77:
1656:./Hardware/hardware/menu_data.c **** 
1657:./Hardware/hardware/menu_data.c **** void f1_8200_Out(void)
1658:./Hardware/hardware/menu_data.c **** {
 4687              		.loc 1 1658 1
 4688              		.cfi_startproc
 4689              		@ args = 0, pretend = 0, frame = 8
 4690              		@ frame_needed = 1, uses_anonymous_args = 0
 4691 0000 80B5     		push	{r7, lr}
 4692              	.LCFI224:
 4693              		.cfi_def_cfa_offset 8
 4694              		.cfi_offset 7, -8
 4695              		.cfi_offset 14, -4
 4696 0002 82B0     		sub	sp, sp, #8
 4697              	.LCFI225:
 4698              		.cfi_def_cfa_offset 16
 4699 0004 00AF     		add	r7, sp, #0
 4700              	.LCFI226:
 4701              		.cfi_def_cfa_register 7
1659:./Hardware/hardware/menu_data.c **** 	uint8_t back_press_time = 0;
 4702              		.loc 1 1659 10
 4703 0006 0023     		movs	r3, #0
 4704 0008 FB71     		strb	r3, [r7, #7]
 4705              	.L450:
1660:./Hardware/hardware/menu_data.c **** 	
1661:./Hardware/hardware/menu_data.c **** 	while(1)
1662:./Hardware/hardware/menu_data.c **** 	{
1663:./Hardware/hardware/menu_data.c **** 		sd8200_f1(IIC_TEST);
 4706              		.loc 1 1663 3
 4707 000a 0020     		movs	r0, #0
 4708 000c FFF7FEFF 		bl	sd8200_f1
1664:./Hardware/hardware/menu_data.c **** 		OLED_Update();
 4709              		.loc 1 1664 3
 4710 0010 FFF7FEFF 		bl	OLED_Update
1665:./Hardware/hardware/menu_data.c **** 		if(Key_back == 0)
 4711              		.loc 1 1665 6
 4712 0014 0E4B     		ldr	r3, .L451
 4713 0016 1B68     		ldr	r3, [r3]
 4714              		.loc 1 1665 5
 4715 0018 002B     		cmp	r3, #0
 4716 001a 12D1     		bne	.L446
1666:./Hardware/hardware/menu_data.c **** 		{
1667:./Hardware/hardware/menu_data.c **** 			Delay_ms(10); // 消抖
 4717              		.loc 1 1667 4
ARM GAS  C:\Users\86134\AppData\Local\Temp\ccuTN5uR.s 			page 113


 4718 001c 0A20     		movs	r0, #10
 4719 001e FFF7FEFF 		bl	Delay_ms
1668:./Hardware/hardware/menu_data.c **** 			back_press_time += 50; // 每次循环递增50ms
 4720              		.loc 1 1668 20
 4721 0022 FB79     		ldrb	r3, [r7, #7]
 4722 0024 3233     		adds	r3, r3, #50
 4723 0026 FB71     		strb	r3, [r7, #7]
1669:./Hardware/hardware/menu_data.c **** 			if(back_press_time >= 100)
 4724              		.loc 1 1669 6
 4725 0028 FB79     		ldrb	r3, [r7, #7]	@ zero_extendqisi2
 4726 002a 632B     		cmp	r3, #99
 4727 002c 05D9     		bls	.L447
1670:./Hardware/hardware/menu_data.c **** 			{
1671:./Hardware/hardware/menu_data.c **** 				// 长按200ms，退出函数
1672:./Hardware/hardware/menu_data.c **** 				while(Key_back == 0); // 等待松手
 4728              		.loc 1 1672 10
 4729 002e 00BF     		nop
 4730              	.L448:
 4731              		.loc 1 1672 11 discriminator 1
 4732 0030 074B     		ldr	r3, .L451
 4733 0032 1B68     		ldr	r3, [r3]
 4734              		.loc 1 1672 10 discriminator 1
 4735 0034 002B     		cmp	r3, #0
 4736 0036 FBD0     		beq	.L448
1673:./Hardware/hardware/menu_data.c **** 				break;
 4737              		.loc 1 1673 5
 4738 0038 06E0     		b	.L445
 4739              	.L447:
1674:./Hardware/hardware/menu_data.c **** 			}
1675:./Hardware/hardware/menu_data.c **** 			sd8200_f1_off(IIC_TEST);
 4740              		.loc 1 1675 4
 4741 003a 0020     		movs	r0, #0
 4742 003c FFF7FEFF 		bl	sd8200_f1_off
1676:./Hardware/hardware/menu_data.c **** 			return;
 4743              		.loc 1 1676 4
 4744 0040 02E0     		b	.L445
 4745              	.L446:
1677:./Hardware/hardware/menu_data.c **** 		}
1678:./Hardware/hardware/menu_data.c **** 		else
1679:./Hardware/hardware/menu_data.c **** 		{
1680:./Hardware/hardware/menu_data.c **** 			back_press_time = 0; // 重置计时器
 4746              		.loc 1 1680 20
 4747 0042 0023     		movs	r3, #0
 4748 0044 FB71     		strb	r3, [r7, #7]
1663:./Hardware/hardware/menu_data.c **** 		OLED_Update();
 4749              		.loc 1 1663 3
 4750 0046 E0E7     		b	.L450
 4751              	.L445:
1681:./Hardware/hardware/menu_data.c **** 		}
1682:./Hardware/hardware/menu_data.c **** 	}
1683:./Hardware/hardware/menu_data.c **** 
1684:./Hardware/hardware/menu_data.c **** 
1685:./Hardware/hardware/menu_data.c **** }
 4752              		.loc 1 1685 1
 4753 0048 0837     		adds	r7, r7, #8
 4754              	.LCFI227:
 4755              		.cfi_def_cfa_offset 8
ARM GAS  C:\Users\86134\AppData\Local\Temp\ccuTN5uR.s 			page 114


 4756 004a BD46     		mov	sp, r7
 4757              	.LCFI228:
 4758              		.cfi_def_cfa_register 13
 4759              		@ sp needed
 4760 004c 80BD     		pop	{r7, pc}
 4761              	.L452:
 4762 004e 00BF     		.align	2
 4763              	.L451:
 4764 0050 34812142 		.word	1109492020
 4765              		.cfi_endproc
 4766              	.LFE77:
 4768              		.section	.text.f32768_8840_Out,"ax",%progbits
 4769              		.align	1
 4770              		.global	f32768_8840_Out
 4771              		.syntax unified
 4772              		.thumb
 4773              		.thumb_func
 4774              		.fpu softvfp
 4776              	f32768_8840_Out:
 4777              	.LFB78:
1686:./Hardware/hardware/menu_data.c **** 
1687:./Hardware/hardware/menu_data.c **** void f32768_8840_Out(void)
1688:./Hardware/hardware/menu_data.c **** {
 4778              		.loc 1 1688 1
 4779              		.cfi_startproc
 4780              		@ args = 0, pretend = 0, frame = 8
 4781              		@ frame_needed = 1, uses_anonymous_args = 0
 4782 0000 80B5     		push	{r7, lr}
 4783              	.LCFI229:
 4784              		.cfi_def_cfa_offset 8
 4785              		.cfi_offset 7, -8
 4786              		.cfi_offset 14, -4
 4787 0002 82B0     		sub	sp, sp, #8
 4788              	.LCFI230:
 4789              		.cfi_def_cfa_offset 16
 4790 0004 00AF     		add	r7, sp, #0
 4791              	.LCFI231:
 4792              		.cfi_def_cfa_register 7
1689:./Hardware/hardware/menu_data.c **** 	uint8_t back_press_time = 0;
 4793              		.loc 1 1689 10
 4794 0006 0023     		movs	r3, #0
 4795 0008 FB71     		strb	r3, [r7, #7]
 4796              	.L458:
1690:./Hardware/hardware/menu_data.c **** 	
1691:./Hardware/hardware/menu_data.c **** 	while(1)
1692:./Hardware/hardware/menu_data.c **** 	{
1693:./Hardware/hardware/menu_data.c **** 		sd8840_f32768();
 4797              		.loc 1 1693 3
 4798 000a FFF7FEFF 		bl	sd8840_f32768
1694:./Hardware/hardware/menu_data.c **** 		OLED_Update();
 4799              		.loc 1 1694 3
 4800 000e FFF7FEFF 		bl	OLED_Update
1695:./Hardware/hardware/menu_data.c **** 		if(Key_back == 0)
 4801              		.loc 1 1695 6
 4802 0012 0E4B     		ldr	r3, .L459
 4803 0014 1B68     		ldr	r3, [r3]
 4804              		.loc 1 1695 5
ARM GAS  C:\Users\86134\AppData\Local\Temp\ccuTN5uR.s 			page 115


 4805 0016 002B     		cmp	r3, #0
 4806 0018 11D1     		bne	.L454
1696:./Hardware/hardware/menu_data.c **** 		{
1697:./Hardware/hardware/menu_data.c **** 			Delay_ms(10); // 消抖
 4807              		.loc 1 1697 4
 4808 001a 0A20     		movs	r0, #10
 4809 001c FFF7FEFF 		bl	Delay_ms
1698:./Hardware/hardware/menu_data.c **** 			back_press_time += 50; // 每次循环递增50ms
 4810              		.loc 1 1698 20
 4811 0020 FB79     		ldrb	r3, [r7, #7]
 4812 0022 3233     		adds	r3, r3, #50
 4813 0024 FB71     		strb	r3, [r7, #7]
1699:./Hardware/hardware/menu_data.c **** 			if(back_press_time >= 100)
 4814              		.loc 1 1699 6
 4815 0026 FB79     		ldrb	r3, [r7, #7]	@ zero_extendqisi2
 4816 0028 632B     		cmp	r3, #99
 4817 002a 05D9     		bls	.L455
1700:./Hardware/hardware/menu_data.c **** 			{
1701:./Hardware/hardware/menu_data.c **** 				// 长按200ms，退出函数
1702:./Hardware/hardware/menu_data.c **** 				while(Key_back == 0); // 等待松手
 4818              		.loc 1 1702 10
 4819 002c 00BF     		nop
 4820              	.L456:
 4821              		.loc 1 1702 11 discriminator 1
 4822 002e 074B     		ldr	r3, .L459
 4823 0030 1B68     		ldr	r3, [r3]
 4824              		.loc 1 1702 10 discriminator 1
 4825 0032 002B     		cmp	r3, #0
 4826 0034 FBD0     		beq	.L456
1703:./Hardware/hardware/menu_data.c **** 				break;
 4827              		.loc 1 1703 5
 4828 0036 05E0     		b	.L453
 4829              	.L455:
1704:./Hardware/hardware/menu_data.c **** 			}
1705:./Hardware/hardware/menu_data.c **** 			sd8840_f32768_off();
 4830              		.loc 1 1705 4
 4831 0038 FFF7FEFF 		bl	sd8840_f32768_off
1706:./Hardware/hardware/menu_data.c **** 			return;
 4832              		.loc 1 1706 4
 4833 003c 02E0     		b	.L453
 4834              	.L454:
1707:./Hardware/hardware/menu_data.c **** 		}
1708:./Hardware/hardware/menu_data.c **** 		else
1709:./Hardware/hardware/menu_data.c **** 		{
1710:./Hardware/hardware/menu_data.c **** 			back_press_time = 0; // 重置计时器
 4835              		.loc 1 1710 20
 4836 003e 0023     		movs	r3, #0
 4837 0040 FB71     		strb	r3, [r7, #7]
1693:./Hardware/hardware/menu_data.c **** 		OLED_Update();
 4838              		.loc 1 1693 3
 4839 0042 E2E7     		b	.L458
 4840              	.L453:
1711:./Hardware/hardware/menu_data.c **** 		}
1712:./Hardware/hardware/menu_data.c **** 	}
1713:./Hardware/hardware/menu_data.c **** 
1714:./Hardware/hardware/menu_data.c **** }
 4841              		.loc 1 1714 1
ARM GAS  C:\Users\86134\AppData\Local\Temp\ccuTN5uR.s 			page 116


 4842 0044 0837     		adds	r7, r7, #8
 4843              	.LCFI232:
 4844              		.cfi_def_cfa_offset 8
 4845 0046 BD46     		mov	sp, r7
 4846              	.LCFI233:
 4847              		.cfi_def_cfa_register 13
 4848              		@ sp needed
 4849 0048 80BD     		pop	{r7, pc}
 4850              	.L460:
 4851 004a 00BF     		.align	2
 4852              	.L459:
 4853 004c 34812142 		.word	1109492020
 4854              		.cfi_endproc
 4855              	.LFE78:
 4857              		.section	.text.f1024_8840_Out,"ax",%progbits
 4858              		.align	1
 4859              		.global	f1024_8840_Out
 4860              		.syntax unified
 4861              		.thumb
 4862              		.thumb_func
 4863              		.fpu softvfp
 4865              	f1024_8840_Out:
 4866              	.LFB79:
1715:./Hardware/hardware/menu_data.c **** 
1716:./Hardware/hardware/menu_data.c **** void f1024_8840_Out(void)
1717:./Hardware/hardware/menu_data.c **** {
 4867              		.loc 1 1717 1
 4868              		.cfi_startproc
 4869              		@ args = 0, pretend = 0, frame = 8
 4870              		@ frame_needed = 1, uses_anonymous_args = 0
 4871 0000 80B5     		push	{r7, lr}
 4872              	.LCFI234:
 4873              		.cfi_def_cfa_offset 8
 4874              		.cfi_offset 7, -8
 4875              		.cfi_offset 14, -4
 4876 0002 82B0     		sub	sp, sp, #8
 4877              	.LCFI235:
 4878              		.cfi_def_cfa_offset 16
 4879 0004 00AF     		add	r7, sp, #0
 4880              	.LCFI236:
 4881              		.cfi_def_cfa_register 7
1718:./Hardware/hardware/menu_data.c **** 	uint8_t back_press_time = 0;
 4882              		.loc 1 1718 10
 4883 0006 0023     		movs	r3, #0
 4884 0008 FB71     		strb	r3, [r7, #7]
 4885              	.L466:
1719:./Hardware/hardware/menu_data.c **** 	
1720:./Hardware/hardware/menu_data.c **** 	while(1)
1721:./Hardware/hardware/menu_data.c **** 	{
1722:./Hardware/hardware/menu_data.c **** 		sd8840_f1024();
 4886              		.loc 1 1722 3
 4887 000a FFF7FEFF 		bl	sd8840_f1024
1723:./Hardware/hardware/menu_data.c **** 		OLED_Update();
 4888              		.loc 1 1723 3
 4889 000e FFF7FEFF 		bl	OLED_Update
1724:./Hardware/hardware/menu_data.c **** 		if(Key_back == 0)
 4890              		.loc 1 1724 6
ARM GAS  C:\Users\86134\AppData\Local\Temp\ccuTN5uR.s 			page 117


 4891 0012 0E4B     		ldr	r3, .L467
 4892 0014 1B68     		ldr	r3, [r3]
 4893              		.loc 1 1724 5
 4894 0016 002B     		cmp	r3, #0
 4895 0018 11D1     		bne	.L462
1725:./Hardware/hardware/menu_data.c **** 		{
1726:./Hardware/hardware/menu_data.c **** 			Delay_ms(10); // 消抖
 4896              		.loc 1 1726 4
 4897 001a 0A20     		movs	r0, #10
 4898 001c FFF7FEFF 		bl	Delay_ms
1727:./Hardware/hardware/menu_data.c **** 			back_press_time += 50; // 每次循环递增50ms
 4899              		.loc 1 1727 20
 4900 0020 FB79     		ldrb	r3, [r7, #7]
 4901 0022 3233     		adds	r3, r3, #50
 4902 0024 FB71     		strb	r3, [r7, #7]
1728:./Hardware/hardware/menu_data.c **** 			if(back_press_time >= 100)
 4903              		.loc 1 1728 6
 4904 0026 FB79     		ldrb	r3, [r7, #7]	@ zero_extendqisi2
 4905 0028 632B     		cmp	r3, #99
 4906 002a 05D9     		bls	.L463
1729:./Hardware/hardware/menu_data.c **** 			{
1730:./Hardware/hardware/menu_data.c **** 				// 长按200ms，退出函数
1731:./Hardware/hardware/menu_data.c **** 				while(Key_back == 0); // 等待松手
 4907              		.loc 1 1731 10
 4908 002c 00BF     		nop
 4909              	.L464:
 4910              		.loc 1 1731 11 discriminator 1
 4911 002e 074B     		ldr	r3, .L467
 4912 0030 1B68     		ldr	r3, [r3]
 4913              		.loc 1 1731 10 discriminator 1
 4914 0032 002B     		cmp	r3, #0
 4915 0034 FBD0     		beq	.L464
1732:./Hardware/hardware/menu_data.c **** 				break;
 4916              		.loc 1 1732 5
 4917 0036 05E0     		b	.L461
 4918              	.L463:
1733:./Hardware/hardware/menu_data.c **** 			}
1734:./Hardware/hardware/menu_data.c **** 			sd8840_f1024_off();
 4919              		.loc 1 1734 4
 4920 0038 FFF7FEFF 		bl	sd8840_f1024_off
1735:./Hardware/hardware/menu_data.c **** 			return;
 4921              		.loc 1 1735 4
 4922 003c 02E0     		b	.L461
 4923              	.L462:
1736:./Hardware/hardware/menu_data.c **** 		}
1737:./Hardware/hardware/menu_data.c **** 		else
1738:./Hardware/hardware/menu_data.c **** 		{
1739:./Hardware/hardware/menu_data.c **** 			back_press_time = 0; // 重置计时器
 4924              		.loc 1 1739 20
 4925 003e 0023     		movs	r3, #0
 4926 0040 FB71     		strb	r3, [r7, #7]
1722:./Hardware/hardware/menu_data.c **** 		OLED_Update();
 4927              		.loc 1 1722 3
 4928 0042 E2E7     		b	.L466
 4929              	.L461:
1740:./Hardware/hardware/menu_data.c **** 		}
1741:./Hardware/hardware/menu_data.c **** 	}
ARM GAS  C:\Users\86134\AppData\Local\Temp\ccuTN5uR.s 			page 118


1742:./Hardware/hardware/menu_data.c **** 
1743:./Hardware/hardware/menu_data.c **** 
1744:./Hardware/hardware/menu_data.c **** }
 4930              		.loc 1 1744 1
 4931 0044 0837     		adds	r7, r7, #8
 4932              	.LCFI237:
 4933              		.cfi_def_cfa_offset 8
 4934 0046 BD46     		mov	sp, r7
 4935              	.LCFI238:
 4936              		.cfi_def_cfa_register 13
 4937              		@ sp needed
 4938 0048 80BD     		pop	{r7, pc}
 4939              	.L468:
 4940 004a 00BF     		.align	2
 4941              	.L467:
 4942 004c 34812142 		.word	1109492020
 4943              		.cfi_endproc
 4944              	.LFE79:
 4946              		.section	.text.f1_8840_Out,"ax",%progbits
 4947              		.align	1
 4948              		.global	f1_8840_Out
 4949              		.syntax unified
 4950              		.thumb
 4951              		.thumb_func
 4952              		.fpu softvfp
 4954              	f1_8840_Out:
 4955              	.LFB80:
1745:./Hardware/hardware/menu_data.c **** 
1746:./Hardware/hardware/menu_data.c **** void f1_8840_Out(void)
1747:./Hardware/hardware/menu_data.c **** {
 4956              		.loc 1 1747 1
 4957              		.cfi_startproc
 4958              		@ args = 0, pretend = 0, frame = 8
 4959              		@ frame_needed = 1, uses_anonymous_args = 0
 4960 0000 80B5     		push	{r7, lr}
 4961              	.LCFI239:
 4962              		.cfi_def_cfa_offset 8
 4963              		.cfi_offset 7, -8
 4964              		.cfi_offset 14, -4
 4965 0002 82B0     		sub	sp, sp, #8
 4966              	.LCFI240:
 4967              		.cfi_def_cfa_offset 16
 4968 0004 00AF     		add	r7, sp, #0
 4969              	.LCFI241:
 4970              		.cfi_def_cfa_register 7
1748:./Hardware/hardware/menu_data.c **** 	uint8_t back_press_time = 0;
 4971              		.loc 1 1748 10
 4972 0006 0023     		movs	r3, #0
 4973 0008 FB71     		strb	r3, [r7, #7]
 4974              	.L474:
1749:./Hardware/hardware/menu_data.c **** 	
1750:./Hardware/hardware/menu_data.c **** 	while(1)
1751:./Hardware/hardware/menu_data.c **** 	{
1752:./Hardware/hardware/menu_data.c **** 		sd8840_f1();
 4975              		.loc 1 1752 3
 4976 000a FFF7FEFF 		bl	sd8840_f1
1753:./Hardware/hardware/menu_data.c **** 		OLED_Update();
ARM GAS  C:\Users\86134\AppData\Local\Temp\ccuTN5uR.s 			page 119


 4977              		.loc 1 1753 3
 4978 000e FFF7FEFF 		bl	OLED_Update
1754:./Hardware/hardware/menu_data.c **** 		if(Key_back == 0)
 4979              		.loc 1 1754 6
 4980 0012 0E4B     		ldr	r3, .L475
 4981 0014 1B68     		ldr	r3, [r3]
 4982              		.loc 1 1754 5
 4983 0016 002B     		cmp	r3, #0
 4984 0018 11D1     		bne	.L470
1755:./Hardware/hardware/menu_data.c **** 		{
1756:./Hardware/hardware/menu_data.c **** 			Delay_ms(10); // 消抖
 4985              		.loc 1 1756 4
 4986 001a 0A20     		movs	r0, #10
 4987 001c FFF7FEFF 		bl	Delay_ms
1757:./Hardware/hardware/menu_data.c **** 			back_press_time += 50; // 每次循环递增50ms
 4988              		.loc 1 1757 20
 4989 0020 FB79     		ldrb	r3, [r7, #7]
 4990 0022 3233     		adds	r3, r3, #50
 4991 0024 FB71     		strb	r3, [r7, #7]
1758:./Hardware/hardware/menu_data.c **** 			if(back_press_time >= 100)
 4992              		.loc 1 1758 6
 4993 0026 FB79     		ldrb	r3, [r7, #7]	@ zero_extendqisi2
 4994 0028 632B     		cmp	r3, #99
 4995 002a 05D9     		bls	.L471
1759:./Hardware/hardware/menu_data.c **** 			{
1760:./Hardware/hardware/menu_data.c **** 				// 长按200ms，退出函数
1761:./Hardware/hardware/menu_data.c **** 				while(Key_back == 0); // 等待松手
 4996              		.loc 1 1761 10
 4997 002c 00BF     		nop
 4998              	.L472:
 4999              		.loc 1 1761 11 discriminator 1
 5000 002e 074B     		ldr	r3, .L475
 5001 0030 1B68     		ldr	r3, [r3]
 5002              		.loc 1 1761 10 discriminator 1
 5003 0032 002B     		cmp	r3, #0
 5004 0034 FBD0     		beq	.L472
1762:./Hardware/hardware/menu_data.c **** 				break;
 5005              		.loc 1 1762 5
 5006 0036 05E0     		b	.L469
 5007              	.L471:
1763:./Hardware/hardware/menu_data.c **** 			}
1764:./Hardware/hardware/menu_data.c **** 			sd8840_f1_off();
 5008              		.loc 1 1764 4
 5009 0038 FFF7FEFF 		bl	sd8840_f1_off
1765:./Hardware/hardware/menu_data.c **** 			return;
 5010              		.loc 1 1765 4
 5011 003c 02E0     		b	.L469
 5012              	.L470:
1766:./Hardware/hardware/menu_data.c **** 		}
1767:./Hardware/hardware/menu_data.c **** 		else
1768:./Hardware/hardware/menu_data.c **** 		{
1769:./Hardware/hardware/menu_data.c **** 			back_press_time = 0; // 重置计时器
 5013              		.loc 1 1769 20
 5014 003e 0023     		movs	r3, #0
 5015 0040 FB71     		strb	r3, [r7, #7]
1752:./Hardware/hardware/menu_data.c **** 		OLED_Update();
 5016              		.loc 1 1752 3
ARM GAS  C:\Users\86134\AppData\Local\Temp\ccuTN5uR.s 			page 120


 5017 0042 E2E7     		b	.L474
 5018              	.L469:
1770:./Hardware/hardware/menu_data.c **** 		}
1771:./Hardware/hardware/menu_data.c **** 	}
1772:./Hardware/hardware/menu_data.c **** 
1773:./Hardware/hardware/menu_data.c **** 
1774:./Hardware/hardware/menu_data.c **** }
 5019              		.loc 1 1774 1
 5020 0044 0837     		adds	r7, r7, #8
 5021              	.LCFI242:
 5022              		.cfi_def_cfa_offset 8
 5023 0046 BD46     		mov	sp, r7
 5024              	.LCFI243:
 5025              		.cfi_def_cfa_register 13
 5026              		@ sp needed
 5027 0048 80BD     		pop	{r7, pc}
 5028              	.L476:
 5029 004a 00BF     		.align	2
 5030              	.L475:
 5031 004c 34812142 		.word	1109492020
 5032              		.cfi_endproc
 5033              	.LFE80:
 5035              		.section	.text.f8192_8931_Out,"ax",%progbits
 5036              		.align	1
 5037              		.global	f8192_8931_Out
 5038              		.syntax unified
 5039              		.thumb
 5040              		.thumb_func
 5041              		.fpu softvfp
 5043              	f8192_8931_Out:
 5044              	.LFB81:
1775:./Hardware/hardware/menu_data.c **** 
1776:./Hardware/hardware/menu_data.c **** void f8192_8931_Out(void)
1777:./Hardware/hardware/menu_data.c **** {
 5045              		.loc 1 1777 1
 5046              		.cfi_startproc
 5047              		@ args = 0, pretend = 0, frame = 8
 5048              		@ frame_needed = 1, uses_anonymous_args = 0
 5049 0000 80B5     		push	{r7, lr}
 5050              	.LCFI244:
 5051              		.cfi_def_cfa_offset 8
 5052              		.cfi_offset 7, -8
 5053              		.cfi_offset 14, -4
 5054 0002 82B0     		sub	sp, sp, #8
 5055              	.LCFI245:
 5056              		.cfi_def_cfa_offset 16
 5057 0004 00AF     		add	r7, sp, #0
 5058              	.LCFI246:
 5059              		.cfi_def_cfa_register 7
1778:./Hardware/hardware/menu_data.c **** 	uint8_t back_press_time = 0;
 5060              		.loc 1 1778 10
 5061 0006 0023     		movs	r3, #0
 5062 0008 FB71     		strb	r3, [r7, #7]
 5063              	.L482:
1779:./Hardware/hardware/menu_data.c **** 	
1780:./Hardware/hardware/menu_data.c **** 	while(1)
1781:./Hardware/hardware/menu_data.c **** 	{
ARM GAS  C:\Users\86134\AppData\Local\Temp\ccuTN5uR.s 			page 121


1782:./Hardware/hardware/menu_data.c **** 		sd8931_f8192(IIC_TEST);
 5064              		.loc 1 1782 3
 5065 000a 0020     		movs	r0, #0
 5066 000c FFF7FEFF 		bl	sd8931_f8192
1783:./Hardware/hardware/menu_data.c **** 		OLED_Update();
 5067              		.loc 1 1783 3
 5068 0010 FFF7FEFF 		bl	OLED_Update
1784:./Hardware/hardware/menu_data.c **** 		if(Key_back == 0)
 5069              		.loc 1 1784 6
 5070 0014 0E4B     		ldr	r3, .L483
 5071 0016 1B68     		ldr	r3, [r3]
 5072              		.loc 1 1784 5
 5073 0018 002B     		cmp	r3, #0
 5074 001a 12D1     		bne	.L478
1785:./Hardware/hardware/menu_data.c **** 		{
1786:./Hardware/hardware/menu_data.c **** 			Delay_ms(10); // 消抖
 5075              		.loc 1 1786 4
 5076 001c 0A20     		movs	r0, #10
 5077 001e FFF7FEFF 		bl	Delay_ms
1787:./Hardware/hardware/menu_data.c **** 			back_press_time += 50; // 每次循环递增50ms
 5078              		.loc 1 1787 20
 5079 0022 FB79     		ldrb	r3, [r7, #7]
 5080 0024 3233     		adds	r3, r3, #50
 5081 0026 FB71     		strb	r3, [r7, #7]
1788:./Hardware/hardware/menu_data.c **** 			if(back_press_time >= 100)
 5082              		.loc 1 1788 6
 5083 0028 FB79     		ldrb	r3, [r7, #7]	@ zero_extendqisi2
 5084 002a 632B     		cmp	r3, #99
 5085 002c 05D9     		bls	.L479
1789:./Hardware/hardware/menu_data.c **** 			{
1790:./Hardware/hardware/menu_data.c **** 				// 长按200ms，退出函数
1791:./Hardware/hardware/menu_data.c **** 				while(Key_back == 0); // 等待松手
 5086              		.loc 1 1791 10
 5087 002e 00BF     		nop
 5088              	.L480:
 5089              		.loc 1 1791 11 discriminator 1
 5090 0030 074B     		ldr	r3, .L483
 5091 0032 1B68     		ldr	r3, [r3]
 5092              		.loc 1 1791 10 discriminator 1
 5093 0034 002B     		cmp	r3, #0
 5094 0036 FBD0     		beq	.L480
1792:./Hardware/hardware/menu_data.c **** 				break;
 5095              		.loc 1 1792 5
 5096 0038 06E0     		b	.L477
 5097              	.L479:
1793:./Hardware/hardware/menu_data.c **** 			}
1794:./Hardware/hardware/menu_data.c **** 			sd8931_f8192_off(IIC_TEST);
 5098              		.loc 1 1794 4
 5099 003a 0020     		movs	r0, #0
 5100 003c FFF7FEFF 		bl	sd8931_f8192_off
1795:./Hardware/hardware/menu_data.c **** 			return;
 5101              		.loc 1 1795 4
 5102 0040 02E0     		b	.L477
 5103              	.L478:
1796:./Hardware/hardware/menu_data.c **** 		}
1797:./Hardware/hardware/menu_data.c **** 		else
1798:./Hardware/hardware/menu_data.c **** 		{
ARM GAS  C:\Users\86134\AppData\Local\Temp\ccuTN5uR.s 			page 122


1799:./Hardware/hardware/menu_data.c **** 			back_press_time = 0; // 重置计时器
 5104              		.loc 1 1799 20
 5105 0042 0023     		movs	r3, #0
 5106 0044 FB71     		strb	r3, [r7, #7]
1782:./Hardware/hardware/menu_data.c **** 		OLED_Update();
 5107              		.loc 1 1782 3
 5108 0046 E0E7     		b	.L482
 5109              	.L477:
1800:./Hardware/hardware/menu_data.c **** 		}
1801:./Hardware/hardware/menu_data.c **** 	}
1802:./Hardware/hardware/menu_data.c **** }
 5110              		.loc 1 1802 1
 5111 0048 0837     		adds	r7, r7, #8
 5112              	.LCFI247:
 5113              		.cfi_def_cfa_offset 8
 5114 004a BD46     		mov	sp, r7
 5115              	.LCFI248:
 5116              		.cfi_def_cfa_register 13
 5117              		@ sp needed
 5118 004c 80BD     		pop	{r7, pc}
 5119              	.L484:
 5120 004e 00BF     		.align	2
 5121              	.L483:
 5122 0050 34812142 		.word	1109492020
 5123              		.cfi_endproc
 5124              	.LFE81:
 5126              		.section	.text.f4096_8931_Out,"ax",%progbits
 5127              		.align	1
 5128              		.global	f4096_8931_Out
 5129              		.syntax unified
 5130              		.thumb
 5131              		.thumb_func
 5132              		.fpu softvfp
 5134              	f4096_8931_Out:
 5135              	.LFB82:
1803:./Hardware/hardware/menu_data.c **** 
1804:./Hardware/hardware/menu_data.c **** void f4096_8931_Out(void)
1805:./Hardware/hardware/menu_data.c **** {
 5136              		.loc 1 1805 1
 5137              		.cfi_startproc
 5138              		@ args = 0, pretend = 0, frame = 8
 5139              		@ frame_needed = 1, uses_anonymous_args = 0
 5140 0000 80B5     		push	{r7, lr}
 5141              	.LCFI249:
 5142              		.cfi_def_cfa_offset 8
 5143              		.cfi_offset 7, -8
 5144              		.cfi_offset 14, -4
 5145 0002 82B0     		sub	sp, sp, #8
 5146              	.LCFI250:
 5147              		.cfi_def_cfa_offset 16
 5148 0004 00AF     		add	r7, sp, #0
 5149              	.LCFI251:
 5150              		.cfi_def_cfa_register 7
1806:./Hardware/hardware/menu_data.c **** 	uint8_t back_press_time = 0;
 5151              		.loc 1 1806 10
 5152 0006 0023     		movs	r3, #0
 5153 0008 FB71     		strb	r3, [r7, #7]
ARM GAS  C:\Users\86134\AppData\Local\Temp\ccuTN5uR.s 			page 123


 5154              	.L490:
1807:./Hardware/hardware/menu_data.c **** 	
1808:./Hardware/hardware/menu_data.c **** 	while(1)
1809:./Hardware/hardware/menu_data.c **** 	{
1810:./Hardware/hardware/menu_data.c **** 		sd8931_f4096(IIC_TEST);
 5155              		.loc 1 1810 3
 5156 000a 0020     		movs	r0, #0
 5157 000c FFF7FEFF 		bl	sd8931_f4096
1811:./Hardware/hardware/menu_data.c **** 		OLED_Update();
 5158              		.loc 1 1811 3
 5159 0010 FFF7FEFF 		bl	OLED_Update
1812:./Hardware/hardware/menu_data.c **** 		if(Key_back == 0)
 5160              		.loc 1 1812 6
 5161 0014 0E4B     		ldr	r3, .L491
 5162 0016 1B68     		ldr	r3, [r3]
 5163              		.loc 1 1812 5
 5164 0018 002B     		cmp	r3, #0
 5165 001a 12D1     		bne	.L486
1813:./Hardware/hardware/menu_data.c **** 		{
1814:./Hardware/hardware/menu_data.c **** 			Delay_ms(10); // 消抖
 5166              		.loc 1 1814 4
 5167 001c 0A20     		movs	r0, #10
 5168 001e FFF7FEFF 		bl	Delay_ms
1815:./Hardware/hardware/menu_data.c **** 			back_press_time += 50; // 每次循环递增50ms
 5169              		.loc 1 1815 20
 5170 0022 FB79     		ldrb	r3, [r7, #7]
 5171 0024 3233     		adds	r3, r3, #50
 5172 0026 FB71     		strb	r3, [r7, #7]
1816:./Hardware/hardware/menu_data.c **** 			if(back_press_time >= 100)
 5173              		.loc 1 1816 6
 5174 0028 FB79     		ldrb	r3, [r7, #7]	@ zero_extendqisi2
 5175 002a 632B     		cmp	r3, #99
 5176 002c 05D9     		bls	.L487
1817:./Hardware/hardware/menu_data.c **** 			{
1818:./Hardware/hardware/menu_data.c **** 				// 长按200ms，退出函数
1819:./Hardware/hardware/menu_data.c **** 				while(Key_back == 0); // 等待松手
 5177              		.loc 1 1819 10
 5178 002e 00BF     		nop
 5179              	.L488:
 5180              		.loc 1 1819 11 discriminator 1
 5181 0030 074B     		ldr	r3, .L491
 5182 0032 1B68     		ldr	r3, [r3]
 5183              		.loc 1 1819 10 discriminator 1
 5184 0034 002B     		cmp	r3, #0
 5185 0036 FBD0     		beq	.L488
1820:./Hardware/hardware/menu_data.c **** 				break;
 5186              		.loc 1 1820 5
 5187 0038 06E0     		b	.L485
 5188              	.L487:
1821:./Hardware/hardware/menu_data.c **** 			}
1822:./Hardware/hardware/menu_data.c **** 			sd8931_f4096_off(IIC_TEST);
 5189              		.loc 1 1822 4
 5190 003a 0020     		movs	r0, #0
 5191 003c FFF7FEFF 		bl	sd8931_f4096_off
1823:./Hardware/hardware/menu_data.c **** 			return;
 5192              		.loc 1 1823 4
 5193 0040 02E0     		b	.L485
ARM GAS  C:\Users\86134\AppData\Local\Temp\ccuTN5uR.s 			page 124


 5194              	.L486:
1824:./Hardware/hardware/menu_data.c **** 		}
1825:./Hardware/hardware/menu_data.c **** 		else
1826:./Hardware/hardware/menu_data.c **** 		{
1827:./Hardware/hardware/menu_data.c **** 			back_press_time = 0; // 重置计时器
 5195              		.loc 1 1827 20
 5196 0042 0023     		movs	r3, #0
 5197 0044 FB71     		strb	r3, [r7, #7]
1810:./Hardware/hardware/menu_data.c **** 		OLED_Update();
 5198              		.loc 1 1810 3
 5199 0046 E0E7     		b	.L490
 5200              	.L485:
1828:./Hardware/hardware/menu_data.c **** 		}
1829:./Hardware/hardware/menu_data.c **** 	}
1830:./Hardware/hardware/menu_data.c **** 
1831:./Hardware/hardware/menu_data.c **** }
 5201              		.loc 1 1831 1
 5202 0048 0837     		adds	r7, r7, #8
 5203              	.LCFI252:
 5204              		.cfi_def_cfa_offset 8
 5205 004a BD46     		mov	sp, r7
 5206              	.LCFI253:
 5207              		.cfi_def_cfa_register 13
 5208              		@ sp needed
 5209 004c 80BD     		pop	{r7, pc}
 5210              	.L492:
 5211 004e 00BF     		.align	2
 5212              	.L491:
 5213 0050 34812142 		.word	1109492020
 5214              		.cfi_endproc
 5215              	.LFE82:
 5217              		.section	.text.f1024_8931_Out,"ax",%progbits
 5218              		.align	1
 5219              		.global	f1024_8931_Out
 5220              		.syntax unified
 5221              		.thumb
 5222              		.thumb_func
 5223              		.fpu softvfp
 5225              	f1024_8931_Out:
 5226              	.LFB83:
1832:./Hardware/hardware/menu_data.c **** 
1833:./Hardware/hardware/menu_data.c **** void f1024_8931_Out(void)
1834:./Hardware/hardware/menu_data.c **** {
 5227              		.loc 1 1834 1
 5228              		.cfi_startproc
 5229              		@ args = 0, pretend = 0, frame = 8
 5230              		@ frame_needed = 1, uses_anonymous_args = 0
 5231 0000 80B5     		push	{r7, lr}
 5232              	.LCFI254:
 5233              		.cfi_def_cfa_offset 8
 5234              		.cfi_offset 7, -8
 5235              		.cfi_offset 14, -4
 5236 0002 82B0     		sub	sp, sp, #8
 5237              	.LCFI255:
 5238              		.cfi_def_cfa_offset 16
 5239 0004 00AF     		add	r7, sp, #0
 5240              	.LCFI256:
ARM GAS  C:\Users\86134\AppData\Local\Temp\ccuTN5uR.s 			page 125


 5241              		.cfi_def_cfa_register 7
1835:./Hardware/hardware/menu_data.c **** 	uint8_t back_press_time = 0;
 5242              		.loc 1 1835 10
 5243 0006 0023     		movs	r3, #0
 5244 0008 FB71     		strb	r3, [r7, #7]
 5245              	.L498:
1836:./Hardware/hardware/menu_data.c **** 	
1837:./Hardware/hardware/menu_data.c **** 	while(1)
1838:./Hardware/hardware/menu_data.c **** 	{
1839:./Hardware/hardware/menu_data.c **** 		sd8931_f1024(IIC_TEST);
 5246              		.loc 1 1839 3
 5247 000a 0020     		movs	r0, #0
 5248 000c FFF7FEFF 		bl	sd8931_f1024
1840:./Hardware/hardware/menu_data.c **** 		OLED_Update();
 5249              		.loc 1 1840 3
 5250 0010 FFF7FEFF 		bl	OLED_Update
1841:./Hardware/hardware/menu_data.c **** 		if(Key_back == 0)
 5251              		.loc 1 1841 6
 5252 0014 0E4B     		ldr	r3, .L499
 5253 0016 1B68     		ldr	r3, [r3]
 5254              		.loc 1 1841 5
 5255 0018 002B     		cmp	r3, #0
 5256 001a 12D1     		bne	.L494
1842:./Hardware/hardware/menu_data.c **** 		{
1843:./Hardware/hardware/menu_data.c **** 			Delay_ms(10); // 消抖
 5257              		.loc 1 1843 4
 5258 001c 0A20     		movs	r0, #10
 5259 001e FFF7FEFF 		bl	Delay_ms
1844:./Hardware/hardware/menu_data.c **** 			back_press_time += 50; // 每次循环递增50ms
 5260              		.loc 1 1844 20
 5261 0022 FB79     		ldrb	r3, [r7, #7]
 5262 0024 3233     		adds	r3, r3, #50
 5263 0026 FB71     		strb	r3, [r7, #7]
1845:./Hardware/hardware/menu_data.c **** 			if(back_press_time >= 100)
 5264              		.loc 1 1845 6
 5265 0028 FB79     		ldrb	r3, [r7, #7]	@ zero_extendqisi2
 5266 002a 632B     		cmp	r3, #99
 5267 002c 05D9     		bls	.L495
1846:./Hardware/hardware/menu_data.c **** 			{
1847:./Hardware/hardware/menu_data.c **** 				// 长按200ms，退出函数
1848:./Hardware/hardware/menu_data.c **** 				while(Key_back == 0); // 等待松手
 5268              		.loc 1 1848 10
 5269 002e 00BF     		nop
 5270              	.L496:
 5271              		.loc 1 1848 11 discriminator 1
 5272 0030 074B     		ldr	r3, .L499
 5273 0032 1B68     		ldr	r3, [r3]
 5274              		.loc 1 1848 10 discriminator 1
 5275 0034 002B     		cmp	r3, #0
 5276 0036 FBD0     		beq	.L496
1849:./Hardware/hardware/menu_data.c **** 				break;
 5277              		.loc 1 1849 5
 5278 0038 06E0     		b	.L493
 5279              	.L495:
1850:./Hardware/hardware/menu_data.c **** 			}
1851:./Hardware/hardware/menu_data.c **** 			sd8931_f1024_off(IIC_TEST);
 5280              		.loc 1 1851 4
ARM GAS  C:\Users\86134\AppData\Local\Temp\ccuTN5uR.s 			page 126


 5281 003a 0020     		movs	r0, #0
 5282 003c FFF7FEFF 		bl	sd8931_f1024_off
1852:./Hardware/hardware/menu_data.c **** 			return;
 5283              		.loc 1 1852 4
 5284 0040 02E0     		b	.L493
 5285              	.L494:
1853:./Hardware/hardware/menu_data.c **** 		}
1854:./Hardware/hardware/menu_data.c **** 		else
1855:./Hardware/hardware/menu_data.c **** 		{
1856:./Hardware/hardware/menu_data.c **** 			back_press_time = 0; // 重置计时器
 5286              		.loc 1 1856 20
 5287 0042 0023     		movs	r3, #0
 5288 0044 FB71     		strb	r3, [r7, #7]
1839:./Hardware/hardware/menu_data.c **** 		OLED_Update();
 5289              		.loc 1 1839 3
 5290 0046 E0E7     		b	.L498
 5291              	.L493:
1857:./Hardware/hardware/menu_data.c **** 		}
1858:./Hardware/hardware/menu_data.c **** 	}
1859:./Hardware/hardware/menu_data.c **** }
 5292              		.loc 1 1859 1
 5293 0048 0837     		adds	r7, r7, #8
 5294              	.LCFI257:
 5295              		.cfi_def_cfa_offset 8
 5296 004a BD46     		mov	sp, r7
 5297              	.LCFI258:
 5298              		.cfi_def_cfa_register 13
 5299              		@ sp needed
 5300 004c 80BD     		pop	{r7, pc}
 5301              	.L500:
 5302 004e 00BF     		.align	2
 5303              	.L499:
 5304 0050 34812142 		.word	1109492020
 5305              		.cfi_endproc
 5306              	.LFE83:
 5308              		.section	.text.f1_8931_Out,"ax",%progbits
 5309              		.align	1
 5310              		.global	f1_8931_Out
 5311              		.syntax unified
 5312              		.thumb
 5313              		.thumb_func
 5314              		.fpu softvfp
 5316              	f1_8931_Out:
 5317              	.LFB84:
1860:./Hardware/hardware/menu_data.c **** 
1861:./Hardware/hardware/menu_data.c **** void f1_8931_Out(void)
1862:./Hardware/hardware/menu_data.c **** {
 5318              		.loc 1 1862 1
 5319              		.cfi_startproc
 5320              		@ args = 0, pretend = 0, frame = 8
 5321              		@ frame_needed = 1, uses_anonymous_args = 0
 5322 0000 80B5     		push	{r7, lr}
 5323              	.LCFI259:
 5324              		.cfi_def_cfa_offset 8
 5325              		.cfi_offset 7, -8
 5326              		.cfi_offset 14, -4
 5327 0002 82B0     		sub	sp, sp, #8
ARM GAS  C:\Users\86134\AppData\Local\Temp\ccuTN5uR.s 			page 127


 5328              	.LCFI260:
 5329              		.cfi_def_cfa_offset 16
 5330 0004 00AF     		add	r7, sp, #0
 5331              	.LCFI261:
 5332              		.cfi_def_cfa_register 7
1863:./Hardware/hardware/menu_data.c **** 	uint8_t back_press_time = 0;
 5333              		.loc 1 1863 10
 5334 0006 0023     		movs	r3, #0
 5335 0008 FB71     		strb	r3, [r7, #7]
 5336              	.L506:
1864:./Hardware/hardware/menu_data.c **** 	
1865:./Hardware/hardware/menu_data.c **** 	while(1)
1866:./Hardware/hardware/menu_data.c **** 	{
1867:./Hardware/hardware/menu_data.c **** 		sd8931_f1(IIC_TEST);
 5337              		.loc 1 1867 3
 5338 000a 0020     		movs	r0, #0
 5339 000c FFF7FEFF 		bl	sd8931_f1
1868:./Hardware/hardware/menu_data.c **** 		OLED_Update();
 5340              		.loc 1 1868 3
 5341 0010 FFF7FEFF 		bl	OLED_Update
1869:./Hardware/hardware/menu_data.c **** 		if(Key_back == 0)
 5342              		.loc 1 1869 6
 5343 0014 0E4B     		ldr	r3, .L507
 5344 0016 1B68     		ldr	r3, [r3]
 5345              		.loc 1 1869 5
 5346 0018 002B     		cmp	r3, #0
 5347 001a 12D1     		bne	.L502
1870:./Hardware/hardware/menu_data.c **** 		{
1871:./Hardware/hardware/menu_data.c **** 			Delay_ms(10); // 消抖
 5348              		.loc 1 1871 4
 5349 001c 0A20     		movs	r0, #10
 5350 001e FFF7FEFF 		bl	Delay_ms
1872:./Hardware/hardware/menu_data.c **** 			back_press_time += 50; // 每次循环递增50ms
 5351              		.loc 1 1872 20
 5352 0022 FB79     		ldrb	r3, [r7, #7]
 5353 0024 3233     		adds	r3, r3, #50
 5354 0026 FB71     		strb	r3, [r7, #7]
1873:./Hardware/hardware/menu_data.c **** 			if(back_press_time >= 100)
 5355              		.loc 1 1873 6
 5356 0028 FB79     		ldrb	r3, [r7, #7]	@ zero_extendqisi2
 5357 002a 632B     		cmp	r3, #99
 5358 002c 05D9     		bls	.L503
1874:./Hardware/hardware/menu_data.c **** 			{
1875:./Hardware/hardware/menu_data.c **** 				// 长按200ms，退出函数
1876:./Hardware/hardware/menu_data.c **** 				while(Key_back == 0); // 等待松手
 5359              		.loc 1 1876 10
 5360 002e 00BF     		nop
 5361              	.L504:
 5362              		.loc 1 1876 11 discriminator 1
 5363 0030 074B     		ldr	r3, .L507
 5364 0032 1B68     		ldr	r3, [r3]
 5365              		.loc 1 1876 10 discriminator 1
 5366 0034 002B     		cmp	r3, #0
 5367 0036 FBD0     		beq	.L504
1877:./Hardware/hardware/menu_data.c **** 				break;
 5368              		.loc 1 1877 5
 5369 0038 06E0     		b	.L501
ARM GAS  C:\Users\86134\AppData\Local\Temp\ccuTN5uR.s 			page 128


 5370              	.L503:
1878:./Hardware/hardware/menu_data.c **** 			}
1879:./Hardware/hardware/menu_data.c **** 			sd8931_f1_off(IIC_TEST);
 5371              		.loc 1 1879 4
 5372 003a 0020     		movs	r0, #0
 5373 003c FFF7FEFF 		bl	sd8931_f1_off
1880:./Hardware/hardware/menu_data.c **** 			return;
 5374              		.loc 1 1880 4
 5375 0040 02E0     		b	.L501
 5376              	.L502:
1881:./Hardware/hardware/menu_data.c **** 		}
1882:./Hardware/hardware/menu_data.c **** 		else
1883:./Hardware/hardware/menu_data.c **** 		{
1884:./Hardware/hardware/menu_data.c **** 			back_press_time = 0; // 重置计时器
 5377              		.loc 1 1884 20
 5378 0042 0023     		movs	r3, #0
 5379 0044 FB71     		strb	r3, [r7, #7]
1867:./Hardware/hardware/menu_data.c **** 		OLED_Update();
 5380              		.loc 1 1867 3
 5381 0046 E0E7     		b	.L506
 5382              	.L501:
1885:./Hardware/hardware/menu_data.c **** 		}
1886:./Hardware/hardware/menu_data.c **** 	}
1887:./Hardware/hardware/menu_data.c **** }
 5383              		.loc 1 1887 1
 5384 0048 0837     		adds	r7, r7, #8
 5385              	.LCFI262:
 5386              		.cfi_def_cfa_offset 8
 5387 004a BD46     		mov	sp, r7
 5388              	.LCFI263:
 5389              		.cfi_def_cfa_register 13
 5390              		@ sp needed
 5391 004c 80BD     		pop	{r7, pc}
 5392              	.L508:
 5393 004e 00BF     		.align	2
 5394              	.L507:
 5395 0050 34812142 		.word	1109492020
 5396              		.cfi_endproc
 5397              	.LFE84:
 5399              		.section	.text.f32768_8931_Out,"ax",%progbits
 5400              		.align	1
 5401              		.global	f32768_8931_Out
 5402              		.syntax unified
 5403              		.thumb
 5404              		.thumb_func
 5405              		.fpu softvfp
 5407              	f32768_8931_Out:
 5408              	.LFB85:
1888:./Hardware/hardware/menu_data.c **** 
1889:./Hardware/hardware/menu_data.c **** void f32768_8931_Out(void)
1890:./Hardware/hardware/menu_data.c **** {
 5409              		.loc 1 1890 1
 5410              		.cfi_startproc
 5411              		@ args = 0, pretend = 0, frame = 8
 5412              		@ frame_needed = 1, uses_anonymous_args = 0
 5413 0000 80B5     		push	{r7, lr}
 5414              	.LCFI264:
ARM GAS  C:\Users\86134\AppData\Local\Temp\ccuTN5uR.s 			page 129


 5415              		.cfi_def_cfa_offset 8
 5416              		.cfi_offset 7, -8
 5417              		.cfi_offset 14, -4
 5418 0002 82B0     		sub	sp, sp, #8
 5419              	.LCFI265:
 5420              		.cfi_def_cfa_offset 16
 5421 0004 00AF     		add	r7, sp, #0
 5422              	.LCFI266:
 5423              		.cfi_def_cfa_register 7
1891:./Hardware/hardware/menu_data.c **** 	uint8_t back_press_time = 0;
 5424              		.loc 1 1891 10
 5425 0006 0023     		movs	r3, #0
 5426 0008 FB71     		strb	r3, [r7, #7]
 5427              	.L514:
1892:./Hardware/hardware/menu_data.c **** 	
1893:./Hardware/hardware/menu_data.c **** 	while(1)
1894:./Hardware/hardware/menu_data.c **** 	{
1895:./Hardware/hardware/menu_data.c **** 		sd8931_f32768(IIC_TEST);
 5428              		.loc 1 1895 3
 5429 000a 0020     		movs	r0, #0
 5430 000c FFF7FEFF 		bl	sd8931_f32768
1896:./Hardware/hardware/menu_data.c **** 		OLED_Update();
 5431              		.loc 1 1896 3
 5432 0010 FFF7FEFF 		bl	OLED_Update
1897:./Hardware/hardware/menu_data.c **** 		if(Key_back == 0)
 5433              		.loc 1 1897 6
 5434 0014 0E4B     		ldr	r3, .L515
 5435 0016 1B68     		ldr	r3, [r3]
 5436              		.loc 1 1897 5
 5437 0018 002B     		cmp	r3, #0
 5438 001a 12D1     		bne	.L510
1898:./Hardware/hardware/menu_data.c **** 		{
1899:./Hardware/hardware/menu_data.c **** 			Delay_ms(10); // 消抖
 5439              		.loc 1 1899 4
 5440 001c 0A20     		movs	r0, #10
 5441 001e FFF7FEFF 		bl	Delay_ms
1900:./Hardware/hardware/menu_data.c **** 			back_press_time += 50; // 每次循环递增50ms
 5442              		.loc 1 1900 20
 5443 0022 FB79     		ldrb	r3, [r7, #7]
 5444 0024 3233     		adds	r3, r3, #50
 5445 0026 FB71     		strb	r3, [r7, #7]
1901:./Hardware/hardware/menu_data.c **** 			if(back_press_time >= 100)
 5446              		.loc 1 1901 6
 5447 0028 FB79     		ldrb	r3, [r7, #7]	@ zero_extendqisi2
 5448 002a 632B     		cmp	r3, #99
 5449 002c 05D9     		bls	.L511
1902:./Hardware/hardware/menu_data.c **** 			{
1903:./Hardware/hardware/menu_data.c **** 				// 长按200ms，退出函数
1904:./Hardware/hardware/menu_data.c **** 				while(Key_back == 0); // 等待松手
 5450              		.loc 1 1904 10
 5451 002e 00BF     		nop
 5452              	.L512:
 5453              		.loc 1 1904 11 discriminator 1
 5454 0030 074B     		ldr	r3, .L515
 5455 0032 1B68     		ldr	r3, [r3]
 5456              		.loc 1 1904 10 discriminator 1
 5457 0034 002B     		cmp	r3, #0
ARM GAS  C:\Users\86134\AppData\Local\Temp\ccuTN5uR.s 			page 130


 5458 0036 FBD0     		beq	.L512
1905:./Hardware/hardware/menu_data.c **** 				break;
 5459              		.loc 1 1905 5
 5460 0038 06E0     		b	.L509
 5461              	.L511:
1906:./Hardware/hardware/menu_data.c **** 			}
1907:./Hardware/hardware/menu_data.c **** 			sd8931_f32768_off(IIC_TEST);
 5462              		.loc 1 1907 4
 5463 003a 0020     		movs	r0, #0
 5464 003c FFF7FEFF 		bl	sd8931_f32768_off
1908:./Hardware/hardware/menu_data.c **** 			return;
 5465              		.loc 1 1908 4
 5466 0040 02E0     		b	.L509
 5467              	.L510:
1909:./Hardware/hardware/menu_data.c **** 		}
1910:./Hardware/hardware/menu_data.c **** 		else
1911:./Hardware/hardware/menu_data.c **** 		{
1912:./Hardware/hardware/menu_data.c **** 			back_press_time = 0; // 重置计时器
 5468              		.loc 1 1912 20
 5469 0042 0023     		movs	r3, #0
 5470 0044 FB71     		strb	r3, [r7, #7]
1895:./Hardware/hardware/menu_data.c **** 		OLED_Update();
 5471              		.loc 1 1895 3
 5472 0046 E0E7     		b	.L514
 5473              	.L509:
1913:./Hardware/hardware/menu_data.c **** 		}
1914:./Hardware/hardware/menu_data.c **** 	}
1915:./Hardware/hardware/menu_data.c **** }
 5474              		.loc 1 1915 1
 5475 0048 0837     		adds	r7, r7, #8
 5476              	.LCFI267:
 5477              		.cfi_def_cfa_offset 8
 5478 004a BD46     		mov	sp, r7
 5479              	.LCFI268:
 5480              		.cfi_def_cfa_register 13
 5481              		@ sp needed
 5482 004c 80BD     		pop	{r7, pc}
 5483              	.L516:
 5484 004e 00BF     		.align	2
 5485              	.L515:
 5486 0050 34812142 		.word	1109492020
 5487              		.cfi_endproc
 5488              	.LFE85:
 5490              		.section	.text.f32768_8800_Out,"ax",%progbits
 5491              		.align	1
 5492              		.global	f32768_8800_Out
 5493              		.syntax unified
 5494              		.thumb
 5495              		.thumb_func
 5496              		.fpu softvfp
 5498              	f32768_8800_Out:
 5499              	.LFB86:
1916:./Hardware/hardware/menu_data.c **** 
1917:./Hardware/hardware/menu_data.c **** void f32768_8800_Out(void)
1918:./Hardware/hardware/menu_data.c **** {
 5500              		.loc 1 1918 1
 5501              		.cfi_startproc
ARM GAS  C:\Users\86134\AppData\Local\Temp\ccuTN5uR.s 			page 131


 5502              		@ args = 0, pretend = 0, frame = 8
 5503              		@ frame_needed = 1, uses_anonymous_args = 0
 5504 0000 80B5     		push	{r7, lr}
 5505              	.LCFI269:
 5506              		.cfi_def_cfa_offset 8
 5507              		.cfi_offset 7, -8
 5508              		.cfi_offset 14, -4
 5509 0002 82B0     		sub	sp, sp, #8
 5510              	.LCFI270:
 5511              		.cfi_def_cfa_offset 16
 5512 0004 00AF     		add	r7, sp, #0
 5513              	.LCFI271:
 5514              		.cfi_def_cfa_register 7
1919:./Hardware/hardware/menu_data.c **** 	uint8_t back_press_time = 0;
 5515              		.loc 1 1919 10
 5516 0006 0023     		movs	r3, #0
 5517 0008 FB71     		strb	r3, [r7, #7]
 5518              	.L522:
1920:./Hardware/hardware/menu_data.c **** 	
1921:./Hardware/hardware/menu_data.c **** 	while(1)
1922:./Hardware/hardware/menu_data.c **** 	{
1923:./Hardware/hardware/menu_data.c **** 		sd8800_f32768(IIC_TEST);
 5519              		.loc 1 1923 3
 5520 000a 0020     		movs	r0, #0
 5521 000c FFF7FEFF 		bl	sd8800_f32768
1924:./Hardware/hardware/menu_data.c **** 		OLED_Update();
 5522              		.loc 1 1924 3
 5523 0010 FFF7FEFF 		bl	OLED_Update
1925:./Hardware/hardware/menu_data.c **** 		if(Key_back == 0)
 5524              		.loc 1 1925 6
 5525 0014 0E4B     		ldr	r3, .L523
 5526 0016 1B68     		ldr	r3, [r3]
 5527              		.loc 1 1925 5
 5528 0018 002B     		cmp	r3, #0
 5529 001a 12D1     		bne	.L518
1926:./Hardware/hardware/menu_data.c **** 		{
1927:./Hardware/hardware/menu_data.c **** 			Delay_ms(10); // 消抖
 5530              		.loc 1 1927 4
 5531 001c 0A20     		movs	r0, #10
 5532 001e FFF7FEFF 		bl	Delay_ms
1928:./Hardware/hardware/menu_data.c **** 			back_press_time += 50; // 每次循环递增50ms
 5533              		.loc 1 1928 20
 5534 0022 FB79     		ldrb	r3, [r7, #7]
 5535 0024 3233     		adds	r3, r3, #50
 5536 0026 FB71     		strb	r3, [r7, #7]
1929:./Hardware/hardware/menu_data.c **** 			if(back_press_time >= 100)
 5537              		.loc 1 1929 6
 5538 0028 FB79     		ldrb	r3, [r7, #7]	@ zero_extendqisi2
 5539 002a 632B     		cmp	r3, #99
 5540 002c 05D9     		bls	.L519
1930:./Hardware/hardware/menu_data.c **** 			{
1931:./Hardware/hardware/menu_data.c **** 				// 长按200ms，退出函数
1932:./Hardware/hardware/menu_data.c **** 				while(Key_back == 0); // 等待松手
 5541              		.loc 1 1932 10
 5542 002e 00BF     		nop
 5543              	.L520:
 5544              		.loc 1 1932 11 discriminator 1
ARM GAS  C:\Users\86134\AppData\Local\Temp\ccuTN5uR.s 			page 132


 5545 0030 074B     		ldr	r3, .L523
 5546 0032 1B68     		ldr	r3, [r3]
 5547              		.loc 1 1932 10 discriminator 1
 5548 0034 002B     		cmp	r3, #0
 5549 0036 FBD0     		beq	.L520
1933:./Hardware/hardware/menu_data.c **** 				break;
 5550              		.loc 1 1933 5
 5551 0038 06E0     		b	.L517
 5552              	.L519:
1934:./Hardware/hardware/menu_data.c **** 			}
1935:./Hardware/hardware/menu_data.c **** 			sd8800_f32768_off(IIC_TEST);
 5553              		.loc 1 1935 4
 5554 003a 0020     		movs	r0, #0
 5555 003c FFF7FEFF 		bl	sd8800_f32768_off
1936:./Hardware/hardware/menu_data.c **** 			return;
 5556              		.loc 1 1936 4
 5557 0040 02E0     		b	.L517
 5558              	.L518:
1937:./Hardware/hardware/menu_data.c **** 		}
1938:./Hardware/hardware/menu_data.c **** 		else
1939:./Hardware/hardware/menu_data.c **** 		{
1940:./Hardware/hardware/menu_data.c **** 			back_press_time = 0; // 重置计时器
 5559              		.loc 1 1940 20
 5560 0042 0023     		movs	r3, #0
 5561 0044 FB71     		strb	r3, [r7, #7]
1923:./Hardware/hardware/menu_data.c **** 		OLED_Update();
 5562              		.loc 1 1923 3
 5563 0046 E0E7     		b	.L522
 5564              	.L517:
1941:./Hardware/hardware/menu_data.c **** 		}
1942:./Hardware/hardware/menu_data.c **** 	}
1943:./Hardware/hardware/menu_data.c **** 
1944:./Hardware/hardware/menu_data.c **** }
 5565              		.loc 1 1944 1
 5566 0048 0837     		adds	r7, r7, #8
 5567              	.LCFI272:
 5568              		.cfi_def_cfa_offset 8
 5569 004a BD46     		mov	sp, r7
 5570              	.LCFI273:
 5571              		.cfi_def_cfa_register 13
 5572              		@ sp needed
 5573 004c 80BD     		pop	{r7, pc}
 5574              	.L524:
 5575 004e 00BF     		.align	2
 5576              	.L523:
 5577 0050 34812142 		.word	1109492020
 5578              		.cfi_endproc
 5579              	.LFE86:
 5581              		.section	.text.f1024_8800_Out,"ax",%progbits
 5582              		.align	1
 5583              		.global	f1024_8800_Out
 5584              		.syntax unified
 5585              		.thumb
 5586              		.thumb_func
 5587              		.fpu softvfp
 5589              	f1024_8800_Out:
 5590              	.LFB87:
ARM GAS  C:\Users\86134\AppData\Local\Temp\ccuTN5uR.s 			page 133


1945:./Hardware/hardware/menu_data.c **** 
1946:./Hardware/hardware/menu_data.c **** void f1024_8800_Out(void)
1947:./Hardware/hardware/menu_data.c **** {
 5591              		.loc 1 1947 1
 5592              		.cfi_startproc
 5593              		@ args = 0, pretend = 0, frame = 8
 5594              		@ frame_needed = 1, uses_anonymous_args = 0
 5595 0000 80B5     		push	{r7, lr}
 5596              	.LCFI274:
 5597              		.cfi_def_cfa_offset 8
 5598              		.cfi_offset 7, -8
 5599              		.cfi_offset 14, -4
 5600 0002 82B0     		sub	sp, sp, #8
 5601              	.LCFI275:
 5602              		.cfi_def_cfa_offset 16
 5603 0004 00AF     		add	r7, sp, #0
 5604              	.LCFI276:
 5605              		.cfi_def_cfa_register 7
1948:./Hardware/hardware/menu_data.c **** 	uint8_t back_press_time = 0;
 5606              		.loc 1 1948 10
 5607 0006 0023     		movs	r3, #0
 5608 0008 FB71     		strb	r3, [r7, #7]
 5609              	.L530:
1949:./Hardware/hardware/menu_data.c **** 	
1950:./Hardware/hardware/menu_data.c **** 	while(1)
1951:./Hardware/hardware/menu_data.c **** 	{
1952:./Hardware/hardware/menu_data.c **** 		sd8800_f1024(IIC_TEST);
 5610              		.loc 1 1952 3
 5611 000a 0020     		movs	r0, #0
 5612 000c FFF7FEFF 		bl	sd8800_f1024
1953:./Hardware/hardware/menu_data.c **** 		OLED_Update();
 5613              		.loc 1 1953 3
 5614 0010 FFF7FEFF 		bl	OLED_Update
1954:./Hardware/hardware/menu_data.c **** 		if(Key_back == 0)
 5615              		.loc 1 1954 6
 5616 0014 0E4B     		ldr	r3, .L531
 5617 0016 1B68     		ldr	r3, [r3]
 5618              		.loc 1 1954 5
 5619 0018 002B     		cmp	r3, #0
 5620 001a 12D1     		bne	.L526
1955:./Hardware/hardware/menu_data.c **** 		{
1956:./Hardware/hardware/menu_data.c **** 			Delay_ms(10); // 消抖
 5621              		.loc 1 1956 4
 5622 001c 0A20     		movs	r0, #10
 5623 001e FFF7FEFF 		bl	Delay_ms
1957:./Hardware/hardware/menu_data.c **** 			back_press_time += 50; // 每次循环递增50ms
 5624              		.loc 1 1957 20
 5625 0022 FB79     		ldrb	r3, [r7, #7]
 5626 0024 3233     		adds	r3, r3, #50
 5627 0026 FB71     		strb	r3, [r7, #7]
1958:./Hardware/hardware/menu_data.c **** 			if(back_press_time >= 100)
 5628              		.loc 1 1958 6
 5629 0028 FB79     		ldrb	r3, [r7, #7]	@ zero_extendqisi2
 5630 002a 632B     		cmp	r3, #99
 5631 002c 05D9     		bls	.L527
1959:./Hardware/hardware/menu_data.c **** 			{
1960:./Hardware/hardware/menu_data.c **** 				// 长按200ms，退出函数
ARM GAS  C:\Users\86134\AppData\Local\Temp\ccuTN5uR.s 			page 134


1961:./Hardware/hardware/menu_data.c **** 				while(Key_back == 0); // 等待松手
 5632              		.loc 1 1961 10
 5633 002e 00BF     		nop
 5634              	.L528:
 5635              		.loc 1 1961 11 discriminator 1
 5636 0030 074B     		ldr	r3, .L531
 5637 0032 1B68     		ldr	r3, [r3]
 5638              		.loc 1 1961 10 discriminator 1
 5639 0034 002B     		cmp	r3, #0
 5640 0036 FBD0     		beq	.L528
1962:./Hardware/hardware/menu_data.c **** 				break;
 5641              		.loc 1 1962 5
 5642 0038 06E0     		b	.L525
 5643              	.L527:
1963:./Hardware/hardware/menu_data.c **** 			}
1964:./Hardware/hardware/menu_data.c **** 			sd8800_f1024_off(IIC_TEST);
 5644              		.loc 1 1964 4
 5645 003a 0020     		movs	r0, #0
 5646 003c FFF7FEFF 		bl	sd8800_f1024_off
1965:./Hardware/hardware/menu_data.c **** 			return;
 5647              		.loc 1 1965 4
 5648 0040 02E0     		b	.L525
 5649              	.L526:
1966:./Hardware/hardware/menu_data.c **** 		}
1967:./Hardware/hardware/menu_data.c **** 		else
1968:./Hardware/hardware/menu_data.c **** 		{
1969:./Hardware/hardware/menu_data.c **** 			back_press_time = 0; // 重置计时器
 5650              		.loc 1 1969 20
 5651 0042 0023     		movs	r3, #0
 5652 0044 FB71     		strb	r3, [r7, #7]
1952:./Hardware/hardware/menu_data.c **** 		OLED_Update();
 5653              		.loc 1 1952 3
 5654 0046 E0E7     		b	.L530
 5655              	.L525:
1970:./Hardware/hardware/menu_data.c **** 		}
1971:./Hardware/hardware/menu_data.c **** 	}
1972:./Hardware/hardware/menu_data.c **** }
 5656              		.loc 1 1972 1
 5657 0048 0837     		adds	r7, r7, #8
 5658              	.LCFI277:
 5659              		.cfi_def_cfa_offset 8
 5660 004a BD46     		mov	sp, r7
 5661              	.LCFI278:
 5662              		.cfi_def_cfa_register 13
 5663              		@ sp needed
 5664 004c 80BD     		pop	{r7, pc}
 5665              	.L532:
 5666 004e 00BF     		.align	2
 5667              	.L531:
 5668 0050 34812142 		.word	1109492020
 5669              		.cfi_endproc
 5670              	.LFE87:
 5672              		.section	.text.f1_8800_Out,"ax",%progbits
 5673              		.align	1
 5674              		.global	f1_8800_Out
 5675              		.syntax unified
 5676              		.thumb
ARM GAS  C:\Users\86134\AppData\Local\Temp\ccuTN5uR.s 			page 135


 5677              		.thumb_func
 5678              		.fpu softvfp
 5680              	f1_8800_Out:
 5681              	.LFB88:
1973:./Hardware/hardware/menu_data.c **** 
1974:./Hardware/hardware/menu_data.c **** void f1_8800_Out(void)
1975:./Hardware/hardware/menu_data.c **** {
 5682              		.loc 1 1975 1
 5683              		.cfi_startproc
 5684              		@ args = 0, pretend = 0, frame = 8
 5685              		@ frame_needed = 1, uses_anonymous_args = 0
 5686 0000 80B5     		push	{r7, lr}
 5687              	.LCFI279:
 5688              		.cfi_def_cfa_offset 8
 5689              		.cfi_offset 7, -8
 5690              		.cfi_offset 14, -4
 5691 0002 82B0     		sub	sp, sp, #8
 5692              	.LCFI280:
 5693              		.cfi_def_cfa_offset 16
 5694 0004 00AF     		add	r7, sp, #0
 5695              	.LCFI281:
 5696              		.cfi_def_cfa_register 7
1976:./Hardware/hardware/menu_data.c **** 	uint8_t back_press_time = 0;
 5697              		.loc 1 1976 10
 5698 0006 0023     		movs	r3, #0
 5699 0008 FB71     		strb	r3, [r7, #7]
 5700              	.L538:
1977:./Hardware/hardware/menu_data.c **** 	
1978:./Hardware/hardware/menu_data.c **** 	while(1)
1979:./Hardware/hardware/menu_data.c **** 	{
1980:./Hardware/hardware/menu_data.c **** 		sd8800_f1(IIC_TEST);
 5701              		.loc 1 1980 3
 5702 000a 0020     		movs	r0, #0
 5703 000c FFF7FEFF 		bl	sd8800_f1
1981:./Hardware/hardware/menu_data.c **** 		OLED_Update();
 5704              		.loc 1 1981 3
 5705 0010 FFF7FEFF 		bl	OLED_Update
1982:./Hardware/hardware/menu_data.c **** 		if(Key_back == 0)
 5706              		.loc 1 1982 6
 5707 0014 0E4B     		ldr	r3, .L539
 5708 0016 1B68     		ldr	r3, [r3]
 5709              		.loc 1 1982 5
 5710 0018 002B     		cmp	r3, #0
 5711 001a 12D1     		bne	.L534
1983:./Hardware/hardware/menu_data.c **** 		{
1984:./Hardware/hardware/menu_data.c **** 			Delay_ms(10); // 消抖
 5712              		.loc 1 1984 4
 5713 001c 0A20     		movs	r0, #10
 5714 001e FFF7FEFF 		bl	Delay_ms
1985:./Hardware/hardware/menu_data.c **** 			back_press_time += 50; // 每次循环递增50ms
 5715              		.loc 1 1985 20
 5716 0022 FB79     		ldrb	r3, [r7, #7]
 5717 0024 3233     		adds	r3, r3, #50
 5718 0026 FB71     		strb	r3, [r7, #7]
1986:./Hardware/hardware/menu_data.c **** 			if(back_press_time >= 100)
 5719              		.loc 1 1986 6
 5720 0028 FB79     		ldrb	r3, [r7, #7]	@ zero_extendqisi2
ARM GAS  C:\Users\86134\AppData\Local\Temp\ccuTN5uR.s 			page 136


 5721 002a 632B     		cmp	r3, #99
 5722 002c 05D9     		bls	.L535
1987:./Hardware/hardware/menu_data.c **** 			{
1988:./Hardware/hardware/menu_data.c **** 				// 长按200ms，退出函数
1989:./Hardware/hardware/menu_data.c **** 				while(Key_back == 0); // 等待松手
 5723              		.loc 1 1989 10
 5724 002e 00BF     		nop
 5725              	.L536:
 5726              		.loc 1 1989 11 discriminator 1
 5727 0030 074B     		ldr	r3, .L539
 5728 0032 1B68     		ldr	r3, [r3]
 5729              		.loc 1 1989 10 discriminator 1
 5730 0034 002B     		cmp	r3, #0
 5731 0036 FBD0     		beq	.L536
1990:./Hardware/hardware/menu_data.c **** 				break;
 5732              		.loc 1 1990 5
 5733 0038 06E0     		b	.L533
 5734              	.L535:
1991:./Hardware/hardware/menu_data.c **** 			}
1992:./Hardware/hardware/menu_data.c **** 			sd8800_f1_off(IIC_TEST);
 5735              		.loc 1 1992 4
 5736 003a 0020     		movs	r0, #0
 5737 003c FFF7FEFF 		bl	sd8800_f1_off
1993:./Hardware/hardware/menu_data.c **** 			return;
 5738              		.loc 1 1993 4
 5739 0040 02E0     		b	.L533
 5740              	.L534:
1994:./Hardware/hardware/menu_data.c **** 		}
1995:./Hardware/hardware/menu_data.c **** 		else
1996:./Hardware/hardware/menu_data.c **** 		{
1997:./Hardware/hardware/menu_data.c **** 			back_press_time = 0; // 重置计时器
 5741              		.loc 1 1997 20
 5742 0042 0023     		movs	r3, #0
 5743 0044 FB71     		strb	r3, [r7, #7]
1980:./Hardware/hardware/menu_data.c **** 		OLED_Update();
 5744              		.loc 1 1980 3
 5745 0046 E0E7     		b	.L538
 5746              	.L533:
1998:./Hardware/hardware/menu_data.c **** 		}
1999:./Hardware/hardware/menu_data.c **** 	}
2000:./Hardware/hardware/menu_data.c **** }
 5747              		.loc 1 2000 1
 5748 0048 0837     		adds	r7, r7, #8
 5749              	.LCFI282:
 5750              		.cfi_def_cfa_offset 8
 5751 004a BD46     		mov	sp, r7
 5752              	.LCFI283:
 5753              		.cfi_def_cfa_register 13
 5754              		@ sp needed
 5755 004c 80BD     		pop	{r7, pc}
 5756              	.L540:
 5757 004e 00BF     		.align	2
 5758              	.L539:
 5759 0050 34812142 		.word	1109492020
 5760              		.cfi_endproc
 5761              	.LFE88:
 5763              		.section	.text.f32768_Out,"ax",%progbits
ARM GAS  C:\Users\86134\AppData\Local\Temp\ccuTN5uR.s 			page 137


 5764              		.align	1
 5765              		.global	f32768_Out
 5766              		.syntax unified
 5767              		.thumb
 5768              		.thumb_func
 5769              		.fpu softvfp
 5771              	f32768_Out:
 5772              	.LFB89:
2001:./Hardware/hardware/menu_data.c **** 
2002:./Hardware/hardware/menu_data.c **** void f32768_Out(void)
2003:./Hardware/hardware/menu_data.c **** {
 5773              		.loc 1 2003 1
 5774              		.cfi_startproc
 5775              		@ args = 0, pretend = 0, frame = 8
 5776              		@ frame_needed = 1, uses_anonymous_args = 0
 5777 0000 80B5     		push	{r7, lr}
 5778              	.LCFI284:
 5779              		.cfi_def_cfa_offset 8
 5780              		.cfi_offset 7, -8
 5781              		.cfi_offset 14, -4
 5782 0002 82B0     		sub	sp, sp, #8
 5783              	.LCFI285:
 5784              		.cfi_def_cfa_offset 16
 5785 0004 00AF     		add	r7, sp, #0
 5786              	.LCFI286:
 5787              		.cfi_def_cfa_register 7
2004:./Hardware/hardware/menu_data.c **** 	uint8_t back_press_time = 0;
 5788              		.loc 1 2004 10
 5789 0006 0023     		movs	r3, #0
 5790 0008 FB71     		strb	r3, [r7, #7]
 5791              	.L546:
2005:./Hardware/hardware/menu_data.c **** 	
2006:./Hardware/hardware/menu_data.c **** 	while(1)
2007:./Hardware/hardware/menu_data.c **** 	{
2008:./Hardware/hardware/menu_data.c **** 		rtc_f32768(IIC_TEST);
 5792              		.loc 1 2008 3
 5793 000a 0020     		movs	r0, #0
 5794 000c FFF7FEFF 		bl	rtc_f32768
2009:./Hardware/hardware/menu_data.c **** 		OLED_Update();
 5795              		.loc 1 2009 3
 5796 0010 FFF7FEFF 		bl	OLED_Update
2010:./Hardware/hardware/menu_data.c **** 		if(Key_back == 0)
 5797              		.loc 1 2010 6
 5798 0014 0E4B     		ldr	r3, .L547
 5799 0016 1B68     		ldr	r3, [r3]
 5800              		.loc 1 2010 5
 5801 0018 002B     		cmp	r3, #0
 5802 001a 12D1     		bne	.L542
2011:./Hardware/hardware/menu_data.c **** 		{
2012:./Hardware/hardware/menu_data.c **** 			Delay_ms(10); // 消抖
 5803              		.loc 1 2012 4
 5804 001c 0A20     		movs	r0, #10
 5805 001e FFF7FEFF 		bl	Delay_ms
2013:./Hardware/hardware/menu_data.c **** 			back_press_time += 50; // 每次循环递增50ms
 5806              		.loc 1 2013 20
 5807 0022 FB79     		ldrb	r3, [r7, #7]
 5808 0024 3233     		adds	r3, r3, #50
ARM GAS  C:\Users\86134\AppData\Local\Temp\ccuTN5uR.s 			page 138


 5809 0026 FB71     		strb	r3, [r7, #7]
2014:./Hardware/hardware/menu_data.c **** 			if(back_press_time >= 100)
 5810              		.loc 1 2014 6
 5811 0028 FB79     		ldrb	r3, [r7, #7]	@ zero_extendqisi2
 5812 002a 632B     		cmp	r3, #99
 5813 002c 05D9     		bls	.L543
2015:./Hardware/hardware/menu_data.c **** 			{
2016:./Hardware/hardware/menu_data.c **** 				// 长按200ms，退出函数
2017:./Hardware/hardware/menu_data.c **** 				while(Key_back == 0); // 等待松手
 5814              		.loc 1 2017 10
 5815 002e 00BF     		nop
 5816              	.L544:
 5817              		.loc 1 2017 11 discriminator 1
 5818 0030 074B     		ldr	r3, .L547
 5819 0032 1B68     		ldr	r3, [r3]
 5820              		.loc 1 2017 10 discriminator 1
 5821 0034 002B     		cmp	r3, #0
 5822 0036 FBD0     		beq	.L544
2018:./Hardware/hardware/menu_data.c **** 				break;
 5823              		.loc 1 2018 5
 5824 0038 06E0     		b	.L541
 5825              	.L543:
2019:./Hardware/hardware/menu_data.c **** 			}
2020:./Hardware/hardware/menu_data.c **** 			rtc_f32768_off(IIC_TEST);
 5826              		.loc 1 2020 4
 5827 003a 0020     		movs	r0, #0
 5828 003c FFF7FEFF 		bl	rtc_f32768_off
2021:./Hardware/hardware/menu_data.c **** 			return;
 5829              		.loc 1 2021 4
 5830 0040 02E0     		b	.L541
 5831              	.L542:
2022:./Hardware/hardware/menu_data.c **** 		}
2023:./Hardware/hardware/menu_data.c **** 		else
2024:./Hardware/hardware/menu_data.c **** 		{
2025:./Hardware/hardware/menu_data.c **** 			back_press_time = 0; // 重置计时器
 5832              		.loc 1 2025 20
 5833 0042 0023     		movs	r3, #0
 5834 0044 FB71     		strb	r3, [r7, #7]
2008:./Hardware/hardware/menu_data.c **** 		OLED_Update();
 5835              		.loc 1 2008 3
 5836 0046 E0E7     		b	.L546
 5837              	.L541:
2026:./Hardware/hardware/menu_data.c **** 		}
2027:./Hardware/hardware/menu_data.c **** 	}
2028:./Hardware/hardware/menu_data.c **** 	
2029:./Hardware/hardware/menu_data.c **** }
 5838              		.loc 1 2029 1
 5839 0048 0837     		adds	r7, r7, #8
 5840              	.LCFI287:
 5841              		.cfi_def_cfa_offset 8
 5842 004a BD46     		mov	sp, r7
 5843              	.LCFI288:
 5844              		.cfi_def_cfa_register 13
 5845              		@ sp needed
 5846 004c 80BD     		pop	{r7, pc}
 5847              	.L548:
 5848 004e 00BF     		.align	2
ARM GAS  C:\Users\86134\AppData\Local\Temp\ccuTN5uR.s 			page 139


 5849              	.L547:
 5850 0050 34812142 		.word	1109492020
 5851              		.cfi_endproc
 5852              	.LFE89:
 5854              		.section	.text.f4096_Out,"ax",%progbits
 5855              		.align	1
 5856              		.global	f4096_Out
 5857              		.syntax unified
 5858              		.thumb
 5859              		.thumb_func
 5860              		.fpu softvfp
 5862              	f4096_Out:
 5863              	.LFB90:
2030:./Hardware/hardware/menu_data.c **** void f4096_Out(void)
2031:./Hardware/hardware/menu_data.c **** {
 5864              		.loc 1 2031 1
 5865              		.cfi_startproc
 5866              		@ args = 0, pretend = 0, frame = 8
 5867              		@ frame_needed = 1, uses_anonymous_args = 0
 5868 0000 80B5     		push	{r7, lr}
 5869              	.LCFI289:
 5870              		.cfi_def_cfa_offset 8
 5871              		.cfi_offset 7, -8
 5872              		.cfi_offset 14, -4
 5873 0002 82B0     		sub	sp, sp, #8
 5874              	.LCFI290:
 5875              		.cfi_def_cfa_offset 16
 5876 0004 00AF     		add	r7, sp, #0
 5877              	.LCFI291:
 5878              		.cfi_def_cfa_register 7
2032:./Hardware/hardware/menu_data.c **** 	uint8_t back_press_time = 0;
 5879              		.loc 1 2032 10
 5880 0006 0023     		movs	r3, #0
 5881 0008 FB71     		strb	r3, [r7, #7]
 5882              	.L554:
2033:./Hardware/hardware/menu_data.c **** 	
2034:./Hardware/hardware/menu_data.c **** 	while(1)
2035:./Hardware/hardware/menu_data.c **** 	{
2036:./Hardware/hardware/menu_data.c **** 		rtc_f4096(IIC_TEST);
 5883              		.loc 1 2036 3
 5884 000a 0020     		movs	r0, #0
 5885 000c FFF7FEFF 		bl	rtc_f4096
2037:./Hardware/hardware/menu_data.c **** 		OLED_Update();
 5886              		.loc 1 2037 3
 5887 0010 FFF7FEFF 		bl	OLED_Update
2038:./Hardware/hardware/menu_data.c **** 		if(Key_back == 0)
 5888              		.loc 1 2038 6
 5889 0014 0E4B     		ldr	r3, .L555
 5890 0016 1B68     		ldr	r3, [r3]
 5891              		.loc 1 2038 5
 5892 0018 002B     		cmp	r3, #0
 5893 001a 12D1     		bne	.L550
2039:./Hardware/hardware/menu_data.c **** 		{
2040:./Hardware/hardware/menu_data.c **** 			Delay_ms(10); // 消抖
 5894              		.loc 1 2040 4
 5895 001c 0A20     		movs	r0, #10
 5896 001e FFF7FEFF 		bl	Delay_ms
ARM GAS  C:\Users\86134\AppData\Local\Temp\ccuTN5uR.s 			page 140


2041:./Hardware/hardware/menu_data.c **** 			back_press_time += 50; // 每次循环递增50ms
 5897              		.loc 1 2041 20
 5898 0022 FB79     		ldrb	r3, [r7, #7]
 5899 0024 3233     		adds	r3, r3, #50
 5900 0026 FB71     		strb	r3, [r7, #7]
2042:./Hardware/hardware/menu_data.c **** 			if(back_press_time >= 100)
 5901              		.loc 1 2042 6
 5902 0028 FB79     		ldrb	r3, [r7, #7]	@ zero_extendqisi2
 5903 002a 632B     		cmp	r3, #99
 5904 002c 05D9     		bls	.L551
2043:./Hardware/hardware/menu_data.c **** 			{
2044:./Hardware/hardware/menu_data.c **** 				// 长按200ms，退出函数
2045:./Hardware/hardware/menu_data.c **** 				while(Key_back == 0); // 等待松手
 5905              		.loc 1 2045 10
 5906 002e 00BF     		nop
 5907              	.L552:
 5908              		.loc 1 2045 11 discriminator 1
 5909 0030 074B     		ldr	r3, .L555
 5910 0032 1B68     		ldr	r3, [r3]
 5911              		.loc 1 2045 10 discriminator 1
 5912 0034 002B     		cmp	r3, #0
 5913 0036 FBD0     		beq	.L552
2046:./Hardware/hardware/menu_data.c **** 				break;
 5914              		.loc 1 2046 5
 5915 0038 06E0     		b	.L549
 5916              	.L551:
2047:./Hardware/hardware/menu_data.c **** 			}
2048:./Hardware/hardware/menu_data.c **** 			rtc_f4096_off(IIC_TEST);
 5917              		.loc 1 2048 4
 5918 003a 0020     		movs	r0, #0
 5919 003c FFF7FEFF 		bl	rtc_f4096_off
2049:./Hardware/hardware/menu_data.c **** 			return;
 5920              		.loc 1 2049 4
 5921 0040 02E0     		b	.L549
 5922              	.L550:
2050:./Hardware/hardware/menu_data.c **** 		}
2051:./Hardware/hardware/menu_data.c **** 		else
2052:./Hardware/hardware/menu_data.c **** 		{
2053:./Hardware/hardware/menu_data.c **** 			back_press_time = 0; // 重置计时器
 5923              		.loc 1 2053 20
 5924 0042 0023     		movs	r3, #0
 5925 0044 FB71     		strb	r3, [r7, #7]
2036:./Hardware/hardware/menu_data.c **** 		OLED_Update();
 5926              		.loc 1 2036 3
 5927 0046 E0E7     		b	.L554
 5928              	.L549:
2054:./Hardware/hardware/menu_data.c **** 		}
2055:./Hardware/hardware/menu_data.c **** 	}
2056:./Hardware/hardware/menu_data.c **** 	
2057:./Hardware/hardware/menu_data.c **** }
 5929              		.loc 1 2057 1
 5930 0048 0837     		adds	r7, r7, #8
 5931              	.LCFI292:
 5932              		.cfi_def_cfa_offset 8
 5933 004a BD46     		mov	sp, r7
 5934              	.LCFI293:
 5935              		.cfi_def_cfa_register 13
ARM GAS  C:\Users\86134\AppData\Local\Temp\ccuTN5uR.s 			page 141


 5936              		@ sp needed
 5937 004c 80BD     		pop	{r7, pc}
 5938              	.L556:
 5939 004e 00BF     		.align	2
 5940              	.L555:
 5941 0050 34812142 		.word	1109492020
 5942              		.cfi_endproc
 5943              	.LFE90:
 5945              		.section	.text.f1024_Out,"ax",%progbits
 5946              		.align	1
 5947              		.global	f1024_Out
 5948              		.syntax unified
 5949              		.thumb
 5950              		.thumb_func
 5951              		.fpu softvfp
 5953              	f1024_Out:
 5954              	.LFB91:
2058:./Hardware/hardware/menu_data.c **** 
2059:./Hardware/hardware/menu_data.c **** void f1024_Out(void)
2060:./Hardware/hardware/menu_data.c **** {
 5955              		.loc 1 2060 1
 5956              		.cfi_startproc
 5957              		@ args = 0, pretend = 0, frame = 8
 5958              		@ frame_needed = 1, uses_anonymous_args = 0
 5959 0000 80B5     		push	{r7, lr}
 5960              	.LCFI294:
 5961              		.cfi_def_cfa_offset 8
 5962              		.cfi_offset 7, -8
 5963              		.cfi_offset 14, -4
 5964 0002 82B0     		sub	sp, sp, #8
 5965              	.LCFI295:
 5966              		.cfi_def_cfa_offset 16
 5967 0004 00AF     		add	r7, sp, #0
 5968              	.LCFI296:
 5969              		.cfi_def_cfa_register 7
2061:./Hardware/hardware/menu_data.c **** 	uint8_t back_press_time = 0;
 5970              		.loc 1 2061 10
 5971 0006 0023     		movs	r3, #0
 5972 0008 FB71     		strb	r3, [r7, #7]
 5973              	.L562:
2062:./Hardware/hardware/menu_data.c **** 	
2063:./Hardware/hardware/menu_data.c **** 	while(1)
2064:./Hardware/hardware/menu_data.c **** 	{
2065:./Hardware/hardware/menu_data.c **** 		rtc_f1024(IIC_TEST);
 5974              		.loc 1 2065 3
 5975 000a 0020     		movs	r0, #0
 5976 000c FFF7FEFF 		bl	rtc_f1024
2066:./Hardware/hardware/menu_data.c **** 		OLED_Update();
 5977              		.loc 1 2066 3
 5978 0010 FFF7FEFF 		bl	OLED_Update
2067:./Hardware/hardware/menu_data.c **** 		if(Key_back == 0)
 5979              		.loc 1 2067 6
 5980 0014 0E4B     		ldr	r3, .L563
 5981 0016 1B68     		ldr	r3, [r3]
 5982              		.loc 1 2067 5
 5983 0018 002B     		cmp	r3, #0
 5984 001a 12D1     		bne	.L558
ARM GAS  C:\Users\86134\AppData\Local\Temp\ccuTN5uR.s 			page 142


2068:./Hardware/hardware/menu_data.c **** 		{
2069:./Hardware/hardware/menu_data.c **** 			Delay_ms(10); // 消抖
 5985              		.loc 1 2069 4
 5986 001c 0A20     		movs	r0, #10
 5987 001e FFF7FEFF 		bl	Delay_ms
2070:./Hardware/hardware/menu_data.c **** 			back_press_time += 50; // 每次循环递增50ms
 5988              		.loc 1 2070 20
 5989 0022 FB79     		ldrb	r3, [r7, #7]
 5990 0024 3233     		adds	r3, r3, #50
 5991 0026 FB71     		strb	r3, [r7, #7]
2071:./Hardware/hardware/menu_data.c **** 			if(back_press_time >= 100)
 5992              		.loc 1 2071 6
 5993 0028 FB79     		ldrb	r3, [r7, #7]	@ zero_extendqisi2
 5994 002a 632B     		cmp	r3, #99
 5995 002c 05D9     		bls	.L559
2072:./Hardware/hardware/menu_data.c **** 			{
2073:./Hardware/hardware/menu_data.c **** 				// 长按200ms，退出函数
2074:./Hardware/hardware/menu_data.c **** 				while(Key_back == 0); // 等待松手
 5996              		.loc 1 2074 10
 5997 002e 00BF     		nop
 5998              	.L560:
 5999              		.loc 1 2074 11 discriminator 1
 6000 0030 074B     		ldr	r3, .L563
 6001 0032 1B68     		ldr	r3, [r3]
 6002              		.loc 1 2074 10 discriminator 1
 6003 0034 002B     		cmp	r3, #0
 6004 0036 FBD0     		beq	.L560
2075:./Hardware/hardware/menu_data.c **** 				break;
 6005              		.loc 1 2075 5
 6006 0038 06E0     		b	.L557
 6007              	.L559:
2076:./Hardware/hardware/menu_data.c **** 			}
2077:./Hardware/hardware/menu_data.c **** 			rtc_f1024_off(IIC_TEST);
 6008              		.loc 1 2077 4
 6009 003a 0020     		movs	r0, #0
 6010 003c FFF7FEFF 		bl	rtc_f1024_off
2078:./Hardware/hardware/menu_data.c **** 			return;
 6011              		.loc 1 2078 4
 6012 0040 02E0     		b	.L557
 6013              	.L558:
2079:./Hardware/hardware/menu_data.c **** 		}
2080:./Hardware/hardware/menu_data.c **** 		else
2081:./Hardware/hardware/menu_data.c **** 		{
2082:./Hardware/hardware/menu_data.c **** 			back_press_time = 0; // 重置计时器
 6014              		.loc 1 2082 20
 6015 0042 0023     		movs	r3, #0
 6016 0044 FB71     		strb	r3, [r7, #7]
2065:./Hardware/hardware/menu_data.c **** 		OLED_Update();
 6017              		.loc 1 2065 3
 6018 0046 E0E7     		b	.L562
 6019              	.L557:
2083:./Hardware/hardware/menu_data.c **** 		}
2084:./Hardware/hardware/menu_data.c **** 	}
2085:./Hardware/hardware/menu_data.c **** 	
2086:./Hardware/hardware/menu_data.c **** }
 6020              		.loc 1 2086 1
 6021 0048 0837     		adds	r7, r7, #8
ARM GAS  C:\Users\86134\AppData\Local\Temp\ccuTN5uR.s 			page 143


 6022              	.LCFI297:
 6023              		.cfi_def_cfa_offset 8
 6024 004a BD46     		mov	sp, r7
 6025              	.LCFI298:
 6026              		.cfi_def_cfa_register 13
 6027              		@ sp needed
 6028 004c 80BD     		pop	{r7, pc}
 6029              	.L564:
 6030 004e 00BF     		.align	2
 6031              	.L563:
 6032 0050 34812142 		.word	1109492020
 6033              		.cfi_endproc
 6034              	.LFE91:
 6036              		.section	.text.f64_Out,"ax",%progbits
 6037              		.align	1
 6038              		.global	f64_Out
 6039              		.syntax unified
 6040              		.thumb
 6041              		.thumb_func
 6042              		.fpu softvfp
 6044              	f64_Out:
 6045              	.LFB92:
2087:./Hardware/hardware/menu_data.c **** 
2088:./Hardware/hardware/menu_data.c **** void f64_Out(void)
2089:./Hardware/hardware/menu_data.c **** {
 6046              		.loc 1 2089 1
 6047              		.cfi_startproc
 6048              		@ args = 0, pretend = 0, frame = 8
 6049              		@ frame_needed = 1, uses_anonymous_args = 0
 6050 0000 80B5     		push	{r7, lr}
 6051              	.LCFI299:
 6052              		.cfi_def_cfa_offset 8
 6053              		.cfi_offset 7, -8
 6054              		.cfi_offset 14, -4
 6055 0002 82B0     		sub	sp, sp, #8
 6056              	.LCFI300:
 6057              		.cfi_def_cfa_offset 16
 6058 0004 00AF     		add	r7, sp, #0
 6059              	.LCFI301:
 6060              		.cfi_def_cfa_register 7
2090:./Hardware/hardware/menu_data.c **** 	uint8_t back_press_time = 0;
 6061              		.loc 1 2090 10
 6062 0006 0023     		movs	r3, #0
 6063 0008 FB71     		strb	r3, [r7, #7]
 6064              	.L570:
2091:./Hardware/hardware/menu_data.c **** 	
2092:./Hardware/hardware/menu_data.c **** 	while(1)
2093:./Hardware/hardware/menu_data.c **** 	{
2094:./Hardware/hardware/menu_data.c **** 		rtc_f64(IIC_TEST);
 6065              		.loc 1 2094 3
 6066 000a 0020     		movs	r0, #0
 6067 000c FFF7FEFF 		bl	rtc_f64
2095:./Hardware/hardware/menu_data.c **** 		OLED_Update();
 6068              		.loc 1 2095 3
 6069 0010 FFF7FEFF 		bl	OLED_Update
2096:./Hardware/hardware/menu_data.c **** 		if(Key_back == 0)
 6070              		.loc 1 2096 6
ARM GAS  C:\Users\86134\AppData\Local\Temp\ccuTN5uR.s 			page 144


 6071 0014 0E4B     		ldr	r3, .L571
 6072 0016 1B68     		ldr	r3, [r3]
 6073              		.loc 1 2096 5
 6074 0018 002B     		cmp	r3, #0
 6075 001a 12D1     		bne	.L566
2097:./Hardware/hardware/menu_data.c **** 		{
2098:./Hardware/hardware/menu_data.c **** 			Delay_ms(10); // 消抖
 6076              		.loc 1 2098 4
 6077 001c 0A20     		movs	r0, #10
 6078 001e FFF7FEFF 		bl	Delay_ms
2099:./Hardware/hardware/menu_data.c **** 			back_press_time += 50; // 每次循环递增50ms
 6079              		.loc 1 2099 20
 6080 0022 FB79     		ldrb	r3, [r7, #7]
 6081 0024 3233     		adds	r3, r3, #50
 6082 0026 FB71     		strb	r3, [r7, #7]
2100:./Hardware/hardware/menu_data.c **** 			if(back_press_time >= 100)
 6083              		.loc 1 2100 6
 6084 0028 FB79     		ldrb	r3, [r7, #7]	@ zero_extendqisi2
 6085 002a 632B     		cmp	r3, #99
 6086 002c 05D9     		bls	.L567
2101:./Hardware/hardware/menu_data.c **** 			{
2102:./Hardware/hardware/menu_data.c **** 				// 长按200ms，退出函数
2103:./Hardware/hardware/menu_data.c **** 				while(Key_back == 0); // 等待松手
 6087              		.loc 1 2103 10
 6088 002e 00BF     		nop
 6089              	.L568:
 6090              		.loc 1 2103 11 discriminator 1
 6091 0030 074B     		ldr	r3, .L571
 6092 0032 1B68     		ldr	r3, [r3]
 6093              		.loc 1 2103 10 discriminator 1
 6094 0034 002B     		cmp	r3, #0
 6095 0036 FBD0     		beq	.L568
2104:./Hardware/hardware/menu_data.c **** 				break;
 6096              		.loc 1 2104 5
 6097 0038 06E0     		b	.L565
 6098              	.L567:
2105:./Hardware/hardware/menu_data.c **** 			}
2106:./Hardware/hardware/menu_data.c **** 			rtc_f64_off(IIC_TEST);
 6099              		.loc 1 2106 4
 6100 003a 0020     		movs	r0, #0
 6101 003c FFF7FEFF 		bl	rtc_f64_off
2107:./Hardware/hardware/menu_data.c **** 			return;
 6102              		.loc 1 2107 4
 6103 0040 02E0     		b	.L565
 6104              	.L566:
2108:./Hardware/hardware/menu_data.c **** 		}
2109:./Hardware/hardware/menu_data.c **** 		else
2110:./Hardware/hardware/menu_data.c **** 		{
2111:./Hardware/hardware/menu_data.c **** 			back_press_time = 0; // 重置计时器
 6105              		.loc 1 2111 20
 6106 0042 0023     		movs	r3, #0
 6107 0044 FB71     		strb	r3, [r7, #7]
2094:./Hardware/hardware/menu_data.c **** 		OLED_Update();
 6108              		.loc 1 2094 3
 6109 0046 E0E7     		b	.L570
 6110              	.L565:
2112:./Hardware/hardware/menu_data.c **** 		}
ARM GAS  C:\Users\86134\AppData\Local\Temp\ccuTN5uR.s 			page 145


2113:./Hardware/hardware/menu_data.c **** 	}
2114:./Hardware/hardware/menu_data.c **** 	
2115:./Hardware/hardware/menu_data.c **** }
 6111              		.loc 1 2115 1
 6112 0048 0837     		adds	r7, r7, #8
 6113              	.LCFI302:
 6114              		.cfi_def_cfa_offset 8
 6115 004a BD46     		mov	sp, r7
 6116              	.LCFI303:
 6117              		.cfi_def_cfa_register 13
 6118              		@ sp needed
 6119 004c 80BD     		pop	{r7, pc}
 6120              	.L572:
 6121 004e 00BF     		.align	2
 6122              	.L571:
 6123 0050 34812142 		.word	1109492020
 6124              		.cfi_endproc
 6125              	.LFE92:
 6127              		.section	.text.f32_Out,"ax",%progbits
 6128              		.align	1
 6129              		.global	f32_Out
 6130              		.syntax unified
 6131              		.thumb
 6132              		.thumb_func
 6133              		.fpu softvfp
 6135              	f32_Out:
 6136              	.LFB93:
2116:./Hardware/hardware/menu_data.c **** 
2117:./Hardware/hardware/menu_data.c **** void f32_Out(void)
2118:./Hardware/hardware/menu_data.c **** {
 6137              		.loc 1 2118 1
 6138              		.cfi_startproc
 6139              		@ args = 0, pretend = 0, frame = 8
 6140              		@ frame_needed = 1, uses_anonymous_args = 0
 6141 0000 80B5     		push	{r7, lr}
 6142              	.LCFI304:
 6143              		.cfi_def_cfa_offset 8
 6144              		.cfi_offset 7, -8
 6145              		.cfi_offset 14, -4
 6146 0002 82B0     		sub	sp, sp, #8
 6147              	.LCFI305:
 6148              		.cfi_def_cfa_offset 16
 6149 0004 00AF     		add	r7, sp, #0
 6150              	.LCFI306:
 6151              		.cfi_def_cfa_register 7
2119:./Hardware/hardware/menu_data.c **** 	uint8_t back_press_time = 0;
 6152              		.loc 1 2119 10
 6153 0006 0023     		movs	r3, #0
 6154 0008 FB71     		strb	r3, [r7, #7]
 6155              	.L578:
2120:./Hardware/hardware/menu_data.c **** 	
2121:./Hardware/hardware/menu_data.c **** 	while(1)
2122:./Hardware/hardware/menu_data.c **** 	{
2123:./Hardware/hardware/menu_data.c **** 		rtc_f32(IIC_TEST);
 6156              		.loc 1 2123 3
 6157 000a 0020     		movs	r0, #0
 6158 000c FFF7FEFF 		bl	rtc_f32
ARM GAS  C:\Users\86134\AppData\Local\Temp\ccuTN5uR.s 			page 146


2124:./Hardware/hardware/menu_data.c **** 		OLED_Update();
 6159              		.loc 1 2124 3
 6160 0010 FFF7FEFF 		bl	OLED_Update
2125:./Hardware/hardware/menu_data.c **** 		if(Key_back == 0)
 6161              		.loc 1 2125 6
 6162 0014 0E4B     		ldr	r3, .L579
 6163 0016 1B68     		ldr	r3, [r3]
 6164              		.loc 1 2125 5
 6165 0018 002B     		cmp	r3, #0
 6166 001a 12D1     		bne	.L574
2126:./Hardware/hardware/menu_data.c **** 		{
2127:./Hardware/hardware/menu_data.c **** 			Delay_ms(10); // 消抖
 6167              		.loc 1 2127 4
 6168 001c 0A20     		movs	r0, #10
 6169 001e FFF7FEFF 		bl	Delay_ms
2128:./Hardware/hardware/menu_data.c **** 			back_press_time += 50; // 每次循环递增50ms
 6170              		.loc 1 2128 20
 6171 0022 FB79     		ldrb	r3, [r7, #7]
 6172 0024 3233     		adds	r3, r3, #50
 6173 0026 FB71     		strb	r3, [r7, #7]
2129:./Hardware/hardware/menu_data.c **** 			if(back_press_time >= 100)
 6174              		.loc 1 2129 6
 6175 0028 FB79     		ldrb	r3, [r7, #7]	@ zero_extendqisi2
 6176 002a 632B     		cmp	r3, #99
 6177 002c 05D9     		bls	.L575
2130:./Hardware/hardware/menu_data.c **** 			{
2131:./Hardware/hardware/menu_data.c **** 				// 长按200ms，退出函数
2132:./Hardware/hardware/menu_data.c **** 				while(Key_back == 0); // 等待松手
 6178              		.loc 1 2132 10
 6179 002e 00BF     		nop
 6180              	.L576:
 6181              		.loc 1 2132 11 discriminator 1
 6182 0030 074B     		ldr	r3, .L579
 6183 0032 1B68     		ldr	r3, [r3]
 6184              		.loc 1 2132 10 discriminator 1
 6185 0034 002B     		cmp	r3, #0
 6186 0036 FBD0     		beq	.L576
2133:./Hardware/hardware/menu_data.c **** 				break;
 6187              		.loc 1 2133 5
 6188 0038 06E0     		b	.L573
 6189              	.L575:
2134:./Hardware/hardware/menu_data.c **** 			}
2135:./Hardware/hardware/menu_data.c **** 			rtc_f32_off(IIC_TEST);
 6190              		.loc 1 2135 4
 6191 003a 0020     		movs	r0, #0
 6192 003c FFF7FEFF 		bl	rtc_f32_off
2136:./Hardware/hardware/menu_data.c **** 			return;
 6193              		.loc 1 2136 4
 6194 0040 02E0     		b	.L573
 6195              	.L574:
2137:./Hardware/hardware/menu_data.c **** 		}
2138:./Hardware/hardware/menu_data.c **** 		else
2139:./Hardware/hardware/menu_data.c **** 		{
2140:./Hardware/hardware/menu_data.c **** 			back_press_time = 0; // 重置计时器
 6196              		.loc 1 2140 20
 6197 0042 0023     		movs	r3, #0
 6198 0044 FB71     		strb	r3, [r7, #7]
ARM GAS  C:\Users\86134\AppData\Local\Temp\ccuTN5uR.s 			page 147


2123:./Hardware/hardware/menu_data.c **** 		OLED_Update();
 6199              		.loc 1 2123 3
 6200 0046 E0E7     		b	.L578
 6201              	.L573:
2141:./Hardware/hardware/menu_data.c **** 		}
2142:./Hardware/hardware/menu_data.c **** 	}
2143:./Hardware/hardware/menu_data.c **** 	
2144:./Hardware/hardware/menu_data.c **** 
2145:./Hardware/hardware/menu_data.c **** }
 6202              		.loc 1 2145 1
 6203 0048 0837     		adds	r7, r7, #8
 6204              	.LCFI307:
 6205              		.cfi_def_cfa_offset 8
 6206 004a BD46     		mov	sp, r7
 6207              	.LCFI308:
 6208              		.cfi_def_cfa_register 13
 6209              		@ sp needed
 6210 004c 80BD     		pop	{r7, pc}
 6211              	.L580:
 6212 004e 00BF     		.align	2
 6213              	.L579:
 6214 0050 34812142 		.word	1109492020
 6215              		.cfi_endproc
 6216              	.LFE93:
 6218              		.section	.text.f16_Out,"ax",%progbits
 6219              		.align	1
 6220              		.global	f16_Out
 6221              		.syntax unified
 6222              		.thumb
 6223              		.thumb_func
 6224              		.fpu softvfp
 6226              	f16_Out:
 6227              	.LFB94:
2146:./Hardware/hardware/menu_data.c **** 
2147:./Hardware/hardware/menu_data.c **** void f16_Out(void)
2148:./Hardware/hardware/menu_data.c **** {
 6228              		.loc 1 2148 1
 6229              		.cfi_startproc
 6230              		@ args = 0, pretend = 0, frame = 8
 6231              		@ frame_needed = 1, uses_anonymous_args = 0
 6232 0000 80B5     		push	{r7, lr}
 6233              	.LCFI309:
 6234              		.cfi_def_cfa_offset 8
 6235              		.cfi_offset 7, -8
 6236              		.cfi_offset 14, -4
 6237 0002 82B0     		sub	sp, sp, #8
 6238              	.LCFI310:
 6239              		.cfi_def_cfa_offset 16
 6240 0004 00AF     		add	r7, sp, #0
 6241              	.LCFI311:
 6242              		.cfi_def_cfa_register 7
2149:./Hardware/hardware/menu_data.c **** 	uint8_t back_press_time = 0;
 6243              		.loc 1 2149 10
 6244 0006 0023     		movs	r3, #0
 6245 0008 FB71     		strb	r3, [r7, #7]
 6246              	.L586:
2150:./Hardware/hardware/menu_data.c **** 	
ARM GAS  C:\Users\86134\AppData\Local\Temp\ccuTN5uR.s 			page 148


2151:./Hardware/hardware/menu_data.c **** 	while(1)
2152:./Hardware/hardware/menu_data.c **** 	{
2153:./Hardware/hardware/menu_data.c **** 		rtc_f16(IIC_TEST);
 6247              		.loc 1 2153 3
 6248 000a 0020     		movs	r0, #0
 6249 000c FFF7FEFF 		bl	rtc_f16
2154:./Hardware/hardware/menu_data.c **** 		OLED_Update();
 6250              		.loc 1 2154 3
 6251 0010 FFF7FEFF 		bl	OLED_Update
2155:./Hardware/hardware/menu_data.c **** 		if(Key_back == 0)
 6252              		.loc 1 2155 6
 6253 0014 0E4B     		ldr	r3, .L587
 6254 0016 1B68     		ldr	r3, [r3]
 6255              		.loc 1 2155 5
 6256 0018 002B     		cmp	r3, #0
 6257 001a 12D1     		bne	.L582
2156:./Hardware/hardware/menu_data.c **** 		{
2157:./Hardware/hardware/menu_data.c **** 			Delay_ms(10); // 消抖
 6258              		.loc 1 2157 4
 6259 001c 0A20     		movs	r0, #10
 6260 001e FFF7FEFF 		bl	Delay_ms
2158:./Hardware/hardware/menu_data.c **** 			back_press_time += 50; // 每次循环递增50ms
 6261              		.loc 1 2158 20
 6262 0022 FB79     		ldrb	r3, [r7, #7]
 6263 0024 3233     		adds	r3, r3, #50
 6264 0026 FB71     		strb	r3, [r7, #7]
2159:./Hardware/hardware/menu_data.c **** 			if(back_press_time >= 100)
 6265              		.loc 1 2159 6
 6266 0028 FB79     		ldrb	r3, [r7, #7]	@ zero_extendqisi2
 6267 002a 632B     		cmp	r3, #99
 6268 002c 05D9     		bls	.L583
2160:./Hardware/hardware/menu_data.c **** 			{
2161:./Hardware/hardware/menu_data.c **** 				// 长按200ms，退出函数
2162:./Hardware/hardware/menu_data.c **** 				while(Key_back == 0); // 等待松手
 6269              		.loc 1 2162 10
 6270 002e 00BF     		nop
 6271              	.L584:
 6272              		.loc 1 2162 11 discriminator 1
 6273 0030 074B     		ldr	r3, .L587
 6274 0032 1B68     		ldr	r3, [r3]
 6275              		.loc 1 2162 10 discriminator 1
 6276 0034 002B     		cmp	r3, #0
 6277 0036 FBD0     		beq	.L584
2163:./Hardware/hardware/menu_data.c **** 				break;
 6278              		.loc 1 2163 5
 6279 0038 06E0     		b	.L581
 6280              	.L583:
2164:./Hardware/hardware/menu_data.c **** 			}
2165:./Hardware/hardware/menu_data.c **** 			rtc_f16_off(IIC_TEST);
 6281              		.loc 1 2165 4
 6282 003a 0020     		movs	r0, #0
 6283 003c FFF7FEFF 		bl	rtc_f16_off
2166:./Hardware/hardware/menu_data.c **** 			return;
 6284              		.loc 1 2166 4
 6285 0040 02E0     		b	.L581
 6286              	.L582:
2167:./Hardware/hardware/menu_data.c **** 		}
ARM GAS  C:\Users\86134\AppData\Local\Temp\ccuTN5uR.s 			page 149


2168:./Hardware/hardware/menu_data.c **** 		else
2169:./Hardware/hardware/menu_data.c **** 		{
2170:./Hardware/hardware/menu_data.c **** 			back_press_time = 0; // 重置计时器
 6287              		.loc 1 2170 20
 6288 0042 0023     		movs	r3, #0
 6289 0044 FB71     		strb	r3, [r7, #7]
2153:./Hardware/hardware/menu_data.c **** 		OLED_Update();
 6290              		.loc 1 2153 3
 6291 0046 E0E7     		b	.L586
 6292              	.L581:
2171:./Hardware/hardware/menu_data.c **** 		}
2172:./Hardware/hardware/menu_data.c **** 	}
2173:./Hardware/hardware/menu_data.c **** 
2174:./Hardware/hardware/menu_data.c **** }
 6293              		.loc 1 2174 1
 6294 0048 0837     		adds	r7, r7, #8
 6295              	.LCFI312:
 6296              		.cfi_def_cfa_offset 8
 6297 004a BD46     		mov	sp, r7
 6298              	.LCFI313:
 6299              		.cfi_def_cfa_register 13
 6300              		@ sp needed
 6301 004c 80BD     		pop	{r7, pc}
 6302              	.L588:
 6303 004e 00BF     		.align	2
 6304              	.L587:
 6305 0050 34812142 		.word	1109492020
 6306              		.cfi_endproc
 6307              	.LFE94:
 6309              		.section	.text.f8_Out,"ax",%progbits
 6310              		.align	1
 6311              		.global	f8_Out
 6312              		.syntax unified
 6313              		.thumb
 6314              		.thumb_func
 6315              		.fpu softvfp
 6317              	f8_Out:
 6318              	.LFB95:
2175:./Hardware/hardware/menu_data.c **** 
2176:./Hardware/hardware/menu_data.c **** void f8_Out(void)
2177:./Hardware/hardware/menu_data.c **** {
 6319              		.loc 1 2177 1
 6320              		.cfi_startproc
 6321              		@ args = 0, pretend = 0, frame = 8
 6322              		@ frame_needed = 1, uses_anonymous_args = 0
 6323 0000 80B5     		push	{r7, lr}
 6324              	.LCFI314:
 6325              		.cfi_def_cfa_offset 8
 6326              		.cfi_offset 7, -8
 6327              		.cfi_offset 14, -4
 6328 0002 82B0     		sub	sp, sp, #8
 6329              	.LCFI315:
 6330              		.cfi_def_cfa_offset 16
 6331 0004 00AF     		add	r7, sp, #0
 6332              	.LCFI316:
 6333              		.cfi_def_cfa_register 7
2178:./Hardware/hardware/menu_data.c **** 	uint8_t back_press_time = 0;
ARM GAS  C:\Users\86134\AppData\Local\Temp\ccuTN5uR.s 			page 150


 6334              		.loc 1 2178 10
 6335 0006 0023     		movs	r3, #0
 6336 0008 FB71     		strb	r3, [r7, #7]
 6337              	.L594:
2179:./Hardware/hardware/menu_data.c **** 	
2180:./Hardware/hardware/menu_data.c **** 	while(1)
2181:./Hardware/hardware/menu_data.c **** 	{
2182:./Hardware/hardware/menu_data.c **** 		rtc_f8(IIC_TEST);
 6338              		.loc 1 2182 3
 6339 000a 0020     		movs	r0, #0
 6340 000c FFF7FEFF 		bl	rtc_f8
2183:./Hardware/hardware/menu_data.c **** 		OLED_Update();
 6341              		.loc 1 2183 3
 6342 0010 FFF7FEFF 		bl	OLED_Update
2184:./Hardware/hardware/menu_data.c **** 		if(Key_back == 0)
 6343              		.loc 1 2184 6
 6344 0014 0E4B     		ldr	r3, .L595
 6345 0016 1B68     		ldr	r3, [r3]
 6346              		.loc 1 2184 5
 6347 0018 002B     		cmp	r3, #0
 6348 001a 12D1     		bne	.L590
2185:./Hardware/hardware/menu_data.c **** 		{
2186:./Hardware/hardware/menu_data.c **** 			Delay_ms(10); // 消抖
 6349              		.loc 1 2186 4
 6350 001c 0A20     		movs	r0, #10
 6351 001e FFF7FEFF 		bl	Delay_ms
2187:./Hardware/hardware/menu_data.c **** 			back_press_time += 50; // 每次循环递增50ms
 6352              		.loc 1 2187 20
 6353 0022 FB79     		ldrb	r3, [r7, #7]
 6354 0024 3233     		adds	r3, r3, #50
 6355 0026 FB71     		strb	r3, [r7, #7]
2188:./Hardware/hardware/menu_data.c **** 			if(back_press_time >= 100)
 6356              		.loc 1 2188 6
 6357 0028 FB79     		ldrb	r3, [r7, #7]	@ zero_extendqisi2
 6358 002a 632B     		cmp	r3, #99
 6359 002c 05D9     		bls	.L591
2189:./Hardware/hardware/menu_data.c **** 			{
2190:./Hardware/hardware/menu_data.c **** 				// 长按200ms，退出函数
2191:./Hardware/hardware/menu_data.c **** 				while(Key_back == 0); // 等待松手
 6360              		.loc 1 2191 10
 6361 002e 00BF     		nop
 6362              	.L592:
 6363              		.loc 1 2191 11 discriminator 1
 6364 0030 074B     		ldr	r3, .L595
 6365 0032 1B68     		ldr	r3, [r3]
 6366              		.loc 1 2191 10 discriminator 1
 6367 0034 002B     		cmp	r3, #0
 6368 0036 FBD0     		beq	.L592
2192:./Hardware/hardware/menu_data.c **** 				break;
 6369              		.loc 1 2192 5
 6370 0038 06E0     		b	.L589
 6371              	.L591:
2193:./Hardware/hardware/menu_data.c **** 			}
2194:./Hardware/hardware/menu_data.c **** 			rtc_f8_off(IIC_TEST);
 6372              		.loc 1 2194 4
 6373 003a 0020     		movs	r0, #0
 6374 003c FFF7FEFF 		bl	rtc_f8_off
ARM GAS  C:\Users\86134\AppData\Local\Temp\ccuTN5uR.s 			page 151


2195:./Hardware/hardware/menu_data.c **** 			return;
 6375              		.loc 1 2195 4
 6376 0040 02E0     		b	.L589
 6377              	.L590:
2196:./Hardware/hardware/menu_data.c **** 		}
2197:./Hardware/hardware/menu_data.c **** 		else
2198:./Hardware/hardware/menu_data.c **** 		{
2199:./Hardware/hardware/menu_data.c **** 			back_press_time = 0; // 重置计时器
 6378              		.loc 1 2199 20
 6379 0042 0023     		movs	r3, #0
 6380 0044 FB71     		strb	r3, [r7, #7]
2182:./Hardware/hardware/menu_data.c **** 		OLED_Update();
 6381              		.loc 1 2182 3
 6382 0046 E0E7     		b	.L594
 6383              	.L589:
2200:./Hardware/hardware/menu_data.c **** 		}
2201:./Hardware/hardware/menu_data.c **** 	}
2202:./Hardware/hardware/menu_data.c **** 	
2203:./Hardware/hardware/menu_data.c **** }
 6384              		.loc 1 2203 1
 6385 0048 0837     		adds	r7, r7, #8
 6386              	.LCFI317:
 6387              		.cfi_def_cfa_offset 8
 6388 004a BD46     		mov	sp, r7
 6389              	.LCFI318:
 6390              		.cfi_def_cfa_register 13
 6391              		@ sp needed
 6392 004c 80BD     		pop	{r7, pc}
 6393              	.L596:
 6394 004e 00BF     		.align	2
 6395              	.L595:
 6396 0050 34812142 		.word	1109492020
 6397              		.cfi_endproc
 6398              	.LFE95:
 6400              		.section	.text.f4_Out,"ax",%progbits
 6401              		.align	1
 6402              		.global	f4_Out
 6403              		.syntax unified
 6404              		.thumb
 6405              		.thumb_func
 6406              		.fpu softvfp
 6408              	f4_Out:
 6409              	.LFB96:
2204:./Hardware/hardware/menu_data.c **** 
2205:./Hardware/hardware/menu_data.c **** void f4_Out(void)
2206:./Hardware/hardware/menu_data.c **** {
 6410              		.loc 1 2206 1
 6411              		.cfi_startproc
 6412              		@ args = 0, pretend = 0, frame = 8
 6413              		@ frame_needed = 1, uses_anonymous_args = 0
 6414 0000 80B5     		push	{r7, lr}
 6415              	.LCFI319:
 6416              		.cfi_def_cfa_offset 8
 6417              		.cfi_offset 7, -8
 6418              		.cfi_offset 14, -4
 6419 0002 82B0     		sub	sp, sp, #8
 6420              	.LCFI320:
ARM GAS  C:\Users\86134\AppData\Local\Temp\ccuTN5uR.s 			page 152


 6421              		.cfi_def_cfa_offset 16
 6422 0004 00AF     		add	r7, sp, #0
 6423              	.LCFI321:
 6424              		.cfi_def_cfa_register 7
2207:./Hardware/hardware/menu_data.c **** 	uint8_t back_press_time = 0;
 6425              		.loc 1 2207 10
 6426 0006 0023     		movs	r3, #0
 6427 0008 FB71     		strb	r3, [r7, #7]
 6428              	.L602:
2208:./Hardware/hardware/menu_data.c **** 	
2209:./Hardware/hardware/menu_data.c **** 	while(1)
2210:./Hardware/hardware/menu_data.c **** 	{
2211:./Hardware/hardware/menu_data.c **** 		rtc_f4(IIC_TEST);
 6429              		.loc 1 2211 3
 6430 000a 0020     		movs	r0, #0
 6431 000c FFF7FEFF 		bl	rtc_f4
2212:./Hardware/hardware/menu_data.c **** 		OLED_Update();
 6432              		.loc 1 2212 3
 6433 0010 FFF7FEFF 		bl	OLED_Update
2213:./Hardware/hardware/menu_data.c **** 		if(Key_back == 0)
 6434              		.loc 1 2213 6
 6435 0014 0E4B     		ldr	r3, .L603
 6436 0016 1B68     		ldr	r3, [r3]
 6437              		.loc 1 2213 5
 6438 0018 002B     		cmp	r3, #0
 6439 001a 12D1     		bne	.L598
2214:./Hardware/hardware/menu_data.c **** 		{
2215:./Hardware/hardware/menu_data.c **** 			Delay_ms(10); // 消抖
 6440              		.loc 1 2215 4
 6441 001c 0A20     		movs	r0, #10
 6442 001e FFF7FEFF 		bl	Delay_ms
2216:./Hardware/hardware/menu_data.c **** 			back_press_time += 50; // 每次循环递增50ms
 6443              		.loc 1 2216 20
 6444 0022 FB79     		ldrb	r3, [r7, #7]
 6445 0024 3233     		adds	r3, r3, #50
 6446 0026 FB71     		strb	r3, [r7, #7]
2217:./Hardware/hardware/menu_data.c **** 			if(back_press_time >= 100)
 6447              		.loc 1 2217 6
 6448 0028 FB79     		ldrb	r3, [r7, #7]	@ zero_extendqisi2
 6449 002a 632B     		cmp	r3, #99
 6450 002c 05D9     		bls	.L599
2218:./Hardware/hardware/menu_data.c **** 			{
2219:./Hardware/hardware/menu_data.c **** 				// 长按200ms，退出函数
2220:./Hardware/hardware/menu_data.c **** 				while(Key_back == 0); // 等待松手
 6451              		.loc 1 2220 10
 6452 002e 00BF     		nop
 6453              	.L600:
 6454              		.loc 1 2220 11 discriminator 1
 6455 0030 074B     		ldr	r3, .L603
 6456 0032 1B68     		ldr	r3, [r3]
 6457              		.loc 1 2220 10 discriminator 1
 6458 0034 002B     		cmp	r3, #0
 6459 0036 FBD0     		beq	.L600
2221:./Hardware/hardware/menu_data.c **** 				break;
 6460              		.loc 1 2221 5
 6461 0038 06E0     		b	.L597
 6462              	.L599:
ARM GAS  C:\Users\86134\AppData\Local\Temp\ccuTN5uR.s 			page 153


2222:./Hardware/hardware/menu_data.c **** 			}
2223:./Hardware/hardware/menu_data.c **** 			rtc_f4_off(IIC_TEST);
 6463              		.loc 1 2223 4
 6464 003a 0020     		movs	r0, #0
 6465 003c FFF7FEFF 		bl	rtc_f4_off
2224:./Hardware/hardware/menu_data.c **** 			return;
 6466              		.loc 1 2224 4
 6467 0040 02E0     		b	.L597
 6468              	.L598:
2225:./Hardware/hardware/menu_data.c **** 		}
2226:./Hardware/hardware/menu_data.c **** 		else
2227:./Hardware/hardware/menu_data.c **** 		{
2228:./Hardware/hardware/menu_data.c **** 			back_press_time = 0; // 重置计时器
 6469              		.loc 1 2228 20
 6470 0042 0023     		movs	r3, #0
 6471 0044 FB71     		strb	r3, [r7, #7]
2211:./Hardware/hardware/menu_data.c **** 		OLED_Update();
 6472              		.loc 1 2211 3
 6473 0046 E0E7     		b	.L602
 6474              	.L597:
2229:./Hardware/hardware/menu_data.c **** 		}
2230:./Hardware/hardware/menu_data.c **** 	}
2231:./Hardware/hardware/menu_data.c **** 	
2232:./Hardware/hardware/menu_data.c **** 
2233:./Hardware/hardware/menu_data.c **** }
 6475              		.loc 1 2233 1
 6476 0048 0837     		adds	r7, r7, #8
 6477              	.LCFI322:
 6478              		.cfi_def_cfa_offset 8
 6479 004a BD46     		mov	sp, r7
 6480              	.LCFI323:
 6481              		.cfi_def_cfa_register 13
 6482              		@ sp needed
 6483 004c 80BD     		pop	{r7, pc}
 6484              	.L604:
 6485 004e 00BF     		.align	2
 6486              	.L603:
 6487 0050 34812142 		.word	1109492020
 6488              		.cfi_endproc
 6489              	.LFE96:
 6491              		.section	.text.f2_Out,"ax",%progbits
 6492              		.align	1
 6493              		.global	f2_Out
 6494              		.syntax unified
 6495              		.thumb
 6496              		.thumb_func
 6497              		.fpu softvfp
 6499              	f2_Out:
 6500              	.LFB97:
2234:./Hardware/hardware/menu_data.c **** 
2235:./Hardware/hardware/menu_data.c **** void f2_Out(void)
2236:./Hardware/hardware/menu_data.c **** {
 6501              		.loc 1 2236 1
 6502              		.cfi_startproc
 6503              		@ args = 0, pretend = 0, frame = 8
 6504              		@ frame_needed = 1, uses_anonymous_args = 0
 6505 0000 80B5     		push	{r7, lr}
ARM GAS  C:\Users\86134\AppData\Local\Temp\ccuTN5uR.s 			page 154


 6506              	.LCFI324:
 6507              		.cfi_def_cfa_offset 8
 6508              		.cfi_offset 7, -8
 6509              		.cfi_offset 14, -4
 6510 0002 82B0     		sub	sp, sp, #8
 6511              	.LCFI325:
 6512              		.cfi_def_cfa_offset 16
 6513 0004 00AF     		add	r7, sp, #0
 6514              	.LCFI326:
 6515              		.cfi_def_cfa_register 7
2237:./Hardware/hardware/menu_data.c **** 	uint8_t back_press_time = 0;
 6516              		.loc 1 2237 10
 6517 0006 0023     		movs	r3, #0
 6518 0008 FB71     		strb	r3, [r7, #7]
 6519              	.L610:
2238:./Hardware/hardware/menu_data.c **** 	
2239:./Hardware/hardware/menu_data.c **** 	while(1)
2240:./Hardware/hardware/menu_data.c **** 	{
2241:./Hardware/hardware/menu_data.c **** 		rtc_f2(IIC_TEST);
 6520              		.loc 1 2241 3
 6521 000a 0020     		movs	r0, #0
 6522 000c FFF7FEFF 		bl	rtc_f2
2242:./Hardware/hardware/menu_data.c **** 		OLED_Update();
 6523              		.loc 1 2242 3
 6524 0010 FFF7FEFF 		bl	OLED_Update
2243:./Hardware/hardware/menu_data.c **** 		if(Key_back == 0)
 6525              		.loc 1 2243 6
 6526 0014 0E4B     		ldr	r3, .L611
 6527 0016 1B68     		ldr	r3, [r3]
 6528              		.loc 1 2243 5
 6529 0018 002B     		cmp	r3, #0
 6530 001a 12D1     		bne	.L606
2244:./Hardware/hardware/menu_data.c **** 		{
2245:./Hardware/hardware/menu_data.c **** 			Delay_ms(10); // 消抖
 6531              		.loc 1 2245 4
 6532 001c 0A20     		movs	r0, #10
 6533 001e FFF7FEFF 		bl	Delay_ms
2246:./Hardware/hardware/menu_data.c **** 			back_press_time += 50; // 每次循环递增50ms
 6534              		.loc 1 2246 20
 6535 0022 FB79     		ldrb	r3, [r7, #7]
 6536 0024 3233     		adds	r3, r3, #50
 6537 0026 FB71     		strb	r3, [r7, #7]
2247:./Hardware/hardware/menu_data.c **** 			if(back_press_time >= 100)
 6538              		.loc 1 2247 6
 6539 0028 FB79     		ldrb	r3, [r7, #7]	@ zero_extendqisi2
 6540 002a 632B     		cmp	r3, #99
 6541 002c 05D9     		bls	.L607
2248:./Hardware/hardware/menu_data.c **** 			{
2249:./Hardware/hardware/menu_data.c **** 				// 长按200ms，退出函数
2250:./Hardware/hardware/menu_data.c **** 				while(Key_back == 0); // 等待松手
 6542              		.loc 1 2250 10
 6543 002e 00BF     		nop
 6544              	.L608:
 6545              		.loc 1 2250 11 discriminator 1
 6546 0030 074B     		ldr	r3, .L611
 6547 0032 1B68     		ldr	r3, [r3]
 6548              		.loc 1 2250 10 discriminator 1
ARM GAS  C:\Users\86134\AppData\Local\Temp\ccuTN5uR.s 			page 155


 6549 0034 002B     		cmp	r3, #0
 6550 0036 FBD0     		beq	.L608
2251:./Hardware/hardware/menu_data.c **** 				break;
 6551              		.loc 1 2251 5
 6552 0038 06E0     		b	.L605
 6553              	.L607:
2252:./Hardware/hardware/menu_data.c **** 			}
2253:./Hardware/hardware/menu_data.c **** 			rtc_f2_off(IIC_TEST);
 6554              		.loc 1 2253 4
 6555 003a 0020     		movs	r0, #0
 6556 003c FFF7FEFF 		bl	rtc_f2_off
2254:./Hardware/hardware/menu_data.c **** 			return;
 6557              		.loc 1 2254 4
 6558 0040 02E0     		b	.L605
 6559              	.L606:
2255:./Hardware/hardware/menu_data.c **** 		}
2256:./Hardware/hardware/menu_data.c **** 		else
2257:./Hardware/hardware/menu_data.c **** 		{
2258:./Hardware/hardware/menu_data.c **** 			back_press_time = 0; // 重置计时器
 6560              		.loc 1 2258 20
 6561 0042 0023     		movs	r3, #0
 6562 0044 FB71     		strb	r3, [r7, #7]
2241:./Hardware/hardware/menu_data.c **** 		OLED_Update();
 6563              		.loc 1 2241 3
 6564 0046 E0E7     		b	.L610
 6565              	.L605:
2259:./Hardware/hardware/menu_data.c **** 		}
2260:./Hardware/hardware/menu_data.c **** 	}
2261:./Hardware/hardware/menu_data.c **** 	
2262:./Hardware/hardware/menu_data.c **** }
 6566              		.loc 1 2262 1
 6567 0048 0837     		adds	r7, r7, #8
 6568              	.LCFI327:
 6569              		.cfi_def_cfa_offset 8
 6570 004a BD46     		mov	sp, r7
 6571              	.LCFI328:
 6572              		.cfi_def_cfa_register 13
 6573              		@ sp needed
 6574 004c 80BD     		pop	{r7, pc}
 6575              	.L612:
 6576 004e 00BF     		.align	2
 6577              	.L611:
 6578 0050 34812142 		.word	1109492020
 6579              		.cfi_endproc
 6580              	.LFE97:
 6582              		.section	.text.f1_Out,"ax",%progbits
 6583              		.align	1
 6584              		.global	f1_Out
 6585              		.syntax unified
 6586              		.thumb
 6587              		.thumb_func
 6588              		.fpu softvfp
 6590              	f1_Out:
 6591              	.LFB98:
2263:./Hardware/hardware/menu_data.c **** 
2264:./Hardware/hardware/menu_data.c **** void f1_Out(void)
2265:./Hardware/hardware/menu_data.c **** {
ARM GAS  C:\Users\86134\AppData\Local\Temp\ccuTN5uR.s 			page 156


 6592              		.loc 1 2265 1
 6593              		.cfi_startproc
 6594              		@ args = 0, pretend = 0, frame = 8
 6595              		@ frame_needed = 1, uses_anonymous_args = 0
 6596 0000 80B5     		push	{r7, lr}
 6597              	.LCFI329:
 6598              		.cfi_def_cfa_offset 8
 6599              		.cfi_offset 7, -8
 6600              		.cfi_offset 14, -4
 6601 0002 82B0     		sub	sp, sp, #8
 6602              	.LCFI330:
 6603              		.cfi_def_cfa_offset 16
 6604 0004 00AF     		add	r7, sp, #0
 6605              	.LCFI331:
 6606              		.cfi_def_cfa_register 7
2266:./Hardware/hardware/menu_data.c **** 		uint8_t back_press_time = 0;
 6607              		.loc 1 2266 11
 6608 0006 0023     		movs	r3, #0
 6609 0008 FB71     		strb	r3, [r7, #7]
 6610              	.L618:
2267:./Hardware/hardware/menu_data.c **** 	
2268:./Hardware/hardware/menu_data.c **** 	while(1)
2269:./Hardware/hardware/menu_data.c **** 	{
2270:./Hardware/hardware/menu_data.c **** 		rtc_f1(IIC_TEST);
 6611              		.loc 1 2270 3
 6612 000a 0020     		movs	r0, #0
 6613 000c FFF7FEFF 		bl	rtc_f1
2271:./Hardware/hardware/menu_data.c **** 		OLED_Update();
 6614              		.loc 1 2271 3
 6615 0010 FFF7FEFF 		bl	OLED_Update
2272:./Hardware/hardware/menu_data.c **** 		if(Key_back == 0)
 6616              		.loc 1 2272 6
 6617 0014 0E4B     		ldr	r3, .L619
 6618 0016 1B68     		ldr	r3, [r3]
 6619              		.loc 1 2272 5
 6620 0018 002B     		cmp	r3, #0
 6621 001a 12D1     		bne	.L614
2273:./Hardware/hardware/menu_data.c **** 		{
2274:./Hardware/hardware/menu_data.c **** 			Delay_ms(10); // 消抖
 6622              		.loc 1 2274 4
 6623 001c 0A20     		movs	r0, #10
 6624 001e FFF7FEFF 		bl	Delay_ms
2275:./Hardware/hardware/menu_data.c **** 			back_press_time += 50; // 每次循环递增50ms
 6625              		.loc 1 2275 20
 6626 0022 FB79     		ldrb	r3, [r7, #7]
 6627 0024 3233     		adds	r3, r3, #50
 6628 0026 FB71     		strb	r3, [r7, #7]
2276:./Hardware/hardware/menu_data.c **** 			if(back_press_time >= 100)
 6629              		.loc 1 2276 6
 6630 0028 FB79     		ldrb	r3, [r7, #7]	@ zero_extendqisi2
 6631 002a 632B     		cmp	r3, #99
 6632 002c 05D9     		bls	.L615
2277:./Hardware/hardware/menu_data.c **** 			{
2278:./Hardware/hardware/menu_data.c **** 				// 长按200ms，退出函数
2279:./Hardware/hardware/menu_data.c **** 				while(Key_back == 0); // 等待松手
 6633              		.loc 1 2279 10
 6634 002e 00BF     		nop
ARM GAS  C:\Users\86134\AppData\Local\Temp\ccuTN5uR.s 			page 157


 6635              	.L616:
 6636              		.loc 1 2279 11 discriminator 1
 6637 0030 074B     		ldr	r3, .L619
 6638 0032 1B68     		ldr	r3, [r3]
 6639              		.loc 1 2279 10 discriminator 1
 6640 0034 002B     		cmp	r3, #0
 6641 0036 FBD0     		beq	.L616
2280:./Hardware/hardware/menu_data.c **** 				break;
 6642              		.loc 1 2280 5
 6643 0038 06E0     		b	.L613
 6644              	.L615:
2281:./Hardware/hardware/menu_data.c **** 			}
2282:./Hardware/hardware/menu_data.c **** 			rtc_f1_off(IIC_TEST);
 6645              		.loc 1 2282 4
 6646 003a 0020     		movs	r0, #0
 6647 003c FFF7FEFF 		bl	rtc_f1_off
2283:./Hardware/hardware/menu_data.c **** 			return;
 6648              		.loc 1 2283 4
 6649 0040 02E0     		b	.L613
 6650              	.L614:
2284:./Hardware/hardware/menu_data.c **** 		}
2285:./Hardware/hardware/menu_data.c **** 		else
2286:./Hardware/hardware/menu_data.c **** 		{
2287:./Hardware/hardware/menu_data.c **** 			back_press_time = 0; // 重置计时器
 6651              		.loc 1 2287 20
 6652 0042 0023     		movs	r3, #0
 6653 0044 FB71     		strb	r3, [r7, #7]
2270:./Hardware/hardware/menu_data.c **** 		OLED_Update();
 6654              		.loc 1 2270 3
 6655 0046 E0E7     		b	.L618
 6656              	.L613:
2288:./Hardware/hardware/menu_data.c **** 		}
2289:./Hardware/hardware/menu_data.c **** 	}
2290:./Hardware/hardware/menu_data.c **** 	
2291:./Hardware/hardware/menu_data.c **** }
 6657              		.loc 1 2291 1
 6658 0048 0837     		adds	r7, r7, #8
 6659              	.LCFI332:
 6660              		.cfi_def_cfa_offset 8
 6661 004a BD46     		mov	sp, r7
 6662              	.LCFI333:
 6663              		.cfi_def_cfa_register 13
 6664              		@ sp needed
 6665 004c 80BD     		pop	{r7, pc}
 6666              	.L620:
 6667 004e 00BF     		.align	2
 6668              	.L619:
 6669 0050 34812142 		.word	1109492020
 6670              		.cfi_endproc
 6671              	.LFE98:
 6673              		.section	.text.f1_2_Out,"ax",%progbits
 6674              		.align	1
 6675              		.global	f1_2_Out
 6676              		.syntax unified
 6677              		.thumb
 6678              		.thumb_func
 6679              		.fpu softvfp
ARM GAS  C:\Users\86134\AppData\Local\Temp\ccuTN5uR.s 			page 158


 6681              	f1_2_Out:
 6682              	.LFB99:
2292:./Hardware/hardware/menu_data.c **** 
2293:./Hardware/hardware/menu_data.c **** void f1_2_Out(void)
2294:./Hardware/hardware/menu_data.c **** {
 6683              		.loc 1 2294 1
 6684              		.cfi_startproc
 6685              		@ args = 0, pretend = 0, frame = 8
 6686              		@ frame_needed = 1, uses_anonymous_args = 0
 6687 0000 80B5     		push	{r7, lr}
 6688              	.LCFI334:
 6689              		.cfi_def_cfa_offset 8
 6690              		.cfi_offset 7, -8
 6691              		.cfi_offset 14, -4
 6692 0002 82B0     		sub	sp, sp, #8
 6693              	.LCFI335:
 6694              		.cfi_def_cfa_offset 16
 6695 0004 00AF     		add	r7, sp, #0
 6696              	.LCFI336:
 6697              		.cfi_def_cfa_register 7
2295:./Hardware/hardware/menu_data.c **** 	uint8_t back_press_time = 0;
 6698              		.loc 1 2295 10
 6699 0006 0023     		movs	r3, #0
 6700 0008 FB71     		strb	r3, [r7, #7]
 6701              	.L626:
2296:./Hardware/hardware/menu_data.c **** 	
2297:./Hardware/hardware/menu_data.c **** 	while(1)
2298:./Hardware/hardware/menu_data.c **** 	{
2299:./Hardware/hardware/menu_data.c **** 		rtc_f1_2(IIC_TEST);
 6702              		.loc 1 2299 3
 6703 000a 0020     		movs	r0, #0
 6704 000c FFF7FEFF 		bl	rtc_f1_2
2300:./Hardware/hardware/menu_data.c **** 		OLED_Update();
 6705              		.loc 1 2300 3
 6706 0010 FFF7FEFF 		bl	OLED_Update
2301:./Hardware/hardware/menu_data.c **** 		if(Key_back == 0)
 6707              		.loc 1 2301 6
 6708 0014 0E4B     		ldr	r3, .L627
 6709 0016 1B68     		ldr	r3, [r3]
 6710              		.loc 1 2301 5
 6711 0018 002B     		cmp	r3, #0
 6712 001a 12D1     		bne	.L622
2302:./Hardware/hardware/menu_data.c **** 		{
2303:./Hardware/hardware/menu_data.c **** 			Delay_ms(10); // 消抖
 6713              		.loc 1 2303 4
 6714 001c 0A20     		movs	r0, #10
 6715 001e FFF7FEFF 		bl	Delay_ms
2304:./Hardware/hardware/menu_data.c **** 			back_press_time += 50; // 每次循环递增50ms
 6716              		.loc 1 2304 20
 6717 0022 FB79     		ldrb	r3, [r7, #7]
 6718 0024 3233     		adds	r3, r3, #50
 6719 0026 FB71     		strb	r3, [r7, #7]
2305:./Hardware/hardware/menu_data.c **** 			if(back_press_time >= 100)
 6720              		.loc 1 2305 6
 6721 0028 FB79     		ldrb	r3, [r7, #7]	@ zero_extendqisi2
 6722 002a 632B     		cmp	r3, #99
 6723 002c 05D9     		bls	.L623
ARM GAS  C:\Users\86134\AppData\Local\Temp\ccuTN5uR.s 			page 159


2306:./Hardware/hardware/menu_data.c **** 			{
2307:./Hardware/hardware/menu_data.c **** 				// 长按200ms，退出函数
2308:./Hardware/hardware/menu_data.c **** 				while(Key_back == 0); // 等待松手
 6724              		.loc 1 2308 10
 6725 002e 00BF     		nop
 6726              	.L624:
 6727              		.loc 1 2308 11 discriminator 1
 6728 0030 074B     		ldr	r3, .L627
 6729 0032 1B68     		ldr	r3, [r3]
 6730              		.loc 1 2308 10 discriminator 1
 6731 0034 002B     		cmp	r3, #0
 6732 0036 FBD0     		beq	.L624
2309:./Hardware/hardware/menu_data.c **** 				break;
 6733              		.loc 1 2309 5
 6734 0038 06E0     		b	.L621
 6735              	.L623:
2310:./Hardware/hardware/menu_data.c **** 			}
2311:./Hardware/hardware/menu_data.c **** 			rtc_f1_2_off(IIC_TEST);
 6736              		.loc 1 2311 4
 6737 003a 0020     		movs	r0, #0
 6738 003c FFF7FEFF 		bl	rtc_f1_2_off
2312:./Hardware/hardware/menu_data.c **** 			return;
 6739              		.loc 1 2312 4
 6740 0040 02E0     		b	.L621
 6741              	.L622:
2313:./Hardware/hardware/menu_data.c **** 		}
2314:./Hardware/hardware/menu_data.c **** 		else
2315:./Hardware/hardware/menu_data.c **** 		{
2316:./Hardware/hardware/menu_data.c **** 			back_press_time = 0; // 重置计时器
 6742              		.loc 1 2316 20
 6743 0042 0023     		movs	r3, #0
 6744 0044 FB71     		strb	r3, [r7, #7]
2299:./Hardware/hardware/menu_data.c **** 		OLED_Update();
 6745              		.loc 1 2299 3
 6746 0046 E0E7     		b	.L626
 6747              	.L621:
2317:./Hardware/hardware/menu_data.c **** 		}
2318:./Hardware/hardware/menu_data.c **** 	}
2319:./Hardware/hardware/menu_data.c **** 	
2320:./Hardware/hardware/menu_data.c **** }
 6748              		.loc 1 2320 1
 6749 0048 0837     		adds	r7, r7, #8
 6750              	.LCFI337:
 6751              		.cfi_def_cfa_offset 8
 6752 004a BD46     		mov	sp, r7
 6753              	.LCFI338:
 6754              		.cfi_def_cfa_register 13
 6755              		@ sp needed
 6756 004c 80BD     		pop	{r7, pc}
 6757              	.L628:
 6758 004e 00BF     		.align	2
 6759              	.L627:
 6760 0050 34812142 		.word	1109492020
 6761              		.cfi_endproc
 6762              	.LFE99:
 6764              		.section	.text.f1_4_Out,"ax",%progbits
 6765              		.align	1
ARM GAS  C:\Users\86134\AppData\Local\Temp\ccuTN5uR.s 			page 160


 6766              		.global	f1_4_Out
 6767              		.syntax unified
 6768              		.thumb
 6769              		.thumb_func
 6770              		.fpu softvfp
 6772              	f1_4_Out:
 6773              	.LFB100:
2321:./Hardware/hardware/menu_data.c **** 
2322:./Hardware/hardware/menu_data.c **** void f1_4_Out(void)
2323:./Hardware/hardware/menu_data.c **** {
 6774              		.loc 1 2323 1
 6775              		.cfi_startproc
 6776              		@ args = 0, pretend = 0, frame = 8
 6777              		@ frame_needed = 1, uses_anonymous_args = 0
 6778 0000 80B5     		push	{r7, lr}
 6779              	.LCFI339:
 6780              		.cfi_def_cfa_offset 8
 6781              		.cfi_offset 7, -8
 6782              		.cfi_offset 14, -4
 6783 0002 82B0     		sub	sp, sp, #8
 6784              	.LCFI340:
 6785              		.cfi_def_cfa_offset 16
 6786 0004 00AF     		add	r7, sp, #0
 6787              	.LCFI341:
 6788              		.cfi_def_cfa_register 7
2324:./Hardware/hardware/menu_data.c **** 	uint8_t back_press_time = 0;
 6789              		.loc 1 2324 10
 6790 0006 0023     		movs	r3, #0
 6791 0008 FB71     		strb	r3, [r7, #7]
 6792              	.L634:
2325:./Hardware/hardware/menu_data.c **** 	
2326:./Hardware/hardware/menu_data.c **** 	while(1)
2327:./Hardware/hardware/menu_data.c **** 	{
2328:./Hardware/hardware/menu_data.c **** 		rtc_f1_4(IIC_TEST);
 6793              		.loc 1 2328 3
 6794 000a 0020     		movs	r0, #0
 6795 000c FFF7FEFF 		bl	rtc_f1_4
2329:./Hardware/hardware/menu_data.c **** 		OLED_Update();
 6796              		.loc 1 2329 3
 6797 0010 FFF7FEFF 		bl	OLED_Update
2330:./Hardware/hardware/menu_data.c **** 		if(Key_back == 0)
 6798              		.loc 1 2330 6
 6799 0014 0E4B     		ldr	r3, .L635
 6800 0016 1B68     		ldr	r3, [r3]
 6801              		.loc 1 2330 5
 6802 0018 002B     		cmp	r3, #0
 6803 001a 12D1     		bne	.L630
2331:./Hardware/hardware/menu_data.c **** 		{
2332:./Hardware/hardware/menu_data.c **** 			Delay_ms(10); // 消抖
 6804              		.loc 1 2332 4
 6805 001c 0A20     		movs	r0, #10
 6806 001e FFF7FEFF 		bl	Delay_ms
2333:./Hardware/hardware/menu_data.c **** 			back_press_time += 50; // 每次循环递增50ms
 6807              		.loc 1 2333 20
 6808 0022 FB79     		ldrb	r3, [r7, #7]
 6809 0024 3233     		adds	r3, r3, #50
 6810 0026 FB71     		strb	r3, [r7, #7]
ARM GAS  C:\Users\86134\AppData\Local\Temp\ccuTN5uR.s 			page 161


2334:./Hardware/hardware/menu_data.c **** 			if(back_press_time >= 100)
 6811              		.loc 1 2334 6
 6812 0028 FB79     		ldrb	r3, [r7, #7]	@ zero_extendqisi2
 6813 002a 632B     		cmp	r3, #99
 6814 002c 05D9     		bls	.L631
2335:./Hardware/hardware/menu_data.c **** 			{
2336:./Hardware/hardware/menu_data.c **** 				// 长按200ms，退出函数
2337:./Hardware/hardware/menu_data.c **** 				while(Key_back == 0); // 等待松手
 6815              		.loc 1 2337 10
 6816 002e 00BF     		nop
 6817              	.L632:
 6818              		.loc 1 2337 11 discriminator 1
 6819 0030 074B     		ldr	r3, .L635
 6820 0032 1B68     		ldr	r3, [r3]
 6821              		.loc 1 2337 10 discriminator 1
 6822 0034 002B     		cmp	r3, #0
 6823 0036 FBD0     		beq	.L632
2338:./Hardware/hardware/menu_data.c **** 				break;
 6824              		.loc 1 2338 5
 6825 0038 06E0     		b	.L629
 6826              	.L631:
2339:./Hardware/hardware/menu_data.c **** 			}
2340:./Hardware/hardware/menu_data.c **** 			rtc_f1_4_off(IIC_TEST);
 6827              		.loc 1 2340 4
 6828 003a 0020     		movs	r0, #0
 6829 003c FFF7FEFF 		bl	rtc_f1_4_off
2341:./Hardware/hardware/menu_data.c **** 			return;
 6830              		.loc 1 2341 4
 6831 0040 02E0     		b	.L629
 6832              	.L630:
2342:./Hardware/hardware/menu_data.c **** 		}
2343:./Hardware/hardware/menu_data.c **** 		else
2344:./Hardware/hardware/menu_data.c **** 		{
2345:./Hardware/hardware/menu_data.c **** 			back_press_time = 0; // 重置计时器
 6833              		.loc 1 2345 20
 6834 0042 0023     		movs	r3, #0
 6835 0044 FB71     		strb	r3, [r7, #7]
2328:./Hardware/hardware/menu_data.c **** 		OLED_Update();
 6836              		.loc 1 2328 3
 6837 0046 E0E7     		b	.L634
 6838              	.L629:
2346:./Hardware/hardware/menu_data.c **** 		}
2347:./Hardware/hardware/menu_data.c **** 	}
2348:./Hardware/hardware/menu_data.c **** 	
2349:./Hardware/hardware/menu_data.c **** }
 6839              		.loc 1 2349 1
 6840 0048 0837     		adds	r7, r7, #8
 6841              	.LCFI342:
 6842              		.cfi_def_cfa_offset 8
 6843 004a BD46     		mov	sp, r7
 6844              	.LCFI343:
 6845              		.cfi_def_cfa_register 13
 6846              		@ sp needed
 6847 004c 80BD     		pop	{r7, pc}
 6848              	.L636:
 6849 004e 00BF     		.align	2
 6850              	.L635:
ARM GAS  C:\Users\86134\AppData\Local\Temp\ccuTN5uR.s 			page 162


 6851 0050 34812142 		.word	1109492020
 6852              		.cfi_endproc
 6853              	.LFE100:
 6855              		.section	.text.F1_8_Out,"ax",%progbits
 6856              		.align	1
 6857              		.global	F1_8_Out
 6858              		.syntax unified
 6859              		.thumb
 6860              		.thumb_func
 6861              		.fpu softvfp
 6863              	F1_8_Out:
 6864              	.LFB101:
2350:./Hardware/hardware/menu_data.c **** 
2351:./Hardware/hardware/menu_data.c **** void F1_8_Out(void)
2352:./Hardware/hardware/menu_data.c **** {
 6865              		.loc 1 2352 1
 6866              		.cfi_startproc
 6867              		@ args = 0, pretend = 0, frame = 8
 6868              		@ frame_needed = 1, uses_anonymous_args = 0
 6869 0000 80B5     		push	{r7, lr}
 6870              	.LCFI344:
 6871              		.cfi_def_cfa_offset 8
 6872              		.cfi_offset 7, -8
 6873              		.cfi_offset 14, -4
 6874 0002 82B0     		sub	sp, sp, #8
 6875              	.LCFI345:
 6876              		.cfi_def_cfa_offset 16
 6877 0004 00AF     		add	r7, sp, #0
 6878              	.LCFI346:
 6879              		.cfi_def_cfa_register 7
2353:./Hardware/hardware/menu_data.c **** 	uint8_t back_press_time = 0;
 6880              		.loc 1 2353 10
 6881 0006 0023     		movs	r3, #0
 6882 0008 FB71     		strb	r3, [r7, #7]
 6883              	.L642:
2354:./Hardware/hardware/menu_data.c **** 	
2355:./Hardware/hardware/menu_data.c **** 	while(1)
2356:./Hardware/hardware/menu_data.c **** 	{
2357:./Hardware/hardware/menu_data.c **** 		rtc_f1_8(IIC_TEST);
 6884              		.loc 1 2357 3
 6885 000a 0020     		movs	r0, #0
 6886 000c FFF7FEFF 		bl	rtc_f1_8
2358:./Hardware/hardware/menu_data.c **** 		OLED_Update();
 6887              		.loc 1 2358 3
 6888 0010 FFF7FEFF 		bl	OLED_Update
2359:./Hardware/hardware/menu_data.c **** 		if(Key_back == 0)
 6889              		.loc 1 2359 6
 6890 0014 0E4B     		ldr	r3, .L643
 6891 0016 1B68     		ldr	r3, [r3]
 6892              		.loc 1 2359 5
 6893 0018 002B     		cmp	r3, #0
 6894 001a 12D1     		bne	.L638
2360:./Hardware/hardware/menu_data.c **** 		{
2361:./Hardware/hardware/menu_data.c **** 			Delay_ms(10); // 消抖
 6895              		.loc 1 2361 4
 6896 001c 0A20     		movs	r0, #10
 6897 001e FFF7FEFF 		bl	Delay_ms
ARM GAS  C:\Users\86134\AppData\Local\Temp\ccuTN5uR.s 			page 163


2362:./Hardware/hardware/menu_data.c **** 			back_press_time += 50; // 每次循环递增50ms
 6898              		.loc 1 2362 20
 6899 0022 FB79     		ldrb	r3, [r7, #7]
 6900 0024 3233     		adds	r3, r3, #50
 6901 0026 FB71     		strb	r3, [r7, #7]
2363:./Hardware/hardware/menu_data.c **** 			if(back_press_time >= 100)
 6902              		.loc 1 2363 6
 6903 0028 FB79     		ldrb	r3, [r7, #7]	@ zero_extendqisi2
 6904 002a 632B     		cmp	r3, #99
 6905 002c 05D9     		bls	.L639
2364:./Hardware/hardware/menu_data.c **** 			{
2365:./Hardware/hardware/menu_data.c **** 				// 长按200ms，退出函数
2366:./Hardware/hardware/menu_data.c **** 				while(Key_back == 0); // 等待松手
 6906              		.loc 1 2366 10
 6907 002e 00BF     		nop
 6908              	.L640:
 6909              		.loc 1 2366 11 discriminator 1
 6910 0030 074B     		ldr	r3, .L643
 6911 0032 1B68     		ldr	r3, [r3]
 6912              		.loc 1 2366 10 discriminator 1
 6913 0034 002B     		cmp	r3, #0
 6914 0036 FBD0     		beq	.L640
2367:./Hardware/hardware/menu_data.c **** 				break;
 6915              		.loc 1 2367 5
 6916 0038 06E0     		b	.L637
 6917              	.L639:
2368:./Hardware/hardware/menu_data.c **** 			}
2369:./Hardware/hardware/menu_data.c **** 			rtc_f1_8_off(IIC_TEST);
 6918              		.loc 1 2369 4
 6919 003a 0020     		movs	r0, #0
 6920 003c FFF7FEFF 		bl	rtc_f1_8_off
2370:./Hardware/hardware/menu_data.c **** 			return;
 6921              		.loc 1 2370 4
 6922 0040 02E0     		b	.L637
 6923              	.L638:
2371:./Hardware/hardware/menu_data.c **** 		}
2372:./Hardware/hardware/menu_data.c **** 		else
2373:./Hardware/hardware/menu_data.c **** 		{
2374:./Hardware/hardware/menu_data.c **** 			back_press_time = 0; // 重置计时器
 6924              		.loc 1 2374 20
 6925 0042 0023     		movs	r3, #0
 6926 0044 FB71     		strb	r3, [r7, #7]
2357:./Hardware/hardware/menu_data.c **** 		OLED_Update();
 6927              		.loc 1 2357 3
 6928 0046 E0E7     		b	.L642
 6929              	.L637:
2375:./Hardware/hardware/menu_data.c **** 		}
2376:./Hardware/hardware/menu_data.c **** 	}
2377:./Hardware/hardware/menu_data.c **** 	
2378:./Hardware/hardware/menu_data.c **** 
2379:./Hardware/hardware/menu_data.c **** }
 6930              		.loc 1 2379 1
 6931 0048 0837     		adds	r7, r7, #8
 6932              	.LCFI347:
 6933              		.cfi_def_cfa_offset 8
 6934 004a BD46     		mov	sp, r7
 6935              	.LCFI348:
ARM GAS  C:\Users\86134\AppData\Local\Temp\ccuTN5uR.s 			page 164


 6936              		.cfi_def_cfa_register 13
 6937              		@ sp needed
 6938 004c 80BD     		pop	{r7, pc}
 6939              	.L644:
 6940 004e 00BF     		.align	2
 6941              	.L643:
 6942 0050 34812142 		.word	1109492020
 6943              		.cfi_endproc
 6944              	.LFE101:
 6946              		.section	.text.F1_16_Out,"ax",%progbits
 6947              		.align	1
 6948              		.global	F1_16_Out
 6949              		.syntax unified
 6950              		.thumb
 6951              		.thumb_func
 6952              		.fpu softvfp
 6954              	F1_16_Out:
 6955              	.LFB102:
2380:./Hardware/hardware/menu_data.c **** 
2381:./Hardware/hardware/menu_data.c **** void F1_16_Out(void)
2382:./Hardware/hardware/menu_data.c **** {
 6956              		.loc 1 2382 1
 6957              		.cfi_startproc
 6958              		@ args = 0, pretend = 0, frame = 8
 6959              		@ frame_needed = 1, uses_anonymous_args = 0
 6960 0000 80B5     		push	{r7, lr}
 6961              	.LCFI349:
 6962              		.cfi_def_cfa_offset 8
 6963              		.cfi_offset 7, -8
 6964              		.cfi_offset 14, -4
 6965 0002 82B0     		sub	sp, sp, #8
 6966              	.LCFI350:
 6967              		.cfi_def_cfa_offset 16
 6968 0004 00AF     		add	r7, sp, #0
 6969              	.LCFI351:
 6970              		.cfi_def_cfa_register 7
2383:./Hardware/hardware/menu_data.c **** 	uint8_t back_press_time = 0;
 6971              		.loc 1 2383 10
 6972 0006 0023     		movs	r3, #0
 6973 0008 FB71     		strb	r3, [r7, #7]
 6974              	.L650:
2384:./Hardware/hardware/menu_data.c **** 	
2385:./Hardware/hardware/menu_data.c **** 	while(1)
2386:./Hardware/hardware/menu_data.c **** 	{
2387:./Hardware/hardware/menu_data.c **** 		rtc_f1_16(IIC_TEST);
 6975              		.loc 1 2387 3
 6976 000a 0020     		movs	r0, #0
 6977 000c FFF7FEFF 		bl	rtc_f1_16
2388:./Hardware/hardware/menu_data.c **** 		OLED_Update();
 6978              		.loc 1 2388 3
 6979 0010 FFF7FEFF 		bl	OLED_Update
2389:./Hardware/hardware/menu_data.c **** 		if(Key_back == 0)
 6980              		.loc 1 2389 6
 6981 0014 0E4B     		ldr	r3, .L651
 6982 0016 1B68     		ldr	r3, [r3]
 6983              		.loc 1 2389 5
 6984 0018 002B     		cmp	r3, #0
ARM GAS  C:\Users\86134\AppData\Local\Temp\ccuTN5uR.s 			page 165


 6985 001a 12D1     		bne	.L646
2390:./Hardware/hardware/menu_data.c **** 		{
2391:./Hardware/hardware/menu_data.c **** 			Delay_ms(10); // 消抖
 6986              		.loc 1 2391 4
 6987 001c 0A20     		movs	r0, #10
 6988 001e FFF7FEFF 		bl	Delay_ms
2392:./Hardware/hardware/menu_data.c **** 			back_press_time += 50; // 每次循环递增50ms
 6989              		.loc 1 2392 20
 6990 0022 FB79     		ldrb	r3, [r7, #7]
 6991 0024 3233     		adds	r3, r3, #50
 6992 0026 FB71     		strb	r3, [r7, #7]
2393:./Hardware/hardware/menu_data.c **** 			if(back_press_time >= 100)
 6993              		.loc 1 2393 6
 6994 0028 FB79     		ldrb	r3, [r7, #7]	@ zero_extendqisi2
 6995 002a 632B     		cmp	r3, #99
 6996 002c 05D9     		bls	.L647
2394:./Hardware/hardware/menu_data.c **** 			{
2395:./Hardware/hardware/menu_data.c **** 				// 长按200ms，退出函数
2396:./Hardware/hardware/menu_data.c **** 				while(Key_back == 0); // 等待松手
 6997              		.loc 1 2396 10
 6998 002e 00BF     		nop
 6999              	.L648:
 7000              		.loc 1 2396 11 discriminator 1
 7001 0030 074B     		ldr	r3, .L651
 7002 0032 1B68     		ldr	r3, [r3]
 7003              		.loc 1 2396 10 discriminator 1
 7004 0034 002B     		cmp	r3, #0
 7005 0036 FBD0     		beq	.L648
2397:./Hardware/hardware/menu_data.c **** 				break;
 7006              		.loc 1 2397 5
 7007 0038 06E0     		b	.L645
 7008              	.L647:
2398:./Hardware/hardware/menu_data.c **** 			}
2399:./Hardware/hardware/menu_data.c **** 			rtc_f1_16_off(IIC_TEST);
 7009              		.loc 1 2399 4
 7010 003a 0020     		movs	r0, #0
 7011 003c FFF7FEFF 		bl	rtc_f1_16_off
2400:./Hardware/hardware/menu_data.c **** 			return;
 7012              		.loc 1 2400 4
 7013 0040 02E0     		b	.L645
 7014              	.L646:
2401:./Hardware/hardware/menu_data.c **** 		}
2402:./Hardware/hardware/menu_data.c **** 		else
2403:./Hardware/hardware/menu_data.c **** 		{
2404:./Hardware/hardware/menu_data.c **** 			back_press_time = 0; // 重置计时器
 7015              		.loc 1 2404 20
 7016 0042 0023     		movs	r3, #0
 7017 0044 FB71     		strb	r3, [r7, #7]
2387:./Hardware/hardware/menu_data.c **** 		OLED_Update();
 7018              		.loc 1 2387 3
 7019 0046 E0E7     		b	.L650
 7020              	.L645:
2405:./Hardware/hardware/menu_data.c **** 		}
2406:./Hardware/hardware/menu_data.c **** 	}
2407:./Hardware/hardware/menu_data.c **** 	
2408:./Hardware/hardware/menu_data.c **** 
2409:./Hardware/hardware/menu_data.c **** }
ARM GAS  C:\Users\86134\AppData\Local\Temp\ccuTN5uR.s 			page 166


 7021              		.loc 1 2409 1
 7022 0048 0837     		adds	r7, r7, #8
 7023              	.LCFI352:
 7024              		.cfi_def_cfa_offset 8
 7025 004a BD46     		mov	sp, r7
 7026              	.LCFI353:
 7027              		.cfi_def_cfa_register 13
 7028              		@ sp needed
 7029 004c 80BD     		pop	{r7, pc}
 7030              	.L652:
 7031 004e 00BF     		.align	2
 7032              	.L651:
 7033 0050 34812142 		.word	1109492020
 7034              		.cfi_endproc
 7035              	.LFE102:
 7037              		.section	.text.f1s_Out,"ax",%progbits
 7038              		.align	1
 7039              		.global	f1s_Out
 7040              		.syntax unified
 7041              		.thumb
 7042              		.thumb_func
 7043              		.fpu softvfp
 7045              	f1s_Out:
 7046              	.LFB103:
2410:./Hardware/hardware/menu_data.c **** 
2411:./Hardware/hardware/menu_data.c **** void f1s_Out(void)
2412:./Hardware/hardware/menu_data.c **** {
 7047              		.loc 1 2412 1
 7048              		.cfi_startproc
 7049              		@ args = 0, pretend = 0, frame = 8
 7050              		@ frame_needed = 1, uses_anonymous_args = 0
 7051 0000 80B5     		push	{r7, lr}
 7052              	.LCFI354:
 7053              		.cfi_def_cfa_offset 8
 7054              		.cfi_offset 7, -8
 7055              		.cfi_offset 14, -4
 7056 0002 82B0     		sub	sp, sp, #8
 7057              	.LCFI355:
 7058              		.cfi_def_cfa_offset 16
 7059 0004 00AF     		add	r7, sp, #0
 7060              	.LCFI356:
 7061              		.cfi_def_cfa_register 7
2413:./Hardware/hardware/menu_data.c **** 	uint8_t back_press_time = 0;
 7062              		.loc 1 2413 10
 7063 0006 0023     		movs	r3, #0
 7064 0008 FB71     		strb	r3, [r7, #7]
 7065              	.L658:
2414:./Hardware/hardware/menu_data.c **** 	
2415:./Hardware/hardware/menu_data.c **** 	while(1)
2416:./Hardware/hardware/menu_data.c **** 	{
2417:./Hardware/hardware/menu_data.c **** 		rtc_f1s(IIC_TEST);
 7066              		.loc 1 2417 3
 7067 000a 0020     		movs	r0, #0
 7068 000c FFF7FEFF 		bl	rtc_f1s
2418:./Hardware/hardware/menu_data.c **** 		OLED_Update();
 7069              		.loc 1 2418 3
 7070 0010 FFF7FEFF 		bl	OLED_Update
ARM GAS  C:\Users\86134\AppData\Local\Temp\ccuTN5uR.s 			page 167


2419:./Hardware/hardware/menu_data.c **** 		if(Key_back == 0)
 7071              		.loc 1 2419 6
 7072 0014 0E4B     		ldr	r3, .L659
 7073 0016 1B68     		ldr	r3, [r3]
 7074              		.loc 1 2419 5
 7075 0018 002B     		cmp	r3, #0
 7076 001a 12D1     		bne	.L654
2420:./Hardware/hardware/menu_data.c **** 		{
2421:./Hardware/hardware/menu_data.c **** 			Delay_ms(10); // 消抖
 7077              		.loc 1 2421 4
 7078 001c 0A20     		movs	r0, #10
 7079 001e FFF7FEFF 		bl	Delay_ms
2422:./Hardware/hardware/menu_data.c **** 			back_press_time += 50; // 每次循环递增50ms
 7080              		.loc 1 2422 20
 7081 0022 FB79     		ldrb	r3, [r7, #7]
 7082 0024 3233     		adds	r3, r3, #50
 7083 0026 FB71     		strb	r3, [r7, #7]
2423:./Hardware/hardware/menu_data.c **** 			if(back_press_time >= 100)
 7084              		.loc 1 2423 6
 7085 0028 FB79     		ldrb	r3, [r7, #7]	@ zero_extendqisi2
 7086 002a 632B     		cmp	r3, #99
 7087 002c 05D9     		bls	.L655
2424:./Hardware/hardware/menu_data.c **** 			{
2425:./Hardware/hardware/menu_data.c **** 				// 长按200ms，退出函数
2426:./Hardware/hardware/menu_data.c **** 				while(Key_back == 0); // 等待松手
 7088              		.loc 1 2426 10
 7089 002e 00BF     		nop
 7090              	.L656:
 7091              		.loc 1 2426 11 discriminator 1
 7092 0030 074B     		ldr	r3, .L659
 7093 0032 1B68     		ldr	r3, [r3]
 7094              		.loc 1 2426 10 discriminator 1
 7095 0034 002B     		cmp	r3, #0
 7096 0036 FBD0     		beq	.L656
2427:./Hardware/hardware/menu_data.c **** 				break;
 7097              		.loc 1 2427 5
 7098 0038 06E0     		b	.L653
 7099              	.L655:
2428:./Hardware/hardware/menu_data.c **** 			}
2429:./Hardware/hardware/menu_data.c **** 			rtc_f1s_off(IIC_TEST);
 7100              		.loc 1 2429 4
 7101 003a 0020     		movs	r0, #0
 7102 003c FFF7FEFF 		bl	rtc_f1s_off
2430:./Hardware/hardware/menu_data.c **** 			return;
 7103              		.loc 1 2430 4
 7104 0040 02E0     		b	.L653
 7105              	.L654:
2431:./Hardware/hardware/menu_data.c **** 		}
2432:./Hardware/hardware/menu_data.c **** 		else
2433:./Hardware/hardware/menu_data.c **** 		{
2434:./Hardware/hardware/menu_data.c **** 			back_press_time = 0; // 重置计时器
 7106              		.loc 1 2434 20
 7107 0042 0023     		movs	r3, #0
 7108 0044 FB71     		strb	r3, [r7, #7]
2417:./Hardware/hardware/menu_data.c **** 		OLED_Update();
 7109              		.loc 1 2417 3
 7110 0046 E0E7     		b	.L658
ARM GAS  C:\Users\86134\AppData\Local\Temp\ccuTN5uR.s 			page 168


 7111              	.L653:
2435:./Hardware/hardware/menu_data.c **** 		}
2436:./Hardware/hardware/menu_data.c **** 	}
2437:./Hardware/hardware/menu_data.c **** 	
2438:./Hardware/hardware/menu_data.c **** 
2439:./Hardware/hardware/menu_data.c **** }
 7112              		.loc 1 2439 1
 7113 0048 0837     		adds	r7, r7, #8
 7114              	.LCFI357:
 7115              		.cfi_def_cfa_offset 8
 7116 004a BD46     		mov	sp, r7
 7117              	.LCFI358:
 7118              		.cfi_def_cfa_register 13
 7119              		@ sp needed
 7120 004c 80BD     		pop	{r7, pc}
 7121              	.L660:
 7122 004e 00BF     		.align	2
 7123              	.L659:
 7124 0050 34812142 		.word	1109492020
 7125              		.cfi_endproc
 7126              	.LFE103:
 7128              		.text
 7129              	.Letext0:
 7130              		.file 2 "c:\\stm32soft\\gcc\\gcc-arm-none-eabi-10-2020-q4-major-win32\\gcc-arm-none-eabi-10-2020-q
 7131              		.file 3 "c:\\stm32soft\\gcc\\gcc-arm-none-eabi-10-2020-q4-major-win32\\gcc-arm-none-eabi-10-2020-q
 7132              		.file 4 "./Hardware/device/iic.h"
ARM GAS  C:\Users\86134\AppData\Local\Temp\ccuTN5uR.s 			page 169


DEFINED SYMBOLS
                            *ABS*:00000000 menu_data.c
C:\Users\86134\AppData\Local\Temp\ccuTN5uR.s:16     .text.sd2506_messgae:00000000 $t
C:\Users\86134\AppData\Local\Temp\ccuTN5uR.s:24     .text.sd2506_messgae:00000000 sd2506_messgae
C:\Users\86134\AppData\Local\Temp\ccuTN5uR.s:102    .text.sd2506_messgae:0000004c $d
C:\Users\86134\AppData\Local\Temp\ccuTN5uR.s:107    .text.SD_Series_64addr_time:00000000 $t
C:\Users\86134\AppData\Local\Temp\ccuTN5uR.s:114    .text.SD_Series_64addr_time:00000000 SD_Series_64addr_time
C:\Users\86134\AppData\Local\Temp\ccuTN5uR.s:228    .text.SD_Series_64addr_time:0000007c $d
C:\Users\86134\AppData\Local\Temp\ccuTN5uR.s:234    .text.SD3XXX_and_std:00000000 $t
C:\Users\86134\AppData\Local\Temp\ccuTN5uR.s:241    .text.SD3XXX_and_std:00000000 SD3XXX_and_std
C:\Users\86134\AppData\Local\Temp\ccuTN5uR.s:394    .text.SD3XXX_and_std:000000b8 $d
C:\Users\86134\AppData\Local\Temp\ccuTN5uR.s:401    .text.SD2XXX_Series:00000000 $t
C:\Users\86134\AppData\Local\Temp\ccuTN5uR.s:408    .text.SD2XXX_Series:00000000 SD2XXX_Series
C:\Users\86134\AppData\Local\Temp\ccuTN5uR.s:483    .text.SD2XXX_Series:00000048 $d
C:\Users\86134\AppData\Local\Temp\ccuTN5uR.s:488    .text.SD3XXX_Series:00000000 $t
C:\Users\86134\AppData\Local\Temp\ccuTN5uR.s:495    .text.SD3XXX_Series:00000000 SD3XXX_Series
C:\Users\86134\AppData\Local\Temp\ccuTN5uR.s:570    .text.SD3XXX_Series:00000048 $d
C:\Users\86134\AppData\Local\Temp\ccuTN5uR.s:575    .text.SD85XX_Series:00000000 $t
C:\Users\86134\AppData\Local\Temp\ccuTN5uR.s:582    .text.SD85XX_Series:00000000 SD85XX_Series
C:\Users\86134\AppData\Local\Temp\ccuTN5uR.s:657    .text.SD85XX_Series:00000048 $d
C:\Users\86134\AppData\Local\Temp\ccuTN5uR.s:662    .text.SD85XX_and_std:00000000 $t
C:\Users\86134\AppData\Local\Temp\ccuTN5uR.s:669    .text.SD85XX_and_std:00000000 SD85XX_and_std
C:\Users\86134\AppData\Local\Temp\ccuTN5uR.s:783    .text.SD85XX_and_std:0000007c $d
C:\Users\86134\AppData\Local\Temp\ccuTN5uR.s:789    .text.SD8800_Series:00000000 $t
C:\Users\86134\AppData\Local\Temp\ccuTN5uR.s:796    .text.SD8800_Series:00000000 SD8800_Series
C:\Users\86134\AppData\Local\Temp\ccuTN5uR.s:871    .text.SD8800_Series:00000048 $d
C:\Users\86134\AppData\Local\Temp\ccuTN5uR.s:876    .text.SD8800_and_std:00000000 $t
C:\Users\86134\AppData\Local\Temp\ccuTN5uR.s:883    .text.SD8800_and_std:00000000 SD8800_and_std
C:\Users\86134\AppData\Local\Temp\ccuTN5uR.s:1046   .text.SD8800_and_std:000000c0 $d
C:\Users\86134\AppData\Local\Temp\ccuTN5uR.s:1053   .text.SD8804_Series:00000000 $t
C:\Users\86134\AppData\Local\Temp\ccuTN5uR.s:1060   .text.SD8804_Series:00000000 SD8804_Series
C:\Users\86134\AppData\Local\Temp\ccuTN5uR.s:1135   .text.SD8804_Series:00000048 $d
C:\Users\86134\AppData\Local\Temp\ccuTN5uR.s:1140   .text.SD8804_and_std:00000000 $t
C:\Users\86134\AppData\Local\Temp\ccuTN5uR.s:1147   .text.SD8804_and_std:00000000 SD8804_and_std
C:\Users\86134\AppData\Local\Temp\ccuTN5uR.s:1261   .text.SD8804_and_std:0000007c $d
C:\Users\86134\AppData\Local\Temp\ccuTN5uR.s:1267   .text.SD8810_Series:00000000 $t
C:\Users\86134\AppData\Local\Temp\ccuTN5uR.s:1274   .text.SD8810_Series:00000000 SD8810_Series
C:\Users\86134\AppData\Local\Temp\ccuTN5uR.s:1349   .text.SD8810_Series:00000048 $d
C:\Users\86134\AppData\Local\Temp\ccuTN5uR.s:1354   .text.SD8810_and_std:00000000 $t
C:\Users\86134\AppData\Local\Temp\ccuTN5uR.s:1361   .text.SD8810_and_std:00000000 SD8810_and_std
C:\Users\86134\AppData\Local\Temp\ccuTN5uR.s:1475   .text.SD8810_and_std:0000007c $d
C:\Users\86134\AppData\Local\Temp\ccuTN5uR.s:1481   .text.SD8825_Series:00000000 $t
C:\Users\86134\AppData\Local\Temp\ccuTN5uR.s:1488   .text.SD8825_Series:00000000 SD8825_Series
C:\Users\86134\AppData\Local\Temp\ccuTN5uR.s:1563   .text.SD8825_Series:00000048 $d
C:\Users\86134\AppData\Local\Temp\ccuTN5uR.s:1568   .text.SD8825_and_std:00000000 $t
C:\Users\86134\AppData\Local\Temp\ccuTN5uR.s:1575   .text.SD8825_and_std:00000000 SD8825_and_std
C:\Users\86134\AppData\Local\Temp\ccuTN5uR.s:1689   .text.SD8825_and_std:0000007c $d
C:\Users\86134\AppData\Local\Temp\ccuTN5uR.s:1695   .text.SD8840_Series:00000000 $t
C:\Users\86134\AppData\Local\Temp\ccuTN5uR.s:1702   .text.SD8840_Series:00000000 SD8840_Series
C:\Users\86134\AppData\Local\Temp\ccuTN5uR.s:1777   .text.SD8840_Series:00000048 $d
C:\Users\86134\AppData\Local\Temp\ccuTN5uR.s:1782   .text.SD8840_and_std:00000000 $t
C:\Users\86134\AppData\Local\Temp\ccuTN5uR.s:1789   .text.SD8840_and_std:00000000 SD8840_and_std
C:\Users\86134\AppData\Local\Temp\ccuTN5uR.s:1903   .text.SD8840_and_std:0000007c $d
C:\Users\86134\AppData\Local\Temp\ccuTN5uR.s:1909   .text.SD8200_Series:00000000 $t
C:\Users\86134\AppData\Local\Temp\ccuTN5uR.s:1916   .text.SD8200_Series:00000000 SD8200_Series
C:\Users\86134\AppData\Local\Temp\ccuTN5uR.s:1991   .text.SD8200_Series:00000048 $d
C:\Users\86134\AppData\Local\Temp\ccuTN5uR.s:1996   .text.SD8200_and_std:00000000 $t
ARM GAS  C:\Users\86134\AppData\Local\Temp\ccuTN5uR.s 			page 170


C:\Users\86134\AppData\Local\Temp\ccuTN5uR.s:2003   .text.SD8200_and_std:00000000 SD8200_and_std
C:\Users\86134\AppData\Local\Temp\ccuTN5uR.s:2166   .text.SD8200_and_std:000000c0 $d
C:\Users\86134\AppData\Local\Temp\ccuTN5uR.s:2173   .text.SD8931_Series:00000000 $t
C:\Users\86134\AppData\Local\Temp\ccuTN5uR.s:2180   .text.SD8931_Series:00000000 SD8931_Series
C:\Users\86134\AppData\Local\Temp\ccuTN5uR.s:2255   .text.SD8931_Series:00000048 $d
C:\Users\86134\AppData\Local\Temp\ccuTN5uR.s:2260   .text.SD8931_and_std:00000000 $t
C:\Users\86134\AppData\Local\Temp\ccuTN5uR.s:2267   .text.SD8931_and_std:00000000 SD8931_and_std
C:\Users\86134\AppData\Local\Temp\ccuTN5uR.s:2430   .text.SD8931_and_std:000000c0 $d
C:\Users\86134\AppData\Local\Temp\ccuTN5uR.s:2437   .text.SD8939_Series:00000000 $t
C:\Users\86134\AppData\Local\Temp\ccuTN5uR.s:2444   .text.SD8939_Series:00000000 SD8939_Series
C:\Users\86134\AppData\Local\Temp\ccuTN5uR.s:2519   .text.SD8939_Series:00000048 $d
C:\Users\86134\AppData\Local\Temp\ccuTN5uR.s:2524   .text.SD8939_and_std:00000000 $t
C:\Users\86134\AppData\Local\Temp\ccuTN5uR.s:2531   .text.SD8939_and_std:00000000 SD8939_and_std
C:\Users\86134\AppData\Local\Temp\ccuTN5uR.s:2645   .text.SD8939_and_std:0000007c $d
C:\Users\86134\AppData\Local\Temp\ccuTN5uR.s:2651   .text.SD8902_Series:00000000 $t
C:\Users\86134\AppData\Local\Temp\ccuTN5uR.s:2658   .text.SD8902_Series:00000000 SD8902_Series
C:\Users\86134\AppData\Local\Temp\ccuTN5uR.s:2733   .text.SD8902_Series:00000048 $d
C:\Users\86134\AppData\Local\Temp\ccuTN5uR.s:2738   .text.SD8902_and_std:00000000 $t
C:\Users\86134\AppData\Local\Temp\ccuTN5uR.s:2745   .text.SD8902_and_std:00000000 SD8902_and_std
C:\Users\86134\AppData\Local\Temp\ccuTN5uR.s:2908   .text.SD8902_and_std:000000c0 $d
C:\Users\86134\AppData\Local\Temp\ccuTN5uR.s:2915   .text.null:00000000 $t
C:\Users\86134\AppData\Local\Temp\ccuTN5uR.s:2922   .text.null:00000000 null
C:\Users\86134\AppData\Local\Temp\ccuTN5uR.s:2951   .text.f32768_8563_Out:00000000 $t
C:\Users\86134\AppData\Local\Temp\ccuTN5uR.s:2958   .text.f32768_8563_Out:00000000 f32768_8563_Out
C:\Users\86134\AppData\Local\Temp\ccuTN5uR.s:3037   .text.f32768_8563_Out:00000050 $d
C:\Users\86134\AppData\Local\Temp\ccuTN5uR.s:3042   .text.f1024_8563_Out:00000000 $t
C:\Users\86134\AppData\Local\Temp\ccuTN5uR.s:3049   .text.f1024_8563_Out:00000000 f1024_8563_Out
C:\Users\86134\AppData\Local\Temp\ccuTN5uR.s:3128   .text.f1024_8563_Out:00000050 $d
C:\Users\86134\AppData\Local\Temp\ccuTN5uR.s:3133   .text.f32_8563_Out:00000000 $t
C:\Users\86134\AppData\Local\Temp\ccuTN5uR.s:3140   .text.f32_8563_Out:00000000 f32_8563_Out
C:\Users\86134\AppData\Local\Temp\ccuTN5uR.s:3219   .text.f32_8563_Out:00000050 $d
C:\Users\86134\AppData\Local\Temp\ccuTN5uR.s:3224   .text.f1_8563_Out:00000000 $t
C:\Users\86134\AppData\Local\Temp\ccuTN5uR.s:3231   .text.f1_8563_Out:00000000 f1_8563_Out
C:\Users\86134\AppData\Local\Temp\ccuTN5uR.s:3310   .text.f1_8563_Out:00000050 $d
C:\Users\86134\AppData\Local\Temp\ccuTN5uR.s:3315   .text.f32768_8939_Out:00000000 $t
C:\Users\86134\AppData\Local\Temp\ccuTN5uR.s:3322   .text.f32768_8939_Out:00000000 f32768_8939_Out
C:\Users\86134\AppData\Local\Temp\ccuTN5uR.s:3401   .text.f32768_8939_Out:00000050 $d
C:\Users\86134\AppData\Local\Temp\ccuTN5uR.s:3406   .text.f8192_8939_Out:00000000 $t
C:\Users\86134\AppData\Local\Temp\ccuTN5uR.s:3413   .text.f8192_8939_Out:00000000 f8192_8939_Out
C:\Users\86134\AppData\Local\Temp\ccuTN5uR.s:3492   .text.f8192_8939_Out:00000050 $d
C:\Users\86134\AppData\Local\Temp\ccuTN5uR.s:3497   .text.f4096_8939_Out:00000000 $t
C:\Users\86134\AppData\Local\Temp\ccuTN5uR.s:3504   .text.f4096_8939_Out:00000000 f4096_8939_Out
C:\Users\86134\AppData\Local\Temp\ccuTN5uR.s:3583   .text.f4096_8939_Out:00000050 $d
C:\Users\86134\AppData\Local\Temp\ccuTN5uR.s:3588   .text.f1_8939_Out:00000000 $t
C:\Users\86134\AppData\Local\Temp\ccuTN5uR.s:3595   .text.f1_8939_Out:00000000 f1_8939_Out
C:\Users\86134\AppData\Local\Temp\ccuTN5uR.s:3674   .text.f1_8939_Out:00000050 $d
C:\Users\86134\AppData\Local\Temp\ccuTN5uR.s:3679   .text.f32768_8825_Out:00000000 $t
C:\Users\86134\AppData\Local\Temp\ccuTN5uR.s:3686   .text.f32768_8825_Out:00000000 f32768_8825_Out
C:\Users\86134\AppData\Local\Temp\ccuTN5uR.s:3765   .text.f32768_8825_Out:00000050 $d
C:\Users\86134\AppData\Local\Temp\ccuTN5uR.s:3770   .text.f1024_8825_Out:00000000 $t
C:\Users\86134\AppData\Local\Temp\ccuTN5uR.s:3777   .text.f1024_8825_Out:00000000 f1024_8825_Out
C:\Users\86134\AppData\Local\Temp\ccuTN5uR.s:3856   .text.f1024_8825_Out:00000050 $d
C:\Users\86134\AppData\Local\Temp\ccuTN5uR.s:3861   .text.f1_8825_Out:00000000 $t
C:\Users\86134\AppData\Local\Temp\ccuTN5uR.s:3868   .text.f1_8825_Out:00000000 f1_8825_Out
C:\Users\86134\AppData\Local\Temp\ccuTN5uR.s:3947   .text.f1_8825_Out:00000050 $d
C:\Users\86134\AppData\Local\Temp\ccuTN5uR.s:3952   .text.f32_8902_Out:00000000 $t
C:\Users\86134\AppData\Local\Temp\ccuTN5uR.s:3959   .text.f32_8902_Out:00000000 f32_8902_Out
ARM GAS  C:\Users\86134\AppData\Local\Temp\ccuTN5uR.s 			page 171


C:\Users\86134\AppData\Local\Temp\ccuTN5uR.s:4036   .text.f32_8902_Out:0000004c $d
C:\Users\86134\AppData\Local\Temp\ccuTN5uR.s:4041   .text.f32768_8804_Out:00000000 $t
C:\Users\86134\AppData\Local\Temp\ccuTN5uR.s:4048   .text.f32768_8804_Out:00000000 f32768_8804_Out
C:\Users\86134\AppData\Local\Temp\ccuTN5uR.s:4127   .text.f32768_8804_Out:00000050 $d
C:\Users\86134\AppData\Local\Temp\ccuTN5uR.s:4132   .text.f1024_8804_Out:00000000 $t
C:\Users\86134\AppData\Local\Temp\ccuTN5uR.s:4139   .text.f1024_8804_Out:00000000 f1024_8804_Out
C:\Users\86134\AppData\Local\Temp\ccuTN5uR.s:4218   .text.f1024_8804_Out:00000050 $d
C:\Users\86134\AppData\Local\Temp\ccuTN5uR.s:4223   .text.f1_8804_Out:00000000 $t
C:\Users\86134\AppData\Local\Temp\ccuTN5uR.s:4230   .text.f1_8804_Out:00000000 f1_8804_Out
C:\Users\86134\AppData\Local\Temp\ccuTN5uR.s:4309   .text.f1_8804_Out:00000050 $d
C:\Users\86134\AppData\Local\Temp\ccuTN5uR.s:4314   .text.f32768_8810_Out:00000000 $t
C:\Users\86134\AppData\Local\Temp\ccuTN5uR.s:4321   .text.f32768_8810_Out:00000000 f32768_8810_Out
C:\Users\86134\AppData\Local\Temp\ccuTN5uR.s:4400   .text.f32768_8810_Out:00000050 $d
C:\Users\86134\AppData\Local\Temp\ccuTN5uR.s:4405   .text.f1024_8810_Out:00000000 $t
C:\Users\86134\AppData\Local\Temp\ccuTN5uR.s:4412   .text.f1024_8810_Out:00000000 f1024_8810_Out
C:\Users\86134\AppData\Local\Temp\ccuTN5uR.s:4491   .text.f1024_8810_Out:00000050 $d
C:\Users\86134\AppData\Local\Temp\ccuTN5uR.s:4496   .text.f1_8810_Out:00000000 $t
C:\Users\86134\AppData\Local\Temp\ccuTN5uR.s:4503   .text.f1_8810_Out:00000000 f1_8810_Out
C:\Users\86134\AppData\Local\Temp\ccuTN5uR.s:4582   .text.f1_8810_Out:00000050 $d
C:\Users\86134\AppData\Local\Temp\ccuTN5uR.s:4587   .text.f512_8200_Out:00000000 $t
C:\Users\86134\AppData\Local\Temp\ccuTN5uR.s:4594   .text.f512_8200_Out:00000000 f512_8200_Out
C:\Users\86134\AppData\Local\Temp\ccuTN5uR.s:4673   .text.f512_8200_Out:00000050 $d
C:\Users\86134\AppData\Local\Temp\ccuTN5uR.s:4678   .text.f1_8200_Out:00000000 $t
C:\Users\86134\AppData\Local\Temp\ccuTN5uR.s:4685   .text.f1_8200_Out:00000000 f1_8200_Out
C:\Users\86134\AppData\Local\Temp\ccuTN5uR.s:4764   .text.f1_8200_Out:00000050 $d
C:\Users\86134\AppData\Local\Temp\ccuTN5uR.s:4769   .text.f32768_8840_Out:00000000 $t
C:\Users\86134\AppData\Local\Temp\ccuTN5uR.s:4776   .text.f32768_8840_Out:00000000 f32768_8840_Out
C:\Users\86134\AppData\Local\Temp\ccuTN5uR.s:4853   .text.f32768_8840_Out:0000004c $d
C:\Users\86134\AppData\Local\Temp\ccuTN5uR.s:4858   .text.f1024_8840_Out:00000000 $t
C:\Users\86134\AppData\Local\Temp\ccuTN5uR.s:4865   .text.f1024_8840_Out:00000000 f1024_8840_Out
C:\Users\86134\AppData\Local\Temp\ccuTN5uR.s:4942   .text.f1024_8840_Out:0000004c $d
C:\Users\86134\AppData\Local\Temp\ccuTN5uR.s:4947   .text.f1_8840_Out:00000000 $t
C:\Users\86134\AppData\Local\Temp\ccuTN5uR.s:4954   .text.f1_8840_Out:00000000 f1_8840_Out
C:\Users\86134\AppData\Local\Temp\ccuTN5uR.s:5031   .text.f1_8840_Out:0000004c $d
C:\Users\86134\AppData\Local\Temp\ccuTN5uR.s:5036   .text.f8192_8931_Out:00000000 $t
C:\Users\86134\AppData\Local\Temp\ccuTN5uR.s:5043   .text.f8192_8931_Out:00000000 f8192_8931_Out
C:\Users\86134\AppData\Local\Temp\ccuTN5uR.s:5122   .text.f8192_8931_Out:00000050 $d
C:\Users\86134\AppData\Local\Temp\ccuTN5uR.s:5127   .text.f4096_8931_Out:00000000 $t
C:\Users\86134\AppData\Local\Temp\ccuTN5uR.s:5134   .text.f4096_8931_Out:00000000 f4096_8931_Out
C:\Users\86134\AppData\Local\Temp\ccuTN5uR.s:5213   .text.f4096_8931_Out:00000050 $d
C:\Users\86134\AppData\Local\Temp\ccuTN5uR.s:5218   .text.f1024_8931_Out:00000000 $t
C:\Users\86134\AppData\Local\Temp\ccuTN5uR.s:5225   .text.f1024_8931_Out:00000000 f1024_8931_Out
C:\Users\86134\AppData\Local\Temp\ccuTN5uR.s:5304   .text.f1024_8931_Out:00000050 $d
C:\Users\86134\AppData\Local\Temp\ccuTN5uR.s:5309   .text.f1_8931_Out:00000000 $t
C:\Users\86134\AppData\Local\Temp\ccuTN5uR.s:5316   .text.f1_8931_Out:00000000 f1_8931_Out
C:\Users\86134\AppData\Local\Temp\ccuTN5uR.s:5395   .text.f1_8931_Out:00000050 $d
C:\Users\86134\AppData\Local\Temp\ccuTN5uR.s:5400   .text.f32768_8931_Out:00000000 $t
C:\Users\86134\AppData\Local\Temp\ccuTN5uR.s:5407   .text.f32768_8931_Out:00000000 f32768_8931_Out
C:\Users\86134\AppData\Local\Temp\ccuTN5uR.s:5486   .text.f32768_8931_Out:00000050 $d
C:\Users\86134\AppData\Local\Temp\ccuTN5uR.s:5491   .text.f32768_8800_Out:00000000 $t
C:\Users\86134\AppData\Local\Temp\ccuTN5uR.s:5498   .text.f32768_8800_Out:00000000 f32768_8800_Out
C:\Users\86134\AppData\Local\Temp\ccuTN5uR.s:5577   .text.f32768_8800_Out:00000050 $d
C:\Users\86134\AppData\Local\Temp\ccuTN5uR.s:5582   .text.f1024_8800_Out:00000000 $t
C:\Users\86134\AppData\Local\Temp\ccuTN5uR.s:5589   .text.f1024_8800_Out:00000000 f1024_8800_Out
C:\Users\86134\AppData\Local\Temp\ccuTN5uR.s:5668   .text.f1024_8800_Out:00000050 $d
C:\Users\86134\AppData\Local\Temp\ccuTN5uR.s:5673   .text.f1_8800_Out:00000000 $t
C:\Users\86134\AppData\Local\Temp\ccuTN5uR.s:5680   .text.f1_8800_Out:00000000 f1_8800_Out
ARM GAS  C:\Users\86134\AppData\Local\Temp\ccuTN5uR.s 			page 172


C:\Users\86134\AppData\Local\Temp\ccuTN5uR.s:5759   .text.f1_8800_Out:00000050 $d
C:\Users\86134\AppData\Local\Temp\ccuTN5uR.s:5764   .text.f32768_Out:00000000 $t
C:\Users\86134\AppData\Local\Temp\ccuTN5uR.s:5771   .text.f32768_Out:00000000 f32768_Out
C:\Users\86134\AppData\Local\Temp\ccuTN5uR.s:5850   .text.f32768_Out:00000050 $d
C:\Users\86134\AppData\Local\Temp\ccuTN5uR.s:5855   .text.f4096_Out:00000000 $t
C:\Users\86134\AppData\Local\Temp\ccuTN5uR.s:5862   .text.f4096_Out:00000000 f4096_Out
C:\Users\86134\AppData\Local\Temp\ccuTN5uR.s:5941   .text.f4096_Out:00000050 $d
C:\Users\86134\AppData\Local\Temp\ccuTN5uR.s:5946   .text.f1024_Out:00000000 $t
C:\Users\86134\AppData\Local\Temp\ccuTN5uR.s:5953   .text.f1024_Out:00000000 f1024_Out
C:\Users\86134\AppData\Local\Temp\ccuTN5uR.s:6032   .text.f1024_Out:00000050 $d
C:\Users\86134\AppData\Local\Temp\ccuTN5uR.s:6037   .text.f64_Out:00000000 $t
C:\Users\86134\AppData\Local\Temp\ccuTN5uR.s:6044   .text.f64_Out:00000000 f64_Out
C:\Users\86134\AppData\Local\Temp\ccuTN5uR.s:6123   .text.f64_Out:00000050 $d
C:\Users\86134\AppData\Local\Temp\ccuTN5uR.s:6128   .text.f32_Out:00000000 $t
C:\Users\86134\AppData\Local\Temp\ccuTN5uR.s:6135   .text.f32_Out:00000000 f32_Out
C:\Users\86134\AppData\Local\Temp\ccuTN5uR.s:6214   .text.f32_Out:00000050 $d
C:\Users\86134\AppData\Local\Temp\ccuTN5uR.s:6219   .text.f16_Out:00000000 $t
C:\Users\86134\AppData\Local\Temp\ccuTN5uR.s:6226   .text.f16_Out:00000000 f16_Out
C:\Users\86134\AppData\Local\Temp\ccuTN5uR.s:6305   .text.f16_Out:00000050 $d
C:\Users\86134\AppData\Local\Temp\ccuTN5uR.s:6310   .text.f8_Out:00000000 $t
C:\Users\86134\AppData\Local\Temp\ccuTN5uR.s:6317   .text.f8_Out:00000000 f8_Out
C:\Users\86134\AppData\Local\Temp\ccuTN5uR.s:6396   .text.f8_Out:00000050 $d
C:\Users\86134\AppData\Local\Temp\ccuTN5uR.s:6401   .text.f4_Out:00000000 $t
C:\Users\86134\AppData\Local\Temp\ccuTN5uR.s:6408   .text.f4_Out:00000000 f4_Out
C:\Users\86134\AppData\Local\Temp\ccuTN5uR.s:6487   .text.f4_Out:00000050 $d
C:\Users\86134\AppData\Local\Temp\ccuTN5uR.s:6492   .text.f2_Out:00000000 $t
C:\Users\86134\AppData\Local\Temp\ccuTN5uR.s:6499   .text.f2_Out:00000000 f2_Out
C:\Users\86134\AppData\Local\Temp\ccuTN5uR.s:6578   .text.f2_Out:00000050 $d
C:\Users\86134\AppData\Local\Temp\ccuTN5uR.s:6583   .text.f1_Out:00000000 $t
C:\Users\86134\AppData\Local\Temp\ccuTN5uR.s:6590   .text.f1_Out:00000000 f1_Out
C:\Users\86134\AppData\Local\Temp\ccuTN5uR.s:6669   .text.f1_Out:00000050 $d
C:\Users\86134\AppData\Local\Temp\ccuTN5uR.s:6674   .text.f1_2_Out:00000000 $t
C:\Users\86134\AppData\Local\Temp\ccuTN5uR.s:6681   .text.f1_2_Out:00000000 f1_2_Out
C:\Users\86134\AppData\Local\Temp\ccuTN5uR.s:6760   .text.f1_2_Out:00000050 $d
C:\Users\86134\AppData\Local\Temp\ccuTN5uR.s:6765   .text.f1_4_Out:00000000 $t
C:\Users\86134\AppData\Local\Temp\ccuTN5uR.s:6772   .text.f1_4_Out:00000000 f1_4_Out
C:\Users\86134\AppData\Local\Temp\ccuTN5uR.s:6851   .text.f1_4_Out:00000050 $d
C:\Users\86134\AppData\Local\Temp\ccuTN5uR.s:6856   .text.F1_8_Out:00000000 $t
C:\Users\86134\AppData\Local\Temp\ccuTN5uR.s:6863   .text.F1_8_Out:00000000 F1_8_Out
C:\Users\86134\AppData\Local\Temp\ccuTN5uR.s:6942   .text.F1_8_Out:00000050 $d
C:\Users\86134\AppData\Local\Temp\ccuTN5uR.s:6947   .text.F1_16_Out:00000000 $t
C:\Users\86134\AppData\Local\Temp\ccuTN5uR.s:6954   .text.F1_16_Out:00000000 F1_16_Out
C:\Users\86134\AppData\Local\Temp\ccuTN5uR.s:7033   .text.F1_16_Out:00000050 $d
C:\Users\86134\AppData\Local\Temp\ccuTN5uR.s:7038   .text.f1s_Out:00000000 $t
C:\Users\86134\AppData\Local\Temp\ccuTN5uR.s:7045   .text.f1s_Out:00000000 f1s_Out
C:\Users\86134\AppData\Local\Temp\ccuTN5uR.s:7124   .text.f1s_Out:00000050 $d

UNDEFINED SYMBOLS
sd2505showtime
sd2506_messgae_line
OLED_Update
Delay_ms
sd2xxx_and_std
sd2xxx_time_copy
sd3xxx_and_std
sd3xxx_time_copy
sd3xxx_charge_on
ARM GAS  C:\Users\86134\AppData\Local\Temp\ccuTN5uR.s 			page 173


sd3xxx_charge_off
sd2xxx_time_show
sd3xxx_time_show
sd85xx_time_show
sd85xx_and_std
sd85xx_time_copy
sd8800_time_show
sd8800_and_std
sd8800_time_copy
sd8200_charge_on
sd8200_charge_off
sd8804_time_show
sd8804_and_std
sd8804_time_copy
sd8810_time_show
sd8810_and_std
sd8810_time_copy
sd8825_time_show
sd8825_and_std
sd8825_time_copy
sd8840_time_show
sd8840_and_std
sd8840_time_copy
sd8200_time_show
sd8200_and_std
sd8200_time_copy
sd8931_time_show
sd8931_and_std
sd8931_time_copy
sd8931_charge_on
sd8931_charge_off
sd8939_time_show
sd8939_and_std
sd8939_time_copy
sd8902_time_show
sd8902_and_std
sd8902_time_copy
sd8902_charge_on
sd8902_charge_off
sd8563_f32768
sd8563_f32768_off
sd8563_f1024
sd8563_f1024_off
sd8563_f32
sd8563_f32_off
sd8563_f1
sd8563_f1_off
sd8939_f32768
sd8939_f32768_off
sd8939_f8192
sd8939_f8192_off
sd8939_f4096
sd8939_f4096_off
sd8939_f1
sd8939_f1_off
sd8825_f32768
sd8825_f32768_off
ARM GAS  C:\Users\86134\AppData\Local\Temp\ccuTN5uR.s 			page 174


sd8825_f1024
sd8825_f1024_off
sd8825_f1
sd8825_f1_off
sd8902_f32768
sd8902_f32768_off
sd8804_f32768
sd8804_f32768_off
sd8804_f1024
sd8804_f1024_off
sd8804_f1
sd8804_f1_off
sd8810_f32768
sd8810_f32768_off
sd8810_f1024
sd8810_f1024_off
sd8810_f1
sd8810_f1_off
sd8200_f512
sd8200_f512_off
sd8200_f1
sd8200_f1_off
sd8840_f32768
sd8840_f32768_off
sd8840_f1024
sd8840_f1024_off
sd8840_f1
sd8840_f1_off
sd8931_f8192
sd8931_f8192_off
sd8931_f4096
sd8931_f4096_off
sd8931_f1024
sd8931_f1024_off
sd8931_f1
sd8931_f1_off
sd8931_f32768
sd8931_f32768_off
sd8800_f32768
sd8800_f32768_off
sd8800_f1024
sd8800_f1024_off
sd8800_f1
sd8800_f1_off
rtc_f32768
rtc_f32768_off
rtc_f4096
rtc_f4096_off
rtc_f1024
rtc_f1024_off
rtc_f64
rtc_f64_off
rtc_f32
rtc_f32_off
rtc_f16
rtc_f16_off
rtc_f8
ARM GAS  C:\Users\86134\AppData\Local\Temp\ccuTN5uR.s 			page 175


rtc_f8_off
rtc_f4
rtc_f4_off
rtc_f2
rtc_f2_off
rtc_f1
rtc_f1_off
rtc_f1_2
rtc_f1_2_off
rtc_f1_4
rtc_f1_4_off
rtc_f1_8
rtc_f1_8_off
rtc_f1_16
rtc_f1_16_off
rtc_f1s
rtc_f1s_off
