ARM GAS  C:\Users\86134\AppData\Local\Temp\ccuTN5uR.s 			page 1


   1              		.cpu cortex-m3
   2              		.eabi_attribute 20, 1
   3              		.eabi_attribute 21, 1
   4              		.eabi_attribute 23, 3
   5              		.eabi_attribute 24, 1
   6              		.eabi_attribute 25, 1
   7              		.eabi_attribute 26, 1
   8              		.eabi_attribute 30, 6
   9              		.eabi_attribute 34, 1
  10              		.eabi_attribute 18, 4
  11              		.file	"menu_data.c"
  12              		.text
  13              	.Ltext0:
  14              		.cfi_sections	.debug_frame
  15              		.section	.text.sd2506_messgae,"ax",%progbits
  16              		.align	1
  17              		.global	sd2506_messgae
  18              		.arch armv7-m
  19              		.syntax unified
  20              		.thumb
  21              		.thumb_func
  22              		.fpu softvfp
  24              	sd2506_messgae:
  25              	.LFB32:
  26              		.file 1 "./Hardware/hardware/menu_data.c"
   1:./Hardware/hardware/menu_data.c **** #include "menu.h"
   2:./Hardware/hardware/menu_data.c **** 
   3:./Hardware/hardware/menu_data.c **** 
   4:./Hardware/hardware/menu_data.c **** //void init_timer() {
   5:./Hardware/hardware/menu_data.c **** //    TIM_TimeBaseInitTypeDef TIM_InitStruct;
   6:./Hardware/hardware/menu_data.c **** //    NVIC_InitTypeDef NVIC_InitStruct;
   7:./Hardware/hardware/menu_data.c **** 
   8:./Hardware/hardware/menu_data.c **** //    RCC_APB1PeriphClockCmd(RCC_APB1Periph_TIM2, ENABLE);
   9:./Hardware/hardware/menu_data.c **** 
  10:./Hardware/hardware/menu_data.c **** //    TIM_InitStruct.TIM_Period = 500 - 1; // 500ms
  11:./Hardware/hardware/menu_data.c **** //    TIM_InitStruct.TIM_Prescaler = 7200 - 1; // 84MHz / 8400 = 10kHz
  12:./Hardware/hardware/menu_data.c **** //    TIM_InitStruct.TIM_ClockDivision = TIM_CKD_DIV1;
  13:./Hardware/hardware/menu_data.c **** //    TIM_InitStruct.TIM_CounterMode = TIM_CounterMode_Up;
  14:./Hardware/hardware/menu_data.c **** //    TIM_TimeBaseInit(TIM2, &TIM_InitStruct);
  15:./Hardware/hardware/menu_data.c **** 
  16:./Hardware/hardware/menu_data.c **** //    TIM_ITConfig(TIM2, TIM_IT_Update, ENABLE);
  17:./Hardware/hardware/menu_data.c **** 
  18:./Hardware/hardware/menu_data.c **** //    NVIC_InitStruct.NVIC_IRQChannel = TIM2_IRQn;
  19:./Hardware/hardware/menu_data.c **** //    NVIC_InitStruct.NVIC_IRQChannelPreemptionPriority = 0;
  20:./Hardware/hardware/menu_data.c **** //    NVIC_InitStruct.NVIC_IRQChannelSubPriority = 0;
  21:./Hardware/hardware/menu_data.c **** //    NVIC_InitStruct.NVIC_IRQChannelCmd = ENABLE;
  22:./Hardware/hardware/menu_data.c **** //    NVIC_Init(&NVIC_InitStruct);
  23:./Hardware/hardware/menu_data.c **** 
  24:./Hardware/hardware/menu_data.c **** //    TIM_Cmd(TIM2, ENABLE);
  25:./Hardware/hardware/menu_data.c **** //}
  26:./Hardware/hardware/menu_data.c **** 
  27:./Hardware/hardware/menu_data.c **** //void TIM2_IRQHandler(void) {
  28:./Hardware/hardware/menu_data.c **** //    if (TIM_GetITStatus(TIM2, TIM_IT_Update) != RESET) {
  29:./Hardware/hardware/menu_data.c **** //        sd2505showtime();
  30:./Hardware/hardware/menu_data.c **** //        sd2506_messgae_line();
  31:./Hardware/hardware/menu_data.c **** //        OLED_Update();
  32:./Hardware/hardware/menu_data.c **** 
ARM GAS  C:\Users\86134\AppData\Local\Temp\ccuTN5uR.s 			page 2


  33:./Hardware/hardware/menu_data.c **** //        TIM_ClearITPendingBit(TIM2, TIM_IT_Update);
  34:./Hardware/hardware/menu_data.c **** //    }
  35:./Hardware/hardware/menu_data.c **** //}
  36:./Hardware/hardware/menu_data.c **** 
  37:./Hardware/hardware/menu_data.c **** 
  38:./Hardware/hardware/menu_data.c **** void sd2506_messgae(void)
  39:./Hardware/hardware/menu_data.c **** {
  27              		.loc 1 39 1
  28              		.cfi_startproc
  29              		@ args = 0, pretend = 0, frame = 8
  30              		@ frame_needed = 1, uses_anonymous_args = 0
  31 0000 80B5     		push	{r7, lr}
  32              	.LCFI0:
  33              		.cfi_def_cfa_offset 8
  34              		.cfi_offset 7, -8
  35              		.cfi_offset 14, -4
  36 0002 82B0     		sub	sp, sp, #8
  37              	.LCFI1:
  38              		.cfi_def_cfa_offset 16
  39 0004 00AF     		add	r7, sp, #0
  40              	.LCFI2:
  41              		.cfi_def_cfa_register 7
  40:./Hardware/hardware/menu_data.c **** 	
  41:./Hardware/hardware/menu_data.c **** //	while(1)
  42:./Hardware/hardware/menu_data.c **** //	{
  43:./Hardware/hardware/menu_data.c **** //		sd2505showtime();
  44:./Hardware/hardware/menu_data.c **** //		sd2506_messgae_line();
  45:./Hardware/hardware/menu_data.c **** //		OLED_Update();
  46:./Hardware/hardware/menu_data.c **** //		if(KEY_BACK == 0)
  47:./Hardware/hardware/menu_data.c **** //		{
  48:./Hardware/hardware/menu_data.c **** //			Delay_ms(10);
  49:./Hardware/hardware/menu_data.c **** //			return;
  50:./Hardware/hardware/menu_data.c **** //		}
  51:./Hardware/hardware/menu_data.c **** //	}
  52:./Hardware/hardware/menu_data.c **** 	
  53:./Hardware/hardware/menu_data.c **** 	uint8_t back_press_time = 0;
  42              		.loc 1 53 10
  43 0006 0023     		movs	r3, #0
  44 0008 FB71     		strb	r3, [r7, #7]
  45              	.L6:
  54:./Hardware/hardware/menu_data.c **** 	
  55:./Hardware/hardware/menu_data.c **** 	while(1)
  56:./Hardware/hardware/menu_data.c **** 	{
  57:./Hardware/hardware/menu_data.c **** 		sd2505showtime();
  46              		.loc 1 57 3
  47 000a FFF7FEFF 		bl	sd2505showtime
  58:./Hardware/hardware/menu_data.c **** 		sd2506_messgae_line();
  48              		.loc 1 58 3
  49 000e FFF7FEFF 		bl	sd2506_messgae_line
  59:./Hardware/hardware/menu_data.c **** 		OLED_Update();
  50              		.loc 1 59 3
  51 0012 FFF7FEFF 		bl	OLED_Update
  60:./Hardware/hardware/menu_data.c **** 		
  61:./Hardware/hardware/menu_data.c **** 		if(Key_back == 0)
  52              		.loc 1 61 6
  53 0016 0D4B     		ldr	r3, .L8
  54 0018 1B68     		ldr	r3, [r3]
ARM GAS  C:\Users\86134\AppData\Local\Temp\ccuTN5uR.s 			page 3


  55              		.loc 1 61 5
  56 001a 002B     		cmp	r3, #0
  57 001c 0ED1     		bne	.L2
  62:./Hardware/hardware/menu_data.c **** 		{
  63:./Hardware/hardware/menu_data.c **** 			Delay_ms(10); // 消抖
  58              		.loc 1 63 4
  59 001e 0A20     		movs	r0, #10
  60 0020 FFF7FEFF 		bl	Delay_ms
  64:./Hardware/hardware/menu_data.c **** 			back_press_time += 50; // 每次循环递增50ms
  61              		.loc 1 64 20
  62 0024 FB79     		ldrb	r3, [r7, #7]
  63 0026 3233     		adds	r3, r3, #50
  64 0028 FB71     		strb	r3, [r7, #7]
  65:./Hardware/hardware/menu_data.c **** 			if(back_press_time >= 100)
  65              		.loc 1 65 6
  66 002a FB79     		ldrb	r3, [r7, #7]	@ zero_extendqisi2
  67 002c 632B     		cmp	r3, #99
  68 002e 08D9     		bls	.L7
  66:./Hardware/hardware/menu_data.c **** 			{
  67:./Hardware/hardware/menu_data.c **** 				// 长按200ms，退出函数
  68:./Hardware/hardware/menu_data.c **** 				while(Key_back == 0); // 等待松手
  69              		.loc 1 68 10
  70 0030 00BF     		nop
  71              	.L4:
  72              		.loc 1 68 11 discriminator 1
  73 0032 064B     		ldr	r3, .L8
  74 0034 1B68     		ldr	r3, [r3]
  75              		.loc 1 68 10 discriminator 1
  76 0036 002B     		cmp	r3, #0
  77 0038 FBD0     		beq	.L4
  69:./Hardware/hardware/menu_data.c **** 				break;
  78              		.loc 1 69 5
  79 003a 03E0     		b	.L1
  80              	.L2:
  70:./Hardware/hardware/menu_data.c **** 			}
  71:./Hardware/hardware/menu_data.c **** 			return;
  72:./Hardware/hardware/menu_data.c **** 		}
  73:./Hardware/hardware/menu_data.c **** 		else
  74:./Hardware/hardware/menu_data.c **** 		{
  75:./Hardware/hardware/menu_data.c **** 			back_press_time = 0; // 重置计时器
  81              		.loc 1 75 20
  82 003c 0023     		movs	r3, #0
  83 003e FB71     		strb	r3, [r7, #7]
  57:./Hardware/hardware/menu_data.c **** 		sd2506_messgae_line();
  84              		.loc 1 57 3
  85 0040 E3E7     		b	.L6
  86              	.L7:
  71:./Hardware/hardware/menu_data.c **** 		}
  87              		.loc 1 71 4
  88 0042 00BF     		nop
  89              	.L1:
  76:./Hardware/hardware/menu_data.c **** 		}
  77:./Hardware/hardware/menu_data.c **** 	}
  78:./Hardware/hardware/menu_data.c **** }
  90              		.loc 1 78 1
  91 0044 0837     		adds	r7, r7, #8
  92              	.LCFI3:
ARM GAS  C:\Users\86134\AppData\Local\Temp\ccuTN5uR.s 			page 4


  93              		.cfi_def_cfa_offset 8
  94 0046 BD46     		mov	sp, r7
  95              	.LCFI4:
  96              		.cfi_def_cfa_register 13
  97              		@ sp needed
  98 0048 80BD     		pop	{r7, pc}
  99              	.L9:
 100 004a 00BF     		.align	2
 101              	.L8:
 102 004c 34812142 		.word	1109492020
 103              		.cfi_endproc
 104              	.LFE32:
 106              		.section	.text.SD_Series_64addr_time,"ax",%progbits
 107              		.align	1
 108              		.global	SD_Series_64addr_time
 109              		.syntax unified
 110              		.thumb
 111              		.thumb_func
 112              		.fpu softvfp
 114              	SD_Series_64addr_time:
 115              	.LFB33:
  79:./Hardware/hardware/menu_data.c **** 
  80:./Hardware/hardware/menu_data.c **** void SD_Series_64addr_time(void)
  81:./Hardware/hardware/menu_data.c **** {
 116              		.loc 1 81 1
 117              		.cfi_startproc
 118              		@ args = 0, pretend = 0, frame = 8
 119              		@ frame_needed = 1, uses_anonymous_args = 0
 120 0000 80B5     		push	{r7, lr}
 121              	.LCFI5:
 122              		.cfi_def_cfa_offset 8
 123              		.cfi_offset 7, -8
 124              		.cfi_offset 14, -4
 125 0002 82B0     		sub	sp, sp, #8
 126              	.LCFI6:
 127              		.cfi_def_cfa_offset 16
 128 0004 00AF     		add	r7, sp, #0
 129              	.LCFI7:
 130              		.cfi_def_cfa_register 7
  82:./Hardware/hardware/menu_data.c **** 	uint8_t back_press_time = 0;
 131              		.loc 1 82 10
 132 0006 0023     		movs	r3, #0
 133 0008 FB71     		strb	r3, [r7, #7]
  83:./Hardware/hardware/menu_data.c **** 	uint8_t enter_press_time = 0;
 134              		.loc 1 83 10
 135 000a 0023     		movs	r3, #0
 136 000c BB71     		strb	r3, [r7, #6]
 137              	.L19:
  84:./Hardware/hardware/menu_data.c **** 	
  85:./Hardware/hardware/menu_data.c **** 	while(1)
  86:./Hardware/hardware/menu_data.c **** 	{
  87:./Hardware/hardware/menu_data.c **** 		sd2xxx_and_std();
 138              		.loc 1 87 3
 139 000e FFF7FEFF 		bl	sd2xxx_and_std
  88:./Hardware/hardware/menu_data.c **** 		OLED_Update();
 140              		.loc 1 88 3
 141 0012 FFF7FEFF 		bl	OLED_Update
ARM GAS  C:\Users\86134\AppData\Local\Temp\ccuTN5uR.s 			page 5


  89:./Hardware/hardware/menu_data.c **** 		
  90:./Hardware/hardware/menu_data.c **** 		if(Key_back == 0)
 142              		.loc 1 90 6
 143 0016 194B     		ldr	r3, .L21
 144 0018 1B68     		ldr	r3, [r3]
 145              		.loc 1 90 5
 146 001a 002B     		cmp	r3, #0
 147 001c 0ED1     		bne	.L11
  91:./Hardware/hardware/menu_data.c **** 		{
  92:./Hardware/hardware/menu_data.c **** 			Delay_ms(10); // 消抖
 148              		.loc 1 92 4
 149 001e 0A20     		movs	r0, #10
 150 0020 FFF7FEFF 		bl	Delay_ms
  93:./Hardware/hardware/menu_data.c **** 			back_press_time += 50; // 每次循环递增50ms
 151              		.loc 1 93 20
 152 0024 FB79     		ldrb	r3, [r7, #7]
 153 0026 3233     		adds	r3, r3, #50
 154 0028 FB71     		strb	r3, [r7, #7]
  94:./Hardware/hardware/menu_data.c **** 			if(back_press_time >= 100)
 155              		.loc 1 94 6
 156 002a FB79     		ldrb	r3, [r7, #7]	@ zero_extendqisi2
 157 002c 632B     		cmp	r3, #99
 158 002e 21D9     		bls	.L20
  95:./Hardware/hardware/menu_data.c **** 			{
  96:./Hardware/hardware/menu_data.c **** 				// 长按200ms，退出函数
  97:./Hardware/hardware/menu_data.c **** 				while(Key_back == 0); // 等待松手
 159              		.loc 1 97 10
 160 0030 00BF     		nop
 161              	.L13:
 162              		.loc 1 97 11 discriminator 1
 163 0032 124B     		ldr	r3, .L21
 164 0034 1B68     		ldr	r3, [r3]
 165              		.loc 1 97 10 discriminator 1
 166 0036 002B     		cmp	r3, #0
 167 0038 FBD0     		beq	.L13
  98:./Hardware/hardware/menu_data.c **** 				break;
 168              		.loc 1 98 5
 169 003a 1CE0     		b	.L10
 170              	.L11:
  99:./Hardware/hardware/menu_data.c **** 			}
 100:./Hardware/hardware/menu_data.c **** 			return;
 101:./Hardware/hardware/menu_data.c **** 		}
 102:./Hardware/hardware/menu_data.c **** 		else
 103:./Hardware/hardware/menu_data.c **** 		{
 104:./Hardware/hardware/menu_data.c **** 			back_press_time = 0; // 重置计时器
 171              		.loc 1 104 20
 172 003c 0023     		movs	r3, #0
 173 003e FB71     		strb	r3, [r7, #7]
 105:./Hardware/hardware/menu_data.c **** 		}
 106:./Hardware/hardware/menu_data.c **** 		
 107:./Hardware/hardware/menu_data.c **** 		if(Key_up == 0)
 174              		.loc 1 107 6
 175 0040 0F4B     		ldr	r3, .L21+4
 176 0042 1B68     		ldr	r3, [r3]
 177              		.loc 1 107 5
 178 0044 002B     		cmp	r3, #0
 179 0046 12D1     		bne	.L15
ARM GAS  C:\Users\86134\AppData\Local\Temp\ccuTN5uR.s 			page 6


 108:./Hardware/hardware/menu_data.c **** 		{
 109:./Hardware/hardware/menu_data.c **** 			Delay_ms(10); // 消抖
 180              		.loc 1 109 4
 181 0048 0A20     		movs	r0, #10
 182 004a FFF7FEFF 		bl	Delay_ms
 110:./Hardware/hardware/menu_data.c **** 			enter_press_time += 50; // 每次循环递增50ms
 183              		.loc 1 110 21
 184 004e BB79     		ldrb	r3, [r7, #6]
 185 0050 3233     		adds	r3, r3, #50
 186 0052 BB71     		strb	r3, [r7, #6]
 111:./Hardware/hardware/menu_data.c **** 			if(enter_press_time >= 100)
 187              		.loc 1 111 6
 188 0054 BB79     		ldrb	r3, [r7, #6]	@ zero_extendqisi2
 189 0056 632B     		cmp	r3, #99
 190 0058 D9D9     		bls	.L19
 112:./Hardware/hardware/menu_data.c **** 			{
 113:./Hardware/hardware/menu_data.c **** 				// 长按200ms，退出函数
 114:./Hardware/hardware/menu_data.c **** 				while(Key_up == 0) // 等待松手
 191              		.loc 1 114 10
 192 005a 03E0     		b	.L17
 193              	.L18:
 115:./Hardware/hardware/menu_data.c **** 				{
 116:./Hardware/hardware/menu_data.c **** 					sd2xxx_time_copy();
 194              		.loc 1 116 6
 195 005c FFF7FEFF 		bl	sd2xxx_time_copy
 117:./Hardware/hardware/menu_data.c **** 					OLED_Update();
 196              		.loc 1 117 6
 197 0060 FFF7FEFF 		bl	OLED_Update
 198              	.L17:
 114:./Hardware/hardware/menu_data.c **** 				{
 199              		.loc 1 114 11
 200 0064 064B     		ldr	r3, .L21+4
 201 0066 1B68     		ldr	r3, [r3]
 114:./Hardware/hardware/menu_data.c **** 				{
 202              		.loc 1 114 10
 203 0068 002B     		cmp	r3, #0
 204 006a F7D0     		beq	.L18
 205 006c CFE7     		b	.L19
 206              	.L15:
 118:./Hardware/hardware/menu_data.c **** 				}
 119:./Hardware/hardware/menu_data.c **** 			} 
 120:./Hardware/hardware/menu_data.c **** 		}
 121:./Hardware/hardware/menu_data.c **** 		else
 122:./Hardware/hardware/menu_data.c **** 		{
 123:./Hardware/hardware/menu_data.c **** 			enter_press_time = 0; // 重置计时器
 207              		.loc 1 123 21
 208 006e 0023     		movs	r3, #0
 209 0070 BB71     		strb	r3, [r7, #6]
  87:./Hardware/hardware/menu_data.c **** 		OLED_Update();
 210              		.loc 1 87 3
 211 0072 CCE7     		b	.L19
 212              	.L20:
 100:./Hardware/hardware/menu_data.c **** 		}
 213              		.loc 1 100 4
 214 0074 00BF     		nop
 215              	.L10:
 124:./Hardware/hardware/menu_data.c **** 		}
ARM GAS  C:\Users\86134\AppData\Local\Temp\ccuTN5uR.s 			page 7


 125:./Hardware/hardware/menu_data.c **** 		
 126:./Hardware/hardware/menu_data.c **** 	}
 127:./Hardware/hardware/menu_data.c **** 	
 128:./Hardware/hardware/menu_data.c **** }
 216              		.loc 1 128 1
 217 0076 0837     		adds	r7, r7, #8
 218              	.LCFI8:
 219              		.cfi_def_cfa_offset 8
 220 0078 BD46     		mov	sp, r7
 221              	.LCFI9:
 222              		.cfi_def_cfa_register 13
 223              		@ sp needed
 224 007a 80BD     		pop	{r7, pc}
 225              	.L22:
 226              		.align	2
 227              	.L21:
 228 007c 34812142 		.word	1109492020
 229 0080 30812142 		.word	1109492016
 230              		.cfi_endproc
 231              	.LFE33:
 233              		.section	.text.SD3XXX_and_std,"ax",%progbits
 234              		.align	1
 235              		.global	SD3XXX_and_std
 236              		.syntax unified
 237              		.thumb
 238              		.thumb_func
 239              		.fpu softvfp
 241              	SD3XXX_and_std:
 242              	.LFB34:
 129:./Hardware/hardware/menu_data.c **** 
 130:./Hardware/hardware/menu_data.c **** void SD3XXX_and_std(void)
 131:./Hardware/hardware/menu_data.c **** {
 243              		.loc 1 131 1
 244              		.cfi_startproc
 245              		@ args = 0, pretend = 0, frame = 8
 246              		@ frame_needed = 1, uses_anonymous_args = 0
 247 0000 80B5     		push	{r7, lr}
 248              	.LCFI10:
 249              		.cfi_def_cfa_offset 8
 250              		.cfi_offset 7, -8
 251              		.cfi_offset 14, -4
 252 0002 82B0     		sub	sp, sp, #8
 253              	.LCFI11:
 254              		.cfi_def_cfa_offset 16
 255 0004 00AF     		add	r7, sp, #0
 256              	.LCFI12:
 257              		.cfi_def_cfa_register 7
 132:./Hardware/hardware/menu_data.c **** 	uint8_t back_press_time = 0;
 258              		.loc 1 132 10
 259 0006 0023     		movs	r3, #0
 260 0008 FB71     		strb	r3, [r7, #7]
 133:./Hardware/hardware/menu_data.c **** 	uint8_t enter_press_time = 0;
 261              		.loc 1 133 10
 262 000a 0023     		movs	r3, #0
 263 000c BB71     		strb	r3, [r7, #6]
 134:./Hardware/hardware/menu_data.c **** 	uint8_t down_press_time = 0;
 264              		.loc 1 134 10
ARM GAS  C:\Users\86134\AppData\Local\Temp\ccuTN5uR.s 			page 8


 265 000e 0023     		movs	r3, #0
 266 0010 7B71     		strb	r3, [r7, #5]
 135:./Hardware/hardware/menu_data.c **** 	uint8_t key_state = 0;
 267              		.loc 1 135 10
 268 0012 0023     		movs	r3, #0
 269 0014 3B71     		strb	r3, [r7, #4]
 270              	.L34:
 136:./Hardware/hardware/menu_data.c **** 	
 137:./Hardware/hardware/menu_data.c **** 	while(1)
 138:./Hardware/hardware/menu_data.c **** 	{
 139:./Hardware/hardware/menu_data.c **** 		sd3xxx_and_std();
 271              		.loc 1 139 3
 272 0016 FFF7FEFF 		bl	sd3xxx_and_std
 140:./Hardware/hardware/menu_data.c **** 		OLED_Update();
 273              		.loc 1 140 3
 274 001a FFF7FEFF 		bl	OLED_Update
 141:./Hardware/hardware/menu_data.c **** 		
 142:./Hardware/hardware/menu_data.c **** 		if(Key_back == 0)
 275              		.loc 1 142 6
 276 001e 264B     		ldr	r3, .L36
 277 0020 1B68     		ldr	r3, [r3]
 278              		.loc 1 142 5
 279 0022 002B     		cmp	r3, #0
 280 0024 0ED1     		bne	.L24
 143:./Hardware/hardware/menu_data.c **** 		{
 144:./Hardware/hardware/menu_data.c **** 			Delay_ms(10); // 消抖
 281              		.loc 1 144 4
 282 0026 0A20     		movs	r0, #10
 283 0028 FFF7FEFF 		bl	Delay_ms
 145:./Hardware/hardware/menu_data.c **** 			back_press_time += 50; // 每次循环递增50ms
 284              		.loc 1 145 20
 285 002c FB79     		ldrb	r3, [r7, #7]
 286 002e 3233     		adds	r3, r3, #50
 287 0030 FB71     		strb	r3, [r7, #7]
 146:./Hardware/hardware/menu_data.c **** 			if(back_press_time >= 100)
 288              		.loc 1 146 6
 289 0032 FB79     		ldrb	r3, [r7, #7]	@ zero_extendqisi2
 290 0034 632B     		cmp	r3, #99
 291 0036 3AD9     		bls	.L35
 147:./Hardware/hardware/menu_data.c **** 			{
 148:./Hardware/hardware/menu_data.c **** 				// 长按200ms，退出函数
 149:./Hardware/hardware/menu_data.c **** 				while(Key_back == 0); // 等待松手
 292              		.loc 1 149 10
 293 0038 00BF     		nop
 294              	.L26:
 295              		.loc 1 149 11 discriminator 1
 296 003a 1F4B     		ldr	r3, .L36
 297 003c 1B68     		ldr	r3, [r3]
 298              		.loc 1 149 10 discriminator 1
 299 003e 002B     		cmp	r3, #0
 300 0040 FBD0     		beq	.L26
 150:./Hardware/hardware/menu_data.c **** 				break;
 301              		.loc 1 150 5
 302 0042 35E0     		b	.L23
 303              	.L24:
 151:./Hardware/hardware/menu_data.c **** 			}
 152:./Hardware/hardware/menu_data.c **** 			return;
ARM GAS  C:\Users\86134\AppData\Local\Temp\ccuTN5uR.s 			page 9


 153:./Hardware/hardware/menu_data.c **** 		}
 154:./Hardware/hardware/menu_data.c **** 		else
 155:./Hardware/hardware/menu_data.c **** 		{
 156:./Hardware/hardware/menu_data.c **** 			back_press_time = 0; // 重置计时器
 304              		.loc 1 156 20
 305 0044 0023     		movs	r3, #0
 306 0046 FB71     		strb	r3, [r7, #7]
 157:./Hardware/hardware/menu_data.c **** 		}
 158:./Hardware/hardware/menu_data.c **** /******************上按键************************/
 159:./Hardware/hardware/menu_data.c **** 		if(Key_up == 0)
 307              		.loc 1 159 6
 308 0048 1C4B     		ldr	r3, .L36+4
 309 004a 1B68     		ldr	r3, [r3]
 310              		.loc 1 159 5
 311 004c 002B     		cmp	r3, #0
 312 004e 0DD1     		bne	.L28
 160:./Hardware/hardware/menu_data.c **** 		{
 161:./Hardware/hardware/menu_data.c **** 			Delay_ms(10); // 消抖
 313              		.loc 1 161 4
 314 0050 0A20     		movs	r0, #10
 315 0052 FFF7FEFF 		bl	Delay_ms
 162:./Hardware/hardware/menu_data.c **** 			enter_press_time += 50; // 每次循环递增50ms
 316              		.loc 1 162 21
 317 0056 BB79     		ldrb	r3, [r7, #6]
 318 0058 3233     		adds	r3, r3, #50
 319 005a BB71     		strb	r3, [r7, #6]
 163:./Hardware/hardware/menu_data.c **** 			if(enter_press_time >= 100)
 320              		.loc 1 163 6
 321 005c BB79     		ldrb	r3, [r7, #6]	@ zero_extendqisi2
 322 005e 632B     		cmp	r3, #99
 323 0060 06D9     		bls	.L29
 164:./Hardware/hardware/menu_data.c **** 			{
 165:./Hardware/hardware/menu_data.c **** 				sd3xxx_time_copy();
 324              		.loc 1 165 5
 325 0062 FFF7FEFF 		bl	sd3xxx_time_copy
 166:./Hardware/hardware/menu_data.c **** 				OLED_Update();
 326              		.loc 1 166 5
 327 0066 FFF7FEFF 		bl	OLED_Update
 328 006a 01E0     		b	.L29
 329              	.L28:
 167:./Hardware/hardware/menu_data.c **** 			}
 168:./Hardware/hardware/menu_data.c **** 		}
 169:./Hardware/hardware/menu_data.c **** 		else
 170:./Hardware/hardware/menu_data.c **** 		{
 171:./Hardware/hardware/menu_data.c **** 			enter_press_time = 0; // 重置计时器
 330              		.loc 1 171 21
 331 006c 0023     		movs	r3, #0
 332 006e BB71     		strb	r3, [r7, #6]
 333              	.L29:
 172:./Hardware/hardware/menu_data.c **** 		}
 173:./Hardware/hardware/menu_data.c **** /******************下按键************************/
 174:./Hardware/hardware/menu_data.c ****     if (Key_down == 0)
 334              		.loc 1 174 9
 335 0070 134B     		ldr	r3, .L36+8
 336 0072 1B68     		ldr	r3, [r3]
 337              		.loc 1 174 8
 338 0074 002B     		cmp	r3, #0
ARM GAS  C:\Users\86134\AppData\Local\Temp\ccuTN5uR.s 			page 10


 339 0076 17D1     		bne	.L30
 175:./Hardware/hardware/menu_data.c **** 	{
 176:./Hardware/hardware/menu_data.c ****         Delay_ms(10); // 消抖
 340              		.loc 1 176 9
 341 0078 0A20     		movs	r0, #10
 342 007a FFF7FEFF 		bl	Delay_ms
 177:./Hardware/hardware/menu_data.c ****         down_press_time += 50; // 每次循环递增50ms
 343              		.loc 1 177 25
 344 007e 7B79     		ldrb	r3, [r7, #5]
 345 0080 3233     		adds	r3, r3, #50
 346 0082 7B71     		strb	r3, [r7, #5]
 178:./Hardware/hardware/menu_data.c ****         if (down_press_time >= 200)
 347              		.loc 1 178 12
 348 0084 7B79     		ldrb	r3, [r7, #5]	@ zero_extendqisi2
 349 0086 C72B     		cmp	r3, #199
 350 0088 C5D9     		bls	.L34
 179:./Hardware/hardware/menu_data.c **** 		{
 180:./Hardware/hardware/menu_data.c ****             if (key_state == 0) 
 351              		.loc 1 180 16
 352 008a 3B79     		ldrb	r3, [r7, #4]	@ zero_extendqisi2
 353 008c 002B     		cmp	r3, #0
 354 008e 04D1     		bne	.L32
 181:./Hardware/hardware/menu_data.c **** 			{
 182:./Hardware/hardware/menu_data.c ****                 sd3xxx_charge_on(); // 执行sd3xxx_charge_on()函数
 355              		.loc 1 182 17
 356 0090 FFF7FEFF 		bl	sd3xxx_charge_on
 183:./Hardware/hardware/menu_data.c ****                 key_state = 1; // 更新按键状态为已按下
 357              		.loc 1 183 27
 358 0094 0123     		movs	r3, #1
 359 0096 3B71     		strb	r3, [r7, #4]
 360 0098 03E0     		b	.L33
 361              	.L32:
 184:./Hardware/hardware/menu_data.c ****             } else {
 185:./Hardware/hardware/menu_data.c ****                 sd3xxx_charge_off(); // 执行sd3xxx_charge_off()函数
 362              		.loc 1 185 17
 363 009a FFF7FEFF 		bl	sd3xxx_charge_off
 186:./Hardware/hardware/menu_data.c ****                 key_state = 0; // 更新按键状态为未按下
 364              		.loc 1 186 27
 365 009e 0023     		movs	r3, #0
 366 00a0 3B71     		strb	r3, [r7, #4]
 367              	.L33:
 187:./Hardware/hardware/menu_data.c ****             }
 188:./Hardware/hardware/menu_data.c ****             down_press_time = 0; // 重置计时器
 368              		.loc 1 188 29
 369 00a2 0023     		movs	r3, #0
 370 00a4 7B71     		strb	r3, [r7, #5]
 371 00a6 B6E7     		b	.L34
 372              	.L30:
 189:./Hardware/hardware/menu_data.c ****         }
 190:./Hardware/hardware/menu_data.c ****     } else {
 191:./Hardware/hardware/menu_data.c ****         down_press_time = 0; // 重置计时器
 373              		.loc 1 191 25
 374 00a8 0023     		movs	r3, #0
 375 00aa 7B71     		strb	r3, [r7, #5]
 139:./Hardware/hardware/menu_data.c **** 		OLED_Update();
 376              		.loc 1 139 3
 377 00ac B3E7     		b	.L34
ARM GAS  C:\Users\86134\AppData\Local\Temp\ccuTN5uR.s 			page 11


 378              	.L35:
 152:./Hardware/hardware/menu_data.c **** 		}
 379              		.loc 1 152 4
 380 00ae 00BF     		nop
 381              	.L23:
 192:./Hardware/hardware/menu_data.c **** 		
 193:./Hardware/hardware/menu_data.c **** 		}
 194:./Hardware/hardware/menu_data.c **** 	
 195:./Hardware/hardware/menu_data.c **** 	}
 196:./Hardware/hardware/menu_data.c **** 	
 197:./Hardware/hardware/menu_data.c **** }
 382              		.loc 1 197 1
 383 00b0 0837     		adds	r7, r7, #8
 384              	.LCFI13:
 385              		.cfi_def_cfa_offset 8
 386 00b2 BD46     		mov	sp, r7
 387              	.LCFI14:
 388              		.cfi_def_cfa_register 13
 389              		@ sp needed
 390 00b4 80BD     		pop	{r7, pc}
 391              	.L37:
 392 00b6 00BF     		.align	2
 393              	.L36:
 394 00b8 34812142 		.word	1109492020
 395 00bc 30812142 		.word	1109492016
 396 00c0 38812142 		.word	1109492024
 397              		.cfi_endproc
 398              	.LFE34:
 400              		.section	.text.SD2XXX_Series,"ax",%progbits
 401              		.align	1
 402              		.global	SD2XXX_Series
 403              		.syntax unified
 404              		.thumb
 405              		.thumb_func
 406              		.fpu softvfp
 408              	SD2XXX_Series:
 409              	.LFB35:
 198:./Hardware/hardware/menu_data.c **** 
 199:./Hardware/hardware/menu_data.c **** 
 200:./Hardware/hardware/menu_data.c **** void SD2XXX_Series(void)
 201:./Hardware/hardware/menu_data.c **** {
 410              		.loc 1 201 1
 411              		.cfi_startproc
 412              		@ args = 0, pretend = 0, frame = 8
 413              		@ frame_needed = 1, uses_anonymous_args = 0
 414 0000 80B5     		push	{r7, lr}
 415              	.LCFI15:
 416              		.cfi_def_cfa_offset 8
 417              		.cfi_offset 7, -8
 418              		.cfi_offset 14, -4
 419 0002 82B0     		sub	sp, sp, #8
 420              	.LCFI16:
 421              		.cfi_def_cfa_offset 16
 422 0004 00AF     		add	r7, sp, #0
 423              	.LCFI17:
 424              		.cfi_def_cfa_register 7
 202:./Hardware/hardware/menu_data.c **** 	uint8_t back_press_time = 0;
ARM GAS  C:\Users\86134\AppData\Local\Temp\ccuTN5uR.s 			page 12


 425              		.loc 1 202 10
 426 0006 0023     		movs	r3, #0
 427 0008 FB71     		strb	r3, [r7, #7]
 428              	.L43:
 203:./Hardware/hardware/menu_data.c **** 	
 204:./Hardware/hardware/menu_data.c **** 	while(1)
 205:./Hardware/hardware/menu_data.c **** 	{
 206:./Hardware/hardware/menu_data.c **** 		sd2xxx_time_show();
 429              		.loc 1 206 3
 430 000a FFF7FEFF 		bl	sd2xxx_time_show
 207:./Hardware/hardware/menu_data.c **** 		OLED_Update();
 431              		.loc 1 207 3
 432 000e FFF7FEFF 		bl	OLED_Update
 208:./Hardware/hardware/menu_data.c **** 		if(Key_back == 0)
 433              		.loc 1 208 6
 434 0012 0D4B     		ldr	r3, .L45
 435 0014 1B68     		ldr	r3, [r3]
 436              		.loc 1 208 5
 437 0016 002B     		cmp	r3, #0
 438 0018 0ED1     		bne	.L39
 209:./Hardware/hardware/menu_data.c **** 		{
 210:./Hardware/hardware/menu_data.c **** 			Delay_ms(10); // 消抖
 439              		.loc 1 210 4
 440 001a 0A20     		movs	r0, #10
 441 001c FFF7FEFF 		bl	Delay_ms
 211:./Hardware/hardware/menu_data.c **** 			back_press_time += 50; // 每次循环递增50ms
 442              		.loc 1 211 20
 443 0020 FB79     		ldrb	r3, [r7, #7]
 444 0022 3233     		adds	r3, r3, #50
 445 0024 FB71     		strb	r3, [r7, #7]
 212:./Hardware/hardware/menu_data.c **** 			if(back_press_time >= 100)
 446              		.loc 1 212 6
 447 0026 FB79     		ldrb	r3, [r7, #7]	@ zero_extendqisi2
 448 0028 632B     		cmp	r3, #99
 449 002a 08D9     		bls	.L44
 213:./Hardware/hardware/menu_data.c **** 			{
 214:./Hardware/hardware/menu_data.c **** 				// 长按200ms，退出函数
 215:./Hardware/hardware/menu_data.c **** 				while(Key_back == 0); // 等待松手
 450              		.loc 1 215 10
 451 002c 00BF     		nop
 452              	.L41:
 453              		.loc 1 215 11 discriminator 1
 454 002e 064B     		ldr	r3, .L45
 455 0030 1B68     		ldr	r3, [r3]
 456              		.loc 1 215 10 discriminator 1
 457 0032 002B     		cmp	r3, #0
 458 0034 FBD0     		beq	.L41
 216:./Hardware/hardware/menu_data.c **** 				break;
 459              		.loc 1 216 5
 460 0036 03E0     		b	.L38
 461              	.L39:
 217:./Hardware/hardware/menu_data.c **** 			}
 218:./Hardware/hardware/menu_data.c **** 			return;
 219:./Hardware/hardware/menu_data.c **** 		}
 220:./Hardware/hardware/menu_data.c **** 		else
 221:./Hardware/hardware/menu_data.c **** 		{
 222:./Hardware/hardware/menu_data.c **** 			back_press_time = 0; // 重置计时器
ARM GAS  C:\Users\86134\AppData\Local\Temp\ccuTN5uR.s 			page 13


 462              		.loc 1 222 20
 463 0038 0023     		movs	r3, #0
 464 003a FB71     		strb	r3, [r7, #7]
 206:./Hardware/hardware/menu_data.c **** 		OLED_Update();
 465              		.loc 1 206 3
 466 003c E5E7     		b	.L43
 467              	.L44:
 218:./Hardware/hardware/menu_data.c **** 		}
 468              		.loc 1 218 4
 469 003e 00BF     		nop
 470              	.L38:
 223:./Hardware/hardware/menu_data.c **** 		}
 224:./Hardware/hardware/menu_data.c **** 	}
 225:./Hardware/hardware/menu_data.c **** 	
 226:./Hardware/hardware/menu_data.c **** }
 471              		.loc 1 226 1
 472 0040 0837     		adds	r7, r7, #8
 473              	.LCFI18:
 474              		.cfi_def_cfa_offset 8
 475 0042 BD46     		mov	sp, r7
 476              	.LCFI19:
 477              		.cfi_def_cfa_register 13
 478              		@ sp needed
 479 0044 80BD     		pop	{r7, pc}
 480              	.L46:
 481 0046 00BF     		.align	2
 482              	.L45:
 483 0048 34812142 		.word	1109492020
 484              		.cfi_endproc
 485              	.LFE35:
 487              		.section	.text.SD3XXX_Series,"ax",%progbits
 488              		.align	1
 489              		.global	SD3XXX_Series
 490              		.syntax unified
 491              		.thumb
 492              		.thumb_func
 493              		.fpu softvfp
 495              	SD3XXX_Series:
 496              	.LFB36:
 227:./Hardware/hardware/menu_data.c **** 
 228:./Hardware/hardware/menu_data.c **** void SD3XXX_Series(void)
 229:./Hardware/hardware/menu_data.c **** {
 497              		.loc 1 229 1
 498              		.cfi_startproc
 499              		@ args = 0, pretend = 0, frame = 8
 500              		@ frame_needed = 1, uses_anonymous_args = 0
 501 0000 80B5     		push	{r7, lr}
 502              	.LCFI20:
 503              		.cfi_def_cfa_offset 8
 504              		.cfi_offset 7, -8
 505              		.cfi_offset 14, -4
 506 0002 82B0     		sub	sp, sp, #8
 507              	.LCFI21:
 508              		.cfi_def_cfa_offset 16
 509 0004 00AF     		add	r7, sp, #0
 510              	.LCFI22:
 511              		.cfi_def_cfa_register 7
ARM GAS  C:\Users\86134\AppData\Local\Temp\ccuTN5uR.s 			page 14


 230:./Hardware/hardware/menu_data.c **** 	uint8_t back_press_time = 0;
 512              		.loc 1 230 10
 513 0006 0023     		movs	r3, #0
 514 0008 FB71     		strb	r3, [r7, #7]
 515              	.L52:
 231:./Hardware/hardware/menu_data.c **** 	
 232:./Hardware/hardware/menu_data.c **** 	while(1)
 233:./Hardware/hardware/menu_data.c **** 	{
 234:./Hardware/hardware/menu_data.c **** 		sd3xxx_time_show();
 516              		.loc 1 234 3
 517 000a FFF7FEFF 		bl	sd3xxx_time_show
 235:./Hardware/hardware/menu_data.c **** 		OLED_Update();
 518              		.loc 1 235 3
 519 000e FFF7FEFF 		bl	OLED_Update
 236:./Hardware/hardware/menu_data.c **** 		if(Key_back == 0)
 520              		.loc 1 236 6
 521 0012 0D4B     		ldr	r3, .L54
 522 0014 1B68     		ldr	r3, [r3]
 523              		.loc 1 236 5
 524 0016 002B     		cmp	r3, #0
 525 0018 0ED1     		bne	.L48
 237:./Hardware/hardware/menu_data.c **** 		{
 238:./Hardware/hardware/menu_data.c **** 			Delay_ms(10); // 消抖
 526              		.loc 1 238 4
 527 001a 0A20     		movs	r0, #10
 528 001c FFF7FEFF 		bl	Delay_ms
 239:./Hardware/hardware/menu_data.c **** 			back_press_time += 50; // 每次循环递增50ms
 529              		.loc 1 239 20
 530 0020 FB79     		ldrb	r3, [r7, #7]
 531 0022 3233     		adds	r3, r3, #50
 532 0024 FB71     		strb	r3, [r7, #7]
 240:./Hardware/hardware/menu_data.c **** 			if(back_press_time >= 100)
 533              		.loc 1 240 6
 534 0026 FB79     		ldrb	r3, [r7, #7]	@ zero_extendqisi2
 535 0028 632B     		cmp	r3, #99
 536 002a 08D9     		bls	.L53
 241:./Hardware/hardware/menu_data.c **** 			{
 242:./Hardware/hardware/menu_data.c **** 				// 长按200ms，退出函数
 243:./Hardware/hardware/menu_data.c **** 				while(Key_back == 0); // 等待松手
 537              		.loc 1 243 10
 538 002c 00BF     		nop
 539              	.L50:
 540              		.loc 1 243 11 discriminator 1
 541 002e 064B     		ldr	r3, .L54
 542 0030 1B68     		ldr	r3, [r3]
 543              		.loc 1 243 10 discriminator 1
 544 0032 002B     		cmp	r3, #0
 545 0034 FBD0     		beq	.L50
 244:./Hardware/hardware/menu_data.c **** 				break;
 546              		.loc 1 244 5
 547 0036 03E0     		b	.L47
 548              	.L48:
 245:./Hardware/hardware/menu_data.c **** 			}
 246:./Hardware/hardware/menu_data.c **** 			return;
 247:./Hardware/hardware/menu_data.c **** 		}
 248:./Hardware/hardware/menu_data.c **** 		else
 249:./Hardware/hardware/menu_data.c **** 		{
ARM GAS  C:\Users\86134\AppData\Local\Temp\ccuTN5uR.s 			page 15


 250:./Hardware/hardware/menu_data.c **** 			back_press_time = 0; // 重置计时器
 549              		.loc 1 250 20
 550 0038 0023     		movs	r3, #0
 551 003a FB71     		strb	r3, [r7, #7]
 234:./Hardware/hardware/menu_data.c **** 		OLED_Update();
 552              		.loc 1 234 3
 553 003c E5E7     		b	.L52
 554              	.L53:
 246:./Hardware/hardware/menu_data.c **** 		}
 555              		.loc 1 246 4
 556 003e 00BF     		nop
 557              	.L47:
 251:./Hardware/hardware/menu_data.c **** 		}
 252:./Hardware/hardware/menu_data.c **** 	}
 253:./Hardware/hardware/menu_data.c **** }
 558              		.loc 1 253 1
 559 0040 0837     		adds	r7, r7, #8
 560              	.LCFI23:
 561              		.cfi_def_cfa_offset 8
 562 0042 BD46     		mov	sp, r7
 563              	.LCFI24:
 564              		.cfi_def_cfa_register 13
 565              		@ sp needed
 566 0044 80BD     		pop	{r7, pc}
 567              	.L55:
 568 0046 00BF     		.align	2
 569              	.L54:
 570 0048 34812142 		.word	1109492020
 571              		.cfi_endproc
 572              	.LFE36:
 574              		.section	.text.SD85XX_Series,"ax",%progbits
 575              		.align	1
 576              		.global	SD85XX_Series
 577              		.syntax unified
 578              		.thumb
 579              		.thumb_func
 580              		.fpu softvfp
 582              	SD85XX_Series:
 583              	.LFB37:
 254:./Hardware/hardware/menu_data.c **** 
 255:./Hardware/hardware/menu_data.c **** void SD85XX_Series(void)
 256:./Hardware/hardware/menu_data.c **** {
 584              		.loc 1 256 1
 585              		.cfi_startproc
 586              		@ args = 0, pretend = 0, frame = 8
 587              		@ frame_needed = 1, uses_anonymous_args = 0
 588 0000 80B5     		push	{r7, lr}
 589              	.LCFI25:
 590              		.cfi_def_cfa_offset 8
 591              		.cfi_offset 7, -8
 592              		.cfi_offset 14, -4
 593 0002 82B0     		sub	sp, sp, #8
 594              	.LCFI26:
 595              		.cfi_def_cfa_offset 16
 596 0004 00AF     		add	r7, sp, #0
 597              	.LCFI27:
 598              		.cfi_def_cfa_register 7
ARM GAS  C:\Users\86134\AppData\Local\Temp\ccuTN5uR.s 			page 16


 257:./Hardware/hardware/menu_data.c **** 	uint8_t back_press_time = 0;
 599              		.loc 1 257 10
 600 0006 0023     		movs	r3, #0
 601 0008 FB71     		strb	r3, [r7, #7]
 602              	.L61:
 258:./Hardware/hardware/menu_data.c **** 	
 259:./Hardware/hardware/menu_data.c **** 	while(1)
 260:./Hardware/hardware/menu_data.c **** 	{
 261:./Hardware/hardware/menu_data.c **** 		sd85xx_time_show();
 603              		.loc 1 261 3
 604 000a FFF7FEFF 		bl	sd85xx_time_show
 262:./Hardware/hardware/menu_data.c **** 		OLED_Update();
 605              		.loc 1 262 3
 606 000e FFF7FEFF 		bl	OLED_Update
 263:./Hardware/hardware/menu_data.c **** 		if(Key_back == 0)
 607              		.loc 1 263 6
 608 0012 0D4B     		ldr	r3, .L63
 609 0014 1B68     		ldr	r3, [r3]
 610              		.loc 1 263 5
 611 0016 002B     		cmp	r3, #0
 612 0018 0ED1     		bne	.L57
 264:./Hardware/hardware/menu_data.c **** 		{
 265:./Hardware/hardware/menu_data.c **** 			Delay_ms(10); // 消抖
 613              		.loc 1 265 4
 614 001a 0A20     		movs	r0, #10
 615 001c FFF7FEFF 		bl	Delay_ms
 266:./Hardware/hardware/menu_data.c **** 			back_press_time += 50; // 每次循环递增50ms
 616              		.loc 1 266 20
 617 0020 FB79     		ldrb	r3, [r7, #7]
 618 0022 3233     		adds	r3, r3, #50
 619 0024 FB71     		strb	r3, [r7, #7]
 267:./Hardware/hardware/menu_data.c **** 			if(back_press_time >= 100)
 620              		.loc 1 267 6
 621 0026 FB79     		ldrb	r3, [r7, #7]	@ zero_extendqisi2
 622 0028 632B     		cmp	r3, #99
 623 002a 08D9     		bls	.L62
 268:./Hardware/hardware/menu_data.c **** 			{
 269:./Hardware/hardware/menu_data.c **** 				// 长按200ms，退出函数
 270:./Hardware/hardware/menu_data.c **** 				while(Key_back == 0); // 等待松手
 624              		.loc 1 270 10
 625 002c 00BF     		nop
 626              	.L59:
 627              		.loc 1 270 11 discriminator 1
 628 002e 064B     		ldr	r3, .L63
 629 0030 1B68     		ldr	r3, [r3]
 630              		.loc 1 270 10 discriminator 1
 631 0032 002B     		cmp	r3, #0
 632 0034 FBD0     		beq	.L59
 271:./Hardware/hardware/menu_data.c **** 				break;
 633              		.loc 1 271 5
 634 0036 03E0     		b	.L56
 635              	.L57:
 272:./Hardware/hardware/menu_data.c **** 			}
 273:./Hardware/hardware/menu_data.c **** 			return;
 274:./Hardware/hardware/menu_data.c **** 		}
 275:./Hardware/hardware/menu_data.c **** 		else
 276:./Hardware/hardware/menu_data.c **** 		{
ARM GAS  C:\Users\86134\AppData\Local\Temp\ccuTN5uR.s 			page 17


 277:./Hardware/hardware/menu_data.c **** 			back_press_time = 0; // 重置计时器
 636              		.loc 1 277 20
 637 0038 0023     		movs	r3, #0
 638 003a FB71     		strb	r3, [r7, #7]
 261:./Hardware/hardware/menu_data.c **** 		OLED_Update();
 639              		.loc 1 261 3
 640 003c E5E7     		b	.L61
 641              	.L62:
 273:./Hardware/hardware/menu_data.c **** 		}
 642              		.loc 1 273 4
 643 003e 00BF     		nop
 644              	.L56:
 278:./Hardware/hardware/menu_data.c **** 		}
 279:./Hardware/hardware/menu_data.c **** 	}
 280:./Hardware/hardware/menu_data.c **** }
 645              		.loc 1 280 1
 646 0040 0837     		adds	r7, r7, #8
 647              	.LCFI28:
 648              		.cfi_def_cfa_offset 8
 649 0042 BD46     		mov	sp, r7
 650              	.LCFI29:
 651              		.cfi_def_cfa_register 13
 652              		@ sp needed
 653 0044 80BD     		pop	{r7, pc}
 654              	.L64:
 655 0046 00BF     		.align	2
 656              	.L63:
 657 0048 34812142 		.word	1109492020
 658              		.cfi_endproc
 659              	.LFE37:
 661              		.section	.text.SD85XX_and_std,"ax",%progbits
 662              		.align	1
 663              		.global	SD85XX_and_std
 664              		.syntax unified
 665              		.thumb
 666              		.thumb_func
 667              		.fpu softvfp
 669              	SD85XX_and_std:
 670              	.LFB38:
 281:./Hardware/hardware/menu_data.c **** 
 282:./Hardware/hardware/menu_data.c **** void SD85XX_and_std(void)
 283:./Hardware/hardware/menu_data.c **** {
 671              		.loc 1 283 1
 672              		.cfi_startproc
 673              		@ args = 0, pretend = 0, frame = 8
 674              		@ frame_needed = 1, uses_anonymous_args = 0
 675 0000 80B5     		push	{r7, lr}
 676              	.LCFI30:
 677              		.cfi_def_cfa_offset 8
 678              		.cfi_offset 7, -8
 679              		.cfi_offset 14, -4
 680 0002 82B0     		sub	sp, sp, #8
 681              	.LCFI31:
 682              		.cfi_def_cfa_offset 16
 683 0004 00AF     		add	r7, sp, #0
 684              	.LCFI32:
 685              		.cfi_def_cfa_register 7
ARM GAS  C:\Users\86134\AppData\Local\Temp\ccuTN5uR.s 			page 18


 284:./Hardware/hardware/menu_data.c **** 	uint8_t back_press_time = 0;
 686              		.loc 1 284 10
 687 0006 0023     		movs	r3, #0
 688 0008 FB71     		strb	r3, [r7, #7]
 285:./Hardware/hardware/menu_data.c **** 	uint8_t enter_press_time = 0;
 689              		.loc 1 285 10
 690 000a 0023     		movs	r3, #0
 691 000c BB71     		strb	r3, [r7, #6]
 692              	.L74:
 286:./Hardware/hardware/menu_data.c **** 	
 287:./Hardware/hardware/menu_data.c **** 	while(1)
 288:./Hardware/hardware/menu_data.c **** 	{
 289:./Hardware/hardware/menu_data.c **** 		sd85xx_and_std();
 693              		.loc 1 289 3
 694 000e FFF7FEFF 		bl	sd85xx_and_std
 290:./Hardware/hardware/menu_data.c **** 		OLED_Update();
 695              		.loc 1 290 3
 696 0012 FFF7FEFF 		bl	OLED_Update
 291:./Hardware/hardware/menu_data.c **** 		
 292:./Hardware/hardware/menu_data.c **** 		if(Key_back == 0)
 697              		.loc 1 292 6
 698 0016 194B     		ldr	r3, .L76
 699 0018 1B68     		ldr	r3, [r3]
 700              		.loc 1 292 5
 701 001a 002B     		cmp	r3, #0
 702 001c 0ED1     		bne	.L66
 293:./Hardware/hardware/menu_data.c **** 		{
 294:./Hardware/hardware/menu_data.c **** 			Delay_ms(10); // 消抖
 703              		.loc 1 294 4
 704 001e 0A20     		movs	r0, #10
 705 0020 FFF7FEFF 		bl	Delay_ms
 295:./Hardware/hardware/menu_data.c **** 			back_press_time += 50; // 每次循环递增50ms
 706              		.loc 1 295 20
 707 0024 FB79     		ldrb	r3, [r7, #7]
 708 0026 3233     		adds	r3, r3, #50
 709 0028 FB71     		strb	r3, [r7, #7]
 296:./Hardware/hardware/menu_data.c **** 			if(back_press_time >= 100)
 710              		.loc 1 296 6
 711 002a FB79     		ldrb	r3, [r7, #7]	@ zero_extendqisi2
 712 002c 632B     		cmp	r3, #99
 713 002e 21D9     		bls	.L75
 297:./Hardware/hardware/menu_data.c **** 			{
 298:./Hardware/hardware/menu_data.c **** 				// 长按200ms，退出函数
 299:./Hardware/hardware/menu_data.c **** 				while(Key_back == 0); // 等待松手
 714              		.loc 1 299 10
 715 0030 00BF     		nop
 716              	.L68:
 717              		.loc 1 299 11 discriminator 1
 718 0032 124B     		ldr	r3, .L76
 719 0034 1B68     		ldr	r3, [r3]
 720              		.loc 1 299 10 discriminator 1
 721 0036 002B     		cmp	r3, #0
 722 0038 FBD0     		beq	.L68
 300:./Hardware/hardware/menu_data.c **** 				break;
 723              		.loc 1 300 5
 724 003a 1CE0     		b	.L65
 725              	.L66:
ARM GAS  C:\Users\86134\AppData\Local\Temp\ccuTN5uR.s 			page 19


 301:./Hardware/hardware/menu_data.c **** 			}
 302:./Hardware/hardware/menu_data.c **** 			return;
 303:./Hardware/hardware/menu_data.c **** 		}
 304:./Hardware/hardware/menu_data.c **** 		else
 305:./Hardware/hardware/menu_data.c **** 		{
 306:./Hardware/hardware/menu_data.c **** 			back_press_time = 0; // 重置计时器
 726              		.loc 1 306 20
 727 003c 0023     		movs	r3, #0
 728 003e FB71     		strb	r3, [r7, #7]
 307:./Hardware/hardware/menu_data.c **** 		}
 308:./Hardware/hardware/menu_data.c **** 		
 309:./Hardware/hardware/menu_data.c **** 		if(Key_up == 0)
 729              		.loc 1 309 6
 730 0040 0F4B     		ldr	r3, .L76+4
 731 0042 1B68     		ldr	r3, [r3]
 732              		.loc 1 309 5
 733 0044 002B     		cmp	r3, #0
 734 0046 12D1     		bne	.L70
 310:./Hardware/hardware/menu_data.c **** 		{
 311:./Hardware/hardware/menu_data.c **** 			Delay_ms(10); // 消抖
 735              		.loc 1 311 4
 736 0048 0A20     		movs	r0, #10
 737 004a FFF7FEFF 		bl	Delay_ms
 312:./Hardware/hardware/menu_data.c **** 			enter_press_time += 50; // 每次循环递增50ms
 738              		.loc 1 312 21
 739 004e BB79     		ldrb	r3, [r7, #6]
 740 0050 3233     		adds	r3, r3, #50
 741 0052 BB71     		strb	r3, [r7, #6]
 313:./Hardware/hardware/menu_data.c **** 			if(enter_press_time >= 100)
 742              		.loc 1 313 6
 743 0054 BB79     		ldrb	r3, [r7, #6]	@ zero_extendqisi2
 744 0056 632B     		cmp	r3, #99
 745 0058 D9D9     		bls	.L74
 314:./Hardware/hardware/menu_data.c **** 			{
 315:./Hardware/hardware/menu_data.c **** 				// 长按200ms，退出函数
 316:./Hardware/hardware/menu_data.c **** 				while(Key_up == 0) // 等待松手
 746              		.loc 1 316 10
 747 005a 03E0     		b	.L72
 748              	.L73:
 317:./Hardware/hardware/menu_data.c **** 				{
 318:./Hardware/hardware/menu_data.c **** 					sd85xx_time_copy();
 749              		.loc 1 318 6
 750 005c FFF7FEFF 		bl	sd85xx_time_copy
 319:./Hardware/hardware/menu_data.c **** 					OLED_Update();
 751              		.loc 1 319 6
 752 0060 FFF7FEFF 		bl	OLED_Update
 753              	.L72:
 316:./Hardware/hardware/menu_data.c **** 				{
 754              		.loc 1 316 11
 755 0064 064B     		ldr	r3, .L76+4
 756 0066 1B68     		ldr	r3, [r3]
 316:./Hardware/hardware/menu_data.c **** 				{
 757              		.loc 1 316 10
 758 0068 002B     		cmp	r3, #0
 759 006a F7D0     		beq	.L73
 760 006c CFE7     		b	.L74
 761              	.L70:
ARM GAS  C:\Users\86134\AppData\Local\Temp\ccuTN5uR.s 			page 20


 320:./Hardware/hardware/menu_data.c **** 				}
 321:./Hardware/hardware/menu_data.c **** 			} 
 322:./Hardware/hardware/menu_data.c **** 		}
 323:./Hardware/hardware/menu_data.c **** 		else
 324:./Hardware/hardware/menu_data.c **** 		{
 325:./Hardware/hardware/menu_data.c **** 			enter_press_time = 0; // 重置计时器
 762              		.loc 1 325 21
 763 006e 0023     		movs	r3, #0
 764 0070 BB71     		strb	r3, [r7, #6]
 289:./Hardware/hardware/menu_data.c **** 		OLED_Update();
 765              		.loc 1 289 3
 766 0072 CCE7     		b	.L74
 767              	.L75:
 302:./Hardware/hardware/menu_data.c **** 		}
 768              		.loc 1 302 4
 769 0074 00BF     		nop
 770              	.L65:
 326:./Hardware/hardware/menu_data.c **** 		}
 327:./Hardware/hardware/menu_data.c **** 
 328:./Hardware/hardware/menu_data.c **** 	}
 329:./Hardware/hardware/menu_data.c **** }
 771              		.loc 1 329 1
 772 0076 0837     		adds	r7, r7, #8
 773              	.LCFI33:
 774              		.cfi_def_cfa_offset 8
 775 0078 BD46     		mov	sp, r7
 776              	.LCFI34:
 777              		.cfi_def_cfa_register 13
 778              		@ sp needed
 779 007a 80BD     		pop	{r7, pc}
 780              	.L77:
 781              		.align	2
 782              	.L76:
 783 007c 34812142 		.word	1109492020
 784 0080 30812142 		.word	1109492016
 785              		.cfi_endproc
 786              	.LFE38:
 788              		.section	.text.SD8800_Series,"ax",%progbits
 789              		.align	1
 790              		.global	SD8800_Series
 791              		.syntax unified
 792              		.thumb
 793              		.thumb_func
 794              		.fpu softvfp
 796              	SD8800_Series:
 797              	.LFB39:
 330:./Hardware/hardware/menu_data.c **** 
 331:./Hardware/hardware/menu_data.c **** void SD8800_Series(void)
 332:./Hardware/hardware/menu_data.c **** {
 798              		.loc 1 332 1
 799              		.cfi_startproc
 800              		@ args = 0, pretend = 0, frame = 8
 801              		@ frame_needed = 1, uses_anonymous_args = 0
 802 0000 80B5     		push	{r7, lr}
 803              	.LCFI35:
 804              		.cfi_def_cfa_offset 8
 805              		.cfi_offset 7, -8
ARM GAS  C:\Users\86134\AppData\Local\Temp\ccuTN5uR.s 			page 21


 806              		.cfi_offset 14, -4
 807 0002 82B0     		sub	sp, sp, #8
 808              	.LCFI36:
 809              		.cfi_def_cfa_offset 16
 810 0004 00AF     		add	r7, sp, #0
 811              	.LCFI37:
 812              		.cfi_def_cfa_register 7
 333:./Hardware/hardware/menu_data.c **** 	uint8_t back_press_time = 0;
 813              		.loc 1 333 10
 814 0006 0023     		movs	r3, #0
 815 0008 FB71     		strb	r3, [r7, #7]
 816              	.L83:
 334:./Hardware/hardware/menu_data.c **** 	
 335:./Hardware/hardware/menu_data.c **** 	while(1)
 336:./Hardware/hardware/menu_data.c **** 	{
 337:./Hardware/hardware/menu_data.c **** 		sd8800_time_show();
 817              		.loc 1 337 3
 818 000a FFF7FEFF 		bl	sd8800_time_show
 338:./Hardware/hardware/menu_data.c **** 		OLED_Update();
 819              		.loc 1 338 3
 820 000e FFF7FEFF 		bl	OLED_Update
 339:./Hardware/hardware/menu_data.c **** 		if(Key_back == 0)
 821              		.loc 1 339 6
 822 0012 0D4B     		ldr	r3, .L85
 823 0014 1B68     		ldr	r3, [r3]
 824              		.loc 1 339 5
 825 0016 002B     		cmp	r3, #0
 826 0018 0ED1     		bne	.L79
 340:./Hardware/hardware/menu_data.c **** 		{
 341:./Hardware/hardware/menu_data.c **** 			Delay_ms(10); // 消抖
 827              		.loc 1 341 4
 828 001a 0A20     		movs	r0, #10
 829 001c FFF7FEFF 		bl	Delay_ms
 342:./Hardware/hardware/menu_data.c **** 			back_press_time += 50; // 每次循环递增50ms
 830              		.loc 1 342 20
 831 0020 FB79     		ldrb	r3, [r7, #7]
 832 0022 3233     		adds	r3, r3, #50
 833 0024 FB71     		strb	r3, [r7, #7]
 343:./Hardware/hardware/menu_data.c **** 			if(back_press_time >= 100)
 834              		.loc 1 343 6
 835 0026 FB79     		ldrb	r3, [r7, #7]	@ zero_extendqisi2
 836 0028 632B     		cmp	r3, #99
 837 002a 08D9     		bls	.L84
 344:./Hardware/hardware/menu_data.c **** 			{
 345:./Hardware/hardware/menu_data.c **** 				// 长按200ms，退出函数
 346:./Hardware/hardware/menu_data.c **** 				while(Key_back == 0); // 等待松手
 838              		.loc 1 346 10
 839 002c 00BF     		nop
 840              	.L81:
 841              		.loc 1 346 11 discriminator 1
 842 002e 064B     		ldr	r3, .L85
 843 0030 1B68     		ldr	r3, [r3]
 844              		.loc 1 346 10 discriminator 1
 845 0032 002B     		cmp	r3, #0
 846 0034 FBD0     		beq	.L81
 347:./Hardware/hardware/menu_data.c **** 				break;
 847              		.loc 1 347 5
ARM GAS  C:\Users\86134\AppData\Local\Temp\ccuTN5uR.s 			page 22


 848 0036 03E0     		b	.L78
 849              	.L79:
 348:./Hardware/hardware/menu_data.c **** 			}
 349:./Hardware/hardware/menu_data.c **** 			return;
 350:./Hardware/hardware/menu_data.c **** 		}
 351:./Hardware/hardware/menu_data.c **** 		else
 352:./Hardware/hardware/menu_data.c **** 		{
 353:./Hardware/hardware/menu_data.c **** 			back_press_time = 0; // 重置计时器
 850              		.loc 1 353 20
 851 0038 0023     		movs	r3, #0
 852 003a FB71     		strb	r3, [r7, #7]
 337:./Hardware/hardware/menu_data.c **** 		OLED_Update();
 853              		.loc 1 337 3
 854 003c E5E7     		b	.L83
 855              	.L84:
 349:./Hardware/hardware/menu_data.c **** 		}
 856              		.loc 1 349 4
 857 003e 00BF     		nop
 858              	.L78:
 354:./Hardware/hardware/menu_data.c **** 		}
 355:./Hardware/hardware/menu_data.c **** 	}
 356:./Hardware/hardware/menu_data.c **** }
 859              		.loc 1 356 1
 860 0040 0837     		adds	r7, r7, #8
 861              	.LCFI38:
 862              		.cfi_def_cfa_offset 8
 863 0042 BD46     		mov	sp, r7
 864              	.LCFI39:
 865              		.cfi_def_cfa_register 13
 866              		@ sp needed
 867 0044 80BD     		pop	{r7, pc}
 868              	.L86:
 869 0046 00BF     		.align	2
 870              	.L85:
 871 0048 34812142 		.word	1109492020
 872              		.cfi_endproc
 873              	.LFE39:
 875              		.section	.text.SD8800_and_std,"ax",%progbits
 876              		.align	1
 877              		.global	SD8800_and_std
 878              		.syntax unified
 879              		.thumb
 880              		.thumb_func
 881              		.fpu softvfp
 883              	SD8800_and_std:
 884              	.LFB40:
 357:./Hardware/hardware/menu_data.c **** 
 358:./Hardware/hardware/menu_data.c **** void SD8800_and_std(void)
 359:./Hardware/hardware/menu_data.c **** {
 885              		.loc 1 359 1
 886              		.cfi_startproc
 887              		@ args = 0, pretend = 0, frame = 8
 888              		@ frame_needed = 1, uses_anonymous_args = 0
 889 0000 80B5     		push	{r7, lr}
 890              	.LCFI40:
 891              		.cfi_def_cfa_offset 8
 892              		.cfi_offset 7, -8
ARM GAS  C:\Users\86134\AppData\Local\Temp\ccuTN5uR.s 			page 23


 893              		.cfi_offset 14, -4
 894 0002 82B0     		sub	sp, sp, #8
 895              	.LCFI41:
 896              		.cfi_def_cfa_offset 16
 897 0004 00AF     		add	r7, sp, #0
 898              	.LCFI42:
 899              		.cfi_def_cfa_register 7
 360:./Hardware/hardware/menu_data.c **** 	uint8_t back_press_time = 0;
 900              		.loc 1 360 10
 901 0006 0023     		movs	r3, #0
 902 0008 FB71     		strb	r3, [r7, #7]
 361:./Hardware/hardware/menu_data.c **** 	uint8_t enter_press_time = 0;
 903              		.loc 1 361 10
 904 000a 0023     		movs	r3, #0
 905 000c BB71     		strb	r3, [r7, #6]
 362:./Hardware/hardware/menu_data.c **** 	uint8_t down_press_time = 0;
 906              		.loc 1 362 10
 907 000e 0023     		movs	r3, #0
 908 0010 7B71     		strb	r3, [r7, #5]
 363:./Hardware/hardware/menu_data.c **** 	uint8_t key_state = 0;
 909              		.loc 1 363 10
 910 0012 0023     		movs	r3, #0
 911 0014 3B71     		strb	r3, [r7, #4]
 912              	.L100:
 364:./Hardware/hardware/menu_data.c **** 	
 365:./Hardware/hardware/menu_data.c **** 	while(1)
 366:./Hardware/hardware/menu_data.c **** 	{
 367:./Hardware/hardware/menu_data.c **** 		sd8800_and_std();
 913              		.loc 1 367 3
 914 0016 FFF7FEFF 		bl	sd8800_and_std
 368:./Hardware/hardware/menu_data.c **** 		OLED_Update();
 915              		.loc 1 368 3
 916 001a FFF7FEFF 		bl	OLED_Update
 369:./Hardware/hardware/menu_data.c **** 		
 370:./Hardware/hardware/menu_data.c **** 		if(Key_back == 0)
 917              		.loc 1 370 6
 918 001e 284B     		ldr	r3, .L102
 919 0020 1B68     		ldr	r3, [r3]
 920              		.loc 1 370 5
 921 0022 002B     		cmp	r3, #0
 922 0024 0ED1     		bne	.L88
 371:./Hardware/hardware/menu_data.c **** 		{
 372:./Hardware/hardware/menu_data.c **** 			Delay_ms(10); // 消抖
 923              		.loc 1 372 4
 924 0026 0A20     		movs	r0, #10
 925 0028 FFF7FEFF 		bl	Delay_ms
 373:./Hardware/hardware/menu_data.c **** 			back_press_time += 50; // 每次循环递增50ms
 926              		.loc 1 373 20
 927 002c FB79     		ldrb	r3, [r7, #7]
 928 002e 3233     		adds	r3, r3, #50
 929 0030 FB71     		strb	r3, [r7, #7]
 374:./Hardware/hardware/menu_data.c **** 			if(back_press_time >= 100)
 930              		.loc 1 374 6
 931 0032 FB79     		ldrb	r3, [r7, #7]	@ zero_extendqisi2
 932 0034 632B     		cmp	r3, #99
 933 0036 3FD9     		bls	.L101
 375:./Hardware/hardware/menu_data.c **** 			{
ARM GAS  C:\Users\86134\AppData\Local\Temp\ccuTN5uR.s 			page 24


 376:./Hardware/hardware/menu_data.c **** 				// 长按200ms，退出函数
 377:./Hardware/hardware/menu_data.c **** 				while(Key_back == 0); // 等待松手
 934              		.loc 1 377 10
 935 0038 00BF     		nop
 936              	.L90:
 937              		.loc 1 377 11 discriminator 1
 938 003a 214B     		ldr	r3, .L102
 939 003c 1B68     		ldr	r3, [r3]
 940              		.loc 1 377 10 discriminator 1
 941 003e 002B     		cmp	r3, #0
 942 0040 FBD0     		beq	.L90
 378:./Hardware/hardware/menu_data.c **** 				break;
 943              		.loc 1 378 5
 944 0042 3AE0     		b	.L87
 945              	.L88:
 379:./Hardware/hardware/menu_data.c **** 			}
 380:./Hardware/hardware/menu_data.c **** 			return;
 381:./Hardware/hardware/menu_data.c **** 		}
 382:./Hardware/hardware/menu_data.c **** 		else
 383:./Hardware/hardware/menu_data.c **** 		{
 384:./Hardware/hardware/menu_data.c **** 			back_press_time = 0; // 重置计时器
 946              		.loc 1 384 20
 947 0044 0023     		movs	r3, #0
 948 0046 FB71     		strb	r3, [r7, #7]
 385:./Hardware/hardware/menu_data.c **** 		}
 386:./Hardware/hardware/menu_data.c **** 		
 387:./Hardware/hardware/menu_data.c **** 		if(Key_up == 0)
 949              		.loc 1 387 6
 950 0048 1E4B     		ldr	r3, .L102+4
 951 004a 1B68     		ldr	r3, [r3]
 952              		.loc 1 387 5
 953 004c 002B     		cmp	r3, #0
 954 004e 12D1     		bne	.L92
 388:./Hardware/hardware/menu_data.c **** 		{
 389:./Hardware/hardware/menu_data.c **** 			Delay_ms(10); // 消抖
 955              		.loc 1 389 4
 956 0050 0A20     		movs	r0, #10
 957 0052 FFF7FEFF 		bl	Delay_ms
 390:./Hardware/hardware/menu_data.c **** 			enter_press_time += 50; // 每次循环递增50ms
 958              		.loc 1 390 21
 959 0056 BB79     		ldrb	r3, [r7, #6]
 960 0058 3233     		adds	r3, r3, #50
 961 005a BB71     		strb	r3, [r7, #6]
 391:./Hardware/hardware/menu_data.c **** 			if(enter_press_time >= 100)
 962              		.loc 1 391 6
 963 005c BB79     		ldrb	r3, [r7, #6]	@ zero_extendqisi2
 964 005e 632B     		cmp	r3, #99
 965 0060 0BD9     		bls	.L93
 392:./Hardware/hardware/menu_data.c **** 			{
 393:./Hardware/hardware/menu_data.c **** 				// 长按200ms，退出函数
 394:./Hardware/hardware/menu_data.c **** 				while(Key_up == 0) // 等待松手
 966              		.loc 1 394 10
 967 0062 03E0     		b	.L94
 968              	.L95:
 395:./Hardware/hardware/menu_data.c **** 				{
 396:./Hardware/hardware/menu_data.c **** 					sd8800_time_copy();
 969              		.loc 1 396 6
ARM GAS  C:\Users\86134\AppData\Local\Temp\ccuTN5uR.s 			page 25


 970 0064 FFF7FEFF 		bl	sd8800_time_copy
 397:./Hardware/hardware/menu_data.c **** 					OLED_Update();
 971              		.loc 1 397 6
 972 0068 FFF7FEFF 		bl	OLED_Update
 973              	.L94:
 394:./Hardware/hardware/menu_data.c **** 				{
 974              		.loc 1 394 11
 975 006c 154B     		ldr	r3, .L102+4
 976 006e 1B68     		ldr	r3, [r3]
 394:./Hardware/hardware/menu_data.c **** 				{
 977              		.loc 1 394 10
 978 0070 002B     		cmp	r3, #0
 979 0072 F7D0     		beq	.L95
 980 0074 01E0     		b	.L93
 981              	.L92:
 398:./Hardware/hardware/menu_data.c **** 				}
 399:./Hardware/hardware/menu_data.c **** 			} 
 400:./Hardware/hardware/menu_data.c **** 		}
 401:./Hardware/hardware/menu_data.c **** 		else
 402:./Hardware/hardware/menu_data.c **** 		{
 403:./Hardware/hardware/menu_data.c **** 			enter_press_time = 0; // 重置计时器
 982              		.loc 1 403 21
 983 0076 0023     		movs	r3, #0
 984 0078 BB71     		strb	r3, [r7, #6]
 985              	.L93:
 404:./Hardware/hardware/menu_data.c **** 		}
 405:./Hardware/hardware/menu_data.c **** /******************下按键************************/
 406:./Hardware/hardware/menu_data.c ****     if (Key_down == 0)
 986              		.loc 1 406 9
 987 007a 134B     		ldr	r3, .L102+8
 988 007c 1B68     		ldr	r3, [r3]
 989              		.loc 1 406 8
 990 007e 002B     		cmp	r3, #0
 991 0080 17D1     		bne	.L96
 407:./Hardware/hardware/menu_data.c **** 	{
 408:./Hardware/hardware/menu_data.c ****         Delay_ms(10); // 消抖
 992              		.loc 1 408 9
 993 0082 0A20     		movs	r0, #10
 994 0084 FFF7FEFF 		bl	Delay_ms
 409:./Hardware/hardware/menu_data.c ****         down_press_time += 50; // 每次循环递增50ms
 995              		.loc 1 409 25
 996 0088 7B79     		ldrb	r3, [r7, #5]
 997 008a 3233     		adds	r3, r3, #50
 998 008c 7B71     		strb	r3, [r7, #5]
 410:./Hardware/hardware/menu_data.c ****         if (down_press_time >= 100)
 999              		.loc 1 410 12
 1000 008e 7B79     		ldrb	r3, [r7, #5]	@ zero_extendqisi2
 1001 0090 632B     		cmp	r3, #99
 1002 0092 C0D9     		bls	.L100
 411:./Hardware/hardware/menu_data.c **** 		{
 412:./Hardware/hardware/menu_data.c ****             if (key_state == 0) 
 1003              		.loc 1 412 16
 1004 0094 3B79     		ldrb	r3, [r7, #4]	@ zero_extendqisi2
 1005 0096 002B     		cmp	r3, #0
 1006 0098 04D1     		bne	.L98
 413:./Hardware/hardware/menu_data.c **** 			{
 414:./Hardware/hardware/menu_data.c ****                 sd8200_charge_on(); // 执行sd3xxx_charge_on()函数
ARM GAS  C:\Users\86134\AppData\Local\Temp\ccuTN5uR.s 			page 26


 1007              		.loc 1 414 17
 1008 009a FFF7FEFF 		bl	sd8200_charge_on
 415:./Hardware/hardware/menu_data.c ****                 key_state = 1; // 更新按键状态为已按下
 1009              		.loc 1 415 27
 1010 009e 0123     		movs	r3, #1
 1011 00a0 3B71     		strb	r3, [r7, #4]
 1012 00a2 03E0     		b	.L99
 1013              	.L98:
 416:./Hardware/hardware/menu_data.c ****             } else {
 417:./Hardware/hardware/menu_data.c ****                 sd8200_charge_off(); // 执行sd3xxx_charge_off()函数
 1014              		.loc 1 417 17
 1015 00a4 FFF7FEFF 		bl	sd8200_charge_off
 418:./Hardware/hardware/menu_data.c ****                 key_state = 0; // 更新按键状态为未按下
 1016              		.loc 1 418 27
 1017 00a8 0023     		movs	r3, #0
 1018 00aa 3B71     		strb	r3, [r7, #4]
 1019              	.L99:
 419:./Hardware/hardware/menu_data.c ****             }
 420:./Hardware/hardware/menu_data.c ****             down_press_time = 0; // 重置计时器
 1020              		.loc 1 420 29
 1021 00ac 0023     		movs	r3, #0
 1022 00ae 7B71     		strb	r3, [r7, #5]
 1023 00b0 B1E7     		b	.L100
 1024              	.L96:
 421:./Hardware/hardware/menu_data.c ****         }
 422:./Hardware/hardware/menu_data.c ****     } else {
 423:./Hardware/hardware/menu_data.c ****         down_press_time = 0; // 重置计时器
 1025              		.loc 1 423 25
 1026 00b2 0023     		movs	r3, #0
 1027 00b4 7B71     		strb	r3, [r7, #5]
 367:./Hardware/hardware/menu_data.c **** 		OLED_Update();
 1028              		.loc 1 367 3
 1029 00b6 AEE7     		b	.L100
 1030              	.L101:
 380:./Hardware/hardware/menu_data.c **** 		}
 1031              		.loc 1 380 4
 1032 00b8 00BF     		nop
 1033              	.L87:
 424:./Hardware/hardware/menu_data.c **** 		
 425:./Hardware/hardware/menu_data.c **** 		}
 426:./Hardware/hardware/menu_data.c **** 	}
 427:./Hardware/hardware/menu_data.c **** }
 1034              		.loc 1 427 1
 1035 00ba 0837     		adds	r7, r7, #8
 1036              	.LCFI43:
 1037              		.cfi_def_cfa_offset 8
 1038 00bc BD46     		mov	sp, r7
 1039              	.LCFI44:
 1040              		.cfi_def_cfa_register 13
 1041              		@ sp needed
 1042 00be 80BD     		pop	{r7, pc}
 1043              	.L103:
 1044              		.align	2
 1045              	.L102:
 1046 00c0 34812142 		.word	1109492020
 1047 00c4 30812142 		.word	1109492016
 1048 00c8 38812142 		.word	1109492024
ARM GAS  C:\Users\86134\AppData\Local\Temp\ccuTN5uR.s 			page 27


 1049              		.cfi_endproc
 1050              	.LFE40:
 1052              		.section	.text.SD8804_Series,"ax",%progbits
 1053              		.align	1
 1054              		.global	SD8804_Series
 1055              		.syntax unified
 1056              		.thumb
 1057              		.thumb_func
 1058              		.fpu softvfp
 1060              	SD8804_Series:
 1061              	.LFB41:
 428:./Hardware/hardware/menu_data.c **** 
 429:./Hardware/hardware/menu_data.c **** void SD8804_Series(void)
 430:./Hardware/hardware/menu_data.c **** {
 1062              		.loc 1 430 1
 1063              		.cfi_startproc
 1064              		@ args = 0, pretend = 0, frame = 8
 1065              		@ frame_needed = 1, uses_anonymous_args = 0
 1066 0000 80B5     		push	{r7, lr}
 1067              	.LCFI45:
 1068              		.cfi_def_cfa_offset 8
 1069              		.cfi_offset 7, -8
 1070              		.cfi_offset 14, -4
 1071 0002 82B0     		sub	sp, sp, #8
 1072              	.LCFI46:
 1073              		.cfi_def_cfa_offset 16
 1074 0004 00AF     		add	r7, sp, #0
 1075              	.LCFI47:
 1076              		.cfi_def_cfa_register 7
 431:./Hardware/hardware/menu_data.c **** 	uint8_t back_press_time = 0;
 1077              		.loc 1 431 10
 1078 0006 0023     		movs	r3, #0
 1079 0008 FB71     		strb	r3, [r7, #7]
 1080              	.L109:
 432:./Hardware/hardware/menu_data.c **** 	
 433:./Hardware/hardware/menu_data.c **** 	while(1)
 434:./Hardware/hardware/menu_data.c **** 	{
 435:./Hardware/hardware/menu_data.c **** 		sd8804_time_show();
 1081              		.loc 1 435 3
 1082 000a FFF7FEFF 		bl	sd8804_time_show
 436:./Hardware/hardware/menu_data.c **** 		OLED_Update();
 1083              		.loc 1 436 3
 1084 000e FFF7FEFF 		bl	OLED_Update
 437:./Hardware/hardware/menu_data.c **** 		if(Key_back == 0)
 1085              		.loc 1 437 6
 1086 0012 0D4B     		ldr	r3, .L111
 1087 0014 1B68     		ldr	r3, [r3]
 1088              		.loc 1 437 5
 1089 0016 002B     		cmp	r3, #0
 1090 0018 0ED1     		bne	.L105
 438:./Hardware/hardware/menu_data.c **** 		{
 439:./Hardware/hardware/menu_data.c **** 			Delay_ms(10); // 消抖
 1091              		.loc 1 439 4
 1092 001a 0A20     		movs	r0, #10
 1093 001c FFF7FEFF 		bl	Delay_ms
 440:./Hardware/hardware/menu_data.c **** 			back_press_time += 50; // 每次循环递增50ms
 1094              		.loc 1 440 20
ARM GAS  C:\Users\86134\AppData\Local\Temp\ccuTN5uR.s 			page 28


 1095 0020 FB79     		ldrb	r3, [r7, #7]
 1096 0022 3233     		adds	r3, r3, #50
 1097 0024 FB71     		strb	r3, [r7, #7]
 441:./Hardware/hardware/menu_data.c **** 			if(back_press_time >= 100)
 1098              		.loc 1 441 6
 1099 0026 FB79     		ldrb	r3, [r7, #7]	@ zero_extendqisi2
 1100 0028 632B     		cmp	r3, #99
 1101 002a 08D9     		bls	.L110
 442:./Hardware/hardware/menu_data.c **** 			{
 443:./Hardware/hardware/menu_data.c **** 				// 长按200ms，退出函数
 444:./Hardware/hardware/menu_data.c **** 				while(Key_back == 0); // 等待松手
 1102              		.loc 1 444 10
 1103 002c 00BF     		nop
 1104              	.L107:
 1105              		.loc 1 444 11 discriminator 1
 1106 002e 064B     		ldr	r3, .L111
 1107 0030 1B68     		ldr	r3, [r3]
 1108              		.loc 1 444 10 discriminator 1
 1109 0032 002B     		cmp	r3, #0
 1110 0034 FBD0     		beq	.L107
 445:./Hardware/hardware/menu_data.c **** 				break;
 1111              		.loc 1 445 5
 1112 0036 03E0     		b	.L104
 1113              	.L105:
 446:./Hardware/hardware/menu_data.c **** 			}
 447:./Hardware/hardware/menu_data.c **** 			return;
 448:./Hardware/hardware/menu_data.c **** 		}
 449:./Hardware/hardware/menu_data.c **** 		else
 450:./Hardware/hardware/menu_data.c **** 		{
 451:./Hardware/hardware/menu_data.c **** 			back_press_time = 0; // 重置计时器
 1114              		.loc 1 451 20
 1115 0038 0023     		movs	r3, #0
 1116 003a FB71     		strb	r3, [r7, #7]
 435:./Hardware/hardware/menu_data.c **** 		OLED_Update();
 1117              		.loc 1 435 3
 1118 003c E5E7     		b	.L109
 1119              	.L110:
 447:./Hardware/hardware/menu_data.c **** 		}
 1120              		.loc 1 447 4
 1121 003e 00BF     		nop
 1122              	.L104:
 452:./Hardware/hardware/menu_data.c **** 		}
 453:./Hardware/hardware/menu_data.c **** 	}
 454:./Hardware/hardware/menu_data.c **** }
 1123              		.loc 1 454 1
 1124 0040 0837     		adds	r7, r7, #8
 1125              	.LCFI48:
 1126              		.cfi_def_cfa_offset 8
 1127 0042 BD46     		mov	sp, r7
 1128              	.LCFI49:
 1129              		.cfi_def_cfa_register 13
 1130              		@ sp needed
 1131 0044 80BD     		pop	{r7, pc}
 1132              	.L112:
 1133 0046 00BF     		.align	2
 1134              	.L111:
 1135 0048 34812142 		.word	1109492020
ARM GAS  C:\Users\86134\AppData\Local\Temp\ccuTN5uR.s 			page 29


 1136              		.cfi_endproc
 1137              	.LFE41:
 1139              		.section	.text.SD8804_and_std,"ax",%progbits
 1140              		.align	1
 1141              		.global	SD8804_and_std
 1142              		.syntax unified
 1143              		.thumb
 1144              		.thumb_func
 1145              		.fpu softvfp
 1147              	SD8804_and_std:
 1148              	.LFB42:
 455:./Hardware/hardware/menu_data.c **** 
 456:./Hardware/hardware/menu_data.c **** void SD8804_and_std(void)
 457:./Hardware/hardware/menu_data.c **** {
 1149              		.loc 1 457 1
 1150              		.cfi_startproc
 1151              		@ args = 0, pretend = 0, frame = 8
 1152              		@ frame_needed = 1, uses_anonymous_args = 0
 1153 0000 80B5     		push	{r7, lr}
 1154              	.LCFI50:
 1155              		.cfi_def_cfa_offset 8
 1156              		.cfi_offset 7, -8
 1157              		.cfi_offset 14, -4
 1158 0002 82B0     		sub	sp, sp, #8
 1159              	.LCFI51:
 1160              		.cfi_def_cfa_offset 16
 1161 0004 00AF     		add	r7, sp, #0
 1162              	.LCFI52:
 1163              		.cfi_def_cfa_register 7
 458:./Hardware/hardware/menu_data.c **** 	uint8_t back_press_time = 0;
 1164              		.loc 1 458 10
 1165 0006 0023     		movs	r3, #0
 1166 0008 FB71     		strb	r3, [r7, #7]
 459:./Hardware/hardware/menu_data.c **** 	uint8_t enter_press_time = 0;
 1167              		.loc 1 459 10
 1168 000a 0023     		movs	r3, #0
 1169 000c BB71     		strb	r3, [r7, #6]
 1170              	.L122:
 460:./Hardware/hardware/menu_data.c **** 	
 461:./Hardware/hardware/menu_data.c **** 	while(1)
 462:./Hardware/hardware/menu_data.c **** 	{
 463:./Hardware/hardware/menu_data.c **** 		sd8804_and_std();
 1171              		.loc 1 463 3
 1172 000e FFF7FEFF 		bl	sd8804_and_std
 464:./Hardware/hardware/menu_data.c **** 		OLED_Update();
 1173              		.loc 1 464 3
 1174 0012 FFF7FEFF 		bl	OLED_Update
 465:./Hardware/hardware/menu_data.c **** 		
 466:./Hardware/hardware/menu_data.c **** 		if(Key_back == 0)
 1175              		.loc 1 466 6
 1176 0016 194B     		ldr	r3, .L124
 1177 0018 1B68     		ldr	r3, [r3]
 1178              		.loc 1 466 5
 1179 001a 002B     		cmp	r3, #0
 1180 001c 0ED1     		bne	.L114
 467:./Hardware/hardware/menu_data.c **** 		{
 468:./Hardware/hardware/menu_data.c **** 			Delay_ms(10); // 消抖
ARM GAS  C:\Users\86134\AppData\Local\Temp\ccuTN5uR.s 			page 30


 1181              		.loc 1 468 4
 1182 001e 0A20     		movs	r0, #10
 1183 0020 FFF7FEFF 		bl	Delay_ms
 469:./Hardware/hardware/menu_data.c **** 			back_press_time += 50; // 每次循环递增50ms
 1184              		.loc 1 469 20
 1185 0024 FB79     		ldrb	r3, [r7, #7]
 1186 0026 3233     		adds	r3, r3, #50
 1187 0028 FB71     		strb	r3, [r7, #7]
 470:./Hardware/hardware/menu_data.c **** 			if(back_press_time >= 100)
 1188              		.loc 1 470 6
 1189 002a FB79     		ldrb	r3, [r7, #7]	@ zero_extendqisi2
 1190 002c 632B     		cmp	r3, #99
 1191 002e 21D9     		bls	.L123
 471:./Hardware/hardware/menu_data.c **** 			{
 472:./Hardware/hardware/menu_data.c **** 				// 长按200ms，退出函数
 473:./Hardware/hardware/menu_data.c **** 				while(Key_back == 0); // 等待松手
 1192              		.loc 1 473 10
 1193 0030 00BF     		nop
 1194              	.L116:
 1195              		.loc 1 473 11 discriminator 1
 1196 0032 124B     		ldr	r3, .L124
 1197 0034 1B68     		ldr	r3, [r3]
 1198              		.loc 1 473 10 discriminator 1
 1199 0036 002B     		cmp	r3, #0
 1200 0038 FBD0     		beq	.L116
 474:./Hardware/hardware/menu_data.c **** 				break;
 1201              		.loc 1 474 5
 1202 003a 1CE0     		b	.L113
 1203              	.L114:
 475:./Hardware/hardware/menu_data.c **** 			}
 476:./Hardware/hardware/menu_data.c **** 			return;
 477:./Hardware/hardware/menu_data.c **** 		}
 478:./Hardware/hardware/menu_data.c **** 		else
 479:./Hardware/hardware/menu_data.c **** 		{
 480:./Hardware/hardware/menu_data.c **** 			back_press_time = 0; // 重置计时器
 1204              		.loc 1 480 20
 1205 003c 0023     		movs	r3, #0
 1206 003e FB71     		strb	r3, [r7, #7]
 481:./Hardware/hardware/menu_data.c **** 		}
 482:./Hardware/hardware/menu_data.c **** 		
 483:./Hardware/hardware/menu_data.c **** 		if(Key_up == 0)
 1207              		.loc 1 483 6
 1208 0040 0F4B     		ldr	r3, .L124+4
 1209 0042 1B68     		ldr	r3, [r3]
 1210              		.loc 1 483 5
 1211 0044 002B     		cmp	r3, #0
 1212 0046 12D1     		bne	.L118
 484:./Hardware/hardware/menu_data.c **** 		{
 485:./Hardware/hardware/menu_data.c **** 			Delay_ms(10); // 消抖
 1213              		.loc 1 485 4
 1214 0048 0A20     		movs	r0, #10
 1215 004a FFF7FEFF 		bl	Delay_ms
 486:./Hardware/hardware/menu_data.c **** 			enter_press_time += 50; // 每次循环递增50ms
 1216              		.loc 1 486 21
 1217 004e BB79     		ldrb	r3, [r7, #6]
 1218 0050 3233     		adds	r3, r3, #50
 1219 0052 BB71     		strb	r3, [r7, #6]
ARM GAS  C:\Users\86134\AppData\Local\Temp\ccuTN5uR.s 			page 31


 487:./Hardware/hardware/menu_data.c **** 			if(enter_press_time >= 100)
 1220              		.loc 1 487 6
 1221 0054 BB79     		ldrb	r3, [r7, #6]	@ zero_extendqisi2
 1222 0056 632B     		cmp	r3, #99
 1223 0058 D9D9     		bls	.L122
 488:./Hardware/hardware/menu_data.c **** 			{
 489:./Hardware/hardware/menu_data.c **** 				// 长按200ms，退出函数
 490:./Hardware/hardware/menu_data.c **** 				while(Key_up == 0) // 等待松手
 1224              		.loc 1 490 10
 1225 005a 03E0     		b	.L120
 1226              	.L121:
 491:./Hardware/hardware/menu_data.c **** 				{
 492:./Hardware/hardware/menu_data.c **** 					sd8804_time_copy();
 1227              		.loc 1 492 6
 1228 005c FFF7FEFF 		bl	sd8804_time_copy
 493:./Hardware/hardware/menu_data.c **** 					OLED_Update();
 1229              		.loc 1 493 6
 1230 0060 FFF7FEFF 		bl	OLED_Update
 1231              	.L120:
 490:./Hardware/hardware/menu_data.c **** 				{
 1232              		.loc 1 490 11
 1233 0064 064B     		ldr	r3, .L124+4
 1234 0066 1B68     		ldr	r3, [r3]
 490:./Hardware/hardware/menu_data.c **** 				{
 1235              		.loc 1 490 10
 1236 0068 002B     		cmp	r3, #0
 1237 006a F7D0     		beq	.L121
 1238 006c CFE7     		b	.L122
 1239              	.L118:
 494:./Hardware/hardware/menu_data.c **** 				}
 495:./Hardware/hardware/menu_data.c **** 			} 
 496:./Hardware/hardware/menu_data.c **** 		}
 497:./Hardware/hardware/menu_data.c **** 		else
 498:./Hardware/hardware/menu_data.c **** 		{
 499:./Hardware/hardware/menu_data.c **** 			enter_press_time = 0; // 重置计时器
 1240              		.loc 1 499 21
 1241 006e 0023     		movs	r3, #0
 1242 0070 BB71     		strb	r3, [r7, #6]
 463:./Hardware/hardware/menu_data.c **** 		OLED_Update();
 1243              		.loc 1 463 3
 1244 0072 CCE7     		b	.L122
 1245              	.L123:
 476:./Hardware/hardware/menu_data.c **** 		}
 1246              		.loc 1 476 4
 1247 0074 00BF     		nop
 1248              	.L113:
 500:./Hardware/hardware/menu_data.c **** 		}
 501:./Hardware/hardware/menu_data.c **** 
 502:./Hardware/hardware/menu_data.c **** 	}
 503:./Hardware/hardware/menu_data.c **** }
 1249              		.loc 1 503 1
 1250 0076 0837     		adds	r7, r7, #8
 1251              	.LCFI53:
 1252              		.cfi_def_cfa_offset 8
 1253 0078 BD46     		mov	sp, r7
 1254              	.LCFI54:
 1255              		.cfi_def_cfa_register 13
ARM GAS  C:\Users\86134\AppData\Local\Temp\ccuTN5uR.s 			page 32


 1256              		@ sp needed
 1257 007a 80BD     		pop	{r7, pc}
 1258              	.L125:
 1259              		.align	2
 1260              	.L124:
 1261 007c 34812142 		.word	1109492020
 1262 0080 30812142 		.word	1109492016
 1263              		.cfi_endproc
 1264              	.LFE42:
 1266              		.section	.text.SD8810_Series,"ax",%progbits
 1267              		.align	1
 1268              		.global	SD8810_Series
 1269              		.syntax unified
 1270              		.thumb
 1271              		.thumb_func
 1272              		.fpu softvfp
 1274              	SD8810_Series:
 1275              	.LFB43:
 504:./Hardware/hardware/menu_data.c **** 
 505:./Hardware/hardware/menu_data.c **** void SD8810_Series(void)
 506:./Hardware/hardware/menu_data.c **** {
 1276              		.loc 1 506 1
 1277              		.cfi_startproc
 1278              		@ args = 0, pretend = 0, frame = 8
 1279              		@ frame_needed = 1, uses_anonymous_args = 0
 1280 0000 80B5     		push	{r7, lr}
 1281              	.LCFI55:
 1282              		.cfi_def_cfa_offset 8
 1283              		.cfi_offset 7, -8
 1284              		.cfi_offset 14, -4
 1285 0002 82B0     		sub	sp, sp, #8
 1286              	.LCFI56:
 1287              		.cfi_def_cfa_offset 16
 1288 0004 00AF     		add	r7, sp, #0
 1289              	.LCFI57:
 1290              		.cfi_def_cfa_register 7
 507:./Hardware/hardware/menu_data.c **** 	uint8_t back_press_time = 0;
 1291              		.loc 1 507 10
 1292 0006 0023     		movs	r3, #0
 1293 0008 FB71     		strb	r3, [r7, #7]
 1294              	.L131:
 508:./Hardware/hardware/menu_data.c **** 	
 509:./Hardware/hardware/menu_data.c **** 	while(1)
 510:./Hardware/hardware/menu_data.c **** 	{
 511:./Hardware/hardware/menu_data.c **** 		sd8810_time_show();
 1295              		.loc 1 511 3
 1296 000a FFF7FEFF 		bl	sd8810_time_show
 512:./Hardware/hardware/menu_data.c **** 		OLED_Update();
 1297              		.loc 1 512 3
 1298 000e FFF7FEFF 		bl	OLED_Update
 513:./Hardware/hardware/menu_data.c **** 		if(Key_back == 0)
 1299              		.loc 1 513 6
 1300 0012 0D4B     		ldr	r3, .L133
 1301 0014 1B68     		ldr	r3, [r3]
 1302              		.loc 1 513 5
 1303 0016 002B     		cmp	r3, #0
 1304 0018 0ED1     		bne	.L127
ARM GAS  C:\Users\86134\AppData\Local\Temp\ccuTN5uR.s 			page 33


 514:./Hardware/hardware/menu_data.c **** 		{
 515:./Hardware/hardware/menu_data.c **** 			Delay_ms(10); // 消抖
 1305              		.loc 1 515 4
 1306 001a 0A20     		movs	r0, #10
 1307 001c FFF7FEFF 		bl	Delay_ms
 516:./Hardware/hardware/menu_data.c **** 			back_press_time += 50; // 每次循环递增50ms
 1308              		.loc 1 516 20
 1309 0020 FB79     		ldrb	r3, [r7, #7]
 1310 0022 3233     		adds	r3, r3, #50
 1311 0024 FB71     		strb	r3, [r7, #7]
 517:./Hardware/hardware/menu_data.c **** 			if(back_press_time >= 100)
 1312              		.loc 1 517 6
 1313 0026 FB79     		ldrb	r3, [r7, #7]	@ zero_extendqisi2
 1314 0028 632B     		cmp	r3, #99
 1315 002a 08D9     		bls	.L132
 518:./Hardware/hardware/menu_data.c **** 			{
 519:./Hardware/hardware/menu_data.c **** 				// 长按200ms，退出函数
 520:./Hardware/hardware/menu_data.c **** 				while(Key_back == 0); // 等待松手
 1316              		.loc 1 520 10
 1317 002c 00BF     		nop
 1318              	.L129:
 1319              		.loc 1 520 11 discriminator 1
 1320 002e 064B     		ldr	r3, .L133
 1321 0030 1B68     		ldr	r3, [r3]
 1322              		.loc 1 520 10 discriminator 1
 1323 0032 002B     		cmp	r3, #0
 1324 0034 FBD0     		beq	.L129
 521:./Hardware/hardware/menu_data.c **** 				break;
 1325              		.loc 1 521 5
 1326 0036 03E0     		b	.L126
 1327              	.L127:
 522:./Hardware/hardware/menu_data.c **** 			}
 523:./Hardware/hardware/menu_data.c **** 			return;
 524:./Hardware/hardware/menu_data.c **** 		}
 525:./Hardware/hardware/menu_data.c **** 		else
 526:./Hardware/hardware/menu_data.c **** 		{
 527:./Hardware/hardware/menu_data.c **** 			back_press_time = 0; // 重置计时器
 1328              		.loc 1 527 20
 1329 0038 0023     		movs	r3, #0
 1330 003a FB71     		strb	r3, [r7, #7]
 511:./Hardware/hardware/menu_data.c **** 		OLED_Update();
 1331              		.loc 1 511 3
 1332 003c E5E7     		b	.L131
 1333              	.L132:
 523:./Hardware/hardware/menu_data.c **** 		}
 1334              		.loc 1 523 4
 1335 003e 00BF     		nop
 1336              	.L126:
 528:./Hardware/hardware/menu_data.c **** 		}
 529:./Hardware/hardware/menu_data.c **** 	}
 530:./Hardware/hardware/menu_data.c **** }
 1337              		.loc 1 530 1
 1338 0040 0837     		adds	r7, r7, #8
 1339              	.LCFI58:
 1340              		.cfi_def_cfa_offset 8
 1341 0042 BD46     		mov	sp, r7
 1342              	.LCFI59:
ARM GAS  C:\Users\86134\AppData\Local\Temp\ccuTN5uR.s 			page 34


 1343              		.cfi_def_cfa_register 13
 1344              		@ sp needed
 1345 0044 80BD     		pop	{r7, pc}
 1346              	.L134:
 1347 0046 00BF     		.align	2
 1348              	.L133:
 1349 0048 34812142 		.word	1109492020
 1350              		.cfi_endproc
 1351              	.LFE43:
 1353              		.section	.text.SD8810_and_std,"ax",%progbits
 1354              		.align	1
 1355              		.global	SD8810_and_std
 1356              		.syntax unified
 1357              		.thumb
 1358              		.thumb_func
 1359              		.fpu softvfp
 1361              	SD8810_and_std:
 1362              	.LFB44:
 531:./Hardware/hardware/menu_data.c **** 
 532:./Hardware/hardware/menu_data.c **** void SD8810_and_std(void)
 533:./Hardware/hardware/menu_data.c **** {
 1363              		.loc 1 533 1
 1364              		.cfi_startproc
 1365              		@ args = 0, pretend = 0, frame = 8
 1366              		@ frame_needed = 1, uses_anonymous_args = 0
 1367 0000 80B5     		push	{r7, lr}
 1368              	.LCFI60:
 1369              		.cfi_def_cfa_offset 8
 1370              		.cfi_offset 7, -8
 1371              		.cfi_offset 14, -4
 1372 0002 82B0     		sub	sp, sp, #8
 1373              	.LCFI61:
 1374              		.cfi_def_cfa_offset 16
 1375 0004 00AF     		add	r7, sp, #0
 1376              	.LCFI62:
 1377              		.cfi_def_cfa_register 7
 534:./Hardware/hardware/menu_data.c **** 	uint8_t back_press_time = 0;
 1378              		.loc 1 534 10
 1379 0006 0023     		movs	r3, #0
 1380 0008 FB71     		strb	r3, [r7, #7]
 535:./Hardware/hardware/menu_data.c **** 	uint8_t enter_press_time = 0;
 1381              		.loc 1 535 10
 1382 000a 0023     		movs	r3, #0
 1383 000c BB71     		strb	r3, [r7, #6]
 1384              	.L144:
 536:./Hardware/hardware/menu_data.c **** 	
 537:./Hardware/hardware/menu_data.c **** 	while(1)
 538:./Hardware/hardware/menu_data.c **** 	{
 539:./Hardware/hardware/menu_data.c **** 		sd8810_and_std();
 1385              		.loc 1 539 3
 1386 000e FFF7FEFF 		bl	sd8810_and_std
 540:./Hardware/hardware/menu_data.c **** 		OLED_Update();
 1387              		.loc 1 540 3
 1388 0012 FFF7FEFF 		bl	OLED_Update
 541:./Hardware/hardware/menu_data.c **** 		
 542:./Hardware/hardware/menu_data.c **** 		if(Key_back == 0)
 1389              		.loc 1 542 6
ARM GAS  C:\Users\86134\AppData\Local\Temp\ccuTN5uR.s 			page 35


 1390 0016 194B     		ldr	r3, .L146
 1391 0018 1B68     		ldr	r3, [r3]
 1392              		.loc 1 542 5
 1393 001a 002B     		cmp	r3, #0
 1394 001c 0ED1     		bne	.L136
 543:./Hardware/hardware/menu_data.c **** 		{
 544:./Hardware/hardware/menu_data.c **** 			Delay_ms(10); // 消抖
 1395              		.loc 1 544 4
 1396 001e 0A20     		movs	r0, #10
 1397 0020 FFF7FEFF 		bl	Delay_ms
 545:./Hardware/hardware/menu_data.c **** 			back_press_time += 50; // 每次循环递增50ms
 1398              		.loc 1 545 20
 1399 0024 FB79     		ldrb	r3, [r7, #7]
 1400 0026 3233     		adds	r3, r3, #50
 1401 0028 FB71     		strb	r3, [r7, #7]
 546:./Hardware/hardware/menu_data.c **** 			if(back_press_time >= 100)
 1402              		.loc 1 546 6
 1403 002a FB79     		ldrb	r3, [r7, #7]	@ zero_extendqisi2
 1404 002c 632B     		cmp	r3, #99
 1405 002e 21D9     		bls	.L145
 547:./Hardware/hardware/menu_data.c **** 			{
 548:./Hardware/hardware/menu_data.c **** 				// 长按200ms，退出函数
 549:./Hardware/hardware/menu_data.c **** 				while(Key_back == 0); // 等待松手
 1406              		.loc 1 549 10
 1407 0030 00BF     		nop
 1408              	.L138:
 1409              		.loc 1 549 11 discriminator 1
 1410 0032 124B     		ldr	r3, .L146
 1411 0034 1B68     		ldr	r3, [r3]
 1412              		.loc 1 549 10 discriminator 1
 1413 0036 002B     		cmp	r3, #0
 1414 0038 FBD0     		beq	.L138
 550:./Hardware/hardware/menu_data.c **** 				break;
 1415              		.loc 1 550 5
 1416 003a 1CE0     		b	.L135
 1417              	.L136:
 551:./Hardware/hardware/menu_data.c **** 			}
 552:./Hardware/hardware/menu_data.c **** 			return;
 553:./Hardware/hardware/menu_data.c **** 		}
 554:./Hardware/hardware/menu_data.c **** 		else
 555:./Hardware/hardware/menu_data.c **** 		{
 556:./Hardware/hardware/menu_data.c **** 			back_press_time = 0; // 重置计时器
 1418              		.loc 1 556 20
 1419 003c 0023     		movs	r3, #0
 1420 003e FB71     		strb	r3, [r7, #7]
 557:./Hardware/hardware/menu_data.c **** 		}
 558:./Hardware/hardware/menu_data.c **** 		
 559:./Hardware/hardware/menu_data.c **** 		if(Key_up == 0)
 1421              		.loc 1 559 6
 1422 0040 0F4B     		ldr	r3, .L146+4
 1423 0042 1B68     		ldr	r3, [r3]
 1424              		.loc 1 559 5
 1425 0044 002B     		cmp	r3, #0
 1426 0046 12D1     		bne	.L140
 560:./Hardware/hardware/menu_data.c **** 		{
 561:./Hardware/hardware/menu_data.c **** 			Delay_ms(10); // 消抖
 1427              		.loc 1 561 4
ARM GAS  C:\Users\86134\AppData\Local\Temp\ccuTN5uR.s 			page 36


 1428 0048 0A20     		movs	r0, #10
 1429 004a FFF7FEFF 		bl	Delay_ms
 562:./Hardware/hardware/menu_data.c **** 			enter_press_time += 50; // 每次循环递增50ms
 1430              		.loc 1 562 21
 1431 004e BB79     		ldrb	r3, [r7, #6]
 1432 0050 3233     		adds	r3, r3, #50
 1433 0052 BB71     		strb	r3, [r7, #6]
 563:./Hardware/hardware/menu_data.c **** 			if(enter_press_time >= 100)
 1434              		.loc 1 563 6
 1435 0054 BB79     		ldrb	r3, [r7, #6]	@ zero_extendqisi2
 1436 0056 632B     		cmp	r3, #99
 1437 0058 D9D9     		bls	.L144
 564:./Hardware/hardware/menu_data.c **** 			{
 565:./Hardware/hardware/menu_data.c **** 				// 长按200ms，退出函数
 566:./Hardware/hardware/menu_data.c **** 				while(Key_up == 0) // 等待松手
 1438              		.loc 1 566 10
 1439 005a 03E0     		b	.L142
 1440              	.L143:
 567:./Hardware/hardware/menu_data.c **** 				{
 568:./Hardware/hardware/menu_data.c **** 					sd8810_time_copy();
 1441              		.loc 1 568 6
 1442 005c FFF7FEFF 		bl	sd8810_time_copy
 569:./Hardware/hardware/menu_data.c **** 					OLED_Update();
 1443              		.loc 1 569 6
 1444 0060 FFF7FEFF 		bl	OLED_Update
 1445              	.L142:
 566:./Hardware/hardware/menu_data.c **** 				{
 1446              		.loc 1 566 11
 1447 0064 064B     		ldr	r3, .L146+4
 1448 0066 1B68     		ldr	r3, [r3]
 566:./Hardware/hardware/menu_data.c **** 				{
 1449              		.loc 1 566 10
 1450 0068 002B     		cmp	r3, #0
 1451 006a F7D0     		beq	.L143
 1452 006c CFE7     		b	.L144
 1453              	.L140:
 570:./Hardware/hardware/menu_data.c **** 				}
 571:./Hardware/hardware/menu_data.c **** 			} 
 572:./Hardware/hardware/menu_data.c **** 		}
 573:./Hardware/hardware/menu_data.c **** 		else
 574:./Hardware/hardware/menu_data.c **** 		{
 575:./Hardware/hardware/menu_data.c **** 			enter_press_time = 0; // 重置计时器
 1454              		.loc 1 575 21
 1455 006e 0023     		movs	r3, #0
 1456 0070 BB71     		strb	r3, [r7, #6]
 539:./Hardware/hardware/menu_data.c **** 		OLED_Update();
 1457              		.loc 1 539 3
 1458 0072 CCE7     		b	.L144
 1459              	.L145:
 552:./Hardware/hardware/menu_data.c **** 		}
 1460              		.loc 1 552 4
 1461 0074 00BF     		nop
 1462              	.L135:
 576:./Hardware/hardware/menu_data.c **** 		}
 577:./Hardware/hardware/menu_data.c **** 
 578:./Hardware/hardware/menu_data.c **** 	}
 579:./Hardware/hardware/menu_data.c **** }
ARM GAS  C:\Users\86134\AppData\Local\Temp\ccuTN5uR.s 			page 37


 1463              		.loc 1 579 1
 1464 0076 0837     		adds	r7, r7, #8
 1465              	.LCFI63:
 1466              		.cfi_def_cfa_offset 8
 1467 0078 BD46     		mov	sp, r7
 1468              	.LCFI64:
 1469              		.cfi_def_cfa_register 13
 1470              		@ sp needed
 1471 007a 80BD     		pop	{r7, pc}
 1472              	.L147:
 1473              		.align	2
 1474              	.L146:
 1475 007c 34812142 		.word	1109492020
 1476 0080 30812142 		.word	1109492016
 1477              		.cfi_endproc
 1478              	.LFE44:
 1480              		.section	.text.SD8825_Series,"ax",%progbits
 1481              		.align	1
 1482              		.global	SD8825_Series
 1483              		.syntax unified
 1484              		.thumb
 1485              		.thumb_func
 1486              		.fpu softvfp
 1488              	SD8825_Series:
 1489              	.LFB45:
 580:./Hardware/hardware/menu_data.c **** 
 581:./Hardware/hardware/menu_data.c **** void SD8825_Series(void)
 582:./Hardware/hardware/menu_data.c **** {
 1490              		.loc 1 582 1
 1491              		.cfi_startproc
 1492              		@ args = 0, pretend = 0, frame = 8
 1493              		@ frame_needed = 1, uses_anonymous_args = 0
 1494 0000 80B5     		push	{r7, lr}
 1495              	.LCFI65:
 1496              		.cfi_def_cfa_offset 8
 1497              		.cfi_offset 7, -8
 1498              		.cfi_offset 14, -4
 1499 0002 82B0     		sub	sp, sp, #8
 1500              	.LCFI66:
 1501              		.cfi_def_cfa_offset 16
 1502 0004 00AF     		add	r7, sp, #0
 1503              	.LCFI67:
 1504              		.cfi_def_cfa_register 7
 583:./Hardware/hardware/menu_data.c **** 	uint8_t back_press_time = 0;
 1505              		.loc 1 583 10
 1506 0006 0023     		movs	r3, #0
 1507 0008 FB71     		strb	r3, [r7, #7]
 1508              	.L153:
 584:./Hardware/hardware/menu_data.c **** 	
 585:./Hardware/hardware/menu_data.c **** 	while(1)
 586:./Hardware/hardware/menu_data.c **** 	{
 587:./Hardware/hardware/menu_data.c **** 		sd8825_time_show();
 1509              		.loc 1 587 3
 1510 000a FFF7FEFF 		bl	sd8825_time_show
 588:./Hardware/hardware/menu_data.c **** 		OLED_Update();
 1511              		.loc 1 588 3
 1512 000e FFF7FEFF 		bl	OLED_Update
ARM GAS  C:\Users\86134\AppData\Local\Temp\ccuTN5uR.s 			page 38


 589:./Hardware/hardware/menu_data.c **** 		if(Key_back == 0)
 1513              		.loc 1 589 6
 1514 0012 0D4B     		ldr	r3, .L155
 1515 0014 1B68     		ldr	r3, [r3]
 1516              		.loc 1 589 5
 1517 0016 002B     		cmp	r3, #0
 1518 0018 0ED1     		bne	.L149
 590:./Hardware/hardware/menu_data.c **** 		{
 591:./Hardware/hardware/menu_data.c **** 			Delay_ms(10); // 消抖
 1519              		.loc 1 591 4
 1520 001a 0A20     		movs	r0, #10
 1521 001c FFF7FEFF 		bl	Delay_ms
 592:./Hardware/hardware/menu_data.c **** 			back_press_time += 50; // 每次循环递增50ms
 1522              		.loc 1 592 20
 1523 0020 FB79     		ldrb	r3, [r7, #7]
 1524 0022 3233     		adds	r3, r3, #50
 1525 0024 FB71     		strb	r3, [r7, #7]
 593:./Hardware/hardware/menu_data.c **** 			if(back_press_time >= 100)
 1526              		.loc 1 593 6
 1527 0026 FB79     		ldrb	r3, [r7, #7]	@ zero_extendqisi2
 1528 0028 632B     		cmp	r3, #99
 1529 002a 08D9     		bls	.L154
 594:./Hardware/hardware/menu_data.c **** 			{
 595:./Hardware/hardware/menu_data.c **** 				// 长按200ms，退出函数
 596:./Hardware/hardware/menu_data.c **** 				while(Key_back == 0); // 等待松手
 1530              		.loc 1 596 10
 1531 002c 00BF     		nop
 1532              	.L151:
 1533              		.loc 1 596 11 discriminator 1
 1534 002e 064B     		ldr	r3, .L155
 1535 0030 1B68     		ldr	r3, [r3]
 1536              		.loc 1 596 10 discriminator 1
 1537 0032 002B     		cmp	r3, #0
 1538 0034 FBD0     		beq	.L151
 597:./Hardware/hardware/menu_data.c **** 				break;
 1539              		.loc 1 597 5
 1540 0036 03E0     		b	.L148
 1541              	.L149:
 598:./Hardware/hardware/menu_data.c **** 			}
 599:./Hardware/hardware/menu_data.c **** 			return;
 600:./Hardware/hardware/menu_data.c **** 		}
 601:./Hardware/hardware/menu_data.c **** 		else
 602:./Hardware/hardware/menu_data.c **** 		{
 603:./Hardware/hardware/menu_data.c **** 			back_press_time = 0; // 重置计时器
 1542              		.loc 1 603 20
 1543 0038 0023     		movs	r3, #0
 1544 003a FB71     		strb	r3, [r7, #7]
 587:./Hardware/hardware/menu_data.c **** 		OLED_Update();
 1545              		.loc 1 587 3
 1546 003c E5E7     		b	.L153
 1547              	.L154:
 599:./Hardware/hardware/menu_data.c **** 		}
 1548              		.loc 1 599 4
 1549 003e 00BF     		nop
 1550              	.L148:
 604:./Hardware/hardware/menu_data.c **** 		}
 605:./Hardware/hardware/menu_data.c **** 	}
ARM GAS  C:\Users\86134\AppData\Local\Temp\ccuTN5uR.s 			page 39


 606:./Hardware/hardware/menu_data.c **** }
 1551              		.loc 1 606 1
 1552 0040 0837     		adds	r7, r7, #8
 1553              	.LCFI68:
 1554              		.cfi_def_cfa_offset 8
 1555 0042 BD46     		mov	sp, r7
 1556              	.LCFI69:
 1557              		.cfi_def_cfa_register 13
 1558              		@ sp needed
 1559 0044 80BD     		pop	{r7, pc}
 1560              	.L156:
 1561 0046 00BF     		.align	2
 1562              	.L155:
 1563 0048 34812142 		.word	1109492020
 1564              		.cfi_endproc
 1565              	.LFE45:
 1567              		.section	.text.SD8825_and_std,"ax",%progbits
 1568              		.align	1
 1569              		.global	SD8825_and_std
 1570              		.syntax unified
 1571              		.thumb
 1572              		.thumb_func
 1573              		.fpu softvfp
 1575              	SD8825_and_std:
 1576              	.LFB46:
 607:./Hardware/hardware/menu_data.c **** 
 608:./Hardware/hardware/menu_data.c **** void SD8825_and_std(void)
 609:./Hardware/hardware/menu_data.c **** {
 1577              		.loc 1 609 1
 1578              		.cfi_startproc
 1579              		@ args = 0, pretend = 0, frame = 8
 1580              		@ frame_needed = 1, uses_anonymous_args = 0
 1581 0000 80B5     		push	{r7, lr}
 1582              	.LCFI70:
 1583              		.cfi_def_cfa_offset 8
 1584              		.cfi_offset 7, -8
 1585              		.cfi_offset 14, -4
 1586 0002 82B0     		sub	sp, sp, #8
 1587              	.LCFI71:
 1588              		.cfi_def_cfa_offset 16
 1589 0004 00AF     		add	r7, sp, #0
 1590              	.LCFI72:
 1591              		.cfi_def_cfa_register 7
 610:./Hardware/hardware/menu_data.c **** 	uint8_t back_press_time = 0;
 1592              		.loc 1 610 10
 1593 0006 0023     		movs	r3, #0
 1594 0008 FB71     		strb	r3, [r7, #7]
 611:./Hardware/hardware/menu_data.c **** 	uint8_t enter_press_time = 0;
 1595              		.loc 1 611 10
 1596 000a 0023     		movs	r3, #0
 1597 000c BB71     		strb	r3, [r7, #6]
 1598              	.L166:
 612:./Hardware/hardware/menu_data.c **** 	
 613:./Hardware/hardware/menu_data.c **** 	while(1)
 614:./Hardware/hardware/menu_data.c **** 	{
 615:./Hardware/hardware/menu_data.c **** 		sd8825_and_std();
 1599              		.loc 1 615 3
ARM GAS  C:\Users\86134\AppData\Local\Temp\ccuTN5uR.s 			page 40


 1600 000e FFF7FEFF 		bl	sd8825_and_std
 616:./Hardware/hardware/menu_data.c **** 		OLED_Update();
 1601              		.loc 1 616 3
 1602 0012 FFF7FEFF 		bl	OLED_Update
 617:./Hardware/hardware/menu_data.c **** 		
 618:./Hardware/hardware/menu_data.c **** 		if(Key_back == 0)
 1603              		.loc 1 618 6
 1604 0016 194B     		ldr	r3, .L168
 1605 0018 1B68     		ldr	r3, [r3]
 1606              		.loc 1 618 5
 1607 001a 002B     		cmp	r3, #0
 1608 001c 0ED1     		bne	.L158
 619:./Hardware/hardware/menu_data.c **** 		{
 620:./Hardware/hardware/menu_data.c **** 			Delay_ms(10); // 消抖
 1609              		.loc 1 620 4
 1610 001e 0A20     		movs	r0, #10
 1611 0020 FFF7FEFF 		bl	Delay_ms
 621:./Hardware/hardware/menu_data.c **** 			back_press_time += 50; // 每次循环递增50ms
 1612              		.loc 1 621 20
 1613 0024 FB79     		ldrb	r3, [r7, #7]
 1614 0026 3233     		adds	r3, r3, #50
 1615 0028 FB71     		strb	r3, [r7, #7]
 622:./Hardware/hardware/menu_data.c **** 			if(back_press_time >= 100)
 1616              		.loc 1 622 6
 1617 002a FB79     		ldrb	r3, [r7, #7]	@ zero_extendqisi2
 1618 002c 632B     		cmp	r3, #99
 1619 002e 21D9     		bls	.L167
 623:./Hardware/hardware/menu_data.c **** 			{
 624:./Hardware/hardware/menu_data.c **** 				// 长按200ms，退出函数
 625:./Hardware/hardware/menu_data.c **** 				while(Key_back == 0); // 等待松手
 1620              		.loc 1 625 10
 1621 0030 00BF     		nop
 1622              	.L160:
 1623              		.loc 1 625 11 discriminator 1
 1624 0032 124B     		ldr	r3, .L168
 1625 0034 1B68     		ldr	r3, [r3]
 1626              		.loc 1 625 10 discriminator 1
 1627 0036 002B     		cmp	r3, #0
 1628 0038 FBD0     		beq	.L160
 626:./Hardware/hardware/menu_data.c **** 				break;
 1629              		.loc 1 626 5
 1630 003a 1CE0     		b	.L157
 1631              	.L158:
 627:./Hardware/hardware/menu_data.c **** 			}
 628:./Hardware/hardware/menu_data.c **** 			return;
 629:./Hardware/hardware/menu_data.c **** 		}
 630:./Hardware/hardware/menu_data.c **** 		else
 631:./Hardware/hardware/menu_data.c **** 		{
 632:./Hardware/hardware/menu_data.c **** 			back_press_time = 0; // 重置计时器
 1632              		.loc 1 632 20
 1633 003c 0023     		movs	r3, #0
 1634 003e FB71     		strb	r3, [r7, #7]
 633:./Hardware/hardware/menu_data.c **** 		}
 634:./Hardware/hardware/menu_data.c **** 		
 635:./Hardware/hardware/menu_data.c **** 		if(Key_up == 0)
 1635              		.loc 1 635 6
 1636 0040 0F4B     		ldr	r3, .L168+4
ARM GAS  C:\Users\86134\AppData\Local\Temp\ccuTN5uR.s 			page 41


 1637 0042 1B68     		ldr	r3, [r3]
 1638              		.loc 1 635 5
 1639 0044 002B     		cmp	r3, #0
 1640 0046 12D1     		bne	.L162
 636:./Hardware/hardware/menu_data.c **** 		{
 637:./Hardware/hardware/menu_data.c **** 			Delay_ms(10); // 消抖
 1641              		.loc 1 637 4
 1642 0048 0A20     		movs	r0, #10
 1643 004a FFF7FEFF 		bl	Delay_ms
 638:./Hardware/hardware/menu_data.c **** 			enter_press_time += 50; // 每次循环递增50ms
 1644              		.loc 1 638 21
 1645 004e BB79     		ldrb	r3, [r7, #6]
 1646 0050 3233     		adds	r3, r3, #50
 1647 0052 BB71     		strb	r3, [r7, #6]
 639:./Hardware/hardware/menu_data.c **** 			if(enter_press_time >= 100)
 1648              		.loc 1 639 6
 1649 0054 BB79     		ldrb	r3, [r7, #6]	@ zero_extendqisi2
 1650 0056 632B     		cmp	r3, #99
 1651 0058 D9D9     		bls	.L166
 640:./Hardware/hardware/menu_data.c **** 			{
 641:./Hardware/hardware/menu_data.c **** 				// 长按200ms，退出函数
 642:./Hardware/hardware/menu_data.c **** 				while(Key_up == 0) // 等待松手
 1652              		.loc 1 642 10
 1653 005a 03E0     		b	.L164
 1654              	.L165:
 643:./Hardware/hardware/menu_data.c **** 				{
 644:./Hardware/hardware/menu_data.c **** 					sd8825_time_copy();
 1655              		.loc 1 644 6
 1656 005c FFF7FEFF 		bl	sd8825_time_copy
 645:./Hardware/hardware/menu_data.c **** 					OLED_Update();
 1657              		.loc 1 645 6
 1658 0060 FFF7FEFF 		bl	OLED_Update
 1659              	.L164:
 642:./Hardware/hardware/menu_data.c **** 				{
 1660              		.loc 1 642 11
 1661 0064 064B     		ldr	r3, .L168+4
 1662 0066 1B68     		ldr	r3, [r3]
 642:./Hardware/hardware/menu_data.c **** 				{
 1663              		.loc 1 642 10
 1664 0068 002B     		cmp	r3, #0
 1665 006a F7D0     		beq	.L165
 1666 006c CFE7     		b	.L166
 1667              	.L162:
 646:./Hardware/hardware/menu_data.c **** 				}
 647:./Hardware/hardware/menu_data.c **** 			} 
 648:./Hardware/hardware/menu_data.c **** 		}
 649:./Hardware/hardware/menu_data.c **** 		else
 650:./Hardware/hardware/menu_data.c **** 		{
 651:./Hardware/hardware/menu_data.c **** 			enter_press_time = 0; // 重置计时器
 1668              		.loc 1 651 21
 1669 006e 0023     		movs	r3, #0
 1670 0070 BB71     		strb	r3, [r7, #6]
 615:./Hardware/hardware/menu_data.c **** 		OLED_Update();
 1671              		.loc 1 615 3
 1672 0072 CCE7     		b	.L166
 1673              	.L167:
 628:./Hardware/hardware/menu_data.c **** 		}
ARM GAS  C:\Users\86134\AppData\Local\Temp\ccuTN5uR.s 			page 42


 1674              		.loc 1 628 4
 1675 0074 00BF     		nop
 1676              	.L157:
 652:./Hardware/hardware/menu_data.c **** 		}
 653:./Hardware/hardware/menu_data.c **** 
 654:./Hardware/hardware/menu_data.c **** 	}
 655:./Hardware/hardware/menu_data.c **** }
 1677              		.loc 1 655 1
 1678 0076 0837     		adds	r7, r7, #8
 1679              	.LCFI73:
 1680              		.cfi_def_cfa_offset 8
 1681 0078 BD46     		mov	sp, r7
 1682              	.LCFI74:
 1683              		.cfi_def_cfa_register 13
 1684              		@ sp needed
 1685 007a 80BD     		pop	{r7, pc}
 1686              	.L169:
 1687              		.align	2
 1688              	.L168:
 1689 007c 34812142 		.word	1109492020
 1690 0080 30812142 		.word	1109492016
 1691              		.cfi_endproc
 1692              	.LFE46:
 1694              		.section	.text.SD8840_Series,"ax",%progbits
 1695              		.align	1
 1696              		.global	SD8840_Series
 1697              		.syntax unified
 1698              		.thumb
 1699              		.thumb_func
 1700              		.fpu softvfp
 1702              	SD8840_Series:
 1703              	.LFB47:
 656:./Hardware/hardware/menu_data.c **** 
 657:./Hardware/hardware/menu_data.c **** void SD8840_Series(void)
 658:./Hardware/hardware/menu_data.c **** {
 1704              		.loc 1 658 1
 1705              		.cfi_startproc
 1706              		@ args = 0, pretend = 0, frame = 8
 1707              		@ frame_needed = 1, uses_anonymous_args = 0
 1708 0000 80B5     		push	{r7, lr}
 1709              	.LCFI75:
 1710              		.cfi_def_cfa_offset 8
 1711              		.cfi_offset 7, -8
 1712              		.cfi_offset 14, -4
 1713 0002 82B0     		sub	sp, sp, #8
 1714              	.LCFI76:
 1715              		.cfi_def_cfa_offset 16
 1716 0004 00AF     		add	r7, sp, #0
 1717              	.LCFI77:
 1718              		.cfi_def_cfa_register 7
 659:./Hardware/hardware/menu_data.c **** 	uint8_t back_press_time = 0;
 1719              		.loc 1 659 10
 1720 0006 0023     		movs	r3, #0
 1721 0008 FB71     		strb	r3, [r7, #7]
 1722              	.L175:
 660:./Hardware/hardware/menu_data.c **** 	
 661:./Hardware/hardware/menu_data.c **** 	while(1)
ARM GAS  C:\Users\86134\AppData\Local\Temp\ccuTN5uR.s 			page 43


 662:./Hardware/hardware/menu_data.c **** 	{
 663:./Hardware/hardware/menu_data.c **** 		sd8840_time_show();
 1723              		.loc 1 663 3
 1724 000a FFF7FEFF 		bl	sd8840_time_show
 664:./Hardware/hardware/menu_data.c **** 		OLED_Update();
 1725              		.loc 1 664 3
 1726 000e FFF7FEFF 		bl	OLED_Update
 665:./Hardware/hardware/menu_data.c **** 		if(Key_back == 0)
 1727              		.loc 1 665 6
 1728 0012 0D4B     		ldr	r3, .L177
 1729 0014 1B68     		ldr	r3, [r3]
 1730              		.loc 1 665 5
 1731 0016 002B     		cmp	r3, #0
 1732 0018 0ED1     		bne	.L171
 666:./Hardware/hardware/menu_data.c **** 		{
 667:./Hardware/hardware/menu_data.c **** 			Delay_ms(10); // 消抖
 1733              		.loc 1 667 4
 1734 001a 0A20     		movs	r0, #10
 1735 001c FFF7FEFF 		bl	Delay_ms
 668:./Hardware/hardware/menu_data.c **** 			back_press_time += 50; // 每次循环递增50ms
 1736              		.loc 1 668 20
 1737 0020 FB79     		ldrb	r3, [r7, #7]
 1738 0022 3233     		adds	r3, r3, #50
 1739 0024 FB71     		strb	r3, [r7, #7]
 669:./Hardware/hardware/menu_data.c **** 			if(back_press_time >= 100)
 1740              		.loc 1 669 6
 1741 0026 FB79     		ldrb	r3, [r7, #7]	@ zero_extendqisi2
 1742 0028 632B     		cmp	r3, #99
 1743 002a 08D9     		bls	.L176
 670:./Hardware/hardware/menu_data.c **** 			{
 671:./Hardware/hardware/menu_data.c **** 				// 长按200ms，退出函数
 672:./Hardware/hardware/menu_data.c **** 				while(Key_back == 0); // 等待松手
 1744              		.loc 1 672 10
 1745 002c 00BF     		nop
 1746              	.L173:
 1747              		.loc 1 672 11 discriminator 1
 1748 002e 064B     		ldr	r3, .L177
 1749 0030 1B68     		ldr	r3, [r3]
 1750              		.loc 1 672 10 discriminator 1
 1751 0032 002B     		cmp	r3, #0
 1752 0034 FBD0     		beq	.L173
 673:./Hardware/hardware/menu_data.c **** 				break;
 1753              		.loc 1 673 5
 1754 0036 03E0     		b	.L170
 1755              	.L171:
 674:./Hardware/hardware/menu_data.c **** 			}
 675:./Hardware/hardware/menu_data.c **** 			return;
 676:./Hardware/hardware/menu_data.c **** 		}
 677:./Hardware/hardware/menu_data.c **** 		else
 678:./Hardware/hardware/menu_data.c **** 		{
 679:./Hardware/hardware/menu_data.c **** 			back_press_time = 0; // 重置计时器
 1756              		.loc 1 679 20
 1757 0038 0023     		movs	r3, #0
 1758 003a FB71     		strb	r3, [r7, #7]
 663:./Hardware/hardware/menu_data.c **** 		OLED_Update();
 1759              		.loc 1 663 3
 1760 003c E5E7     		b	.L175
ARM GAS  C:\Users\86134\AppData\Local\Temp\ccuTN5uR.s 			page 44


 1761              	.L176:
 675:./Hardware/hardware/menu_data.c **** 		}
 1762              		.loc 1 675 4
 1763 003e 00BF     		nop
 1764              	.L170:
 680:./Hardware/hardware/menu_data.c **** 		}
 681:./Hardware/hardware/menu_data.c **** 	}
 682:./Hardware/hardware/menu_data.c **** }
 1765              		.loc 1 682 1
 1766 0040 0837     		adds	r7, r7, #8
 1767              	.LCFI78:
 1768              		.cfi_def_cfa_offset 8
 1769 0042 BD46     		mov	sp, r7
 1770              	.LCFI79:
 1771              		.cfi_def_cfa_register 13
 1772              		@ sp needed
 1773 0044 80BD     		pop	{r7, pc}
 1774              	.L178:
 1775 0046 00BF     		.align	2
 1776              	.L177:
 1777 0048 34812142 		.word	1109492020
 1778              		.cfi_endproc
 1779              	.LFE47:
 1781              		.section	.text.SD8840_and_std,"ax",%progbits
 1782              		.align	1
 1783              		.global	SD8840_and_std
 1784              		.syntax unified
 1785              		.thumb
 1786              		.thumb_func
 1787              		.fpu softvfp
 1789              	SD8840_and_std:
 1790              	.LFB48:
 683:./Hardware/hardware/menu_data.c **** 
 684:./Hardware/hardware/menu_data.c **** void SD8840_and_std(void)
 685:./Hardware/hardware/menu_data.c **** {
 1791              		.loc 1 685 1
 1792              		.cfi_startproc
 1793              		@ args = 0, pretend = 0, frame = 8
 1794              		@ frame_needed = 1, uses_anonymous_args = 0
 1795 0000 80B5     		push	{r7, lr}
 1796              	.LCFI80:
 1797              		.cfi_def_cfa_offset 8
 1798              		.cfi_offset 7, -8
 1799              		.cfi_offset 14, -4
 1800 0002 82B0     		sub	sp, sp, #8
 1801              	.LCFI81:
 1802              		.cfi_def_cfa_offset 16
 1803 0004 00AF     		add	r7, sp, #0
 1804              	.LCFI82:
 1805              		.cfi_def_cfa_register 7
 686:./Hardware/hardware/menu_data.c **** 	uint8_t back_press_time = 0;
 1806              		.loc 1 686 10
 1807 0006 0023     		movs	r3, #0
 1808 0008 FB71     		strb	r3, [r7, #7]
 687:./Hardware/hardware/menu_data.c **** 	uint8_t enter_press_time = 0;
 1809              		.loc 1 687 10
 1810 000a 0023     		movs	r3, #0
ARM GAS  C:\Users\86134\AppData\Local\Temp\ccuTN5uR.s 			page 45


 1811 000c BB71     		strb	r3, [r7, #6]
 1812              	.L188:
 688:./Hardware/hardware/menu_data.c **** 	
 689:./Hardware/hardware/menu_data.c **** 	while(1)
 690:./Hardware/hardware/menu_data.c **** 	{
 691:./Hardware/hardware/menu_data.c **** 		sd8840_and_std();
 1813              		.loc 1 691 3
 1814 000e FFF7FEFF 		bl	sd8840_and_std
 692:./Hardware/hardware/menu_data.c **** 		OLED_Update();
 1815              		.loc 1 692 3
 1816 0012 FFF7FEFF 		bl	OLED_Update
 693:./Hardware/hardware/menu_data.c **** 		
 694:./Hardware/hardware/menu_data.c **** 		if(Key_back == 0)
 1817              		.loc 1 694 6
 1818 0016 194B     		ldr	r3, .L190
 1819 0018 1B68     		ldr	r3, [r3]
 1820              		.loc 1 694 5
 1821 001a 002B     		cmp	r3, #0
 1822 001c 0ED1     		bne	.L180
 695:./Hardware/hardware/menu_data.c **** 		{
 696:./Hardware/hardware/menu_data.c **** 			Delay_ms(10); // 消抖
 1823              		.loc 1 696 4
 1824 001e 0A20     		movs	r0, #10
 1825 0020 FFF7FEFF 		bl	Delay_ms
 697:./Hardware/hardware/menu_data.c **** 			back_press_time += 50; // 每次循环递增50ms
 1826              		.loc 1 697 20
 1827 0024 FB79     		ldrb	r3, [r7, #7]
 1828 0026 3233     		adds	r3, r3, #50
 1829 0028 FB71     		strb	r3, [r7, #7]
 698:./Hardware/hardware/menu_data.c **** 			if(back_press_time >= 100)
 1830              		.loc 1 698 6
 1831 002a FB79     		ldrb	r3, [r7, #7]	@ zero_extendqisi2
 1832 002c 632B     		cmp	r3, #99
 1833 002e 21D9     		bls	.L189
 699:./Hardware/hardware/menu_data.c **** 			{
 700:./Hardware/hardware/menu_data.c **** 				// 长按200ms，退出函数
 701:./Hardware/hardware/menu_data.c **** 				while(Key_back == 0); // 等待松手
 1834              		.loc 1 701 10
 1835 0030 00BF     		nop
 1836              	.L182:
 1837              		.loc 1 701 11 discriminator 1
 1838 0032 124B     		ldr	r3, .L190
 1839 0034 1B68     		ldr	r3, [r3]
 1840              		.loc 1 701 10 discriminator 1
 1841 0036 002B     		cmp	r3, #0
 1842 0038 FBD0     		beq	.L182
 702:./Hardware/hardware/menu_data.c **** 				break;
 1843              		.loc 1 702 5
 1844 003a 1CE0     		b	.L179
 1845              	.L180:
 703:./Hardware/hardware/menu_data.c **** 			}
 704:./Hardware/hardware/menu_data.c **** 			return;
 705:./Hardware/hardware/menu_data.c **** 		}
 706:./Hardware/hardware/menu_data.c **** 		else
 707:./Hardware/hardware/menu_data.c **** 		{
 708:./Hardware/hardware/menu_data.c **** 			back_press_time = 0; // 重置计时器
 1846              		.loc 1 708 20
ARM GAS  C:\Users\86134\AppData\Local\Temp\ccuTN5uR.s 			page 46


 1847 003c 0023     		movs	r3, #0
 1848 003e FB71     		strb	r3, [r7, #7]
 709:./Hardware/hardware/menu_data.c **** 		}
 710:./Hardware/hardware/menu_data.c **** 		
 711:./Hardware/hardware/menu_data.c **** 		if(Key_up == 0)
 1849              		.loc 1 711 6
 1850 0040 0F4B     		ldr	r3, .L190+4
 1851 0042 1B68     		ldr	r3, [r3]
 1852              		.loc 1 711 5
 1853 0044 002B     		cmp	r3, #0
 1854 0046 12D1     		bne	.L184
 712:./Hardware/hardware/menu_data.c **** 		{
 713:./Hardware/hardware/menu_data.c **** 			Delay_ms(10); // 消抖
 1855              		.loc 1 713 4
 1856 0048 0A20     		movs	r0, #10
 1857 004a FFF7FEFF 		bl	Delay_ms
 714:./Hardware/hardware/menu_data.c **** 			enter_press_time += 50; // 每次循环递增50ms
 1858              		.loc 1 714 21
 1859 004e BB79     		ldrb	r3, [r7, #6]
 1860 0050 3233     		adds	r3, r3, #50
 1861 0052 BB71     		strb	r3, [r7, #6]
 715:./Hardware/hardware/menu_data.c **** 			if(enter_press_time >= 100)
 1862              		.loc 1 715 6
 1863 0054 BB79     		ldrb	r3, [r7, #6]	@ zero_extendqisi2
 1864 0056 632B     		cmp	r3, #99
 1865 0058 D9D9     		bls	.L188
 716:./Hardware/hardware/menu_data.c **** 			{
 717:./Hardware/hardware/menu_data.c **** 				// 长按200ms，退出函数
 718:./Hardware/hardware/menu_data.c **** 				while(Key_up == 0) // 等待松手
 1866              		.loc 1 718 10
 1867 005a 03E0     		b	.L186
 1868              	.L187:
 719:./Hardware/hardware/menu_data.c **** 				{
 720:./Hardware/hardware/menu_data.c **** 					sd8840_time_copy();
 1869              		.loc 1 720 6
 1870 005c FFF7FEFF 		bl	sd8840_time_copy
 721:./Hardware/hardware/menu_data.c **** 					OLED_Update();
 1871              		.loc 1 721 6
 1872 0060 FFF7FEFF 		bl	OLED_Update
 1873              	.L186:
 718:./Hardware/hardware/menu_data.c **** 				{
 1874              		.loc 1 718 11
 1875 0064 064B     		ldr	r3, .L190+4
 1876 0066 1B68     		ldr	r3, [r3]
 718:./Hardware/hardware/menu_data.c **** 				{
 1877              		.loc 1 718 10
 1878 0068 002B     		cmp	r3, #0
 1879 006a F7D0     		beq	.L187
 1880 006c CFE7     		b	.L188
 1881              	.L184:
 722:./Hardware/hardware/menu_data.c **** 				}
 723:./Hardware/hardware/menu_data.c **** 			} 
 724:./Hardware/hardware/menu_data.c **** 		}
 725:./Hardware/hardware/menu_data.c **** 		else
 726:./Hardware/hardware/menu_data.c **** 		{
 727:./Hardware/hardware/menu_data.c **** 			enter_press_time = 0; // 重置计时器
 1882              		.loc 1 727 21
ARM GAS  C:\Users\86134\AppData\Local\Temp\ccuTN5uR.s 			page 47


 1883 006e 0023     		movs	r3, #0
 1884 0070 BB71     		strb	r3, [r7, #6]
 691:./Hardware/hardware/menu_data.c **** 		OLED_Update();
 1885              		.loc 1 691 3
 1886 0072 CCE7     		b	.L188
 1887              	.L189:
 704:./Hardware/hardware/menu_data.c **** 		}
 1888              		.loc 1 704 4
 1889 0074 00BF     		nop
 1890              	.L179:
 728:./Hardware/hardware/menu_data.c **** 		}
 729:./Hardware/hardware/menu_data.c **** 
 730:./Hardware/hardware/menu_data.c **** 	}
 731:./Hardware/hardware/menu_data.c **** }
 1891              		.loc 1 731 1
 1892 0076 0837     		adds	r7, r7, #8
 1893              	.LCFI83:
 1894              		.cfi_def_cfa_offset 8
 1895 0078 BD46     		mov	sp, r7
 1896              	.LCFI84:
 1897              		.cfi_def_cfa_register 13
 1898              		@ sp needed
 1899 007a 80BD     		pop	{r7, pc}
 1900              	.L191:
 1901              		.align	2
 1902              	.L190:
 1903 007c 34812142 		.word	1109492020
 1904 0080 30812142 		.word	1109492016
 1905              		.cfi_endproc
 1906              	.LFE48:
 1908              		.section	.text.SD8200_Series,"ax",%progbits
 1909              		.align	1
 1910              		.global	SD8200_Series
 1911              		.syntax unified
 1912              		.thumb
 1913              		.thumb_func
 1914              		.fpu softvfp
 1916              	SD8200_Series:
 1917              	.LFB49:
 732:./Hardware/hardware/menu_data.c **** 
 733:./Hardware/hardware/menu_data.c **** void SD8200_Series(void)
 734:./Hardware/hardware/menu_data.c **** {
 1918              		.loc 1 734 1
 1919              		.cfi_startproc
 1920              		@ args = 0, pretend = 0, frame = 8
 1921              		@ frame_needed = 1, uses_anonymous_args = 0
 1922 0000 80B5     		push	{r7, lr}
 1923              	.LCFI85:
 1924              		.cfi_def_cfa_offset 8
 1925              		.cfi_offset 7, -8
 1926              		.cfi_offset 14, -4
 1927 0002 82B0     		sub	sp, sp, #8
 1928              	.LCFI86:
 1929              		.cfi_def_cfa_offset 16
 1930 0004 00AF     		add	r7, sp, #0
 1931              	.LCFI87:
 1932              		.cfi_def_cfa_register 7
ARM GAS  C:\Users\86134\AppData\Local\Temp\ccuTN5uR.s 			page 48


 735:./Hardware/hardware/menu_data.c **** 	uint8_t back_press_time = 0;
 1933              		.loc 1 735 10
 1934 0006 0023     		movs	r3, #0
 1935 0008 FB71     		strb	r3, [r7, #7]
 1936              	.L197:
 736:./Hardware/hardware/menu_data.c **** 	
 737:./Hardware/hardware/menu_data.c **** 	while(1)
 738:./Hardware/hardware/menu_data.c **** 	{
 739:./Hardware/hardware/menu_data.c **** 		sd8200_time_show();
 1937              		.loc 1 739 3
 1938 000a FFF7FEFF 		bl	sd8200_time_show
 740:./Hardware/hardware/menu_data.c **** 		OLED_Update();
 1939              		.loc 1 740 3
 1940 000e FFF7FEFF 		bl	OLED_Update
 741:./Hardware/hardware/menu_data.c **** 		if(Key_back == 0)
 1941              		.loc 1 741 6
 1942 0012 0D4B     		ldr	r3, .L199
 1943 0014 1B68     		ldr	r3, [r3]
 1944              		.loc 1 741 5
 1945 0016 002B     		cmp	r3, #0
 1946 0018 0ED1     		bne	.L193
 742:./Hardware/hardware/menu_data.c **** 		{
 743:./Hardware/hardware/menu_data.c **** 			Delay_ms(10); // 消抖
 1947              		.loc 1 743 4
 1948 001a 0A20     		movs	r0, #10
 1949 001c FFF7FEFF 		bl	Delay_ms
 744:./Hardware/hardware/menu_data.c **** 			back_press_time += 50; // 每次循环递增50ms
 1950              		.loc 1 744 20
 1951 0020 FB79     		ldrb	r3, [r7, #7]
 1952 0022 3233     		adds	r3, r3, #50
 1953 0024 FB71     		strb	r3, [r7, #7]
 745:./Hardware/hardware/menu_data.c **** 			if(back_press_time >= 100)
 1954              		.loc 1 745 6
 1955 0026 FB79     		ldrb	r3, [r7, #7]	@ zero_extendqisi2
 1956 0028 632B     		cmp	r3, #99
 1957 002a 08D9     		bls	.L198
 746:./Hardware/hardware/menu_data.c **** 			{
 747:./Hardware/hardware/menu_data.c **** 				// 长按200ms，退出函数
 748:./Hardware/hardware/menu_data.c **** 				while(Key_back == 0); // 等待松手
 1958              		.loc 1 748 10
 1959 002c 00BF     		nop
 1960              	.L195:
 1961              		.loc 1 748 11 discriminator 1
 1962 002e 064B     		ldr	r3, .L199
 1963 0030 1B68     		ldr	r3, [r3]
 1964              		.loc 1 748 10 discriminator 1
 1965 0032 002B     		cmp	r3, #0
 1966 0034 FBD0     		beq	.L195
 749:./Hardware/hardware/menu_data.c **** 				break;
 1967              		.loc 1 749 5
 1968 0036 03E0     		b	.L192
 1969              	.L193:
 750:./Hardware/hardware/menu_data.c **** 			}
 751:./Hardware/hardware/menu_data.c **** 			return;
 752:./Hardware/hardware/menu_data.c **** 		}
 753:./Hardware/hardware/menu_data.c **** 		else
 754:./Hardware/hardware/menu_data.c **** 		{
ARM GAS  C:\Users\86134\AppData\Local\Temp\ccuTN5uR.s 			page 49


 755:./Hardware/hardware/menu_data.c **** 			back_press_time = 0; // 重置计时器
 1970              		.loc 1 755 20
 1971 0038 0023     		movs	r3, #0
 1972 003a FB71     		strb	r3, [r7, #7]
 739:./Hardware/hardware/menu_data.c **** 		OLED_Update();
 1973              		.loc 1 739 3
 1974 003c E5E7     		b	.L197
 1975              	.L198:
 751:./Hardware/hardware/menu_data.c **** 		}
 1976              		.loc 1 751 4
 1977 003e 00BF     		nop
 1978              	.L192:
 756:./Hardware/hardware/menu_data.c **** 		}
 757:./Hardware/hardware/menu_data.c **** 	}
 758:./Hardware/hardware/menu_data.c **** }
 1979              		.loc 1 758 1
 1980 0040 0837     		adds	r7, r7, #8
 1981              	.LCFI88:
 1982              		.cfi_def_cfa_offset 8
 1983 0042 BD46     		mov	sp, r7
 1984              	.LCFI89:
 1985              		.cfi_def_cfa_register 13
 1986              		@ sp needed
 1987 0044 80BD     		pop	{r7, pc}
 1988              	.L200:
 1989 0046 00BF     		.align	2
 1990              	.L199:
 1991 0048 34812142 		.word	1109492020
 1992              		.cfi_endproc
 1993              	.LFE49:
 1995              		.section	.text.SD8200_and_std,"ax",%progbits
 1996              		.align	1
 1997              		.global	SD8200_and_std
 1998              		.syntax unified
 1999              		.thumb
 2000              		.thumb_func
 2001              		.fpu softvfp
 2003              	SD8200_and_std:
 2004              	.LFB50:
 759:./Hardware/hardware/menu_data.c **** 
 760:./Hardware/hardware/menu_data.c **** void SD8200_and_std(void)
 761:./Hardware/hardware/menu_data.c **** {
 2005              		.loc 1 761 1
 2006              		.cfi_startproc
 2007              		@ args = 0, pretend = 0, frame = 8
 2008              		@ frame_needed = 1, uses_anonymous_args = 0
 2009 0000 80B5     		push	{r7, lr}
 2010              	.LCFI90:
 2011              		.cfi_def_cfa_offset 8
 2012              		.cfi_offset 7, -8
 2013              		.cfi_offset 14, -4
 2014 0002 82B0     		sub	sp, sp, #8
 2015              	.LCFI91:
 2016              		.cfi_def_cfa_offset 16
 2017 0004 00AF     		add	r7, sp, #0
 2018              	.LCFI92:
 2019              		.cfi_def_cfa_register 7
ARM GAS  C:\Users\86134\AppData\Local\Temp\ccuTN5uR.s 			page 50


 762:./Hardware/hardware/menu_data.c **** 	uint8_t back_press_time = 0;
 2020              		.loc 1 762 10
 2021 0006 0023     		movs	r3, #0
 2022 0008 FB71     		strb	r3, [r7, #7]
 763:./Hardware/hardware/menu_data.c **** 	uint8_t enter_press_time = 0;
 2023              		.loc 1 763 10
 2024 000a 0023     		movs	r3, #0
 2025 000c BB71     		strb	r3, [r7, #6]
 764:./Hardware/hardware/menu_data.c **** 	uint8_t down_press_time = 0;
 2026              		.loc 1 764 10
 2027 000e 0023     		movs	r3, #0
 2028 0010 7B71     		strb	r3, [r7, #5]
 765:./Hardware/hardware/menu_data.c **** 	uint8_t key_state = 0;
 2029              		.loc 1 765 10
 2030 0012 0023     		movs	r3, #0
 2031 0014 3B71     		strb	r3, [r7, #4]
 2032              	.L214:
 766:./Hardware/hardware/menu_data.c **** 
 767:./Hardware/hardware/menu_data.c **** 	
 768:./Hardware/hardware/menu_data.c **** 	while(1)
 769:./Hardware/hardware/menu_data.c **** 	{
 770:./Hardware/hardware/menu_data.c **** 		sd8200_and_std();
 2033              		.loc 1 770 3
 2034 0016 FFF7FEFF 		bl	sd8200_and_std
 771:./Hardware/hardware/menu_data.c **** 		OLED_Update();
 2035              		.loc 1 771 3
 2036 001a FFF7FEFF 		bl	OLED_Update
 772:./Hardware/hardware/menu_data.c **** 		
 773:./Hardware/hardware/menu_data.c **** 		if(Key_back == 0)
 2037              		.loc 1 773 6
 2038 001e 284B     		ldr	r3, .L216
 2039 0020 1B68     		ldr	r3, [r3]
 2040              		.loc 1 773 5
 2041 0022 002B     		cmp	r3, #0
 2042 0024 0ED1     		bne	.L202
 774:./Hardware/hardware/menu_data.c **** 		{
 775:./Hardware/hardware/menu_data.c **** 			Delay_ms(10); // 消抖
 2043              		.loc 1 775 4
 2044 0026 0A20     		movs	r0, #10
 2045 0028 FFF7FEFF 		bl	Delay_ms
 776:./Hardware/hardware/menu_data.c **** 			back_press_time += 50; // 每次循环递增50ms
 2046              		.loc 1 776 20
 2047 002c FB79     		ldrb	r3, [r7, #7]
 2048 002e 3233     		adds	r3, r3, #50
 2049 0030 FB71     		strb	r3, [r7, #7]
 777:./Hardware/hardware/menu_data.c **** 			if(back_press_time >= 100)
 2050              		.loc 1 777 6
 2051 0032 FB79     		ldrb	r3, [r7, #7]	@ zero_extendqisi2
 2052 0034 632B     		cmp	r3, #99
 2053 0036 3FD9     		bls	.L215
 778:./Hardware/hardware/menu_data.c **** 			{
 779:./Hardware/hardware/menu_data.c **** 				// 长按200ms，退出函数
 780:./Hardware/hardware/menu_data.c **** 				while(Key_back == 0); // 等待松手
 2054              		.loc 1 780 10
 2055 0038 00BF     		nop
 2056              	.L204:
 2057              		.loc 1 780 11 discriminator 1
ARM GAS  C:\Users\86134\AppData\Local\Temp\ccuTN5uR.s 			page 51


 2058 003a 214B     		ldr	r3, .L216
 2059 003c 1B68     		ldr	r3, [r3]
 2060              		.loc 1 780 10 discriminator 1
 2061 003e 002B     		cmp	r3, #0
 2062 0040 FBD0     		beq	.L204
 781:./Hardware/hardware/menu_data.c **** 				break;
 2063              		.loc 1 781 5
 2064 0042 3AE0     		b	.L201
 2065              	.L202:
 782:./Hardware/hardware/menu_data.c **** 			}
 783:./Hardware/hardware/menu_data.c **** 			return;
 784:./Hardware/hardware/menu_data.c **** 		}
 785:./Hardware/hardware/menu_data.c **** 		else
 786:./Hardware/hardware/menu_data.c **** 		{
 787:./Hardware/hardware/menu_data.c **** 			back_press_time = 0; // 重置计时器
 2066              		.loc 1 787 20
 2067 0044 0023     		movs	r3, #0
 2068 0046 FB71     		strb	r3, [r7, #7]
 788:./Hardware/hardware/menu_data.c **** 		}
 789:./Hardware/hardware/menu_data.c **** 		
 790:./Hardware/hardware/menu_data.c **** 		if(Key_up == 0)
 2069              		.loc 1 790 6
 2070 0048 1E4B     		ldr	r3, .L216+4
 2071 004a 1B68     		ldr	r3, [r3]
 2072              		.loc 1 790 5
 2073 004c 002B     		cmp	r3, #0
 2074 004e 12D1     		bne	.L206
 791:./Hardware/hardware/menu_data.c **** 		{
 792:./Hardware/hardware/menu_data.c **** 			Delay_ms(10); // 消抖
 2075              		.loc 1 792 4
 2076 0050 0A20     		movs	r0, #10
 2077 0052 FFF7FEFF 		bl	Delay_ms
 793:./Hardware/hardware/menu_data.c **** 			enter_press_time += 50; // 每次循环递增50ms
 2078              		.loc 1 793 21
 2079 0056 BB79     		ldrb	r3, [r7, #6]
 2080 0058 3233     		adds	r3, r3, #50
 2081 005a BB71     		strb	r3, [r7, #6]
 794:./Hardware/hardware/menu_data.c **** 			if(enter_press_time >= 100)
 2082              		.loc 1 794 6
 2083 005c BB79     		ldrb	r3, [r7, #6]	@ zero_extendqisi2
 2084 005e 632B     		cmp	r3, #99
 2085 0060 0BD9     		bls	.L207
 795:./Hardware/hardware/menu_data.c **** 			{
 796:./Hardware/hardware/menu_data.c **** 				// 长按200ms，退出函数
 797:./Hardware/hardware/menu_data.c **** 				while(Key_up == 0) // 等待松手
 2086              		.loc 1 797 10
 2087 0062 03E0     		b	.L208
 2088              	.L209:
 798:./Hardware/hardware/menu_data.c **** 				{
 799:./Hardware/hardware/menu_data.c **** 					sd8200_time_copy();
 2089              		.loc 1 799 6
 2090 0064 FFF7FEFF 		bl	sd8200_time_copy
 800:./Hardware/hardware/menu_data.c **** 					OLED_Update();
 2091              		.loc 1 800 6
 2092 0068 FFF7FEFF 		bl	OLED_Update
 2093              	.L208:
 797:./Hardware/hardware/menu_data.c **** 				{
ARM GAS  C:\Users\86134\AppData\Local\Temp\ccuTN5uR.s 			page 52


 2094              		.loc 1 797 11
 2095 006c 154B     		ldr	r3, .L216+4
 2096 006e 1B68     		ldr	r3, [r3]
 797:./Hardware/hardware/menu_data.c **** 				{
 2097              		.loc 1 797 10
 2098 0070 002B     		cmp	r3, #0
 2099 0072 F7D0     		beq	.L209
 2100 0074 01E0     		b	.L207
 2101              	.L206:
 801:./Hardware/hardware/menu_data.c **** 				}
 802:./Hardware/hardware/menu_data.c **** 			} 
 803:./Hardware/hardware/menu_data.c **** 		}
 804:./Hardware/hardware/menu_data.c **** 		else
 805:./Hardware/hardware/menu_data.c **** 		{
 806:./Hardware/hardware/menu_data.c **** 			enter_press_time = 0; // 重置计时器
 2102              		.loc 1 806 21
 2103 0076 0023     		movs	r3, #0
 2104 0078 BB71     		strb	r3, [r7, #6]
 2105              	.L207:
 807:./Hardware/hardware/menu_data.c **** 		}
 808:./Hardware/hardware/menu_data.c **** /******************下按键************************/
 809:./Hardware/hardware/menu_data.c ****     if (Key_down == 0)
 2106              		.loc 1 809 9
 2107 007a 134B     		ldr	r3, .L216+8
 2108 007c 1B68     		ldr	r3, [r3]
 2109              		.loc 1 809 8
 2110 007e 002B     		cmp	r3, #0
 2111 0080 17D1     		bne	.L210
 810:./Hardware/hardware/menu_data.c **** 	{
 811:./Hardware/hardware/menu_data.c ****         Delay_ms(10); // 消抖
 2112              		.loc 1 811 9
 2113 0082 0A20     		movs	r0, #10
 2114 0084 FFF7FEFF 		bl	Delay_ms
 812:./Hardware/hardware/menu_data.c ****         down_press_time += 50; // 每次循环递增50ms
 2115              		.loc 1 812 25
 2116 0088 7B79     		ldrb	r3, [r7, #5]
 2117 008a 3233     		adds	r3, r3, #50
 2118 008c 7B71     		strb	r3, [r7, #5]
 813:./Hardware/hardware/menu_data.c ****         if (down_press_time >= 100)
 2119              		.loc 1 813 12
 2120 008e 7B79     		ldrb	r3, [r7, #5]	@ zero_extendqisi2
 2121 0090 632B     		cmp	r3, #99
 2122 0092 C0D9     		bls	.L214
 814:./Hardware/hardware/menu_data.c **** 		{
 815:./Hardware/hardware/menu_data.c ****             if (key_state == 0) 
 2123              		.loc 1 815 16
 2124 0094 3B79     		ldrb	r3, [r7, #4]	@ zero_extendqisi2
 2125 0096 002B     		cmp	r3, #0
 2126 0098 04D1     		bne	.L212
 816:./Hardware/hardware/menu_data.c **** 			{
 817:./Hardware/hardware/menu_data.c ****                 sd8200_charge_on(); // 执行sd3xxx_charge_on()函数
 2127              		.loc 1 817 17
 2128 009a FFF7FEFF 		bl	sd8200_charge_on
 818:./Hardware/hardware/menu_data.c ****                 key_state = 1; // 更新按键状态为已按下
 2129              		.loc 1 818 27
 2130 009e 0123     		movs	r3, #1
 2131 00a0 3B71     		strb	r3, [r7, #4]
ARM GAS  C:\Users\86134\AppData\Local\Temp\ccuTN5uR.s 			page 53


 2132 00a2 03E0     		b	.L213
 2133              	.L212:
 819:./Hardware/hardware/menu_data.c ****             } else {
 820:./Hardware/hardware/menu_data.c ****                 sd8200_charge_off(); // 执行sd3xxx_charge_off()函数
 2134              		.loc 1 820 17
 2135 00a4 FFF7FEFF 		bl	sd8200_charge_off
 821:./Hardware/hardware/menu_data.c ****                 key_state = 0; // 更新按键状态为未按下
 2136              		.loc 1 821 27
 2137 00a8 0023     		movs	r3, #0
 2138 00aa 3B71     		strb	r3, [r7, #4]
 2139              	.L213:
 822:./Hardware/hardware/menu_data.c ****             }
 823:./Hardware/hardware/menu_data.c ****             down_press_time = 0; // 重置计时器
 2140              		.loc 1 823 29
 2141 00ac 0023     		movs	r3, #0
 2142 00ae 7B71     		strb	r3, [r7, #5]
 2143 00b0 B1E7     		b	.L214
 2144              	.L210:
 824:./Hardware/hardware/menu_data.c ****         }
 825:./Hardware/hardware/menu_data.c ****     } else {
 826:./Hardware/hardware/menu_data.c ****         down_press_time = 0; // 重置计时器
 2145              		.loc 1 826 25
 2146 00b2 0023     		movs	r3, #0
 2147 00b4 7B71     		strb	r3, [r7, #5]
 770:./Hardware/hardware/menu_data.c **** 		OLED_Update();
 2148              		.loc 1 770 3
 2149 00b6 AEE7     		b	.L214
 2150              	.L215:
 783:./Hardware/hardware/menu_data.c **** 		}
 2151              		.loc 1 783 4
 2152 00b8 00BF     		nop
 2153              	.L201:
 827:./Hardware/hardware/menu_data.c **** 		
 828:./Hardware/hardware/menu_data.c **** 		}
 829:./Hardware/hardware/menu_data.c **** 	}
 830:./Hardware/hardware/menu_data.c **** }
 2154              		.loc 1 830 1
 2155 00ba 0837     		adds	r7, r7, #8
 2156              	.LCFI93:
 2157              		.cfi_def_cfa_offset 8
 2158 00bc BD46     		mov	sp, r7
 2159              	.LCFI94:
 2160              		.cfi_def_cfa_register 13
 2161              		@ sp needed
 2162 00be 80BD     		pop	{r7, pc}
 2163              	.L217:
 2164              		.align	2
 2165              	.L216:
 2166 00c0 34812142 		.word	1109492020
 2167 00c4 30812142 		.word	1109492016
 2168 00c8 38812142 		.word	1109492024
 2169              		.cfi_endproc
 2170              	.LFE50:
 2172              		.section	.text.SD8931_Series,"ax",%progbits
 2173              		.align	1
 2174              		.global	SD8931_Series
 2175              		.syntax unified
ARM GAS  C:\Users\86134\AppData\Local\Temp\ccuTN5uR.s 			page 54


 2176              		.thumb
 2177              		.thumb_func
 2178              		.fpu softvfp
 2180              	SD8931_Series:
 2181              	.LFB51:
 831:./Hardware/hardware/menu_data.c **** 
 832:./Hardware/hardware/menu_data.c **** 
 833:./Hardware/hardware/menu_data.c **** void SD8931_Series(void)
 834:./Hardware/hardware/menu_data.c **** {
 2182              		.loc 1 834 1
 2183              		.cfi_startproc
 2184              		@ args = 0, pretend = 0, frame = 8
 2185              		@ frame_needed = 1, uses_anonymous_args = 0
 2186 0000 80B5     		push	{r7, lr}
 2187              	.LCFI95:
 2188              		.cfi_def_cfa_offset 8
 2189              		.cfi_offset 7, -8
 2190              		.cfi_offset 14, -4
 2191 0002 82B0     		sub	sp, sp, #8
 2192              	.LCFI96:
 2193              		.cfi_def_cfa_offset 16
 2194 0004 00AF     		add	r7, sp, #0
 2195              	.LCFI97:
 2196              		.cfi_def_cfa_register 7
 835:./Hardware/hardware/menu_data.c **** 	uint8_t back_press_time = 0;
 2197              		.loc 1 835 10
 2198 0006 0023     		movs	r3, #0
 2199 0008 FB71     		strb	r3, [r7, #7]
 2200              	.L223:
 836:./Hardware/hardware/menu_data.c **** 	
 837:./Hardware/hardware/menu_data.c **** 	while(1)
 838:./Hardware/hardware/menu_data.c **** 	{
 839:./Hardware/hardware/menu_data.c **** 		sd8931_time_show();
 2201              		.loc 1 839 3
 2202 000a FFF7FEFF 		bl	sd8931_time_show
 840:./Hardware/hardware/menu_data.c **** 		OLED_Update();
 2203              		.loc 1 840 3
 2204 000e FFF7FEFF 		bl	OLED_Update
 841:./Hardware/hardware/menu_data.c **** 		if(Key_back == 0)
 2205              		.loc 1 841 6
 2206 0012 0D4B     		ldr	r3, .L225
 2207 0014 1B68     		ldr	r3, [r3]
 2208              		.loc 1 841 5
 2209 0016 002B     		cmp	r3, #0
 2210 0018 0ED1     		bne	.L219
 842:./Hardware/hardware/menu_data.c **** 		{
 843:./Hardware/hardware/menu_data.c **** 			Delay_ms(10); // 消抖
 2211              		.loc 1 843 4
 2212 001a 0A20     		movs	r0, #10
 2213 001c FFF7FEFF 		bl	Delay_ms
 844:./Hardware/hardware/menu_data.c **** 			back_press_time += 50; // 每次循环递增50ms
 2214              		.loc 1 844 20
 2215 0020 FB79     		ldrb	r3, [r7, #7]
 2216 0022 3233     		adds	r3, r3, #50
 2217 0024 FB71     		strb	r3, [r7, #7]
 845:./Hardware/hardware/menu_data.c **** 			if(back_press_time >= 100)
 2218              		.loc 1 845 6
ARM GAS  C:\Users\86134\AppData\Local\Temp\ccuTN5uR.s 			page 55


 2219 0026 FB79     		ldrb	r3, [r7, #7]	@ zero_extendqisi2
 2220 0028 632B     		cmp	r3, #99
 2221 002a 08D9     		bls	.L224
 846:./Hardware/hardware/menu_data.c **** 			{
 847:./Hardware/hardware/menu_data.c **** 				// 长按200ms，退出函数
 848:./Hardware/hardware/menu_data.c **** 				while(Key_back == 0); // 等待松手
 2222              		.loc 1 848 10
 2223 002c 00BF     		nop
 2224              	.L221:
 2225              		.loc 1 848 11 discriminator 1
 2226 002e 064B     		ldr	r3, .L225
 2227 0030 1B68     		ldr	r3, [r3]
 2228              		.loc 1 848 10 discriminator 1
 2229 0032 002B     		cmp	r3, #0
 2230 0034 FBD0     		beq	.L221
 849:./Hardware/hardware/menu_data.c **** 				break;
 2231              		.loc 1 849 5
 2232 0036 03E0     		b	.L218
 2233              	.L219:
 850:./Hardware/hardware/menu_data.c **** 			}
 851:./Hardware/hardware/menu_data.c **** 			return;
 852:./Hardware/hardware/menu_data.c **** 		}
 853:./Hardware/hardware/menu_data.c **** 		else
 854:./Hardware/hardware/menu_data.c **** 		{
 855:./Hardware/hardware/menu_data.c **** 			back_press_time = 0; // 重置计时器
 2234              		.loc 1 855 20
 2235 0038 0023     		movs	r3, #0
 2236 003a FB71     		strb	r3, [r7, #7]
 839:./Hardware/hardware/menu_data.c **** 		OLED_Update();
 2237              		.loc 1 839 3
 2238 003c E5E7     		b	.L223
 2239              	.L224:
 851:./Hardware/hardware/menu_data.c **** 		}
 2240              		.loc 1 851 4
 2241 003e 00BF     		nop
 2242              	.L218:
 856:./Hardware/hardware/menu_data.c **** 		}
 857:./Hardware/hardware/menu_data.c **** 	}
 858:./Hardware/hardware/menu_data.c **** }
 2243              		.loc 1 858 1
 2244 0040 0837     		adds	r7, r7, #8
 2245              	.LCFI98:
 2246              		.cfi_def_cfa_offset 8
 2247 0042 BD46     		mov	sp, r7
 2248              	.LCFI99:
 2249              		.cfi_def_cfa_register 13
 2250              		@ sp needed
 2251 0044 80BD     		pop	{r7, pc}
 2252              	.L226:
 2253 0046 00BF     		.align	2
 2254              	.L225:
 2255 0048 34812142 		.word	1109492020
 2256              		.cfi_endproc
 2257              	.LFE51:
 2259              		.section	.text.SD8931_and_std,"ax",%progbits
 2260              		.align	1
 2261              		.global	SD8931_and_std
ARM GAS  C:\Users\86134\AppData\Local\Temp\ccuTN5uR.s 			page 56


 2262              		.syntax unified
 2263              		.thumb
 2264              		.thumb_func
 2265              		.fpu softvfp
 2267              	SD8931_and_std:
 2268              	.LFB52:
 859:./Hardware/hardware/menu_data.c **** 
 860:./Hardware/hardware/menu_data.c **** void SD8931_and_std(void)
 861:./Hardware/hardware/menu_data.c **** {
 2269              		.loc 1 861 1
 2270              		.cfi_startproc
 2271              		@ args = 0, pretend = 0, frame = 8
 2272              		@ frame_needed = 1, uses_anonymous_args = 0
 2273 0000 80B5     		push	{r7, lr}
 2274              	.LCFI100:
 2275              		.cfi_def_cfa_offset 8
 2276              		.cfi_offset 7, -8
 2277              		.cfi_offset 14, -4
 2278 0002 82B0     		sub	sp, sp, #8
 2279              	.LCFI101:
 2280              		.cfi_def_cfa_offset 16
 2281 0004 00AF     		add	r7, sp, #0
 2282              	.LCFI102:
 2283              		.cfi_def_cfa_register 7
 862:./Hardware/hardware/menu_data.c **** 	uint8_t back_press_time = 0;
 2284              		.loc 1 862 10
 2285 0006 0023     		movs	r3, #0
 2286 0008 FB71     		strb	r3, [r7, #7]
 863:./Hardware/hardware/menu_data.c **** 	uint8_t enter_press_time = 0;
 2287              		.loc 1 863 10
 2288 000a 0023     		movs	r3, #0
 2289 000c BB71     		strb	r3, [r7, #6]
 864:./Hardware/hardware/menu_data.c **** 	uint8_t down_press_time = 0;
 2290              		.loc 1 864 10
 2291 000e 0023     		movs	r3, #0
 2292 0010 7B71     		strb	r3, [r7, #5]
 865:./Hardware/hardware/menu_data.c **** 	uint8_t key_state = 0;
 2293              		.loc 1 865 10
 2294 0012 0023     		movs	r3, #0
 2295 0014 3B71     		strb	r3, [r7, #4]
 2296              	.L240:
 866:./Hardware/hardware/menu_data.c **** 
 867:./Hardware/hardware/menu_data.c **** 	while(1)
 868:./Hardware/hardware/menu_data.c **** 	{
 869:./Hardware/hardware/menu_data.c **** 		sd8931_and_std();
 2297              		.loc 1 869 3
 2298 0016 FFF7FEFF 		bl	sd8931_and_std
 870:./Hardware/hardware/menu_data.c **** 		OLED_Update();
 2299              		.loc 1 870 3
 2300 001a FFF7FEFF 		bl	OLED_Update
 871:./Hardware/hardware/menu_data.c **** 		
 872:./Hardware/hardware/menu_data.c **** 		if(Key_back == 0)
 2301              		.loc 1 872 6
 2302 001e 284B     		ldr	r3, .L242
 2303 0020 1B68     		ldr	r3, [r3]
 2304              		.loc 1 872 5
 2305 0022 002B     		cmp	r3, #0
ARM GAS  C:\Users\86134\AppData\Local\Temp\ccuTN5uR.s 			page 57


 2306 0024 0ED1     		bne	.L228
 873:./Hardware/hardware/menu_data.c **** 		{
 874:./Hardware/hardware/menu_data.c **** 			Delay_ms(10); // 消抖
 2307              		.loc 1 874 4
 2308 0026 0A20     		movs	r0, #10
 2309 0028 FFF7FEFF 		bl	Delay_ms
 875:./Hardware/hardware/menu_data.c **** 			back_press_time += 50; // 每次循环递增50ms
 2310              		.loc 1 875 20
 2311 002c FB79     		ldrb	r3, [r7, #7]
 2312 002e 3233     		adds	r3, r3, #50
 2313 0030 FB71     		strb	r3, [r7, #7]
 876:./Hardware/hardware/menu_data.c **** 			if(back_press_time >= 100)
 2314              		.loc 1 876 6
 2315 0032 FB79     		ldrb	r3, [r7, #7]	@ zero_extendqisi2
 2316 0034 632B     		cmp	r3, #99
 2317 0036 3FD9     		bls	.L241
 877:./Hardware/hardware/menu_data.c **** 			{
 878:./Hardware/hardware/menu_data.c **** 				// 长按200ms，退出函数
 879:./Hardware/hardware/menu_data.c **** 				while(Key_back == 0); // 等待松手
 2318              		.loc 1 879 10
 2319 0038 00BF     		nop
 2320              	.L230:
 2321              		.loc 1 879 11 discriminator 1
 2322 003a 214B     		ldr	r3, .L242
 2323 003c 1B68     		ldr	r3, [r3]
 2324              		.loc 1 879 10 discriminator 1
 2325 003e 002B     		cmp	r3, #0
 2326 0040 FBD0     		beq	.L230
 880:./Hardware/hardware/menu_data.c **** 				break;
 2327              		.loc 1 880 5
 2328 0042 3AE0     		b	.L227
 2329              	.L228:
 881:./Hardware/hardware/menu_data.c **** 			}
 882:./Hardware/hardware/menu_data.c **** 			return;
 883:./Hardware/hardware/menu_data.c **** 		}
 884:./Hardware/hardware/menu_data.c **** 		else
 885:./Hardware/hardware/menu_data.c **** 		{
 886:./Hardware/hardware/menu_data.c **** 			back_press_time = 0; // 重置计时器
 2330              		.loc 1 886 20
 2331 0044 0023     		movs	r3, #0
 2332 0046 FB71     		strb	r3, [r7, #7]
 887:./Hardware/hardware/menu_data.c **** 		}
 888:./Hardware/hardware/menu_data.c **** 		
 889:./Hardware/hardware/menu_data.c **** 		if(Key_up == 0)
 2333              		.loc 1 889 6
 2334 0048 1E4B     		ldr	r3, .L242+4
 2335 004a 1B68     		ldr	r3, [r3]
 2336              		.loc 1 889 5
 2337 004c 002B     		cmp	r3, #0
 2338 004e 12D1     		bne	.L232
 890:./Hardware/hardware/menu_data.c **** 		{
 891:./Hardware/hardware/menu_data.c **** 			Delay_ms(10); // 消抖
 2339              		.loc 1 891 4
 2340 0050 0A20     		movs	r0, #10
 2341 0052 FFF7FEFF 		bl	Delay_ms
 892:./Hardware/hardware/menu_data.c **** 			enter_press_time += 50; // 每次循环递增50ms
 2342              		.loc 1 892 21
ARM GAS  C:\Users\86134\AppData\Local\Temp\ccuTN5uR.s 			page 58


 2343 0056 BB79     		ldrb	r3, [r7, #6]
 2344 0058 3233     		adds	r3, r3, #50
 2345 005a BB71     		strb	r3, [r7, #6]
 893:./Hardware/hardware/menu_data.c **** 			if(enter_press_time >= 100)
 2346              		.loc 1 893 6
 2347 005c BB79     		ldrb	r3, [r7, #6]	@ zero_extendqisi2
 2348 005e 632B     		cmp	r3, #99
 2349 0060 0BD9     		bls	.L233
 894:./Hardware/hardware/menu_data.c **** 			{
 895:./Hardware/hardware/menu_data.c **** 				// 长按200ms，退出函数
 896:./Hardware/hardware/menu_data.c **** 				while(Key_up == 0) // 等待松手
 2350              		.loc 1 896 10
 2351 0062 03E0     		b	.L234
 2352              	.L235:
 897:./Hardware/hardware/menu_data.c **** 				{
 898:./Hardware/hardware/menu_data.c **** 					sd8931_time_copy();
 2353              		.loc 1 898 6
 2354 0064 FFF7FEFF 		bl	sd8931_time_copy
 899:./Hardware/hardware/menu_data.c **** 					OLED_Update();
 2355              		.loc 1 899 6
 2356 0068 FFF7FEFF 		bl	OLED_Update
 2357              	.L234:
 896:./Hardware/hardware/menu_data.c **** 				{
 2358              		.loc 1 896 11
 2359 006c 154B     		ldr	r3, .L242+4
 2360 006e 1B68     		ldr	r3, [r3]
 896:./Hardware/hardware/menu_data.c **** 				{
 2361              		.loc 1 896 10
 2362 0070 002B     		cmp	r3, #0
 2363 0072 F7D0     		beq	.L235
 2364 0074 01E0     		b	.L233
 2365              	.L232:
 900:./Hardware/hardware/menu_data.c **** 				}
 901:./Hardware/hardware/menu_data.c **** 			} 
 902:./Hardware/hardware/menu_data.c **** 		}
 903:./Hardware/hardware/menu_data.c **** 		else
 904:./Hardware/hardware/menu_data.c **** 		{
 905:./Hardware/hardware/menu_data.c **** 			enter_press_time = 0; // 重置计时器
 2366              		.loc 1 905 21
 2367 0076 0023     		movs	r3, #0
 2368 0078 BB71     		strb	r3, [r7, #6]
 2369              	.L233:
 906:./Hardware/hardware/menu_data.c **** 		}
 907:./Hardware/hardware/menu_data.c **** /******************下按键************************/
 908:./Hardware/hardware/menu_data.c ****     if (Key_down == 0)
 2370              		.loc 1 908 9
 2371 007a 134B     		ldr	r3, .L242+8
 2372 007c 1B68     		ldr	r3, [r3]
 2373              		.loc 1 908 8
 2374 007e 002B     		cmp	r3, #0
 2375 0080 17D1     		bne	.L236
 909:./Hardware/hardware/menu_data.c **** 	{
 910:./Hardware/hardware/menu_data.c ****         Delay_ms(10); // 消抖
 2376              		.loc 1 910 9
 2377 0082 0A20     		movs	r0, #10
 2378 0084 FFF7FEFF 		bl	Delay_ms
 911:./Hardware/hardware/menu_data.c ****         down_press_time += 50; // 每次循环递增50ms
ARM GAS  C:\Users\86134\AppData\Local\Temp\ccuTN5uR.s 			page 59


 2379              		.loc 1 911 25
 2380 0088 7B79     		ldrb	r3, [r7, #5]
 2381 008a 3233     		adds	r3, r3, #50
 2382 008c 7B71     		strb	r3, [r7, #5]
 912:./Hardware/hardware/menu_data.c ****         if (down_press_time >= 100)
 2383              		.loc 1 912 12
 2384 008e 7B79     		ldrb	r3, [r7, #5]	@ zero_extendqisi2
 2385 0090 632B     		cmp	r3, #99
 2386 0092 C0D9     		bls	.L240
 913:./Hardware/hardware/menu_data.c **** 		{
 914:./Hardware/hardware/menu_data.c ****             if (key_state == 0) 
 2387              		.loc 1 914 16
 2388 0094 3B79     		ldrb	r3, [r7, #4]	@ zero_extendqisi2
 2389 0096 002B     		cmp	r3, #0
 2390 0098 04D1     		bne	.L238
 915:./Hardware/hardware/menu_data.c **** 			{
 916:./Hardware/hardware/menu_data.c ****                 sd8931_charge_on(); // 执行sd3xxx_charge_on()函数
 2391              		.loc 1 916 17
 2392 009a FFF7FEFF 		bl	sd8931_charge_on
 917:./Hardware/hardware/menu_data.c ****                 key_state = 1; // 更新按键状态为已按下
 2393              		.loc 1 917 27
 2394 009e 0123     		movs	r3, #1
 2395 00a0 3B71     		strb	r3, [r7, #4]
 2396 00a2 03E0     		b	.L239
 2397              	.L238:
 918:./Hardware/hardware/menu_data.c ****             } else {
 919:./Hardware/hardware/menu_data.c ****                 sd8931_charge_off(); // 执行sd3xxx_charge_off()函数
 2398              		.loc 1 919 17
 2399 00a4 FFF7FEFF 		bl	sd8931_charge_off
 920:./Hardware/hardware/menu_data.c ****                 key_state = 0; // 更新按键状态为未按下
 2400              		.loc 1 920 27
 2401 00a8 0023     		movs	r3, #0
 2402 00aa 3B71     		strb	r3, [r7, #4]
 2403              	.L239:
 921:./Hardware/hardware/menu_data.c ****             }
 922:./Hardware/hardware/menu_data.c ****             down_press_time = 0; // 重置计时器
 2404              		.loc 1 922 29
 2405 00ac 0023     		movs	r3, #0
 2406 00ae 7B71     		strb	r3, [r7, #5]
 2407 00b0 B1E7     		b	.L240
 2408              	.L236:
 923:./Hardware/hardware/menu_data.c ****         }
 924:./Hardware/hardware/menu_data.c ****     } else {
 925:./Hardware/hardware/menu_data.c ****         down_press_time = 0; // 重置计时器
 2409              		.loc 1 925 25
 2410 00b2 0023     		movs	r3, #0
 2411 00b4 7B71     		strb	r3, [r7, #5]
 869:./Hardware/hardware/menu_data.c **** 		OLED_Update();
 2412              		.loc 1 869 3
 2413 00b6 AEE7     		b	.L240
 2414              	.L241:
 882:./Hardware/hardware/menu_data.c **** 		}
 2415              		.loc 1 882 4
 2416 00b8 00BF     		nop
 2417              	.L227:
 926:./Hardware/hardware/menu_data.c **** 		
 927:./Hardware/hardware/menu_data.c **** 		}	
ARM GAS  C:\Users\86134\AppData\Local\Temp\ccuTN5uR.s 			page 60


 928:./Hardware/hardware/menu_data.c **** 		
 929:./Hardware/hardware/menu_data.c **** 	}
 930:./Hardware/hardware/menu_data.c **** }
 2418              		.loc 1 930 1
 2419 00ba 0837     		adds	r7, r7, #8
 2420              	.LCFI103:
 2421              		.cfi_def_cfa_offset 8
 2422 00bc BD46     		mov	sp, r7
 2423              	.LCFI104:
 2424              		.cfi_def_cfa_register 13
 2425              		@ sp needed
 2426 00be 80BD     		pop	{r7, pc}
 2427              	.L243:
 2428              		.align	2
 2429              	.L242:
 2430 00c0 34812142 		.word	1109492020
 2431 00c4 30812142 		.word	1109492016
 2432 00c8 38812142 		.word	1109492024
 2433              		.cfi_endproc
 2434              	.LFE52:
 2436              		.section	.text.SD8939_Series,"ax",%progbits
 2437              		.align	1
 2438              		.global	SD8939_Series
 2439              		.syntax unified
 2440              		.thumb
 2441              		.thumb_func
 2442              		.fpu softvfp
 2444              	SD8939_Series:
 2445              	.LFB53:
 931:./Hardware/hardware/menu_data.c **** 
 932:./Hardware/hardware/menu_data.c **** void SD8939_Series(void)
 933:./Hardware/hardware/menu_data.c **** {
 2446              		.loc 1 933 1
 2447              		.cfi_startproc
 2448              		@ args = 0, pretend = 0, frame = 8
 2449              		@ frame_needed = 1, uses_anonymous_args = 0
 2450 0000 80B5     		push	{r7, lr}
 2451              	.LCFI105:
 2452              		.cfi_def_cfa_offset 8
 2453              		.cfi_offset 7, -8
 2454              		.cfi_offset 14, -4
 2455 0002 82B0     		sub	sp, sp, #8
 2456              	.LCFI106:
 2457              		.cfi_def_cfa_offset 16
 2458 0004 00AF     		add	r7, sp, #0
 2459              	.LCFI107:
 2460              		.cfi_def_cfa_register 7
 934:./Hardware/hardware/menu_data.c **** 	uint8_t back_press_time = 0;
 2461              		.loc 1 934 10
 2462 0006 0023     		movs	r3, #0
 2463 0008 FB71     		strb	r3, [r7, #7]
 2464              	.L249:
 935:./Hardware/hardware/menu_data.c **** 	
 936:./Hardware/hardware/menu_data.c **** 	while(1)
 937:./Hardware/hardware/menu_data.c **** 	{
 938:./Hardware/hardware/menu_data.c **** 		sd8939_time_show();
 2465              		.loc 1 938 3
ARM GAS  C:\Users\86134\AppData\Local\Temp\ccuTN5uR.s 			page 61


 2466 000a FFF7FEFF 		bl	sd8939_time_show
 939:./Hardware/hardware/menu_data.c **** 		OLED_Update();
 2467              		.loc 1 939 3
 2468 000e FFF7FEFF 		bl	OLED_Update
 940:./Hardware/hardware/menu_data.c **** 		if(Key_back == 0)
 2469              		.loc 1 940 6
 2470 0012 0D4B     		ldr	r3, .L251
 2471 0014 1B68     		ldr	r3, [r3]
 2472              		.loc 1 940 5
 2473 0016 002B     		cmp	r3, #0
 2474 0018 0ED1     		bne	.L245
 941:./Hardware/hardware/menu_data.c **** 		{
 942:./Hardware/hardware/menu_data.c **** 			Delay_ms(10); // 消抖
 2475              		.loc 1 942 4
 2476 001a 0A20     		movs	r0, #10
 2477 001c FFF7FEFF 		bl	Delay_ms
 943:./Hardware/hardware/menu_data.c **** 			back_press_time += 50; // 每次循环递增50ms
 2478              		.loc 1 943 20
 2479 0020 FB79     		ldrb	r3, [r7, #7]
 2480 0022 3233     		adds	r3, r3, #50
 2481 0024 FB71     		strb	r3, [r7, #7]
 944:./Hardware/hardware/menu_data.c **** 			if(back_press_time >= 100)
 2482              		.loc 1 944 6
 2483 0026 FB79     		ldrb	r3, [r7, #7]	@ zero_extendqisi2
 2484 0028 632B     		cmp	r3, #99
 2485 002a 08D9     		bls	.L250
 945:./Hardware/hardware/menu_data.c **** 			{
 946:./Hardware/hardware/menu_data.c **** 				// 长按200ms，退出函数
 947:./Hardware/hardware/menu_data.c **** 				while(Key_back == 0); // 等待松手
 2486              		.loc 1 947 10
 2487 002c 00BF     		nop
 2488              	.L247:
 2489              		.loc 1 947 11 discriminator 1
 2490 002e 064B     		ldr	r3, .L251
 2491 0030 1B68     		ldr	r3, [r3]
 2492              		.loc 1 947 10 discriminator 1
 2493 0032 002B     		cmp	r3, #0
 2494 0034 FBD0     		beq	.L247
 948:./Hardware/hardware/menu_data.c **** 				break;
 2495              		.loc 1 948 5
 2496 0036 03E0     		b	.L244
 2497              	.L245:
 949:./Hardware/hardware/menu_data.c **** 			}
 950:./Hardware/hardware/menu_data.c **** 			return;
 951:./Hardware/hardware/menu_data.c **** 		}
 952:./Hardware/hardware/menu_data.c **** 		else
 953:./Hardware/hardware/menu_data.c **** 		{
 954:./Hardware/hardware/menu_data.c **** 			back_press_time = 0; // 重置计时器
 2498              		.loc 1 954 20
 2499 0038 0023     		movs	r3, #0
 2500 003a FB71     		strb	r3, [r7, #7]
 938:./Hardware/hardware/menu_data.c **** 		OLED_Update();
 2501              		.loc 1 938 3
 2502 003c E5E7     		b	.L249
 2503              	.L250:
 950:./Hardware/hardware/menu_data.c **** 		}
 2504              		.loc 1 950 4
ARM GAS  C:\Users\86134\AppData\Local\Temp\ccuTN5uR.s 			page 62


 2505 003e 00BF     		nop
 2506              	.L244:
 955:./Hardware/hardware/menu_data.c **** 		}
 956:./Hardware/hardware/menu_data.c **** 	}
 957:./Hardware/hardware/menu_data.c **** }
 2507              		.loc 1 957 1
 2508 0040 0837     		adds	r7, r7, #8
 2509              	.LCFI108:
 2510              		.cfi_def_cfa_offset 8
 2511 0042 BD46     		mov	sp, r7
 2512              	.LCFI109:
 2513              		.cfi_def_cfa_register 13
 2514              		@ sp needed
 2515 0044 80BD     		pop	{r7, pc}
 2516              	.L252:
 2517 0046 00BF     		.align	2
 2518              	.L251:
 2519 0048 34812142 		.word	1109492020
 2520              		.cfi_endproc
 2521              	.LFE53:
 2523              		.section	.text.SD8939_and_std,"ax",%progbits
 2524              		.align	1
 2525              		.global	SD8939_and_std
 2526              		.syntax unified
 2527              		.thumb
 2528              		.thumb_func
 2529              		.fpu softvfp
 2531              	SD8939_and_std:
 2532              	.LFB54:
 958:./Hardware/hardware/menu_data.c **** 
 959:./Hardware/hardware/menu_data.c **** void SD8939_and_std(void)
 960:./Hardware/hardware/menu_data.c **** {
 2533              		.loc 1 960 1
 2534              		.cfi_startproc
 2535              		@ args = 0, pretend = 0, frame = 8
 2536              		@ frame_needed = 1, uses_anonymous_args = 0
 2537 0000 80B5     		push	{r7, lr}
 2538              	.LCFI110:
 2539              		.cfi_def_cfa_offset 8
 2540              		.cfi_offset 7, -8
 2541              		.cfi_offset 14, -4
 2542 0002 82B0     		sub	sp, sp, #8
 2543              	.LCFI111:
 2544              		.cfi_def_cfa_offset 16
 2545 0004 00AF     		add	r7, sp, #0
 2546              	.LCFI112:
 2547              		.cfi_def_cfa_register 7
 961:./Hardware/hardware/menu_data.c **** 	uint8_t back_press_time = 0;
 2548              		.loc 1 961 10
 2549 0006 0023     		movs	r3, #0
 2550 0008 FB71     		strb	r3, [r7, #7]
 962:./Hardware/hardware/menu_data.c **** 	uint8_t enter_press_time = 0;
 2551              		.loc 1 962 10
 2552 000a 0023     		movs	r3, #0
 2553 000c BB71     		strb	r3, [r7, #6]
 2554              	.L262:
 963:./Hardware/hardware/menu_data.c **** 	
ARM GAS  C:\Users\86134\AppData\Local\Temp\ccuTN5uR.s 			page 63


 964:./Hardware/hardware/menu_data.c **** 	while(1)
 965:./Hardware/hardware/menu_data.c **** 	{
 966:./Hardware/hardware/menu_data.c **** 		sd8939_and_std();
 2555              		.loc 1 966 3
 2556 000e FFF7FEFF 		bl	sd8939_and_std
 967:./Hardware/hardware/menu_data.c **** 		OLED_Update();
 2557              		.loc 1 967 3
 2558 0012 FFF7FEFF 		bl	OLED_Update
 968:./Hardware/hardware/menu_data.c **** 		
 969:./Hardware/hardware/menu_data.c **** 		if(Key_back == 0)
 2559              		.loc 1 969 6
 2560 0016 194B     		ldr	r3, .L264
 2561 0018 1B68     		ldr	r3, [r3]
 2562              		.loc 1 969 5
 2563 001a 002B     		cmp	r3, #0
 2564 001c 0ED1     		bne	.L254
 970:./Hardware/hardware/menu_data.c **** 		{
 971:./Hardware/hardware/menu_data.c **** 			Delay_ms(10); // 消抖
 2565              		.loc 1 971 4
 2566 001e 0A20     		movs	r0, #10
 2567 0020 FFF7FEFF 		bl	Delay_ms
 972:./Hardware/hardware/menu_data.c **** 			back_press_time += 50; // 每次循环递增50ms
 2568              		.loc 1 972 20
 2569 0024 FB79     		ldrb	r3, [r7, #7]
 2570 0026 3233     		adds	r3, r3, #50
 2571 0028 FB71     		strb	r3, [r7, #7]
 973:./Hardware/hardware/menu_data.c **** 			if(back_press_time >= 100)
 2572              		.loc 1 973 6
 2573 002a FB79     		ldrb	r3, [r7, #7]	@ zero_extendqisi2
 2574 002c 632B     		cmp	r3, #99
 2575 002e 21D9     		bls	.L263
 974:./Hardware/hardware/menu_data.c **** 			{
 975:./Hardware/hardware/menu_data.c **** 				// 长按200ms，退出函数
 976:./Hardware/hardware/menu_data.c **** 				while(Key_back == 0); // 等待松手
 2576              		.loc 1 976 10
 2577 0030 00BF     		nop
 2578              	.L256:
 2579              		.loc 1 976 11 discriminator 1
 2580 0032 124B     		ldr	r3, .L264
 2581 0034 1B68     		ldr	r3, [r3]
 2582              		.loc 1 976 10 discriminator 1
 2583 0036 002B     		cmp	r3, #0
 2584 0038 FBD0     		beq	.L256
 977:./Hardware/hardware/menu_data.c **** 				break;
 2585              		.loc 1 977 5
 2586 003a 1CE0     		b	.L253
 2587              	.L254:
 978:./Hardware/hardware/menu_data.c **** 			}
 979:./Hardware/hardware/menu_data.c **** 			return;
 980:./Hardware/hardware/menu_data.c **** 		}
 981:./Hardware/hardware/menu_data.c **** 		else
 982:./Hardware/hardware/menu_data.c **** 		{
 983:./Hardware/hardware/menu_data.c **** 			back_press_time = 0; // 重置计时器
 2588              		.loc 1 983 20
 2589 003c 0023     		movs	r3, #0
 2590 003e FB71     		strb	r3, [r7, #7]
 984:./Hardware/hardware/menu_data.c **** 		}
ARM GAS  C:\Users\86134\AppData\Local\Temp\ccuTN5uR.s 			page 64


 985:./Hardware/hardware/menu_data.c **** 		
 986:./Hardware/hardware/menu_data.c **** 		if(Key_up == 0)
 2591              		.loc 1 986 6
 2592 0040 0F4B     		ldr	r3, .L264+4
 2593 0042 1B68     		ldr	r3, [r3]
 2594              		.loc 1 986 5
 2595 0044 002B     		cmp	r3, #0
 2596 0046 12D1     		bne	.L258
 987:./Hardware/hardware/menu_data.c **** 		{
 988:./Hardware/hardware/menu_data.c **** 			Delay_ms(10); // 消抖
 2597              		.loc 1 988 4
 2598 0048 0A20     		movs	r0, #10
 2599 004a FFF7FEFF 		bl	Delay_ms
 989:./Hardware/hardware/menu_data.c **** 			enter_press_time += 50; // 每次循环递增50ms
 2600              		.loc 1 989 21
 2601 004e BB79     		ldrb	r3, [r7, #6]
 2602 0050 3233     		adds	r3, r3, #50
 2603 0052 BB71     		strb	r3, [r7, #6]
 990:./Hardware/hardware/menu_data.c **** 			if(enter_press_time >= 100)
 2604              		.loc 1 990 6
 2605 0054 BB79     		ldrb	r3, [r7, #6]	@ zero_extendqisi2
 2606 0056 632B     		cmp	r3, #99
 2607 0058 D9D9     		bls	.L262
 991:./Hardware/hardware/menu_data.c **** 			{
 992:./Hardware/hardware/menu_data.c **** 				// 长按200ms，退出函数
 993:./Hardware/hardware/menu_data.c **** 				while(Key_up == 0) // 等待松手
 2608              		.loc 1 993 10
 2609 005a 03E0     		b	.L260
 2610              	.L261:
 994:./Hardware/hardware/menu_data.c **** 				{
 995:./Hardware/hardware/menu_data.c **** 					sd8939_time_copy();
 2611              		.loc 1 995 6
 2612 005c FFF7FEFF 		bl	sd8939_time_copy
 996:./Hardware/hardware/menu_data.c **** 					OLED_Update();
 2613              		.loc 1 996 6
 2614 0060 FFF7FEFF 		bl	OLED_Update
 2615              	.L260:
 993:./Hardware/hardware/menu_data.c **** 				{
 2616              		.loc 1 993 11
 2617 0064 064B     		ldr	r3, .L264+4
 2618 0066 1B68     		ldr	r3, [r3]
 993:./Hardware/hardware/menu_data.c **** 				{
 2619              		.loc 1 993 10
 2620 0068 002B     		cmp	r3, #0
 2621 006a F7D0     		beq	.L261
 2622 006c CFE7     		b	.L262
 2623              	.L258:
 997:./Hardware/hardware/menu_data.c **** 				}
 998:./Hardware/hardware/menu_data.c **** 			} 
 999:./Hardware/hardware/menu_data.c **** 		}
1000:./Hardware/hardware/menu_data.c **** 		else
1001:./Hardware/hardware/menu_data.c **** 		{
1002:./Hardware/hardware/menu_data.c **** 			enter_press_time = 0; // 重置计时器
 2624              		.loc 1 1002 21
 2625 006e 0023     		movs	r3, #0
 2626 0070 BB71     		strb	r3, [r7, #6]
 966:./Hardware/hardware/menu_data.c **** 		OLED_Update();
ARM GAS  C:\Users\86134\AppData\Local\Temp\ccuTN5uR.s 			page 65


 2627              		.loc 1 966 3
 2628 0072 CCE7     		b	.L262
 2629              	.L263:
 979:./Hardware/hardware/menu_data.c **** 		}
 2630              		.loc 1 979 4
 2631 0074 00BF     		nop
 2632              	.L253:
1003:./Hardware/hardware/menu_data.c **** 		}
1004:./Hardware/hardware/menu_data.c **** 
1005:./Hardware/hardware/menu_data.c **** 	}
1006:./Hardware/hardware/menu_data.c **** }
 2633              		.loc 1 1006 1
 2634 0076 0837     		adds	r7, r7, #8
 2635              	.LCFI113:
 2636              		.cfi_def_cfa_offset 8
 2637 0078 BD46     		mov	sp, r7
 2638              	.LCFI114:
 2639              		.cfi_def_cfa_register 13
 2640              		@ sp needed
 2641 007a 80BD     		pop	{r7, pc}
 2642              	.L265:
 2643              		.align	2
 2644              	.L264:
 2645 007c 34812142 		.word	1109492020
 2646 0080 30812142 		.word	1109492016
 2647              		.cfi_endproc
 2648              	.LFE54:
 2650              		.section	.text.SD8902_Series,"ax",%progbits
 2651              		.align	1
 2652              		.global	SD8902_Series
 2653              		.syntax unified
 2654              		.thumb
 2655              		.thumb_func
 2656              		.fpu softvfp
 2658              	SD8902_Series:
 2659              	.LFB55:
1007:./Hardware/hardware/menu_data.c **** 
1008:./Hardware/hardware/menu_data.c **** 
1009:./Hardware/hardware/menu_data.c **** void SD8902_Series(void)
1010:./Hardware/hardware/menu_data.c **** {
 2660              		.loc 1 1010 1
 2661              		.cfi_startproc
 2662              		@ args = 0, pretend = 0, frame = 8
 2663              		@ frame_needed = 1, uses_anonymous_args = 0
 2664 0000 80B5     		push	{r7, lr}
 2665              	.LCFI115:
 2666              		.cfi_def_cfa_offset 8
 2667              		.cfi_offset 7, -8
 2668              		.cfi_offset 14, -4
 2669 0002 82B0     		sub	sp, sp, #8
 2670              	.LCFI116:
 2671              		.cfi_def_cfa_offset 16
 2672 0004 00AF     		add	r7, sp, #0
 2673              	.LCFI117:
 2674              		.cfi_def_cfa_register 7
1011:./Hardware/hardware/menu_data.c **** 	uint8_t back_press_time = 0;
 2675              		.loc 1 1011 10
ARM GAS  C:\Users\86134\AppData\Local\Temp\ccuTN5uR.s 			page 66


 2676 0006 0023     		movs	r3, #0
 2677 0008 FB71     		strb	r3, [r7, #7]
 2678              	.L271:
1012:./Hardware/hardware/menu_data.c **** 	
1013:./Hardware/hardware/menu_data.c **** 	while(1)
1014:./Hardware/hardware/menu_data.c **** 	{
1015:./Hardware/hardware/menu_data.c **** 		sd8902_time_show();
 2679              		.loc 1 1015 3
 2680 000a FFF7FEFF 		bl	sd8902_time_show
1016:./Hardware/hardware/menu_data.c **** 		OLED_Update();
 2681              		.loc 1 1016 3
 2682 000e FFF7FEFF 		bl	OLED_Update
1017:./Hardware/hardware/menu_data.c **** 		if(Key_back == 0)
 2683              		.loc 1 1017 6
 2684 0012 0D4B     		ldr	r3, .L273
 2685 0014 1B68     		ldr	r3, [r3]
 2686              		.loc 1 1017 5
 2687 0016 002B     		cmp	r3, #0
 2688 0018 0ED1     		bne	.L267
1018:./Hardware/hardware/menu_data.c **** 		{
1019:./Hardware/hardware/menu_data.c **** 			Delay_ms(10); // 消抖
 2689              		.loc 1 1019 4
 2690 001a 0A20     		movs	r0, #10
 2691 001c FFF7FEFF 		bl	Delay_ms
1020:./Hardware/hardware/menu_data.c **** 			back_press_time += 50; // 每次循环递增50ms
 2692              		.loc 1 1020 20
 2693 0020 FB79     		ldrb	r3, [r7, #7]
 2694 0022 3233     		adds	r3, r3, #50
 2695 0024 FB71     		strb	r3, [r7, #7]
1021:./Hardware/hardware/menu_data.c **** 			if(back_press_time >= 100)
 2696              		.loc 1 1021 6
 2697 0026 FB79     		ldrb	r3, [r7, #7]	@ zero_extendqisi2
 2698 0028 632B     		cmp	r3, #99
 2699 002a 08D9     		bls	.L272
1022:./Hardware/hardware/menu_data.c **** 			{
1023:./Hardware/hardware/menu_data.c **** 				// 长按200ms，退出函数
1024:./Hardware/hardware/menu_data.c **** 				while(Key_back == 0); // 等待松手
 2700              		.loc 1 1024 10
 2701 002c 00BF     		nop
 2702              	.L269:
 2703              		.loc 1 1024 11 discriminator 1
 2704 002e 064B     		ldr	r3, .L273
 2705 0030 1B68     		ldr	r3, [r3]
 2706              		.loc 1 1024 10 discriminator 1
 2707 0032 002B     		cmp	r3, #0
 2708 0034 FBD0     		beq	.L269
1025:./Hardware/hardware/menu_data.c **** 				break;
 2709              		.loc 1 1025 5
 2710 0036 03E0     		b	.L266
 2711              	.L267:
1026:./Hardware/hardware/menu_data.c **** 			}
1027:./Hardware/hardware/menu_data.c **** 			return;
1028:./Hardware/hardware/menu_data.c **** 		}
1029:./Hardware/hardware/menu_data.c **** 		else
1030:./Hardware/hardware/menu_data.c **** 		{
1031:./Hardware/hardware/menu_data.c **** 			back_press_time = 0; // 重置计时器
 2712              		.loc 1 1031 20
ARM GAS  C:\Users\86134\AppData\Local\Temp\ccuTN5uR.s 			page 67


 2713 0038 0023     		movs	r3, #0
 2714 003a FB71     		strb	r3, [r7, #7]
1015:./Hardware/hardware/menu_data.c **** 		OLED_Update();
 2715              		.loc 1 1015 3
 2716 003c E5E7     		b	.L271
 2717              	.L272:
1027:./Hardware/hardware/menu_data.c **** 		}
 2718              		.loc 1 1027 4
 2719 003e 00BF     		nop
 2720              	.L266:
1032:./Hardware/hardware/menu_data.c **** 		}
1033:./Hardware/hardware/menu_data.c **** 	}
1034:./Hardware/hardware/menu_data.c **** }
 2721              		.loc 1 1034 1
 2722 0040 0837     		adds	r7, r7, #8
 2723              	.LCFI118:
 2724              		.cfi_def_cfa_offset 8
 2725 0042 BD46     		mov	sp, r7
 2726              	.LCFI119:
 2727              		.cfi_def_cfa_register 13
 2728              		@ sp needed
 2729 0044 80BD     		pop	{r7, pc}
 2730              	.L274:
 2731 0046 00BF     		.align	2
 2732              	.L273:
 2733 0048 34812142 		.word	1109492020
 2734              		.cfi_endproc
 2735              	.LFE55:
 2737              		.section	.text.SD8902_and_std,"ax",%progbits
 2738              		.align	1
 2739              		.global	SD8902_and_std
 2740              		.syntax unified
 2741              		.thumb
 2742              		.thumb_func
 2743              		.fpu softvfp
 2745              	SD8902_and_std:
 2746              	.LFB56:
1035:./Hardware/hardware/menu_data.c **** 
1036:./Hardware/hardware/menu_data.c **** void SD8902_and_std(void)
1037:./Hardware/hardware/menu_data.c **** {
 2747              		.loc 1 1037 1
 2748              		.cfi_startproc
 2749              		@ args = 0, pretend = 0, frame = 8
 2750              		@ frame_needed = 1, uses_anonymous_args = 0
 2751 0000 80B5     		push	{r7, lr}
 2752              	.LCFI120:
 2753              		.cfi_def_cfa_offset 8
 2754              		.cfi_offset 7, -8
 2755              		.cfi_offset 14, -4
 2756 0002 82B0     		sub	sp, sp, #8
 2757              	.LCFI121:
 2758              		.cfi_def_cfa_offset 16
 2759 0004 00AF     		add	r7, sp, #0
 2760              	.LCFI122:
 2761              		.cfi_def_cfa_register 7
1038:./Hardware/hardware/menu_data.c **** 	uint8_t back_press_time = 0;
 2762              		.loc 1 1038 10
ARM GAS  C:\Users\86134\AppData\Local\Temp\ccuTN5uR.s 			page 68


 2763 0006 0023     		movs	r3, #0
 2764 0008 FB71     		strb	r3, [r7, #7]
1039:./Hardware/hardware/menu_data.c **** 	uint8_t enter_press_time = 0;
 2765              		.loc 1 1039 10
 2766 000a 0023     		movs	r3, #0
 2767 000c BB71     		strb	r3, [r7, #6]
1040:./Hardware/hardware/menu_data.c **** 	uint8_t down_press_time = 0;
 2768              		.loc 1 1040 10
 2769 000e 0023     		movs	r3, #0
 2770 0010 7B71     		strb	r3, [r7, #5]
1041:./Hardware/hardware/menu_data.c **** 	uint8_t key_state = 0;
 2771              		.loc 1 1041 10
 2772 0012 0023     		movs	r3, #0
 2773 0014 3B71     		strb	r3, [r7, #4]
 2774              	.L288:
1042:./Hardware/hardware/menu_data.c **** 	
1043:./Hardware/hardware/menu_data.c **** 	while(1)
1044:./Hardware/hardware/menu_data.c **** 	{
1045:./Hardware/hardware/menu_data.c **** 		sd8902_and_std();
 2775              		.loc 1 1045 3
 2776 0016 FFF7FEFF 		bl	sd8902_and_std
1046:./Hardware/hardware/menu_data.c **** 		OLED_Update();
 2777              		.loc 1 1046 3
 2778 001a FFF7FEFF 		bl	OLED_Update
1047:./Hardware/hardware/menu_data.c **** 		
1048:./Hardware/hardware/menu_data.c **** 		if(Key_back == 0)
 2779              		.loc 1 1048 6
 2780 001e 284B     		ldr	r3, .L290
 2781 0020 1B68     		ldr	r3, [r3]
 2782              		.loc 1 1048 5
 2783 0022 002B     		cmp	r3, #0
 2784 0024 0ED1     		bne	.L276
1049:./Hardware/hardware/menu_data.c **** 		{
1050:./Hardware/hardware/menu_data.c **** 			Delay_ms(10); // 消抖
 2785              		.loc 1 1050 4
 2786 0026 0A20     		movs	r0, #10
 2787 0028 FFF7FEFF 		bl	Delay_ms
1051:./Hardware/hardware/menu_data.c **** 			back_press_time += 50; // 每次循环递增50ms
 2788              		.loc 1 1051 20
 2789 002c FB79     		ldrb	r3, [r7, #7]
 2790 002e 3233     		adds	r3, r3, #50
 2791 0030 FB71     		strb	r3, [r7, #7]
1052:./Hardware/hardware/menu_data.c **** 			if(back_press_time >= 100)
 2792              		.loc 1 1052 6
 2793 0032 FB79     		ldrb	r3, [r7, #7]	@ zero_extendqisi2
 2794 0034 632B     		cmp	r3, #99
 2795 0036 3FD9     		bls	.L289
1053:./Hardware/hardware/menu_data.c **** 			{
1054:./Hardware/hardware/menu_data.c **** 				// 长按200ms，退出函数
1055:./Hardware/hardware/menu_data.c **** 				while(Key_back == 0); // 等待松手
 2796              		.loc 1 1055 10
 2797 0038 00BF     		nop
 2798              	.L278:
 2799              		.loc 1 1055 11 discriminator 1
 2800 003a 214B     		ldr	r3, .L290
 2801 003c 1B68     		ldr	r3, [r3]
 2802              		.loc 1 1055 10 discriminator 1
ARM GAS  C:\Users\86134\AppData\Local\Temp\ccuTN5uR.s 			page 69


 2803 003e 002B     		cmp	r3, #0
 2804 0040 FBD0     		beq	.L278
1056:./Hardware/hardware/menu_data.c **** 				break;
 2805              		.loc 1 1056 5
 2806 0042 3AE0     		b	.L275
 2807              	.L276:
1057:./Hardware/hardware/menu_data.c **** 			}
1058:./Hardware/hardware/menu_data.c **** 			return;
1059:./Hardware/hardware/menu_data.c **** 		}
1060:./Hardware/hardware/menu_data.c **** 		else
1061:./Hardware/hardware/menu_data.c **** 		{
1062:./Hardware/hardware/menu_data.c **** 			back_press_time = 0; // 重置计时器
 2808              		.loc 1 1062 20
 2809 0044 0023     		movs	r3, #0
 2810 0046 FB71     		strb	r3, [r7, #7]
1063:./Hardware/hardware/menu_data.c **** 		}
1064:./Hardware/hardware/menu_data.c **** 		
1065:./Hardware/hardware/menu_data.c **** 		if(Key_up == 0)
 2811              		.loc 1 1065 6
 2812 0048 1E4B     		ldr	r3, .L290+4
 2813 004a 1B68     		ldr	r3, [r3]
 2814              		.loc 1 1065 5
 2815 004c 002B     		cmp	r3, #0
 2816 004e 12D1     		bne	.L280
1066:./Hardware/hardware/menu_data.c **** 		{
1067:./Hardware/hardware/menu_data.c **** 			Delay_ms(10); // 消抖
 2817              		.loc 1 1067 4
 2818 0050 0A20     		movs	r0, #10
 2819 0052 FFF7FEFF 		bl	Delay_ms
1068:./Hardware/hardware/menu_data.c **** 			enter_press_time += 50; // 每次循环递增50ms
 2820              		.loc 1 1068 21
 2821 0056 BB79     		ldrb	r3, [r7, #6]
 2822 0058 3233     		adds	r3, r3, #50
 2823 005a BB71     		strb	r3, [r7, #6]
1069:./Hardware/hardware/menu_data.c **** 			if(enter_press_time >= 100)
 2824              		.loc 1 1069 6
 2825 005c BB79     		ldrb	r3, [r7, #6]	@ zero_extendqisi2
 2826 005e 632B     		cmp	r3, #99
 2827 0060 0BD9     		bls	.L281
1070:./Hardware/hardware/menu_data.c **** 			{
1071:./Hardware/hardware/menu_data.c **** 				// 长按200ms，退出函数
1072:./Hardware/hardware/menu_data.c **** 				while(Key_up == 0) // 等待松手
 2828              		.loc 1 1072 10
 2829 0062 03E0     		b	.L282
 2830              	.L283:
1073:./Hardware/hardware/menu_data.c **** 				{
1074:./Hardware/hardware/menu_data.c **** 					sd8902_time_copy();
 2831              		.loc 1 1074 6
 2832 0064 FFF7FEFF 		bl	sd8902_time_copy
1075:./Hardware/hardware/menu_data.c **** 					OLED_Update();
 2833              		.loc 1 1075 6
 2834 0068 FFF7FEFF 		bl	OLED_Update
 2835              	.L282:
1072:./Hardware/hardware/menu_data.c **** 				{
 2836              		.loc 1 1072 11
 2837 006c 154B     		ldr	r3, .L290+4
 2838 006e 1B68     		ldr	r3, [r3]
ARM GAS  C:\Users\86134\AppData\Local\Temp\ccuTN5uR.s 			page 70


1072:./Hardware/hardware/menu_data.c **** 				{
 2839              		.loc 1 1072 10
 2840 0070 002B     		cmp	r3, #0
 2841 0072 F7D0     		beq	.L283
 2842 0074 01E0     		b	.L281
 2843              	.L280:
1076:./Hardware/hardware/menu_data.c **** 				}
1077:./Hardware/hardware/menu_data.c **** 			} 
1078:./Hardware/hardware/menu_data.c **** 		}
1079:./Hardware/hardware/menu_data.c **** 		else
1080:./Hardware/hardware/menu_data.c **** 		{
1081:./Hardware/hardware/menu_data.c **** 			enter_press_time = 0; // 重置计时器
 2844              		.loc 1 1081 21
 2845 0076 0023     		movs	r3, #0
 2846 0078 BB71     		strb	r3, [r7, #6]
 2847              	.L281:
1082:./Hardware/hardware/menu_data.c **** 		}
1083:./Hardware/hardware/menu_data.c **** /******************下按键************************/
1084:./Hardware/hardware/menu_data.c ****     if (Key_down == 0)
 2848              		.loc 1 1084 9
 2849 007a 134B     		ldr	r3, .L290+8
 2850 007c 1B68     		ldr	r3, [r3]
 2851              		.loc 1 1084 8
 2852 007e 002B     		cmp	r3, #0
 2853 0080 17D1     		bne	.L284
1085:./Hardware/hardware/menu_data.c **** 	{
1086:./Hardware/hardware/menu_data.c ****         Delay_ms(10); // 消抖
 2854              		.loc 1 1086 9
 2855 0082 0A20     		movs	r0, #10
 2856 0084 FFF7FEFF 		bl	Delay_ms
1087:./Hardware/hardware/menu_data.c ****         down_press_time += 50; // 每次循环递增50ms
 2857              		.loc 1 1087 25
 2858 0088 7B79     		ldrb	r3, [r7, #5]
 2859 008a 3233     		adds	r3, r3, #50
 2860 008c 7B71     		strb	r3, [r7, #5]
1088:./Hardware/hardware/menu_data.c ****         if (down_press_time >= 100)
 2861              		.loc 1 1088 12
 2862 008e 7B79     		ldrb	r3, [r7, #5]	@ zero_extendqisi2
 2863 0090 632B     		cmp	r3, #99
 2864 0092 C0D9     		bls	.L288
1089:./Hardware/hardware/menu_data.c **** 		{
1090:./Hardware/hardware/menu_data.c ****             if (key_state == 0) 
 2865              		.loc 1 1090 16
 2866 0094 3B79     		ldrb	r3, [r7, #4]	@ zero_extendqisi2
 2867 0096 002B     		cmp	r3, #0
 2868 0098 04D1     		bne	.L286
1091:./Hardware/hardware/menu_data.c **** 			{
1092:./Hardware/hardware/menu_data.c ****                 sd8902_charge_on(); // 执行sd3xxx_charge_on()函数
 2869              		.loc 1 1092 17
 2870 009a FFF7FEFF 		bl	sd8902_charge_on
1093:./Hardware/hardware/menu_data.c ****                 key_state = 1; // 更新按键状态为已按下
 2871              		.loc 1 1093 27
 2872 009e 0123     		movs	r3, #1
 2873 00a0 3B71     		strb	r3, [r7, #4]
 2874 00a2 03E0     		b	.L287
 2875              	.L286:
1094:./Hardware/hardware/menu_data.c ****             } else {
ARM GAS  C:\Users\86134\AppData\Local\Temp\ccuTN5uR.s 			page 71


1095:./Hardware/hardware/menu_data.c ****                 sd8902_charge_off(); // 执行sd3xxx_charge_off()函数
 2876              		.loc 1 1095 17
 2877 00a4 FFF7FEFF 		bl	sd8902_charge_off
1096:./Hardware/hardware/menu_data.c ****                 key_state = 0; // 更新按键状态为未按下
 2878              		.loc 1 1096 27
 2879 00a8 0023     		movs	r3, #0
 2880 00aa 3B71     		strb	r3, [r7, #4]
 2881              	.L287:
1097:./Hardware/hardware/menu_data.c ****             }
1098:./Hardware/hardware/menu_data.c ****             down_press_time = 0; // 重置计时器
 2882              		.loc 1 1098 29
 2883 00ac 0023     		movs	r3, #0
 2884 00ae 7B71     		strb	r3, [r7, #5]
 2885 00b0 B1E7     		b	.L288
 2886              	.L284:
1099:./Hardware/hardware/menu_data.c ****         }
1100:./Hardware/hardware/menu_data.c ****     } else {
1101:./Hardware/hardware/menu_data.c ****         down_press_time = 0; // 重置计时器
 2887              		.loc 1 1101 25
 2888 00b2 0023     		movs	r3, #0
 2889 00b4 7B71     		strb	r3, [r7, #5]
1045:./Hardware/hardware/menu_data.c **** 		OLED_Update();
 2890              		.loc 1 1045 3
 2891 00b6 AEE7     		b	.L288
 2892              	.L289:
1058:./Hardware/hardware/menu_data.c **** 		}
 2893              		.loc 1 1058 4
 2894 00b8 00BF     		nop
 2895              	.L275:
1102:./Hardware/hardware/menu_data.c **** 		
1103:./Hardware/hardware/menu_data.c **** 		}		
1104:./Hardware/hardware/menu_data.c **** 
1105:./Hardware/hardware/menu_data.c **** 	}
1106:./Hardware/hardware/menu_data.c **** }
 2896              		.loc 1 1106 1
 2897 00ba 0837     		adds	r7, r7, #8
 2898              	.LCFI123:
 2899              		.cfi_def_cfa_offset 8
 2900 00bc BD46     		mov	sp, r7
 2901              	.LCFI124:
 2902              		.cfi_def_cfa_register 13
 2903              		@ sp needed
 2904 00be 80BD     		pop	{r7, pc}
 2905              	.L291:
 2906              		.align	2
 2907              	.L290:
 2908 00c0 34812142 		.word	1109492020
 2909 00c4 30812142 		.word	1109492016
 2910 00c8 38812142 		.word	1109492024
 2911              		.cfi_endproc
 2912              	.LFE56:
 2914              		.section	.text.null,"ax",%progbits
 2915              		.align	1
 2916              		.global	null
 2917              		.syntax unified
 2918              		.thumb
 2919              		.thumb_func
ARM GAS  C:\Users\86134\AppData\Local\Temp\ccuTN5uR.s 			page 72


 2920              		.fpu softvfp
 2922              	null:
 2923              	.LFB57:
1107:./Hardware/hardware/menu_data.c **** 
1108:./Hardware/hardware/menu_data.c **** void null(void)
1109:./Hardware/hardware/menu_data.c **** {
 2924              		.loc 1 1109 1
 2925              		.cfi_startproc
 2926              		@ args = 0, pretend = 0, frame = 0
 2927              		@ frame_needed = 1, uses_anonymous_args = 0
 2928              		@ link register save eliminated.
 2929 0000 80B4     		push	{r7}
 2930              	.LCFI125:
 2931              		.cfi_def_cfa_offset 4
 2932              		.cfi_offset 7, -4
 2933 0002 00AF     		add	r7, sp, #0
 2934              	.LCFI126:
 2935              		.cfi_def_cfa_register 7
1110:./Hardware/hardware/menu_data.c **** 
1111:./Hardware/hardware/menu_data.c **** 
1112:./Hardware/hardware/menu_data.c **** }
 2936              		.loc 1 1112 1
 2937 0004 00BF     		nop
 2938 0006 BD46     		mov	sp, r7
 2939              	.LCFI127:
 2940              		.cfi_def_cfa_register 13
 2941              		@ sp needed
 2942 0008 80BC     		pop	{r7}
 2943              	.LCFI128:
 2944              		.cfi_restore 7
 2945              		.cfi_def_cfa_offset 0
 2946 000a 7047     		bx	lr
 2947              		.cfi_endproc
 2948              	.LFE57:
 2950              		.section	.text.f32768_8563_Out,"ax",%progbits
 2951              		.align	1
 2952              		.global	f32768_8563_Out
 2953              		.syntax unified
 2954              		.thumb
 2955              		.thumb_func
 2956              		.fpu softvfp
 2958              	f32768_8563_Out:
 2959              	.LFB58:
1113:./Hardware/hardware/menu_data.c **** 
1114:./Hardware/hardware/menu_data.c **** 
1115:./Hardware/hardware/menu_data.c **** 
1116:./Hardware/hardware/menu_data.c **** void f32768_8563_Out(void)
1117:./Hardware/hardware/menu_data.c **** {
 2960              		.loc 1 1117 1
 2961              		.cfi_startproc
 2962              		@ args = 0, pretend = 0, frame = 8
 2963              		@ frame_needed = 1, uses_anonymous_args = 0
 2964 0000 80B5     		push	{r7, lr}
 2965              	.LCFI129:
 2966              		.cfi_def_cfa_offset 8
 2967              		.cfi_offset 7, -8
 2968              		.cfi_offset 14, -4
ARM GAS  C:\Users\86134\AppData\Local\Temp\ccuTN5uR.s 			page 73


 2969 0002 82B0     		sub	sp, sp, #8
 2970              	.LCFI130:
 2971              		.cfi_def_cfa_offset 16
 2972 0004 00AF     		add	r7, sp, #0
 2973              	.LCFI131:
 2974              		.cfi_def_cfa_register 7
1118:./Hardware/hardware/menu_data.c **** 	uint8_t back_press_time = 0;
 2975              		.loc 1 1118 10
 2976 0006 0023     		movs	r3, #0
 2977 0008 FB71     		strb	r3, [r7, #7]
 2978              	.L298:
1119:./Hardware/hardware/menu_data.c **** 	
1120:./Hardware/hardware/menu_data.c **** 	while(1)
1121:./Hardware/hardware/menu_data.c **** 	{
1122:./Hardware/hardware/menu_data.c **** 		sd8563_f32768(IIC_TEST);
 2979              		.loc 1 1122 3
 2980 000a 0020     		movs	r0, #0
 2981 000c FFF7FEFF 		bl	sd8563_f32768
1123:./Hardware/hardware/menu_data.c **** 		OLED_Update();
 2982              		.loc 1 1123 3
 2983 0010 FFF7FEFF 		bl	OLED_Update
1124:./Hardware/hardware/menu_data.c **** 		if(Key_back == 0)
 2984              		.loc 1 1124 6
 2985 0014 0E4B     		ldr	r3, .L299
 2986 0016 1B68     		ldr	r3, [r3]
 2987              		.loc 1 1124 5
 2988 0018 002B     		cmp	r3, #0
 2989 001a 12D1     		bne	.L294
1125:./Hardware/hardware/menu_data.c **** 		{
1126:./Hardware/hardware/menu_data.c **** 			Delay_ms(10); // 消抖
 2990              		.loc 1 1126 4
 2991 001c 0A20     		movs	r0, #10
 2992 001e FFF7FEFF 		bl	Delay_ms
1127:./Hardware/hardware/menu_data.c **** 			back_press_time += 50; // 每次循环递增50ms
 2993              		.loc 1 1127 20
 2994 0022 FB79     		ldrb	r3, [r7, #7]
 2995 0024 3233     		adds	r3, r3, #50
 2996 0026 FB71     		strb	r3, [r7, #7]
1128:./Hardware/hardware/menu_data.c **** 			if(back_press_time >= 100)
 2997              		.loc 1 1128 6
 2998 0028 FB79     		ldrb	r3, [r7, #7]	@ zero_extendqisi2
 2999 002a 632B     		cmp	r3, #99
 3000 002c 05D9     		bls	.L295
1129:./Hardware/hardware/menu_data.c **** 			{
1130:./Hardware/hardware/menu_data.c **** 				// 长按200ms，退出函数
1131:./Hardware/hardware/menu_data.c **** 				while(Key_back == 0); // 等待松手
 3001              		.loc 1 1131 10
 3002 002e 00BF     		nop
 3003              	.L296:
 3004              		.loc 1 1131 11 discriminator 1
 3005 0030 074B     		ldr	r3, .L299
 3006 0032 1B68     		ldr	r3, [r3]
 3007              		.loc 1 1131 10 discriminator 1
 3008 0034 002B     		cmp	r3, #0
 3009 0036 FBD0     		beq	.L296
1132:./Hardware/hardware/menu_data.c **** 				break;
 3010              		.loc 1 1132 5
ARM GAS  C:\Users\86134\AppData\Local\Temp\ccuTN5uR.s 			page 74


 3011 0038 06E0     		b	.L293
 3012              	.L295:
1133:./Hardware/hardware/menu_data.c **** 			}
1134:./Hardware/hardware/menu_data.c **** 			sd8563_f32768_off(IIC_TEST);
 3013              		.loc 1 1134 4
 3014 003a 0020     		movs	r0, #0
 3015 003c FFF7FEFF 		bl	sd8563_f32768_off
1135:./Hardware/hardware/menu_data.c **** 			return;
 3016              		.loc 1 1135 4
 3017 0040 02E0     		b	.L293
 3018              	.L294:
1136:./Hardware/hardware/menu_data.c **** 		}
1137:./Hardware/hardware/menu_data.c **** 		else
1138:./Hardware/hardware/menu_data.c **** 		{
1139:./Hardware/hardware/menu_data.c **** 			back_press_time = 0; // 重置计时器
 3019              		.loc 1 1139 20
 3020 0042 0023     		movs	r3, #0
 3021 0044 FB71     		strb	r3, [r7, #7]
1122:./Hardware/hardware/menu_data.c **** 		OLED_Update();
 3022              		.loc 1 1122 3
 3023 0046 E0E7     		b	.L298
 3024              	.L293:
1140:./Hardware/hardware/menu_data.c **** 		}
1141:./Hardware/hardware/menu_data.c **** 	}
1142:./Hardware/hardware/menu_data.c **** 	
1143:./Hardware/hardware/menu_data.c **** }
 3025              		.loc 1 1143 1
 3026 0048 0837     		adds	r7, r7, #8
 3027              	.LCFI132:
 3028              		.cfi_def_cfa_offset 8
 3029 004a BD46     		mov	sp, r7
 3030              	.LCFI133:
 3031              		.cfi_def_cfa_register 13
 3032              		@ sp needed
 3033 004c 80BD     		pop	{r7, pc}
 3034              	.L300:
 3035 004e 00BF     		.align	2
 3036              	.L299:
 3037 0050 34812142 		.word	1109492020
 3038              		.cfi_endproc
 3039              	.LFE58:
 3041              		.section	.text.f1024_8563_Out,"ax",%progbits
 3042              		.align	1
 3043              		.global	f1024_8563_Out
 3044              		.syntax unified
 3045              		.thumb
 3046              		.thumb_func
 3047              		.fpu softvfp
 3049              	f1024_8563_Out:
 3050              	.LFB59:
1144:./Hardware/hardware/menu_data.c **** 
1145:./Hardware/hardware/menu_data.c **** void f1024_8563_Out(void)
1146:./Hardware/hardware/menu_data.c **** {
 3051              		.loc 1 1146 1
 3052              		.cfi_startproc
 3053              		@ args = 0, pretend = 0, frame = 8
 3054              		@ frame_needed = 1, uses_anonymous_args = 0
ARM GAS  C:\Users\86134\AppData\Local\Temp\ccuTN5uR.s 			page 75


 3055 0000 80B5     		push	{r7, lr}
 3056              	.LCFI134:
 3057              		.cfi_def_cfa_offset 8
 3058              		.cfi_offset 7, -8
 3059              		.cfi_offset 14, -4
 3060 0002 82B0     		sub	sp, sp, #8
 3061              	.LCFI135:
 3062              		.cfi_def_cfa_offset 16
 3063 0004 00AF     		add	r7, sp, #0
 3064              	.LCFI136:
 3065              		.cfi_def_cfa_register 7
1147:./Hardware/hardware/menu_data.c **** 	uint8_t back_press_time = 0;
 3066              		.loc 1 1147 10
 3067 0006 0023     		movs	r3, #0
 3068 0008 FB71     		strb	r3, [r7, #7]
 3069              	.L306:
1148:./Hardware/hardware/menu_data.c **** 	
1149:./Hardware/hardware/menu_data.c **** 	while(1)
1150:./Hardware/hardware/menu_data.c **** 	{
1151:./Hardware/hardware/menu_data.c **** 		sd8563_f1024(IIC_TEST);
 3070              		.loc 1 1151 3
 3071 000a 0020     		movs	r0, #0
 3072 000c FFF7FEFF 		bl	sd8563_f1024
1152:./Hardware/hardware/menu_data.c **** 		OLED_Update();
 3073              		.loc 1 1152 3
 3074 0010 FFF7FEFF 		bl	OLED_Update
1153:./Hardware/hardware/menu_data.c **** 		if(Key_back == 0)
 3075              		.loc 1 1153 6
 3076 0014 0E4B     		ldr	r3, .L307
 3077 0016 1B68     		ldr	r3, [r3]
 3078              		.loc 1 1153 5
 3079 0018 002B     		cmp	r3, #0
 3080 001a 12D1     		bne	.L302
1154:./Hardware/hardware/menu_data.c **** 		{
1155:./Hardware/hardware/menu_data.c **** 			Delay_ms(10); // 消抖
 3081              		.loc 1 1155 4
 3082 001c 0A20     		movs	r0, #10
 3083 001e FFF7FEFF 		bl	Delay_ms
1156:./Hardware/hardware/menu_data.c **** 			back_press_time += 50; // 每次循环递增50ms
 3084              		.loc 1 1156 20
 3085 0022 FB79     		ldrb	r3, [r7, #7]
 3086 0024 3233     		adds	r3, r3, #50
 3087 0026 FB71     		strb	r3, [r7, #7]
1157:./Hardware/hardware/menu_data.c **** 			if(back_press_time >= 100)
 3088              		.loc 1 1157 6
 3089 0028 FB79     		ldrb	r3, [r7, #7]	@ zero_extendqisi2
 3090 002a 632B     		cmp	r3, #99
 3091 002c 05D9     		bls	.L303
1158:./Hardware/hardware/menu_data.c **** 			{
1159:./Hardware/hardware/menu_data.c **** 				// 长按200ms，退出函数
1160:./Hardware/hardware/menu_data.c **** 				while(Key_back == 0); // 等待松手
 3092              		.loc 1 1160 10
 3093 002e 00BF     		nop
 3094              	.L304:
 3095              		.loc 1 1160 11 discriminator 1
 3096 0030 074B     		ldr	r3, .L307
 3097 0032 1B68     		ldr	r3, [r3]
ARM GAS  C:\Users\86134\AppData\Local\Temp\ccuTN5uR.s 			page 76


 3098              		.loc 1 1160 10 discriminator 1
 3099 0034 002B     		cmp	r3, #0
 3100 0036 FBD0     		beq	.L304
1161:./Hardware/hardware/menu_data.c **** 				break;
 3101              		.loc 1 1161 5
 3102 0038 06E0     		b	.L301
 3103              	.L303:
1162:./Hardware/hardware/menu_data.c **** 			}
1163:./Hardware/hardware/menu_data.c **** 			sd8563_f1024_off(IIC_TEST);
 3104              		.loc 1 1163 4
 3105 003a 0020     		movs	r0, #0
 3106 003c FFF7FEFF 		bl	sd8563_f1024_off
1164:./Hardware/hardware/menu_data.c **** 			return;
 3107              		.loc 1 1164 4
 3108 0040 02E0     		b	.L301
 3109              	.L302:
1165:./Hardware/hardware/menu_data.c **** 		}
1166:./Hardware/hardware/menu_data.c **** 		else
1167:./Hardware/hardware/menu_data.c **** 		{
1168:./Hardware/hardware/menu_data.c **** 			back_press_time = 0; // 重置计时器
 3110              		.loc 1 1168 20
 3111 0042 0023     		movs	r3, #0
 3112 0044 FB71     		strb	r3, [r7, #7]
1151:./Hardware/hardware/menu_data.c **** 		OLED_Update();
 3113              		.loc 1 1151 3
 3114 0046 E0E7     		b	.L306
 3115              	.L301:
1169:./Hardware/hardware/menu_data.c **** 		}
1170:./Hardware/hardware/menu_data.c **** 	}
1171:./Hardware/hardware/menu_data.c **** 
1172:./Hardware/hardware/menu_data.c **** }
 3116              		.loc 1 1172 1
 3117 0048 0837     		adds	r7, r7, #8
 3118              	.LCFI137:
 3119              		.cfi_def_cfa_offset 8
 3120 004a BD46     		mov	sp, r7
 3121              	.LCFI138:
 3122              		.cfi_def_cfa_register 13
 3123              		@ sp needed
 3124 004c 80BD     		pop	{r7, pc}
 3125              	.L308:
 3126 004e 00BF     		.align	2
 3127              	.L307:
 3128 0050 34812142 		.word	1109492020
 3129              		.cfi_endproc
 3130              	.LFE59:
 3132              		.section	.text.f32_8563_Out,"ax",%progbits
 3133              		.align	1
 3134              		.global	f32_8563_Out
 3135              		.syntax unified
 3136              		.thumb
 3137              		.thumb_func
 3138              		.fpu softvfp
 3140              	f32_8563_Out:
 3141              	.LFB60:
1173:./Hardware/hardware/menu_data.c **** 
1174:./Hardware/hardware/menu_data.c **** void f32_8563_Out(void)
ARM GAS  C:\Users\86134\AppData\Local\Temp\ccuTN5uR.s 			page 77


1175:./Hardware/hardware/menu_data.c **** {
 3142              		.loc 1 1175 1
 3143              		.cfi_startproc
 3144              		@ args = 0, pretend = 0, frame = 8
 3145              		@ frame_needed = 1, uses_anonymous_args = 0
 3146 0000 80B5     		push	{r7, lr}
 3147              	.LCFI139:
 3148              		.cfi_def_cfa_offset 8
 3149              		.cfi_offset 7, -8
 3150              		.cfi_offset 14, -4
 3151 0002 82B0     		sub	sp, sp, #8
 3152              	.LCFI140:
 3153              		.cfi_def_cfa_offset 16
 3154 0004 00AF     		add	r7, sp, #0
 3155              	.LCFI141:
 3156              		.cfi_def_cfa_register 7
1176:./Hardware/hardware/menu_data.c **** 	uint8_t back_press_time = 0;
 3157              		.loc 1 1176 10
 3158 0006 0023     		movs	r3, #0
 3159 0008 FB71     		strb	r3, [r7, #7]
 3160              	.L314:
1177:./Hardware/hardware/menu_data.c **** 	
1178:./Hardware/hardware/menu_data.c **** 	while(1)
1179:./Hardware/hardware/menu_data.c **** 	{
1180:./Hardware/hardware/menu_data.c **** 		sd8563_f32(IIC_TEST);
 3161              		.loc 1 1180 3
 3162 000a 0020     		movs	r0, #0
 3163 000c FFF7FEFF 		bl	sd8563_f32
1181:./Hardware/hardware/menu_data.c **** 		OLED_Update();
 3164              		.loc 1 1181 3
 3165 0010 FFF7FEFF 		bl	OLED_Update
1182:./Hardware/hardware/menu_data.c **** 		if(Key_back == 0)
 3166              		.loc 1 1182 6
 3167 0014 0E4B     		ldr	r3, .L315
 3168 0016 1B68     		ldr	r3, [r3]
 3169              		.loc 1 1182 5
 3170 0018 002B     		cmp	r3, #0
 3171 001a 12D1     		bne	.L310
1183:./Hardware/hardware/menu_data.c **** 		{
1184:./Hardware/hardware/menu_data.c **** 			Delay_ms(10); // 消抖
 3172              		.loc 1 1184 4
 3173 001c 0A20     		movs	r0, #10
 3174 001e FFF7FEFF 		bl	Delay_ms
1185:./Hardware/hardware/menu_data.c **** 			back_press_time += 50; // 每次循环递增50ms
 3175              		.loc 1 1185 20
 3176 0022 FB79     		ldrb	r3, [r7, #7]
 3177 0024 3233     		adds	r3, r3, #50
 3178 0026 FB71     		strb	r3, [r7, #7]
1186:./Hardware/hardware/menu_data.c **** 			if(back_press_time >= 100)
 3179              		.loc 1 1186 6
 3180 0028 FB79     		ldrb	r3, [r7, #7]	@ zero_extendqisi2
 3181 002a 632B     		cmp	r3, #99
 3182 002c 05D9     		bls	.L311
1187:./Hardware/hardware/menu_data.c **** 			{
1188:./Hardware/hardware/menu_data.c **** 				// 长按200ms，退出函数
1189:./Hardware/hardware/menu_data.c **** 				while(Key_back == 0); // 等待松手
 3183              		.loc 1 1189 10
ARM GAS  C:\Users\86134\AppData\Local\Temp\ccuTN5uR.s 			page 78


 3184 002e 00BF     		nop
 3185              	.L312:
 3186              		.loc 1 1189 11 discriminator 1
 3187 0030 074B     		ldr	r3, .L315
 3188 0032 1B68     		ldr	r3, [r3]
 3189              		.loc 1 1189 10 discriminator 1
 3190 0034 002B     		cmp	r3, #0
 3191 0036 FBD0     		beq	.L312
1190:./Hardware/hardware/menu_data.c **** 				break;
 3192              		.loc 1 1190 5
 3193 0038 06E0     		b	.L309
 3194              	.L311:
1191:./Hardware/hardware/menu_data.c **** 			}
1192:./Hardware/hardware/menu_data.c **** 			sd8563_f32_off(IIC_TEST);
 3195              		.loc 1 1192 4
 3196 003a 0020     		movs	r0, #0
 3197 003c FFF7FEFF 		bl	sd8563_f32_off
1193:./Hardware/hardware/menu_data.c **** 			return;
 3198              		.loc 1 1193 4
 3199 0040 02E0     		b	.L309
 3200              	.L310:
1194:./Hardware/hardware/menu_data.c **** 		}
1195:./Hardware/hardware/menu_data.c **** 		else
1196:./Hardware/hardware/menu_data.c **** 		{
1197:./Hardware/hardware/menu_data.c **** 			back_press_time = 0; // 重置计时器
 3201              		.loc 1 1197 20
 3202 0042 0023     		movs	r3, #0
 3203 0044 FB71     		strb	r3, [r7, #7]
1180:./Hardware/hardware/menu_data.c **** 		OLED_Update();
 3204              		.loc 1 1180 3
 3205 0046 E0E7     		b	.L314
 3206              	.L309:
1198:./Hardware/hardware/menu_data.c **** 		}
1199:./Hardware/hardware/menu_data.c **** 	}
1200:./Hardware/hardware/menu_data.c **** }
 3207              		.loc 1 1200 1
 3208 0048 0837     		adds	r7, r7, #8
 3209              	.LCFI142:
 3210              		.cfi_def_cfa_offset 8
 3211 004a BD46     		mov	sp, r7
 3212              	.LCFI143:
 3213              		.cfi_def_cfa_register 13
 3214              		@ sp needed
 3215 004c 80BD     		pop	{r7, pc}
 3216              	.L316:
 3217 004e 00BF     		.align	2
 3218              	.L315:
 3219 0050 34812142 		.word	1109492020
 3220              		.cfi_endproc
 3221              	.LFE60:
 3223              		.section	.text.f1_8563_Out,"ax",%progbits
 3224              		.align	1
 3225              		.global	f1_8563_Out
 3226              		.syntax unified
 3227              		.thumb
 3228              		.thumb_func
 3229              		.fpu softvfp
ARM GAS  C:\Users\86134\AppData\Local\Temp\ccuTN5uR.s 			page 79


 3231              	f1_8563_Out:
 3232              	.LFB61:
1201:./Hardware/hardware/menu_data.c **** 
1202:./Hardware/hardware/menu_data.c **** void f1_8563_Out(void)
1203:./Hardware/hardware/menu_data.c **** {
 3233              		.loc 1 1203 1
 3234              		.cfi_startproc
 3235              		@ args = 0, pretend = 0, frame = 8
 3236              		@ frame_needed = 1, uses_anonymous_args = 0
 3237 0000 80B5     		push	{r7, lr}
 3238              	.LCFI144:
 3239              		.cfi_def_cfa_offset 8
 3240              		.cfi_offset 7, -8
 3241              		.cfi_offset 14, -4
 3242 0002 82B0     		sub	sp, sp, #8
 3243              	.LCFI145:
 3244              		.cfi_def_cfa_offset 16
 3245 0004 00AF     		add	r7, sp, #0
 3246              	.LCFI146:
 3247              		.cfi_def_cfa_register 7
1204:./Hardware/hardware/menu_data.c **** 	uint8_t back_press_time = 0;
 3248              		.loc 1 1204 10
 3249 0006 0023     		movs	r3, #0
 3250 0008 FB71     		strb	r3, [r7, #7]
 3251              	.L322:
1205:./Hardware/hardware/menu_data.c **** 	
1206:./Hardware/hardware/menu_data.c **** 	while(1)
1207:./Hardware/hardware/menu_data.c **** 	{
1208:./Hardware/hardware/menu_data.c **** 		sd8563_f1(IIC_TEST);
 3252              		.loc 1 1208 3
 3253 000a 0020     		movs	r0, #0
 3254 000c FFF7FEFF 		bl	sd8563_f1
1209:./Hardware/hardware/menu_data.c **** 		OLED_Update();
 3255              		.loc 1 1209 3
 3256 0010 FFF7FEFF 		bl	OLED_Update
1210:./Hardware/hardware/menu_data.c **** 		if(Key_back == 0)
 3257              		.loc 1 1210 6
 3258 0014 0E4B     		ldr	r3, .L323
 3259 0016 1B68     		ldr	r3, [r3]
 3260              		.loc 1 1210 5
 3261 0018 002B     		cmp	r3, #0
 3262 001a 12D1     		bne	.L318
1211:./Hardware/hardware/menu_data.c **** 		{
1212:./Hardware/hardware/menu_data.c **** 			Delay_ms(10); // 消抖
 3263              		.loc 1 1212 4
 3264 001c 0A20     		movs	r0, #10
 3265 001e FFF7FEFF 		bl	Delay_ms
1213:./Hardware/hardware/menu_data.c **** 			back_press_time += 50; // 每次循环递增50ms
 3266              		.loc 1 1213 20
 3267 0022 FB79     		ldrb	r3, [r7, #7]
 3268 0024 3233     		adds	r3, r3, #50
 3269 0026 FB71     		strb	r3, [r7, #7]
1214:./Hardware/hardware/menu_data.c **** 			if(back_press_time >= 100)
 3270              		.loc 1 1214 6
 3271 0028 FB79     		ldrb	r3, [r7, #7]	@ zero_extendqisi2
 3272 002a 632B     		cmp	r3, #99
 3273 002c 05D9     		bls	.L319
ARM GAS  C:\Users\86134\AppData\Local\Temp\ccuTN5uR.s 			page 80


1215:./Hardware/hardware/menu_data.c **** 			{
1216:./Hardware/hardware/menu_data.c **** 				// 长按200ms，退出函数
1217:./Hardware/hardware/menu_data.c **** 				while(Key_back == 0); // 等待松手
 3274              		.loc 1 1217 10
 3275 002e 00BF     		nop
 3276              	.L320:
 3277              		.loc 1 1217 11 discriminator 1
 3278 0030 074B     		ldr	r3, .L323
 3279 0032 1B68     		ldr	r3, [r3]
 3280              		.loc 1 1217 10 discriminator 1
 3281 0034 002B     		cmp	r3, #0
 3282 0036 FBD0     		beq	.L320
1218:./Hardware/hardware/menu_data.c **** 				break;
 3283              		.loc 1 1218 5
 3284 0038 06E0     		b	.L317
 3285              	.L319:
1219:./Hardware/hardware/menu_data.c **** 			}
1220:./Hardware/hardware/menu_data.c **** 			sd8563_f1_off(IIC_TEST);
 3286              		.loc 1 1220 4
 3287 003a 0020     		movs	r0, #0
 3288 003c FFF7FEFF 		bl	sd8563_f1_off
1221:./Hardware/hardware/menu_data.c **** 			return;
 3289              		.loc 1 1221 4
 3290 0040 02E0     		b	.L317
 3291              	.L318:
1222:./Hardware/hardware/menu_data.c **** 		}
1223:./Hardware/hardware/menu_data.c **** 		else
1224:./Hardware/hardware/menu_data.c **** 		{
1225:./Hardware/hardware/menu_data.c **** 			back_press_time = 0; // 重置计时器
 3292              		.loc 1 1225 20
 3293 0042 0023     		movs	r3, #0
 3294 0044 FB71     		strb	r3, [r7, #7]
1208:./Hardware/hardware/menu_data.c **** 		OLED_Update();
 3295              		.loc 1 1208 3
 3296 0046 E0E7     		b	.L322
 3297              	.L317:
1226:./Hardware/hardware/menu_data.c **** 		}
1227:./Hardware/hardware/menu_data.c **** 	}
1228:./Hardware/hardware/menu_data.c **** }
 3298              		.loc 1 1228 1
 3299 0048 0837     		adds	r7, r7, #8
 3300              	.LCFI147:
 3301              		.cfi_def_cfa_offset 8
 3302 004a BD46     		mov	sp, r7
 3303              	.LCFI148:
 3304              		.cfi_def_cfa_register 13
 3305              		@ sp needed
 3306 004c 80BD     		pop	{r7, pc}
 3307              	.L324:
 3308 004e 00BF     		.align	2
 3309              	.L323:
 3310 0050 34812142 		.word	1109492020
 3311              		.cfi_endproc
 3312              	.LFE61:
 3314              		.section	.text.f32768_8939_Out,"ax",%progbits
 3315              		.align	1
 3316              		.global	f32768_8939_Out
ARM GAS  C:\Users\86134\AppData\Local\Temp\ccuTN5uR.s 			page 81


 3317              		.syntax unified
 3318              		.thumb
 3319              		.thumb_func
 3320              		.fpu softvfp
 3322              	f32768_8939_Out:
 3323              	.LFB62:
1229:./Hardware/hardware/menu_data.c **** 
1230:./Hardware/hardware/menu_data.c **** void f32768_8939_Out(void)
1231:./Hardware/hardware/menu_data.c **** {
 3324              		.loc 1 1231 1
 3325              		.cfi_startproc
 3326              		@ args = 0, pretend = 0, frame = 8
 3327              		@ frame_needed = 1, uses_anonymous_args = 0
 3328 0000 80B5     		push	{r7, lr}
 3329              	.LCFI149:
 3330              		.cfi_def_cfa_offset 8
 3331              		.cfi_offset 7, -8
 3332              		.cfi_offset 14, -4
 3333 0002 82B0     		sub	sp, sp, #8
 3334              	.LCFI150:
 3335              		.cfi_def_cfa_offset 16
 3336 0004 00AF     		add	r7, sp, #0
 3337              	.LCFI151:
 3338              		.cfi_def_cfa_register 7
1232:./Hardware/hardware/menu_data.c **** 	uint8_t back_press_time = 0;
 3339              		.loc 1 1232 10
 3340 0006 0023     		movs	r3, #0
 3341 0008 FB71     		strb	r3, [r7, #7]
 3342              	.L330:
1233:./Hardware/hardware/menu_data.c **** 	
1234:./Hardware/hardware/menu_data.c **** 	while(1)
1235:./Hardware/hardware/menu_data.c **** 	{
1236:./Hardware/hardware/menu_data.c **** 		sd8939_f32768(IIC_TEST);
 3343              		.loc 1 1236 3
 3344 000a 0020     		movs	r0, #0
 3345 000c FFF7FEFF 		bl	sd8939_f32768
1237:./Hardware/hardware/menu_data.c **** 		OLED_Update();
 3346              		.loc 1 1237 3
 3347 0010 FFF7FEFF 		bl	OLED_Update
1238:./Hardware/hardware/menu_data.c **** 		if(Key_back == 0)
 3348              		.loc 1 1238 6
 3349 0014 0E4B     		ldr	r3, .L331
 3350 0016 1B68     		ldr	r3, [r3]
 3351              		.loc 1 1238 5
 3352 0018 002B     		cmp	r3, #0
 3353 001a 12D1     		bne	.L326
1239:./Hardware/hardware/menu_data.c **** 		{
1240:./Hardware/hardware/menu_data.c **** 			Delay_ms(10); // 消抖
 3354              		.loc 1 1240 4
 3355 001c 0A20     		movs	r0, #10
 3356 001e FFF7FEFF 		bl	Delay_ms
1241:./Hardware/hardware/menu_data.c **** 			back_press_time += 50; // 每次循环递增50ms
 3357              		.loc 1 1241 20
 3358 0022 FB79     		ldrb	r3, [r7, #7]
 3359 0024 3233     		adds	r3, r3, #50
 3360 0026 FB71     		strb	r3, [r7, #7]
1242:./Hardware/hardware/menu_data.c **** 			if(back_press_time >= 100)
ARM GAS  C:\Users\86134\AppData\Local\Temp\ccuTN5uR.s 			page 82


 3361              		.loc 1 1242 6
 3362 0028 FB79     		ldrb	r3, [r7, #7]	@ zero_extendqisi2
 3363 002a 632B     		cmp	r3, #99
 3364 002c 05D9     		bls	.L327
1243:./Hardware/hardware/menu_data.c **** 			{
1244:./Hardware/hardware/menu_data.c **** 				// 长按200ms，退出函数
1245:./Hardware/hardware/menu_data.c **** 				while(Key_back == 0); // 等待松手
 3365              		.loc 1 1245 10
 3366 002e 00BF     		nop
 3367              	.L328:
 3368              		.loc 1 1245 11 discriminator 1
 3369 0030 074B     		ldr	r3, .L331
 3370 0032 1B68     		ldr	r3, [r3]
 3371              		.loc 1 1245 10 discriminator 1
 3372 0034 002B     		cmp	r3, #0
 3373 0036 FBD0     		beq	.L328
1246:./Hardware/hardware/menu_data.c **** 				break;
 3374              		.loc 1 1246 5
 3375 0038 06E0     		b	.L325
 3376              	.L327:
1247:./Hardware/hardware/menu_data.c **** 			}
1248:./Hardware/hardware/menu_data.c **** 			sd8939_f32768_off(IIC_TEST);
 3377              		.loc 1 1248 4
 3378 003a 0020     		movs	r0, #0
 3379 003c FFF7FEFF 		bl	sd8939_f32768_off
1249:./Hardware/hardware/menu_data.c **** 			return;
 3380              		.loc 1 1249 4
 3381 0040 02E0     		b	.L325
 3382              	.L326:
1250:./Hardware/hardware/menu_data.c **** 		}
1251:./Hardware/hardware/menu_data.c **** 		else
1252:./Hardware/hardware/menu_data.c **** 		{
1253:./Hardware/hardware/menu_data.c **** 			back_press_time = 0; // 重置计时器
 3383              		.loc 1 1253 20
 3384 0042 0023     		movs	r3, #0
 3385 0044 FB71     		strb	r3, [r7, #7]
1236:./Hardware/hardware/menu_data.c **** 		OLED_Update();
 3386              		.loc 1 1236 3
 3387 0046 E0E7     		b	.L330
 3388              	.L325:
1254:./Hardware/hardware/menu_data.c **** 		}
1255:./Hardware/hardware/menu_data.c **** 	}
1256:./Hardware/hardware/menu_data.c **** 
1257:./Hardware/hardware/menu_data.c **** }
 3389              		.loc 1 1257 1
 3390 0048 0837     		adds	r7, r7, #8
 3391              	.LCFI152:
 3392              		.cfi_def_cfa_offset 8
 3393 004a BD46     		mov	sp, r7
 3394              	.LCFI153:
 3395              		.cfi_def_cfa_register 13
 3396              		@ sp needed
 3397 004c 80BD     		pop	{r7, pc}
 3398              	.L332:
 3399 004e 00BF     		.align	2
 3400              	.L331:
 3401 0050 34812142 		.word	1109492020
ARM GAS  C:\Users\86134\AppData\Local\Temp\ccuTN5uR.s 			page 83


 3402              		.cfi_endproc
 3403              	.LFE62:
 3405              		.section	.text.f8192_8939_Out,"ax",%progbits
 3406              		.align	1
 3407              		.global	f8192_8939_Out
 3408              		.syntax unified
 3409              		.thumb
 3410              		.thumb_func
 3411              		.fpu softvfp
 3413              	f8192_8939_Out:
 3414              	.LFB63:
1258:./Hardware/hardware/menu_data.c **** 
1259:./Hardware/hardware/menu_data.c **** void f8192_8939_Out(void)
1260:./Hardware/hardware/menu_data.c **** {
 3415              		.loc 1 1260 1
 3416              		.cfi_startproc
 3417              		@ args = 0, pretend = 0, frame = 8
 3418              		@ frame_needed = 1, uses_anonymous_args = 0
 3419 0000 80B5     		push	{r7, lr}
 3420              	.LCFI154:
 3421              		.cfi_def_cfa_offset 8
 3422              		.cfi_offset 7, -8
 3423              		.cfi_offset 14, -4
 3424 0002 82B0     		sub	sp, sp, #8
 3425              	.LCFI155:
 3426              		.cfi_def_cfa_offset 16
 3427 0004 00AF     		add	r7, sp, #0
 3428              	.LCFI156:
 3429              		.cfi_def_cfa_register 7
1261:./Hardware/hardware/menu_data.c **** 	uint8_t back_press_time = 0;
 3430              		.loc 1 1261 10
 3431 0006 0023     		movs	r3, #0
 3432 0008 FB71     		strb	r3, [r7, #7]
 3433              	.L338:
1262:./Hardware/hardware/menu_data.c **** 	
1263:./Hardware/hardware/menu_data.c **** 	while(1)
1264:./Hardware/hardware/menu_data.c **** 	{
1265:./Hardware/hardware/menu_data.c **** 		sd8939_f8192(IIC_TEST);
 3434              		.loc 1 1265 3
 3435 000a 0020     		movs	r0, #0
 3436 000c FFF7FEFF 		bl	sd8939_f8192
1266:./Hardware/hardware/menu_data.c **** 		OLED_Update();
 3437              		.loc 1 1266 3
 3438 0010 FFF7FEFF 		bl	OLED_Update
1267:./Hardware/hardware/menu_data.c **** 		if(Key_back == 0)
 3439              		.loc 1 1267 6
 3440 0014 0E4B     		ldr	r3, .L339
 3441 0016 1B68     		ldr	r3, [r3]
 3442              		.loc 1 1267 5
 3443 0018 002B     		cmp	r3, #0
 3444 001a 12D1     		bne	.L334
1268:./Hardware/hardware/menu_data.c **** 		{
1269:./Hardware/hardware/menu_data.c **** 			Delay_ms(10); // 消抖
 3445              		.loc 1 1269 4
 3446 001c 0A20     		movs	r0, #10
 3447 001e FFF7FEFF 		bl	Delay_ms
1270:./Hardware/hardware/menu_data.c **** 			back_press_time += 50; // 每次循环递增50ms
ARM GAS  C:\Users\86134\AppData\Local\Temp\ccuTN5uR.s 			page 84


 3448              		.loc 1 1270 20
 3449 0022 FB79     		ldrb	r3, [r7, #7]
 3450 0024 3233     		adds	r3, r3, #50
 3451 0026 FB71     		strb	r3, [r7, #7]
1271:./Hardware/hardware/menu_data.c **** 			if(back_press_time >= 100)
 3452              		.loc 1 1271 6
 3453 0028 FB79     		ldrb	r3, [r7, #7]	@ zero_extendqisi2
 3454 002a 632B     		cmp	r3, #99
 3455 002c 05D9     		bls	.L335
1272:./Hardware/hardware/menu_data.c **** 			{
1273:./Hardware/hardware/menu_data.c **** 				// 长按200ms，退出函数
1274:./Hardware/hardware/menu_data.c **** 				while(Key_back == 0); // 等待松手
 3456              		.loc 1 1274 10
 3457 002e 00BF     		nop
 3458              	.L336:
 3459              		.loc 1 1274 11 discriminator 1
 3460 0030 074B     		ldr	r3, .L339
 3461 0032 1B68     		ldr	r3, [r3]
 3462              		.loc 1 1274 10 discriminator 1
 3463 0034 002B     		cmp	r3, #0
 3464 0036 FBD0     		beq	.L336
1275:./Hardware/hardware/menu_data.c **** 				break;
 3465              		.loc 1 1275 5
 3466 0038 06E0     		b	.L333
 3467              	.L335:
1276:./Hardware/hardware/menu_data.c **** 			}
1277:./Hardware/hardware/menu_data.c **** 			sd8939_f8192_off(IIC_TEST);
 3468              		.loc 1 1277 4
 3469 003a 0020     		movs	r0, #0
 3470 003c FFF7FEFF 		bl	sd8939_f8192_off
1278:./Hardware/hardware/menu_data.c **** 			return;
 3471              		.loc 1 1278 4
 3472 0040 02E0     		b	.L333
 3473              	.L334:
1279:./Hardware/hardware/menu_data.c **** 		}
1280:./Hardware/hardware/menu_data.c **** 		else
1281:./Hardware/hardware/menu_data.c **** 		{
1282:./Hardware/hardware/menu_data.c **** 			back_press_time = 0; // 重置计时器
 3474              		.loc 1 1282 20
 3475 0042 0023     		movs	r3, #0
 3476 0044 FB71     		strb	r3, [r7, #7]
1265:./Hardware/hardware/menu_data.c **** 		OLED_Update();
 3477              		.loc 1 1265 3
 3478 0046 E0E7     		b	.L338
 3479              	.L333:
1283:./Hardware/hardware/menu_data.c **** 		}
1284:./Hardware/hardware/menu_data.c **** 	}
1285:./Hardware/hardware/menu_data.c **** 
1286:./Hardware/hardware/menu_data.c **** }
 3480              		.loc 1 1286 1
 3481 0048 0837     		adds	r7, r7, #8
 3482              	.LCFI157:
 3483              		.cfi_def_cfa_offset 8
 3484 004a BD46     		mov	sp, r7
 3485              	.LCFI158:
 3486              		.cfi_def_cfa_register 13
 3487              		@ sp needed
ARM GAS  C:\Users\86134\AppData\Local\Temp\ccuTN5uR.s 			page 85


 3488 004c 80BD     		pop	{r7, pc}
 3489              	.L340:
 3490 004e 00BF     		.align	2
 3491              	.L339:
 3492 0050 34812142 		.word	1109492020
 3493              		.cfi_endproc
 3494              	.LFE63:
 3496              		.section	.text.f4096_8939_Out,"ax",%progbits
 3497              		.align	1
 3498              		.global	f4096_8939_Out
 3499              		.syntax unified
 3500              		.thumb
 3501              		.thumb_func
 3502              		.fpu softvfp
 3504              	f4096_8939_Out:
 3505              	.LFB64:
1287:./Hardware/hardware/menu_data.c **** 
1288:./Hardware/hardware/menu_data.c **** void f4096_8939_Out(void)
1289:./Hardware/hardware/menu_data.c **** {
 3506              		.loc 1 1289 1
 3507              		.cfi_startproc
 3508              		@ args = 0, pretend = 0, frame = 8
 3509              		@ frame_needed = 1, uses_anonymous_args = 0
 3510 0000 80B5     		push	{r7, lr}
 3511              	.LCFI159:
 3512              		.cfi_def_cfa_offset 8
 3513              		.cfi_offset 7, -8
 3514              		.cfi_offset 14, -4
 3515 0002 82B0     		sub	sp, sp, #8
 3516              	.LCFI160:
 3517              		.cfi_def_cfa_offset 16
 3518 0004 00AF     		add	r7, sp, #0
 3519              	.LCFI161:
 3520              		.cfi_def_cfa_register 7
1290:./Hardware/hardware/menu_data.c **** 	uint8_t back_press_time = 0;
 3521              		.loc 1 1290 10
 3522 0006 0023     		movs	r3, #0
 3523 0008 FB71     		strb	r3, [r7, #7]
 3524              	.L346:
1291:./Hardware/hardware/menu_data.c **** 	
1292:./Hardware/hardware/menu_data.c **** 	while(1)
1293:./Hardware/hardware/menu_data.c **** 	{
1294:./Hardware/hardware/menu_data.c **** 		sd8939_f4096(IIC_TEST);
 3525              		.loc 1 1294 3
 3526 000a 0020     		movs	r0, #0
 3527 000c FFF7FEFF 		bl	sd8939_f4096
1295:./Hardware/hardware/menu_data.c **** 		OLED_Update();
 3528              		.loc 1 1295 3
 3529 0010 FFF7FEFF 		bl	OLED_Update
1296:./Hardware/hardware/menu_data.c **** 		if(Key_back == 0)
 3530              		.loc 1 1296 6
 3531 0014 0E4B     		ldr	r3, .L347
 3532 0016 1B68     		ldr	r3, [r3]
 3533              		.loc 1 1296 5
 3534 0018 002B     		cmp	r3, #0
 3535 001a 12D1     		bne	.L342
1297:./Hardware/hardware/menu_data.c **** 		{
ARM GAS  C:\Users\86134\AppData\Local\Temp\ccuTN5uR.s 			page 86


1298:./Hardware/hardware/menu_data.c **** 			Delay_ms(10); // 消抖
 3536              		.loc 1 1298 4
 3537 001c 0A20     		movs	r0, #10
 3538 001e FFF7FEFF 		bl	Delay_ms
1299:./Hardware/hardware/menu_data.c **** 			back_press_time += 50; // 每次循环递增50ms
 3539              		.loc 1 1299 20
 3540 0022 FB79     		ldrb	r3, [r7, #7]
 3541 0024 3233     		adds	r3, r3, #50
 3542 0026 FB71     		strb	r3, [r7, #7]
1300:./Hardware/hardware/menu_data.c **** 			if(back_press_time >= 100)
 3543              		.loc 1 1300 6
 3544 0028 FB79     		ldrb	r3, [r7, #7]	@ zero_extendqisi2
 3545 002a 632B     		cmp	r3, #99
 3546 002c 05D9     		bls	.L343
1301:./Hardware/hardware/menu_data.c **** 			{
1302:./Hardware/hardware/menu_data.c **** 				// 长按200ms，退出函数
1303:./Hardware/hardware/menu_data.c **** 				while(Key_back == 0); // 等待松手
 3547              		.loc 1 1303 10
 3548 002e 00BF     		nop
 3549              	.L344:
 3550              		.loc 1 1303 11 discriminator 1
 3551 0030 074B     		ldr	r3, .L347
 3552 0032 1B68     		ldr	r3, [r3]
 3553              		.loc 1 1303 10 discriminator 1
 3554 0034 002B     		cmp	r3, #0
 3555 0036 FBD0     		beq	.L344
1304:./Hardware/hardware/menu_data.c **** 				break;
 3556              		.loc 1 1304 5
 3557 0038 06E0     		b	.L341
 3558              	.L343:
1305:./Hardware/hardware/menu_data.c **** 			}
1306:./Hardware/hardware/menu_data.c **** 			sd8939_f4096_off(IIC_TEST);
 3559              		.loc 1 1306 4
 3560 003a 0020     		movs	r0, #0
 3561 003c FFF7FEFF 		bl	sd8939_f4096_off
1307:./Hardware/hardware/menu_data.c **** 			return;
 3562              		.loc 1 1307 4
 3563 0040 02E0     		b	.L341
 3564              	.L342:
1308:./Hardware/hardware/menu_data.c **** 		}
1309:./Hardware/hardware/menu_data.c **** 		else
1310:./Hardware/hardware/menu_data.c **** 		{
1311:./Hardware/hardware/menu_data.c **** 			back_press_time = 0; // 重置计时器
 3565              		.loc 1 1311 20
 3566 0042 0023     		movs	r3, #0
 3567 0044 FB71     		strb	r3, [r7, #7]
1294:./Hardware/hardware/menu_data.c **** 		OLED_Update();
 3568              		.loc 1 1294 3
 3569 0046 E0E7     		b	.L346
 3570              	.L341:
1312:./Hardware/hardware/menu_data.c **** 		}
1313:./Hardware/hardware/menu_data.c **** 	}
1314:./Hardware/hardware/menu_data.c **** 
1315:./Hardware/hardware/menu_data.c **** }
 3571              		.loc 1 1315 1
 3572 0048 0837     		adds	r7, r7, #8
 3573              	.LCFI162:
ARM GAS  C:\Users\86134\AppData\Local\Temp\ccuTN5uR.s 			page 87


 3574              		.cfi_def_cfa_offset 8
 3575 004a BD46     		mov	sp, r7
 3576              	.LCFI163:
 3577              		.cfi_def_cfa_register 13
 3578              		@ sp needed
 3579 004c 80BD     		pop	{r7, pc}
 3580              	.L348:
 3581 004e 00BF     		.align	2
 3582              	.L347:
 3583 0050 34812142 		.word	1109492020
 3584              		.cfi_endproc
 3585              	.LFE64:
 3587              		.section	.text.f1_8939_Out,"ax",%progbits
 3588              		.align	1
 3589              		.global	f1_8939_Out
 3590              		.syntax unified
 3591              		.thumb
 3592              		.thumb_func
 3593              		.fpu softvfp
 3595              	f1_8939_Out:
 3596              	.LFB65:
1316:./Hardware/hardware/menu_data.c **** 
1317:./Hardware/hardware/menu_data.c **** void f1_8939_Out(void)
1318:./Hardware/hardware/menu_data.c **** {
 3597              		.loc 1 1318 1
 3598              		.cfi_startproc
 3599              		@ args = 0, pretend = 0, frame = 8
 3600              		@ frame_needed = 1, uses_anonymous_args = 0
 3601 0000 80B5     		push	{r7, lr}
 3602              	.LCFI164:
 3603              		.cfi_def_cfa_offset 8
 3604              		.cfi_offset 7, -8
 3605              		.cfi_offset 14, -4
 3606 0002 82B0     		sub	sp, sp, #8
 3607              	.LCFI165:
 3608              		.cfi_def_cfa_offset 16
 3609 0004 00AF     		add	r7, sp, #0
 3610              	.LCFI166:
 3611              		.cfi_def_cfa_register 7
1319:./Hardware/hardware/menu_data.c **** 	uint8_t back_press_time = 0;
 3612              		.loc 1 1319 10
 3613 0006 0023     		movs	r3, #0
 3614 0008 FB71     		strb	r3, [r7, #7]
 3615              	.L354:
1320:./Hardware/hardware/menu_data.c **** 	
1321:./Hardware/hardware/menu_data.c **** 	while(1)
1322:./Hardware/hardware/menu_data.c **** 	{
1323:./Hardware/hardware/menu_data.c **** 		sd8939_f1(IIC_TEST);
 3616              		.loc 1 1323 3
 3617 000a 0020     		movs	r0, #0
 3618 000c FFF7FEFF 		bl	sd8939_f1
1324:./Hardware/hardware/menu_data.c **** 		OLED_Update();
 3619              		.loc 1 1324 3
 3620 0010 FFF7FEFF 		bl	OLED_Update
1325:./Hardware/hardware/menu_data.c **** 		if(Key_back == 0)
 3621              		.loc 1 1325 6
 3622 0014 0E4B     		ldr	r3, .L355
ARM GAS  C:\Users\86134\AppData\Local\Temp\ccuTN5uR.s 			page 88


 3623 0016 1B68     		ldr	r3, [r3]
 3624              		.loc 1 1325 5
 3625 0018 002B     		cmp	r3, #0
 3626 001a 12D1     		bne	.L350
1326:./Hardware/hardware/menu_data.c **** 		{
1327:./Hardware/hardware/menu_data.c **** 			Delay_ms(10); // 消抖
 3627              		.loc 1 1327 4
 3628 001c 0A20     		movs	r0, #10
 3629 001e FFF7FEFF 		bl	Delay_ms
1328:./Hardware/hardware/menu_data.c **** 			back_press_time += 50; // 每次循环递增50ms
 3630              		.loc 1 1328 20
 3631 0022 FB79     		ldrb	r3, [r7, #7]
 3632 0024 3233     		adds	r3, r3, #50
 3633 0026 FB71     		strb	r3, [r7, #7]
1329:./Hardware/hardware/menu_data.c **** 			if(back_press_time >= 100)
 3634              		.loc 1 1329 6
 3635 0028 FB79     		ldrb	r3, [r7, #7]	@ zero_extendqisi2
 3636 002a 632B     		cmp	r3, #99
 3637 002c 05D9     		bls	.L351
1330:./Hardware/hardware/menu_data.c **** 			{
1331:./Hardware/hardware/menu_data.c **** 				// 长按200ms，退出函数
1332:./Hardware/hardware/menu_data.c **** 				while(Key_back == 0); // 等待松手
 3638              		.loc 1 1332 10
 3639 002e 00BF     		nop
 3640              	.L352:
 3641              		.loc 1 1332 11 discriminator 1
 3642 0030 074B     		ldr	r3, .L355
 3643 0032 1B68     		ldr	r3, [r3]
 3644              		.loc 1 1332 10 discriminator 1
 3645 0034 002B     		cmp	r3, #0
 3646 0036 FBD0     		beq	.L352
1333:./Hardware/hardware/menu_data.c **** 				break;
 3647              		.loc 1 1333 5
 3648 0038 06E0     		b	.L349
 3649              	.L351:
1334:./Hardware/hardware/menu_data.c **** 			}
1335:./Hardware/hardware/menu_data.c **** 			sd8939_f1_off(IIC_TEST);
 3650              		.loc 1 1335 4
 3651 003a 0020     		movs	r0, #0
 3652 003c FFF7FEFF 		bl	sd8939_f1_off
1336:./Hardware/hardware/menu_data.c **** 			return;
 3653              		.loc 1 1336 4
 3654 0040 02E0     		b	.L349
 3655              	.L350:
1337:./Hardware/hardware/menu_data.c **** 		}
1338:./Hardware/hardware/menu_data.c **** 		else
1339:./Hardware/hardware/menu_data.c **** 		{
1340:./Hardware/hardware/menu_data.c **** 			back_press_time = 0; // 重置计时器
 3656              		.loc 1 1340 20
 3657 0042 0023     		movs	r3, #0
 3658 0044 FB71     		strb	r3, [r7, #7]
1323:./Hardware/hardware/menu_data.c **** 		OLED_Update();
 3659              		.loc 1 1323 3
 3660 0046 E0E7     		b	.L354
 3661              	.L349:
1341:./Hardware/hardware/menu_data.c **** 		}
1342:./Hardware/hardware/menu_data.c **** 	}
ARM GAS  C:\Users\86134\AppData\Local\Temp\ccuTN5uR.s 			page 89


1343:./Hardware/hardware/menu_data.c **** 
1344:./Hardware/hardware/menu_data.c **** }
 3662              		.loc 1 1344 1
 3663 0048 0837     		adds	r7, r7, #8
 3664              	.LCFI167:
 3665              		.cfi_def_cfa_offset 8
 3666 004a BD46     		mov	sp, r7
 3667              	.LCFI168:
 3668              		.cfi_def_cfa_register 13
 3669              		@ sp needed
 3670 004c 80BD     		pop	{r7, pc}
 3671              	.L356:
 3672 004e 00BF     		.align	2
 3673              	.L355:
 3674 0050 34812142 		.word	1109492020
 3675              		.cfi_endproc
 3676              	.LFE65:
 3678              		.section	.text.f32768_8825_Out,"ax",%progbits
 3679              		.align	1
 3680              		.global	f32768_8825_Out
 3681              		.syntax unified
 3682              		.thumb
 3683              		.thumb_func
 3684              		.fpu softvfp
 3686              	f32768_8825_Out:
 3687              	.LFB66:
1345:./Hardware/hardware/menu_data.c **** 
1346:./Hardware/hardware/menu_data.c **** void f32768_8825_Out(void)
1347:./Hardware/hardware/menu_data.c **** {
 3688              		.loc 1 1347 1
 3689              		.cfi_startproc
 3690              		@ args = 0, pretend = 0, frame = 8
 3691              		@ frame_needed = 1, uses_anonymous_args = 0
 3692 0000 80B5     		push	{r7, lr}
 3693              	.LCFI169:
 3694              		.cfi_def_cfa_offset 8
 3695              		.cfi_offset 7, -8
 3696              		.cfi_offset 14, -4
 3697 0002 82B0     		sub	sp, sp, #8
 3698              	.LCFI170:
 3699              		.cfi_def_cfa_offset 16
 3700 0004 00AF     		add	r7, sp, #0
 3701              	.LCFI171:
 3702              		.cfi_def_cfa_register 7
1348:./Hardware/hardware/menu_data.c **** 	uint8_t back_press_time = 0;
 3703              		.loc 1 1348 10
 3704 0006 0023     		movs	r3, #0
 3705 0008 FB71     		strb	r3, [r7, #7]
 3706              	.L362:
1349:./Hardware/hardware/menu_data.c **** 	
1350:./Hardware/hardware/menu_data.c **** 	while(1)
1351:./Hardware/hardware/menu_data.c **** 	{
1352:./Hardware/hardware/menu_data.c **** 		sd8825_f32768(IIC_TEST);
 3707              		.loc 1 1352 3
 3708 000a 0020     		movs	r0, #0
 3709 000c FFF7FEFF 		bl	sd8825_f32768
1353:./Hardware/hardware/menu_data.c **** 		OLED_Update();
ARM GAS  C:\Users\86134\AppData\Local\Temp\ccuTN5uR.s 			page 90


 3710              		.loc 1 1353 3
 3711 0010 FFF7FEFF 		bl	OLED_Update
1354:./Hardware/hardware/menu_data.c **** 		if(Key_back == 0)
 3712              		.loc 1 1354 6
 3713 0014 0E4B     		ldr	r3, .L363
 3714 0016 1B68     		ldr	r3, [r3]
 3715              		.loc 1 1354 5
 3716 0018 002B     		cmp	r3, #0
 3717 001a 12D1     		bne	.L358
1355:./Hardware/hardware/menu_data.c **** 		{
1356:./Hardware/hardware/menu_data.c **** 			Delay_ms(10); // 消抖
 3718              		.loc 1 1356 4
 3719 001c 0A20     		movs	r0, #10
 3720 001e FFF7FEFF 		bl	Delay_ms
1357:./Hardware/hardware/menu_data.c **** 			back_press_time += 50; // 每次循环递增50ms
 3721              		.loc 1 1357 20
 3722 0022 FB79     		ldrb	r3, [r7, #7]
 3723 0024 3233     		adds	r3, r3, #50
 3724 0026 FB71     		strb	r3, [r7, #7]
1358:./Hardware/hardware/menu_data.c **** 			if(back_press_time >= 100)
 3725              		.loc 1 1358 6
 3726 0028 FB79     		ldrb	r3, [r7, #7]	@ zero_extendqisi2
 3727 002a 632B     		cmp	r3, #99
 3728 002c 05D9     		bls	.L359
1359:./Hardware/hardware/menu_data.c **** 			{
1360:./Hardware/hardware/menu_data.c **** 				// 长按200ms，退出函数
1361:./Hardware/hardware/menu_data.c **** 				while(Key_back == 0); // 等待松手
 3729              		.loc 1 1361 10
 3730 002e 00BF     		nop
 3731              	.L360:
 3732              		.loc 1 1361 11 discriminator 1
 3733 0030 074B     		ldr	r3, .L363
 3734 0032 1B68     		ldr	r3, [r3]
 3735              		.loc 1 1361 10 discriminator 1
 3736 0034 002B     		cmp	r3, #0
 3737 0036 FBD0     		beq	.L360
1362:./Hardware/hardware/menu_data.c **** 				break;
 3738              		.loc 1 1362 5
 3739 0038 06E0     		b	.L357
 3740              	.L359:
1363:./Hardware/hardware/menu_data.c **** 			}
1364:./Hardware/hardware/menu_data.c **** 			sd8825_f32768_off(IIC_TEST);
 3741              		.loc 1 1364 4
 3742 003a 0020     		movs	r0, #0
 3743 003c FFF7FEFF 		bl	sd8825_f32768_off
1365:./Hardware/hardware/menu_data.c **** 			return;
 3744              		.loc 1 1365 4
 3745 0040 02E0     		b	.L357
 3746              	.L358:
1366:./Hardware/hardware/menu_data.c **** 		}
1367:./Hardware/hardware/menu_data.c **** 		else
1368:./Hardware/hardware/menu_data.c **** 		{
1369:./Hardware/hardware/menu_data.c **** 			back_press_time = 0; // 重置计时器
 3747              		.loc 1 1369 20
 3748 0042 0023     		movs	r3, #0
 3749 0044 FB71     		strb	r3, [r7, #7]
1352:./Hardware/hardware/menu_data.c **** 		OLED_Update();
ARM GAS  C:\Users\86134\AppData\Local\Temp\ccuTN5uR.s 			page 91


 3750              		.loc 1 1352 3
 3751 0046 E0E7     		b	.L362
 3752              	.L357:
1370:./Hardware/hardware/menu_data.c **** 		}
1371:./Hardware/hardware/menu_data.c **** 	}
1372:./Hardware/hardware/menu_data.c **** }
 3753              		.loc 1 1372 1
 3754 0048 0837     		adds	r7, r7, #8
 3755              	.LCFI172:
 3756              		.cfi_def_cfa_offset 8
 3757 004a BD46     		mov	sp, r7
 3758              	.LCFI173:
 3759              		.cfi_def_cfa_register 13
 3760              		@ sp needed
 3761 004c 80BD     		pop	{r7, pc}
 3762              	.L364:
 3763 004e 00BF     		.align	2
 3764              	.L363:
 3765 0050 34812142 		.word	1109492020
 3766              		.cfi_endproc
 3767              	.LFE66:
 3769              		.section	.text.f1024_8825_Out,"ax",%progbits
 3770              		.align	1
 3771              		.global	f1024_8825_Out
 3772              		.syntax unified
 3773              		.thumb
 3774              		.thumb_func
 3775              		.fpu softvfp
 3777              	f1024_8825_Out:
 3778              	.LFB67:
1373:./Hardware/hardware/menu_data.c **** 
1374:./Hardware/hardware/menu_data.c **** void f1024_8825_Out(void)
1375:./Hardware/hardware/menu_data.c **** {
 3779              		.loc 1 1375 1
 3780              		.cfi_startproc
 3781              		@ args = 0, pretend = 0, frame = 8
 3782              		@ frame_needed = 1, uses_anonymous_args = 0
 3783 0000 80B5     		push	{r7, lr}
 3784              	.LCFI174:
 3785              		.cfi_def_cfa_offset 8
 3786              		.cfi_offset 7, -8
 3787              		.cfi_offset 14, -4
 3788 0002 82B0     		sub	sp, sp, #8
 3789              	.LCFI175:
 3790              		.cfi_def_cfa_offset 16
 3791 0004 00AF     		add	r7, sp, #0
 3792              	.LCFI176:
 3793              		.cfi_def_cfa_register 7
1376:./Hardware/hardware/menu_data.c **** 	uint8_t back_press_time = 0;
 3794              		.loc 1 1376 10
 3795 0006 0023     		movs	r3, #0
 3796 0008 FB71     		strb	r3, [r7, #7]
 3797              	.L370:
1377:./Hardware/hardware/menu_data.c **** 	
1378:./Hardware/hardware/menu_data.c **** 	while(1)
1379:./Hardware/hardware/menu_data.c **** 	{
1380:./Hardware/hardware/menu_data.c **** 		sd8825_f1024(IIC_TEST);
ARM GAS  C:\Users\86134\AppData\Local\Temp\ccuTN5uR.s 			page 92


 3798              		.loc 1 1380 3
 3799 000a 0020     		movs	r0, #0
 3800 000c FFF7FEFF 		bl	sd8825_f1024
1381:./Hardware/hardware/menu_data.c **** 		OLED_Update();
 3801              		.loc 1 1381 3
 3802 0010 FFF7FEFF 		bl	OLED_Update
1382:./Hardware/hardware/menu_data.c **** 		if(Key_back == 0)
 3803              		.loc 1 1382 6
 3804 0014 0E4B     		ldr	r3, .L371
 3805 0016 1B68     		ldr	r3, [r3]
 3806              		.loc 1 1382 5
 3807 0018 002B     		cmp	r3, #0
 3808 001a 12D1     		bne	.L366
1383:./Hardware/hardware/menu_data.c **** 		{
1384:./Hardware/hardware/menu_data.c **** 			Delay_ms(10); // 消抖
 3809              		.loc 1 1384 4
 3810 001c 0A20     		movs	r0, #10
 3811 001e FFF7FEFF 		bl	Delay_ms
1385:./Hardware/hardware/menu_data.c **** 			back_press_time += 50; // 每次循环递增50ms
 3812              		.loc 1 1385 20
 3813 0022 FB79     		ldrb	r3, [r7, #7]
 3814 0024 3233     		adds	r3, r3, #50
 3815 0026 FB71     		strb	r3, [r7, #7]
1386:./Hardware/hardware/menu_data.c **** 			if(back_press_time >= 100)
 3816              		.loc 1 1386 6
 3817 0028 FB79     		ldrb	r3, [r7, #7]	@ zero_extendqisi2
 3818 002a 632B     		cmp	r3, #99
 3819 002c 05D9     		bls	.L367
1387:./Hardware/hardware/menu_data.c **** 			{
1388:./Hardware/hardware/menu_data.c **** 				// 长按200ms，退出函数
1389:./Hardware/hardware/menu_data.c **** 				while(Key_back == 0); // 等待松手
 3820              		.loc 1 1389 10
 3821 002e 00BF     		nop
 3822              	.L368:
 3823              		.loc 1 1389 11 discriminator 1
 3824 0030 074B     		ldr	r3, .L371
 3825 0032 1B68     		ldr	r3, [r3]
 3826              		.loc 1 1389 10 discriminator 1
 3827 0034 002B     		cmp	r3, #0
 3828 0036 FBD0     		beq	.L368
1390:./Hardware/hardware/menu_data.c **** 				break;
 3829              		.loc 1 1390 5
 3830 0038 06E0     		b	.L365
 3831              	.L367:
1391:./Hardware/hardware/menu_data.c **** 			}
1392:./Hardware/hardware/menu_data.c **** 			sd8825_f1024_off(IIC_TEST);
 3832              		.loc 1 1392 4
 3833 003a 0020     		movs	r0, #0
 3834 003c FFF7FEFF 		bl	sd8825_f1024_off
1393:./Hardware/hardware/menu_data.c **** 			return;
 3835              		.loc 1 1393 4
 3836 0040 02E0     		b	.L365
 3837              	.L366:
1394:./Hardware/hardware/menu_data.c **** 		}
1395:./Hardware/hardware/menu_data.c **** 		else
1396:./Hardware/hardware/menu_data.c **** 		{
1397:./Hardware/hardware/menu_data.c **** 			back_press_time = 0; // 重置计时器
ARM GAS  C:\Users\86134\AppData\Local\Temp\ccuTN5uR.s 			page 93


 3838              		.loc 1 1397 20
 3839 0042 0023     		movs	r3, #0
 3840 0044 FB71     		strb	r3, [r7, #7]
1380:./Hardware/hardware/menu_data.c **** 		OLED_Update();
 3841              		.loc 1 1380 3
 3842 0046 E0E7     		b	.L370
 3843              	.L365:
1398:./Hardware/hardware/menu_data.c **** 		}
1399:./Hardware/hardware/menu_data.c **** 	}
1400:./Hardware/hardware/menu_data.c **** }
 3844              		.loc 1 1400 1
 3845 0048 0837     		adds	r7, r7, #8
 3846              	.LCFI177:
 3847              		.cfi_def_cfa_offset 8
 3848 004a BD46     		mov	sp, r7
 3849              	.LCFI178:
 3850              		.cfi_def_cfa_register 13
 3851              		@ sp needed
 3852 004c 80BD     		pop	{r7, pc}
 3853              	.L372:
 3854 004e 00BF     		.align	2
 3855              	.L371:
 3856 0050 34812142 		.word	1109492020
 3857              		.cfi_endproc
 3858              	.LFE67:
 3860              		.section	.text.f1_8825_Out,"ax",%progbits
 3861              		.align	1
 3862              		.global	f1_8825_Out
 3863              		.syntax unified
 3864              		.thumb
 3865              		.thumb_func
 3866              		.fpu softvfp
 3868              	f1_8825_Out:
 3869              	.LFB68:
1401:./Hardware/hardware/menu_data.c **** 
1402:./Hardware/hardware/menu_data.c **** void f1_8825_Out(void)
1403:./Hardware/hardware/menu_data.c **** {
 3870              		.loc 1 1403 1
 3871              		.cfi_startproc
 3872              		@ args = 0, pretend = 0, frame = 8
 3873              		@ frame_needed = 1, uses_anonymous_args = 0
 3874 0000 80B5     		push	{r7, lr}
 3875              	.LCFI179:
 3876              		.cfi_def_cfa_offset 8
 3877              		.cfi_offset 7, -8
 3878              		.cfi_offset 14, -4
 3879 0002 82B0     		sub	sp, sp, #8
 3880              	.LCFI180:
 3881              		.cfi_def_cfa_offset 16
 3882 0004 00AF     		add	r7, sp, #0
 3883              	.LCFI181:
 3884              		.cfi_def_cfa_register 7
1404:./Hardware/hardware/menu_data.c **** 	uint8_t back_press_time = 0;
 3885              		.loc 1 1404 10
 3886 0006 0023     		movs	r3, #0
 3887 0008 FB71     		strb	r3, [r7, #7]
 3888              	.L378:
ARM GAS  C:\Users\86134\AppData\Local\Temp\ccuTN5uR.s 			page 94


1405:./Hardware/hardware/menu_data.c **** 	
1406:./Hardware/hardware/menu_data.c **** 	while(1)
1407:./Hardware/hardware/menu_data.c **** 	{
1408:./Hardware/hardware/menu_data.c **** 		sd8825_f1(IIC_TEST);
 3889              		.loc 1 1408 3
 3890 000a 0020     		movs	r0, #0
 3891 000c FFF7FEFF 		bl	sd8825_f1
1409:./Hardware/hardware/menu_data.c **** 		OLED_Update();
 3892              		.loc 1 1409 3
 3893 0010 FFF7FEFF 		bl	OLED_Update
1410:./Hardware/hardware/menu_data.c **** 		if(Key_back == 0)
 3894              		.loc 1 1410 6
 3895 0014 0E4B     		ldr	r3, .L379
 3896 0016 1B68     		ldr	r3, [r3]
 3897              		.loc 1 1410 5
 3898 0018 002B     		cmp	r3, #0
 3899 001a 12D1     		bne	.L374
1411:./Hardware/hardware/menu_data.c **** 		{
1412:./Hardware/hardware/menu_data.c **** 			Delay_ms(10); // 消抖
 3900              		.loc 1 1412 4
 3901 001c 0A20     		movs	r0, #10
 3902 001e FFF7FEFF 		bl	Delay_ms
1413:./Hardware/hardware/menu_data.c **** 			back_press_time += 50; // 每次循环递增50ms
 3903              		.loc 1 1413 20
 3904 0022 FB79     		ldrb	r3, [r7, #7]
 3905 0024 3233     		adds	r3, r3, #50
 3906 0026 FB71     		strb	r3, [r7, #7]
1414:./Hardware/hardware/menu_data.c **** 			if(back_press_time >= 100)
 3907              		.loc 1 1414 6
 3908 0028 FB79     		ldrb	r3, [r7, #7]	@ zero_extendqisi2
 3909 002a 632B     		cmp	r3, #99
 3910 002c 05D9     		bls	.L375
1415:./Hardware/hardware/menu_data.c **** 			{
1416:./Hardware/hardware/menu_data.c **** 				// 长按200ms，退出函数
1417:./Hardware/hardware/menu_data.c **** 				while(Key_back == 0); // 等待松手
 3911              		.loc 1 1417 10
 3912 002e 00BF     		nop
 3913              	.L376:
 3914              		.loc 1 1417 11 discriminator 1
 3915 0030 074B     		ldr	r3, .L379
 3916 0032 1B68     		ldr	r3, [r3]
 3917              		.loc 1 1417 10 discriminator 1
 3918 0034 002B     		cmp	r3, #0
 3919 0036 FBD0     		beq	.L376
1418:./Hardware/hardware/menu_data.c **** 				break;
 3920              		.loc 1 1418 5
 3921 0038 06E0     		b	.L373
 3922              	.L375:
1419:./Hardware/hardware/menu_data.c **** 			}
1420:./Hardware/hardware/menu_data.c **** 			sd8825_f1_off(IIC_TEST);
 3923              		.loc 1 1420 4
 3924 003a 0020     		movs	r0, #0
 3925 003c FFF7FEFF 		bl	sd8825_f1_off
1421:./Hardware/hardware/menu_data.c **** 			return;
 3926              		.loc 1 1421 4
 3927 0040 02E0     		b	.L373
 3928              	.L374:
ARM GAS  C:\Users\86134\AppData\Local\Temp\ccuTN5uR.s 			page 95


1422:./Hardware/hardware/menu_data.c **** 		}
1423:./Hardware/hardware/menu_data.c **** 		else
1424:./Hardware/hardware/menu_data.c **** 		{
1425:./Hardware/hardware/menu_data.c **** 			back_press_time = 0; // 重置计时器
 3929              		.loc 1 1425 20
 3930 0042 0023     		movs	r3, #0
 3931 0044 FB71     		strb	r3, [r7, #7]
1408:./Hardware/hardware/menu_data.c **** 		OLED_Update();
 3932              		.loc 1 1408 3
 3933 0046 E0E7     		b	.L378
 3934              	.L373:
1426:./Hardware/hardware/menu_data.c **** 		}
1427:./Hardware/hardware/menu_data.c **** 	}
1428:./Hardware/hardware/menu_data.c **** }
 3935              		.loc 1 1428 1
 3936 0048 0837     		adds	r7, r7, #8
 3937              	.LCFI182:
 3938              		.cfi_def_cfa_offset 8
 3939 004a BD46     		mov	sp, r7
 3940              	.LCFI183:
 3941              		.cfi_def_cfa_register 13
 3942              		@ sp needed
 3943 004c 80BD     		pop	{r7, pc}
 3944              	.L380:
 3945 004e 00BF     		.align	2
 3946              	.L379:
 3947 0050 34812142 		.word	1109492020
 3948              		.cfi_endproc
 3949              	.LFE68:
 3951              		.section	.text.f32_8902_Out,"ax",%progbits
 3952              		.align	1
 3953              		.global	f32_8902_Out
 3954              		.syntax unified
 3955              		.thumb
 3956              		.thumb_func
 3957              		.fpu softvfp
 3959              	f32_8902_Out:
 3960              	.LFB69:
1429:./Hardware/hardware/menu_data.c **** 
1430:./Hardware/hardware/menu_data.c **** void f32_8902_Out(void)
1431:./Hardware/hardware/menu_data.c **** {
 3961              		.loc 1 1431 1
 3962              		.cfi_startproc
 3963              		@ args = 0, pretend = 0, frame = 8
 3964              		@ frame_needed = 1, uses_anonymous_args = 0
 3965 0000 80B5     		push	{r7, lr}
 3966              	.LCFI184:
 3967              		.cfi_def_cfa_offset 8
 3968              		.cfi_offset 7, -8
 3969              		.cfi_offset 14, -4
 3970 0002 82B0     		sub	sp, sp, #8
 3971              	.LCFI185:
 3972              		.cfi_def_cfa_offset 16
 3973 0004 00AF     		add	r7, sp, #0
 3974              	.LCFI186:
 3975              		.cfi_def_cfa_register 7
1432:./Hardware/hardware/menu_data.c **** 	uint8_t back_press_time = 0;
ARM GAS  C:\Users\86134\AppData\Local\Temp\ccuTN5uR.s 			page 96


 3976              		.loc 1 1432 10
 3977 0006 0023     		movs	r3, #0
 3978 0008 FB71     		strb	r3, [r7, #7]
 3979              	.L386:
1433:./Hardware/hardware/menu_data.c **** 	
1434:./Hardware/hardware/menu_data.c **** 	while(1)
1435:./Hardware/hardware/menu_data.c **** 	{
1436:./Hardware/hardware/menu_data.c **** 		sd8902_f32768();
 3980              		.loc 1 1436 3
 3981 000a FFF7FEFF 		bl	sd8902_f32768
1437:./Hardware/hardware/menu_data.c **** 		OLED_Update();
 3982              		.loc 1 1437 3
 3983 000e FFF7FEFF 		bl	OLED_Update
1438:./Hardware/hardware/menu_data.c **** 		if(Key_back == 0)
 3984              		.loc 1 1438 6
 3985 0012 0E4B     		ldr	r3, .L387
 3986 0014 1B68     		ldr	r3, [r3]
 3987              		.loc 1 1438 5
 3988 0016 002B     		cmp	r3, #0
 3989 0018 11D1     		bne	.L382
1439:./Hardware/hardware/menu_data.c **** 		{
1440:./Hardware/hardware/menu_data.c **** 			Delay_ms(10); // 消抖
 3990              		.loc 1 1440 4
 3991 001a 0A20     		movs	r0, #10
 3992 001c FFF7FEFF 		bl	Delay_ms
1441:./Hardware/hardware/menu_data.c **** 			back_press_time += 50; // 每次循环递增50ms
 3993              		.loc 1 1441 20
 3994 0020 FB79     		ldrb	r3, [r7, #7]
 3995 0022 3233     		adds	r3, r3, #50
 3996 0024 FB71     		strb	r3, [r7, #7]
1442:./Hardware/hardware/menu_data.c **** 			if(back_press_time >= 100)
 3997              		.loc 1 1442 6
 3998 0026 FB79     		ldrb	r3, [r7, #7]	@ zero_extendqisi2
 3999 0028 632B     		cmp	r3, #99
 4000 002a 05D9     		bls	.L383
1443:./Hardware/hardware/menu_data.c **** 			{
1444:./Hardware/hardware/menu_data.c **** 				// 长按200ms，退出函数
1445:./Hardware/hardware/menu_data.c **** 				while(Key_back == 0); // 等待松手
 4001              		.loc 1 1445 10
 4002 002c 00BF     		nop
 4003              	.L384:
 4004              		.loc 1 1445 11 discriminator 1
 4005 002e 074B     		ldr	r3, .L387
 4006 0030 1B68     		ldr	r3, [r3]
 4007              		.loc 1 1445 10 discriminator 1
 4008 0032 002B     		cmp	r3, #0
 4009 0034 FBD0     		beq	.L384
1446:./Hardware/hardware/menu_data.c **** 				break;
 4010              		.loc 1 1446 5
 4011 0036 05E0     		b	.L381
 4012              	.L383:
1447:./Hardware/hardware/menu_data.c **** 			}
1448:./Hardware/hardware/menu_data.c **** 			sd8902_f32768_off();
 4013              		.loc 1 1448 4
 4014 0038 FFF7FEFF 		bl	sd8902_f32768_off
1449:./Hardware/hardware/menu_data.c **** 			return;
 4015              		.loc 1 1449 4
ARM GAS  C:\Users\86134\AppData\Local\Temp\ccuTN5uR.s 			page 97


 4016 003c 02E0     		b	.L381
 4017              	.L382:
1450:./Hardware/hardware/menu_data.c **** 		}
1451:./Hardware/hardware/menu_data.c **** 		else
1452:./Hardware/hardware/menu_data.c **** 		{
1453:./Hardware/hardware/menu_data.c **** 			back_press_time = 0; // 重置计时器
 4018              		.loc 1 1453 20
 4019 003e 0023     		movs	r3, #0
 4020 0040 FB71     		strb	r3, [r7, #7]
1436:./Hardware/hardware/menu_data.c **** 		OLED_Update();
 4021              		.loc 1 1436 3
 4022 0042 E2E7     		b	.L386
 4023              	.L381:
1454:./Hardware/hardware/menu_data.c **** 		}
1455:./Hardware/hardware/menu_data.c **** 	}
1456:./Hardware/hardware/menu_data.c **** 
1457:./Hardware/hardware/menu_data.c **** 
1458:./Hardware/hardware/menu_data.c **** }
 4024              		.loc 1 1458 1
 4025 0044 0837     		adds	r7, r7, #8
 4026              	.LCFI187:
 4027              		.cfi_def_cfa_offset 8
 4028 0046 BD46     		mov	sp, r7
 4029              	.LCFI188:
 4030              		.cfi_def_cfa_register 13
 4031              		@ sp needed
 4032 0048 80BD     		pop	{r7, pc}
 4033              	.L388:
 4034 004a 00BF     		.align	2
 4035              	.L387:
 4036 004c 34812142 		.word	1109492020
 4037              		.cfi_endproc
 4038              	.LFE69:
 4040              		.section	.text.f32768_8804_Out,"ax",%progbits
 4041              		.align	1
 4042              		.global	f32768_8804_Out
 4043              		.syntax unified
 4044              		.thumb
 4045              		.thumb_func
 4046              		.fpu softvfp
 4048              	f32768_8804_Out:
 4049              	.LFB70:
1459:./Hardware/hardware/menu_data.c **** 
1460:./Hardware/hardware/menu_data.c **** void f32768_8804_Out(void)
1461:./Hardware/hardware/menu_data.c **** {
 4050              		.loc 1 1461 1
 4051              		.cfi_startproc
 4052              		@ args = 0, pretend = 0, frame = 8
 4053              		@ frame_needed = 1, uses_anonymous_args = 0
 4054 0000 80B5     		push	{r7, lr}
 4055              	.LCFI189:
 4056              		.cfi_def_cfa_offset 8
 4057              		.cfi_offset 7, -8
 4058              		.cfi_offset 14, -4
 4059 0002 82B0     		sub	sp, sp, #8
 4060              	.LCFI190:
 4061              		.cfi_def_cfa_offset 16
ARM GAS  C:\Users\86134\AppData\Local\Temp\ccuTN5uR.s 			page 98


 4062 0004 00AF     		add	r7, sp, #0
 4063              	.LCFI191:
 4064              		.cfi_def_cfa_register 7
1462:./Hardware/hardware/menu_data.c **** 	uint8_t back_press_time = 0;
 4065              		.loc 1 1462 10
 4066 0006 0023     		movs	r3, #0
 4067 0008 FB71     		strb	r3, [r7, #7]
 4068              	.L394:
1463:./Hardware/hardware/menu_data.c **** 	
1464:./Hardware/hardware/menu_data.c **** 	while(1)
1465:./Hardware/hardware/menu_data.c **** 	{
1466:./Hardware/hardware/menu_data.c **** 		sd8804_f32768(IIC_TEST);
 4069              		.loc 1 1466 3
 4070 000a 0020     		movs	r0, #0
 4071 000c FFF7FEFF 		bl	sd8804_f32768
1467:./Hardware/hardware/menu_data.c **** 		OLED_Update();
 4072              		.loc 1 1467 3
 4073 0010 FFF7FEFF 		bl	OLED_Update
1468:./Hardware/hardware/menu_data.c **** 		if(Key_back == 0)
 4074              		.loc 1 1468 6
 4075 0014 0E4B     		ldr	r3, .L395
 4076 0016 1B68     		ldr	r3, [r3]
 4077              		.loc 1 1468 5
 4078 0018 002B     		cmp	r3, #0
 4079 001a 12D1     		bne	.L390
1469:./Hardware/hardware/menu_data.c **** 		{
1470:./Hardware/hardware/menu_data.c **** 			Delay_ms(10); // 消抖
 4080              		.loc 1 1470 4
 4081 001c 0A20     		movs	r0, #10
 4082 001e FFF7FEFF 		bl	Delay_ms
1471:./Hardware/hardware/menu_data.c **** 			back_press_time += 50; // 每次循环递增50ms
 4083              		.loc 1 1471 20
 4084 0022 FB79     		ldrb	r3, [r7, #7]
 4085 0024 3233     		adds	r3, r3, #50
 4086 0026 FB71     		strb	r3, [r7, #7]
1472:./Hardware/hardware/menu_data.c **** 			if(back_press_time >= 100)
 4087              		.loc 1 1472 6
 4088 0028 FB79     		ldrb	r3, [r7, #7]	@ zero_extendqisi2
 4089 002a 632B     		cmp	r3, #99
 4090 002c 05D9     		bls	.L391
1473:./Hardware/hardware/menu_data.c **** 			{
1474:./Hardware/hardware/menu_data.c **** 				// 长按200ms，退出函数
1475:./Hardware/hardware/menu_data.c **** 				while(Key_back == 0); // 等待松手
 4091              		.loc 1 1475 10
 4092 002e 00BF     		nop
 4093              	.L392:
 4094              		.loc 1 1475 11 discriminator 1
 4095 0030 074B     		ldr	r3, .L395
 4096 0032 1B68     		ldr	r3, [r3]
 4097              		.loc 1 1475 10 discriminator 1
 4098 0034 002B     		cmp	r3, #0
 4099 0036 FBD0     		beq	.L392
1476:./Hardware/hardware/menu_data.c **** 				break;
 4100              		.loc 1 1476 5
 4101 0038 06E0     		b	.L389
 4102              	.L391:
1477:./Hardware/hardware/menu_data.c **** 			}
ARM GAS  C:\Users\86134\AppData\Local\Temp\ccuTN5uR.s 			page 99


1478:./Hardware/hardware/menu_data.c **** 			sd8804_f32768_off(IIC_TEST);
 4103              		.loc 1 1478 4
 4104 003a 0020     		movs	r0, #0
 4105 003c FFF7FEFF 		bl	sd8804_f32768_off
1479:./Hardware/hardware/menu_data.c **** 			return;
 4106              		.loc 1 1479 4
 4107 0040 02E0     		b	.L389
 4108              	.L390:
1480:./Hardware/hardware/menu_data.c **** 		}
1481:./Hardware/hardware/menu_data.c **** 		else
1482:./Hardware/hardware/menu_data.c **** 		{
1483:./Hardware/hardware/menu_data.c **** 			back_press_time = 0; // 重置计时器
 4109              		.loc 1 1483 20
 4110 0042 0023     		movs	r3, #0
 4111 0044 FB71     		strb	r3, [r7, #7]
1466:./Hardware/hardware/menu_data.c **** 		OLED_Update();
 4112              		.loc 1 1466 3
 4113 0046 E0E7     		b	.L394
 4114              	.L389:
1484:./Hardware/hardware/menu_data.c **** 		}
1485:./Hardware/hardware/menu_data.c **** 	}
1486:./Hardware/hardware/menu_data.c **** }
 4115              		.loc 1 1486 1
 4116 0048 0837     		adds	r7, r7, #8
 4117              	.LCFI192:
 4118              		.cfi_def_cfa_offset 8
 4119 004a BD46     		mov	sp, r7
 4120              	.LCFI193:
 4121              		.cfi_def_cfa_register 13
 4122              		@ sp needed
 4123 004c 80BD     		pop	{r7, pc}
 4124              	.L396:
 4125 004e 00BF     		.align	2
 4126              	.L395:
 4127 0050 34812142 		.word	1109492020
 4128              		.cfi_endproc
 4129              	.LFE70:
 4131              		.section	.text.f1024_8804_Out,"ax",%progbits
 4132              		.align	1
 4133              		.global	f1024_8804_Out
 4134              		.syntax unified
 4135              		.thumb
 4136              		.thumb_func
 4137              		.fpu softvfp
 4139              	f1024_8804_Out:
 4140              	.LFB71:
1487:./Hardware/hardware/menu_data.c **** 
1488:./Hardware/hardware/menu_data.c **** void f1024_8804_Out(void)
1489:./Hardware/hardware/menu_data.c **** {
 4141              		.loc 1 1489 1
 4142              		.cfi_startproc
 4143              		@ args = 0, pretend = 0, frame = 8
 4144              		@ frame_needed = 1, uses_anonymous_args = 0
 4145 0000 80B5     		push	{r7, lr}
 4146              	.LCFI194:
 4147              		.cfi_def_cfa_offset 8
 4148              		.cfi_offset 7, -8
ARM GAS  C:\Users\86134\AppData\Local\Temp\ccuTN5uR.s 			page 100


 4149              		.cfi_offset 14, -4
 4150 0002 82B0     		sub	sp, sp, #8
 4151              	.LCFI195:
 4152              		.cfi_def_cfa_offset 16
 4153 0004 00AF     		add	r7, sp, #0
 4154              	.LCFI196:
 4155              		.cfi_def_cfa_register 7
1490:./Hardware/hardware/menu_data.c **** 	uint8_t back_press_time = 0;
 4156              		.loc 1 1490 10
 4157 0006 0023     		movs	r3, #0
 4158 0008 FB71     		strb	r3, [r7, #7]
 4159              	.L402:
1491:./Hardware/hardware/menu_data.c **** 	
1492:./Hardware/hardware/menu_data.c **** 	while(1)
1493:./Hardware/hardware/menu_data.c **** 	{
1494:./Hardware/hardware/menu_data.c **** 		sd8804_f1024(IIC_TEST);
 4160              		.loc 1 1494 3
 4161 000a 0020     		movs	r0, #0
 4162 000c FFF7FEFF 		bl	sd8804_f1024
1495:./Hardware/hardware/menu_data.c **** 		OLED_Update();
 4163              		.loc 1 1495 3
 4164 0010 FFF7FEFF 		bl	OLED_Update
1496:./Hardware/hardware/menu_data.c **** 		if(Key_back == 0)
 4165              		.loc 1 1496 6
 4166 0014 0E4B     		ldr	r3, .L403
 4167 0016 1B68     		ldr	r3, [r3]
 4168              		.loc 1 1496 5
 4169 0018 002B     		cmp	r3, #0
 4170 001a 12D1     		bne	.L398
1497:./Hardware/hardware/menu_data.c **** 		{
1498:./Hardware/hardware/menu_data.c **** 			Delay_ms(10); // 消抖
 4171              		.loc 1 1498 4
 4172 001c 0A20     		movs	r0, #10
 4173 001e FFF7FEFF 		bl	Delay_ms
1499:./Hardware/hardware/menu_data.c **** 			back_press_time += 50; // 每次循环递增50ms
 4174              		.loc 1 1499 20
 4175 0022 FB79     		ldrb	r3, [r7, #7]
 4176 0024 3233     		adds	r3, r3, #50
 4177 0026 FB71     		strb	r3, [r7, #7]
1500:./Hardware/hardware/menu_data.c **** 			if(back_press_time >= 100)
 4178              		.loc 1 1500 6
 4179 0028 FB79     		ldrb	r3, [r7, #7]	@ zero_extendqisi2
 4180 002a 632B     		cmp	r3, #99
 4181 002c 05D9     		bls	.L399
1501:./Hardware/hardware/menu_data.c **** 			{
1502:./Hardware/hardware/menu_data.c **** 				// 长按200ms，退出函数
1503:./Hardware/hardware/menu_data.c **** 				while(Key_back == 0); // 等待松手
 4182              		.loc 1 1503 10
 4183 002e 00BF     		nop
 4184              	.L400:
 4185              		.loc 1 1503 11 discriminator 1
 4186 0030 074B     		ldr	r3, .L403
 4187 0032 1B68     		ldr	r3, [r3]
 4188              		.loc 1 1503 10 discriminator 1
 4189 0034 002B     		cmp	r3, #0
 4190 0036 FBD0     		beq	.L400
1504:./Hardware/hardware/menu_data.c **** 				break;
ARM GAS  C:\Users\86134\AppData\Local\Temp\ccuTN5uR.s 			page 101


 4191              		.loc 1 1504 5
 4192 0038 06E0     		b	.L397
 4193              	.L399:
1505:./Hardware/hardware/menu_data.c **** 			}
1506:./Hardware/hardware/menu_data.c **** 			sd8804_f1024_off(IIC_TEST);
 4194              		.loc 1 1506 4
 4195 003a 0020     		movs	r0, #0
 4196 003c FFF7FEFF 		bl	sd8804_f1024_off
1507:./Hardware/hardware/menu_data.c **** 			return;
 4197              		.loc 1 1507 4
 4198 0040 02E0     		b	.L397
 4199              	.L398:
1508:./Hardware/hardware/menu_data.c **** 		}
1509:./Hardware/hardware/menu_data.c **** 		else
1510:./Hardware/hardware/menu_data.c **** 		{
1511:./Hardware/hardware/menu_data.c **** 			back_press_time = 0; // 重置计时器
 4200              		.loc 1 1511 20
 4201 0042 0023     		movs	r3, #0
 4202 0044 FB71     		strb	r3, [r7, #7]
1494:./Hardware/hardware/menu_data.c **** 		OLED_Update();
 4203              		.loc 1 1494 3
 4204 0046 E0E7     		b	.L402
 4205              	.L397:
1512:./Hardware/hardware/menu_data.c **** 		}
1513:./Hardware/hardware/menu_data.c **** 	}
1514:./Hardware/hardware/menu_data.c **** }
 4206              		.loc 1 1514 1
 4207 0048 0837     		adds	r7, r7, #8
 4208              	.LCFI197:
 4209              		.cfi_def_cfa_offset 8
 4210 004a BD46     		mov	sp, r7
 4211              	.LCFI198:
 4212              		.cfi_def_cfa_register 13
 4213              		@ sp needed
 4214 004c 80BD     		pop	{r7, pc}
 4215              	.L404:
 4216 004e 00BF     		.align	2
 4217              	.L403:
 4218 0050 34812142 		.word	1109492020
 4219              		.cfi_endproc
 4220              	.LFE71:
 4222              		.section	.text.f1_8804_Out,"ax",%progbits
 4223              		.align	1
 4224              		.global	f1_8804_Out
 4225              		.syntax unified
 4226              		.thumb
 4227              		.thumb_func
 4228              		.fpu softvfp
 4230              	f1_8804_Out:
 4231              	.LFB72:
1515:./Hardware/hardware/menu_data.c **** 
1516:./Hardware/hardware/menu_data.c **** void f1_8804_Out(void)
1517:./Hardware/hardware/menu_data.c **** {
 4232              		.loc 1 1517 1
 4233              		.cfi_startproc
 4234              		@ args = 0, pretend = 0, frame = 8
 4235              		@ frame_needed = 1, uses_anonymous_args = 0
ARM GAS  C:\Users\86134\AppData\Local\Temp\ccuTN5uR.s 			page 102


 4236 0000 80B5     		push	{r7, lr}
 4237              	.LCFI199:
 4238              		.cfi_def_cfa_offset 8
 4239              		.cfi_offset 7, -8
 4240              		.cfi_offset 14, -4
 4241 0002 82B0     		sub	sp, sp, #8
 4242              	.LCFI200:
 4243              		.cfi_def_cfa_offset 16
 4244 0004 00AF     		add	r7, sp, #0
 4245              	.LCFI201:
 4246              		.cfi_def_cfa_register 7
1518:./Hardware/hardware/menu_data.c **** 	uint8_t back_press_time = 0;
 4247              		.loc 1 1518 10
 4248 0006 0023     		movs	r3, #0
 4249 0008 FB71     		strb	r3, [r7, #7]
 4250              	.L410:
1519:./Hardware/hardware/menu_data.c **** 	
1520:./Hardware/hardware/menu_data.c **** 	while(1)
1521:./Hardware/hardware/menu_data.c **** 	{
1522:./Hardware/hardware/menu_data.c **** 		sd8804_f1(IIC_TEST);
 4251              		.loc 1 1522 3
 4252 000a 0020     		movs	r0, #0
 4253 000c FFF7FEFF 		bl	sd8804_f1
1523:./Hardware/hardware/menu_data.c **** 		OLED_Update();
 4254              		.loc 1 1523 3
 4255 0010 FFF7FEFF 		bl	OLED_Update
1524:./Hardware/hardware/menu_data.c **** 		if(Key_back == 0)
 4256              		.loc 1 1524 6
 4257 0014 0E4B     		ldr	r3, .L411
 4258 0016 1B68     		ldr	r3, [r3]
 4259              		.loc 1 1524 5
 4260 0018 002B     		cmp	r3, #0
 4261 001a 12D1     		bne	.L406
1525:./Hardware/hardware/menu_data.c **** 		{
1526:./Hardware/hardware/menu_data.c **** 			Delay_ms(10); // 消抖
 4262              		.loc 1 1526 4
 4263 001c 0A20     		movs	r0, #10
 4264 001e FFF7FEFF 		bl	Delay_ms
1527:./Hardware/hardware/menu_data.c **** 			back_press_time += 50; // 每次循环递增50ms
 4265              		.loc 1 1527 20
 4266 0022 FB79     		ldrb	r3, [r7, #7]
 4267 0024 3233     		adds	r3, r3, #50
 4268 0026 FB71     		strb	r3, [r7, #7]
1528:./Hardware/hardware/menu_data.c **** 			if(back_press_time >= 100)
 4269              		.loc 1 1528 6
 4270 0028 FB79     		ldrb	r3, [r7, #7]	@ zero_extendqisi2
 4271 002a 632B     		cmp	r3, #99
 4272 002c 05D9     		bls	.L407
1529:./Hardware/hardware/menu_data.c **** 			{
1530:./Hardware/hardware/menu_data.c **** 				// 长按200ms，退出函数
1531:./Hardware/hardware/menu_data.c **** 				while(Key_back == 0); // 等待松手
 4273              		.loc 1 1531 10
 4274 002e 00BF     		nop
 4275              	.L408:
 4276              		.loc 1 1531 11 discriminator 1
 4277 0030 074B     		ldr	r3, .L411
 4278 0032 1B68     		ldr	r3, [r3]
ARM GAS  C:\Users\86134\AppData\Local\Temp\ccuTN5uR.s 			page 103


 4279              		.loc 1 1531 10 discriminator 1
 4280 0034 002B     		cmp	r3, #0
 4281 0036 FBD0     		beq	.L408
1532:./Hardware/hardware/menu_data.c **** 				break;
 4282              		.loc 1 1532 5
 4283 0038 06E0     		b	.L405
 4284              	.L407:
1533:./Hardware/hardware/menu_data.c **** 			}
1534:./Hardware/hardware/menu_data.c **** 			sd8804_f1_off(IIC_TEST);
 4285              		.loc 1 1534 4
 4286 003a 0020     		movs	r0, #0
 4287 003c FFF7FEFF 		bl	sd8804_f1_off
1535:./Hardware/hardware/menu_data.c **** 			return;
 4288              		.loc 1 1535 4
 4289 0040 02E0     		b	.L405
 4290              	.L406:
1536:./Hardware/hardware/menu_data.c **** 		}
1537:./Hardware/hardware/menu_data.c **** 		else
1538:./Hardware/hardware/menu_data.c **** 		{
1539:./Hardware/hardware/menu_data.c **** 			back_press_time = 0; // 重置计时器
 4291              		.loc 1 1539 20
 4292 0042 0023     		movs	r3, #0
