ARM GAS  C:\Users\86134\AppData\Local\Temp\ccyB0sod.s 			page 1


   1              		.cpu cortex-m3
   2              		.eabi_attribute 20, 1
   3              		.eabi_attribute 21, 1
   4              		.eabi_attribute 23, 3
   5              		.eabi_attribute 24, 1
   6              		.eabi_attribute 25, 1
   7              		.eabi_attribute 26, 1
   8              		.eabi_attribute 30, 6
   9              		.eabi_attribute 34, 1
  10              		.eabi_attribute 18, 4
  11              		.file	"oled.c"
  12              		.text
  13              	.Ltext0:
  14              		.cfi_sections	.debug_frame
  15              		.global	OLED_DisplayBuf
  16              		.section	.bss.OLED_DisplayBuf,"aw",%nobits
  17              		.align	2
  20              	OLED_DisplayBuf:
  21 0000 00000000 		.space	1024
  21      00000000 
  21      00000000 
  21      00000000 
  21      00000000 
  22              		.section	.text.OLED_W_SCL,"ax",%progbits
  23              		.align	1
  24              		.global	OLED_W_SCL
  25              		.arch armv7-m
  26              		.syntax unified
  27              		.thumb
  28              		.thumb_func
  29              		.fpu softvfp
  31              	OLED_W_SCL:
  32              	.LFB32:
  33              		.file 1 "./Hardware/hardware/oled.c"
   1:./Hardware/hardware/oled.c **** #include "stm32f10x.h"
   2:./Hardware/hardware/oled.c **** #include "oled.h"
   3:./Hardware/hardware/oled.c **** #include "Delay.h"
   4:./Hardware/hardware/oled.c **** #include <string.h>
   5:./Hardware/hardware/oled.c **** #include <math.h>
   6:./Hardware/hardware/oled.c **** #include <stdio.h>
   7:./Hardware/hardware/oled.c **** #include <stdarg.h>
   8:./Hardware/hardware/oled.c **** 
   9:./Hardware/hardware/oled.c **** /**
  10:./Hardware/hardware/oled.c ****   * 数据存储格式：
  11:./Hardware/hardware/oled.c ****   * 纵向8点，高位在下，先从左到右，再从上到下
  12:./Hardware/hardware/oled.c ****   * 每一个Bit对应一个像素点
  13:./Hardware/hardware/oled.c ****   * 
  14:./Hardware/hardware/oled.c ****   *      B0 B0                  B0 B0
  15:./Hardware/hardware/oled.c ****   *      B1 B1                  B1 B1
  16:./Hardware/hardware/oled.c ****   *      B2 B2                  B2 B2
  17:./Hardware/hardware/oled.c ****   *      B3 B3  ------------->  B3 B3 --
  18:./Hardware/hardware/oled.c ****   *      B4 B4                  B4 B4  |
  19:./Hardware/hardware/oled.c ****   *      B5 B5                  B5 B5  |
  20:./Hardware/hardware/oled.c ****   *      B6 B6                  B6 B6  |
  21:./Hardware/hardware/oled.c ****   *      B7 B7                  B7 B7  |
  22:./Hardware/hardware/oled.c ****   *                                    |
  23:./Hardware/hardware/oled.c ****   *  -----------------------------------
ARM GAS  C:\Users\86134\AppData\Local\Temp\ccyB0sod.s 			page 2


  24:./Hardware/hardware/oled.c ****   *  |   
  25:./Hardware/hardware/oled.c ****   *  |   B0 B0                  B0 B0
  26:./Hardware/hardware/oled.c ****   *  |   B1 B1                  B1 B1
  27:./Hardware/hardware/oled.c ****   *  |   B2 B2                  B2 B2
  28:./Hardware/hardware/oled.c ****   *  --> B3 B3  ------------->  B3 B3
  29:./Hardware/hardware/oled.c ****   *      B4 B4                  B4 B4
  30:./Hardware/hardware/oled.c ****   *      B5 B5                  B5 B5
  31:./Hardware/hardware/oled.c ****   *      B6 B6                  B6 B6
  32:./Hardware/hardware/oled.c ****   *      B7 B7                  B7 B7
  33:./Hardware/hardware/oled.c ****   * 
  34:./Hardware/hardware/oled.c ****   * 坐标轴定义：
  35:./Hardware/hardware/oled.c ****   * 左上角为(0, 0)点
  36:./Hardware/hardware/oled.c ****   * 横向向右为X轴，取值范围：0~127
  37:./Hardware/hardware/oled.c ****   * 纵向向下为Y轴，取值范围：0~63
  38:./Hardware/hardware/oled.c ****   * 
  39:./Hardware/hardware/oled.c ****   *       0             X轴           127 
  40:./Hardware/hardware/oled.c ****   *      .------------------------------->
  41:./Hardware/hardware/oled.c ****   *    0 |
  42:./Hardware/hardware/oled.c ****   *      |
  43:./Hardware/hardware/oled.c ****   *      |
  44:./Hardware/hardware/oled.c ****   *      |
  45:./Hardware/hardware/oled.c ****   *  Y轴 |
  46:./Hardware/hardware/oled.c ****   *      |
  47:./Hardware/hardware/oled.c ****   *      |
  48:./Hardware/hardware/oled.c ****   *      |
  49:./Hardware/hardware/oled.c ****   *   63 |
  50:./Hardware/hardware/oled.c ****   *      v
  51:./Hardware/hardware/oled.c ****   * 
  52:./Hardware/hardware/oled.c ****   */
  53:./Hardware/hardware/oled.c **** 
  54:./Hardware/hardware/oled.c **** 
  55:./Hardware/hardware/oled.c **** /*全局变量*********************/
  56:./Hardware/hardware/oled.c **** 
  57:./Hardware/hardware/oled.c **** /**
  58:./Hardware/hardware/oled.c ****   * OLED显存数组
  59:./Hardware/hardware/oled.c ****   * 所有的显示函数，都只是对此显存数组进行读写
  60:./Hardware/hardware/oled.c ****   * 随后调用OLED_Update函数或OLED_UpdateArea函数
  61:./Hardware/hardware/oled.c ****   * 才会将显存数组的数据发送到OLED硬件，进行显示
  62:./Hardware/hardware/oled.c ****   */
  63:./Hardware/hardware/oled.c **** uint8_t OLED_DisplayBuf[8][128];
  64:./Hardware/hardware/oled.c **** 
  65:./Hardware/hardware/oled.c **** /*********************全局变量*/
  66:./Hardware/hardware/oled.c **** 
  67:./Hardware/hardware/oled.c **** 
  68:./Hardware/hardware/oled.c **** /*引脚配置*********************/
  69:./Hardware/hardware/oled.c **** 
  70:./Hardware/hardware/oled.c **** /**
  71:./Hardware/hardware/oled.c ****   * 函    数：OLED写SCL高低电平
  72:./Hardware/hardware/oled.c ****   * 参    数：要写入SCL的电平值，范围：0/1
  73:./Hardware/hardware/oled.c ****   * 返 回 值：无
  74:./Hardware/hardware/oled.c ****   * 说    明：当上层函数需要写SCL时，此函数会被调用
  75:./Hardware/hardware/oled.c ****   *           用户需要根据参数传入的值，将SCL置为高电平或者低电平
  76:./Hardware/hardware/oled.c ****   *           当参数传入0时，置SCL为低电平，当参数传入1时，置SCL为高电平
  77:./Hardware/hardware/oled.c ****   */
  78:./Hardware/hardware/oled.c **** void OLED_W_SCL(uint8_t BitValue)
  79:./Hardware/hardware/oled.c **** {
  34              		.loc 1 79 1
ARM GAS  C:\Users\86134\AppData\Local\Temp\ccyB0sod.s 			page 3


  35              		.cfi_startproc
  36              		@ args = 0, pretend = 0, frame = 8
  37              		@ frame_needed = 1, uses_anonymous_args = 0
  38 0000 80B5     		push	{r7, lr}
  39              	.LCFI0:
  40              		.cfi_def_cfa_offset 8
  41              		.cfi_offset 7, -8
  42              		.cfi_offset 14, -4
  43 0002 82B0     		sub	sp, sp, #8
  44              	.LCFI1:
  45              		.cfi_def_cfa_offset 16
  46 0004 00AF     		add	r7, sp, #0
  47              	.LCFI2:
  48              		.cfi_def_cfa_register 7
  49 0006 0346     		mov	r3, r0
  50 0008 FB71     		strb	r3, [r7, #7]
  80:./Hardware/hardware/oled.c **** 	/*根据BitValue的值，将SCL置高电平或者低电平*/
  81:./Hardware/hardware/oled.c **** 	GPIO_WriteBit(GPIOB, GPIO_Pin_10, (BitAction)BitValue);
  51              		.loc 1 81 2
  52 000a FB79     		ldrb	r3, [r7, #7]	@ zero_extendqisi2
  53 000c 1A46     		mov	r2, r3
  54 000e 4FF48061 		mov	r1, #1024
  55 0012 0548     		ldr	r0, .L2
  56 0014 FFF7FEFF 		bl	GPIO_WriteBit
  82:./Hardware/hardware/oled.c **** 	Delay_us(3);
  57              		.loc 1 82 2
  58 0018 0320     		movs	r0, #3
  59 001a FFF7FEFF 		bl	Delay_us
  83:./Hardware/hardware/oled.c **** 	/*如果单片机速度过快，可在此添加适量延时，以避免超出I2C通信的最大速度*/
  84:./Hardware/hardware/oled.c **** 	//...
  85:./Hardware/hardware/oled.c **** }
  60              		.loc 1 85 1
  61 001e 00BF     		nop
  62 0020 0837     		adds	r7, r7, #8
  63              	.LCFI3:
  64              		.cfi_def_cfa_offset 8
  65 0022 BD46     		mov	sp, r7
  66              	.LCFI4:
  67              		.cfi_def_cfa_register 13
  68              		@ sp needed
  69 0024 80BD     		pop	{r7, pc}
  70              	.L3:
  71 0026 00BF     		.align	2
  72              	.L2:
  73 0028 000C0140 		.word	1073810432
  74              		.cfi_endproc
  75              	.LFE32:
  77              		.section	.text.OLED_W_SDA,"ax",%progbits
  78              		.align	1
  79              		.global	OLED_W_SDA
  80              		.syntax unified
  81              		.thumb
  82              		.thumb_func
  83              		.fpu softvfp
  85              	OLED_W_SDA:
  86              	.LFB33:
  86:./Hardware/hardware/oled.c **** 
ARM GAS  C:\Users\86134\AppData\Local\Temp\ccyB0sod.s 			page 4


  87:./Hardware/hardware/oled.c **** /**
  88:./Hardware/hardware/oled.c ****   * 函    数：OLED写SDA高低电平
  89:./Hardware/hardware/oled.c ****   * 参    数：要写入SDA的电平值，范围：0/1
  90:./Hardware/hardware/oled.c ****   * 返 回 值：无
  91:./Hardware/hardware/oled.c ****   * 说    明：当上层函数需要写SDA时，此函数会被调用
  92:./Hardware/hardware/oled.c ****   *           用户需要根据参数传入的值，将SDA置为高电平或者低电平
  93:./Hardware/hardware/oled.c ****   *           当参数传入0时，置SDA为低电平，当参数传入1时，置SDA为高电平
  94:./Hardware/hardware/oled.c ****   */
  95:./Hardware/hardware/oled.c **** void OLED_W_SDA(uint8_t BitValue)
  96:./Hardware/hardware/oled.c **** {
  87              		.loc 1 96 1
  88              		.cfi_startproc
  89              		@ args = 0, pretend = 0, frame = 8
  90              		@ frame_needed = 1, uses_anonymous_args = 0
  91 0000 80B5     		push	{r7, lr}
  92              	.LCFI5:
  93              		.cfi_def_cfa_offset 8
  94              		.cfi_offset 7, -8
  95              		.cfi_offset 14, -4
  96 0002 82B0     		sub	sp, sp, #8
  97              	.LCFI6:
  98              		.cfi_def_cfa_offset 16
  99 0004 00AF     		add	r7, sp, #0
 100              	.LCFI7:
 101              		.cfi_def_cfa_register 7
 102 0006 0346     		mov	r3, r0
 103 0008 FB71     		strb	r3, [r7, #7]
  97:./Hardware/hardware/oled.c **** 	/*根据BitValue的值，将SDA置高电平或者低电平*/
  98:./Hardware/hardware/oled.c **** 	GPIO_WriteBit(GPIOB, GPIO_Pin_11, (BitAction)BitValue);
 104              		.loc 1 98 2
 105 000a FB79     		ldrb	r3, [r7, #7]	@ zero_extendqisi2
 106 000c 1A46     		mov	r2, r3
 107 000e 4FF40061 		mov	r1, #2048
 108 0012 0548     		ldr	r0, .L5
 109 0014 FFF7FEFF 		bl	GPIO_WriteBit
  99:./Hardware/hardware/oled.c **** 	Delay_us(3);
 110              		.loc 1 99 2
 111 0018 0320     		movs	r0, #3
 112 001a FFF7FEFF 		bl	Delay_us
 100:./Hardware/hardware/oled.c **** 	/*如果单片机速度过快，可在此添加适量延时，以避免超出I2C通信的最大速度*/
 101:./Hardware/hardware/oled.c **** 	//...
 102:./Hardware/hardware/oled.c **** }
 113              		.loc 1 102 1
 114 001e 00BF     		nop
 115 0020 0837     		adds	r7, r7, #8
 116              	.LCFI8:
 117              		.cfi_def_cfa_offset 8
 118 0022 BD46     		mov	sp, r7
 119              	.LCFI9:
 120              		.cfi_def_cfa_register 13
 121              		@ sp needed
 122 0024 80BD     		pop	{r7, pc}
 123              	.L6:
 124 0026 00BF     		.align	2
 125              	.L5:
 126 0028 000C0140 		.word	1073810432
 127              		.cfi_endproc
ARM GAS  C:\Users\86134\AppData\Local\Temp\ccyB0sod.s 			page 5


 128              	.LFE33:
 130              		.section	.text.OLED_GPIO_Init,"ax",%progbits
 131              		.align	1
 132              		.global	OLED_GPIO_Init
 133              		.syntax unified
 134              		.thumb
 135              		.thumb_func
 136              		.fpu softvfp
 138              	OLED_GPIO_Init:
 139              	.LFB34:
 103:./Hardware/hardware/oled.c **** 
 104:./Hardware/hardware/oled.c **** /**
 105:./Hardware/hardware/oled.c ****   * 函    数：OLED引脚初始化
 106:./Hardware/hardware/oled.c ****   * 参    数：无
 107:./Hardware/hardware/oled.c ****   * 返 回 值：无
 108:./Hardware/hardware/oled.c ****   * 说    明：当上层函数需要初始化时，此函数会被调用
 109:./Hardware/hardware/oled.c ****   *           用户需要将SCL和SDA引脚初始化为开漏模式，并释放引脚
 110:./Hardware/hardware/oled.c ****   */
 111:./Hardware/hardware/oled.c **** void OLED_GPIO_Init(void)
 112:./Hardware/hardware/oled.c **** {
 140              		.loc 1 112 1
 141              		.cfi_startproc
 142              		@ args = 0, pretend = 0, frame = 16
 143              		@ frame_needed = 1, uses_anonymous_args = 0
 144 0000 80B5     		push	{r7, lr}
 145              	.LCFI10:
 146              		.cfi_def_cfa_offset 8
 147              		.cfi_offset 7, -8
 148              		.cfi_offset 14, -4
 149 0002 84B0     		sub	sp, sp, #16
 150              	.LCFI11:
 151              		.cfi_def_cfa_offset 24
 152 0004 00AF     		add	r7, sp, #0
 153              	.LCFI12:
 154              		.cfi_def_cfa_register 7
 113:./Hardware/hardware/oled.c **** 	uint32_t i, j;
 114:./Hardware/hardware/oled.c **** 	
 115:./Hardware/hardware/oled.c **** 	/*在初始化前，加入适量延时，待OLED供电稳定*/
 116:./Hardware/hardware/oled.c **** 	for (i = 0; i < 1000; i ++)
 155              		.loc 1 116 9
 156 0006 0023     		movs	r3, #0
 157 0008 FB60     		str	r3, [r7, #12]
 158              		.loc 1 116 2
 159 000a 0CE0     		b	.L8
 160              	.L11:
 117:./Hardware/hardware/oled.c **** 	{
 118:./Hardware/hardware/oled.c **** 		for (j = 0; j < 1000; j ++);
 161              		.loc 1 118 10
 162 000c 0023     		movs	r3, #0
 163 000e BB60     		str	r3, [r7, #8]
 164              		.loc 1 118 3
 165 0010 02E0     		b	.L9
 166              	.L10:
 167              		.loc 1 118 27 discriminator 3
 168 0012 BB68     		ldr	r3, [r7, #8]
 169 0014 0133     		adds	r3, r3, #1
 170 0016 BB60     		str	r3, [r7, #8]
ARM GAS  C:\Users\86134\AppData\Local\Temp\ccyB0sod.s 			page 6


 171              	.L9:
 172              		.loc 1 118 3 discriminator 1
 173 0018 BB68     		ldr	r3, [r7, #8]
 174 001a B3F57A7F 		cmp	r3, #1000
 175 001e F8D3     		bcc	.L10
 116:./Hardware/hardware/oled.c **** 	{
 176              		.loc 1 116 26 discriminator 2
 177 0020 FB68     		ldr	r3, [r7, #12]
 178 0022 0133     		adds	r3, r3, #1
 179 0024 FB60     		str	r3, [r7, #12]
 180              	.L8:
 116:./Hardware/hardware/oled.c **** 	{
 181              		.loc 1 116 2 discriminator 1
 182 0026 FB68     		ldr	r3, [r7, #12]
 183 0028 B3F57A7F 		cmp	r3, #1000
 184 002c EED3     		bcc	.L11
 119:./Hardware/hardware/oled.c **** 	}
 120:./Hardware/hardware/oled.c **** 	
 121:./Hardware/hardware/oled.c **** 	/*将SCL和SDA引脚初始化为开漏模式*/
 122:./Hardware/hardware/oled.c ****     RCC_APB2PeriphClockCmd(RCC_APB2Periph_GPIOB, ENABLE);
 185              		.loc 1 122 5
 186 002e 0121     		movs	r1, #1
 187 0030 0820     		movs	r0, #8
 188 0032 FFF7FEFF 		bl	RCC_APB2PeriphClockCmd
 123:./Hardware/hardware/oled.c **** 	
 124:./Hardware/hardware/oled.c **** 	GPIO_InitTypeDef GPIO_InitStructure;
 125:./Hardware/hardware/oled.c ****  	GPIO_InitStructure.GPIO_Mode = GPIO_Mode_Out_OD;
 189              		.loc 1 125 32
 190 0036 1423     		movs	r3, #20
 191 0038 FB71     		strb	r3, [r7, #7]
 126:./Hardware/hardware/oled.c **** 	GPIO_InitStructure.GPIO_Speed = GPIO_Speed_50MHz;
 192              		.loc 1 126 32
 193 003a 0323     		movs	r3, #3
 194 003c BB71     		strb	r3, [r7, #6]
 127:./Hardware/hardware/oled.c **** 	GPIO_InitStructure.GPIO_Pin = GPIO_Pin_10;
 195              		.loc 1 127 30
 196 003e 4FF48063 		mov	r3, #1024
 197 0042 BB80     		strh	r3, [r7, #4]	@ movhi
 128:./Hardware/hardware/oled.c ****  	GPIO_Init(GPIOB, &GPIO_InitStructure);
 198              		.loc 1 128 3
 199 0044 3B1D     		adds	r3, r7, #4
 200 0046 1946     		mov	r1, r3
 201 0048 0A48     		ldr	r0, .L12
 202 004a FFF7FEFF 		bl	GPIO_Init
 129:./Hardware/hardware/oled.c **** 	GPIO_InitStructure.GPIO_Pin = GPIO_Pin_11;
 203              		.loc 1 129 30
 204 004e 4FF40063 		mov	r3, #2048
 205 0052 BB80     		strh	r3, [r7, #4]	@ movhi
 130:./Hardware/hardware/oled.c ****  	GPIO_Init(GPIOB, &GPIO_InitStructure);
 206              		.loc 1 130 3
 207 0054 3B1D     		adds	r3, r7, #4
 208 0056 1946     		mov	r1, r3
 209 0058 0648     		ldr	r0, .L12
 210 005a FFF7FEFF 		bl	GPIO_Init
 131:./Hardware/hardware/oled.c **** 	
 132:./Hardware/hardware/oled.c **** 	/*释放SCL和SDA*/
 133:./Hardware/hardware/oled.c **** 	OLED_W_SCL(1);
ARM GAS  C:\Users\86134\AppData\Local\Temp\ccyB0sod.s 			page 7


 211              		.loc 1 133 2
 212 005e 0120     		movs	r0, #1
 213 0060 FFF7FEFF 		bl	OLED_W_SCL
 134:./Hardware/hardware/oled.c **** 	OLED_W_SDA(1);
 214              		.loc 1 134 2
 215 0064 0120     		movs	r0, #1
 216 0066 FFF7FEFF 		bl	OLED_W_SDA
 135:./Hardware/hardware/oled.c **** }
 217              		.loc 1 135 1
 218 006a 00BF     		nop
 219 006c 1037     		adds	r7, r7, #16
 220              	.LCFI13:
 221              		.cfi_def_cfa_offset 8
 222 006e BD46     		mov	sp, r7
 223              	.LCFI14:
 224              		.cfi_def_cfa_register 13
 225              		@ sp needed
 226 0070 80BD     		pop	{r7, pc}
 227              	.L13:
 228 0072 00BF     		.align	2
 229              	.L12:
 230 0074 000C0140 		.word	1073810432
 231              		.cfi_endproc
 232              	.LFE34:
 234              		.section	.text.OLED_I2C_Start,"ax",%progbits
 235              		.align	1
 236              		.global	OLED_I2C_Start
 237              		.syntax unified
 238              		.thumb
 239              		.thumb_func
 240              		.fpu softvfp
 242              	OLED_I2C_Start:
 243              	.LFB35:
 136:./Hardware/hardware/oled.c **** 
 137:./Hardware/hardware/oled.c **** /*********************引脚配置*/
 138:./Hardware/hardware/oled.c **** 
 139:./Hardware/hardware/oled.c **** 
 140:./Hardware/hardware/oled.c **** /*通信协议*********************/
 141:./Hardware/hardware/oled.c **** 
 142:./Hardware/hardware/oled.c **** /**
 143:./Hardware/hardware/oled.c ****   * 函    数：I2C起始
 144:./Hardware/hardware/oled.c ****   * 参    数：无
 145:./Hardware/hardware/oled.c ****   * 返 回 值：无
 146:./Hardware/hardware/oled.c ****   */
 147:./Hardware/hardware/oled.c **** void OLED_I2C_Start(void)
 148:./Hardware/hardware/oled.c **** {
 244              		.loc 1 148 1
 245              		.cfi_startproc
 246              		@ args = 0, pretend = 0, frame = 0
 247              		@ frame_needed = 1, uses_anonymous_args = 0
 248 0000 80B5     		push	{r7, lr}
 249              	.LCFI15:
 250              		.cfi_def_cfa_offset 8
 251              		.cfi_offset 7, -8
 252              		.cfi_offset 14, -4
 253 0002 00AF     		add	r7, sp, #0
 254              	.LCFI16:
ARM GAS  C:\Users\86134\AppData\Local\Temp\ccyB0sod.s 			page 8


 255              		.cfi_def_cfa_register 7
 149:./Hardware/hardware/oled.c **** 	OLED_W_SDA(1);		//释放SDA，确保SDA为高电平
 256              		.loc 1 149 2
 257 0004 0120     		movs	r0, #1
 258 0006 FFF7FEFF 		bl	OLED_W_SDA
 150:./Hardware/hardware/oled.c **** 	OLED_W_SCL(1);		//释放SCL，确保SCL为高电平
 259              		.loc 1 150 2
 260 000a 0120     		movs	r0, #1
 261 000c FFF7FEFF 		bl	OLED_W_SCL
 151:./Hardware/hardware/oled.c **** 	OLED_W_SDA(0);		//在SCL高电平期间，拉低SDA，产生起始信号
 262              		.loc 1 151 2
 263 0010 0020     		movs	r0, #0
 264 0012 FFF7FEFF 		bl	OLED_W_SDA
 152:./Hardware/hardware/oled.c **** 	OLED_W_SCL(0);		//起始后把SCL也拉低，即为了占用总线，也为了方便总线时序的拼接
 265              		.loc 1 152 2
 266 0016 0020     		movs	r0, #0
 267 0018 FFF7FEFF 		bl	OLED_W_SCL
 153:./Hardware/hardware/oled.c **** }
 268              		.loc 1 153 1
 269 001c 00BF     		nop
 270 001e 80BD     		pop	{r7, pc}
 271              		.cfi_endproc
 272              	.LFE35:
 274              		.section	.text.OLED_I2C_Stop,"ax",%progbits
 275              		.align	1
 276              		.global	OLED_I2C_Stop
 277              		.syntax unified
 278              		.thumb
 279              		.thumb_func
 280              		.fpu softvfp
 282              	OLED_I2C_Stop:
 283              	.LFB36:
 154:./Hardware/hardware/oled.c **** 
 155:./Hardware/hardware/oled.c **** /**
 156:./Hardware/hardware/oled.c ****   * 函    数：I2C终止
 157:./Hardware/hardware/oled.c ****   * 参    数：无
 158:./Hardware/hardware/oled.c ****   * 返 回 值：无
 159:./Hardware/hardware/oled.c ****   */
 160:./Hardware/hardware/oled.c **** void OLED_I2C_Stop(void)
 161:./Hardware/hardware/oled.c **** {
 284              		.loc 1 161 1
 285              		.cfi_startproc
 286              		@ args = 0, pretend = 0, frame = 0
 287              		@ frame_needed = 1, uses_anonymous_args = 0
 288 0000 80B5     		push	{r7, lr}
 289              	.LCFI17:
 290              		.cfi_def_cfa_offset 8
 291              		.cfi_offset 7, -8
 292              		.cfi_offset 14, -4
 293 0002 00AF     		add	r7, sp, #0
 294              	.LCFI18:
 295              		.cfi_def_cfa_register 7
 162:./Hardware/hardware/oled.c **** 	OLED_W_SDA(0);		//拉低SDA，确保SDA为低电平
 296              		.loc 1 162 2
 297 0004 0020     		movs	r0, #0
 298 0006 FFF7FEFF 		bl	OLED_W_SDA
 163:./Hardware/hardware/oled.c **** 	OLED_W_SCL(1);		//释放SCL，使SCL呈现高电平
ARM GAS  C:\Users\86134\AppData\Local\Temp\ccyB0sod.s 			page 9


 299              		.loc 1 163 2
 300 000a 0120     		movs	r0, #1
 301 000c FFF7FEFF 		bl	OLED_W_SCL
 164:./Hardware/hardware/oled.c **** 	OLED_W_SDA(1);		//在SCL高电平期间，释放SDA，产生终止信号
 302              		.loc 1 164 2
 303 0010 0120     		movs	r0, #1
 304 0012 FFF7FEFF 		bl	OLED_W_SDA
 165:./Hardware/hardware/oled.c **** }
 305              		.loc 1 165 1
 306 0016 00BF     		nop
 307 0018 80BD     		pop	{r7, pc}
 308              		.cfi_endproc
 309              	.LFE36:
 311              		.section	.text.OLED_I2C_SendByte,"ax",%progbits
 312              		.align	1
 313              		.global	OLED_I2C_SendByte
 314              		.syntax unified
 315              		.thumb
 316              		.thumb_func
 317              		.fpu softvfp
 319              	OLED_I2C_SendByte:
 320              	.LFB37:
 166:./Hardware/hardware/oled.c **** 
 167:./Hardware/hardware/oled.c **** /**
 168:./Hardware/hardware/oled.c ****   * 函    数：I2C发送一个字节
 169:./Hardware/hardware/oled.c ****   * 参    数：Byte 要发送的一个字节数据，范围：0x00~0xFF
 170:./Hardware/hardware/oled.c ****   * 返 回 值：无
 171:./Hardware/hardware/oled.c ****   */
 172:./Hardware/hardware/oled.c **** void OLED_I2C_SendByte(uint8_t Byte)
 173:./Hardware/hardware/oled.c **** {
 321              		.loc 1 173 1
 322              		.cfi_startproc
 323              		@ args = 0, pretend = 0, frame = 16
 324              		@ frame_needed = 1, uses_anonymous_args = 0
 325 0000 80B5     		push	{r7, lr}
 326              	.LCFI19:
 327              		.cfi_def_cfa_offset 8
 328              		.cfi_offset 7, -8
 329              		.cfi_offset 14, -4
 330 0002 84B0     		sub	sp, sp, #16
 331              	.LCFI20:
 332              		.cfi_def_cfa_offset 24
 333 0004 00AF     		add	r7, sp, #0
 334              	.LCFI21:
 335              		.cfi_def_cfa_register 7
 336 0006 0346     		mov	r3, r0
 337 0008 FB71     		strb	r3, [r7, #7]
 174:./Hardware/hardware/oled.c **** 	uint8_t i;
 175:./Hardware/hardware/oled.c **** 	
 176:./Hardware/hardware/oled.c **** 	/*循环8次，主机依次发送数据的每一位*/
 177:./Hardware/hardware/oled.c **** 	for (i = 0; i < 8; i++)
 338              		.loc 1 177 9
 339 000a 0023     		movs	r3, #0
 340 000c FB73     		strb	r3, [r7, #15]
 341              		.loc 1 177 2
 342 000e 16E0     		b	.L17
 343              	.L18:
ARM GAS  C:\Users\86134\AppData\Local\Temp\ccyB0sod.s 			page 10


 178:./Hardware/hardware/oled.c **** 	{
 179:./Hardware/hardware/oled.c **** 		/*使用掩码的方式取出Byte的指定一位数据并写入到SDA线*/
 180:./Hardware/hardware/oled.c **** 		/*两个!的作用是，让所有非零的值变为1*/
 181:./Hardware/hardware/oled.c **** 		OLED_W_SDA(!!(Byte & (0x80 >> i)));
 344              		.loc 1 181 22 discriminator 3
 345 0010 FA79     		ldrb	r2, [r7, #7]	@ zero_extendqisi2
 346              		.loc 1 181 30 discriminator 3
 347 0012 FB7B     		ldrb	r3, [r7, #15]	@ zero_extendqisi2
 348 0014 8021     		movs	r1, #128
 349 0016 41FA03F3 		asr	r3, r1, r3
 350              		.loc 1 181 22 discriminator 3
 351 001a 1340     		ands	r3, r3, r2
 352              		.loc 1 181 3 discriminator 3
 353 001c 002B     		cmp	r3, #0
 354 001e 14BF     		ite	ne
 355 0020 0123     		movne	r3, #1
 356 0022 0023     		moveq	r3, #0
 357 0024 DBB2     		uxtb	r3, r3
 358 0026 1846     		mov	r0, r3
 359 0028 FFF7FEFF 		bl	OLED_W_SDA
 182:./Hardware/hardware/oled.c **** 		OLED_W_SCL(1);	//释放SCL，从机在SCL高电平期间读取SDA
 360              		.loc 1 182 3 discriminator 3
 361 002c 0120     		movs	r0, #1
 362 002e FFF7FEFF 		bl	OLED_W_SCL
 183:./Hardware/hardware/oled.c **** 		OLED_W_SCL(0);	//拉低SCL，主机开始发送下一位数据
 363              		.loc 1 183 3 discriminator 3
 364 0032 0020     		movs	r0, #0
 365 0034 FFF7FEFF 		bl	OLED_W_SCL
 177:./Hardware/hardware/oled.c **** 	{
 366              		.loc 1 177 22 discriminator 3
 367 0038 FB7B     		ldrb	r3, [r7, #15]	@ zero_extendqisi2
 368 003a 0133     		adds	r3, r3, #1
 369 003c FB73     		strb	r3, [r7, #15]
 370              	.L17:
 177:./Hardware/hardware/oled.c **** 	{
 371              		.loc 1 177 2 discriminator 1
 372 003e FB7B     		ldrb	r3, [r7, #15]	@ zero_extendqisi2
 373 0040 072B     		cmp	r3, #7
 374 0042 E5D9     		bls	.L18
 184:./Hardware/hardware/oled.c **** 	}
 185:./Hardware/hardware/oled.c **** 	
 186:./Hardware/hardware/oled.c **** 	OLED_W_SCL(1);		//额外的一个时钟，不处理应答信号
 375              		.loc 1 186 2
 376 0044 0120     		movs	r0, #1
 377 0046 FFF7FEFF 		bl	OLED_W_SCL
 187:./Hardware/hardware/oled.c **** 	OLED_W_SCL(0);
 378              		.loc 1 187 2
 379 004a 0020     		movs	r0, #0
 380 004c FFF7FEFF 		bl	OLED_W_SCL
 188:./Hardware/hardware/oled.c **** }
 381              		.loc 1 188 1
 382 0050 00BF     		nop
 383 0052 1037     		adds	r7, r7, #16
 384              	.LCFI22:
 385              		.cfi_def_cfa_offset 8
 386 0054 BD46     		mov	sp, r7
 387              	.LCFI23:
ARM GAS  C:\Users\86134\AppData\Local\Temp\ccyB0sod.s 			page 11


 388              		.cfi_def_cfa_register 13
 389              		@ sp needed
 390 0056 80BD     		pop	{r7, pc}
 391              		.cfi_endproc
 392              	.LFE37:
 394              		.section	.text.OLED_WriteCommand,"ax",%progbits
 395              		.align	1
 396              		.global	OLED_WriteCommand
 397              		.syntax unified
 398              		.thumb
 399              		.thumb_func
 400              		.fpu softvfp
 402              	OLED_WriteCommand:
 403              	.LFB38:
 189:./Hardware/hardware/oled.c **** 
 190:./Hardware/hardware/oled.c **** /**
 191:./Hardware/hardware/oled.c ****   * 函    数：OLED写命令
 192:./Hardware/hardware/oled.c ****   * 参    数：Command 要写入的命令值，范围：0x00~0xFF
 193:./Hardware/hardware/oled.c ****   * 返 回 值：无
 194:./Hardware/hardware/oled.c ****   */
 195:./Hardware/hardware/oled.c **** void OLED_WriteCommand(uint8_t Command)
 196:./Hardware/hardware/oled.c **** {
 404              		.loc 1 196 1
 405              		.cfi_startproc
 406              		@ args = 0, pretend = 0, frame = 8
 407              		@ frame_needed = 1, uses_anonymous_args = 0
 408 0000 80B5     		push	{r7, lr}
 409              	.LCFI24:
 410              		.cfi_def_cfa_offset 8
 411              		.cfi_offset 7, -8
 412              		.cfi_offset 14, -4
 413 0002 82B0     		sub	sp, sp, #8
 414              	.LCFI25:
 415              		.cfi_def_cfa_offset 16
 416 0004 00AF     		add	r7, sp, #0
 417              	.LCFI26:
 418              		.cfi_def_cfa_register 7
 419 0006 0346     		mov	r3, r0
 420 0008 FB71     		strb	r3, [r7, #7]
 197:./Hardware/hardware/oled.c **** 	OLED_I2C_Start();				//I2C起始
 421              		.loc 1 197 2
 422 000a FFF7FEFF 		bl	OLED_I2C_Start
 198:./Hardware/hardware/oled.c **** 	OLED_I2C_SendByte(0x78);		//发送OLED的I2C从机地址
 423              		.loc 1 198 2
 424 000e 7820     		movs	r0, #120
 425 0010 FFF7FEFF 		bl	OLED_I2C_SendByte
 199:./Hardware/hardware/oled.c **** 	OLED_I2C_SendByte(0x00);		//控制字节，给0x00，表示即将写命令
 426              		.loc 1 199 2
 427 0014 0020     		movs	r0, #0
 428 0016 FFF7FEFF 		bl	OLED_I2C_SendByte
 200:./Hardware/hardware/oled.c **** 	OLED_I2C_SendByte(Command);		//写入指定的命令
 429              		.loc 1 200 2
 430 001a FB79     		ldrb	r3, [r7, #7]	@ zero_extendqisi2
 431 001c 1846     		mov	r0, r3
 432 001e FFF7FEFF 		bl	OLED_I2C_SendByte
 201:./Hardware/hardware/oled.c **** 	OLED_I2C_Stop();				//I2C终止
 433              		.loc 1 201 2
ARM GAS  C:\Users\86134\AppData\Local\Temp\ccyB0sod.s 			page 12


 434 0022 FFF7FEFF 		bl	OLED_I2C_Stop
 202:./Hardware/hardware/oled.c **** }
 435              		.loc 1 202 1
 436 0026 00BF     		nop
 437 0028 0837     		adds	r7, r7, #8
 438              	.LCFI27:
 439              		.cfi_def_cfa_offset 8
 440 002a BD46     		mov	sp, r7
 441              	.LCFI28:
 442              		.cfi_def_cfa_register 13
 443              		@ sp needed
 444 002c 80BD     		pop	{r7, pc}
 445              		.cfi_endproc
 446              	.LFE38:
 448              		.section	.text.OLED_WriteData,"ax",%progbits
 449              		.align	1
 450              		.global	OLED_WriteData
 451              		.syntax unified
 452              		.thumb
 453              		.thumb_func
 454              		.fpu softvfp
 456              	OLED_WriteData:
 457              	.LFB39:
 203:./Hardware/hardware/oled.c **** 
 204:./Hardware/hardware/oled.c **** /**
 205:./Hardware/hardware/oled.c ****   * 函    数：OLED写数据
 206:./Hardware/hardware/oled.c ****   * 参    数：Data 要写入数据的起始地址
 207:./Hardware/hardware/oled.c ****   * 参    数：Count 要写入数据的数量
 208:./Hardware/hardware/oled.c ****   * 返 回 值：无
 209:./Hardware/hardware/oled.c ****   */
 210:./Hardware/hardware/oled.c **** void OLED_WriteData(uint8_t *Data, uint8_t Count)
 211:./Hardware/hardware/oled.c **** {
 458              		.loc 1 211 1
 459              		.cfi_startproc
 460              		@ args = 0, pretend = 0, frame = 16
 461              		@ frame_needed = 1, uses_anonymous_args = 0
 462 0000 80B5     		push	{r7, lr}
 463              	.LCFI29:
 464              		.cfi_def_cfa_offset 8
 465              		.cfi_offset 7, -8
 466              		.cfi_offset 14, -4
 467 0002 84B0     		sub	sp, sp, #16
 468              	.LCFI30:
 469              		.cfi_def_cfa_offset 24
 470 0004 00AF     		add	r7, sp, #0
 471              	.LCFI31:
 472              		.cfi_def_cfa_register 7
 473 0006 7860     		str	r0, [r7, #4]
 474 0008 0B46     		mov	r3, r1
 475 000a FB70     		strb	r3, [r7, #3]
 212:./Hardware/hardware/oled.c **** 	uint8_t i;
 213:./Hardware/hardware/oled.c **** 	
 214:./Hardware/hardware/oled.c **** 	OLED_I2C_Start();				//I2C起始
 476              		.loc 1 214 2
 477 000c FFF7FEFF 		bl	OLED_I2C_Start
 215:./Hardware/hardware/oled.c **** 	OLED_I2C_SendByte(0x78);		//发送OLED的I2C从机地址
 478              		.loc 1 215 2
ARM GAS  C:\Users\86134\AppData\Local\Temp\ccyB0sod.s 			page 13


 479 0010 7820     		movs	r0, #120
 480 0012 FFF7FEFF 		bl	OLED_I2C_SendByte
 216:./Hardware/hardware/oled.c **** 	OLED_I2C_SendByte(0x40);		//控制字节，给0x40，表示即将写数量
 481              		.loc 1 216 2
 482 0016 4020     		movs	r0, #64
 483 0018 FFF7FEFF 		bl	OLED_I2C_SendByte
 217:./Hardware/hardware/oled.c **** 	/*循环Count次，进行连续的数据写入*/
 218:./Hardware/hardware/oled.c **** 	for (i = 0; i < Count; i ++)
 484              		.loc 1 218 9
 485 001c 0023     		movs	r3, #0
 486 001e FB73     		strb	r3, [r7, #15]
 487              		.loc 1 218 2
 488 0020 09E0     		b	.L21
 489              	.L22:
 219:./Hardware/hardware/oled.c **** 	{
 220:./Hardware/hardware/oled.c **** 		OLED_I2C_SendByte(Data[i]);	//依次发送Data的每一个数据
 490              		.loc 1 220 25 discriminator 3
 491 0022 FB7B     		ldrb	r3, [r7, #15]	@ zero_extendqisi2
 492 0024 7A68     		ldr	r2, [r7, #4]
 493 0026 1344     		add	r3, r3, r2
 494              		.loc 1 220 3 discriminator 3
 495 0028 1B78     		ldrb	r3, [r3]	@ zero_extendqisi2
 496 002a 1846     		mov	r0, r3
 497 002c FFF7FEFF 		bl	OLED_I2C_SendByte
 218:./Hardware/hardware/oled.c **** 	{
 498              		.loc 1 218 27 discriminator 3
 499 0030 FB7B     		ldrb	r3, [r7, #15]	@ zero_extendqisi2
 500 0032 0133     		adds	r3, r3, #1
 501 0034 FB73     		strb	r3, [r7, #15]
 502              	.L21:
 218:./Hardware/hardware/oled.c **** 	{
 503              		.loc 1 218 2 discriminator 1
 504 0036 FA7B     		ldrb	r2, [r7, #15]	@ zero_extendqisi2
 505 0038 FB78     		ldrb	r3, [r7, #3]	@ zero_extendqisi2
 506 003a 9A42     		cmp	r2, r3
 507 003c F1D3     		bcc	.L22
 221:./Hardware/hardware/oled.c **** 	}
 222:./Hardware/hardware/oled.c **** 	OLED_I2C_Stop();				//I2C终止
 508              		.loc 1 222 2
 509 003e FFF7FEFF 		bl	OLED_I2C_Stop
 223:./Hardware/hardware/oled.c **** }
 510              		.loc 1 223 1
 511 0042 00BF     		nop
 512 0044 1037     		adds	r7, r7, #16
 513              	.LCFI32:
 514              		.cfi_def_cfa_offset 8
 515 0046 BD46     		mov	sp, r7
 516              	.LCFI33:
 517              		.cfi_def_cfa_register 13
 518              		@ sp needed
 519 0048 80BD     		pop	{r7, pc}
 520              		.cfi_endproc
 521              	.LFE39:
 523              		.section	.text.OLED_Init,"ax",%progbits
 524              		.align	1
 525              		.global	OLED_Init
 526              		.syntax unified
ARM GAS  C:\Users\86134\AppData\Local\Temp\ccyB0sod.s 			page 14


 527              		.thumb
 528              		.thumb_func
 529              		.fpu softvfp
 531              	OLED_Init:
 532              	.LFB40:
 224:./Hardware/hardware/oled.c **** 
 225:./Hardware/hardware/oled.c **** /*********************通信协议*/
 226:./Hardware/hardware/oled.c **** 
 227:./Hardware/hardware/oled.c **** 
 228:./Hardware/hardware/oled.c **** /*硬件配置*********************/
 229:./Hardware/hardware/oled.c **** 
 230:./Hardware/hardware/oled.c **** /**
 231:./Hardware/hardware/oled.c ****   * 函    数：OLED初始化
 232:./Hardware/hardware/oled.c ****   * 参    数：无
 233:./Hardware/hardware/oled.c ****   * 返 回 值：无
 234:./Hardware/hardware/oled.c ****   * 说    明：使用前，需要调用此初始化函数
 235:./Hardware/hardware/oled.c ****   */
 236:./Hardware/hardware/oled.c **** void OLED_Init(void)
 237:./Hardware/hardware/oled.c **** {
 533              		.loc 1 237 1
 534              		.cfi_startproc
 535              		@ args = 0, pretend = 0, frame = 0
 536              		@ frame_needed = 1, uses_anonymous_args = 0
 537 0000 80B5     		push	{r7, lr}
 538              	.LCFI34:
 539              		.cfi_def_cfa_offset 8
 540              		.cfi_offset 7, -8
 541              		.cfi_offset 14, -4
 542 0002 00AF     		add	r7, sp, #0
 543              	.LCFI35:
 544              		.cfi_def_cfa_register 7
 238:./Hardware/hardware/oled.c **** 	OLED_GPIO_Init();			//先调用底层的端口初始化
 545              		.loc 1 238 2
 546 0004 FFF7FEFF 		bl	OLED_GPIO_Init
 239:./Hardware/hardware/oled.c **** 	
 240:./Hardware/hardware/oled.c **** 	/*写入一系列的命令，对OLED进行初始化配置*/
 241:./Hardware/hardware/oled.c **** 	OLED_WriteCommand(0xAE);	//设置显示开启/关闭，0xAE关闭，0xAF开启
 547              		.loc 1 241 2
 548 0008 AE20     		movs	r0, #174
 549 000a FFF7FEFF 		bl	OLED_WriteCommand
 242:./Hardware/hardware/oled.c **** 	    
 243:./Hardware/hardware/oled.c **** 	OLED_WriteCommand(0xD5);	//设置显示时钟分频比/振荡器频率
 550              		.loc 1 243 2
 551 000e D520     		movs	r0, #213
 552 0010 FFF7FEFF 		bl	OLED_WriteCommand
 244:./Hardware/hardware/oled.c **** 	OLED_WriteCommand(0x80);	//0x00~0xFF
 553              		.loc 1 244 2
 554 0014 8020     		movs	r0, #128
 555 0016 FFF7FEFF 		bl	OLED_WriteCommand
 245:./Hardware/hardware/oled.c **** 	
 246:./Hardware/hardware/oled.c **** 	OLED_WriteCommand(0xA8);	//设置多路复用率
 556              		.loc 1 246 2
 557 001a A820     		movs	r0, #168
 558 001c FFF7FEFF 		bl	OLED_WriteCommand
 247:./Hardware/hardware/oled.c **** 	OLED_WriteCommand(0x3F);	//0x0E~0x3F
 559              		.loc 1 247 2
 560 0020 3F20     		movs	r0, #63
ARM GAS  C:\Users\86134\AppData\Local\Temp\ccyB0sod.s 			page 15


 561 0022 FFF7FEFF 		bl	OLED_WriteCommand
 248:./Hardware/hardware/oled.c **** 	
 249:./Hardware/hardware/oled.c **** 	OLED_WriteCommand(0xD3);	//设置显示偏移
 562              		.loc 1 249 2
 563 0026 D320     		movs	r0, #211
 564 0028 FFF7FEFF 		bl	OLED_WriteCommand
 250:./Hardware/hardware/oled.c **** 	OLED_WriteCommand(0x00);	//0x00~0x7F
 565              		.loc 1 250 2
 566 002c 0020     		movs	r0, #0
 567 002e FFF7FEFF 		bl	OLED_WriteCommand
 251:./Hardware/hardware/oled.c **** 	
 252:./Hardware/hardware/oled.c **** 	OLED_WriteCommand(0x40);	//设置显示开始行，0x40~0x7F
 568              		.loc 1 252 2
 569 0032 4020     		movs	r0, #64
 570 0034 FFF7FEFF 		bl	OLED_WriteCommand
 253:./Hardware/hardware/oled.c **** 	
 254:./Hardware/hardware/oled.c **** 	OLED_WriteCommand(0xA1);	//设置左右方向，0xA1正常，0xA0左右反置
 571              		.loc 1 254 2
 572 0038 A120     		movs	r0, #161
 573 003a FFF7FEFF 		bl	OLED_WriteCommand
 255:./Hardware/hardware/oled.c **** 	
 256:./Hardware/hardware/oled.c **** 	OLED_WriteCommand(0xC8);	//设置上下方向，0xC8正常，0xC0上下反置
 574              		.loc 1 256 2
 575 003e C820     		movs	r0, #200
 576 0040 FFF7FEFF 		bl	OLED_WriteCommand
 257:./Hardware/hardware/oled.c **** 
 258:./Hardware/hardware/oled.c **** 	OLED_WriteCommand(0xDA);	//设置COM引脚硬件配置
 577              		.loc 1 258 2
 578 0044 DA20     		movs	r0, #218
 579 0046 FFF7FEFF 		bl	OLED_WriteCommand
 259:./Hardware/hardware/oled.c **** 	OLED_WriteCommand(0x12);
 580              		.loc 1 259 2
 581 004a 1220     		movs	r0, #18
 582 004c FFF7FEFF 		bl	OLED_WriteCommand
 260:./Hardware/hardware/oled.c **** 	
 261:./Hardware/hardware/oled.c **** 	OLED_WriteCommand(0x81);	//设置对比度
 583              		.loc 1 261 2
 584 0050 8120     		movs	r0, #129
 585 0052 FFF7FEFF 		bl	OLED_WriteCommand
 262:./Hardware/hardware/oled.c **** 	OLED_WriteCommand(0xCF);	//0x00~0xFF
 586              		.loc 1 262 2
 587 0056 CF20     		movs	r0, #207
 588 0058 FFF7FEFF 		bl	OLED_WriteCommand
 263:./Hardware/hardware/oled.c **** 
 264:./Hardware/hardware/oled.c **** 	OLED_WriteCommand(0xD9);	//设置预充电周期
 589              		.loc 1 264 2
 590 005c D920     		movs	r0, #217
 591 005e FFF7FEFF 		bl	OLED_WriteCommand
 265:./Hardware/hardware/oled.c **** 	OLED_WriteCommand(0xF1);
 592              		.loc 1 265 2
 593 0062 F120     		movs	r0, #241
 594 0064 FFF7FEFF 		bl	OLED_WriteCommand
 266:./Hardware/hardware/oled.c **** 
 267:./Hardware/hardware/oled.c **** 	OLED_WriteCommand(0xDB);	//设置VCOMH取消选择级别
 595              		.loc 1 267 2
 596 0068 DB20     		movs	r0, #219
 597 006a FFF7FEFF 		bl	OLED_WriteCommand
ARM GAS  C:\Users\86134\AppData\Local\Temp\ccyB0sod.s 			page 16


 268:./Hardware/hardware/oled.c **** 	OLED_WriteCommand(0x30);
 598              		.loc 1 268 2
 599 006e 3020     		movs	r0, #48
 600 0070 FFF7FEFF 		bl	OLED_WriteCommand
 269:./Hardware/hardware/oled.c **** 
 270:./Hardware/hardware/oled.c **** 	OLED_WriteCommand(0xA4);	//设置整个显示打开/关闭
 601              		.loc 1 270 2
 602 0074 A420     		movs	r0, #164
 603 0076 FFF7FEFF 		bl	OLED_WriteCommand
 271:./Hardware/hardware/oled.c **** 
 272:./Hardware/hardware/oled.c **** 	OLED_WriteCommand(0xA6);	//设置正常/反色显示，0xA6正常，0xA7反色
 604              		.loc 1 272 2
 605 007a A620     		movs	r0, #166
 606 007c FFF7FEFF 		bl	OLED_WriteCommand
 273:./Hardware/hardware/oled.c **** 
 274:./Hardware/hardware/oled.c **** 	OLED_WriteCommand(0x8D);	//设置充电泵
 607              		.loc 1 274 2
 608 0080 8D20     		movs	r0, #141
 609 0082 FFF7FEFF 		bl	OLED_WriteCommand
 275:./Hardware/hardware/oled.c **** 	OLED_WriteCommand(0x14);
 610              		.loc 1 275 2
 611 0086 1420     		movs	r0, #20
 612 0088 FFF7FEFF 		bl	OLED_WriteCommand
 276:./Hardware/hardware/oled.c **** 
 277:./Hardware/hardware/oled.c **** 	OLED_WriteCommand(0xAF);	//开启显示
 613              		.loc 1 277 2
 614 008c AF20     		movs	r0, #175
 615 008e FFF7FEFF 		bl	OLED_WriteCommand
 278:./Hardware/hardware/oled.c **** 	
 279:./Hardware/hardware/oled.c **** 	OLED_Clear();				//清空显存数组
 616              		.loc 1 279 2
 617 0092 FFF7FEFF 		bl	OLED_Clear
 280:./Hardware/hardware/oled.c **** 	OLED_Update();				//更新显示，清屏，防止初始化后未显示内容时花屏
 618              		.loc 1 280 2
 619 0096 FFF7FEFF 		bl	OLED_Update
 281:./Hardware/hardware/oled.c **** }
 620              		.loc 1 281 1
 621 009a 00BF     		nop
 622 009c 80BD     		pop	{r7, pc}
 623              		.cfi_endproc
 624              	.LFE40:
 626              		.section	.text.OLED_SetCursor,"ax",%progbits
 627              		.align	1
 628              		.global	OLED_SetCursor
 629              		.syntax unified
 630              		.thumb
 631              		.thumb_func
 632              		.fpu softvfp
 634              	OLED_SetCursor:
 635              	.LFB41:
 282:./Hardware/hardware/oled.c **** 
 283:./Hardware/hardware/oled.c **** /**
 284:./Hardware/hardware/oled.c ****   * 函    数：OLED设置显示光标位置
 285:./Hardware/hardware/oled.c ****   * 参    数：Page 指定光标所在的页，范围：0~7
 286:./Hardware/hardware/oled.c ****   * 参    数：X 指定光标所在的X轴坐标，范围：0~127
 287:./Hardware/hardware/oled.c ****   * 返 回 值：无
 288:./Hardware/hardware/oled.c ****   * 说    明：OLED默认的Y轴，只能8个Bit为一组写入，即1页等于8个Y轴坐标
ARM GAS  C:\Users\86134\AppData\Local\Temp\ccyB0sod.s 			page 17


 289:./Hardware/hardware/oled.c ****   */
 290:./Hardware/hardware/oled.c **** void OLED_SetCursor(uint8_t Page, uint8_t X)
 291:./Hardware/hardware/oled.c **** {
 636              		.loc 1 291 1
 637              		.cfi_startproc
 638              		@ args = 0, pretend = 0, frame = 8
 639              		@ frame_needed = 1, uses_anonymous_args = 0
 640 0000 80B5     		push	{r7, lr}
 641              	.LCFI36:
 642              		.cfi_def_cfa_offset 8
 643              		.cfi_offset 7, -8
 644              		.cfi_offset 14, -4
 645 0002 82B0     		sub	sp, sp, #8
 646              	.LCFI37:
 647              		.cfi_def_cfa_offset 16
 648 0004 00AF     		add	r7, sp, #0
 649              	.LCFI38:
 650              		.cfi_def_cfa_register 7
 651 0006 0346     		mov	r3, r0
 652 0008 0A46     		mov	r2, r1
 653 000a FB71     		strb	r3, [r7, #7]
 654 000c 1346     		mov	r3, r2
 655 000e BB71     		strb	r3, [r7, #6]
 292:./Hardware/hardware/oled.c **** 	/*如果使用此程序驱动1.3寸的OLED显示屏，则需要解除此注释*/
 293:./Hardware/hardware/oled.c **** 	/*因为1.3寸的OLED驱动芯片（SH1106）有132列*/
 294:./Hardware/hardware/oled.c **** 	/*屏幕的起始列接在了第2列，而不是第0列*/
 295:./Hardware/hardware/oled.c **** 	/*所以需要将X加2，才能正常显示*/
 296:./Hardware/hardware/oled.c **** //	X += 2;
 297:./Hardware/hardware/oled.c **** 	
 298:./Hardware/hardware/oled.c **** 	/*通过指令设置页地址和列地址*/
 299:./Hardware/hardware/oled.c **** 	OLED_WriteCommand(0xB0 | Page);					//设置页位置
 656              		.loc 1 299 2
 657 0010 FB79     		ldrb	r3, [r7, #7]
 658 0012 63F04F03 		orn	r3, r3, #79
 659 0016 DBB2     		uxtb	r3, r3
 660 0018 1846     		mov	r0, r3
 661 001a FFF7FEFF 		bl	OLED_WriteCommand
 300:./Hardware/hardware/oled.c **** 	OLED_WriteCommand(0x10 | ((X & 0xF0) >> 4));	//设置X位置高4位
 662              		.loc 1 300 39
 663 001e BB79     		ldrb	r3, [r7, #6]	@ zero_extendqisi2
 664 0020 1B09     		lsrs	r3, r3, #4
 665 0022 DBB2     		uxtb	r3, r3
 666              		.loc 1 300 2
 667 0024 43F01003 		orr	r3, r3, #16
 668 0028 DBB2     		uxtb	r3, r3
 669 002a 1846     		mov	r0, r3
 670 002c FFF7FEFF 		bl	OLED_WriteCommand
 301:./Hardware/hardware/oled.c **** 	OLED_WriteCommand(0x00 | (X & 0x0F));			//设置X位置低4位
 671              		.loc 1 301 2
 672 0030 BB79     		ldrb	r3, [r7, #6]
 673 0032 03F00F03 		and	r3, r3, #15
 674 0036 DBB2     		uxtb	r3, r3
 675 0038 1846     		mov	r0, r3
 676 003a FFF7FEFF 		bl	OLED_WriteCommand
 302:./Hardware/hardware/oled.c **** }
 677              		.loc 1 302 1
 678 003e 00BF     		nop
ARM GAS  C:\Users\86134\AppData\Local\Temp\ccyB0sod.s 			page 18


 679 0040 0837     		adds	r7, r7, #8
 680              	.LCFI39:
 681              		.cfi_def_cfa_offset 8
 682 0042 BD46     		mov	sp, r7
 683              	.LCFI40:
 684              		.cfi_def_cfa_register 13
 685              		@ sp needed
 686 0044 80BD     		pop	{r7, pc}
 687              		.cfi_endproc
 688              	.LFE41:
 690              		.section	.text.OLED_Pow,"ax",%progbits
 691              		.align	1
 692              		.global	OLED_Pow
 693              		.syntax unified
 694              		.thumb
 695              		.thumb_func
 696              		.fpu softvfp
 698              	OLED_Pow:
 699              	.LFB42:
 303:./Hardware/hardware/oled.c **** 
 304:./Hardware/hardware/oled.c **** /*********************硬件配置*/
 305:./Hardware/hardware/oled.c **** 
 306:./Hardware/hardware/oled.c **** 
 307:./Hardware/hardware/oled.c **** /*工具函数*********************/
 308:./Hardware/hardware/oled.c **** 
 309:./Hardware/hardware/oled.c **** /*工具函数仅供内部部分函数使用*/
 310:./Hardware/hardware/oled.c **** 
 311:./Hardware/hardware/oled.c **** /**
 312:./Hardware/hardware/oled.c ****   * 函    数：次方函数
 313:./Hardware/hardware/oled.c ****   * 参    数：X 底数
 314:./Hardware/hardware/oled.c ****   * 参    数：Y 指数
 315:./Hardware/hardware/oled.c ****   * 返 回 值：等于X的Y次方
 316:./Hardware/hardware/oled.c ****   */
 317:./Hardware/hardware/oled.c **** uint32_t OLED_Pow(uint32_t X, uint32_t Y)
 318:./Hardware/hardware/oled.c **** {
 700              		.loc 1 318 1
 701              		.cfi_startproc
 702              		@ args = 0, pretend = 0, frame = 16
 703              		@ frame_needed = 1, uses_anonymous_args = 0
 704              		@ link register save eliminated.
 705 0000 80B4     		push	{r7}
 706              	.LCFI41:
 707              		.cfi_def_cfa_offset 4
 708              		.cfi_offset 7, -4
 709 0002 85B0     		sub	sp, sp, #20
 710              	.LCFI42:
 711              		.cfi_def_cfa_offset 24
 712 0004 00AF     		add	r7, sp, #0
 713              	.LCFI43:
 714              		.cfi_def_cfa_register 7
 715 0006 7860     		str	r0, [r7, #4]
 716 0008 3960     		str	r1, [r7]
 319:./Hardware/hardware/oled.c **** 	uint32_t Result = 1;	//结果默认为1
 717              		.loc 1 319 11
 718 000a 0123     		movs	r3, #1
 719 000c FB60     		str	r3, [r7, #12]
 320:./Hardware/hardware/oled.c **** 	while (Y --)			//累乘Y次
ARM GAS  C:\Users\86134\AppData\Local\Temp\ccyB0sod.s 			page 19


 720              		.loc 1 320 8
 721 000e 04E0     		b	.L26
 722              	.L27:
 321:./Hardware/hardware/oled.c **** 	{
 322:./Hardware/hardware/oled.c **** 		Result *= X;		//每次把X累乘到结果上
 723              		.loc 1 322 10
 724 0010 FB68     		ldr	r3, [r7, #12]
 725 0012 7A68     		ldr	r2, [r7, #4]
 726 0014 02FB03F3 		mul	r3, r2, r3
 727 0018 FB60     		str	r3, [r7, #12]
 728              	.L26:
 320:./Hardware/hardware/oled.c **** 	while (Y --)			//累乘Y次
 729              		.loc 1 320 11
 730 001a 3B68     		ldr	r3, [r7]
 731 001c 5A1E     		subs	r2, r3, #1
 732 001e 3A60     		str	r2, [r7]
 320:./Hardware/hardware/oled.c **** 	while (Y --)			//累乘Y次
 733              		.loc 1 320 8
 734 0020 002B     		cmp	r3, #0
 735 0022 F5D1     		bne	.L27
 323:./Hardware/hardware/oled.c **** 	}
 324:./Hardware/hardware/oled.c **** 	return Result;
 736              		.loc 1 324 9
 737 0024 FB68     		ldr	r3, [r7, #12]
 325:./Hardware/hardware/oled.c **** }
 738              		.loc 1 325 1
 739 0026 1846     		mov	r0, r3
 740 0028 1437     		adds	r7, r7, #20
 741              	.LCFI44:
 742              		.cfi_def_cfa_offset 4
 743 002a BD46     		mov	sp, r7
 744              	.LCFI45:
 745              		.cfi_def_cfa_register 13
 746              		@ sp needed
 747 002c 80BC     		pop	{r7}
 748              	.LCFI46:
 749              		.cfi_restore 7
 750              		.cfi_def_cfa_offset 0
 751 002e 7047     		bx	lr
 752              		.cfi_endproc
 753              	.LFE42:
 755              		.section	.text.OLED_pnpoly,"ax",%progbits
 756              		.align	1
 757              		.global	OLED_pnpoly
 758              		.syntax unified
 759              		.thumb
 760              		.thumb_func
 761              		.fpu softvfp
 763              	OLED_pnpoly:
 764              	.LFB43:
 326:./Hardware/hardware/oled.c **** 
 327:./Hardware/hardware/oled.c **** /**
 328:./Hardware/hardware/oled.c ****   * 函    数：判断指定点是否在指定多边形内部
 329:./Hardware/hardware/oled.c ****   * 参    数：nvert 多边形的顶点数
 330:./Hardware/hardware/oled.c ****   * 参    数：vertx verty 包含多边形顶点的x和y坐标的数组
 331:./Hardware/hardware/oled.c ****   * 参    数：testx testy 测试点的X和y坐标
 332:./Hardware/hardware/oled.c ****   * 返 回 值：指定点是否在指定多边形内部，1：在内部，0：不在内部
ARM GAS  C:\Users\86134\AppData\Local\Temp\ccyB0sod.s 			page 20


 333:./Hardware/hardware/oled.c ****   */
 334:./Hardware/hardware/oled.c **** uint8_t OLED_pnpoly(uint8_t nvert, int16_t *vertx, int16_t *verty, int16_t testx, int16_t testy)
 335:./Hardware/hardware/oled.c **** {
 765              		.loc 1 335 1
 766              		.cfi_startproc
 767              		@ args = 4, pretend = 0, frame = 24
 768              		@ frame_needed = 1, uses_anonymous_args = 0
 769              		@ link register save eliminated.
 770 0000 90B4     		push	{r4, r7}
 771              	.LCFI47:
 772              		.cfi_def_cfa_offset 8
 773              		.cfi_offset 4, -8
 774              		.cfi_offset 7, -4
 775 0002 86B0     		sub	sp, sp, #24
 776              	.LCFI48:
 777              		.cfi_def_cfa_offset 32
 778 0004 00AF     		add	r7, sp, #0
 779              	.LCFI49:
 780              		.cfi_def_cfa_register 7
 781 0006 B960     		str	r1, [r7, #8]
 782 0008 7A60     		str	r2, [r7, #4]
 783 000a 1A46     		mov	r2, r3
 784 000c 0346     		mov	r3, r0
 785 000e FB73     		strb	r3, [r7, #15]
 786 0010 1346     		mov	r3, r2	@ movhi
 787 0012 BB81     		strh	r3, [r7, #12]	@ movhi
 336:./Hardware/hardware/oled.c **** 	int16_t i, j, c = 0;
 788              		.loc 1 336 16
 789 0014 0023     		movs	r3, #0
 790 0016 7B82     		strh	r3, [r7, #18]	@ movhi
 337:./Hardware/hardware/oled.c **** 	
 338:./Hardware/hardware/oled.c **** 	/*此算法由W. Randolph Franklin提出*/
 339:./Hardware/hardware/oled.c **** 	/*参考链接：https://wrfranklin.org/Research/Short_Notes/pnpoly.html*/
 340:./Hardware/hardware/oled.c **** 	for (i = 0, j = nvert - 1; i < nvert; j = i++)
 791              		.loc 1 340 9
 792 0018 0023     		movs	r3, #0
 793 001a FB82     		strh	r3, [r7, #22]	@ movhi
 794              		.loc 1 340 24
 795 001c FB7B     		ldrb	r3, [r7, #15]	@ zero_extendqisi2
 796 001e 9BB2     		uxth	r3, r3
 797 0020 013B     		subs	r3, r3, #1
 798 0022 9BB2     		uxth	r3, r3
 799              		.loc 1 340 16
 800 0024 BB82     		strh	r3, [r7, #20]	@ movhi
 801              		.loc 1 340 2
 802 0026 69E0     		b	.L30
 803              	.L32:
 341:./Hardware/hardware/oled.c **** 	{
 342:./Hardware/hardware/oled.c **** 		if (((verty[i] > testy) != (verty[j] > testy)) &&
 804              		.loc 1 342 14
 805 0028 B7F91630 		ldrsh	r3, [r7, #22]
 806 002c 5B00     		lsls	r3, r3, #1
 807 002e 7A68     		ldr	r2, [r7, #4]
 808 0030 1344     		add	r3, r3, r2
 809 0032 B3F90030 		ldrsh	r3, [r3]
 810              		.loc 1 342 27
 811 0036 B7F92020 		ldrsh	r2, [r7, #32]
ARM GAS  C:\Users\86134\AppData\Local\Temp\ccyB0sod.s 			page 21


 812 003a 9A42     		cmp	r2, r3
 813 003c B4BF     		ite	lt
 814 003e 0123     		movlt	r3, #1
 815 0040 0023     		movge	r3, #0
 816 0042 DAB2     		uxtb	r2, r3
 817              		.loc 1 342 36
 818 0044 B7F91430 		ldrsh	r3, [r7, #20]
 819 0048 5B00     		lsls	r3, r3, #1
 820 004a 7968     		ldr	r1, [r7, #4]
 821 004c 0B44     		add	r3, r3, r1
 822 004e B3F90030 		ldrsh	r3, [r3]
 823              		.loc 1 342 27
 824 0052 B7F92010 		ldrsh	r1, [r7, #32]
 825 0056 9942     		cmp	r1, r3
 826 0058 B4BF     		ite	lt
 827 005a 0123     		movlt	r3, #1
 828 005c 0023     		movge	r3, #0
 829 005e DBB2     		uxtb	r3, r3
 830 0060 5340     		eors	r3, r3, r2
 831 0062 DBB2     		uxtb	r3, r3
 832              		.loc 1 342 6
 833 0064 002B     		cmp	r3, #0
 834 0066 41D0     		beq	.L31
 343:./Hardware/hardware/oled.c **** 			(testx < (vertx[j] - vertx[i]) * (testy - verty[i]) / (verty[j] - verty[i]) + vertx[i]))
 835              		.loc 1 343 11 discriminator 1
 836 0068 B7F90C20 		ldrsh	r2, [r7, #12]
 837              		.loc 1 343 19 discriminator 1
 838 006c B7F91430 		ldrsh	r3, [r7, #20]
 839 0070 5B00     		lsls	r3, r3, #1
 840 0072 B968     		ldr	r1, [r7, #8]
 841 0074 0B44     		add	r3, r3, r1
 842 0076 B3F90030 		ldrsh	r3, [r3]
 843 007a 1846     		mov	r0, r3
 844              		.loc 1 343 30 discriminator 1
 845 007c B7F91630 		ldrsh	r3, [r7, #22]
 846 0080 5B00     		lsls	r3, r3, #1
 847 0082 B968     		ldr	r1, [r7, #8]
 848 0084 0B44     		add	r3, r3, r1
 849 0086 B3F90030 		ldrsh	r3, [r3]
 850              		.loc 1 343 23 discriminator 1
 851 008a C31A     		subs	r3, r0, r3
 852              		.loc 1 343 44 discriminator 1
 853 008c B7F92010 		ldrsh	r1, [r7, #32]
 854              		.loc 1 343 51 discriminator 1
 855 0090 B7F91600 		ldrsh	r0, [r7, #22]
 856 0094 4000     		lsls	r0, r0, #1
 857 0096 7C68     		ldr	r4, [r7, #4]
 858 0098 2044     		add	r0, r0, r4
 859 009a B0F90000 		ldrsh	r0, [r0]
 860              		.loc 1 343 44 discriminator 1
 861 009e 091A     		subs	r1, r1, r0
 862              		.loc 1 343 35 discriminator 1
 863 00a0 03FB01F1 		mul	r1, r3, r1
 864              		.loc 1 343 64 discriminator 1
 865 00a4 B7F91430 		ldrsh	r3, [r7, #20]
 866 00a8 5B00     		lsls	r3, r3, #1
 867 00aa 7868     		ldr	r0, [r7, #4]
ARM GAS  C:\Users\86134\AppData\Local\Temp\ccyB0sod.s 			page 22


 868 00ac 0344     		add	r3, r3, r0
 869 00ae B3F90030 		ldrsh	r3, [r3]
 870 00b2 1C46     		mov	r4, r3
 871              		.loc 1 343 75 discriminator 1
 872 00b4 B7F91630 		ldrsh	r3, [r7, #22]
 873 00b8 5B00     		lsls	r3, r3, #1
 874 00ba 7868     		ldr	r0, [r7, #4]
 875 00bc 0344     		add	r3, r3, r0
 876 00be B3F90030 		ldrsh	r3, [r3]
 877              		.loc 1 343 68 discriminator 1
 878 00c2 E31A     		subs	r3, r4, r3
 879              		.loc 1 343 56 discriminator 1
 880 00c4 91FBF3F3 		sdiv	r3, r1, r3
 881              		.loc 1 343 87 discriminator 1
 882 00c8 B7F91610 		ldrsh	r1, [r7, #22]
 883 00cc 4900     		lsls	r1, r1, #1
 884 00ce B868     		ldr	r0, [r7, #8]
 885 00d0 0144     		add	r1, r1, r0
 886 00d2 B1F90010 		ldrsh	r1, [r1]
 887              		.loc 1 343 80 discriminator 1
 888 00d6 0B44     		add	r3, r3, r1
 342:./Hardware/hardware/oled.c **** 			(testx < (vertx[j] - vertx[i]) * (testy - verty[i]) / (verty[j] - verty[i]) + vertx[i]))
 889              		.loc 1 342 50 discriminator 1
 890 00d8 9A42     		cmp	r2, r3
 891 00da 07DA     		bge	.L31
 344:./Hardware/hardware/oled.c **** 		{
 345:./Hardware/hardware/oled.c **** 			c = !c;
 892              		.loc 1 345 8
 893 00dc B7F91230 		ldrsh	r3, [r7, #18]
 894 00e0 002B     		cmp	r3, #0
 895 00e2 0CBF     		ite	eq
 896 00e4 0123     		moveq	r3, #1
 897 00e6 0023     		movne	r3, #0
 898 00e8 DBB2     		uxtb	r3, r3
 899              		.loc 1 345 6
 900 00ea 7B82     		strh	r3, [r7, #18]	@ movhi
 901              	.L31:
 340:./Hardware/hardware/oled.c **** 	{
 902              		.loc 1 340 45 discriminator 2
 903 00ec B7F91620 		ldrsh	r2, [r7, #22]
 904 00f0 93B2     		uxth	r3, r2
 905 00f2 0133     		adds	r3, r3, #1
 906 00f4 9BB2     		uxth	r3, r3
 907 00f6 FB82     		strh	r3, [r7, #22]	@ movhi
 340:./Hardware/hardware/oled.c **** 	{
 908              		.loc 1 340 42 discriminator 2
 909 00f8 1346     		mov	r3, r2	@ movhi
 910 00fa BB82     		strh	r3, [r7, #20]	@ movhi
 911              	.L30:
 340:./Hardware/hardware/oled.c **** 	{
 912              		.loc 1 340 31 discriminator 1
 913 00fc B7F91620 		ldrsh	r2, [r7, #22]
 914 0100 FB7B     		ldrb	r3, [r7, #15]	@ zero_extendqisi2
 340:./Hardware/hardware/oled.c **** 	{
 915              		.loc 1 340 2 discriminator 1
 916 0102 9A42     		cmp	r2, r3
 917 0104 90DB     		blt	.L32
ARM GAS  C:\Users\86134\AppData\Local\Temp\ccyB0sod.s 			page 23


 346:./Hardware/hardware/oled.c **** 		}
 347:./Hardware/hardware/oled.c **** 	}
 348:./Hardware/hardware/oled.c **** 	return c;
 918              		.loc 1 348 9
 919 0106 7B8A     		ldrh	r3, [r7, #18]	@ movhi
 920 0108 DBB2     		uxtb	r3, r3
 349:./Hardware/hardware/oled.c **** }
 921              		.loc 1 349 1
 922 010a 1846     		mov	r0, r3
 923 010c 1837     		adds	r7, r7, #24
 924              	.LCFI50:
 925              		.cfi_def_cfa_offset 8
 926 010e BD46     		mov	sp, r7
 927              	.LCFI51:
 928              		.cfi_def_cfa_register 13
 929              		@ sp needed
 930 0110 90BC     		pop	{r4, r7}
 931              	.LCFI52:
 932              		.cfi_restore 7
 933              		.cfi_restore 4
 934              		.cfi_def_cfa_offset 0
 935 0112 7047     		bx	lr
 936              		.cfi_endproc
 937              	.LFE43:
 939              		.global	__aeabi_i2d
 940              		.global	__aeabi_ddiv
 941              		.global	__aeabi_dmul
 942              		.global	__aeabi_d2iz
 943              		.section	.text.OLED_IsInAngle,"ax",%progbits
 944              		.align	1
 945              		.global	OLED_IsInAngle
 946              		.syntax unified
 947              		.thumb
 948              		.thumb_func
 949              		.fpu softvfp
 951              	OLED_IsInAngle:
 952              	.LFB44:
 350:./Hardware/hardware/oled.c **** 
 351:./Hardware/hardware/oled.c **** /**
 352:./Hardware/hardware/oled.c ****   * 函    数：判断指定点是否在指定角度内部
 353:./Hardware/hardware/oled.c ****   * 参    数：X Y 指定点的坐标
 354:./Hardware/hardware/oled.c ****   * 参    数：StartAngle EndAngle 起始角度和终止角度，范围：-180~180
 355:./Hardware/hardware/oled.c ****   *           水平向右为0度，水平向左为180度或-180度，下方为正数，上方为负数，顺时针旋转
 356:./Hardware/hardware/oled.c ****   * 返 回 值：指定点是否在指定角度内部，1：在内部，0：不在内部
 357:./Hardware/hardware/oled.c ****   */
 358:./Hardware/hardware/oled.c **** uint8_t OLED_IsInAngle(int16_t X, int16_t Y, int16_t StartAngle, int16_t EndAngle)
 359:./Hardware/hardware/oled.c **** {
 953              		.loc 1 359 1
 954              		.cfi_startproc
 955              		@ args = 0, pretend = 0, frame = 16
 956              		@ frame_needed = 1, uses_anonymous_args = 0
 957 0000 B0B5     		push	{r4, r5, r7, lr}
 958              	.LCFI53:
 959              		.cfi_def_cfa_offset 16
 960              		.cfi_offset 4, -16
 961              		.cfi_offset 5, -12
 962              		.cfi_offset 7, -8
ARM GAS  C:\Users\86134\AppData\Local\Temp\ccyB0sod.s 			page 24


 963              		.cfi_offset 14, -4
 964 0002 84B0     		sub	sp, sp, #16
 965              	.LCFI54:
 966              		.cfi_def_cfa_offset 32
 967 0004 00AF     		add	r7, sp, #0
 968              	.LCFI55:
 969              		.cfi_def_cfa_register 7
 970 0006 0446     		mov	r4, r0
 971 0008 0846     		mov	r0, r1
 972 000a 1146     		mov	r1, r2
 973 000c 1A46     		mov	r2, r3
 974 000e 2346     		mov	r3, r4	@ movhi
 975 0010 FB80     		strh	r3, [r7, #6]	@ movhi
 976 0012 0346     		mov	r3, r0	@ movhi
 977 0014 BB80     		strh	r3, [r7, #4]	@ movhi
 978 0016 0B46     		mov	r3, r1	@ movhi
 979 0018 7B80     		strh	r3, [r7, #2]	@ movhi
 980 001a 1346     		mov	r3, r2	@ movhi
 981 001c 3B80     		strh	r3, [r7]	@ movhi
 360:./Hardware/hardware/oled.c **** 	int16_t PointAngle;
 361:./Hardware/hardware/oled.c **** 	PointAngle = atan2(Y, X) / 3.14 * 180;	//计算指定点的弧度，并转换为角度表示
 982              		.loc 1 361 15
 983 001e B7F90430 		ldrsh	r3, [r7, #4]
 984 0022 1846     		mov	r0, r3
 985 0024 FFF7FEFF 		bl	__aeabi_i2d
 986 0028 0446     		mov	r4, r0
 987 002a 0D46     		mov	r5, r1
 988 002c B7F90630 		ldrsh	r3, [r7, #6]
 989 0030 1846     		mov	r0, r3
 990 0032 FFF7FEFF 		bl	__aeabi_i2d
 991 0036 0246     		mov	r2, r0
 992 0038 0B46     		mov	r3, r1
 993 003a 2046     		mov	r0, r4
 994 003c 2946     		mov	r1, r5
 995 003e FFF7FEFF 		bl	atan2
 996              		.loc 1 361 27
 997 0042 1FA3     		adr	r3, .L39
 998 0044 D3E90023 		ldrd	r2, [r3]
 999 0048 FFF7FEFF 		bl	__aeabi_ddiv
 1000 004c 0246     		mov	r2, r0
 1001 004e 0B46     		mov	r3, r1
 1002 0050 1046     		mov	r0, r2
 1003 0052 1946     		mov	r1, r3
 1004              		.loc 1 361 34
 1005 0054 4FF00002 		mov	r2, #0
 1006 0058 1B4B     		ldr	r3, .L39+8
 1007 005a FFF7FEFF 		bl	__aeabi_dmul
 1008 005e 0246     		mov	r2, r0
 1009 0060 0B46     		mov	r3, r1
 1010              		.loc 1 361 13
 1011 0062 1046     		mov	r0, r2
 1012 0064 1946     		mov	r1, r3
 1013 0066 FFF7FEFF 		bl	__aeabi_d2iz
 1014 006a 0346     		mov	r3, r0
 1015 006c FB81     		strh	r3, [r7, #14]	@ movhi
 362:./Hardware/hardware/oled.c **** 	if (StartAngle < EndAngle)	//起始角度小于终止角度的情况
 1016              		.loc 1 362 5
ARM GAS  C:\Users\86134\AppData\Local\Temp\ccyB0sod.s 			page 25


 1017 006e B7F90220 		ldrsh	r2, [r7, #2]
 1018 0072 B7F90030 		ldrsh	r3, [r7]
 1019 0076 9A42     		cmp	r2, r3
 1020 0078 0DDA     		bge	.L35
 363:./Hardware/hardware/oled.c **** 	{
 364:./Hardware/hardware/oled.c **** 		/*如果指定角度在起始终止角度之间，则判定指定点在指定角度*/
 365:./Hardware/hardware/oled.c **** 		if (PointAngle >= StartAngle && PointAngle <= EndAngle)
 1021              		.loc 1 365 6
 1022 007a B7F90E20 		ldrsh	r2, [r7, #14]
 1023 007e B7F90230 		ldrsh	r3, [r7, #2]
 1024 0082 9A42     		cmp	r2, r3
 1025 0084 15DB     		blt	.L36
 1026              		.loc 1 365 32 discriminator 1
 1027 0086 B7F90E20 		ldrsh	r2, [r7, #14]
 1028 008a B7F90030 		ldrsh	r3, [r7]
 1029 008e 9A42     		cmp	r2, r3
 1030 0090 0FDC     		bgt	.L36
 366:./Hardware/hardware/oled.c **** 		{
 367:./Hardware/hardware/oled.c **** 			return 1;
 1031              		.loc 1 367 11
 1032 0092 0123     		movs	r3, #1
 1033 0094 0EE0     		b	.L37
 1034              	.L35:
 368:./Hardware/hardware/oled.c **** 		}
 369:./Hardware/hardware/oled.c **** 	}
 370:./Hardware/hardware/oled.c **** 	else			//起始角度大于于终止角度的情况
 371:./Hardware/hardware/oled.c **** 	{
 372:./Hardware/hardware/oled.c **** 		/*如果指定角度大于起始角度或者小于终止角度，则判定指定点在指定角度*/
 373:./Hardware/hardware/oled.c **** 		if (PointAngle >= StartAngle || PointAngle <= EndAngle)
 1035              		.loc 1 373 6
 1036 0096 B7F90E20 		ldrsh	r2, [r7, #14]
 1037 009a B7F90230 		ldrsh	r3, [r7, #2]
 1038 009e 9A42     		cmp	r2, r3
 1039 00a0 05DA     		bge	.L38
 1040              		.loc 1 373 32 discriminator 1
 1041 00a2 B7F90E20 		ldrsh	r2, [r7, #14]
 1042 00a6 B7F90030 		ldrsh	r3, [r7]
 1043 00aa 9A42     		cmp	r2, r3
 1044 00ac 01DC     		bgt	.L36
 1045              	.L38:
 374:./Hardware/hardware/oled.c **** 		{
 375:./Hardware/hardware/oled.c **** 			return 1;
 1046              		.loc 1 375 11
 1047 00ae 0123     		movs	r3, #1
 1048 00b0 00E0     		b	.L37
 1049              	.L36:
 376:./Hardware/hardware/oled.c **** 		}
 377:./Hardware/hardware/oled.c **** 	}
 378:./Hardware/hardware/oled.c **** 	return 0;		//不满足以上条件，则判断判定指定点不在指定角度
 1050              		.loc 1 378 9
 1051 00b2 0023     		movs	r3, #0
 1052              	.L37:
 379:./Hardware/hardware/oled.c **** }
 1053              		.loc 1 379 1
 1054 00b4 1846     		mov	r0, r3
 1055 00b6 1037     		adds	r7, r7, #16
 1056              	.LCFI56:
ARM GAS  C:\Users\86134\AppData\Local\Temp\ccyB0sod.s 			page 26


 1057              		.cfi_def_cfa_offset 16
 1058 00b8 BD46     		mov	sp, r7
 1059              	.LCFI57:
 1060              		.cfi_def_cfa_register 13
 1061              		@ sp needed
 1062 00ba B0BD     		pop	{r4, r5, r7, pc}
 1063              	.L40:
 1064 00bc AFF30080 		.align	3
 1065              	.L39:
 1066 00c0 1F85EB51 		.word	1374389535
 1067 00c4 B81E0940 		.word	1074339512
 1068 00c8 00806640 		.word	1080459264
 1069              		.cfi_endproc
 1070              	.LFE44:
 1072              		.section	.text.OLED_Update,"ax",%progbits
 1073              		.align	1
 1074              		.global	OLED_Update
 1075              		.syntax unified
 1076              		.thumb
 1077              		.thumb_func
 1078              		.fpu softvfp
 1080              	OLED_Update:
 1081              	.LFB45:
 380:./Hardware/hardware/oled.c **** 
 381:./Hardware/hardware/oled.c **** /*********************工具函数*/
 382:./Hardware/hardware/oled.c **** 
 383:./Hardware/hardware/oled.c **** 
 384:./Hardware/hardware/oled.c **** /*功能函数*********************/
 385:./Hardware/hardware/oled.c **** 
 386:./Hardware/hardware/oled.c **** /**
 387:./Hardware/hardware/oled.c ****   * 函    数：将OLED显存数组更新到OLED屏幕
 388:./Hardware/hardware/oled.c ****   * 参    数：无
 389:./Hardware/hardware/oled.c ****   * 返 回 值：无
 390:./Hardware/hardware/oled.c ****   * 说    明：所有的显示函数，都只是对OLED显存数组进行读写
 391:./Hardware/hardware/oled.c ****   *           随后调用OLED_Update函数或OLED_UpdateArea函数
 392:./Hardware/hardware/oled.c ****   *           才会将显存数组的数据发送到OLED硬件，进行显示
 393:./Hardware/hardware/oled.c ****   *           故调用显示函数后，要想真正地呈现在屏幕上，还需调用更新函数
 394:./Hardware/hardware/oled.c ****   */
 395:./Hardware/hardware/oled.c **** void OLED_Update(void)
 396:./Hardware/hardware/oled.c **** {
 1082              		.loc 1 396 1
 1083              		.cfi_startproc
 1084              		@ args = 0, pretend = 0, frame = 8
 1085              		@ frame_needed = 1, uses_anonymous_args = 0
 1086 0000 80B5     		push	{r7, lr}
 1087              	.LCFI58:
 1088              		.cfi_def_cfa_offset 8
 1089              		.cfi_offset 7, -8
 1090              		.cfi_offset 14, -4
 1091 0002 82B0     		sub	sp, sp, #8
 1092              	.LCFI59:
 1093              		.cfi_def_cfa_offset 16
 1094 0004 00AF     		add	r7, sp, #0
 1095              	.LCFI60:
 1096              		.cfi_def_cfa_register 7
 397:./Hardware/hardware/oled.c **** 	uint8_t j;
 398:./Hardware/hardware/oled.c **** 	/*遍历每一页*/
ARM GAS  C:\Users\86134\AppData\Local\Temp\ccyB0sod.s 			page 27


 399:./Hardware/hardware/oled.c **** 	for (j = 0; j < 8; j ++)
 1097              		.loc 1 399 9
 1098 0006 0023     		movs	r3, #0
 1099 0008 FB71     		strb	r3, [r7, #7]
 1100              		.loc 1 399 2
 1101 000a 0FE0     		b	.L42
 1102              	.L43:
 400:./Hardware/hardware/oled.c **** 	{
 401:./Hardware/hardware/oled.c **** 		/*设置光标位置为每一页的第一列*/
 402:./Hardware/hardware/oled.c **** 		OLED_SetCursor(j, 0);
 1103              		.loc 1 402 3 discriminator 3
 1104 000c FB79     		ldrb	r3, [r7, #7]	@ zero_extendqisi2
 1105 000e 0021     		movs	r1, #0
 1106 0010 1846     		mov	r0, r3
 1107 0012 FFF7FEFF 		bl	OLED_SetCursor
 403:./Hardware/hardware/oled.c **** 		/*连续写入128个数据，将显存数组的数据写入到OLED硬件*/
 404:./Hardware/hardware/oled.c **** 		OLED_WriteData(OLED_DisplayBuf[j], 128);
 1108              		.loc 1 404 33 discriminator 3
 1109 0016 FB79     		ldrb	r3, [r7, #7]	@ zero_extendqisi2
 1110 0018 DB01     		lsls	r3, r3, #7
 1111 001a 084A     		ldr	r2, .L44
 1112 001c 1344     		add	r3, r3, r2
 1113              		.loc 1 404 3 discriminator 3
 1114 001e 8021     		movs	r1, #128
 1115 0020 1846     		mov	r0, r3
 1116 0022 FFF7FEFF 		bl	OLED_WriteData
 399:./Hardware/hardware/oled.c **** 	{
 1117              		.loc 1 399 23 discriminator 3
 1118 0026 FB79     		ldrb	r3, [r7, #7]	@ zero_extendqisi2
 1119 0028 0133     		adds	r3, r3, #1
 1120 002a FB71     		strb	r3, [r7, #7]
 1121              	.L42:
 399:./Hardware/hardware/oled.c **** 	{
 1122              		.loc 1 399 2 discriminator 1
 1123 002c FB79     		ldrb	r3, [r7, #7]	@ zero_extendqisi2
 1124 002e 072B     		cmp	r3, #7
 1125 0030 ECD9     		bls	.L43
 405:./Hardware/hardware/oled.c **** 	}
 406:./Hardware/hardware/oled.c **** }
 1126              		.loc 1 406 1
 1127 0032 00BF     		nop
 1128 0034 00BF     		nop
 1129 0036 0837     		adds	r7, r7, #8
 1130              	.LCFI61:
 1131              		.cfi_def_cfa_offset 8
 1132 0038 BD46     		mov	sp, r7
 1133              	.LCFI62:
 1134              		.cfi_def_cfa_register 13
 1135              		@ sp needed
 1136 003a 80BD     		pop	{r7, pc}
 1137              	.L45:
 1138              		.align	2
 1139              	.L44:
 1140 003c 00000000 		.word	OLED_DisplayBuf
 1141              		.cfi_endproc
 1142              	.LFE45:
 1144              		.section	.text.OLED_UpdateArea,"ax",%progbits
ARM GAS  C:\Users\86134\AppData\Local\Temp\ccyB0sod.s 			page 28


 1145              		.align	1
 1146              		.global	OLED_UpdateArea
 1147              		.syntax unified
 1148              		.thumb
 1149              		.thumb_func
 1150              		.fpu softvfp
 1152              	OLED_UpdateArea:
 1153              	.LFB46:
 407:./Hardware/hardware/oled.c **** 
 408:./Hardware/hardware/oled.c **** /**
 409:./Hardware/hardware/oled.c ****   * 函    数：将OLED显存数组部分更新到OLED屏幕
 410:./Hardware/hardware/oled.c ****   * 参    数：X 指定区域左上角的横坐标，范围：0~127
 411:./Hardware/hardware/oled.c ****   * 参    数：Y 指定区域左上角的纵坐标，范围：0~63
 412:./Hardware/hardware/oled.c ****   * 参    数：Width 指定区域的宽度，范围：0~128
 413:./Hardware/hardware/oled.c ****   * 参    数：Height 指定区域的高度，范围：0~64
 414:./Hardware/hardware/oled.c ****   * 返 回 值：无
 415:./Hardware/hardware/oled.c ****   * 说    明：此函数会至少更新参数指定的区域
 416:./Hardware/hardware/oled.c ****   *           如果更新区域Y轴只包含部分页，则同一页的剩余部分会跟随一起更新
 417:./Hardware/hardware/oled.c ****   * 说    明：所有的显示函数，都只是对OLED显存数组进行读写
 418:./Hardware/hardware/oled.c ****   *           随后调用OLED_Update函数或OLED_UpdateArea函数
 419:./Hardware/hardware/oled.c ****   *           才会将显存数组的数据发送到OLED硬件，进行显示
 420:./Hardware/hardware/oled.c ****   *           故调用显示函数后，要想真正地呈现在屏幕上，还需调用更新函数
 421:./Hardware/hardware/oled.c ****   */
 422:./Hardware/hardware/oled.c **** void OLED_UpdateArea(uint8_t X, uint8_t Y, uint8_t Width, uint8_t Height)
 423:./Hardware/hardware/oled.c **** {
 1154              		.loc 1 423 1
 1155              		.cfi_startproc
 1156              		@ args = 0, pretend = 0, frame = 16
 1157              		@ frame_needed = 1, uses_anonymous_args = 0
 1158 0000 90B5     		push	{r4, r7, lr}
 1159              	.LCFI63:
 1160              		.cfi_def_cfa_offset 12
 1161              		.cfi_offset 4, -12
 1162              		.cfi_offset 7, -8
 1163              		.cfi_offset 14, -4
 1164 0002 85B0     		sub	sp, sp, #20
 1165              	.LCFI64:
 1166              		.cfi_def_cfa_offset 32
 1167 0004 00AF     		add	r7, sp, #0
 1168              	.LCFI65:
 1169              		.cfi_def_cfa_register 7
 1170 0006 0446     		mov	r4, r0
 1171 0008 0846     		mov	r0, r1
 1172 000a 1146     		mov	r1, r2
 1173 000c 1A46     		mov	r2, r3
 1174 000e 2346     		mov	r3, r4
 1175 0010 FB71     		strb	r3, [r7, #7]
 1176 0012 0346     		mov	r3, r0
 1177 0014 BB71     		strb	r3, [r7, #6]
 1178 0016 0B46     		mov	r3, r1
 1179 0018 7B71     		strb	r3, [r7, #5]
 1180 001a 1346     		mov	r3, r2
 1181 001c 3B71     		strb	r3, [r7, #4]
 424:./Hardware/hardware/oled.c **** 	uint8_t j;
 425:./Hardware/hardware/oled.c **** 	
 426:./Hardware/hardware/oled.c **** 	/*参数检查，保证指定区域不会超出屏幕范围*/
 427:./Hardware/hardware/oled.c **** 	if (X > 127) {return;}
ARM GAS  C:\Users\86134\AppData\Local\Temp\ccyB0sod.s 			page 29


 1182              		.loc 1 427 8
 1183 001e 97F90730 		ldrsb	r3, [r7, #7]
 1184              		.loc 1 427 5
 1185 0022 002B     		cmp	r3, #0
 1186 0024 3CDB     		blt	.L55
 428:./Hardware/hardware/oled.c **** 	if (Y > 63) {return;}
 1187              		.loc 1 428 5
 1188 0026 BB79     		ldrb	r3, [r7, #6]	@ zero_extendqisi2
 1189 0028 3F2B     		cmp	r3, #63
 1190 002a 3BD8     		bhi	.L56
 429:./Hardware/hardware/oled.c **** 	if (X + Width > 128) {Width = 128 - X;}
 1191              		.loc 1 429 8
 1192 002c FA79     		ldrb	r2, [r7, #7]	@ zero_extendqisi2
 1193 002e 7B79     		ldrb	r3, [r7, #5]	@ zero_extendqisi2
 1194 0030 1344     		add	r3, r3, r2
 1195              		.loc 1 429 5
 1196 0032 802B     		cmp	r3, #128
 1197 0034 06DD     		ble	.L50
 1198              		.loc 1 429 30 discriminator 1
 1199 0036 FB79     		ldrb	r3, [r7, #7]
 1200 0038 C3F1FF23 		rsb	r3, r3, #-16711936
 1201 003c 03F57F03 		add	r3, r3, #16711680
 1202 0040 8033     		adds	r3, r3, #128
 1203 0042 7B71     		strb	r3, [r7, #5]
 1204              	.L50:
 430:./Hardware/hardware/oled.c **** 	if (Y + Height > 64) {Height = 64 - Y;}
 1205              		.loc 1 430 8
 1206 0044 BA79     		ldrb	r2, [r7, #6]	@ zero_extendqisi2
 1207 0046 3B79     		ldrb	r3, [r7, #4]	@ zero_extendqisi2
 1208 0048 1344     		add	r3, r3, r2
 1209              		.loc 1 430 5
 1210 004a 402B     		cmp	r3, #64
 1211 004c 03DD     		ble	.L51
 1212              		.loc 1 430 31 discriminator 1
 1213 004e BB79     		ldrb	r3, [r7, #6]
 1214 0050 C3F14003 		rsb	r3, r3, #64
 1215 0054 3B71     		strb	r3, [r7, #4]
 1216              	.L51:
 431:./Hardware/hardware/oled.c **** 	
 432:./Hardware/hardware/oled.c **** 	/*遍历指定区域涉及的相关页*/
 433:./Hardware/hardware/oled.c **** 	/*(Y + Height - 1) / 8 + 1的目的是(Y + Height) / 8并向上取整*/
 434:./Hardware/hardware/oled.c **** 	for (j = Y / 8; j < (Y + Height - 1) / 8 + 1; j ++)
 1217              		.loc 1 434 9
 1218 0056 BB79     		ldrb	r3, [r7, #6]	@ zero_extendqisi2
 1219 0058 DB08     		lsrs	r3, r3, #3
 1220 005a FB73     		strb	r3, [r7, #15]
 1221              		.loc 1 434 2
 1222 005c 13E0     		b	.L52
 1223              	.L54:
 435:./Hardware/hardware/oled.c **** 	{
 436:./Hardware/hardware/oled.c **** 		/*设置光标位置为相关页的指定列*/
 437:./Hardware/hardware/oled.c **** 		OLED_SetCursor(j, X);
 1224              		.loc 1 437 3 discriminator 3
 1225 005e FA79     		ldrb	r2, [r7, #7]	@ zero_extendqisi2
 1226 0060 FB7B     		ldrb	r3, [r7, #15]	@ zero_extendqisi2
 1227 0062 1146     		mov	r1, r2
 1228 0064 1846     		mov	r0, r3
ARM GAS  C:\Users\86134\AppData\Local\Temp\ccyB0sod.s 			page 30


 1229 0066 FFF7FEFF 		bl	OLED_SetCursor
 438:./Hardware/hardware/oled.c **** 		/*连续写入Width个数据，将显存数组的数据写入到OLED硬件*/
 439:./Hardware/hardware/oled.c **** 		OLED_WriteData(&OLED_DisplayBuf[j][X], Width);
 1230              		.loc 1 439 37 discriminator 3
 1231 006a FA7B     		ldrb	r2, [r7, #15]	@ zero_extendqisi2
 1232 006c FB79     		ldrb	r3, [r7, #7]	@ zero_extendqisi2
 1233              		.loc 1 439 3 discriminator 3
 1234 006e D201     		lsls	r2, r2, #7
 1235 0070 1344     		add	r3, r3, r2
 1236 0072 0E4A     		ldr	r2, .L57
 1237 0074 1344     		add	r3, r3, r2
 1238 0076 7A79     		ldrb	r2, [r7, #5]	@ zero_extendqisi2
 1239 0078 1146     		mov	r1, r2
 1240 007a 1846     		mov	r0, r3
 1241 007c FFF7FEFF 		bl	OLED_WriteData
 434:./Hardware/hardware/oled.c **** 	{
 1242              		.loc 1 434 50 discriminator 3
 1243 0080 FB7B     		ldrb	r3, [r7, #15]	@ zero_extendqisi2
 1244 0082 0133     		adds	r3, r3, #1
 1245 0084 FB73     		strb	r3, [r7, #15]
 1246              	.L52:
 434:./Hardware/hardware/oled.c **** 	{
 1247              		.loc 1 434 25 discriminator 1
 1248 0086 BA79     		ldrb	r2, [r7, #6]	@ zero_extendqisi2
 1249 0088 3B79     		ldrb	r3, [r7, #4]	@ zero_extendqisi2
 1250 008a 1344     		add	r3, r3, r2
 434:./Hardware/hardware/oled.c **** 	{
 1251              		.loc 1 434 34 discriminator 1
 1252 008c 013B     		subs	r3, r3, #1
 434:./Hardware/hardware/oled.c **** 	{
 1253              		.loc 1 434 39 discriminator 1
 1254 008e 002B     		cmp	r3, #0
 1255 0090 00DA     		bge	.L53
 1256 0092 0733     		adds	r3, r3, #7
 1257              	.L53:
 1258 0094 DB10     		asrs	r3, r3, #3
 1259 0096 1A46     		mov	r2, r3
 434:./Hardware/hardware/oled.c **** 	{
 1260              		.loc 1 434 20 discriminator 1
 1261 0098 FB7B     		ldrb	r3, [r7, #15]	@ zero_extendqisi2
 434:./Hardware/hardware/oled.c **** 	{
 1262              		.loc 1 434 2 discriminator 1
 1263 009a 9A42     		cmp	r2, r3
 1264 009c DFDA     		bge	.L54
 1265 009e 02E0     		b	.L46
 1266              	.L55:
 427:./Hardware/hardware/oled.c **** 	if (Y > 63) {return;}
 1267              		.loc 1 427 16
 1268 00a0 00BF     		nop
 1269 00a2 00E0     		b	.L46
 1270              	.L56:
 428:./Hardware/hardware/oled.c **** 	if (X + Width > 128) {Width = 128 - X;}
 1271              		.loc 1 428 15
 1272 00a4 00BF     		nop
 1273              	.L46:
 440:./Hardware/hardware/oled.c **** 	}
 441:./Hardware/hardware/oled.c **** }
ARM GAS  C:\Users\86134\AppData\Local\Temp\ccyB0sod.s 			page 31


 1274              		.loc 1 441 1
 1275 00a6 1437     		adds	r7, r7, #20
 1276              	.LCFI66:
 1277              		.cfi_def_cfa_offset 12
 1278 00a8 BD46     		mov	sp, r7
 1279              	.LCFI67:
 1280              		.cfi_def_cfa_register 13
 1281              		@ sp needed
 1282 00aa 90BD     		pop	{r4, r7, pc}
 1283              	.L58:
 1284              		.align	2
 1285              	.L57:
 1286 00ac 00000000 		.word	OLED_DisplayBuf
 1287              		.cfi_endproc
 1288              	.LFE46:
 1290              		.section	.text.OLED_Clear,"ax",%progbits
 1291              		.align	1
 1292              		.global	OLED_Clear
 1293              		.syntax unified
 1294              		.thumb
 1295              		.thumb_func
 1296              		.fpu softvfp
 1298              	OLED_Clear:
 1299              	.LFB47:
 442:./Hardware/hardware/oled.c **** 
 443:./Hardware/hardware/oled.c **** /**
 444:./Hardware/hardware/oled.c ****   * 函    数：将OLED显存数组全部清零
 445:./Hardware/hardware/oled.c ****   * 参    数：无
 446:./Hardware/hardware/oled.c ****   * 返 回 值：无
 447:./Hardware/hardware/oled.c ****   * 说    明：调用此函数后，要想真正地呈现在屏幕上，还需调用更新函数
 448:./Hardware/hardware/oled.c ****   */
 449:./Hardware/hardware/oled.c **** void OLED_Clear(void)
 450:./Hardware/hardware/oled.c **** {
 1300              		.loc 1 450 1
 1301              		.cfi_startproc
 1302              		@ args = 0, pretend = 0, frame = 8
 1303              		@ frame_needed = 1, uses_anonymous_args = 0
 1304              		@ link register save eliminated.
 1305 0000 80B4     		push	{r7}
 1306              	.LCFI68:
 1307              		.cfi_def_cfa_offset 4
 1308              		.cfi_offset 7, -4
 1309 0002 83B0     		sub	sp, sp, #12
 1310              	.LCFI69:
 1311              		.cfi_def_cfa_offset 16
 1312 0004 00AF     		add	r7, sp, #0
 1313              	.LCFI70:
 1314              		.cfi_def_cfa_register 7
 451:./Hardware/hardware/oled.c **** 	uint8_t i, j;
 452:./Hardware/hardware/oled.c **** 	for (j = 0; j < 8; j ++)				//遍历8页
 1315              		.loc 1 452 9
 1316 0006 0023     		movs	r3, #0
 1317 0008 BB71     		strb	r3, [r7, #6]
 1318              		.loc 1 452 2
 1319 000a 14E0     		b	.L60
 1320              	.L63:
 453:./Hardware/hardware/oled.c **** 	{
ARM GAS  C:\Users\86134\AppData\Local\Temp\ccyB0sod.s 			page 32


 454:./Hardware/hardware/oled.c **** 		for (i = 0; i < 128; i ++)			//遍历128列
 1321              		.loc 1 454 10
 1322 000c 0023     		movs	r3, #0
 1323 000e FB71     		strb	r3, [r7, #7]
 1324              		.loc 1 454 3
 1325 0010 0AE0     		b	.L61
 1326              	.L62:
 455:./Hardware/hardware/oled.c **** 		{
 456:./Hardware/hardware/oled.c **** 			OLED_DisplayBuf[j][i] = 0x00;	//将显存数组数据全部清零
 1327              		.loc 1 456 22 discriminator 3
 1328 0012 BA79     		ldrb	r2, [r7, #6]	@ zero_extendqisi2
 1329 0014 FB79     		ldrb	r3, [r7, #7]	@ zero_extendqisi2
 1330              		.loc 1 456 26 discriminator 3
 1331 0016 0C49     		ldr	r1, .L64
 1332 0018 D201     		lsls	r2, r2, #7
 1333 001a 0A44     		add	r2, r2, r1
 1334 001c 1344     		add	r3, r3, r2
 1335 001e 0022     		movs	r2, #0
 1336 0020 1A70     		strb	r2, [r3]
 454:./Hardware/hardware/oled.c **** 		{
 1337              		.loc 1 454 26 discriminator 3
 1338 0022 FB79     		ldrb	r3, [r7, #7]	@ zero_extendqisi2
 1339 0024 0133     		adds	r3, r3, #1
 1340 0026 FB71     		strb	r3, [r7, #7]
 1341              	.L61:
 454:./Hardware/hardware/oled.c **** 		{
 1342              		.loc 1 454 17 discriminator 1
 1343 0028 97F90730 		ldrsb	r3, [r7, #7]
 454:./Hardware/hardware/oled.c **** 		{
 1344              		.loc 1 454 3 discriminator 1
 1345 002c 002B     		cmp	r3, #0
 1346 002e F0DA     		bge	.L62
 452:./Hardware/hardware/oled.c **** 	{
 1347              		.loc 1 452 23 discriminator 2
 1348 0030 BB79     		ldrb	r3, [r7, #6]	@ zero_extendqisi2
 1349 0032 0133     		adds	r3, r3, #1
 1350 0034 BB71     		strb	r3, [r7, #6]
 1351              	.L60:
 452:./Hardware/hardware/oled.c **** 	{
 1352              		.loc 1 452 2 discriminator 1
 1353 0036 BB79     		ldrb	r3, [r7, #6]	@ zero_extendqisi2
 1354 0038 072B     		cmp	r3, #7
 1355 003a E7D9     		bls	.L63
 457:./Hardware/hardware/oled.c **** 		}
 458:./Hardware/hardware/oled.c **** 	}
 459:./Hardware/hardware/oled.c **** }
 1356              		.loc 1 459 1
 1357 003c 00BF     		nop
 1358 003e 00BF     		nop
 1359 0040 0C37     		adds	r7, r7, #12
 1360              	.LCFI71:
 1361              		.cfi_def_cfa_offset 4
 1362 0042 BD46     		mov	sp, r7
 1363              	.LCFI72:
 1364              		.cfi_def_cfa_register 13
 1365              		@ sp needed
 1366 0044 80BC     		pop	{r7}
ARM GAS  C:\Users\86134\AppData\Local\Temp\ccyB0sod.s 			page 33


 1367              	.LCFI73:
 1368              		.cfi_restore 7
 1369              		.cfi_def_cfa_offset 0
 1370 0046 7047     		bx	lr
 1371              	.L65:
 1372              		.align	2
 1373              	.L64:
 1374 0048 00000000 		.word	OLED_DisplayBuf
 1375              		.cfi_endproc
 1376              	.LFE47:
 1378              		.section	.text.OLED_ClearArea,"ax",%progbits
 1379              		.align	1
 1380              		.global	OLED_ClearArea
 1381              		.syntax unified
 1382              		.thumb
 1383              		.thumb_func
 1384              		.fpu softvfp
 1386              	OLED_ClearArea:
 1387              	.LFB48:
 460:./Hardware/hardware/oled.c **** 
 461:./Hardware/hardware/oled.c **** /**
 462:./Hardware/hardware/oled.c ****   * 函    数：将OLED显存数组部分清零
 463:./Hardware/hardware/oled.c ****   * 参    数：X 指定区域左上角的横坐标，范围：0~127
 464:./Hardware/hardware/oled.c ****   * 参    数：Y 指定区域左上角的纵坐标，范围：0~63
 465:./Hardware/hardware/oled.c ****   * 参    数：Width 指定区域的宽度，范围：0~128
 466:./Hardware/hardware/oled.c ****   * 参    数：Height 指定区域的高度，范围：0~64
 467:./Hardware/hardware/oled.c ****   * 返 回 值：无
 468:./Hardware/hardware/oled.c ****   * 说    明：调用此函数后，要想真正地呈现在屏幕上，还需调用更新函数
 469:./Hardware/hardware/oled.c ****   */
 470:./Hardware/hardware/oled.c **** void OLED_ClearArea(uint8_t X, uint8_t Y, uint8_t Width, uint8_t Height)
 471:./Hardware/hardware/oled.c **** {
 1388              		.loc 1 471 1
 1389              		.cfi_startproc
 1390              		@ args = 0, pretend = 0, frame = 16
 1391              		@ frame_needed = 1, uses_anonymous_args = 0
 1392              		@ link register save eliminated.
 1393 0000 90B4     		push	{r4, r7}
 1394              	.LCFI74:
 1395              		.cfi_def_cfa_offset 8
 1396              		.cfi_offset 4, -8
 1397              		.cfi_offset 7, -4
 1398 0002 84B0     		sub	sp, sp, #16
 1399              	.LCFI75:
 1400              		.cfi_def_cfa_offset 24
 1401 0004 00AF     		add	r7, sp, #0
 1402              	.LCFI76:
 1403              		.cfi_def_cfa_register 7
 1404 0006 0446     		mov	r4, r0
 1405 0008 0846     		mov	r0, r1
 1406 000a 1146     		mov	r1, r2
 1407 000c 1A46     		mov	r2, r3
 1408 000e 2346     		mov	r3, r4
 1409 0010 FB71     		strb	r3, [r7, #7]
 1410 0012 0346     		mov	r3, r0
 1411 0014 BB71     		strb	r3, [r7, #6]
 1412 0016 0B46     		mov	r3, r1
 1413 0018 7B71     		strb	r3, [r7, #5]
ARM GAS  C:\Users\86134\AppData\Local\Temp\ccyB0sod.s 			page 34


 1414 001a 1346     		mov	r3, r2
 1415 001c 3B71     		strb	r3, [r7, #4]
 472:./Hardware/hardware/oled.c **** 	uint8_t i, j;
 473:./Hardware/hardware/oled.c **** 	
 474:./Hardware/hardware/oled.c **** 	/*参数检查，保证指定区域不会超出屏幕范围*/
 475:./Hardware/hardware/oled.c **** 	if (X > 127) {return;}
 1416              		.loc 1 475 8
 1417 001e 97F90730 		ldrsb	r3, [r7, #7]
 1418              		.loc 1 475 5
 1419 0022 002B     		cmp	r3, #0
 1420 0024 4FDB     		blt	.L76
 476:./Hardware/hardware/oled.c **** 	if (Y > 63) {return;}
 1421              		.loc 1 476 5
 1422 0026 BB79     		ldrb	r3, [r7, #6]	@ zero_extendqisi2
 1423 0028 3F2B     		cmp	r3, #63
 1424 002a 4ED8     		bhi	.L77
 477:./Hardware/hardware/oled.c **** 	if (X + Width > 128) {Width = 128 - X;}
 1425              		.loc 1 477 8
 1426 002c FA79     		ldrb	r2, [r7, #7]	@ zero_extendqisi2
 1427 002e 7B79     		ldrb	r3, [r7, #5]	@ zero_extendqisi2
 1428 0030 1344     		add	r3, r3, r2
 1429              		.loc 1 477 5
 1430 0032 802B     		cmp	r3, #128
 1431 0034 06DD     		ble	.L70
 1432              		.loc 1 477 30 discriminator 1
 1433 0036 FB79     		ldrb	r3, [r7, #7]
 1434 0038 C3F1FF23 		rsb	r3, r3, #-16711936
 1435 003c 03F57F03 		add	r3, r3, #16711680
 1436 0040 8033     		adds	r3, r3, #128
 1437 0042 7B71     		strb	r3, [r7, #5]
 1438              	.L70:
 478:./Hardware/hardware/oled.c **** 	if (Y + Height > 64) {Height = 64 - Y;}
 1439              		.loc 1 478 8
 1440 0044 BA79     		ldrb	r2, [r7, #6]	@ zero_extendqisi2
 1441 0046 3B79     		ldrb	r3, [r7, #4]	@ zero_extendqisi2
 1442 0048 1344     		add	r3, r3, r2
 1443              		.loc 1 478 5
 1444 004a 402B     		cmp	r3, #64
 1445 004c 03DD     		ble	.L71
 1446              		.loc 1 478 31 discriminator 1
 1447 004e BB79     		ldrb	r3, [r7, #6]
 1448 0050 C3F14003 		rsb	r3, r3, #64
 1449 0054 3B71     		strb	r3, [r7, #4]
 1450              	.L71:
 479:./Hardware/hardware/oled.c **** 	
 480:./Hardware/hardware/oled.c **** 	for (j = Y; j < Y + Height; j ++)		//遍历指定页
 1451              		.loc 1 480 9
 1452 0056 BB79     		ldrb	r3, [r7, #6]
 1453 0058 BB73     		strb	r3, [r7, #14]
 1454              		.loc 1 480 2
 1455 005a 2DE0     		b	.L72
 1456              	.L75:
 481:./Hardware/hardware/oled.c **** 	{
 482:./Hardware/hardware/oled.c **** 		for (i = X; i < X + Width; i ++)	//遍历指定列
 1457              		.loc 1 482 10
 1458 005c FB79     		ldrb	r3, [r7, #7]
 1459 005e FB73     		strb	r3, [r7, #15]
ARM GAS  C:\Users\86134\AppData\Local\Temp\ccyB0sod.s 			page 35


 1460              		.loc 1 482 3
 1461 0060 21E0     		b	.L73
 1462              	.L74:
 483:./Hardware/hardware/oled.c **** 		{
 484:./Hardware/hardware/oled.c **** 			OLED_DisplayBuf[j / 8][i] &= ~(0x01 << (j % 8));	//将显存数组指定数据清零
 1463              		.loc 1 484 30 discriminator 3
 1464 0062 BB7B     		ldrb	r3, [r7, #14]	@ zero_extendqisi2
 1465 0064 DB08     		lsrs	r3, r3, #3
 1466 0066 D8B2     		uxtb	r0, r3
 1467 0068 0246     		mov	r2, r0
 1468 006a FB7B     		ldrb	r3, [r7, #15]	@ zero_extendqisi2
 1469 006c 1949     		ldr	r1, .L78
 1470 006e D201     		lsls	r2, r2, #7
 1471 0070 0A44     		add	r2, r2, r1
 1472 0072 1344     		add	r3, r3, r2
 1473 0074 1B78     		ldrb	r3, [r3]	@ zero_extendqisi2
 1474 0076 5AB2     		sxtb	r2, r3
 1475              		.loc 1 484 46 discriminator 3
 1476 0078 BB7B     		ldrb	r3, [r7, #14]	@ zero_extendqisi2
 1477 007a 03F00703 		and	r3, r3, #7
 1478              		.loc 1 484 40 discriminator 3
 1479 007e 0121     		movs	r1, #1
 1480 0080 01FA03F3 		lsl	r3, r1, r3
 1481              		.loc 1 484 30 discriminator 3
 1482 0084 5BB2     		sxtb	r3, r3
 1483 0086 DB43     		mvns	r3, r3
 1484 0088 5BB2     		sxtb	r3, r3
 1485 008a 1340     		ands	r3, r3, r2
 1486 008c 59B2     		sxtb	r1, r3
 1487 008e 0246     		mov	r2, r0
 1488 0090 FB7B     		ldrb	r3, [r7, #15]	@ zero_extendqisi2
 1489 0092 C8B2     		uxtb	r0, r1
 1490 0094 0F49     		ldr	r1, .L78
 1491 0096 D201     		lsls	r2, r2, #7
 1492 0098 0A44     		add	r2, r2, r1
 1493 009a 1344     		add	r3, r3, r2
 1494 009c 0246     		mov	r2, r0
 1495 009e 1A70     		strb	r2, [r3]
 482:./Hardware/hardware/oled.c **** 		{
 1496              		.loc 1 482 32 discriminator 3
 1497 00a0 FB7B     		ldrb	r3, [r7, #15]	@ zero_extendqisi2
 1498 00a2 0133     		adds	r3, r3, #1
 1499 00a4 FB73     		strb	r3, [r7, #15]
 1500              	.L73:
 482:./Hardware/hardware/oled.c **** 		{
 1501              		.loc 1 482 17 discriminator 1
 1502 00a6 FA7B     		ldrb	r2, [r7, #15]	@ zero_extendqisi2
 482:./Hardware/hardware/oled.c **** 		{
 1503              		.loc 1 482 21 discriminator 1
 1504 00a8 F979     		ldrb	r1, [r7, #7]	@ zero_extendqisi2
 1505 00aa 7B79     		ldrb	r3, [r7, #5]	@ zero_extendqisi2
 1506 00ac 0B44     		add	r3, r3, r1
 482:./Hardware/hardware/oled.c **** 		{
 1507              		.loc 1 482 3 discriminator 1
 1508 00ae 9A42     		cmp	r2, r3
 1509 00b0 D7DB     		blt	.L74
 480:./Hardware/hardware/oled.c **** 	{
ARM GAS  C:\Users\86134\AppData\Local\Temp\ccyB0sod.s 			page 36


 1510              		.loc 1 480 32 discriminator 2
 1511 00b2 BB7B     		ldrb	r3, [r7, #14]	@ zero_extendqisi2
 1512 00b4 0133     		adds	r3, r3, #1
 1513 00b6 BB73     		strb	r3, [r7, #14]
 1514              	.L72:
 480:./Hardware/hardware/oled.c **** 	{
 1515              		.loc 1 480 16 discriminator 1
 1516 00b8 BA7B     		ldrb	r2, [r7, #14]	@ zero_extendqisi2
 480:./Hardware/hardware/oled.c **** 	{
 1517              		.loc 1 480 20 discriminator 1
 1518 00ba B979     		ldrb	r1, [r7, #6]	@ zero_extendqisi2
 1519 00bc 3B79     		ldrb	r3, [r7, #4]	@ zero_extendqisi2
 1520 00be 0B44     		add	r3, r3, r1
 480:./Hardware/hardware/oled.c **** 	{
 1521              		.loc 1 480 2 discriminator 1
 1522 00c0 9A42     		cmp	r2, r3
 1523 00c2 CBDB     		blt	.L75
 1524 00c4 02E0     		b	.L66
 1525              	.L76:
 475:./Hardware/hardware/oled.c **** 	if (Y > 63) {return;}
 1526              		.loc 1 475 16
 1527 00c6 00BF     		nop
 1528 00c8 00E0     		b	.L66
 1529              	.L77:
 476:./Hardware/hardware/oled.c **** 	if (X + Width > 128) {Width = 128 - X;}
 1530              		.loc 1 476 15
 1531 00ca 00BF     		nop
 1532              	.L66:
 485:./Hardware/hardware/oled.c **** 		}
 486:./Hardware/hardware/oled.c **** 	}
 487:./Hardware/hardware/oled.c **** }
 1533              		.loc 1 487 1
 1534 00cc 1037     		adds	r7, r7, #16
 1535              	.LCFI77:
 1536              		.cfi_def_cfa_offset 8
 1537 00ce BD46     		mov	sp, r7
 1538              	.LCFI78:
 1539              		.cfi_def_cfa_register 13
 1540              		@ sp needed
 1541 00d0 90BC     		pop	{r4, r7}
 1542              	.LCFI79:
 1543              		.cfi_restore 7
 1544              		.cfi_restore 4
 1545              		.cfi_def_cfa_offset 0
 1546 00d2 7047     		bx	lr
 1547              	.L79:
 1548              		.align	2
 1549              	.L78:
 1550 00d4 00000000 		.word	OLED_DisplayBuf
 1551              		.cfi_endproc
 1552              	.LFE48:
 1554              		.section	.text.OLED_Reverse,"ax",%progbits
 1555              		.align	1
 1556              		.global	OLED_Reverse
 1557              		.syntax unified
 1558              		.thumb
 1559              		.thumb_func
ARM GAS  C:\Users\86134\AppData\Local\Temp\ccyB0sod.s 			page 37


 1560              		.fpu softvfp
 1562              	OLED_Reverse:
 1563              	.LFB49:
 488:./Hardware/hardware/oled.c **** 
 489:./Hardware/hardware/oled.c **** /**
 490:./Hardware/hardware/oled.c ****   * 函    数：将OLED显存数组全部取反
 491:./Hardware/hardware/oled.c ****   * 参    数：无
 492:./Hardware/hardware/oled.c ****   * 返 回 值：无
 493:./Hardware/hardware/oled.c ****   * 说    明：调用此函数后，要想真正地呈现在屏幕上，还需调用更新函数
 494:./Hardware/hardware/oled.c ****   */
 495:./Hardware/hardware/oled.c **** void OLED_Reverse(void)
 496:./Hardware/hardware/oled.c **** {
 1564              		.loc 1 496 1
 1565              		.cfi_startproc
 1566              		@ args = 0, pretend = 0, frame = 8
 1567              		@ frame_needed = 1, uses_anonymous_args = 0
 1568              		@ link register save eliminated.
 1569 0000 80B4     		push	{r7}
 1570              	.LCFI80:
 1571              		.cfi_def_cfa_offset 4
 1572              		.cfi_offset 7, -4
 1573 0002 83B0     		sub	sp, sp, #12
 1574              	.LCFI81:
 1575              		.cfi_def_cfa_offset 16
 1576 0004 00AF     		add	r7, sp, #0
 1577              	.LCFI82:
 1578              		.cfi_def_cfa_register 7
 497:./Hardware/hardware/oled.c **** 	uint8_t i, j;
 498:./Hardware/hardware/oled.c **** 	for (j = 0; j < 8; j ++)				//遍历8页
 1579              		.loc 1 498 9
 1580 0006 0023     		movs	r3, #0
 1581 0008 BB71     		strb	r3, [r7, #6]
 1582              		.loc 1 498 2
 1583 000a 1DE0     		b	.L81
 1584              	.L84:
 499:./Hardware/hardware/oled.c **** 	{
 500:./Hardware/hardware/oled.c **** 		for (i = 0; i < 128; i ++)			//遍历128列
 1585              		.loc 1 500 10
 1586 000c 0023     		movs	r3, #0
 1587 000e FB71     		strb	r3, [r7, #7]
 1588              		.loc 1 500 3
 1589 0010 13E0     		b	.L82
 1590              	.L83:
 501:./Hardware/hardware/oled.c **** 		{
 502:./Hardware/hardware/oled.c **** 			OLED_DisplayBuf[j][i] ^= 0xFF;	//将显存数组数据全部取反
 1591              		.loc 1 502 26 discriminator 3
 1592 0012 BA79     		ldrb	r2, [r7, #6]	@ zero_extendqisi2
 1593 0014 FB79     		ldrb	r3, [r7, #7]	@ zero_extendqisi2
 1594 0016 1149     		ldr	r1, .L85
 1595 0018 D201     		lsls	r2, r2, #7
 1596 001a 0A44     		add	r2, r2, r1
 1597 001c 1344     		add	r3, r3, r2
 1598 001e 1978     		ldrb	r1, [r3]	@ zero_extendqisi2
 1599 0020 BA79     		ldrb	r2, [r7, #6]	@ zero_extendqisi2
 1600 0022 FB79     		ldrb	r3, [r7, #7]	@ zero_extendqisi2
 1601 0024 C943     		mvns	r1, r1
 1602 0026 C8B2     		uxtb	r0, r1
ARM GAS  C:\Users\86134\AppData\Local\Temp\ccyB0sod.s 			page 38


 1603 0028 0C49     		ldr	r1, .L85
 1604 002a D201     		lsls	r2, r2, #7
 1605 002c 0A44     		add	r2, r2, r1
 1606 002e 1344     		add	r3, r3, r2
 1607 0030 0246     		mov	r2, r0
 1608 0032 1A70     		strb	r2, [r3]
 500:./Hardware/hardware/oled.c **** 		{
 1609              		.loc 1 500 26 discriminator 3
 1610 0034 FB79     		ldrb	r3, [r7, #7]	@ zero_extendqisi2
 1611 0036 0133     		adds	r3, r3, #1
 1612 0038 FB71     		strb	r3, [r7, #7]
 1613              	.L82:
 500:./Hardware/hardware/oled.c **** 		{
 1614              		.loc 1 500 17 discriminator 1
 1615 003a 97F90730 		ldrsb	r3, [r7, #7]
 500:./Hardware/hardware/oled.c **** 		{
 1616              		.loc 1 500 3 discriminator 1
 1617 003e 002B     		cmp	r3, #0
 1618 0040 E7DA     		bge	.L83
 498:./Hardware/hardware/oled.c **** 	{
 1619              		.loc 1 498 23 discriminator 2
 1620 0042 BB79     		ldrb	r3, [r7, #6]	@ zero_extendqisi2
 1621 0044 0133     		adds	r3, r3, #1
 1622 0046 BB71     		strb	r3, [r7, #6]
 1623              	.L81:
 498:./Hardware/hardware/oled.c **** 	{
 1624              		.loc 1 498 2 discriminator 1
 1625 0048 BB79     		ldrb	r3, [r7, #6]	@ zero_extendqisi2
 1626 004a 072B     		cmp	r3, #7
 1627 004c DED9     		bls	.L84
 503:./Hardware/hardware/oled.c **** 		}
 504:./Hardware/hardware/oled.c **** 	}
 505:./Hardware/hardware/oled.c **** }
 1628              		.loc 1 505 1
 1629 004e 00BF     		nop
 1630 0050 00BF     		nop
 1631 0052 0C37     		adds	r7, r7, #12
 1632              	.LCFI83:
 1633              		.cfi_def_cfa_offset 4
 1634 0054 BD46     		mov	sp, r7
 1635              	.LCFI84:
 1636              		.cfi_def_cfa_register 13
 1637              		@ sp needed
 1638 0056 80BC     		pop	{r7}
 1639              	.LCFI85:
 1640              		.cfi_restore 7
 1641              		.cfi_def_cfa_offset 0
 1642 0058 7047     		bx	lr
 1643              	.L86:
 1644 005a 00BF     		.align	2
 1645              	.L85:
 1646 005c 00000000 		.word	OLED_DisplayBuf
 1647              		.cfi_endproc
 1648              	.LFE49:
 1650              		.section	.text.OLED_ReverseArea,"ax",%progbits
 1651              		.align	1
 1652              		.global	OLED_ReverseArea
ARM GAS  C:\Users\86134\AppData\Local\Temp\ccyB0sod.s 			page 39


 1653              		.syntax unified
 1654              		.thumb
 1655              		.thumb_func
 1656              		.fpu softvfp
 1658              	OLED_ReverseArea:
 1659              	.LFB50:
 506:./Hardware/hardware/oled.c **** 	
 507:./Hardware/hardware/oled.c **** /**
 508:./Hardware/hardware/oled.c ****   * 函    数：将OLED显存数组部分取反
 509:./Hardware/hardware/oled.c ****   * 参    数：X 指定区域左上角的横坐标，范围：0~127
 510:./Hardware/hardware/oled.c ****   * 参    数：Y 指定区域左上角的纵坐标，范围：0~63
 511:./Hardware/hardware/oled.c ****   * 参    数：Width 指定区域的宽度，范围：0~128
 512:./Hardware/hardware/oled.c ****   * 参    数：Height 指定区域的高度，范围：0~64
 513:./Hardware/hardware/oled.c ****   * 返 回 值：无
 514:./Hardware/hardware/oled.c ****   * 说    明：调用此函数后，要想真正地呈现在屏幕上，还需调用更新函数
 515:./Hardware/hardware/oled.c ****   */
 516:./Hardware/hardware/oled.c **** void OLED_ReverseArea(uint8_t X, uint8_t Y, uint8_t Width, uint8_t Height)
 517:./Hardware/hardware/oled.c **** {
 1660              		.loc 1 517 1
 1661              		.cfi_startproc
 1662              		@ args = 0, pretend = 0, frame = 16
 1663              		@ frame_needed = 1, uses_anonymous_args = 0
 1664              		@ link register save eliminated.
 1665 0000 90B4     		push	{r4, r7}
 1666              	.LCFI86:
 1667              		.cfi_def_cfa_offset 8
 1668              		.cfi_offset 4, -8
 1669              		.cfi_offset 7, -4
 1670 0002 84B0     		sub	sp, sp, #16
 1671              	.LCFI87:
 1672              		.cfi_def_cfa_offset 24
 1673 0004 00AF     		add	r7, sp, #0
 1674              	.LCFI88:
 1675              		.cfi_def_cfa_register 7
 1676 0006 0446     		mov	r4, r0
 1677 0008 0846     		mov	r0, r1
 1678 000a 1146     		mov	r1, r2
 1679 000c 1A46     		mov	r2, r3
 1680 000e 2346     		mov	r3, r4
 1681 0010 FB71     		strb	r3, [r7, #7]
 1682 0012 0346     		mov	r3, r0
 1683 0014 BB71     		strb	r3, [r7, #6]
 1684 0016 0B46     		mov	r3, r1
 1685 0018 7B71     		strb	r3, [r7, #5]
 1686 001a 1346     		mov	r3, r2
 1687 001c 3B71     		strb	r3, [r7, #4]
 518:./Hardware/hardware/oled.c **** 	uint8_t i, j;
 519:./Hardware/hardware/oled.c **** 	
 520:./Hardware/hardware/oled.c **** 	/*参数检查，保证指定区域不会超出屏幕范围*/
 521:./Hardware/hardware/oled.c **** 	if (X > 127) {return;}
 1688              		.loc 1 521 8
 1689 001e 97F90730 		ldrsb	r3, [r7, #7]
 1690              		.loc 1 521 5
 1691 0022 002B     		cmp	r3, #0
 1692 0024 4DDB     		blt	.L97
 522:./Hardware/hardware/oled.c **** 	if (Y > 63) {return;}
 1693              		.loc 1 522 5
ARM GAS  C:\Users\86134\AppData\Local\Temp\ccyB0sod.s 			page 40


 1694 0026 BB79     		ldrb	r3, [r7, #6]	@ zero_extendqisi2
 1695 0028 3F2B     		cmp	r3, #63
 1696 002a 4CD8     		bhi	.L98
 523:./Hardware/hardware/oled.c **** 	if (X + Width > 128) {Width = 128 - X;}
 1697              		.loc 1 523 8
 1698 002c FA79     		ldrb	r2, [r7, #7]	@ zero_extendqisi2
 1699 002e 7B79     		ldrb	r3, [r7, #5]	@ zero_extendqisi2
 1700 0030 1344     		add	r3, r3, r2
 1701              		.loc 1 523 5
 1702 0032 802B     		cmp	r3, #128
 1703 0034 06DD     		ble	.L91
 1704              		.loc 1 523 30 discriminator 1
 1705 0036 FB79     		ldrb	r3, [r7, #7]
 1706 0038 C3F1FF23 		rsb	r3, r3, #-16711936
 1707 003c 03F57F03 		add	r3, r3, #16711680
 1708 0040 8033     		adds	r3, r3, #128
 1709 0042 7B71     		strb	r3, [r7, #5]
 1710              	.L91:
 524:./Hardware/hardware/oled.c **** 	if (Y + Height > 64) {Height = 64 - Y;}
 1711              		.loc 1 524 8
 1712 0044 BA79     		ldrb	r2, [r7, #6]	@ zero_extendqisi2
 1713 0046 3B79     		ldrb	r3, [r7, #4]	@ zero_extendqisi2
 1714 0048 1344     		add	r3, r3, r2
 1715              		.loc 1 524 5
 1716 004a 402B     		cmp	r3, #64
 1717 004c 03DD     		ble	.L92
 1718              		.loc 1 524 31 discriminator 1
 1719 004e BB79     		ldrb	r3, [r7, #6]
 1720 0050 C3F14003 		rsb	r3, r3, #64
 1721 0054 3B71     		strb	r3, [r7, #4]
 1722              	.L92:
 525:./Hardware/hardware/oled.c **** 	
 526:./Hardware/hardware/oled.c **** 	for (j = Y; j < Y + Height; j ++)		//遍历指定页
 1723              		.loc 1 526 9
 1724 0056 BB79     		ldrb	r3, [r7, #6]
 1725 0058 BB73     		strb	r3, [r7, #14]
 1726              		.loc 1 526 2
 1727 005a 2BE0     		b	.L93
 1728              	.L96:
 527:./Hardware/hardware/oled.c **** 	{
 528:./Hardware/hardware/oled.c **** 		for (i = X; i < X + Width; i ++)	//遍历指定列
 1729              		.loc 1 528 10
 1730 005c FB79     		ldrb	r3, [r7, #7]
 1731 005e FB73     		strb	r3, [r7, #15]
 1732              		.loc 1 528 3
 1733 0060 1FE0     		b	.L94
 1734              	.L95:
 529:./Hardware/hardware/oled.c **** 		{
 530:./Hardware/hardware/oled.c **** 			OLED_DisplayBuf[j / 8][i] ^= 0x01 << (j % 8);	//将显存数组指定数据取反
 1735              		.loc 1 530 30 discriminator 3
 1736 0062 BB7B     		ldrb	r3, [r7, #14]	@ zero_extendqisi2
 1737 0064 DB08     		lsrs	r3, r3, #3
 1738 0066 D8B2     		uxtb	r0, r3
 1739 0068 0246     		mov	r2, r0
 1740 006a FB7B     		ldrb	r3, [r7, #15]	@ zero_extendqisi2
 1741 006c 1849     		ldr	r1, .L99
 1742 006e D201     		lsls	r2, r2, #7
ARM GAS  C:\Users\86134\AppData\Local\Temp\ccyB0sod.s 			page 41


 1743 0070 0A44     		add	r2, r2, r1
 1744 0072 1344     		add	r3, r3, r2
 1745 0074 1B78     		ldrb	r3, [r3]	@ zero_extendqisi2
 1746 0076 5AB2     		sxtb	r2, r3
 1747              		.loc 1 530 44 discriminator 3
 1748 0078 BB7B     		ldrb	r3, [r7, #14]	@ zero_extendqisi2
 1749 007a 03F00703 		and	r3, r3, #7
 1750              		.loc 1 530 38 discriminator 3
 1751 007e 0121     		movs	r1, #1
 1752 0080 01FA03F3 		lsl	r3, r1, r3
 1753              		.loc 1 530 30 discriminator 3
 1754 0084 5BB2     		sxtb	r3, r3
 1755 0086 5340     		eors	r3, r3, r2
 1756 0088 59B2     		sxtb	r1, r3
 1757 008a 0246     		mov	r2, r0
 1758 008c FB7B     		ldrb	r3, [r7, #15]	@ zero_extendqisi2
 1759 008e C8B2     		uxtb	r0, r1
 1760 0090 0F49     		ldr	r1, .L99
 1761 0092 D201     		lsls	r2, r2, #7
 1762 0094 0A44     		add	r2, r2, r1
 1763 0096 1344     		add	r3, r3, r2
 1764 0098 0246     		mov	r2, r0
 1765 009a 1A70     		strb	r2, [r3]
 528:./Hardware/hardware/oled.c **** 		{
 1766              		.loc 1 528 32 discriminator 3
 1767 009c FB7B     		ldrb	r3, [r7, #15]	@ zero_extendqisi2
 1768 009e 0133     		adds	r3, r3, #1
 1769 00a0 FB73     		strb	r3, [r7, #15]
 1770              	.L94:
 528:./Hardware/hardware/oled.c **** 		{
 1771              		.loc 1 528 17 discriminator 1
 1772 00a2 FA7B     		ldrb	r2, [r7, #15]	@ zero_extendqisi2
 528:./Hardware/hardware/oled.c **** 		{
 1773              		.loc 1 528 21 discriminator 1
 1774 00a4 F979     		ldrb	r1, [r7, #7]	@ zero_extendqisi2
 1775 00a6 7B79     		ldrb	r3, [r7, #5]	@ zero_extendqisi2
 1776 00a8 0B44     		add	r3, r3, r1
 528:./Hardware/hardware/oled.c **** 		{
 1777              		.loc 1 528 3 discriminator 1
 1778 00aa 9A42     		cmp	r2, r3
 1779 00ac D9DB     		blt	.L95
 526:./Hardware/hardware/oled.c **** 	{
 1780              		.loc 1 526 32 discriminator 2
 1781 00ae BB7B     		ldrb	r3, [r7, #14]	@ zero_extendqisi2
 1782 00b0 0133     		adds	r3, r3, #1
 1783 00b2 BB73     		strb	r3, [r7, #14]
 1784              	.L93:
 526:./Hardware/hardware/oled.c **** 	{
 1785              		.loc 1 526 16 discriminator 1
 1786 00b4 BA7B     		ldrb	r2, [r7, #14]	@ zero_extendqisi2
 526:./Hardware/hardware/oled.c **** 	{
 1787              		.loc 1 526 20 discriminator 1
 1788 00b6 B979     		ldrb	r1, [r7, #6]	@ zero_extendqisi2
 1789 00b8 3B79     		ldrb	r3, [r7, #4]	@ zero_extendqisi2
 1790 00ba 0B44     		add	r3, r3, r1
 526:./Hardware/hardware/oled.c **** 	{
 1791              		.loc 1 526 2 discriminator 1
ARM GAS  C:\Users\86134\AppData\Local\Temp\ccyB0sod.s 			page 42


 1792 00bc 9A42     		cmp	r2, r3
 1793 00be CDDB     		blt	.L96
 1794 00c0 02E0     		b	.L87
 1795              	.L97:
 521:./Hardware/hardware/oled.c **** 	if (Y > 63) {return;}
 1796              		.loc 1 521 16
 1797 00c2 00BF     		nop
 1798 00c4 00E0     		b	.L87
 1799              	.L98:
 522:./Hardware/hardware/oled.c **** 	if (X + Width > 128) {Width = 128 - X;}
 1800              		.loc 1 522 15
 1801 00c6 00BF     		nop
 1802              	.L87:
 531:./Hardware/hardware/oled.c **** 		}
 532:./Hardware/hardware/oled.c **** 	}
 533:./Hardware/hardware/oled.c **** }
 1803              		.loc 1 533 1
 1804 00c8 1037     		adds	r7, r7, #16
 1805              	.LCFI89:
 1806              		.cfi_def_cfa_offset 8
 1807 00ca BD46     		mov	sp, r7
 1808              	.LCFI90:
 1809              		.cfi_def_cfa_register 13
 1810              		@ sp needed
 1811 00cc 90BC     		pop	{r4, r7}
 1812              	.LCFI91:
 1813              		.cfi_restore 7
 1814              		.cfi_restore 4
 1815              		.cfi_def_cfa_offset 0
 1816 00ce 7047     		bx	lr
 1817              	.L100:
 1818              		.align	2
 1819              	.L99:
 1820 00d0 00000000 		.word	OLED_DisplayBuf
 1821              		.cfi_endproc
 1822              	.LFE50:
 1824              		.section	.text.OLED_ShowChar,"ax",%progbits
 1825              		.align	1
 1826              		.global	OLED_ShowChar
 1827              		.syntax unified
 1828              		.thumb
 1829              		.thumb_func
 1830              		.fpu softvfp
 1832              	OLED_ShowChar:
 1833              	.LFB51:
 534:./Hardware/hardware/oled.c **** 
 535:./Hardware/hardware/oled.c **** /**
 536:./Hardware/hardware/oled.c ****   * 函    数：OLED显示一个字符
 537:./Hardware/hardware/oled.c ****   * 参    数：X 指定字符左上角的横坐标，范围：0~127
 538:./Hardware/hardware/oled.c ****   * 参    数：Y 指定字符左上角的纵坐标，范围：0~63
 539:./Hardware/hardware/oled.c ****   * 参    数：Char 指定要显示的字符，范围：ASCII码可见字符
 540:./Hardware/hardware/oled.c ****   * 参    数：FontSize 指定字体大小
 541:./Hardware/hardware/oled.c ****   *           范围：OLED_8X16		宽8像素，高16像素
 542:./Hardware/hardware/oled.c ****   *                 OLED_6X8		宽6像素，高8像素
 543:./Hardware/hardware/oled.c ****   * 返 回 值：无
 544:./Hardware/hardware/oled.c ****   * 说    明：调用此函数后，要想真正地呈现在屏幕上，还需调用更新函数
 545:./Hardware/hardware/oled.c ****   */
ARM GAS  C:\Users\86134\AppData\Local\Temp\ccyB0sod.s 			page 43


 546:./Hardware/hardware/oled.c **** void OLED_ShowChar(uint8_t X, uint8_t Y, char Char, uint8_t FontSize)
 547:./Hardware/hardware/oled.c **** {
 1834              		.loc 1 547 1
 1835              		.cfi_startproc
 1836              		@ args = 0, pretend = 0, frame = 8
 1837              		@ frame_needed = 1, uses_anonymous_args = 0
 1838 0000 90B5     		push	{r4, r7, lr}
 1839              	.LCFI92:
 1840              		.cfi_def_cfa_offset 12
 1841              		.cfi_offset 4, -12
 1842              		.cfi_offset 7, -8
 1843              		.cfi_offset 14, -4
 1844 0002 85B0     		sub	sp, sp, #20
 1845              	.LCFI93:
 1846              		.cfi_def_cfa_offset 32
 1847 0004 02AF     		add	r7, sp, #8
 1848              	.LCFI94:
 1849              		.cfi_def_cfa 7, 24
 1850 0006 0446     		mov	r4, r0
 1851 0008 0846     		mov	r0, r1
 1852 000a 1146     		mov	r1, r2
 1853 000c 1A46     		mov	r2, r3
 1854 000e 2346     		mov	r3, r4
 1855 0010 FB71     		strb	r3, [r7, #7]
 1856 0012 0346     		mov	r3, r0
 1857 0014 BB71     		strb	r3, [r7, #6]
 1858 0016 0B46     		mov	r3, r1
 1859 0018 7B71     		strb	r3, [r7, #5]
 1860 001a 1346     		mov	r3, r2
 1861 001c 3B71     		strb	r3, [r7, #4]
 548:./Hardware/hardware/oled.c **** 	if (FontSize == OLED_8X16)		//字体为宽8像素，高16像素
 1862              		.loc 1 548 5
 1863 001e 3B79     		ldrb	r3, [r7, #4]	@ zero_extendqisi2
 1864 0020 082B     		cmp	r3, #8
 1865 0022 0CD1     		bne	.L102
 549:./Hardware/hardware/oled.c **** 	{
 550:./Hardware/hardware/oled.c **** 		/*将ASCII字模库OLED_F8x16的指定数据以8*16的图像格式显示*/
 551:./Hardware/hardware/oled.c **** 		OLED_ShowImage(X, Y, 8, 16, OLED_F8x16[Char - ' ']);
 1866              		.loc 1 551 47
 1867 0024 7B79     		ldrb	r3, [r7, #5]	@ zero_extendqisi2
 1868 0026 203B     		subs	r3, r3, #32
 1869              		.loc 1 551 41
 1870 0028 1B01     		lsls	r3, r3, #4
 1871 002a 104A     		ldr	r2, .L105
 1872 002c 1344     		add	r3, r3, r2
 1873              		.loc 1 551 3
 1874 002e B979     		ldrb	r1, [r7, #6]	@ zero_extendqisi2
 1875 0030 F879     		ldrb	r0, [r7, #7]	@ zero_extendqisi2
 1876 0032 0093     		str	r3, [sp]
 1877 0034 1023     		movs	r3, #16
 1878 0036 0822     		movs	r2, #8
 1879 0038 FFF7FEFF 		bl	OLED_ShowImage
 552:./Hardware/hardware/oled.c **** 	}
 553:./Hardware/hardware/oled.c **** 	else if(FontSize == OLED_6X8)	//字体为宽6像素，高8像素
 554:./Hardware/hardware/oled.c **** 	{
 555:./Hardware/hardware/oled.c **** 		/*将ASCII字模库OLED_F6x8的指定数据以6*8的图像格式显示*/
 556:./Hardware/hardware/oled.c **** 		OLED_ShowImage(X, Y, 6, 8, OLED_F6x8[Char - ' ']);
ARM GAS  C:\Users\86134\AppData\Local\Temp\ccyB0sod.s 			page 44


 557:./Hardware/hardware/oled.c **** 	}
 558:./Hardware/hardware/oled.c **** }
 1880              		.loc 1 558 1
 1881 003c 12E0     		b	.L104
 1882              	.L102:
 553:./Hardware/hardware/oled.c **** 	{
 1883              		.loc 1 553 9
 1884 003e 3B79     		ldrb	r3, [r7, #4]	@ zero_extendqisi2
 1885 0040 062B     		cmp	r3, #6
 1886 0042 0FD1     		bne	.L104
 556:./Hardware/hardware/oled.c **** 	}
 1887              		.loc 1 556 45
 1888 0044 7B79     		ldrb	r3, [r7, #5]	@ zero_extendqisi2
 1889 0046 A3F12002 		sub	r2, r3, #32
 556:./Hardware/hardware/oled.c **** 	}
 1890              		.loc 1 556 39
 1891 004a 1346     		mov	r3, r2
 1892 004c 5B00     		lsls	r3, r3, #1
 1893 004e 1344     		add	r3, r3, r2
 1894 0050 5B00     		lsls	r3, r3, #1
 1895 0052 074A     		ldr	r2, .L105+4
 1896 0054 1344     		add	r3, r3, r2
 556:./Hardware/hardware/oled.c **** 	}
 1897              		.loc 1 556 3
 1898 0056 B979     		ldrb	r1, [r7, #6]	@ zero_extendqisi2
 1899 0058 F879     		ldrb	r0, [r7, #7]	@ zero_extendqisi2
 1900 005a 0093     		str	r3, [sp]
 1901 005c 0823     		movs	r3, #8
 1902 005e 0622     		movs	r2, #6
 1903 0060 FFF7FEFF 		bl	OLED_ShowImage
 1904              	.L104:
 1905              		.loc 1 558 1
 1906 0064 00BF     		nop
 1907 0066 0C37     		adds	r7, r7, #12
 1908              	.LCFI95:
 1909              		.cfi_def_cfa_offset 12
 1910 0068 BD46     		mov	sp, r7
 1911              	.LCFI96:
 1912              		.cfi_def_cfa_register 13
 1913              		@ sp needed
 1914 006a 90BD     		pop	{r4, r7, pc}
 1915              	.L106:
 1916              		.align	2
 1917              	.L105:
 1918 006c 00000000 		.word	OLED_F8x16
 1919 0070 00000000 		.word	OLED_F6x8
 1920              		.cfi_endproc
 1921              	.LFE51:
 1923              		.section	.text.OLED_ShowString,"ax",%progbits
 1924              		.align	1
 1925              		.global	OLED_ShowString
 1926              		.syntax unified
 1927              		.thumb
 1928              		.thumb_func
 1929              		.fpu softvfp
 1931              	OLED_ShowString:
 1932              	.LFB52:
ARM GAS  C:\Users\86134\AppData\Local\Temp\ccyB0sod.s 			page 45


 559:./Hardware/hardware/oled.c **** 
 560:./Hardware/hardware/oled.c **** /**
 561:./Hardware/hardware/oled.c ****   * 函    数：OLED显示字符串
 562:./Hardware/hardware/oled.c ****   * 参    数：X 指定字符串左上角的横坐标，范围：0~127
 563:./Hardware/hardware/oled.c ****   * 参    数：Y 指定字符串左上角的纵坐标，范围：0~63
 564:./Hardware/hardware/oled.c ****   * 参    数：String 指定要显示的字符串，范围：ASCII码可见字符组成的字符串
 565:./Hardware/hardware/oled.c ****   * 参    数：FontSize 指定字体大小
 566:./Hardware/hardware/oled.c ****   *           范围：OLED_8X16		宽8像素，高16像素
 567:./Hardware/hardware/oled.c ****   *                 OLED_6X8		宽6像素，高8像素
 568:./Hardware/hardware/oled.c ****   * 返 回 值：无
 569:./Hardware/hardware/oled.c ****   * 说    明：调用此函数后，要想真正地呈现在屏幕上，还需调用更新函数
 570:./Hardware/hardware/oled.c ****   */
 571:./Hardware/hardware/oled.c **** void OLED_ShowString(uint8_t X, uint8_t Y, char *String, uint8_t FontSize)
 572:./Hardware/hardware/oled.c **** {
 1933              		.loc 1 572 1
 1934              		.cfi_startproc
 1935              		@ args = 0, pretend = 0, frame = 16
 1936              		@ frame_needed = 1, uses_anonymous_args = 0
 1937 0000 80B5     		push	{r7, lr}
 1938              	.LCFI97:
 1939              		.cfi_def_cfa_offset 8
 1940              		.cfi_offset 7, -8
 1941              		.cfi_offset 14, -4
 1942 0002 84B0     		sub	sp, sp, #16
 1943              	.LCFI98:
 1944              		.cfi_def_cfa_offset 24
 1945 0004 00AF     		add	r7, sp, #0
 1946              	.LCFI99:
 1947              		.cfi_def_cfa_register 7
 1948 0006 3A60     		str	r2, [r7]
 1949 0008 1A46     		mov	r2, r3
 1950 000a 0346     		mov	r3, r0
 1951 000c FB71     		strb	r3, [r7, #7]
 1952 000e 0B46     		mov	r3, r1
 1953 0010 BB71     		strb	r3, [r7, #6]
 1954 0012 1346     		mov	r3, r2
 1955 0014 7B71     		strb	r3, [r7, #5]
 573:./Hardware/hardware/oled.c **** 	uint8_t i;
 574:./Hardware/hardware/oled.c **** 	for (i = 0; String[i] != '\0'; i++)		//遍历字符串的每个字符
 1956              		.loc 1 574 9
 1957 0016 0023     		movs	r3, #0
 1958 0018 FB73     		strb	r3, [r7, #15]
 1959              		.loc 1 574 2
 1960 001a 12E0     		b	.L108
 1961              	.L109:
 575:./Hardware/hardware/oled.c **** 	{
 576:./Hardware/hardware/oled.c **** 		/*调用OLED_ShowChar函数，依次显示每个字符*/
 577:./Hardware/hardware/oled.c **** 		OLED_ShowChar(X + i * FontSize, Y, String[i], FontSize);
 1962              		.loc 1 577 23 discriminator 3
 1963 001c FB7B     		ldrb	r3, [r7, #15]
 1964 001e 7A79     		ldrb	r2, [r7, #5]
 1965 0020 02FB03F3 		mul	r3, r2, r3
 1966 0024 DAB2     		uxtb	r2, r3
 1967              		.loc 1 577 3 discriminator 3
 1968 0026 FB79     		ldrb	r3, [r7, #7]
 1969 0028 1344     		add	r3, r3, r2
 1970 002a D8B2     		uxtb	r0, r3
ARM GAS  C:\Users\86134\AppData\Local\Temp\ccyB0sod.s 			page 46


 1971              		.loc 1 577 44 discriminator 3
 1972 002c FB7B     		ldrb	r3, [r7, #15]	@ zero_extendqisi2
 1973 002e 3A68     		ldr	r2, [r7]
 1974 0030 1344     		add	r3, r3, r2
 1975              		.loc 1 577 3 discriminator 3
 1976 0032 1A78     		ldrb	r2, [r3]	@ zero_extendqisi2
 1977 0034 7B79     		ldrb	r3, [r7, #5]	@ zero_extendqisi2
 1978 0036 B979     		ldrb	r1, [r7, #6]	@ zero_extendqisi2
 1979 0038 FFF7FEFF 		bl	OLED_ShowChar
 574:./Hardware/hardware/oled.c **** 	{
 1980              		.loc 1 574 34 discriminator 3
 1981 003c FB7B     		ldrb	r3, [r7, #15]	@ zero_extendqisi2
 1982 003e 0133     		adds	r3, r3, #1
 1983 0040 FB73     		strb	r3, [r7, #15]
 1984              	.L108:
 574:./Hardware/hardware/oled.c **** 	{
 1985              		.loc 1 574 20 discriminator 1
 1986 0042 FB7B     		ldrb	r3, [r7, #15]	@ zero_extendqisi2
 1987 0044 3A68     		ldr	r2, [r7]
 1988 0046 1344     		add	r3, r3, r2
 1989 0048 1B78     		ldrb	r3, [r3]	@ zero_extendqisi2
 574:./Hardware/hardware/oled.c **** 	{
 1990              		.loc 1 574 2 discriminator 1
 1991 004a 002B     		cmp	r3, #0
 1992 004c E6D1     		bne	.L109
 578:./Hardware/hardware/oled.c **** 	}
 579:./Hardware/hardware/oled.c **** }
 1993              		.loc 1 579 1
 1994 004e 00BF     		nop
 1995 0050 00BF     		nop
 1996 0052 1037     		adds	r7, r7, #16
 1997              	.LCFI100:
 1998              		.cfi_def_cfa_offset 8
 1999 0054 BD46     		mov	sp, r7
 2000              	.LCFI101:
 2001              		.cfi_def_cfa_register 13
 2002              		@ sp needed
 2003 0056 80BD     		pop	{r7, pc}
 2004              		.cfi_endproc
 2005              	.LFE52:
 2007              		.section	.text.OLED_ShowNum,"ax",%progbits
 2008              		.align	1
 2009              		.global	OLED_ShowNum
 2010              		.syntax unified
 2011              		.thumb
 2012              		.thumb_func
 2013              		.fpu softvfp
 2015              	OLED_ShowNum:
 2016              	.LFB53:
 580:./Hardware/hardware/oled.c **** 
 581:./Hardware/hardware/oled.c **** /**
 582:./Hardware/hardware/oled.c ****   * 函    数：OLED显示数字（十进制，正整数）
 583:./Hardware/hardware/oled.c ****   * 参    数：X 指定数字左上角的横坐标，范围：0~127
 584:./Hardware/hardware/oled.c ****   * 参    数：Y 指定数字左上角的纵坐标，范围：0~63
 585:./Hardware/hardware/oled.c ****   * 参    数：Number 指定要显示的数字，范围：0~4294967295
 586:./Hardware/hardware/oled.c ****   * 参    数：Length 指定数字的长度，范围：0~10
 587:./Hardware/hardware/oled.c ****   * 参    数：FontSize 指定字体大小
ARM GAS  C:\Users\86134\AppData\Local\Temp\ccyB0sod.s 			page 47


 588:./Hardware/hardware/oled.c ****   *           范围：OLED_8X16		宽8像素，高16像素
 589:./Hardware/hardware/oled.c ****   *                 OLED_6X8		宽6像素，高8像素
 590:./Hardware/hardware/oled.c ****   * 返 回 值：无
 591:./Hardware/hardware/oled.c ****   * 说    明：调用此函数后，要想真正地呈现在屏幕上，还需调用更新函数
 592:./Hardware/hardware/oled.c ****   */
 593:./Hardware/hardware/oled.c **** void OLED_ShowNum(uint8_t X, uint8_t Y, uint32_t Number, uint8_t Length, uint8_t FontSize)
 594:./Hardware/hardware/oled.c **** {
 2017              		.loc 1 594 1
 2018              		.cfi_startproc
 2019              		@ args = 4, pretend = 0, frame = 16
 2020              		@ frame_needed = 1, uses_anonymous_args = 0
 2021 0000 90B5     		push	{r4, r7, lr}
 2022              	.LCFI102:
 2023              		.cfi_def_cfa_offset 12
 2024              		.cfi_offset 4, -12
 2025              		.cfi_offset 7, -8
 2026              		.cfi_offset 14, -4
 2027 0002 85B0     		sub	sp, sp, #20
 2028              	.LCFI103:
 2029              		.cfi_def_cfa_offset 32
 2030 0004 00AF     		add	r7, sp, #0
 2031              	.LCFI104:
 2032              		.cfi_def_cfa_register 7
 2033 0006 3A60     		str	r2, [r7]
 2034 0008 1A46     		mov	r2, r3
 2035 000a 0346     		mov	r3, r0
 2036 000c FB71     		strb	r3, [r7, #7]
 2037 000e 0B46     		mov	r3, r1
 2038 0010 BB71     		strb	r3, [r7, #6]
 2039 0012 1346     		mov	r3, r2
 2040 0014 7B71     		strb	r3, [r7, #5]
 595:./Hardware/hardware/oled.c **** 	uint8_t i;
 596:./Hardware/hardware/oled.c **** 	for (i = 0; i < Length; i++)		//遍历数字的每一位							
 2041              		.loc 1 596 9
 2042 0016 0023     		movs	r3, #0
 2043 0018 FB73     		strb	r3, [r7, #15]
 2044              		.loc 1 596 2
 2045 001a 29E0     		b	.L111
 2046              	.L112:
 597:./Hardware/hardware/oled.c **** 	{
 598:./Hardware/hardware/oled.c **** 		/*调用OLED_ShowChar函数，依次显示每个数字*/
 599:./Hardware/hardware/oled.c **** 		/*Number / OLED_Pow(10, Length - i - 1) % 10 可以十进制提取数字的每一位*/
 600:./Hardware/hardware/oled.c **** 		/*+ '0' 可将数字转换为字符格式*/
 601:./Hardware/hardware/oled.c **** 		OLED_ShowChar(X + i * FontSize, Y, Number / OLED_Pow(10, Length - i - 1) % 10 + '0', FontSize);
 2047              		.loc 1 601 23 discriminator 3
 2048 001c FB7B     		ldrb	r3, [r7, #15]
 2049 001e 97F82020 		ldrb	r2, [r7, #32]
 2050 0022 02FB03F3 		mul	r3, r2, r3
 2051 0026 DAB2     		uxtb	r2, r3
 2052              		.loc 1 601 3 discriminator 3
 2053 0028 FB79     		ldrb	r3, [r7, #7]
 2054 002a 1344     		add	r3, r3, r2
 2055 002c DCB2     		uxtb	r4, r3
 2056              		.loc 1 601 67 discriminator 3
 2057 002e 7A79     		ldrb	r2, [r7, #5]	@ zero_extendqisi2
 2058 0030 FB7B     		ldrb	r3, [r7, #15]	@ zero_extendqisi2
 2059 0032 D31A     		subs	r3, r2, r3
ARM GAS  C:\Users\86134\AppData\Local\Temp\ccyB0sod.s 			page 48


 2060              		.loc 1 601 71 discriminator 3
 2061 0034 013B     		subs	r3, r3, #1
 2062              		.loc 1 601 47 discriminator 3
 2063 0036 1946     		mov	r1, r3
 2064 0038 0A20     		movs	r0, #10
 2065 003a FFF7FEFF 		bl	OLED_Pow
 2066 003e 0246     		mov	r2, r0
 2067              		.loc 1 601 45 discriminator 3
 2068 0040 3B68     		ldr	r3, [r7]
 2069 0042 B3FBF2F1 		udiv	r1, r3, r2
 2070              		.loc 1 601 76 discriminator 3
 2071 0046 0F4B     		ldr	r3, .L113
 2072 0048 A3FB0123 		umull	r2, r3, r3, r1
 2073 004c DA08     		lsrs	r2, r3, #3
 2074 004e 1346     		mov	r3, r2
 2075 0050 9B00     		lsls	r3, r3, #2
 2076 0052 1344     		add	r3, r3, r2
 2077 0054 5B00     		lsls	r3, r3, #1
 2078 0056 CA1A     		subs	r2, r1, r3
 2079              		.loc 1 601 3 discriminator 3
 2080 0058 D3B2     		uxtb	r3, r2
 2081 005a 3033     		adds	r3, r3, #48
 2082 005c DAB2     		uxtb	r2, r3
 2083 005e 97F82030 		ldrb	r3, [r7, #32]	@ zero_extendqisi2
 2084 0062 B979     		ldrb	r1, [r7, #6]	@ zero_extendqisi2
 2085 0064 2046     		mov	r0, r4
 2086 0066 FFF7FEFF 		bl	OLED_ShowChar
 596:./Hardware/hardware/oled.c **** 	{
 2087              		.loc 1 596 27 discriminator 3
 2088 006a FB7B     		ldrb	r3, [r7, #15]	@ zero_extendqisi2
 2089 006c 0133     		adds	r3, r3, #1
 2090 006e FB73     		strb	r3, [r7, #15]
 2091              	.L111:
 596:./Hardware/hardware/oled.c **** 	{
 2092              		.loc 1 596 2 discriminator 1
 2093 0070 FA7B     		ldrb	r2, [r7, #15]	@ zero_extendqisi2
 2094 0072 7B79     		ldrb	r3, [r7, #5]	@ zero_extendqisi2
 2095 0074 9A42     		cmp	r2, r3
 2096 0076 D1D3     		bcc	.L112
 602:./Hardware/hardware/oled.c **** 	}
 603:./Hardware/hardware/oled.c **** }
 2097              		.loc 1 603 1
 2098 0078 00BF     		nop
 2099 007a 00BF     		nop
 2100 007c 1437     		adds	r7, r7, #20
 2101              	.LCFI105:
 2102              		.cfi_def_cfa_offset 12
 2103 007e BD46     		mov	sp, r7
 2104              	.LCFI106:
 2105              		.cfi_def_cfa_register 13
 2106              		@ sp needed
 2107 0080 90BD     		pop	{r4, r7, pc}
 2108              	.L114:
 2109 0082 00BF     		.align	2
 2110              	.L113:
 2111 0084 CDCCCCCC 		.word	-858993459
 2112              		.cfi_endproc
ARM GAS  C:\Users\86134\AppData\Local\Temp\ccyB0sod.s 			page 49


 2113              	.LFE53:
 2115              		.section	.text.OLED_ShowSignedNum,"ax",%progbits
 2116              		.align	1
 2117              		.global	OLED_ShowSignedNum
 2118              		.syntax unified
 2119              		.thumb
 2120              		.thumb_func
 2121              		.fpu softvfp
 2123              	OLED_ShowSignedNum:
 2124              	.LFB54:
 604:./Hardware/hardware/oled.c **** 
 605:./Hardware/hardware/oled.c **** /**
 606:./Hardware/hardware/oled.c ****   * 函    数：OLED显示有符号数字（十进制，整数）
 607:./Hardware/hardware/oled.c ****   * 参    数：X 指定数字左上角的横坐标，范围：0~127
 608:./Hardware/hardware/oled.c ****   * 参    数：Y 指定数字左上角的纵坐标，范围：0~63
 609:./Hardware/hardware/oled.c ****   * 参    数：Number 指定要显示的数字，范围：-2147483648~2147483647
 610:./Hardware/hardware/oled.c ****   * 参    数：Length 指定数字的长度，范围：0~10
 611:./Hardware/hardware/oled.c ****   * 参    数：FontSize 指定字体大小
 612:./Hardware/hardware/oled.c ****   *           范围：OLED_8X16		宽8像素，高16像素
 613:./Hardware/hardware/oled.c ****   *                 OLED_6X8		宽6像素，高8像素
 614:./Hardware/hardware/oled.c ****   * 返 回 值：无
 615:./Hardware/hardware/oled.c ****   * 说    明：调用此函数后，要想真正地呈现在屏幕上，还需调用更新函数
 616:./Hardware/hardware/oled.c ****   */
 617:./Hardware/hardware/oled.c **** void OLED_ShowSignedNum(uint8_t X, uint8_t Y, int32_t Number, uint8_t Length, uint8_t FontSize)
 618:./Hardware/hardware/oled.c **** {
 2125              		.loc 1 618 1
 2126              		.cfi_startproc
 2127              		@ args = 4, pretend = 0, frame = 16
 2128              		@ frame_needed = 1, uses_anonymous_args = 0
 2129 0000 90B5     		push	{r4, r7, lr}
 2130              	.LCFI107:
 2131              		.cfi_def_cfa_offset 12
 2132              		.cfi_offset 4, -12
 2133              		.cfi_offset 7, -8
 2134              		.cfi_offset 14, -4
 2135 0002 85B0     		sub	sp, sp, #20
 2136              	.LCFI108:
 2137              		.cfi_def_cfa_offset 32
 2138 0004 00AF     		add	r7, sp, #0
 2139              	.LCFI109:
 2140              		.cfi_def_cfa_register 7
 2141 0006 3A60     		str	r2, [r7]
 2142 0008 1A46     		mov	r2, r3
 2143 000a 0346     		mov	r3, r0
 2144 000c FB71     		strb	r3, [r7, #7]
 2145 000e 0B46     		mov	r3, r1
 2146 0010 BB71     		strb	r3, [r7, #6]
 2147 0012 1346     		mov	r3, r2
 2148 0014 7B71     		strb	r3, [r7, #5]
 619:./Hardware/hardware/oled.c **** 	uint8_t i;
 620:./Hardware/hardware/oled.c **** 	uint32_t Number1;
 621:./Hardware/hardware/oled.c **** 	
 622:./Hardware/hardware/oled.c **** 	if (Number >= 0)						//数字大于等于0
 2149              		.loc 1 622 5
 2150 0016 3B68     		ldr	r3, [r7]
 2151 0018 002B     		cmp	r3, #0
 2152 001a 09DB     		blt	.L116
ARM GAS  C:\Users\86134\AppData\Local\Temp\ccyB0sod.s 			page 50


 623:./Hardware/hardware/oled.c **** 	{
 624:./Hardware/hardware/oled.c **** 		OLED_ShowChar(X, Y, '+', FontSize);	//显示+号
 2153              		.loc 1 624 3
 2154 001c 97F82030 		ldrb	r3, [r7, #32]	@ zero_extendqisi2
 2155 0020 B979     		ldrb	r1, [r7, #6]	@ zero_extendqisi2
 2156 0022 F879     		ldrb	r0, [r7, #7]	@ zero_extendqisi2
 2157 0024 2B22     		movs	r2, #43
 2158 0026 FFF7FEFF 		bl	OLED_ShowChar
 625:./Hardware/hardware/oled.c **** 		Number1 = Number;					//Number1直接等于Number
 2159              		.loc 1 625 11
 2160 002a 3B68     		ldr	r3, [r7]
 2161 002c BB60     		str	r3, [r7, #8]
 2162 002e 09E0     		b	.L117
 2163              	.L116:
 626:./Hardware/hardware/oled.c **** 	}
 627:./Hardware/hardware/oled.c **** 	else									//数字小于0
 628:./Hardware/hardware/oled.c **** 	{
 629:./Hardware/hardware/oled.c **** 		OLED_ShowChar(X, Y, '-', FontSize);	//显示-号
 2164              		.loc 1 629 3
 2165 0030 97F82030 		ldrb	r3, [r7, #32]	@ zero_extendqisi2
 2166 0034 B979     		ldrb	r1, [r7, #6]	@ zero_extendqisi2
 2167 0036 F879     		ldrb	r0, [r7, #7]	@ zero_extendqisi2
 2168 0038 2D22     		movs	r2, #45
 2169 003a FFF7FEFF 		bl	OLED_ShowChar
 630:./Hardware/hardware/oled.c **** 		Number1 = -Number;					//Number1等于Number取负
 2170              		.loc 1 630 13
 2171 003e 3B68     		ldr	r3, [r7]
 2172 0040 5B42     		rsbs	r3, r3, #0
 2173              		.loc 1 630 11
 2174 0042 BB60     		str	r3, [r7, #8]
 2175              	.L117:
 631:./Hardware/hardware/oled.c **** 	}
 632:./Hardware/hardware/oled.c **** 	
 633:./Hardware/hardware/oled.c **** 	for (i = 0; i < Length; i++)			//遍历数字的每一位								
 2176              		.loc 1 633 9
 2177 0044 0023     		movs	r3, #0
 2178 0046 FB73     		strb	r3, [r7, #15]
 2179              		.loc 1 633 2
 2180 0048 2BE0     		b	.L118
 2181              	.L119:
 634:./Hardware/hardware/oled.c **** 	{
 635:./Hardware/hardware/oled.c **** 		/*调用OLED_ShowChar函数，依次显示每个数字*/
 636:./Hardware/hardware/oled.c **** 		/*Number1 / OLED_Pow(10, Length - i - 1) % 10 可以十进制提取数字的每一位*/
 637:./Hardware/hardware/oled.c **** 		/*+ '0' 可将数字转换为字符格式*/
 638:./Hardware/hardware/oled.c **** 		OLED_ShowChar(X + (i + 1) * FontSize, Y, Number1 / OLED_Pow(10, Length - i - 1) % 10 + '0', FontS
 2182              		.loc 1 638 3 discriminator 3
 2183 004a FB7B     		ldrb	r3, [r7, #15]
 2184 004c 0133     		adds	r3, r3, #1
 2185 004e DBB2     		uxtb	r3, r3
 2186 0050 97F82020 		ldrb	r2, [r7, #32]
 2187 0054 02FB03F3 		mul	r3, r2, r3
 2188 0058 DAB2     		uxtb	r2, r3
 2189 005a FB79     		ldrb	r3, [r7, #7]
 2190 005c 1344     		add	r3, r3, r2
 2191 005e DCB2     		uxtb	r4, r3
 2192              		.loc 1 638 74 discriminator 3
 2193 0060 7A79     		ldrb	r2, [r7, #5]	@ zero_extendqisi2
ARM GAS  C:\Users\86134\AppData\Local\Temp\ccyB0sod.s 			page 51


 2194 0062 FB7B     		ldrb	r3, [r7, #15]	@ zero_extendqisi2
 2195 0064 D31A     		subs	r3, r2, r3
 2196              		.loc 1 638 78 discriminator 3
 2197 0066 013B     		subs	r3, r3, #1
 2198              		.loc 1 638 54 discriminator 3
 2199 0068 1946     		mov	r1, r3
 2200 006a 0A20     		movs	r0, #10
 2201 006c FFF7FEFF 		bl	OLED_Pow
 2202 0070 0246     		mov	r2, r0
 2203              		.loc 1 638 52 discriminator 3
 2204 0072 BB68     		ldr	r3, [r7, #8]
 2205 0074 B3FBF2F1 		udiv	r1, r3, r2
 2206              		.loc 1 638 83 discriminator 3
 2207 0078 0E4B     		ldr	r3, .L120
 2208 007a A3FB0123 		umull	r2, r3, r3, r1
 2209 007e DA08     		lsrs	r2, r3, #3
 2210 0080 1346     		mov	r3, r2
 2211 0082 9B00     		lsls	r3, r3, #2
 2212 0084 1344     		add	r3, r3, r2
 2213 0086 5B00     		lsls	r3, r3, #1
 2214 0088 CA1A     		subs	r2, r1, r3
 2215              		.loc 1 638 3 discriminator 3
 2216 008a D3B2     		uxtb	r3, r2
 2217 008c 3033     		adds	r3, r3, #48
 2218 008e DAB2     		uxtb	r2, r3
 2219 0090 97F82030 		ldrb	r3, [r7, #32]	@ zero_extendqisi2
 2220 0094 B979     		ldrb	r1, [r7, #6]	@ zero_extendqisi2
 2221 0096 2046     		mov	r0, r4
 2222 0098 FFF7FEFF 		bl	OLED_ShowChar
 633:./Hardware/hardware/oled.c **** 	{
 2223              		.loc 1 633 27 discriminator 3
 2224 009c FB7B     		ldrb	r3, [r7, #15]	@ zero_extendqisi2
 2225 009e 0133     		adds	r3, r3, #1
 2226 00a0 FB73     		strb	r3, [r7, #15]
 2227              	.L118:
 633:./Hardware/hardware/oled.c **** 	{
 2228              		.loc 1 633 2 discriminator 1
 2229 00a2 FA7B     		ldrb	r2, [r7, #15]	@ zero_extendqisi2
 2230 00a4 7B79     		ldrb	r3, [r7, #5]	@ zero_extendqisi2
 2231 00a6 9A42     		cmp	r2, r3
 2232 00a8 CFD3     		bcc	.L119
 639:./Hardware/hardware/oled.c **** 	}
 640:./Hardware/hardware/oled.c **** }
 2233              		.loc 1 640 1
 2234 00aa 00BF     		nop
 2235 00ac 00BF     		nop
 2236 00ae 1437     		adds	r7, r7, #20
 2237              	.LCFI110:
 2238              		.cfi_def_cfa_offset 12
 2239 00b0 BD46     		mov	sp, r7
 2240              	.LCFI111:
 2241              		.cfi_def_cfa_register 13
 2242              		@ sp needed
 2243 00b2 90BD     		pop	{r4, r7, pc}
 2244              	.L121:
 2245              		.align	2
 2246              	.L120:
ARM GAS  C:\Users\86134\AppData\Local\Temp\ccyB0sod.s 			page 52


 2247 00b4 CDCCCCCC 		.word	-858993459
 2248              		.cfi_endproc
 2249              	.LFE54:
 2251              		.section	.text.OLED_ShowHexNum,"ax",%progbits
 2252              		.align	1
 2253              		.global	OLED_ShowHexNum
 2254              		.syntax unified
 2255              		.thumb
 2256              		.thumb_func
 2257              		.fpu softvfp
 2259              	OLED_ShowHexNum:
 2260              	.LFB55:
 641:./Hardware/hardware/oled.c **** 
 642:./Hardware/hardware/oled.c **** /**
 643:./Hardware/hardware/oled.c ****   * 函    数：OLED显示十六进制数字（十六进制，正整数）
 644:./Hardware/hardware/oled.c ****   * 参    数：X 指定数字左上角的横坐标，范围：0~127
 645:./Hardware/hardware/oled.c ****   * 参    数：Y 指定数字左上角的纵坐标，范围：0~63
 646:./Hardware/hardware/oled.c ****   * 参    数：Number 指定要显示的数字，范围：0x00000000~0xFFFFFFFF
 647:./Hardware/hardware/oled.c ****   * 参    数：Length 指定数字的长度，范围：0~8
 648:./Hardware/hardware/oled.c ****   * 参    数：FontSize 指定字体大小
 649:./Hardware/hardware/oled.c ****   *           范围：OLED_8X16		宽8像素，高16像素
 650:./Hardware/hardware/oled.c ****   *                 OLED_6X8		宽6像素，高8像素
 651:./Hardware/hardware/oled.c ****   * 返 回 值：无
 652:./Hardware/hardware/oled.c ****   * 说    明：调用此函数后，要想真正地呈现在屏幕上，还需调用更新函数
 653:./Hardware/hardware/oled.c ****   */
 654:./Hardware/hardware/oled.c **** void OLED_ShowHexNum(uint8_t X, uint8_t Y, uint32_t Number, uint8_t Length, uint8_t FontSize)
 655:./Hardware/hardware/oled.c **** {
 2261              		.loc 1 655 1
 2262              		.cfi_startproc
 2263              		@ args = 4, pretend = 0, frame = 16
 2264              		@ frame_needed = 1, uses_anonymous_args = 0
 2265 0000 80B5     		push	{r7, lr}
 2266              	.LCFI112:
 2267              		.cfi_def_cfa_offset 8
 2268              		.cfi_offset 7, -8
 2269              		.cfi_offset 14, -4
 2270 0002 84B0     		sub	sp, sp, #16
 2271              	.LCFI113:
 2272              		.cfi_def_cfa_offset 24
 2273 0004 00AF     		add	r7, sp, #0
 2274              	.LCFI114:
 2275              		.cfi_def_cfa_register 7
 2276 0006 3A60     		str	r2, [r7]
 2277 0008 1A46     		mov	r2, r3
 2278 000a 0346     		mov	r3, r0
 2279 000c FB71     		strb	r3, [r7, #7]
 2280 000e 0B46     		mov	r3, r1
 2281 0010 BB71     		strb	r3, [r7, #6]
 2282 0012 1346     		mov	r3, r2
 2283 0014 7B71     		strb	r3, [r7, #5]
 656:./Hardware/hardware/oled.c **** 	uint8_t i, SingleNumber;
 657:./Hardware/hardware/oled.c **** 	for (i = 0; i < Length; i++)		//遍历数字的每一位
 2284              		.loc 1 657 9
 2285 0016 0023     		movs	r3, #0
 2286 0018 FB73     		strb	r3, [r7, #15]
 2287              		.loc 1 657 2
 2288 001a 34E0     		b	.L123
ARM GAS  C:\Users\86134\AppData\Local\Temp\ccyB0sod.s 			page 53


 2289              	.L126:
 658:./Hardware/hardware/oled.c **** 	{
 659:./Hardware/hardware/oled.c **** 		/*以十六进制提取数字的每一位*/
 660:./Hardware/hardware/oled.c **** 		SingleNumber = Number / OLED_Pow(16, Length - i - 1) % 16;
 2290              		.loc 1 660 47
 2291 001c 7A79     		ldrb	r2, [r7, #5]	@ zero_extendqisi2
 2292 001e FB7B     		ldrb	r3, [r7, #15]	@ zero_extendqisi2
 2293 0020 D31A     		subs	r3, r2, r3
 2294              		.loc 1 660 51
 2295 0022 013B     		subs	r3, r3, #1
 2296              		.loc 1 660 27
 2297 0024 1946     		mov	r1, r3
 2298 0026 1020     		movs	r0, #16
 2299 0028 FFF7FEFF 		bl	OLED_Pow
 2300 002c 0246     		mov	r2, r0
 2301              		.loc 1 660 25
 2302 002e 3B68     		ldr	r3, [r7]
 2303 0030 B3FBF2F3 		udiv	r3, r3, r2
 2304              		.loc 1 660 56
 2305 0034 DBB2     		uxtb	r3, r3
 2306              		.loc 1 660 16
 2307 0036 03F00F03 		and	r3, r3, #15
 2308 003a BB73     		strb	r3, [r7, #14]
 661:./Hardware/hardware/oled.c **** 		
 662:./Hardware/hardware/oled.c **** 		if (SingleNumber < 10)			//单个数字小于10
 2309              		.loc 1 662 6
 2310 003c BB7B     		ldrb	r3, [r7, #14]	@ zero_extendqisi2
 2311 003e 092B     		cmp	r3, #9
 2312 0040 0FD8     		bhi	.L124
 663:./Hardware/hardware/oled.c **** 		{
 664:./Hardware/hardware/oled.c **** 			/*调用OLED_ShowChar函数，显示此数字*/
 665:./Hardware/hardware/oled.c **** 			/*+ '0' 可将数字转换为字符格式*/
 666:./Hardware/hardware/oled.c **** 			OLED_ShowChar(X + i * FontSize, Y, SingleNumber + '0', FontSize);
 2313              		.loc 1 666 24
 2314 0042 FB7B     		ldrb	r3, [r7, #15]
 2315 0044 3A7E     		ldrb	r2, [r7, #24]
 2316 0046 02FB03F3 		mul	r3, r2, r3
 2317 004a DAB2     		uxtb	r2, r3
 2318              		.loc 1 666 4
 2319 004c FB79     		ldrb	r3, [r7, #7]
 2320 004e 1344     		add	r3, r3, r2
 2321 0050 D8B2     		uxtb	r0, r3
 2322 0052 BB7B     		ldrb	r3, [r7, #14]
 2323 0054 3033     		adds	r3, r3, #48
 2324 0056 DAB2     		uxtb	r2, r3
 2325 0058 3B7E     		ldrb	r3, [r7, #24]	@ zero_extendqisi2
 2326 005a B979     		ldrb	r1, [r7, #6]	@ zero_extendqisi2
 2327 005c FFF7FEFF 		bl	OLED_ShowChar
 2328 0060 0EE0     		b	.L125
 2329              	.L124:
 667:./Hardware/hardware/oled.c **** 		}
 668:./Hardware/hardware/oled.c **** 		else							//单个数字大于10
 669:./Hardware/hardware/oled.c **** 		{
 670:./Hardware/hardware/oled.c **** 			/*调用OLED_ShowChar函数，显示此数字*/
 671:./Hardware/hardware/oled.c **** 			/*+ 'A' 可将数字转换为从A开始的十六进制字符*/
 672:./Hardware/hardware/oled.c **** 			OLED_ShowChar(X + i * FontSize, Y, SingleNumber - 10 + 'A', FontSize);
 2330              		.loc 1 672 24
ARM GAS  C:\Users\86134\AppData\Local\Temp\ccyB0sod.s 			page 54


 2331 0062 FB7B     		ldrb	r3, [r7, #15]
 2332 0064 3A7E     		ldrb	r2, [r7, #24]
 2333 0066 02FB03F3 		mul	r3, r2, r3
 2334 006a DAB2     		uxtb	r2, r3
 2335              		.loc 1 672 4
 2336 006c FB79     		ldrb	r3, [r7, #7]
 2337 006e 1344     		add	r3, r3, r2
 2338 0070 D8B2     		uxtb	r0, r3
 2339 0072 BB7B     		ldrb	r3, [r7, #14]
 2340 0074 3733     		adds	r3, r3, #55
 2341 0076 DAB2     		uxtb	r2, r3
 2342 0078 3B7E     		ldrb	r3, [r7, #24]	@ zero_extendqisi2
 2343 007a B979     		ldrb	r1, [r7, #6]	@ zero_extendqisi2
 2344 007c FFF7FEFF 		bl	OLED_ShowChar
 2345              	.L125:
 657:./Hardware/hardware/oled.c **** 	{
 2346              		.loc 1 657 27 discriminator 2
 2347 0080 FB7B     		ldrb	r3, [r7, #15]	@ zero_extendqisi2
 2348 0082 0133     		adds	r3, r3, #1
 2349 0084 FB73     		strb	r3, [r7, #15]
 2350              	.L123:
 657:./Hardware/hardware/oled.c **** 	{
 2351              		.loc 1 657 2 discriminator 1
 2352 0086 FA7B     		ldrb	r2, [r7, #15]	@ zero_extendqisi2
 2353 0088 7B79     		ldrb	r3, [r7, #5]	@ zero_extendqisi2
 2354 008a 9A42     		cmp	r2, r3
 2355 008c C6D3     		bcc	.L126
 673:./Hardware/hardware/oled.c **** 		}
 674:./Hardware/hardware/oled.c **** 	}
 675:./Hardware/hardware/oled.c **** }
 2356              		.loc 1 675 1
 2357 008e 00BF     		nop
 2358 0090 00BF     		nop
 2359 0092 1037     		adds	r7, r7, #16
 2360              	.LCFI115:
 2361              		.cfi_def_cfa_offset 8
 2362 0094 BD46     		mov	sp, r7
 2363              	.LCFI116:
 2364              		.cfi_def_cfa_register 13
 2365              		@ sp needed
 2366 0096 80BD     		pop	{r7, pc}
 2367              		.cfi_endproc
 2368              	.LFE55:
 2370              		.section	.text.OLED_ShowBinNum,"ax",%progbits
 2371              		.align	1
 2372              		.global	OLED_ShowBinNum
 2373              		.syntax unified
 2374              		.thumb
 2375              		.thumb_func
 2376              		.fpu softvfp
 2378              	OLED_ShowBinNum:
 2379              	.LFB56:
 676:./Hardware/hardware/oled.c **** 
 677:./Hardware/hardware/oled.c **** /**
 678:./Hardware/hardware/oled.c ****   * 函    数：OLED显示二进制数字（二进制，正整数）
 679:./Hardware/hardware/oled.c ****   * 参    数：X 指定数字左上角的横坐标，范围：0~127
 680:./Hardware/hardware/oled.c ****   * 参    数：Y 指定数字左上角的纵坐标，范围：0~63
ARM GAS  C:\Users\86134\AppData\Local\Temp\ccyB0sod.s 			page 55


 681:./Hardware/hardware/oled.c ****   * 参    数：Number 指定要显示的数字，范围：0x00000000~0xFFFFFFFF
 682:./Hardware/hardware/oled.c ****   * 参    数：Length 指定数字的长度，范围：0~16
 683:./Hardware/hardware/oled.c ****   * 参    数：FontSize 指定字体大小
 684:./Hardware/hardware/oled.c ****   *           范围：OLED_8X16		宽8像素，高16像素
 685:./Hardware/hardware/oled.c ****   *                 OLED_6X8		宽6像素，高8像素
 686:./Hardware/hardware/oled.c ****   * 返 回 值：无
 687:./Hardware/hardware/oled.c ****   * 说    明：调用此函数后，要想真正地呈现在屏幕上，还需调用更新函数
 688:./Hardware/hardware/oled.c ****   */
 689:./Hardware/hardware/oled.c **** void OLED_ShowBinNum(uint8_t X, uint8_t Y, uint32_t Number, uint8_t Length, uint8_t FontSize)
 690:./Hardware/hardware/oled.c **** {
 2380              		.loc 1 690 1
 2381              		.cfi_startproc
 2382              		@ args = 4, pretend = 0, frame = 16
 2383              		@ frame_needed = 1, uses_anonymous_args = 0
 2384 0000 90B5     		push	{r4, r7, lr}
 2385              	.LCFI117:
 2386              		.cfi_def_cfa_offset 12
 2387              		.cfi_offset 4, -12
 2388              		.cfi_offset 7, -8
 2389              		.cfi_offset 14, -4
 2390 0002 85B0     		sub	sp, sp, #20
 2391              	.LCFI118:
 2392              		.cfi_def_cfa_offset 32
 2393 0004 00AF     		add	r7, sp, #0
 2394              	.LCFI119:
 2395              		.cfi_def_cfa_register 7
 2396 0006 3A60     		str	r2, [r7]
 2397 0008 1A46     		mov	r2, r3
 2398 000a 0346     		mov	r3, r0
 2399 000c FB71     		strb	r3, [r7, #7]
 2400 000e 0B46     		mov	r3, r1
 2401 0010 BB71     		strb	r3, [r7, #6]
 2402 0012 1346     		mov	r3, r2
 2403 0014 7B71     		strb	r3, [r7, #5]
 691:./Hardware/hardware/oled.c **** 	uint8_t i;
 692:./Hardware/hardware/oled.c **** 	for (i = 0; i < Length; i++)		//遍历数字的每一位	
 2404              		.loc 1 692 9
 2405 0016 0023     		movs	r3, #0
 2406 0018 FB73     		strb	r3, [r7, #15]
 2407              		.loc 1 692 2
 2408 001a 23E0     		b	.L128
 2409              	.L129:
 693:./Hardware/hardware/oled.c **** 	{
 694:./Hardware/hardware/oled.c **** 		/*调用OLED_ShowChar函数，依次显示每个数字*/
 695:./Hardware/hardware/oled.c **** 		/*Number / OLED_Pow(2, Length - i - 1) % 2 可以二进制提取数字的每一位*/
 696:./Hardware/hardware/oled.c **** 		/*+ '0' 可将数字转换为字符格式*/
 697:./Hardware/hardware/oled.c **** 		OLED_ShowChar(X + i * FontSize, Y, Number / OLED_Pow(2, Length - i - 1) % 2 + '0', FontSize);
 2410              		.loc 1 697 23 discriminator 3
 2411 001c FB7B     		ldrb	r3, [r7, #15]
 2412 001e 97F82020 		ldrb	r2, [r7, #32]
 2413 0022 02FB03F3 		mul	r3, r2, r3
 2414 0026 DAB2     		uxtb	r2, r3
 2415              		.loc 1 697 3 discriminator 3
 2416 0028 FB79     		ldrb	r3, [r7, #7]
 2417 002a 1344     		add	r3, r3, r2
 2418 002c DCB2     		uxtb	r4, r3
 2419              		.loc 1 697 66 discriminator 3
ARM GAS  C:\Users\86134\AppData\Local\Temp\ccyB0sod.s 			page 56


 2420 002e 7A79     		ldrb	r2, [r7, #5]	@ zero_extendqisi2
 2421 0030 FB7B     		ldrb	r3, [r7, #15]	@ zero_extendqisi2
 2422 0032 D31A     		subs	r3, r2, r3
 2423              		.loc 1 697 70 discriminator 3
 2424 0034 013B     		subs	r3, r3, #1
 2425              		.loc 1 697 47 discriminator 3
 2426 0036 1946     		mov	r1, r3
 2427 0038 0220     		movs	r0, #2
 2428 003a FFF7FEFF 		bl	OLED_Pow
 2429 003e 0246     		mov	r2, r0
 2430              		.loc 1 697 45 discriminator 3
 2431 0040 3B68     		ldr	r3, [r7]
 2432 0042 B3FBF2F3 		udiv	r3, r3, r2
 2433              		.loc 1 697 75 discriminator 3
 2434 0046 DBB2     		uxtb	r3, r3
 2435 0048 03F00103 		and	r3, r3, #1
 2436 004c DBB2     		uxtb	r3, r3
 2437              		.loc 1 697 3 discriminator 3
 2438 004e 3033     		adds	r3, r3, #48
 2439 0050 DAB2     		uxtb	r2, r3
 2440 0052 97F82030 		ldrb	r3, [r7, #32]	@ zero_extendqisi2
 2441 0056 B979     		ldrb	r1, [r7, #6]	@ zero_extendqisi2
 2442 0058 2046     		mov	r0, r4
 2443 005a FFF7FEFF 		bl	OLED_ShowChar
 692:./Hardware/hardware/oled.c **** 	{
 2444              		.loc 1 692 27 discriminator 3
 2445 005e FB7B     		ldrb	r3, [r7, #15]	@ zero_extendqisi2
 2446 0060 0133     		adds	r3, r3, #1
 2447 0062 FB73     		strb	r3, [r7, #15]
 2448              	.L128:
 692:./Hardware/hardware/oled.c **** 	{
 2449              		.loc 1 692 2 discriminator 1
 2450 0064 FA7B     		ldrb	r2, [r7, #15]	@ zero_extendqisi2
 2451 0066 7B79     		ldrb	r3, [r7, #5]	@ zero_extendqisi2
 2452 0068 9A42     		cmp	r2, r3
 2453 006a D7D3     		bcc	.L129
 698:./Hardware/hardware/oled.c **** 	}
 699:./Hardware/hardware/oled.c **** }
 2454              		.loc 1 699 1
 2455 006c 00BF     		nop
 2456 006e 00BF     		nop
 2457 0070 1437     		adds	r7, r7, #20
 2458              	.LCFI120:
 2459              		.cfi_def_cfa_offset 12
 2460 0072 BD46     		mov	sp, r7
 2461              	.LCFI121:
 2462              		.cfi_def_cfa_register 13
 2463              		@ sp needed
 2464 0074 90BD     		pop	{r4, r7, pc}
 2465              		.cfi_endproc
 2466              	.LFE56:
 2468              		.global	__aeabi_dcmpge
 2469              		.global	__aeabi_d2uiz
 2470              		.global	__aeabi_ui2d
 2471              		.global	__aeabi_dsub
 2472              		.section	.text.OLED_ShowFloatNum,"ax",%progbits
 2473              		.align	1
ARM GAS  C:\Users\86134\AppData\Local\Temp\ccyB0sod.s 			page 57


 2474              		.global	OLED_ShowFloatNum
 2475              		.syntax unified
 2476              		.thumb
 2477              		.thumb_func
 2478              		.fpu softvfp
 2480              	OLED_ShowFloatNum:
 2481              	.LFB57:
 700:./Hardware/hardware/oled.c **** 
 701:./Hardware/hardware/oled.c **** /**
 702:./Hardware/hardware/oled.c ****   * 函    数：OLED显示浮点数字（十进制，小数）
 703:./Hardware/hardware/oled.c ****   * 参    数：X 指定数字左上角的横坐标，范围：0~127
 704:./Hardware/hardware/oled.c ****   * 参    数：Y 指定数字左上角的纵坐标，范围：0~63
 705:./Hardware/hardware/oled.c ****   * 参    数：Number 指定要显示的数字，范围：-4294967295.0~4294967295.0
 706:./Hardware/hardware/oled.c ****   * 参    数：IntLength 指定数字的整数位长度，范围：0~10
 707:./Hardware/hardware/oled.c ****   * 参    数：FraLength 指定数字的小数位长度，范围：0~9，小数进行四舍五入显示
 708:./Hardware/hardware/oled.c ****   * 参    数：FontSize 指定字体大小
 709:./Hardware/hardware/oled.c ****   *           范围：OLED_8X16		宽8像素，高16像素
 710:./Hardware/hardware/oled.c ****   *                 OLED_6X8		宽6像素，高8像素
 711:./Hardware/hardware/oled.c ****   * 返 回 值：无
 712:./Hardware/hardware/oled.c ****   * 说    明：调用此函数后，要想真正地呈现在屏幕上，还需调用更新函数
 713:./Hardware/hardware/oled.c ****   */
 714:./Hardware/hardware/oled.c **** void OLED_ShowFloatNum(uint8_t X, uint8_t Y, double Number, uint8_t IntLength, uint8_t FraLength, u
 715:./Hardware/hardware/oled.c **** {
 2482              		.loc 1 715 1
 2483              		.cfi_startproc
 2484              		@ args = 12, pretend = 0, frame = 32
 2485              		@ frame_needed = 1, uses_anonymous_args = 0
 2486 0000 B0B5     		push	{r4, r5, r7, lr}
 2487              	.LCFI122:
 2488              		.cfi_def_cfa_offset 16
 2489              		.cfi_offset 4, -16
 2490              		.cfi_offset 5, -12
 2491              		.cfi_offset 7, -8
 2492              		.cfi_offset 14, -4
 2493 0002 8AB0     		sub	sp, sp, #40
 2494              	.LCFI123:
 2495              		.cfi_def_cfa_offset 56
 2496 0004 02AF     		add	r7, sp, #8
 2497              	.LCFI124:
 2498              		.cfi_def_cfa 7, 48
 2499 0006 C7E90023 		strd	r2, [r7]
 2500 000a 0346     		mov	r3, r0
 2501 000c FB73     		strb	r3, [r7, #15]
 2502 000e 0B46     		mov	r3, r1
 2503 0010 BB73     		strb	r3, [r7, #14]
 716:./Hardware/hardware/oled.c **** 	uint32_t PowNum, IntNum, FraNum;
 717:./Hardware/hardware/oled.c **** 	
 718:./Hardware/hardware/oled.c **** 	if (Number >= 0)						//数字大于等于0
 2504              		.loc 1 718 5
 2505 0012 4FF00002 		mov	r2, #0
 2506 0016 4FF00003 		mov	r3, #0
 2507 001a D7E90001 		ldrd	r0, [r7]
 2508 001e FFF7FEFF 		bl	__aeabi_dcmpge
 2509 0022 0346     		mov	r3, r0
 2510 0024 002B     		cmp	r3, #0
 2511 0026 05D1     		bne	.L131
 719:./Hardware/hardware/oled.c **** 	{
ARM GAS  C:\Users\86134\AppData\Local\Temp\ccyB0sod.s 			page 58


 720:./Hardware/hardware/oled.c **** //		OLED_ShowChar(X, Y, '+', FontSize);	//显示+号
 721:./Hardware/hardware/oled.c **** 	}
 722:./Hardware/hardware/oled.c **** 	else									//数字小于0
 723:./Hardware/hardware/oled.c **** 	{
 724:./Hardware/hardware/oled.c **** //		OLED_ShowChar(X, Y, '-', FontSize);	//显示-号
 725:./Hardware/hardware/oled.c **** 		Number = -Number;					//Number取负
 2512              		.loc 1 725 10
 2513 0028 3C68     		ldr	r4, [r7]
 2514 002a 7B68     		ldr	r3, [r7, #4]
 2515 002c 83F00045 		eor	r5, r3, #-2147483648
 2516 0030 C7E90045 		strd	r4, [r7]
 2517              	.L131:
 726:./Hardware/hardware/oled.c **** 	}
 727:./Hardware/hardware/oled.c **** 	
 728:./Hardware/hardware/oled.c **** 	/*提取整数部分和小数部分*/
 729:./Hardware/hardware/oled.c **** 	IntNum = Number;						//直接赋值给整型变量，提取整数
 2518              		.loc 1 729 9
 2519 0034 D7E90001 		ldrd	r0, [r7]
 2520 0038 FFF7FEFF 		bl	__aeabi_d2uiz
 2521 003c 0346     		mov	r3, r0
 2522 003e FB61     		str	r3, [r7, #28]
 730:./Hardware/hardware/oled.c **** 	Number -= IntNum;						//将Number的整数减掉，防止之后将小数乘到整数时因数过大造成错误
 2523              		.loc 1 730 9
 2524 0040 F869     		ldr	r0, [r7, #28]
 2525 0042 FFF7FEFF 		bl	__aeabi_ui2d
 2526 0046 0246     		mov	r2, r0
 2527 0048 0B46     		mov	r3, r1
 2528 004a D7E90001 		ldrd	r0, [r7]
 2529 004e FFF7FEFF 		bl	__aeabi_dsub
 2530 0052 0246     		mov	r2, r0
 2531 0054 0B46     		mov	r3, r1
 2532 0056 C7E90023 		strd	r2, [r7]
 731:./Hardware/hardware/oled.c **** 	PowNum = OLED_Pow(10, FraLength);		//根据指定小数的位数，确定乘数
 2533              		.loc 1 731 11
 2534 005a 97F83430 		ldrb	r3, [r7, #52]	@ zero_extendqisi2
 2535 005e 1946     		mov	r1, r3
 2536 0060 0A20     		movs	r0, #10
 2537 0062 FFF7FEFF 		bl	OLED_Pow
 2538 0066 B861     		str	r0, [r7, #24]
 732:./Hardware/hardware/oled.c **** 	FraNum = round(Number * PowNum);		//将小数乘到整数，同时四舍五入，避免显示误差
 2539              		.loc 1 732 11
 2540 0068 B869     		ldr	r0, [r7, #24]
 2541 006a FFF7FEFF 		bl	__aeabi_ui2d
 2542 006e D7E90023 		ldrd	r2, [r7]
 2543 0072 FFF7FEFF 		bl	__aeabi_dmul
 2544 0076 0246     		mov	r2, r0
 2545 0078 0B46     		mov	r3, r1
 2546 007a 1046     		mov	r0, r2
 2547 007c 1946     		mov	r1, r3
 2548 007e FFF7FEFF 		bl	round
 2549 0082 0246     		mov	r2, r0
 2550 0084 0B46     		mov	r3, r1
 2551              		.loc 1 732 9
 2552 0086 1046     		mov	r0, r2
 2553 0088 1946     		mov	r1, r3
 2554 008a FFF7FEFF 		bl	__aeabi_d2uiz
 2555 008e 0346     		mov	r3, r0
ARM GAS  C:\Users\86134\AppData\Local\Temp\ccyB0sod.s 			page 59


 2556 0090 7B61     		str	r3, [r7, #20]
 733:./Hardware/hardware/oled.c **** 	IntNum += FraNum / PowNum;				//若四舍五入造成了进位，则需要再加给整数
 2557              		.loc 1 733 19
 2558 0092 7A69     		ldr	r2, [r7, #20]
 2559 0094 BB69     		ldr	r3, [r7, #24]
 2560 0096 B2FBF3F3 		udiv	r3, r2, r3
 2561              		.loc 1 733 9
 2562 009a FA69     		ldr	r2, [r7, #28]
 2563 009c 1344     		add	r3, r3, r2
 2564 009e FB61     		str	r3, [r7, #28]
 734:./Hardware/hardware/oled.c **** 	
 735:./Hardware/hardware/oled.c **** 	/*显示整数部分*/
 736:./Hardware/hardware/oled.c **** 	OLED_ShowNum(X + FontSize, Y, IntNum, IntLength, FontSize);
 2565              		.loc 1 736 2
 2566 00a0 FA7B     		ldrb	r2, [r7, #15]
 2567 00a2 97F83830 		ldrb	r3, [r7, #56]
 2568 00a6 1344     		add	r3, r3, r2
 2569 00a8 D8B2     		uxtb	r0, r3
 2570 00aa 97F83020 		ldrb	r2, [r7, #48]	@ zero_extendqisi2
 2571 00ae B97B     		ldrb	r1, [r7, #14]	@ zero_extendqisi2
 2572 00b0 97F83830 		ldrb	r3, [r7, #56]	@ zero_extendqisi2
 2573 00b4 0093     		str	r3, [sp]
 2574 00b6 1346     		mov	r3, r2
 2575 00b8 FA69     		ldr	r2, [r7, #28]
 2576 00ba FFF7FEFF 		bl	OLED_ShowNum
 737:./Hardware/hardware/oled.c **** 	
 738:./Hardware/hardware/oled.c **** 	/*显示小数点*/
 739:./Hardware/hardware/oled.c **** 	OLED_ShowChar(X + (IntLength + 1) * FontSize, Y, '.', FontSize);
 2577              		.loc 1 739 2
 2578 00be 97F83030 		ldrb	r3, [r7, #48]
 2579 00c2 0133     		adds	r3, r3, #1
 2580 00c4 DBB2     		uxtb	r3, r3
 2581 00c6 97F83820 		ldrb	r2, [r7, #56]
 2582 00ca 02FB03F3 		mul	r3, r2, r3
 2583 00ce DAB2     		uxtb	r2, r3
 2584 00d0 FB7B     		ldrb	r3, [r7, #15]
 2585 00d2 1344     		add	r3, r3, r2
 2586 00d4 D8B2     		uxtb	r0, r3
 2587 00d6 97F83830 		ldrb	r3, [r7, #56]	@ zero_extendqisi2
 2588 00da B97B     		ldrb	r1, [r7, #14]	@ zero_extendqisi2
 2589 00dc 2E22     		movs	r2, #46
 2590 00de FFF7FEFF 		bl	OLED_ShowChar
 740:./Hardware/hardware/oled.c **** 	
 741:./Hardware/hardware/oled.c **** 	/*显示小数部分*/
 742:./Hardware/hardware/oled.c **** 	OLED_ShowNum(X + (IntLength + 2) * FontSize, Y, FraNum, FraLength, FontSize);
 2591              		.loc 1 742 2
 2592 00e2 97F83030 		ldrb	r3, [r7, #48]
 2593 00e6 0233     		adds	r3, r3, #2
 2594 00e8 DBB2     		uxtb	r3, r3
 2595 00ea 97F83820 		ldrb	r2, [r7, #56]
 2596 00ee 02FB03F3 		mul	r3, r2, r3
 2597 00f2 DAB2     		uxtb	r2, r3
 2598 00f4 FB7B     		ldrb	r3, [r7, #15]
 2599 00f6 1344     		add	r3, r3, r2
 2600 00f8 D8B2     		uxtb	r0, r3
 2601 00fa 97F83420 		ldrb	r2, [r7, #52]	@ zero_extendqisi2
 2602 00fe B97B     		ldrb	r1, [r7, #14]	@ zero_extendqisi2
ARM GAS  C:\Users\86134\AppData\Local\Temp\ccyB0sod.s 			page 60


 2603 0100 97F83830 		ldrb	r3, [r7, #56]	@ zero_extendqisi2
 2604 0104 0093     		str	r3, [sp]
 2605 0106 1346     		mov	r3, r2
 2606 0108 7A69     		ldr	r2, [r7, #20]
 2607 010a FFF7FEFF 		bl	OLED_ShowNum
 743:./Hardware/hardware/oled.c **** }
 2608              		.loc 1 743 1
 2609 010e 00BF     		nop
 2610 0110 2037     		adds	r7, r7, #32
 2611              	.LCFI125:
 2612              		.cfi_def_cfa_offset 16
 2613 0112 BD46     		mov	sp, r7
 2614              	.LCFI126:
 2615              		.cfi_def_cfa_register 13
 2616              		@ sp needed
 2617 0114 B0BD     		pop	{r4, r5, r7, pc}
 2618              		.cfi_endproc
 2619              	.LFE57:
 2621              		.section	.rodata
 2622              		.align	2
 2623              	.LC0:
 2624 0000 0000     		.ascii	"\000\000"
 2625 0002 00       		.space	1
 2626              		.section	.text.OLED_ShowChinese,"ax",%progbits
 2627              		.align	1
 2628              		.global	OLED_ShowChinese
 2629              		.syntax unified
 2630              		.thumb
 2631              		.thumb_func
 2632              		.fpu softvfp
 2634              	OLED_ShowChinese:
 2635              	.LFB58:
 744:./Hardware/hardware/oled.c **** 
 745:./Hardware/hardware/oled.c **** /**
 746:./Hardware/hardware/oled.c ****   * 函    数：OLED显示汉字串
 747:./Hardware/hardware/oled.c ****   * 参    数：X 指定汉字串左上角的横坐标，范围：0~127
 748:./Hardware/hardware/oled.c ****   * 参    数：Y 指定汉字串左上角的纵坐标，范围：0~63
 749:./Hardware/hardware/oled.c ****   * 参    数：Chinese 指定要显示的汉字串，范围：必须全部为汉字或者全角字符，不要加入任何半角字符
 750:./Hardware/hardware/oled.c ****   *           显示的汉字需要在OLED_Data.c里的OLED_CF16x16数组定义
 751:./Hardware/hardware/oled.c ****   *           未找到指定汉字时，会显示默认图形（一个方框，内部一个问号）
 752:./Hardware/hardware/oled.c ****   * 返 回 值：无
 753:./Hardware/hardware/oled.c ****   * 说    明：调用此函数后，要想真正地呈现在屏幕上，还需调用更新函数
 754:./Hardware/hardware/oled.c ****   */
 755:./Hardware/hardware/oled.c **** void OLED_ShowChinese(uint8_t X, uint8_t Y, char *Chinese)
 756:./Hardware/hardware/oled.c **** {
 2636              		.loc 1 756 1
 2637              		.cfi_startproc
 2638              		@ args = 0, pretend = 0, frame = 16
 2639              		@ frame_needed = 1, uses_anonymous_args = 0
 2640 0000 80B5     		push	{r7, lr}
 2641              	.LCFI127:
 2642              		.cfi_def_cfa_offset 8
 2643              		.cfi_offset 7, -8
 2644              		.cfi_offset 14, -4
 2645 0002 86B0     		sub	sp, sp, #24
 2646              	.LCFI128:
 2647              		.cfi_def_cfa_offset 32
ARM GAS  C:\Users\86134\AppData\Local\Temp\ccyB0sod.s 			page 61


 2648 0004 02AF     		add	r7, sp, #8
 2649              	.LCFI129:
 2650              		.cfi_def_cfa 7, 24
 2651 0006 0346     		mov	r3, r0
 2652 0008 3A60     		str	r2, [r7]
 2653 000a FB71     		strb	r3, [r7, #7]
 2654 000c 0B46     		mov	r3, r1
 2655 000e BB71     		strb	r3, [r7, #6]
 757:./Hardware/hardware/oled.c **** 	uint8_t pChinese = 0;
 2656              		.loc 1 757 10
 2657 0010 0023     		movs	r3, #0
 2658 0012 FB73     		strb	r3, [r7, #15]
 758:./Hardware/hardware/oled.c **** 	uint8_t pIndex;
 759:./Hardware/hardware/oled.c **** 	uint8_t i;
 760:./Hardware/hardware/oled.c **** 	char SingleChinese[OLED_CHN_CHAR_WIDTH + 1] = {0};
 2659              		.loc 1 760 7
 2660 0014 344B     		ldr	r3, .L141
 2661 0016 1B88     		ldrh	r3, [r3]	@ movhi
 2662 0018 3B81     		strh	r3, [r7, #8]	@ movhi
 2663 001a 0023     		movs	r3, #0
 2664 001c BB72     		strb	r3, [r7, #10]
 761:./Hardware/hardware/oled.c **** 	
 762:./Hardware/hardware/oled.c **** 	for (i = 0; Chinese[i] != '\0'; i ++)		//遍历汉字串
 2665              		.loc 1 762 9
 2666 001e 0023     		movs	r3, #0
 2667 0020 7B73     		strb	r3, [r7, #13]
 2668              		.loc 1 762 2
 2669 0022 56E0     		b	.L133
 2670              	.L139:
 763:./Hardware/hardware/oled.c **** 	{
 764:./Hardware/hardware/oled.c **** 		SingleChinese[pChinese] = Chinese[i];	//提取汉字串数据到单个汉字数组
 2671              		.loc 1 764 36
 2672 0024 7B7B     		ldrb	r3, [r7, #13]	@ zero_extendqisi2
 2673 0026 3A68     		ldr	r2, [r7]
 2674 0028 1A44     		add	r2, r2, r3
 2675              		.loc 1 764 16
 2676 002a FB7B     		ldrb	r3, [r7, #15]	@ zero_extendqisi2
 2677              		.loc 1 764 36
 2678 002c 1278     		ldrb	r2, [r2]	@ zero_extendqisi2
 2679              		.loc 1 764 27
 2680 002e 07F11001 		add	r1, r7, #16
 2681 0032 0B44     		add	r3, r3, r1
 2682 0034 03F8082C 		strb	r2, [r3, #-8]
 765:./Hardware/hardware/oled.c **** 		pChinese ++;							//计次自增
 2683              		.loc 1 765 12
 2684 0038 FB7B     		ldrb	r3, [r7, #15]	@ zero_extendqisi2
 2685 003a 0133     		adds	r3, r3, #1
 2686 003c FB73     		strb	r3, [r7, #15]
 766:./Hardware/hardware/oled.c **** 		
 767:./Hardware/hardware/oled.c **** 		/*当提取次数到达OLED_CHN_CHAR_WIDTH时，即代表提取到了一个完整的汉字*/
 768:./Hardware/hardware/oled.c **** 		if (pChinese >= OLED_CHN_CHAR_WIDTH)
 2687              		.loc 1 768 6
 2688 003e FB7B     		ldrb	r3, [r7, #15]	@ zero_extendqisi2
 2689 0040 012B     		cmp	r3, #1
 2690 0042 43D9     		bls	.L134
 769:./Hardware/hardware/oled.c **** 		{
 770:./Hardware/hardware/oled.c **** 			pChinese = 0;		//计次归零
ARM GAS  C:\Users\86134\AppData\Local\Temp\ccyB0sod.s 			page 62


 2691              		.loc 1 770 13
 2692 0044 0023     		movs	r3, #0
 2693 0046 FB73     		strb	r3, [r7, #15]
 771:./Hardware/hardware/oled.c **** 			
 772:./Hardware/hardware/oled.c **** 			/*遍历整个汉字字模库，寻找匹配的汉字*/
 773:./Hardware/hardware/oled.c **** 			/*如果找到最后一个汉字（定义为空字符串），则表示汉字未在字模库定义，停止寻找*/
 774:./Hardware/hardware/oled.c **** 			for (pIndex = 0; strcmp(OLED_CF16x16[pIndex].Index, "") != 0; pIndex ++)
 2694              		.loc 1 774 16
 2695 0048 0023     		movs	r3, #0
 2696 004a BB73     		strb	r3, [r7, #14]
 2697              		.loc 1 774 4
 2698 004c 15E0     		b	.L135
 2699              	.L138:
 775:./Hardware/hardware/oled.c **** 			{
 776:./Hardware/hardware/oled.c **** 				/*找到匹配的汉字*/
 777:./Hardware/hardware/oled.c **** 				if (strcmp(OLED_CF16x16[pIndex].Index, SingleChinese) == 0)
 2700              		.loc 1 777 36
 2701 004e BA7B     		ldrb	r2, [r7, #14]	@ zero_extendqisi2
 2702 0050 1346     		mov	r3, r2
 2703 0052 9B00     		lsls	r3, r3, #2
 2704 0054 1344     		add	r3, r3, r2
 2705 0056 DA00     		lsls	r2, r3, #3
 2706 0058 D21A     		subs	r2, r2, r3
 2707 005a 02F12003 		add	r3, r2, #32
 2708 005e 234A     		ldr	r2, .L141+4
 2709 0060 1344     		add	r3, r3, r2
 2710              		.loc 1 777 9
 2711 0062 07F10802 		add	r2, r7, #8
 2712 0066 1146     		mov	r1, r2
 2713 0068 1846     		mov	r0, r3
 2714 006a FFF7FEFF 		bl	strcmp
 2715 006e 0346     		mov	r3, r0
 2716              		.loc 1 777 8
 2717 0070 002B     		cmp	r3, #0
 2718 0072 10D0     		beq	.L140
 774:./Hardware/hardware/oled.c **** 			{
 2719              		.loc 1 774 73 discriminator 2
 2720 0074 BB7B     		ldrb	r3, [r7, #14]	@ zero_extendqisi2
 2721 0076 0133     		adds	r3, r3, #1
 2722 0078 BB73     		strb	r3, [r7, #14]
 2723              	.L135:
 774:./Hardware/hardware/oled.c **** 			{
 2724              		.loc 1 774 48 discriminator 1
 2725 007a BA7B     		ldrb	r2, [r7, #14]	@ zero_extendqisi2
 2726 007c 1346     		mov	r3, r2
 2727 007e 9B00     		lsls	r3, r3, #2
 2728 0080 1344     		add	r3, r3, r2
 2729 0082 DA00     		lsls	r2, r3, #3
 2730 0084 D21A     		subs	r2, r2, r3
 2731 0086 02F12003 		add	r3, r2, #32
 2732 008a 184A     		ldr	r2, .L141+4
 2733 008c 1344     		add	r3, r3, r2
 774:./Hardware/hardware/oled.c **** 			{
 2734              		.loc 1 774 21 discriminator 1
 2735 008e 1B78     		ldrb	r3, [r3]	@ zero_extendqisi2
 774:./Hardware/hardware/oled.c **** 			{
 2736              		.loc 1 774 4 discriminator 1
ARM GAS  C:\Users\86134\AppData\Local\Temp\ccyB0sod.s 			page 63


 2737 0090 002B     		cmp	r3, #0
 2738 0092 DCD1     		bne	.L138
 2739 0094 00E0     		b	.L137
 2740              	.L140:
 778:./Hardware/hardware/oled.c **** 				{
 779:./Hardware/hardware/oled.c **** 					break;		//跳出循环，此时pIndex的值为指定汉字的索引
 2741              		.loc 1 779 6
 2742 0096 00BF     		nop
 2743              	.L137:
 780:./Hardware/hardware/oled.c **** 				}
 781:./Hardware/hardware/oled.c **** 			}
 782:./Hardware/hardware/oled.c **** 			
 783:./Hardware/hardware/oled.c **** 			/*将汉字字模库OLED_CF16x16的指定数据以16*16的图像格式显示*/
 784:./Hardware/hardware/oled.c **** 			OLED_ShowImage(X + ((i + 1) / OLED_CHN_CHAR_WIDTH - 1) * 16, Y, 16, 16, OLED_CF16x16[pIndex].Dat
 2744              		.loc 1 784 27
 2745 0098 7B7B     		ldrb	r3, [r7, #13]	@ zero_extendqisi2
 2746 009a 0133     		adds	r3, r3, #1
 2747              		.loc 1 784 32
 2748 009c DA0F     		lsrs	r2, r3, #31
 2749 009e 1344     		add	r3, r3, r2
 2750 00a0 5B10     		asrs	r3, r3, #1
 2751              		.loc 1 784 54
 2752 00a2 013B     		subs	r3, r3, #1
 2753              		.loc 1 784 4
 2754 00a4 DBB2     		uxtb	r3, r3
 2755 00a6 1B01     		lsls	r3, r3, #4
 2756 00a8 DAB2     		uxtb	r2, r3
 2757 00aa FB79     		ldrb	r3, [r7, #7]
 2758 00ac 1344     		add	r3, r3, r2
 2759 00ae D8B2     		uxtb	r0, r3
 2760              		.loc 1 784 96
 2761 00b0 BA7B     		ldrb	r2, [r7, #14]	@ zero_extendqisi2
 2762 00b2 1346     		mov	r3, r2
 2763 00b4 9B00     		lsls	r3, r3, #2
 2764 00b6 1344     		add	r3, r3, r2
 2765 00b8 DA00     		lsls	r2, r3, #3
 2766 00ba D21A     		subs	r2, r2, r3
 2767 00bc 0B4B     		ldr	r3, .L141+4
 2768 00be 1344     		add	r3, r3, r2
 2769              		.loc 1 784 4
 2770 00c0 B979     		ldrb	r1, [r7, #6]	@ zero_extendqisi2
 2771 00c2 0093     		str	r3, [sp]
 2772 00c4 1023     		movs	r3, #16
 2773 00c6 1022     		movs	r2, #16
 2774 00c8 FFF7FEFF 		bl	OLED_ShowImage
 2775              	.L134:
 762:./Hardware/hardware/oled.c **** 	{
 2776              		.loc 1 762 36 discriminator 2
 2777 00cc 7B7B     		ldrb	r3, [r7, #13]	@ zero_extendqisi2
 2778 00ce 0133     		adds	r3, r3, #1
 2779 00d0 7B73     		strb	r3, [r7, #13]
 2780              	.L133:
 762:./Hardware/hardware/oled.c **** 	{
 2781              		.loc 1 762 21 discriminator 1
 2782 00d2 7B7B     		ldrb	r3, [r7, #13]	@ zero_extendqisi2
 2783 00d4 3A68     		ldr	r2, [r7]
 2784 00d6 1344     		add	r3, r3, r2
ARM GAS  C:\Users\86134\AppData\Local\Temp\ccyB0sod.s 			page 64


 2785 00d8 1B78     		ldrb	r3, [r3]	@ zero_extendqisi2
 762:./Hardware/hardware/oled.c **** 	{
 2786              		.loc 1 762 2 discriminator 1
 2787 00da 002B     		cmp	r3, #0
 2788 00dc A2D1     		bne	.L139
 785:./Hardware/hardware/oled.c **** 		}
 786:./Hardware/hardware/oled.c **** 	}
 787:./Hardware/hardware/oled.c **** }
 2789              		.loc 1 787 1
 2790 00de 00BF     		nop
 2791 00e0 00BF     		nop
 2792 00e2 1037     		adds	r7, r7, #16
 2793              	.LCFI130:
 2794              		.cfi_def_cfa_offset 8
 2795 00e4 BD46     		mov	sp, r7
 2796              	.LCFI131:
 2797              		.cfi_def_cfa_register 13
 2798              		@ sp needed
 2799 00e6 80BD     		pop	{r7, pc}
 2800              	.L142:
 2801              		.align	2
 2802              	.L141:
 2803 00e8 00000000 		.word	.LC0
 2804 00ec 00000000 		.word	OLED_CF16x16
 2805              		.cfi_endproc
 2806              	.LFE58:
 2808              		.section	.text.OLED_ShowChinese12X12,"ax",%progbits
 2809              		.align	1
 2810              		.global	OLED_ShowChinese12X12
 2811              		.syntax unified
 2812              		.thumb
 2813              		.thumb_func
 2814              		.fpu softvfp
 2816              	OLED_ShowChinese12X12:
 2817              	.LFB59:
 788:./Hardware/hardware/oled.c **** 
 789:./Hardware/hardware/oled.c **** /*********************************12*12字库***********************************************/
 790:./Hardware/hardware/oled.c **** void OLED_ShowChinese12X12(uint8_t X, uint8_t Y, char *Chinese)
 791:./Hardware/hardware/oled.c **** {
 2818              		.loc 1 791 1
 2819              		.cfi_startproc
 2820              		@ args = 0, pretend = 0, frame = 16
 2821              		@ frame_needed = 1, uses_anonymous_args = 0
 2822 0000 80B5     		push	{r7, lr}
 2823              	.LCFI132:
 2824              		.cfi_def_cfa_offset 8
 2825              		.cfi_offset 7, -8
 2826              		.cfi_offset 14, -4
 2827 0002 86B0     		sub	sp, sp, #24
 2828              	.LCFI133:
 2829              		.cfi_def_cfa_offset 32
 2830 0004 02AF     		add	r7, sp, #8
 2831              	.LCFI134:
 2832              		.cfi_def_cfa 7, 24
 2833 0006 0346     		mov	r3, r0
 2834 0008 3A60     		str	r2, [r7]
 2835 000a FB71     		strb	r3, [r7, #7]
ARM GAS  C:\Users\86134\AppData\Local\Temp\ccyB0sod.s 			page 65


 2836 000c 0B46     		mov	r3, r1
 2837 000e BB71     		strb	r3, [r7, #6]
 792:./Hardware/hardware/oled.c **** 	uint8_t pChinese = 0;
 2838              		.loc 1 792 10
 2839 0010 0023     		movs	r3, #0
 2840 0012 FB73     		strb	r3, [r7, #15]
 793:./Hardware/hardware/oled.c **** 	uint8_t pIndex;
 794:./Hardware/hardware/oled.c **** 	uint8_t i;
 795:./Hardware/hardware/oled.c **** 	char SingleChinese[OLED_CHN_CHAR_WIDTH + 1] = {0};
 2841              		.loc 1 795 7
 2842 0014 334B     		ldr	r3, .L152
 2843 0016 1B88     		ldrh	r3, [r3]	@ movhi
 2844 0018 3B81     		strh	r3, [r7, #8]	@ movhi
 2845 001a 0023     		movs	r3, #0
 2846 001c BB72     		strb	r3, [r7, #10]
 796:./Hardware/hardware/oled.c **** 	
 797:./Hardware/hardware/oled.c **** 	for (i = 0; Chinese[i] != '\0'; i ++)		//遍历汉字串
 2847              		.loc 1 797 9
 2848 001e 0023     		movs	r3, #0
 2849 0020 7B73     		strb	r3, [r7, #13]
 2850              		.loc 1 797 2
 2851 0022 54E0     		b	.L144
 2852              	.L150:
 798:./Hardware/hardware/oled.c **** 	{
 799:./Hardware/hardware/oled.c **** 		SingleChinese[pChinese] = Chinese[i];	//提取汉字串数据到单个汉字数组
 2853              		.loc 1 799 36
 2854 0024 7B7B     		ldrb	r3, [r7, #13]	@ zero_extendqisi2
 2855 0026 3A68     		ldr	r2, [r7]
 2856 0028 1A44     		add	r2, r2, r3
 2857              		.loc 1 799 16
 2858 002a FB7B     		ldrb	r3, [r7, #15]	@ zero_extendqisi2
 2859              		.loc 1 799 36
 2860 002c 1278     		ldrb	r2, [r2]	@ zero_extendqisi2
 2861              		.loc 1 799 27
 2862 002e 07F11001 		add	r1, r7, #16
 2863 0032 0B44     		add	r3, r3, r1
 2864 0034 03F8082C 		strb	r2, [r3, #-8]
 800:./Hardware/hardware/oled.c **** 		pChinese ++;							//计次自增
 2865              		.loc 1 800 12
 2866 0038 FB7B     		ldrb	r3, [r7, #15]	@ zero_extendqisi2
 2867 003a 0133     		adds	r3, r3, #1
 2868 003c FB73     		strb	r3, [r7, #15]
 801:./Hardware/hardware/oled.c **** 		
 802:./Hardware/hardware/oled.c **** 		/*当提取次数到达OLED_CHN_CHAR_WIDTH时，即代表提取到了一个完整的汉字*/
 803:./Hardware/hardware/oled.c **** 		if (pChinese >= OLED_CHN_CHAR_WIDTH)
 2869              		.loc 1 803 6
 2870 003e FB7B     		ldrb	r3, [r7, #15]	@ zero_extendqisi2
 2871 0040 012B     		cmp	r3, #1
 2872 0042 41D9     		bls	.L145
 804:./Hardware/hardware/oled.c **** 		{
 805:./Hardware/hardware/oled.c **** 			pChinese = 0;		//计次归零
 2873              		.loc 1 805 13
 2874 0044 0023     		movs	r3, #0
 2875 0046 FB73     		strb	r3, [r7, #15]
 806:./Hardware/hardware/oled.c **** 			
 807:./Hardware/hardware/oled.c **** 			/*遍历整个汉字字模库，寻找匹配的汉字*/
 808:./Hardware/hardware/oled.c **** 			/*如果找到最后一个汉字（定义为空字符串），则表示汉字未在字模库定义，停止寻找*/
ARM GAS  C:\Users\86134\AppData\Local\Temp\ccyB0sod.s 			page 66


 809:./Hardware/hardware/oled.c **** 			for (pIndex = 0; strcmp(OLED_CF12x12[pIndex].Index, "") != 0; pIndex ++)
 2876              		.loc 1 809 16
 2877 0048 0023     		movs	r3, #0
 2878 004a BB73     		strb	r3, [r7, #14]
 2879              		.loc 1 809 4
 2880 004c 14E0     		b	.L146
 2881              	.L149:
 810:./Hardware/hardware/oled.c **** 			{
 811:./Hardware/hardware/oled.c **** 				/*找到匹配的汉字*/
 812:./Hardware/hardware/oled.c **** 				if (strcmp(OLED_CF12x12[pIndex].Index, SingleChinese) == 0)
 2882              		.loc 1 812 36
 2883 004e BA7B     		ldrb	r2, [r7, #14]	@ zero_extendqisi2
 2884 0050 1346     		mov	r3, r2
 2885 0052 5B00     		lsls	r3, r3, #1
 2886 0054 1344     		add	r3, r3, r2
 2887 0056 DA00     		lsls	r2, r3, #3
 2888 0058 1344     		add	r3, r3, r2
 2889 005a 1833     		adds	r3, r3, #24
 2890 005c 224A     		ldr	r2, .L152+4
 2891 005e 1344     		add	r3, r3, r2
 2892              		.loc 1 812 9
 2893 0060 07F10802 		add	r2, r7, #8
 2894 0064 1146     		mov	r1, r2
 2895 0066 1846     		mov	r0, r3
 2896 0068 FFF7FEFF 		bl	strcmp
 2897 006c 0346     		mov	r3, r0
 2898              		.loc 1 812 8
 2899 006e 002B     		cmp	r3, #0
 2900 0070 0FD0     		beq	.L151
 809:./Hardware/hardware/oled.c **** 			{
 2901              		.loc 1 809 73 discriminator 2
 2902 0072 BB7B     		ldrb	r3, [r7, #14]	@ zero_extendqisi2
 2903 0074 0133     		adds	r3, r3, #1
 2904 0076 BB73     		strb	r3, [r7, #14]
 2905              	.L146:
 809:./Hardware/hardware/oled.c **** 			{
 2906              		.loc 1 809 48 discriminator 1
 2907 0078 BA7B     		ldrb	r2, [r7, #14]	@ zero_extendqisi2
 2908 007a 1346     		mov	r3, r2
 2909 007c 5B00     		lsls	r3, r3, #1
 2910 007e 1344     		add	r3, r3, r2
 2911 0080 DA00     		lsls	r2, r3, #3
 2912 0082 1344     		add	r3, r3, r2
 2913 0084 1833     		adds	r3, r3, #24
 2914 0086 184A     		ldr	r2, .L152+4
 2915 0088 1344     		add	r3, r3, r2
 809:./Hardware/hardware/oled.c **** 			{
 2916              		.loc 1 809 21 discriminator 1
 2917 008a 1B78     		ldrb	r3, [r3]	@ zero_extendqisi2
 809:./Hardware/hardware/oled.c **** 			{
 2918              		.loc 1 809 4 discriminator 1
 2919 008c 002B     		cmp	r3, #0
 2920 008e DED1     		bne	.L149
 2921 0090 00E0     		b	.L148
 2922              	.L151:
 813:./Hardware/hardware/oled.c **** 				{
 814:./Hardware/hardware/oled.c **** 					break;		//跳出循环，此时pIndex的值为指定汉字的索引
ARM GAS  C:\Users\86134\AppData\Local\Temp\ccyB0sod.s 			page 67


 2923              		.loc 1 814 6
 2924 0092 00BF     		nop
 2925              	.L148:
 815:./Hardware/hardware/oled.c **** 				}
 816:./Hardware/hardware/oled.c **** 			}
 817:./Hardware/hardware/oled.c **** 			
 818:./Hardware/hardware/oled.c **** 			/*将汉字字模库OLED_CF16x16的指定数据以16*16的图像格式显示*/
 819:./Hardware/hardware/oled.c **** 			OLED_ShowImage(X + ((i + 1) / OLED_CHN_CHAR_WIDTH - 1) * 16, Y, 12, 12, OLED_CF12x12[pIndex].Dat
 2926              		.loc 1 819 27
 2927 0094 7B7B     		ldrb	r3, [r7, #13]	@ zero_extendqisi2
 2928 0096 0133     		adds	r3, r3, #1
 2929              		.loc 1 819 32
 2930 0098 DA0F     		lsrs	r2, r3, #31
 2931 009a 1344     		add	r3, r3, r2
 2932 009c 5B10     		asrs	r3, r3, #1
 2933              		.loc 1 819 54
 2934 009e 013B     		subs	r3, r3, #1
 2935              		.loc 1 819 4
 2936 00a0 DBB2     		uxtb	r3, r3
 2937 00a2 1B01     		lsls	r3, r3, #4
 2938 00a4 DAB2     		uxtb	r2, r3
 2939 00a6 FB79     		ldrb	r3, [r7, #7]
 2940 00a8 1344     		add	r3, r3, r2
 2941 00aa D8B2     		uxtb	r0, r3
 2942              		.loc 1 819 96
 2943 00ac BA7B     		ldrb	r2, [r7, #14]	@ zero_extendqisi2
 2944 00ae 1346     		mov	r3, r2
 2945 00b0 5B00     		lsls	r3, r3, #1
 2946 00b2 1344     		add	r3, r3, r2
 2947 00b4 DA00     		lsls	r2, r3, #3
 2948 00b6 1344     		add	r3, r3, r2
 2949 00b8 0B4A     		ldr	r2, .L152+4
 2950 00ba 1344     		add	r3, r3, r2
 2951              		.loc 1 819 4
 2952 00bc B979     		ldrb	r1, [r7, #6]	@ zero_extendqisi2
 2953 00be 0093     		str	r3, [sp]
 2954 00c0 0C23     		movs	r3, #12
 2955 00c2 0C22     		movs	r2, #12
 2956 00c4 FFF7FEFF 		bl	OLED_ShowImage
 2957              	.L145:
 797:./Hardware/hardware/oled.c **** 	{
 2958              		.loc 1 797 36 discriminator 2
 2959 00c8 7B7B     		ldrb	r3, [r7, #13]	@ zero_extendqisi2
 2960 00ca 0133     		adds	r3, r3, #1
 2961 00cc 7B73     		strb	r3, [r7, #13]
 2962              	.L144:
 797:./Hardware/hardware/oled.c **** 	{
 2963              		.loc 1 797 21 discriminator 1
 2964 00ce 7B7B     		ldrb	r3, [r7, #13]	@ zero_extendqisi2
 2965 00d0 3A68     		ldr	r2, [r7]
 2966 00d2 1344     		add	r3, r3, r2
 2967 00d4 1B78     		ldrb	r3, [r3]	@ zero_extendqisi2
 797:./Hardware/hardware/oled.c **** 	{
 2968              		.loc 1 797 2 discriminator 1
 2969 00d6 002B     		cmp	r3, #0
 2970 00d8 A4D1     		bne	.L150
 820:./Hardware/hardware/oled.c **** 		}
ARM GAS  C:\Users\86134\AppData\Local\Temp\ccyB0sod.s 			page 68


 821:./Hardware/hardware/oled.c **** 	}
 822:./Hardware/hardware/oled.c **** }
 2971              		.loc 1 822 1
 2972 00da 00BF     		nop
 2973 00dc 00BF     		nop
 2974 00de 1037     		adds	r7, r7, #16
 2975              	.LCFI135:
 2976              		.cfi_def_cfa_offset 8
 2977 00e0 BD46     		mov	sp, r7
 2978              	.LCFI136:
 2979              		.cfi_def_cfa_register 13
 2980              		@ sp needed
 2981 00e2 80BD     		pop	{r7, pc}
 2982              	.L153:
 2983              		.align	2
 2984              	.L152:
 2985 00e4 00000000 		.word	.LC0
 2986 00e8 00000000 		.word	OLED_CF12x12
 2987              		.cfi_endproc
 2988              	.LFE59:
 2990              		.section	.text.OLED_ShowChinese10X10,"ax",%progbits
 2991              		.align	1
 2992              		.global	OLED_ShowChinese10X10
 2993              		.syntax unified
 2994              		.thumb
 2995              		.thumb_func
 2996              		.fpu softvfp
 2998              	OLED_ShowChinese10X10:
 2999              	.LFB60:
 823:./Hardware/hardware/oled.c **** 
 824:./Hardware/hardware/oled.c **** /*********************************10*10字库***********************************************/
 825:./Hardware/hardware/oled.c **** void OLED_ShowChinese10X10(uint8_t X, uint8_t Y, char *Chinese)
 826:./Hardware/hardware/oled.c **** {
 3000              		.loc 1 826 1
 3001              		.cfi_startproc
 3002              		@ args = 0, pretend = 0, frame = 16
 3003              		@ frame_needed = 1, uses_anonymous_args = 0
 3004 0000 80B5     		push	{r7, lr}
 3005              	.LCFI137:
 3006              		.cfi_def_cfa_offset 8
 3007              		.cfi_offset 7, -8
 3008              		.cfi_offset 14, -4
 3009 0002 86B0     		sub	sp, sp, #24
 3010              	.LCFI138:
 3011              		.cfi_def_cfa_offset 32
 3012 0004 02AF     		add	r7, sp, #8
 3013              	.LCFI139:
 3014              		.cfi_def_cfa 7, 24
 3015 0006 0346     		mov	r3, r0
 3016 0008 3A60     		str	r2, [r7]
 3017 000a FB71     		strb	r3, [r7, #7]
 3018 000c 0B46     		mov	r3, r1
 3019 000e BB71     		strb	r3, [r7, #6]
 827:./Hardware/hardware/oled.c **** 	uint8_t pChinese = 0;
 3020              		.loc 1 827 10
 3021 0010 0023     		movs	r3, #0
 3022 0012 FB73     		strb	r3, [r7, #15]
ARM GAS  C:\Users\86134\AppData\Local\Temp\ccyB0sod.s 			page 69


 828:./Hardware/hardware/oled.c **** 	uint8_t pIndex;
 829:./Hardware/hardware/oled.c **** 	uint8_t i;
 830:./Hardware/hardware/oled.c **** 	char SingleChinese[OLED_CHN_CHAR_WIDTH + 1] = {0};
 3023              		.loc 1 830 7
 3024 0014 344B     		ldr	r3, .L163
 3025 0016 1B88     		ldrh	r3, [r3]	@ movhi
 3026 0018 3B81     		strh	r3, [r7, #8]	@ movhi
 3027 001a 0023     		movs	r3, #0
 3028 001c BB72     		strb	r3, [r7, #10]
 831:./Hardware/hardware/oled.c **** 	
 832:./Hardware/hardware/oled.c **** 	for (i = 0; Chinese[i] != '\0'; i ++)		//遍历汉字串
 3029              		.loc 1 832 9
 3030 001e 0023     		movs	r3, #0
 3031 0020 7B73     		strb	r3, [r7, #13]
 3032              		.loc 1 832 2
 3033 0022 56E0     		b	.L155
 3034              	.L161:
 833:./Hardware/hardware/oled.c **** 	{
 834:./Hardware/hardware/oled.c **** 		SingleChinese[pChinese] = Chinese[i];	//提取汉字串数据到单个汉字数组
 3035              		.loc 1 834 36
 3036 0024 7B7B     		ldrb	r3, [r7, #13]	@ zero_extendqisi2
 3037 0026 3A68     		ldr	r2, [r7]
 3038 0028 1A44     		add	r2, r2, r3
 3039              		.loc 1 834 16
 3040 002a FB7B     		ldrb	r3, [r7, #15]	@ zero_extendqisi2
 3041              		.loc 1 834 36
 3042 002c 1278     		ldrb	r2, [r2]	@ zero_extendqisi2
 3043              		.loc 1 834 27
 3044 002e 07F11001 		add	r1, r7, #16
 3045 0032 0B44     		add	r3, r3, r1
 3046 0034 03F8082C 		strb	r2, [r3, #-8]
 835:./Hardware/hardware/oled.c **** 		pChinese ++;							//计次自增
 3047              		.loc 1 835 12
 3048 0038 FB7B     		ldrb	r3, [r7, #15]	@ zero_extendqisi2
 3049 003a 0133     		adds	r3, r3, #1
 3050 003c FB73     		strb	r3, [r7, #15]
 836:./Hardware/hardware/oled.c **** 		
 837:./Hardware/hardware/oled.c **** 		/*当提取次数到达OLED_CHN_CHAR_WIDTH时，即代表提取到了一个完整的汉字*/
 838:./Hardware/hardware/oled.c **** 		if (pChinese >= OLED_CHN_CHAR_WIDTH)
 3051              		.loc 1 838 6
 3052 003e FB7B     		ldrb	r3, [r7, #15]	@ zero_extendqisi2
 3053 0040 012B     		cmp	r3, #1
 3054 0042 43D9     		bls	.L156
 839:./Hardware/hardware/oled.c **** 		{
 840:./Hardware/hardware/oled.c **** 			pChinese = 0;		//计次归零
 3055              		.loc 1 840 13
 3056 0044 0023     		movs	r3, #0
 3057 0046 FB73     		strb	r3, [r7, #15]
 841:./Hardware/hardware/oled.c **** 			
 842:./Hardware/hardware/oled.c **** 			/*遍历整个汉字字模库，寻找匹配的汉字*/
 843:./Hardware/hardware/oled.c **** 			/*如果找到最后一个汉字（定义为空字符串），则表示汉字未在字模库定义，停止寻找*/
 844:./Hardware/hardware/oled.c **** 			for (pIndex = 0; strcmp(OLED_CF10x10[pIndex].Index, "") != 0; pIndex ++)
 3058              		.loc 1 844 16
 3059 0048 0023     		movs	r3, #0
 3060 004a BB73     		strb	r3, [r7, #14]
 3061              		.loc 1 844 4
 3062 004c 15E0     		b	.L157
ARM GAS  C:\Users\86134\AppData\Local\Temp\ccyB0sod.s 			page 70


 3063              	.L160:
 845:./Hardware/hardware/oled.c **** 			{
 846:./Hardware/hardware/oled.c **** 				/*找到匹配的汉字*/
 847:./Hardware/hardware/oled.c **** 				if (strcmp(OLED_CF10x10[pIndex].Index, SingleChinese) == 0)
 3064              		.loc 1 847 36
 3065 004e BA7B     		ldrb	r2, [r7, #14]	@ zero_extendqisi2
 3066 0050 1346     		mov	r3, r2
 3067 0052 5B00     		lsls	r3, r3, #1
 3068 0054 1344     		add	r3, r3, r2
 3069 0056 DB00     		lsls	r3, r3, #3
 3070 0058 9B1A     		subs	r3, r3, r2
 3071 005a 1033     		adds	r3, r3, #16
 3072 005c 234A     		ldr	r2, .L163+4
 3073 005e 1344     		add	r3, r3, r2
 3074 0060 0433     		adds	r3, r3, #4
 3075              		.loc 1 847 9
 3076 0062 07F10802 		add	r2, r7, #8
 3077 0066 1146     		mov	r1, r2
 3078 0068 1846     		mov	r0, r3
 3079 006a FFF7FEFF 		bl	strcmp
 3080 006e 0346     		mov	r3, r0
 3081              		.loc 1 847 8
 3082 0070 002B     		cmp	r3, #0
 3083 0072 10D0     		beq	.L162
 844:./Hardware/hardware/oled.c **** 			{
 3084              		.loc 1 844 73 discriminator 2
 3085 0074 BB7B     		ldrb	r3, [r7, #14]	@ zero_extendqisi2
 3086 0076 0133     		adds	r3, r3, #1
 3087 0078 BB73     		strb	r3, [r7, #14]
 3088              	.L157:
 844:./Hardware/hardware/oled.c **** 			{
 3089              		.loc 1 844 48 discriminator 1
 3090 007a BA7B     		ldrb	r2, [r7, #14]	@ zero_extendqisi2
 3091 007c 1346     		mov	r3, r2
 3092 007e 5B00     		lsls	r3, r3, #1
 3093 0080 1344     		add	r3, r3, r2
 3094 0082 DB00     		lsls	r3, r3, #3
 3095 0084 9B1A     		subs	r3, r3, r2
 3096 0086 1033     		adds	r3, r3, #16
 3097 0088 184A     		ldr	r2, .L163+4
 3098 008a 1344     		add	r3, r3, r2
 3099 008c 0433     		adds	r3, r3, #4
 844:./Hardware/hardware/oled.c **** 			{
 3100              		.loc 1 844 21 discriminator 1
 3101 008e 1B78     		ldrb	r3, [r3]	@ zero_extendqisi2
 844:./Hardware/hardware/oled.c **** 			{
 3102              		.loc 1 844 4 discriminator 1
 3103 0090 002B     		cmp	r3, #0
 3104 0092 DCD1     		bne	.L160
 3105 0094 00E0     		b	.L159
 3106              	.L162:
 848:./Hardware/hardware/oled.c **** 				{
 849:./Hardware/hardware/oled.c **** 					break;		//跳出循环，此时pIndex的值为指定汉字的索引
 3107              		.loc 1 849 6
 3108 0096 00BF     		nop
 3109              	.L159:
 850:./Hardware/hardware/oled.c **** 				}
ARM GAS  C:\Users\86134\AppData\Local\Temp\ccyB0sod.s 			page 71


 851:./Hardware/hardware/oled.c **** 			}
 852:./Hardware/hardware/oled.c **** 			
 853:./Hardware/hardware/oled.c **** 			/*将汉字字模库OLED_CF16x16的指定数据以16*16的图像格式显示*/
 854:./Hardware/hardware/oled.c **** 			OLED_ShowImage(X + ((i + 1) / OLED_CHN_CHAR_WIDTH - 1) * 16, Y, 10, 10, OLED_CF10x10[pIndex].Dat
 3110              		.loc 1 854 27
 3111 0098 7B7B     		ldrb	r3, [r7, #13]	@ zero_extendqisi2
 3112 009a 0133     		adds	r3, r3, #1
 3113              		.loc 1 854 32
 3114 009c DA0F     		lsrs	r2, r3, #31
 3115 009e 1344     		add	r3, r3, r2
 3116 00a0 5B10     		asrs	r3, r3, #1
 3117              		.loc 1 854 54
 3118 00a2 013B     		subs	r3, r3, #1
 3119              		.loc 1 854 4
 3120 00a4 DBB2     		uxtb	r3, r3
 3121 00a6 1B01     		lsls	r3, r3, #4
 3122 00a8 DAB2     		uxtb	r2, r3
 3123 00aa FB79     		ldrb	r3, [r7, #7]
 3124 00ac 1344     		add	r3, r3, r2
 3125 00ae D8B2     		uxtb	r0, r3
 3126              		.loc 1 854 96
 3127 00b0 BA7B     		ldrb	r2, [r7, #14]	@ zero_extendqisi2
 3128 00b2 1346     		mov	r3, r2
 3129 00b4 5B00     		lsls	r3, r3, #1
 3130 00b6 1344     		add	r3, r3, r2
 3131 00b8 DB00     		lsls	r3, r3, #3
 3132 00ba 9B1A     		subs	r3, r3, r2
 3133 00bc 0B4A     		ldr	r2, .L163+4
 3134 00be 1344     		add	r3, r3, r2
 3135              		.loc 1 854 4
 3136 00c0 B979     		ldrb	r1, [r7, #6]	@ zero_extendqisi2
 3137 00c2 0093     		str	r3, [sp]
 3138 00c4 0A23     		movs	r3, #10
 3139 00c6 0A22     		movs	r2, #10
 3140 00c8 FFF7FEFF 		bl	OLED_ShowImage
 3141              	.L156:
 832:./Hardware/hardware/oled.c **** 	{
 3142              		.loc 1 832 36 discriminator 2
 3143 00cc 7B7B     		ldrb	r3, [r7, #13]	@ zero_extendqisi2
 3144 00ce 0133     		adds	r3, r3, #1
 3145 00d0 7B73     		strb	r3, [r7, #13]
 3146              	.L155:
 832:./Hardware/hardware/oled.c **** 	{
 3147              		.loc 1 832 21 discriminator 1
 3148 00d2 7B7B     		ldrb	r3, [r7, #13]	@ zero_extendqisi2
 3149 00d4 3A68     		ldr	r2, [r7]
 3150 00d6 1344     		add	r3, r3, r2
 3151 00d8 1B78     		ldrb	r3, [r3]	@ zero_extendqisi2
 832:./Hardware/hardware/oled.c **** 	{
 3152              		.loc 1 832 2 discriminator 1
 3153 00da 002B     		cmp	r3, #0
 3154 00dc A2D1     		bne	.L161
 855:./Hardware/hardware/oled.c **** 		}
 856:./Hardware/hardware/oled.c **** 	}
 857:./Hardware/hardware/oled.c **** }
 3155              		.loc 1 857 1
 3156 00de 00BF     		nop
ARM GAS  C:\Users\86134\AppData\Local\Temp\ccyB0sod.s 			page 72


 3157 00e0 00BF     		nop
 3158 00e2 1037     		adds	r7, r7, #16
 3159              	.LCFI140:
 3160              		.cfi_def_cfa_offset 8
 3161 00e4 BD46     		mov	sp, r7
 3162              	.LCFI141:
 3163              		.cfi_def_cfa_register 13
 3164              		@ sp needed
 3165 00e6 80BD     		pop	{r7, pc}
 3166              	.L164:
 3167              		.align	2
 3168              	.L163:
 3169 00e8 00000000 		.word	.LC0
 3170 00ec 00000000 		.word	OLED_CF10x10
 3171              		.cfi_endproc
 3172              	.LFE60:
 3174              		.section	.text.OLED_ShowImage,"ax",%progbits
 3175              		.align	1
 3176              		.global	OLED_ShowImage
 3177              		.syntax unified
 3178              		.thumb
 3179              		.thumb_func
 3180              		.fpu softvfp
 3182              	OLED_ShowImage:
 3183              	.LFB61:
 858:./Hardware/hardware/oled.c **** 
 859:./Hardware/hardware/oled.c **** /**
 860:./Hardware/hardware/oled.c ****   * 函    数：OLED显示图像
 861:./Hardware/hardware/oled.c ****   * 参    数：X 指定图像左上角的横坐标，范围：0~127
 862:./Hardware/hardware/oled.c ****   * 参    数：Y 指定图像左上角的纵坐标，范围：0~63
 863:./Hardware/hardware/oled.c ****   * 参    数：Width 指定图像的宽度，范围：0~128
 864:./Hardware/hardware/oled.c ****   * 参    数：Height 指定图像的高度，范围：0~64
 865:./Hardware/hardware/oled.c ****   * 参    数：Image 指定要显示的图像
 866:./Hardware/hardware/oled.c ****   * 返 回 值：无
 867:./Hardware/hardware/oled.c ****   * 说    明：调用此函数后，要想真正地呈现在屏幕上，还需调用更新函数
 868:./Hardware/hardware/oled.c ****   */
 869:./Hardware/hardware/oled.c **** void OLED_ShowImage(uint8_t X, uint8_t Y, uint8_t Width, uint8_t Height, const uint8_t *Image)
 870:./Hardware/hardware/oled.c **** {
 3184              		.loc 1 870 1
 3185              		.cfi_startproc
 3186              		@ args = 4, pretend = 0, frame = 16
 3187              		@ frame_needed = 1, uses_anonymous_args = 0
 3188 0000 90B5     		push	{r4, r7, lr}
 3189              	.LCFI142:
 3190              		.cfi_def_cfa_offset 12
 3191              		.cfi_offset 4, -12
 3192              		.cfi_offset 7, -8
 3193              		.cfi_offset 14, -4
 3194 0002 85B0     		sub	sp, sp, #20
 3195              	.LCFI143:
 3196              		.cfi_def_cfa_offset 32
 3197 0004 00AF     		add	r7, sp, #0
 3198              	.LCFI144:
 3199              		.cfi_def_cfa_register 7
 3200 0006 0446     		mov	r4, r0
 3201 0008 0846     		mov	r0, r1
 3202 000a 1146     		mov	r1, r2
ARM GAS  C:\Users\86134\AppData\Local\Temp\ccyB0sod.s 			page 73


 3203 000c 1A46     		mov	r2, r3
 3204 000e 2346     		mov	r3, r4
 3205 0010 FB71     		strb	r3, [r7, #7]
 3206 0012 0346     		mov	r3, r0
 3207 0014 BB71     		strb	r3, [r7, #6]
 3208 0016 0B46     		mov	r3, r1
 3209 0018 7B71     		strb	r3, [r7, #5]
 3210 001a 1346     		mov	r3, r2
 3211 001c 3B71     		strb	r3, [r7, #4]
 871:./Hardware/hardware/oled.c **** 	uint8_t i, j;
 872:./Hardware/hardware/oled.c **** 	
 873:./Hardware/hardware/oled.c **** 	/*参数检查，保证指定图像不会超出屏幕范围*/
 874:./Hardware/hardware/oled.c **** 	if (X > 127) {return;}
 3212              		.loc 1 874 8
 3213 001e 97F90730 		ldrsb	r3, [r7, #7]
 3214              		.loc 1 874 5
 3215 0022 002B     		cmp	r3, #0
 3216 0024 C0F2A380 		blt	.L179
 875:./Hardware/hardware/oled.c **** 	if (Y > 63) {return;}
 3217              		.loc 1 875 5
 3218 0028 BB79     		ldrb	r3, [r7, #6]	@ zero_extendqisi2
 3219 002a 3F2B     		cmp	r3, #63
 3220 002c 00F2A180 		bhi	.L180
 876:./Hardware/hardware/oled.c **** 	
 877:./Hardware/hardware/oled.c **** 	/*将图像所在区域清空*/
 878:./Hardware/hardware/oled.c **** 	OLED_ClearArea(X, Y, Width, Height);
 3221              		.loc 1 878 2
 3222 0030 3B79     		ldrb	r3, [r7, #4]	@ zero_extendqisi2
 3223 0032 7A79     		ldrb	r2, [r7, #5]	@ zero_extendqisi2
 3224 0034 B979     		ldrb	r1, [r7, #6]	@ zero_extendqisi2
 3225 0036 F879     		ldrb	r0, [r7, #7]	@ zero_extendqisi2
 3226 0038 FFF7FEFF 		bl	OLED_ClearArea
 879:./Hardware/hardware/oled.c **** 	
 880:./Hardware/hardware/oled.c **** 	/*遍历指定图像涉及的相关页*/
 881:./Hardware/hardware/oled.c **** 	/*(Height - 1) / 8 + 1的目的是Height / 8并向上取整*/
 882:./Hardware/hardware/oled.c **** 	for (j = 0; j < (Height - 1) / 8 + 1; j ++)
 3227              		.loc 1 882 9
 3228 003c 0023     		movs	r3, #0
 3229 003e BB73     		strb	r3, [r7, #14]
 3230              		.loc 1 882 2
 3231 0040 89E0     		b	.L169
 3232              	.L178:
 883:./Hardware/hardware/oled.c **** 	{
 884:./Hardware/hardware/oled.c **** 		/*遍历指定图像涉及的相关列*/
 885:./Hardware/hardware/oled.c **** 		for (i = 0; i < Width; i ++)
 3233              		.loc 1 885 10
 3234 0042 0023     		movs	r3, #0
 3235 0044 FB73     		strb	r3, [r7, #15]
 3236              		.loc 1 885 3
 3237 0046 7CE0     		b	.L170
 3238              	.L176:
 886:./Hardware/hardware/oled.c **** 		{
 887:./Hardware/hardware/oled.c **** 			/*超出边界，则跳过显示*/
 888:./Hardware/hardware/oled.c **** 			if (X + i > 127) {break;}
 3239              		.loc 1 888 10
 3240 0048 FA79     		ldrb	r2, [r7, #7]	@ zero_extendqisi2
 3241 004a FB7B     		ldrb	r3, [r7, #15]	@ zero_extendqisi2
ARM GAS  C:\Users\86134\AppData\Local\Temp\ccyB0sod.s 			page 74


 3242 004c 1344     		add	r3, r3, r2
 3243              		.loc 1 888 7
 3244 004e 7F2B     		cmp	r3, #127
 3245 0050 7DDC     		bgt	.L181
 889:./Hardware/hardware/oled.c **** 			if (Y / 8 + j > 7) {return;}
 3246              		.loc 1 889 10
 3247 0052 BB79     		ldrb	r3, [r7, #6]	@ zero_extendqisi2
 3248 0054 DB08     		lsrs	r3, r3, #3
 3249 0056 DBB2     		uxtb	r3, r3
 3250 0058 1A46     		mov	r2, r3
 3251              		.loc 1 889 14
 3252 005a BB7B     		ldrb	r3, [r7, #14]	@ zero_extendqisi2
 3253 005c 1344     		add	r3, r3, r2
 3254              		.loc 1 889 7
 3255 005e 072B     		cmp	r3, #7
 3256 0060 00F38980 		bgt	.L182
 890:./Hardware/hardware/oled.c **** 			
 891:./Hardware/hardware/oled.c **** 			/*显示图像在当前页的内容*/
 892:./Hardware/hardware/oled.c **** 			OLED_DisplayBuf[Y / 8 + j][X + i] |= Image[j * Width + i] << (Y % 8);
 3257              		.loc 1 892 38
 3258 0064 BB79     		ldrb	r3, [r7, #6]	@ zero_extendqisi2
 3259 0066 DB08     		lsrs	r3, r3, #3
 3260 0068 D8B2     		uxtb	r0, r3
 3261 006a 0246     		mov	r2, r0
 3262 006c BB7B     		ldrb	r3, [r7, #14]	@ zero_extendqisi2
 3263 006e 1A44     		add	r2, r2, r3
 3264 0070 F979     		ldrb	r1, [r7, #7]	@ zero_extendqisi2
 3265 0072 FB7B     		ldrb	r3, [r7, #15]	@ zero_extendqisi2
 3266 0074 0B44     		add	r3, r3, r1
 3267 0076 4249     		ldr	r1, .L184
 3268 0078 D201     		lsls	r2, r2, #7
 3269 007a 0A44     		add	r2, r2, r1
 3270 007c 1344     		add	r3, r3, r2
 3271 007e 1B78     		ldrb	r3, [r3]	@ zero_extendqisi2
 3272 0080 5AB2     		sxtb	r2, r3
 3273              		.loc 1 892 49
 3274 0082 BB7B     		ldrb	r3, [r7, #14]	@ zero_extendqisi2
 3275 0084 7979     		ldrb	r1, [r7, #5]	@ zero_extendqisi2
 3276 0086 03FB01F1 		mul	r1, r3, r1
 3277              		.loc 1 892 57
 3278 008a FB7B     		ldrb	r3, [r7, #15]	@ zero_extendqisi2
 3279 008c 0B44     		add	r3, r3, r1
 3280 008e 1946     		mov	r1, r3
 3281              		.loc 1 892 46
 3282 0090 3B6A     		ldr	r3, [r7, #32]
 3283 0092 0B44     		add	r3, r3, r1
 3284 0094 1B78     		ldrb	r3, [r3]	@ zero_extendqisi2
 3285 0096 1946     		mov	r1, r3
 3286              		.loc 1 892 68
 3287 0098 BB79     		ldrb	r3, [r7, #6]	@ zero_extendqisi2
 3288 009a 03F00703 		and	r3, r3, #7
 3289              		.loc 1 892 62
 3290 009e 01FA03F3 		lsl	r3, r1, r3
 3291              		.loc 1 892 38
 3292 00a2 5BB2     		sxtb	r3, r3
 3293 00a4 1343     		orrs	r3, r3, r2
 3294 00a6 5CB2     		sxtb	r4, r3
ARM GAS  C:\Users\86134\AppData\Local\Temp\ccyB0sod.s 			page 75


 3295 00a8 0246     		mov	r2, r0
 3296 00aa BB7B     		ldrb	r3, [r7, #14]	@ zero_extendqisi2
 3297 00ac 1A44     		add	r2, r2, r3
 3298 00ae F979     		ldrb	r1, [r7, #7]	@ zero_extendqisi2
 3299 00b0 FB7B     		ldrb	r3, [r7, #15]	@ zero_extendqisi2
 3300 00b2 0B44     		add	r3, r3, r1
 3301 00b4 E0B2     		uxtb	r0, r4
 3302 00b6 3249     		ldr	r1, .L184
 3303 00b8 D201     		lsls	r2, r2, #7
 3304 00ba 0A44     		add	r2, r2, r1
 3305 00bc 1344     		add	r3, r3, r2
 3306 00be 0246     		mov	r2, r0
 3307 00c0 1A70     		strb	r2, [r3]
 893:./Hardware/hardware/oled.c **** 			
 894:./Hardware/hardware/oled.c **** 			/*超出边界，则跳过显示*/
 895:./Hardware/hardware/oled.c **** 			/*使用continue的目的是，下一页超出边界时，上一页的后续内容还需要继续显示*/
 896:./Hardware/hardware/oled.c **** 			if (Y / 8 + j + 1 > 7) {continue;}
 3308              		.loc 1 896 10
 3309 00c2 BB79     		ldrb	r3, [r7, #6]	@ zero_extendqisi2
 3310 00c4 DB08     		lsrs	r3, r3, #3
 3311 00c6 DBB2     		uxtb	r3, r3
 3312 00c8 1A46     		mov	r2, r3
 3313              		.loc 1 896 14
 3314 00ca BB7B     		ldrb	r3, [r7, #14]	@ zero_extendqisi2
 3315 00cc 1344     		add	r3, r3, r2
 3316              		.loc 1 896 7
 3317 00ce 062B     		cmp	r3, #6
 3318 00d0 33DC     		bgt	.L183
 897:./Hardware/hardware/oled.c **** 			
 898:./Hardware/hardware/oled.c **** 			/*显示图像在下一页的内容*/
 899:./Hardware/hardware/oled.c **** 			OLED_DisplayBuf[Y / 8 + j + 1][X + i] |= Image[j * Width + i] >> (8 - Y % 8);
 3319              		.loc 1 899 42
 3320 00d2 BB79     		ldrb	r3, [r7, #6]	@ zero_extendqisi2
 3321 00d4 DB08     		lsrs	r3, r3, #3
 3322 00d6 D8B2     		uxtb	r0, r3
 3323 00d8 0246     		mov	r2, r0
 3324 00da BB7B     		ldrb	r3, [r7, #14]	@ zero_extendqisi2
 3325 00dc 1344     		add	r3, r3, r2
 3326 00de 5A1C     		adds	r2, r3, #1
 3327 00e0 F979     		ldrb	r1, [r7, #7]	@ zero_extendqisi2
 3328 00e2 FB7B     		ldrb	r3, [r7, #15]	@ zero_extendqisi2
 3329 00e4 0B44     		add	r3, r3, r1
 3330 00e6 2649     		ldr	r1, .L184
 3331 00e8 D201     		lsls	r2, r2, #7
 3332 00ea 0A44     		add	r2, r2, r1
 3333 00ec 1344     		add	r3, r3, r2
 3334 00ee 1B78     		ldrb	r3, [r3]	@ zero_extendqisi2
 3335 00f0 5AB2     		sxtb	r2, r3
 3336              		.loc 1 899 53
 3337 00f2 BB7B     		ldrb	r3, [r7, #14]	@ zero_extendqisi2
 3338 00f4 7979     		ldrb	r1, [r7, #5]	@ zero_extendqisi2
 3339 00f6 03FB01F1 		mul	r1, r3, r1
 3340              		.loc 1 899 61
 3341 00fa FB7B     		ldrb	r3, [r7, #15]	@ zero_extendqisi2
 3342 00fc 0B44     		add	r3, r3, r1
 3343 00fe 1946     		mov	r1, r3
 3344              		.loc 1 899 50
ARM GAS  C:\Users\86134\AppData\Local\Temp\ccyB0sod.s 			page 76


 3345 0100 3B6A     		ldr	r3, [r7, #32]
 3346 0102 0B44     		add	r3, r3, r1
 3347 0104 1B78     		ldrb	r3, [r3]	@ zero_extendqisi2
 3348 0106 1946     		mov	r1, r3
 3349              		.loc 1 899 76
 3350 0108 BB79     		ldrb	r3, [r7, #6]	@ zero_extendqisi2
 3351 010a 03F00703 		and	r3, r3, #7
 3352              		.loc 1 899 72
 3353 010e C3F10803 		rsb	r3, r3, #8
 3354              		.loc 1 899 66
 3355 0112 41FA03F3 		asr	r3, r1, r3
 3356              		.loc 1 899 42
 3357 0116 5BB2     		sxtb	r3, r3
 3358 0118 1343     		orrs	r3, r3, r2
 3359 011a 5CB2     		sxtb	r4, r3
 3360 011c 0246     		mov	r2, r0
 3361 011e BB7B     		ldrb	r3, [r7, #14]	@ zero_extendqisi2
 3362 0120 1344     		add	r3, r3, r2
 3363 0122 5A1C     		adds	r2, r3, #1
 3364 0124 F979     		ldrb	r1, [r7, #7]	@ zero_extendqisi2
 3365 0126 FB7B     		ldrb	r3, [r7, #15]	@ zero_extendqisi2
 3366 0128 0B44     		add	r3, r3, r1
 3367 012a E0B2     		uxtb	r0, r4
 3368 012c 1449     		ldr	r1, .L184
 3369 012e D201     		lsls	r2, r2, #7
 3370 0130 0A44     		add	r2, r2, r1
 3371 0132 1344     		add	r3, r3, r2
 3372 0134 0246     		mov	r2, r0
 3373 0136 1A70     		strb	r2, [r3]
 3374 0138 00E0     		b	.L175
 3375              	.L183:
 896:./Hardware/hardware/oled.c **** 			
 3376              		.loc 1 896 4
 3377 013a 00BF     		nop
 3378              	.L175:
 885:./Hardware/hardware/oled.c **** 		{
 3379              		.loc 1 885 28 discriminator 2
 3380 013c FB7B     		ldrb	r3, [r7, #15]	@ zero_extendqisi2
 3381 013e 0133     		adds	r3, r3, #1
 3382 0140 FB73     		strb	r3, [r7, #15]
 3383              	.L170:
 885:./Hardware/hardware/oled.c **** 		{
 3384              		.loc 1 885 3 discriminator 1
 3385 0142 FA7B     		ldrb	r2, [r7, #15]	@ zero_extendqisi2
 3386 0144 7B79     		ldrb	r3, [r7, #5]	@ zero_extendqisi2
 3387 0146 9A42     		cmp	r2, r3
 3388 0148 FFF47EAF 		bcc	.L176
 3389 014c 00E0     		b	.L172
 3390              	.L181:
 888:./Hardware/hardware/oled.c **** 			if (Y / 8 + j > 7) {return;}
 3391              		.loc 1 888 4
 3392 014e 00BF     		nop
 3393              	.L172:
 882:./Hardware/hardware/oled.c **** 	{
 3394              		.loc 1 882 42 discriminator 2
 3395 0150 BB7B     		ldrb	r3, [r7, #14]	@ zero_extendqisi2
 3396 0152 0133     		adds	r3, r3, #1
ARM GAS  C:\Users\86134\AppData\Local\Temp\ccyB0sod.s 			page 77


 3397 0154 BB73     		strb	r3, [r7, #14]
 3398              	.L169:
 882:./Hardware/hardware/oled.c **** 	{
 3399              		.loc 1 882 26 discriminator 1
 3400 0156 3B79     		ldrb	r3, [r7, #4]	@ zero_extendqisi2
 3401 0158 013B     		subs	r3, r3, #1
 882:./Hardware/hardware/oled.c **** 	{
 3402              		.loc 1 882 31 discriminator 1
 3403 015a 002B     		cmp	r3, #0
 3404 015c 00DA     		bge	.L177
 3405 015e 0733     		adds	r3, r3, #7
 3406              	.L177:
 3407 0160 DB10     		asrs	r3, r3, #3
 3408 0162 1A46     		mov	r2, r3
 882:./Hardware/hardware/oled.c **** 	{
 3409              		.loc 1 882 16 discriminator 1
 3410 0164 BB7B     		ldrb	r3, [r7, #14]	@ zero_extendqisi2
 882:./Hardware/hardware/oled.c **** 	{
 3411              		.loc 1 882 2 discriminator 1
 3412 0166 9A42     		cmp	r2, r3
 3413 0168 BFF66BAF 		bge	.L178
 3414 016c 04E0     		b	.L165
 3415              	.L179:
 874:./Hardware/hardware/oled.c **** 	if (Y > 63) {return;}
 3416              		.loc 1 874 16
 3417 016e 00BF     		nop
 3418 0170 02E0     		b	.L165
 3419              	.L180:
 875:./Hardware/hardware/oled.c **** 	
 3420              		.loc 1 875 15
 3421 0172 00BF     		nop
 3422 0174 00E0     		b	.L165
 3423              	.L182:
 889:./Hardware/hardware/oled.c **** 			
 3424              		.loc 1 889 24
 3425 0176 00BF     		nop
 3426              	.L165:
 900:./Hardware/hardware/oled.c **** 		}
 901:./Hardware/hardware/oled.c **** 	}
 902:./Hardware/hardware/oled.c **** }
 3427              		.loc 1 902 1
 3428 0178 1437     		adds	r7, r7, #20
 3429              	.LCFI145:
 3430              		.cfi_def_cfa_offset 12
 3431 017a BD46     		mov	sp, r7
 3432              	.LCFI146:
 3433              		.cfi_def_cfa_register 13
 3434              		@ sp needed
 3435 017c 90BD     		pop	{r4, r7, pc}
 3436              	.L185:
 3437 017e 00BF     		.align	2
 3438              	.L184:
 3439 0180 00000000 		.word	OLED_DisplayBuf
 3440              		.cfi_endproc
 3441              	.LFE61:
 3443              		.section	.text.OLED_Printf,"ax",%progbits
 3444              		.align	1
ARM GAS  C:\Users\86134\AppData\Local\Temp\ccyB0sod.s 			page 78


 3445              		.global	OLED_Printf
 3446              		.syntax unified
 3447              		.thumb
 3448              		.thumb_func
 3449              		.fpu softvfp
 3451              	OLED_Printf:
 3452              	.LFB62:
 903:./Hardware/hardware/oled.c **** 
 904:./Hardware/hardware/oled.c **** /**
 905:./Hardware/hardware/oled.c ****   * 函    数：OLED使用printf函数打印格式化字符串
 906:./Hardware/hardware/oled.c ****   * 参    数：X 指定格式化字符串左上角的横坐标，范围：0~127
 907:./Hardware/hardware/oled.c ****   * 参    数：Y 指定格式化字符串左上角的纵坐标，范围：0~63
 908:./Hardware/hardware/oled.c ****   * 参    数：FontSize 指定字体大小
 909:./Hardware/hardware/oled.c ****   *           范围：OLED_8X16		宽8像素，高16像素
 910:./Hardware/hardware/oled.c ****   *                 OLED_6X8		宽6像素，高8像素
 911:./Hardware/hardware/oled.c ****   * 参    数：format 指定要显示的格式化字符串，范围：ASCII码可见字符组成的字符串
 912:./Hardware/hardware/oled.c ****   * 参    数：... 格式化字符串参数列表
 913:./Hardware/hardware/oled.c ****   * 返 回 值：无
 914:./Hardware/hardware/oled.c ****   * 说    明：调用此函数后，要想真正地呈现在屏幕上，还需调用更新函数
 915:./Hardware/hardware/oled.c ****   */
 916:./Hardware/hardware/oled.c **** void OLED_Printf(uint8_t X, uint8_t Y, uint8_t FontSize, char *format, ...)
 917:./Hardware/hardware/oled.c **** {
 3453              		.loc 1 917 1
 3454              		.cfi_startproc
 3455              		@ args = 4, pretend = 4, frame = 48
 3456              		@ frame_needed = 1, uses_anonymous_args = 1
 3457 0000 08B4     		push	{r3}
 3458              	.LCFI147:
 3459              		.cfi_def_cfa_offset 4
 3460              		.cfi_offset 3, -4
 3461 0002 80B5     		push	{r7, lr}
 3462              	.LCFI148:
 3463              		.cfi_def_cfa_offset 12
 3464              		.cfi_offset 7, -12
 3465              		.cfi_offset 14, -8
 3466 0004 8DB0     		sub	sp, sp, #52
 3467              	.LCFI149:
 3468              		.cfi_def_cfa_offset 64
 3469 0006 00AF     		add	r7, sp, #0
 3470              	.LCFI150:
 3471              		.cfi_def_cfa_register 7
 3472 0008 0346     		mov	r3, r0
 3473 000a FB71     		strb	r3, [r7, #7]
 3474 000c 0B46     		mov	r3, r1
 3475 000e BB71     		strb	r3, [r7, #6]
 3476 0010 1346     		mov	r3, r2
 3477 0012 7B71     		strb	r3, [r7, #5]
 918:./Hardware/hardware/oled.c **** 	char String[30];						//定义字符数组
 919:./Hardware/hardware/oled.c **** 	va_list arg;							//定义可变参数列表数据类型的变量arg
 920:./Hardware/hardware/oled.c **** 	va_start(arg, format);					//从format开始，接收参数列表到arg变量
 3478              		.loc 1 920 2
 3479 0014 07F14003 		add	r3, r7, #64
 3480 0018 FB60     		str	r3, [r7, #12]
 921:./Hardware/hardware/oled.c **** 	vsprintf(String, format, arg);			//使用vsprintf打印格式化字符串和参数列表到字符数组中
 3481              		.loc 1 921 2
 3482 001a 07F11003 		add	r3, r7, #16
 3483 001e FA68     		ldr	r2, [r7, #12]
ARM GAS  C:\Users\86134\AppData\Local\Temp\ccyB0sod.s 			page 79


 3484 0020 F96B     		ldr	r1, [r7, #60]
 3485 0022 1846     		mov	r0, r3
 3486 0024 FFF7FEFF 		bl	vsprintf
 922:./Hardware/hardware/oled.c **** 	va_end(arg);							//结束变量arg
 923:./Hardware/hardware/oled.c **** 	OLED_ShowString(X, Y, String, FontSize);//OLED显示字符数组（字符串）
 3487              		.loc 1 923 2
 3488 0028 7B79     		ldrb	r3, [r7, #5]	@ zero_extendqisi2
 3489 002a 07F11002 		add	r2, r7, #16
 3490 002e B979     		ldrb	r1, [r7, #6]	@ zero_extendqisi2
 3491 0030 F879     		ldrb	r0, [r7, #7]	@ zero_extendqisi2
 3492 0032 FFF7FEFF 		bl	OLED_ShowString
 924:./Hardware/hardware/oled.c **** }
 3493              		.loc 1 924 1
 3494 0036 00BF     		nop
 3495 0038 3437     		adds	r7, r7, #52
 3496              	.LCFI151:
 3497              		.cfi_def_cfa_offset 12
 3498 003a BD46     		mov	sp, r7
 3499              	.LCFI152:
 3500              		.cfi_def_cfa_register 13
 3501              		@ sp needed
 3502 003c BDE88040 		pop	{r7, lr}
 3503              	.LCFI153:
 3504              		.cfi_restore 14
 3505              		.cfi_restore 7
 3506              		.cfi_def_cfa_offset 4
 3507 0040 01B0     		add	sp, sp, #4
 3508              	.LCFI154:
 3509              		.cfi_restore 3
 3510              		.cfi_def_cfa_offset 0
 3511 0042 7047     		bx	lr
 3512              		.cfi_endproc
 3513              	.LFE62:
 3515              		.section	.text.OLED_DrawPoint,"ax",%progbits
 3516              		.align	1
 3517              		.global	OLED_DrawPoint
 3518              		.syntax unified
 3519              		.thumb
 3520              		.thumb_func
 3521              		.fpu softvfp
 3523              	OLED_DrawPoint:
 3524              	.LFB63:
 925:./Hardware/hardware/oled.c **** 
 926:./Hardware/hardware/oled.c **** /**
 927:./Hardware/hardware/oled.c ****   * 函    数：OLED在指定位置画一个点
 928:./Hardware/hardware/oled.c ****   * 参    数：X 指定点的横坐标，范围：0~127
 929:./Hardware/hardware/oled.c ****   * 参    数：Y 指定点的纵坐标，范围：0~63
 930:./Hardware/hardware/oled.c ****   * 返 回 值：无
 931:./Hardware/hardware/oled.c ****   * 说    明：调用此函数后，要想真正地呈现在屏幕上，还需调用更新函数
 932:./Hardware/hardware/oled.c ****   */
 933:./Hardware/hardware/oled.c **** void OLED_DrawPoint(uint8_t X, uint8_t Y)
 934:./Hardware/hardware/oled.c **** {
 3525              		.loc 1 934 1
 3526              		.cfi_startproc
 3527              		@ args = 0, pretend = 0, frame = 8
 3528              		@ frame_needed = 1, uses_anonymous_args = 0
 3529              		@ link register save eliminated.
ARM GAS  C:\Users\86134\AppData\Local\Temp\ccyB0sod.s 			page 80


 3530 0000 80B4     		push	{r7}
 3531              	.LCFI155:
 3532              		.cfi_def_cfa_offset 4
 3533              		.cfi_offset 7, -4
 3534 0002 83B0     		sub	sp, sp, #12
 3535              	.LCFI156:
 3536              		.cfi_def_cfa_offset 16
 3537 0004 00AF     		add	r7, sp, #0
 3538              	.LCFI157:
 3539              		.cfi_def_cfa_register 7
 3540 0006 0346     		mov	r3, r0
 3541 0008 0A46     		mov	r2, r1
 3542 000a FB71     		strb	r3, [r7, #7]
 3543 000c 1346     		mov	r3, r2
 3544 000e BB71     		strb	r3, [r7, #6]
 935:./Hardware/hardware/oled.c **** 	/*参数检查，保证指定位置不会超出屏幕范围*/
 936:./Hardware/hardware/oled.c **** 	if (X > 127) {return;}
 3545              		.loc 1 936 8
 3546 0010 97F90730 		ldrsb	r3, [r7, #7]
 3547              		.loc 1 936 5
 3548 0014 002B     		cmp	r3, #0
 3549 0016 20DB     		blt	.L191
 937:./Hardware/hardware/oled.c **** 	if (Y > 63) {return;}
 3550              		.loc 1 937 5
 3551 0018 BB79     		ldrb	r3, [r7, #6]	@ zero_extendqisi2
 3552 001a 3F2B     		cmp	r3, #63
 3553 001c 1FD8     		bhi	.L192
 938:./Hardware/hardware/oled.c **** 	
 939:./Hardware/hardware/oled.c **** 	/*将显存数组指定位置的一个Bit数据置1*/
 940:./Hardware/hardware/oled.c **** 	OLED_DisplayBuf[Y / 8][X] |= 0x01 << (Y % 8);
 3554              		.loc 1 940 28
 3555 001e BB79     		ldrb	r3, [r7, #6]	@ zero_extendqisi2
 3556 0020 DB08     		lsrs	r3, r3, #3
 3557 0022 D8B2     		uxtb	r0, r3
 3558 0024 0246     		mov	r2, r0
 3559 0026 FB79     		ldrb	r3, [r7, #7]	@ zero_extendqisi2
 3560 0028 0F49     		ldr	r1, .L193
 3561 002a D201     		lsls	r2, r2, #7
 3562 002c 0A44     		add	r2, r2, r1
 3563 002e 1344     		add	r3, r3, r2
 3564 0030 1B78     		ldrb	r3, [r3]	@ zero_extendqisi2
 3565 0032 5AB2     		sxtb	r2, r3
 3566              		.loc 1 940 42
 3567 0034 BB79     		ldrb	r3, [r7, #6]	@ zero_extendqisi2
 3568 0036 03F00703 		and	r3, r3, #7
 3569              		.loc 1 940 36
 3570 003a 0121     		movs	r1, #1
 3571 003c 01FA03F3 		lsl	r3, r1, r3
 3572              		.loc 1 940 28
 3573 0040 5BB2     		sxtb	r3, r3
 3574 0042 1343     		orrs	r3, r3, r2
 3575 0044 59B2     		sxtb	r1, r3
 3576 0046 0246     		mov	r2, r0
 3577 0048 FB79     		ldrb	r3, [r7, #7]	@ zero_extendqisi2
 3578 004a C8B2     		uxtb	r0, r1
 3579 004c 0649     		ldr	r1, .L193
 3580 004e D201     		lsls	r2, r2, #7
ARM GAS  C:\Users\86134\AppData\Local\Temp\ccyB0sod.s 			page 81


 3581 0050 0A44     		add	r2, r2, r1
 3582 0052 1344     		add	r3, r3, r2
 3583 0054 0246     		mov	r2, r0
 3584 0056 1A70     		strb	r2, [r3]
 3585 0058 02E0     		b	.L187
 3586              	.L191:
 936:./Hardware/hardware/oled.c **** 	if (Y > 63) {return;}
 3587              		.loc 1 936 16
 3588 005a 00BF     		nop
 3589 005c 00E0     		b	.L187
 3590              	.L192:
 937:./Hardware/hardware/oled.c **** 	if (Y > 63) {return;}
 3591              		.loc 1 937 15
 3592 005e 00BF     		nop
 3593              	.L187:
 941:./Hardware/hardware/oled.c **** }
 3594              		.loc 1 941 1
 3595 0060 0C37     		adds	r7, r7, #12
 3596              	.LCFI158:
 3597              		.cfi_def_cfa_offset 4
 3598 0062 BD46     		mov	sp, r7
 3599              	.LCFI159:
 3600              		.cfi_def_cfa_register 13
 3601              		@ sp needed
 3602 0064 80BC     		pop	{r7}
 3603              	.LCFI160:
 3604              		.cfi_restore 7
 3605              		.cfi_def_cfa_offset 0
 3606 0066 7047     		bx	lr
 3607              	.L194:
 3608              		.align	2
 3609              	.L193:
 3610 0068 00000000 		.word	OLED_DisplayBuf
 3611              		.cfi_endproc
 3612              	.LFE63:
 3614              		.section	.text.OLED_GetPoint,"ax",%progbits
 3615              		.align	1
 3616              		.global	OLED_GetPoint
 3617              		.syntax unified
 3618              		.thumb
 3619              		.thumb_func
 3620              		.fpu softvfp
 3622              	OLED_GetPoint:
 3623              	.LFB64:
 942:./Hardware/hardware/oled.c **** 
 943:./Hardware/hardware/oled.c **** /**
 944:./Hardware/hardware/oled.c ****   * 函    数：OLED获取指定位置点的值
 945:./Hardware/hardware/oled.c ****   * 参    数：X 指定点的横坐标，范围：0~127
 946:./Hardware/hardware/oled.c ****   * 参    数：Y 指定点的纵坐标，范围：0~63
 947:./Hardware/hardware/oled.c ****   * 返 回 值：指定位置点是否处于点亮状态，1：点亮，0：熄灭
 948:./Hardware/hardware/oled.c ****   */
 949:./Hardware/hardware/oled.c **** uint8_t OLED_GetPoint(uint8_t X, uint8_t Y)
 950:./Hardware/hardware/oled.c **** {
 3624              		.loc 1 950 1
 3625              		.cfi_startproc
 3626              		@ args = 0, pretend = 0, frame = 8
 3627              		@ frame_needed = 1, uses_anonymous_args = 0
ARM GAS  C:\Users\86134\AppData\Local\Temp\ccyB0sod.s 			page 82


 3628              		@ link register save eliminated.
 3629 0000 80B4     		push	{r7}
 3630              	.LCFI161:
 3631              		.cfi_def_cfa_offset 4
 3632              		.cfi_offset 7, -4
 3633 0002 83B0     		sub	sp, sp, #12
 3634              	.LCFI162:
 3635              		.cfi_def_cfa_offset 16
 3636 0004 00AF     		add	r7, sp, #0
 3637              	.LCFI163:
 3638              		.cfi_def_cfa_register 7
 3639 0006 0346     		mov	r3, r0
 3640 0008 0A46     		mov	r2, r1
 3641 000a FB71     		strb	r3, [r7, #7]
 3642 000c 1346     		mov	r3, r2
 3643 000e BB71     		strb	r3, [r7, #6]
 951:./Hardware/hardware/oled.c **** 	/*参数检查，保证指定位置不会超出屏幕范围*/
 952:./Hardware/hardware/oled.c **** 	if (X > 127) {return 0;}
 3644              		.loc 1 952 8
 3645 0010 97F90730 		ldrsb	r3, [r7, #7]
 3646              		.loc 1 952 5
 3647 0014 002B     		cmp	r3, #0
 3648 0016 01DA     		bge	.L196
 3649              		.loc 1 952 23 discriminator 1
 3650 0018 0023     		movs	r3, #0
 3651 001a 1BE0     		b	.L197
 3652              	.L196:
 953:./Hardware/hardware/oled.c **** 	if (Y > 63) {return 0;}
 3653              		.loc 1 953 5
 3654 001c BB79     		ldrb	r3, [r7, #6]	@ zero_extendqisi2
 3655 001e 3F2B     		cmp	r3, #63
 3656 0020 01D9     		bls	.L198
 3657              		.loc 1 953 22 discriminator 1
 3658 0022 0023     		movs	r3, #0
 3659 0024 16E0     		b	.L197
 3660              	.L198:
 954:./Hardware/hardware/oled.c **** 	
 955:./Hardware/hardware/oled.c **** 	/*判断指定位置的数据*/
 956:./Hardware/hardware/oled.c **** 	if (OLED_DisplayBuf[Y / 8][X] & 0x01 << (Y % 8))
 3661              		.loc 1 956 24
 3662 0026 BB79     		ldrb	r3, [r7, #6]	@ zero_extendqisi2
 3663 0028 DB08     		lsrs	r3, r3, #3
 3664 002a DBB2     		uxtb	r3, r3
 3665 002c 1A46     		mov	r2, r3
 3666              		.loc 1 956 28
 3667 002e FB79     		ldrb	r3, [r7, #7]	@ zero_extendqisi2
 3668 0030 0B49     		ldr	r1, .L200
 3669 0032 D201     		lsls	r2, r2, #7
 3670 0034 0A44     		add	r2, r2, r1
 3671 0036 1344     		add	r3, r3, r2
 3672 0038 1B78     		ldrb	r3, [r3]	@ zero_extendqisi2
 3673 003a 1A46     		mov	r2, r3
 3674              		.loc 1 956 45
 3675 003c BB79     		ldrb	r3, [r7, #6]	@ zero_extendqisi2
 3676 003e 03F00703 		and	r3, r3, #7
 3677              		.loc 1 956 6
 3678 0042 42FA03F3 		asr	r3, r2, r3
ARM GAS  C:\Users\86134\AppData\Local\Temp\ccyB0sod.s 			page 83


 3679 0046 03F00103 		and	r3, r3, #1
 3680              		.loc 1 956 5
 3681 004a 002B     		cmp	r3, #0
 3682 004c 01D0     		beq	.L199
 957:./Hardware/hardware/oled.c **** 	{
 958:./Hardware/hardware/oled.c **** 		return 1;	//为1，返回1
 3683              		.loc 1 958 10
 3684 004e 0123     		movs	r3, #1
 3685 0050 00E0     		b	.L197
 3686              	.L199:
 959:./Hardware/hardware/oled.c **** 	}
 960:./Hardware/hardware/oled.c **** 	
 961:./Hardware/hardware/oled.c **** 	return 0;		//否则，返回0
 3687              		.loc 1 961 9
 3688 0052 0023     		movs	r3, #0
 3689              	.L197:
 962:./Hardware/hardware/oled.c **** }
 3690              		.loc 1 962 1
 3691 0054 1846     		mov	r0, r3
 3692 0056 0C37     		adds	r7, r7, #12
 3693              	.LCFI164:
 3694              		.cfi_def_cfa_offset 4
 3695 0058 BD46     		mov	sp, r7
 3696              	.LCFI165:
 3697              		.cfi_def_cfa_register 13
 3698              		@ sp needed
 3699 005a 80BC     		pop	{r7}
 3700              	.LCFI166:
 3701              		.cfi_restore 7
 3702              		.cfi_def_cfa_offset 0
 3703 005c 7047     		bx	lr
 3704              	.L201:
 3705 005e 00BF     		.align	2
 3706              	.L200:
 3707 0060 00000000 		.word	OLED_DisplayBuf
 3708              		.cfi_endproc
 3709              	.LFE64:
 3711              		.section	.text.OLED_DrawLine,"ax",%progbits
 3712              		.align	1
 3713              		.global	OLED_DrawLine
 3714              		.syntax unified
 3715              		.thumb
 3716              		.thumb_func
 3717              		.fpu softvfp
 3719              	OLED_DrawLine:
 3720              	.LFB65:
 963:./Hardware/hardware/oled.c **** 
 964:./Hardware/hardware/oled.c **** /**
 965:./Hardware/hardware/oled.c ****   * 函    数：OLED画线
 966:./Hardware/hardware/oled.c ****   * 参    数：X0 指定一个端点的横坐标，范围：0~127
 967:./Hardware/hardware/oled.c ****   * 参    数：Y0 指定一个端点的纵坐标，范围：0~63
 968:./Hardware/hardware/oled.c ****   * 参    数：X1 指定另一个端点的横坐标，范围：0~127
 969:./Hardware/hardware/oled.c ****   * 参    数：Y1 指定另一个端点的纵坐标，范围：0~63
 970:./Hardware/hardware/oled.c ****   * 返 回 值：无
 971:./Hardware/hardware/oled.c ****   * 说    明：调用此函数后，要想真正地呈现在屏幕上，还需调用更新函数
 972:./Hardware/hardware/oled.c ****   */
 973:./Hardware/hardware/oled.c **** void OLED_DrawLine(uint8_t X0, uint8_t Y0, uint8_t X1, uint8_t Y1)
ARM GAS  C:\Users\86134\AppData\Local\Temp\ccyB0sod.s 			page 84


 974:./Hardware/hardware/oled.c **** {
 3721              		.loc 1 974 1
 3722              		.cfi_startproc
 3723              		@ args = 0, pretend = 0, frame = 40
 3724              		@ frame_needed = 1, uses_anonymous_args = 0
 3725 0000 90B5     		push	{r4, r7, lr}
 3726              	.LCFI167:
 3727              		.cfi_def_cfa_offset 12
 3728              		.cfi_offset 4, -12
 3729              		.cfi_offset 7, -8
 3730              		.cfi_offset 14, -4
 3731 0002 8BB0     		sub	sp, sp, #44
 3732              	.LCFI168:
 3733              		.cfi_def_cfa_offset 56
 3734 0004 00AF     		add	r7, sp, #0
 3735              	.LCFI169:
 3736              		.cfi_def_cfa_register 7
 3737 0006 0446     		mov	r4, r0
 3738 0008 0846     		mov	r0, r1
 3739 000a 1146     		mov	r1, r2
 3740 000c 1A46     		mov	r2, r3
 3741 000e 2346     		mov	r3, r4
 3742 0010 FB71     		strb	r3, [r7, #7]
 3743 0012 0346     		mov	r3, r0
 3744 0014 BB71     		strb	r3, [r7, #6]
 3745 0016 0B46     		mov	r3, r1
 3746 0018 7B71     		strb	r3, [r7, #5]
 3747 001a 1346     		mov	r3, r2
 3748 001c 3B71     		strb	r3, [r7, #4]
 975:./Hardware/hardware/oled.c **** 	int16_t x, y, dx, dy, d, incrE, incrNE, temp;
 976:./Hardware/hardware/oled.c **** 	int16_t x0 = X0, y0 = Y0, x1 = X1, y1 = Y1;
 3749              		.loc 1 976 10
 3750 001e FB79     		ldrb	r3, [r7, #7]	@ zero_extendqisi2
 3751 0020 3B84     		strh	r3, [r7, #32]	@ movhi
 3752              		.loc 1 976 19
 3753 0022 BB79     		ldrb	r3, [r7, #6]	@ zero_extendqisi2
 3754 0024 FB83     		strh	r3, [r7, #30]	@ movhi
 3755              		.loc 1 976 28
 3756 0026 7B79     		ldrb	r3, [r7, #5]	@ zero_extendqisi2
 3757 0028 BB83     		strh	r3, [r7, #28]	@ movhi
 3758              		.loc 1 976 37
 3759 002a 3B79     		ldrb	r3, [r7, #4]	@ zero_extendqisi2
 3760 002c 7B83     		strh	r3, [r7, #26]	@ movhi
 977:./Hardware/hardware/oled.c **** 	uint8_t yflag = 0, xyflag = 0;
 3761              		.loc 1 977 10
 3762 002e 0023     		movs	r3, #0
 3763 0030 7B76     		strb	r3, [r7, #25]
 3764              		.loc 1 977 21
 3765 0032 0023     		movs	r3, #0
 3766 0034 3B76     		strb	r3, [r7, #24]
 978:./Hardware/hardware/oled.c **** 	
 979:./Hardware/hardware/oled.c **** 	if (y0 == y1)		//横线单独处理
 3767              		.loc 1 979 5
 3768 0036 B7F91E20 		ldrsh	r2, [r7, #30]
 3769 003a B7F91A30 		ldrsh	r3, [r7, #26]
 3770 003e 9A42     		cmp	r2, r3
 3771 0040 23D1     		bne	.L203
ARM GAS  C:\Users\86134\AppData\Local\Temp\ccyB0sod.s 			page 85


 980:./Hardware/hardware/oled.c **** 	{
 981:./Hardware/hardware/oled.c **** 		/*0号点X坐标大于1号点X坐标，则交换两点X坐标*/
 982:./Hardware/hardware/oled.c **** 		if (x0 > x1) {temp = x0; x0 = x1; x1 = temp;}
 3772              		.loc 1 982 6
 3773 0042 B7F92020 		ldrsh	r2, [r7, #32]
 3774 0046 B7F91C30 		ldrsh	r3, [r7, #28]
 3775 004a 9A42     		cmp	r2, r3
 3776 004c 05DD     		ble	.L204
 3777              		.loc 1 982 22 discriminator 1
 3778 004e 3B8C     		ldrh	r3, [r7, #32]	@ movhi
 3779 0050 FB82     		strh	r3, [r7, #22]	@ movhi
 3780              		.loc 1 982 31 discriminator 1
 3781 0052 BB8B     		ldrh	r3, [r7, #28]	@ movhi
 3782 0054 3B84     		strh	r3, [r7, #32]	@ movhi
 3783              		.loc 1 982 40 discriminator 1
 3784 0056 FB8A     		ldrh	r3, [r7, #22]	@ movhi
 3785 0058 BB83     		strh	r3, [r7, #28]	@ movhi
 3786              	.L204:
 983:./Hardware/hardware/oled.c **** 		
 984:./Hardware/hardware/oled.c **** 		/*遍历X坐标*/
 985:./Hardware/hardware/oled.c **** 		for (x = x0; x <= x1; x ++)
 3787              		.loc 1 985 10
 3788 005a 3B8C     		ldrh	r3, [r7, #32]	@ movhi
 3789 005c FB84     		strh	r3, [r7, #38]	@ movhi
 3790              		.loc 1 985 3
 3791 005e 0DE0     		b	.L205
 3792              	.L206:
 986:./Hardware/hardware/oled.c **** 		{
 987:./Hardware/hardware/oled.c **** 			OLED_DrawPoint(x, y0);	//依次画点
 3793              		.loc 1 987 4 discriminator 3
 3794 0060 FB8C     		ldrh	r3, [r7, #38]	@ movhi
 3795 0062 DBB2     		uxtb	r3, r3
 3796 0064 FA8B     		ldrh	r2, [r7, #30]	@ movhi
 3797 0066 D2B2     		uxtb	r2, r2
 3798 0068 1146     		mov	r1, r2
 3799 006a 1846     		mov	r0, r3
 3800 006c FFF7FEFF 		bl	OLED_DrawPoint
 985:./Hardware/hardware/oled.c **** 		{
 3801              		.loc 1 985 27 discriminator 3
 3802 0070 B7F92630 		ldrsh	r3, [r7, #38]
 3803 0074 9BB2     		uxth	r3, r3
 3804 0076 0133     		adds	r3, r3, #1
 3805 0078 9BB2     		uxth	r3, r3
 3806 007a FB84     		strh	r3, [r7, #38]	@ movhi
 3807              	.L205:
 985:./Hardware/hardware/oled.c **** 		{
 3808              		.loc 1 985 3 discriminator 1
 3809 007c B7F92620 		ldrsh	r2, [r7, #38]
 3810 0080 B7F91C30 		ldrsh	r3, [r7, #28]
 3811 0084 9A42     		cmp	r2, r3
 3812 0086 EBDD     		ble	.L206
 988:./Hardware/hardware/oled.c **** 		}
 989:./Hardware/hardware/oled.c **** 	}
 990:./Hardware/hardware/oled.c **** 	else if (x0 == x1)	//竖线单独处理
 991:./Hardware/hardware/oled.c **** 	{
 992:./Hardware/hardware/oled.c **** 		/*0号点Y坐标大于1号点Y坐标，则交换两点Y坐标*/
 993:./Hardware/hardware/oled.c **** 		if (y0 > y1) {temp = y0; y0 = y1; y1 = temp;}
ARM GAS  C:\Users\86134\AppData\Local\Temp\ccyB0sod.s 			page 86


 994:./Hardware/hardware/oled.c **** 		
 995:./Hardware/hardware/oled.c **** 		/*遍历Y坐标*/
 996:./Hardware/hardware/oled.c **** 		for (y = y0; y <= y1; y ++)
 997:./Hardware/hardware/oled.c **** 		{
 998:./Hardware/hardware/oled.c **** 			OLED_DrawPoint(x0, y);	//依次画点
 999:./Hardware/hardware/oled.c **** 		}
1000:./Hardware/hardware/oled.c **** 	}
1001:./Hardware/hardware/oled.c **** 	else				//斜线
1002:./Hardware/hardware/oled.c **** 	{
1003:./Hardware/hardware/oled.c **** 		/*使用Bresenham算法画直线，可以避免耗时的浮点运算，效率更高*/
1004:./Hardware/hardware/oled.c **** 		/*参考文档：https://www.cs.montana.edu/courses/spring2009/425/dslectures/Bresenham.pdf*/
1005:./Hardware/hardware/oled.c **** 		/*参考教程：https://www.bilibili.com/video/BV1364y1d7Lo*/
1006:./Hardware/hardware/oled.c **** 		
1007:./Hardware/hardware/oled.c **** 		if (x0 > x1)	//0号点X坐标大于1号点X坐标
1008:./Hardware/hardware/oled.c **** 		{
1009:./Hardware/hardware/oled.c **** 			/*交换两点坐标*/
1010:./Hardware/hardware/oled.c **** 			/*交换后不影响画线，但是画线方向由第一、二、三、四象限变为第一、四象限*/
1011:./Hardware/hardware/oled.c **** 			temp = x0; x0 = x1; x1 = temp;
1012:./Hardware/hardware/oled.c **** 			temp = y0; y0 = y1; y1 = temp;
1013:./Hardware/hardware/oled.c **** 		}
1014:./Hardware/hardware/oled.c **** 		
1015:./Hardware/hardware/oled.c **** 		if (y0 > y1)	//0号点Y坐标大于1号点Y坐标
1016:./Hardware/hardware/oled.c **** 		{
1017:./Hardware/hardware/oled.c **** 			/*将Y坐标取负*/
1018:./Hardware/hardware/oled.c **** 			/*取负后影响画线，但是画线方向由第一、四象限变为第一象限*/
1019:./Hardware/hardware/oled.c **** 			y0 = -y0;
1020:./Hardware/hardware/oled.c **** 			y1 = -y1;
1021:./Hardware/hardware/oled.c **** 			
1022:./Hardware/hardware/oled.c **** 			/*置标志位yflag，记住当前变换，在后续实际画线时，再将坐标换回来*/
1023:./Hardware/hardware/oled.c **** 			yflag = 1;
1024:./Hardware/hardware/oled.c **** 		}
1025:./Hardware/hardware/oled.c **** 		
1026:./Hardware/hardware/oled.c **** 		if (y1 - y0 > x1 - x0)	//画线斜率大于1
1027:./Hardware/hardware/oled.c **** 		{
1028:./Hardware/hardware/oled.c **** 			/*将X坐标与Y坐标互换*/
1029:./Hardware/hardware/oled.c **** 			/*互换后影响画线，但是画线方向由第一象限0~90度范围变为第一象限0~45度范围*/
1030:./Hardware/hardware/oled.c **** 			temp = x0; x0 = y0; y0 = temp;
1031:./Hardware/hardware/oled.c **** 			temp = x1; x1 = y1; y1 = temp;
1032:./Hardware/hardware/oled.c **** 			
1033:./Hardware/hardware/oled.c **** 			/*置标志位xyflag，记住当前变换，在后续实际画线时，再将坐标换回来*/
1034:./Hardware/hardware/oled.c **** 			xyflag = 1;
1035:./Hardware/hardware/oled.c **** 		}
1036:./Hardware/hardware/oled.c **** 		
1037:./Hardware/hardware/oled.c **** 		/*以下为Bresenham算法画直线*/
1038:./Hardware/hardware/oled.c **** 		/*算法要求，画线方向必须为第一象限0~45度范围*/
1039:./Hardware/hardware/oled.c **** 		dx = x1 - x0;
1040:./Hardware/hardware/oled.c **** 		dy = y1 - y0;
1041:./Hardware/hardware/oled.c **** 		incrE = 2 * dy;
1042:./Hardware/hardware/oled.c **** 		incrNE = 2 * (dy - dx);
1043:./Hardware/hardware/oled.c **** 		d = 2 * dy - dx;
1044:./Hardware/hardware/oled.c **** 		x = x0;
1045:./Hardware/hardware/oled.c **** 		y = y0;
1046:./Hardware/hardware/oled.c **** 		
1047:./Hardware/hardware/oled.c **** 		/*画起始点，同时判断标志位，将坐标换回来*/
1048:./Hardware/hardware/oled.c **** 		if (yflag && xyflag){OLED_DrawPoint(y, -x);}
1049:./Hardware/hardware/oled.c **** 		else if (yflag)		{OLED_DrawPoint(x, -y);}
1050:./Hardware/hardware/oled.c **** 		else if (xyflag)	{OLED_DrawPoint(y, x);}
ARM GAS  C:\Users\86134\AppData\Local\Temp\ccyB0sod.s 			page 87


1051:./Hardware/hardware/oled.c **** 		else				{OLED_DrawPoint(x, y);}
1052:./Hardware/hardware/oled.c **** 		
1053:./Hardware/hardware/oled.c **** 		while (x < x1)		//遍历X轴的每个点
1054:./Hardware/hardware/oled.c **** 		{
1055:./Hardware/hardware/oled.c **** 			x ++;
1056:./Hardware/hardware/oled.c **** 			if (d < 0)		//下一个点在当前点东方
1057:./Hardware/hardware/oled.c **** 			{
1058:./Hardware/hardware/oled.c **** 				d += incrE;
1059:./Hardware/hardware/oled.c **** 			}
1060:./Hardware/hardware/oled.c **** 			else			//下一个点在当前点东北方
1061:./Hardware/hardware/oled.c **** 			{
1062:./Hardware/hardware/oled.c **** 				y ++;
1063:./Hardware/hardware/oled.c **** 				d += incrNE;
1064:./Hardware/hardware/oled.c **** 			}
1065:./Hardware/hardware/oled.c **** 			
1066:./Hardware/hardware/oled.c **** 			/*画每一个点，同时判断标志位，将坐标换回来*/
1067:./Hardware/hardware/oled.c **** 			if (yflag && xyflag){OLED_DrawPoint(y, -x);}
1068:./Hardware/hardware/oled.c **** 			else if (yflag)		{OLED_DrawPoint(x, -y);}
1069:./Hardware/hardware/oled.c **** 			else if (xyflag)	{OLED_DrawPoint(y, x);}
1070:./Hardware/hardware/oled.c **** 			else				{OLED_DrawPoint(x, y);}
1071:./Hardware/hardware/oled.c **** 		}	
1072:./Hardware/hardware/oled.c **** 	}
1073:./Hardware/hardware/oled.c **** }
 3813              		.loc 1 1073 1
 3814 0088 0FE1     		b	.L226
 3815              	.L203:
 990:./Hardware/hardware/oled.c **** 	{
 3816              		.loc 1 990 10
 3817 008a B7F92020 		ldrsh	r2, [r7, #32]
 3818 008e B7F91C30 		ldrsh	r3, [r7, #28]
 3819 0092 9A42     		cmp	r2, r3
 3820 0094 23D1     		bne	.L208
 993:./Hardware/hardware/oled.c **** 		
 3821              		.loc 1 993 6
 3822 0096 B7F91E20 		ldrsh	r2, [r7, #30]
 3823 009a B7F91A30 		ldrsh	r3, [r7, #26]
 3824 009e 9A42     		cmp	r2, r3
 3825 00a0 05DD     		ble	.L209
 993:./Hardware/hardware/oled.c **** 		
 3826              		.loc 1 993 22 discriminator 1
 3827 00a2 FB8B     		ldrh	r3, [r7, #30]	@ movhi
 3828 00a4 FB82     		strh	r3, [r7, #22]	@ movhi
 993:./Hardware/hardware/oled.c **** 		
 3829              		.loc 1 993 31 discriminator 1
 3830 00a6 7B8B     		ldrh	r3, [r7, #26]	@ movhi
 3831 00a8 FB83     		strh	r3, [r7, #30]	@ movhi
 993:./Hardware/hardware/oled.c **** 		
 3832              		.loc 1 993 40 discriminator 1
 3833 00aa FB8A     		ldrh	r3, [r7, #22]	@ movhi
 3834 00ac 7B83     		strh	r3, [r7, #26]	@ movhi
 3835              	.L209:
 996:./Hardware/hardware/oled.c **** 		{
 3836              		.loc 1 996 10
 3837 00ae FB8B     		ldrh	r3, [r7, #30]	@ movhi
 3838 00b0 BB84     		strh	r3, [r7, #36]	@ movhi
 996:./Hardware/hardware/oled.c **** 		{
 3839              		.loc 1 996 3
ARM GAS  C:\Users\86134\AppData\Local\Temp\ccyB0sod.s 			page 88


 3840 00b2 0DE0     		b	.L210
 3841              	.L211:
 998:./Hardware/hardware/oled.c **** 		}
 3842              		.loc 1 998 4 discriminator 3
 3843 00b4 3B8C     		ldrh	r3, [r7, #32]	@ movhi
 3844 00b6 DBB2     		uxtb	r3, r3
 3845 00b8 BA8C     		ldrh	r2, [r7, #36]	@ movhi
 3846 00ba D2B2     		uxtb	r2, r2
 3847 00bc 1146     		mov	r1, r2
 3848 00be 1846     		mov	r0, r3
 3849 00c0 FFF7FEFF 		bl	OLED_DrawPoint
 996:./Hardware/hardware/oled.c **** 		{
 3850              		.loc 1 996 27 discriminator 3
 3851 00c4 B7F92430 		ldrsh	r3, [r7, #36]
 3852 00c8 9BB2     		uxth	r3, r3
 3853 00ca 0133     		adds	r3, r3, #1
 3854 00cc 9BB2     		uxth	r3, r3
 3855 00ce BB84     		strh	r3, [r7, #36]	@ movhi
 3856              	.L210:
 996:./Hardware/hardware/oled.c **** 		{
 3857              		.loc 1 996 3 discriminator 1
 3858 00d0 B7F92420 		ldrsh	r2, [r7, #36]
 3859 00d4 B7F91A30 		ldrsh	r3, [r7, #26]
 3860 00d8 9A42     		cmp	r2, r3
 3861 00da EBDD     		ble	.L211
 3862              		.loc 1 1073 1
 3863 00dc E5E0     		b	.L226
 3864              	.L208:
1007:./Hardware/hardware/oled.c **** 		{
 3865              		.loc 1 1007 6
 3866 00de B7F92020 		ldrsh	r2, [r7, #32]
 3867 00e2 B7F91C30 		ldrsh	r3, [r7, #28]
 3868 00e6 9A42     		cmp	r2, r3
 3869 00e8 0BDD     		ble	.L212
1011:./Hardware/hardware/oled.c **** 			temp = y0; y0 = y1; y1 = temp;
 3870              		.loc 1 1011 9
 3871 00ea 3B8C     		ldrh	r3, [r7, #32]	@ movhi
 3872 00ec FB82     		strh	r3, [r7, #22]	@ movhi
1011:./Hardware/hardware/oled.c **** 			temp = y0; y0 = y1; y1 = temp;
 3873              		.loc 1 1011 18
 3874 00ee BB8B     		ldrh	r3, [r7, #28]	@ movhi
 3875 00f0 3B84     		strh	r3, [r7, #32]	@ movhi
1011:./Hardware/hardware/oled.c **** 			temp = y0; y0 = y1; y1 = temp;
 3876              		.loc 1 1011 27
 3877 00f2 FB8A     		ldrh	r3, [r7, #22]	@ movhi
 3878 00f4 BB83     		strh	r3, [r7, #28]	@ movhi
1012:./Hardware/hardware/oled.c **** 		}
 3879              		.loc 1 1012 9
 3880 00f6 FB8B     		ldrh	r3, [r7, #30]	@ movhi
 3881 00f8 FB82     		strh	r3, [r7, #22]	@ movhi
1012:./Hardware/hardware/oled.c **** 		}
 3882              		.loc 1 1012 18
 3883 00fa 7B8B     		ldrh	r3, [r7, #26]	@ movhi
 3884 00fc FB83     		strh	r3, [r7, #30]	@ movhi
1012:./Hardware/hardware/oled.c **** 		}
 3885              		.loc 1 1012 27
 3886 00fe FB8A     		ldrh	r3, [r7, #22]	@ movhi
ARM GAS  C:\Users\86134\AppData\Local\Temp\ccyB0sod.s 			page 89


 3887 0100 7B83     		strh	r3, [r7, #26]	@ movhi
 3888              	.L212:
1015:./Hardware/hardware/oled.c **** 		{
 3889              		.loc 1 1015 6
 3890 0102 B7F91E20 		ldrsh	r2, [r7, #30]
 3891 0106 B7F91A30 		ldrsh	r3, [r7, #26]
 3892 010a 9A42     		cmp	r2, r3
 3893 010c 09DD     		ble	.L213
1019:./Hardware/hardware/oled.c **** 			y1 = -y1;
 3894              		.loc 1 1019 7
 3895 010e FB8B     		ldrh	r3, [r7, #30]
 3896 0110 5B42     		rsbs	r3, r3, #0
 3897 0112 9BB2     		uxth	r3, r3
 3898 0114 FB83     		strh	r3, [r7, #30]	@ movhi
1020:./Hardware/hardware/oled.c **** 			
 3899              		.loc 1 1020 7
 3900 0116 7B8B     		ldrh	r3, [r7, #26]
 3901 0118 5B42     		rsbs	r3, r3, #0
 3902 011a 9BB2     		uxth	r3, r3
 3903 011c 7B83     		strh	r3, [r7, #26]	@ movhi
1023:./Hardware/hardware/oled.c **** 		}
 3904              		.loc 1 1023 10
 3905 011e 0123     		movs	r3, #1
 3906 0120 7B76     		strb	r3, [r7, #25]
 3907              	.L213:
1026:./Hardware/hardware/oled.c **** 		{
 3908              		.loc 1 1026 10
 3909 0122 B7F91A20 		ldrsh	r2, [r7, #26]
 3910 0126 B7F91E30 		ldrsh	r3, [r7, #30]
 3911 012a D21A     		subs	r2, r2, r3
1026:./Hardware/hardware/oled.c **** 		{
 3912              		.loc 1 1026 20
 3913 012c B7F91C10 		ldrsh	r1, [r7, #28]
 3914 0130 B7F92030 		ldrsh	r3, [r7, #32]
 3915 0134 CB1A     		subs	r3, r1, r3
1026:./Hardware/hardware/oled.c **** 		{
 3916              		.loc 1 1026 6
 3917 0136 9A42     		cmp	r2, r3
 3918 0138 0DDD     		ble	.L214
1030:./Hardware/hardware/oled.c **** 			temp = x1; x1 = y1; y1 = temp;
 3919              		.loc 1 1030 9
 3920 013a 3B8C     		ldrh	r3, [r7, #32]	@ movhi
 3921 013c FB82     		strh	r3, [r7, #22]	@ movhi
1030:./Hardware/hardware/oled.c **** 			temp = x1; x1 = y1; y1 = temp;
 3922              		.loc 1 1030 18
 3923 013e FB8B     		ldrh	r3, [r7, #30]	@ movhi
 3924 0140 3B84     		strh	r3, [r7, #32]	@ movhi
1030:./Hardware/hardware/oled.c **** 			temp = x1; x1 = y1; y1 = temp;
 3925              		.loc 1 1030 27
 3926 0142 FB8A     		ldrh	r3, [r7, #22]	@ movhi
 3927 0144 FB83     		strh	r3, [r7, #30]	@ movhi
1031:./Hardware/hardware/oled.c **** 			
 3928              		.loc 1 1031 9
 3929 0146 BB8B     		ldrh	r3, [r7, #28]	@ movhi
 3930 0148 FB82     		strh	r3, [r7, #22]	@ movhi
1031:./Hardware/hardware/oled.c **** 			
 3931              		.loc 1 1031 18
ARM GAS  C:\Users\86134\AppData\Local\Temp\ccyB0sod.s 			page 90


 3932 014a 7B8B     		ldrh	r3, [r7, #26]	@ movhi
 3933 014c BB83     		strh	r3, [r7, #28]	@ movhi
1031:./Hardware/hardware/oled.c **** 			
 3934              		.loc 1 1031 27
 3935 014e FB8A     		ldrh	r3, [r7, #22]	@ movhi
 3936 0150 7B83     		strh	r3, [r7, #26]	@ movhi
1034:./Hardware/hardware/oled.c **** 		}
 3937              		.loc 1 1034 11
 3938 0152 0123     		movs	r3, #1
 3939 0154 3B76     		strb	r3, [r7, #24]
 3940              	.L214:
1039:./Hardware/hardware/oled.c **** 		dy = y1 - y0;
 3941              		.loc 1 1039 11
 3942 0156 BA8B     		ldrh	r2, [r7, #28]
 3943 0158 3B8C     		ldrh	r3, [r7, #32]
 3944 015a D31A     		subs	r3, r2, r3
 3945 015c 9BB2     		uxth	r3, r3
1039:./Hardware/hardware/oled.c **** 		dy = y1 - y0;
 3946              		.loc 1 1039 6
 3947 015e BB82     		strh	r3, [r7, #20]	@ movhi
1040:./Hardware/hardware/oled.c **** 		incrE = 2 * dy;
 3948              		.loc 1 1040 11
 3949 0160 7A8B     		ldrh	r2, [r7, #26]
 3950 0162 FB8B     		ldrh	r3, [r7, #30]
 3951 0164 D31A     		subs	r3, r2, r3
 3952 0166 9BB2     		uxth	r3, r3
1040:./Hardware/hardware/oled.c **** 		incrE = 2 * dy;
 3953              		.loc 1 1040 6
 3954 0168 7B82     		strh	r3, [r7, #18]	@ movhi
1041:./Hardware/hardware/oled.c **** 		incrNE = 2 * (dy - dx);
 3955              		.loc 1 1041 13
 3956 016a 7B8A     		ldrh	r3, [r7, #18]
 3957 016c 5B00     		lsls	r3, r3, #1
 3958 016e 9BB2     		uxth	r3, r3
1041:./Hardware/hardware/oled.c **** 		incrNE = 2 * (dy - dx);
 3959              		.loc 1 1041 9
 3960 0170 3B82     		strh	r3, [r7, #16]	@ movhi
1042:./Hardware/hardware/oled.c **** 		d = 2 * dy - dx;
 3961              		.loc 1 1042 20
 3962 0172 B7F91220 		ldrsh	r2, [r7, #18]
 3963 0176 B7F91430 		ldrsh	r3, [r7, #20]
 3964 017a D31A     		subs	r3, r2, r3
1042:./Hardware/hardware/oled.c **** 		d = 2 * dy - dx;
 3965              		.loc 1 1042 10
 3966 017c 9BB2     		uxth	r3, r3
 3967 017e 5B00     		lsls	r3, r3, #1
 3968 0180 9BB2     		uxth	r3, r3
 3969 0182 FB81     		strh	r3, [r7, #14]	@ movhi
1043:./Hardware/hardware/oled.c **** 		x = x0;
 3970              		.loc 1 1043 9
 3971 0184 7B8A     		ldrh	r3, [r7, #18]
 3972 0186 5B00     		lsls	r3, r3, #1
 3973 0188 9AB2     		uxth	r2, r3
1043:./Hardware/hardware/oled.c **** 		x = x0;
 3974              		.loc 1 1043 14
 3975 018a BB8A     		ldrh	r3, [r7, #20]
 3976 018c D31A     		subs	r3, r2, r3
ARM GAS  C:\Users\86134\AppData\Local\Temp\ccyB0sod.s 			page 91


 3977 018e 9BB2     		uxth	r3, r3
1043:./Hardware/hardware/oled.c **** 		x = x0;
 3978              		.loc 1 1043 5
 3979 0190 7B84     		strh	r3, [r7, #34]	@ movhi
1044:./Hardware/hardware/oled.c **** 		y = y0;
 3980              		.loc 1 1044 5
 3981 0192 3B8C     		ldrh	r3, [r7, #32]	@ movhi
 3982 0194 FB84     		strh	r3, [r7, #38]	@ movhi
1045:./Hardware/hardware/oled.c **** 		
 3983              		.loc 1 1045 5
 3984 0196 FB8B     		ldrh	r3, [r7, #30]	@ movhi
 3985 0198 BB84     		strh	r3, [r7, #36]	@ movhi
1048:./Hardware/hardware/oled.c **** 		else if (yflag)		{OLED_DrawPoint(x, -y);}
 3986              		.loc 1 1048 6
 3987 019a 7B7E     		ldrb	r3, [r7, #25]	@ zero_extendqisi2
 3988 019c 002B     		cmp	r3, #0
 3989 019e 0DD0     		beq	.L215
1048:./Hardware/hardware/oled.c **** 		else if (yflag)		{OLED_DrawPoint(x, -y);}
 3990              		.loc 1 1048 13 discriminator 1
 3991 01a0 3B7E     		ldrb	r3, [r7, #24]	@ zero_extendqisi2
 3992 01a2 002B     		cmp	r3, #0
 3993 01a4 0AD0     		beq	.L215
1048:./Hardware/hardware/oled.c **** 		else if (yflag)		{OLED_DrawPoint(x, -y);}
 3994              		.loc 1 1048 24 discriminator 2
 3995 01a6 BB8C     		ldrh	r3, [r7, #36]	@ movhi
 3996 01a8 DBB2     		uxtb	r3, r3
 3997 01aa FA8C     		ldrh	r2, [r7, #38]	@ movhi
 3998 01ac D2B2     		uxtb	r2, r2
 3999 01ae 5242     		rsbs	r2, r2, #0
 4000 01b0 D2B2     		uxtb	r2, r2
 4001 01b2 1146     		mov	r1, r2
 4002 01b4 1846     		mov	r0, r3
 4003 01b6 FFF7FEFF 		bl	OLED_DrawPoint
 4004 01ba 21E0     		b	.L216
 4005              	.L215:
1049:./Hardware/hardware/oled.c **** 		else if (xyflag)	{OLED_DrawPoint(y, x);}
 4006              		.loc 1 1049 11
 4007 01bc 7B7E     		ldrb	r3, [r7, #25]	@ zero_extendqisi2
 4008 01be 002B     		cmp	r3, #0
 4009 01c0 0AD0     		beq	.L217
1049:./Hardware/hardware/oled.c **** 		else if (xyflag)	{OLED_DrawPoint(y, x);}
 4010              		.loc 1 1049 21 discriminator 1
 4011 01c2 FB8C     		ldrh	r3, [r7, #38]	@ movhi
 4012 01c4 DBB2     		uxtb	r3, r3
 4013 01c6 BA8C     		ldrh	r2, [r7, #36]	@ movhi
 4014 01c8 D2B2     		uxtb	r2, r2
 4015 01ca 5242     		rsbs	r2, r2, #0
 4016 01cc D2B2     		uxtb	r2, r2
 4017 01ce 1146     		mov	r1, r2
 4018 01d0 1846     		mov	r0, r3
 4019 01d2 FFF7FEFF 		bl	OLED_DrawPoint
 4020 01d6 62E0     		b	.L219
 4021              	.L217:
1050:./Hardware/hardware/oled.c **** 		else				{OLED_DrawPoint(x, y);}
 4022              		.loc 1 1050 11
 4023 01d8 3B7E     		ldrb	r3, [r7, #24]	@ zero_extendqisi2
 4024 01da 002B     		cmp	r3, #0
ARM GAS  C:\Users\86134\AppData\Local\Temp\ccyB0sod.s 			page 92


 4025 01dc 08D0     		beq	.L218
1050:./Hardware/hardware/oled.c **** 		else				{OLED_DrawPoint(x, y);}
 4026              		.loc 1 1050 21 discriminator 1
 4027 01de BB8C     		ldrh	r3, [r7, #36]	@ movhi
 4028 01e0 DBB2     		uxtb	r3, r3
 4029 01e2 FA8C     		ldrh	r2, [r7, #38]	@ movhi
 4030 01e4 D2B2     		uxtb	r2, r2
 4031 01e6 1146     		mov	r1, r2
 4032 01e8 1846     		mov	r0, r3
 4033 01ea FFF7FEFF 		bl	OLED_DrawPoint
 4034 01ee 56E0     		b	.L219
 4035              	.L218:
1051:./Hardware/hardware/oled.c **** 		
 4036              		.loc 1 1051 12
 4037 01f0 FB8C     		ldrh	r3, [r7, #38]	@ movhi
 4038 01f2 DBB2     		uxtb	r3, r3
 4039 01f4 BA8C     		ldrh	r2, [r7, #36]	@ movhi
 4040 01f6 D2B2     		uxtb	r2, r2
 4041 01f8 1146     		mov	r1, r2
 4042 01fa 1846     		mov	r0, r3
 4043 01fc FFF7FEFF 		bl	OLED_DrawPoint
 4044              	.L216:
1053:./Hardware/hardware/oled.c **** 		{
 4045              		.loc 1 1053 9
 4046 0200 4DE0     		b	.L219
 4047              	.L225:
1055:./Hardware/hardware/oled.c **** 			if (d < 0)		//下一个点在当前点东方
 4048              		.loc 1 1055 6
 4049 0202 B7F92630 		ldrsh	r3, [r7, #38]
 4050 0206 9BB2     		uxth	r3, r3
 4051 0208 0133     		adds	r3, r3, #1
 4052 020a 9BB2     		uxth	r3, r3
 4053 020c FB84     		strh	r3, [r7, #38]	@ movhi
1056:./Hardware/hardware/oled.c **** 			{
 4054              		.loc 1 1056 7
 4055 020e B7F92230 		ldrsh	r3, [r7, #34]
 4056 0212 002B     		cmp	r3, #0
 4057 0214 05DA     		bge	.L220
1058:./Hardware/hardware/oled.c **** 			}
 4058              		.loc 1 1058 7
 4059 0216 7A8C     		ldrh	r2, [r7, #34]
 4060 0218 3B8A     		ldrh	r3, [r7, #16]
 4061 021a 1344     		add	r3, r3, r2
 4062 021c 9BB2     		uxth	r3, r3
 4063 021e 7B84     		strh	r3, [r7, #34]	@ movhi
 4064 0220 0AE0     		b	.L221
 4065              	.L220:
1062:./Hardware/hardware/oled.c **** 				d += incrNE;
 4066              		.loc 1 1062 7
 4067 0222 B7F92430 		ldrsh	r3, [r7, #36]
 4068 0226 9BB2     		uxth	r3, r3
 4069 0228 0133     		adds	r3, r3, #1
 4070 022a 9BB2     		uxth	r3, r3
 4071 022c BB84     		strh	r3, [r7, #36]	@ movhi
1063:./Hardware/hardware/oled.c **** 			}
 4072              		.loc 1 1063 7
 4073 022e 7A8C     		ldrh	r2, [r7, #34]
ARM GAS  C:\Users\86134\AppData\Local\Temp\ccyB0sod.s 			page 93


 4074 0230 FB89     		ldrh	r3, [r7, #14]
 4075 0232 1344     		add	r3, r3, r2
 4076 0234 9BB2     		uxth	r3, r3
 4077 0236 7B84     		strh	r3, [r7, #34]	@ movhi
 4078              	.L221:
1067:./Hardware/hardware/oled.c **** 			else if (yflag)		{OLED_DrawPoint(x, -y);}
 4079              		.loc 1 1067 7
 4080 0238 7B7E     		ldrb	r3, [r7, #25]	@ zero_extendqisi2
 4081 023a 002B     		cmp	r3, #0
 4082 023c 0DD0     		beq	.L222
1067:./Hardware/hardware/oled.c **** 			else if (yflag)		{OLED_DrawPoint(x, -y);}
 4083              		.loc 1 1067 14 discriminator 1
 4084 023e 3B7E     		ldrb	r3, [r7, #24]	@ zero_extendqisi2
 4085 0240 002B     		cmp	r3, #0
 4086 0242 0AD0     		beq	.L222
1067:./Hardware/hardware/oled.c **** 			else if (yflag)		{OLED_DrawPoint(x, -y);}
 4087              		.loc 1 1067 25 discriminator 2
 4088 0244 BB8C     		ldrh	r3, [r7, #36]	@ movhi
 4089 0246 DBB2     		uxtb	r3, r3
 4090 0248 FA8C     		ldrh	r2, [r7, #38]	@ movhi
 4091 024a D2B2     		uxtb	r2, r2
 4092 024c 5242     		rsbs	r2, r2, #0
 4093 024e D2B2     		uxtb	r2, r2
 4094 0250 1146     		mov	r1, r2
 4095 0252 1846     		mov	r0, r3
 4096 0254 FFF7FEFF 		bl	OLED_DrawPoint
 4097 0258 21E0     		b	.L219
 4098              	.L222:
1068:./Hardware/hardware/oled.c **** 			else if (xyflag)	{OLED_DrawPoint(y, x);}
 4099              		.loc 1 1068 12
 4100 025a 7B7E     		ldrb	r3, [r7, #25]	@ zero_extendqisi2
 4101 025c 002B     		cmp	r3, #0
 4102 025e 0AD0     		beq	.L223
1068:./Hardware/hardware/oled.c **** 			else if (xyflag)	{OLED_DrawPoint(y, x);}
 4103              		.loc 1 1068 22 discriminator 1
 4104 0260 FB8C     		ldrh	r3, [r7, #38]	@ movhi
 4105 0262 DBB2     		uxtb	r3, r3
 4106 0264 BA8C     		ldrh	r2, [r7, #36]	@ movhi
 4107 0266 D2B2     		uxtb	r2, r2
 4108 0268 5242     		rsbs	r2, r2, #0
 4109 026a D2B2     		uxtb	r2, r2
 4110 026c 1146     		mov	r1, r2
 4111 026e 1846     		mov	r0, r3
 4112 0270 FFF7FEFF 		bl	OLED_DrawPoint
 4113 0274 13E0     		b	.L219
 4114              	.L223:
1069:./Hardware/hardware/oled.c **** 			else				{OLED_DrawPoint(x, y);}
 4115              		.loc 1 1069 12
 4116 0276 3B7E     		ldrb	r3, [r7, #24]	@ zero_extendqisi2
 4117 0278 002B     		cmp	r3, #0
 4118 027a 08D0     		beq	.L224
1069:./Hardware/hardware/oled.c **** 			else				{OLED_DrawPoint(x, y);}
 4119              		.loc 1 1069 22 discriminator 1
 4120 027c BB8C     		ldrh	r3, [r7, #36]	@ movhi
 4121 027e DBB2     		uxtb	r3, r3
 4122 0280 FA8C     		ldrh	r2, [r7, #38]	@ movhi
 4123 0282 D2B2     		uxtb	r2, r2
ARM GAS  C:\Users\86134\AppData\Local\Temp\ccyB0sod.s 			page 94


 4124 0284 1146     		mov	r1, r2
 4125 0286 1846     		mov	r0, r3
 4126 0288 FFF7FEFF 		bl	OLED_DrawPoint
 4127 028c 07E0     		b	.L219
 4128              	.L224:
1070:./Hardware/hardware/oled.c **** 		}	
 4129              		.loc 1 1070 13
 4130 028e FB8C     		ldrh	r3, [r7, #38]	@ movhi
 4131 0290 DBB2     		uxtb	r3, r3
 4132 0292 BA8C     		ldrh	r2, [r7, #36]	@ movhi
 4133 0294 D2B2     		uxtb	r2, r2
 4134 0296 1146     		mov	r1, r2
 4135 0298 1846     		mov	r0, r3
 4136 029a FFF7FEFF 		bl	OLED_DrawPoint
 4137              	.L219:
1053:./Hardware/hardware/oled.c **** 		{
 4138              		.loc 1 1053 9
 4139 029e B7F92620 		ldrsh	r2, [r7, #38]
 4140 02a2 B7F91C30 		ldrsh	r3, [r7, #28]
 4141 02a6 9A42     		cmp	r2, r3
 4142 02a8 ABDB     		blt	.L225
 4143              	.L226:
 4144              		.loc 1 1073 1
 4145 02aa 00BF     		nop
 4146 02ac 2C37     		adds	r7, r7, #44
 4147              	.LCFI170:
 4148              		.cfi_def_cfa_offset 12
 4149 02ae BD46     		mov	sp, r7
 4150              	.LCFI171:
 4151              		.cfi_def_cfa_register 13
 4152              		@ sp needed
 4153 02b0 90BD     		pop	{r4, r7, pc}
 4154              		.cfi_endproc
 4155              	.LFE65:
 4157              		.section	.text.OLED_DrawRectangle,"ax",%progbits
 4158              		.align	1
 4159              		.global	OLED_DrawRectangle
 4160              		.syntax unified
 4161              		.thumb
 4162              		.thumb_func
 4163              		.fpu softvfp
 4165              	OLED_DrawRectangle:
 4166              	.LFB66:
1074:./Hardware/hardware/oled.c **** 
1075:./Hardware/hardware/oled.c **** /**
1076:./Hardware/hardware/oled.c ****   * 函    数：OLED矩形
1077:./Hardware/hardware/oled.c ****   * 参    数：X 指定矩形左上角的横坐标，范围：0~127
1078:./Hardware/hardware/oled.c ****   * 参    数：Y 指定矩形左上角的纵坐标，范围：0~63
1079:./Hardware/hardware/oled.c ****   * 参    数：Width 指定矩形的宽度，范围：0~128
1080:./Hardware/hardware/oled.c ****   * 参    数：Height 指定矩形的高度，范围：0~64
1081:./Hardware/hardware/oled.c ****   * 参    数：IsFilled 指定矩形是否填充
1082:./Hardware/hardware/oled.c ****   *           范围：OLED_UNFILLED		不填充
1083:./Hardware/hardware/oled.c ****   *                 OLED_FILLED			填充
1084:./Hardware/hardware/oled.c ****   * 返 回 值：无
1085:./Hardware/hardware/oled.c ****   * 说    明：调用此函数后，要想真正地呈现在屏幕上，还需调用更新函数
1086:./Hardware/hardware/oled.c ****   */
1087:./Hardware/hardware/oled.c **** void OLED_DrawRectangle(uint8_t X, uint8_t Y, uint8_t Width, uint8_t Height, uint8_t IsFilled)
ARM GAS  C:\Users\86134\AppData\Local\Temp\ccyB0sod.s 			page 95


1088:./Hardware/hardware/oled.c **** {
 4167              		.loc 1 1088 1
 4168              		.cfi_startproc
 4169              		@ args = 4, pretend = 0, frame = 16
 4170              		@ frame_needed = 1, uses_anonymous_args = 0
 4171 0000 90B5     		push	{r4, r7, lr}
 4172              	.LCFI172:
 4173              		.cfi_def_cfa_offset 12
 4174              		.cfi_offset 4, -12
 4175              		.cfi_offset 7, -8
 4176              		.cfi_offset 14, -4
 4177 0002 85B0     		sub	sp, sp, #20
 4178              	.LCFI173:
 4179              		.cfi_def_cfa_offset 32
 4180 0004 00AF     		add	r7, sp, #0
 4181              	.LCFI174:
 4182              		.cfi_def_cfa_register 7
 4183 0006 0446     		mov	r4, r0
 4184 0008 0846     		mov	r0, r1
 4185 000a 1146     		mov	r1, r2
 4186 000c 1A46     		mov	r2, r3
 4187 000e 2346     		mov	r3, r4
 4188 0010 FB71     		strb	r3, [r7, #7]
 4189 0012 0346     		mov	r3, r0
 4190 0014 BB71     		strb	r3, [r7, #6]
 4191 0016 0B46     		mov	r3, r1
 4192 0018 7B71     		strb	r3, [r7, #5]
 4193 001a 1346     		mov	r3, r2
 4194 001c 3B71     		strb	r3, [r7, #4]
1089:./Hardware/hardware/oled.c **** 	uint8_t i, j;
1090:./Hardware/hardware/oled.c **** 	if (!IsFilled)		//指定矩形不填充
 4195              		.loc 1 1090 5
 4196 001e 97F82030 		ldrb	r3, [r7, #32]	@ zero_extendqisi2
 4197 0022 002B     		cmp	r3, #0
 4198 0024 3AD1     		bne	.L228
1091:./Hardware/hardware/oled.c **** 	{
1092:./Hardware/hardware/oled.c **** 		/*遍历上下X坐标，画矩形上下两条线*/
1093:./Hardware/hardware/oled.c **** 		for (i = X; i < X + Width; i ++)
 4199              		.loc 1 1093 10
 4200 0026 FB79     		ldrb	r3, [r7, #7]
 4201 0028 FB73     		strb	r3, [r7, #15]
 4202              		.loc 1 1093 3
 4203 002a 13E0     		b	.L229
 4204              	.L230:
1094:./Hardware/hardware/oled.c **** 		{
1095:./Hardware/hardware/oled.c **** 			OLED_DrawPoint(i, Y);
 4205              		.loc 1 1095 4 discriminator 3
 4206 002c BA79     		ldrb	r2, [r7, #6]	@ zero_extendqisi2
 4207 002e FB7B     		ldrb	r3, [r7, #15]	@ zero_extendqisi2
 4208 0030 1146     		mov	r1, r2
 4209 0032 1846     		mov	r0, r3
 4210 0034 FFF7FEFF 		bl	OLED_DrawPoint
1096:./Hardware/hardware/oled.c **** 			OLED_DrawPoint(i, Y + Height - 1);
 4211              		.loc 1 1096 24 discriminator 3
 4212 0038 BA79     		ldrb	r2, [r7, #6]
 4213 003a 3B79     		ldrb	r3, [r7, #4]
 4214 003c 1344     		add	r3, r3, r2
ARM GAS  C:\Users\86134\AppData\Local\Temp\ccyB0sod.s 			page 96


 4215 003e DBB2     		uxtb	r3, r3
 4216              		.loc 1 1096 4 discriminator 3
 4217 0040 013B     		subs	r3, r3, #1
 4218 0042 DAB2     		uxtb	r2, r3
 4219 0044 FB7B     		ldrb	r3, [r7, #15]	@ zero_extendqisi2
 4220 0046 1146     		mov	r1, r2
 4221 0048 1846     		mov	r0, r3
 4222 004a FFF7FEFF 		bl	OLED_DrawPoint
1093:./Hardware/hardware/oled.c **** 		{
 4223              		.loc 1 1093 32 discriminator 3
 4224 004e FB7B     		ldrb	r3, [r7, #15]	@ zero_extendqisi2
 4225 0050 0133     		adds	r3, r3, #1
 4226 0052 FB73     		strb	r3, [r7, #15]
 4227              	.L229:
1093:./Hardware/hardware/oled.c **** 		{
 4228              		.loc 1 1093 17 discriminator 1
 4229 0054 FA7B     		ldrb	r2, [r7, #15]	@ zero_extendqisi2
1093:./Hardware/hardware/oled.c **** 		{
 4230              		.loc 1 1093 21 discriminator 1
 4231 0056 F979     		ldrb	r1, [r7, #7]	@ zero_extendqisi2
 4232 0058 7B79     		ldrb	r3, [r7, #5]	@ zero_extendqisi2
 4233 005a 0B44     		add	r3, r3, r1
1093:./Hardware/hardware/oled.c **** 		{
 4234              		.loc 1 1093 3 discriminator 1
 4235 005c 9A42     		cmp	r2, r3
 4236 005e E5DB     		blt	.L230
1097:./Hardware/hardware/oled.c **** 		}
1098:./Hardware/hardware/oled.c **** 		/*遍历左右Y坐标，画矩形左右两条线*/
1099:./Hardware/hardware/oled.c **** 		for (i = Y; i < Y + Height; i ++)
 4237              		.loc 1 1099 10
 4238 0060 BB79     		ldrb	r3, [r7, #6]
 4239 0062 FB73     		strb	r3, [r7, #15]
 4240              		.loc 1 1099 3
 4241 0064 13E0     		b	.L231
 4242              	.L232:
1100:./Hardware/hardware/oled.c **** 		{
1101:./Hardware/hardware/oled.c **** 			OLED_DrawPoint(X, i);
 4243              		.loc 1 1101 4 discriminator 3
 4244 0066 FA7B     		ldrb	r2, [r7, #15]	@ zero_extendqisi2
 4245 0068 FB79     		ldrb	r3, [r7, #7]	@ zero_extendqisi2
 4246 006a 1146     		mov	r1, r2
 4247 006c 1846     		mov	r0, r3
 4248 006e FFF7FEFF 		bl	OLED_DrawPoint
1102:./Hardware/hardware/oled.c **** 			OLED_DrawPoint(X + Width - 1, i);
 4249              		.loc 1 1102 21 discriminator 3
 4250 0072 FA79     		ldrb	r2, [r7, #7]
 4251 0074 7B79     		ldrb	r3, [r7, #5]
 4252 0076 1344     		add	r3, r3, r2
 4253 0078 DBB2     		uxtb	r3, r3
 4254              		.loc 1 1102 4 discriminator 3
 4255 007a 013B     		subs	r3, r3, #1
 4256 007c DBB2     		uxtb	r3, r3
 4257 007e FA7B     		ldrb	r2, [r7, #15]	@ zero_extendqisi2
 4258 0080 1146     		mov	r1, r2
 4259 0082 1846     		mov	r0, r3
 4260 0084 FFF7FEFF 		bl	OLED_DrawPoint
1099:./Hardware/hardware/oled.c **** 		{
ARM GAS  C:\Users\86134\AppData\Local\Temp\ccyB0sod.s 			page 97


 4261              		.loc 1 1099 33 discriminator 3
 4262 0088 FB7B     		ldrb	r3, [r7, #15]	@ zero_extendqisi2
 4263 008a 0133     		adds	r3, r3, #1
 4264 008c FB73     		strb	r3, [r7, #15]
 4265              	.L231:
1099:./Hardware/hardware/oled.c **** 		{
 4266              		.loc 1 1099 17 discriminator 1
 4267 008e FA7B     		ldrb	r2, [r7, #15]	@ zero_extendqisi2
1099:./Hardware/hardware/oled.c **** 		{
 4268              		.loc 1 1099 21 discriminator 1
 4269 0090 B979     		ldrb	r1, [r7, #6]	@ zero_extendqisi2
 4270 0092 3B79     		ldrb	r3, [r7, #4]	@ zero_extendqisi2
 4271 0094 0B44     		add	r3, r3, r1
1099:./Hardware/hardware/oled.c **** 		{
 4272              		.loc 1 1099 3 discriminator 1
 4273 0096 9A42     		cmp	r2, r3
 4274 0098 E5DB     		blt	.L232
1103:./Hardware/hardware/oled.c **** 		}
1104:./Hardware/hardware/oled.c **** 	}
1105:./Hardware/hardware/oled.c **** 	else				//指定矩形填充
1106:./Hardware/hardware/oled.c **** 	{
1107:./Hardware/hardware/oled.c **** 		/*遍历X坐标*/
1108:./Hardware/hardware/oled.c **** 		for (i = X; i < X + Width; i ++)
1109:./Hardware/hardware/oled.c **** 		{
1110:./Hardware/hardware/oled.c **** 			/*遍历Y坐标*/
1111:./Hardware/hardware/oled.c **** 			for (j = Y; j < Y + Height; j ++)
1112:./Hardware/hardware/oled.c **** 			{
1113:./Hardware/hardware/oled.c **** 				/*在指定区域画点，填充满矩形*/
1114:./Hardware/hardware/oled.c **** 				OLED_DrawPoint(i, j);
1115:./Hardware/hardware/oled.c **** 			}
1116:./Hardware/hardware/oled.c **** 		}
1117:./Hardware/hardware/oled.c **** 	}
1118:./Hardware/hardware/oled.c **** }
 4275              		.loc 1 1118 1
 4276 009a 1DE0     		b	.L238
 4277              	.L228:
1108:./Hardware/hardware/oled.c **** 		{
 4278              		.loc 1 1108 10
 4279 009c FB79     		ldrb	r3, [r7, #7]
 4280 009e FB73     		strb	r3, [r7, #15]
1108:./Hardware/hardware/oled.c **** 		{
 4281              		.loc 1 1108 3
 4282 00a0 14E0     		b	.L234
 4283              	.L237:
1111:./Hardware/hardware/oled.c **** 			{
 4284              		.loc 1 1111 11
 4285 00a2 BB79     		ldrb	r3, [r7, #6]
 4286 00a4 BB73     		strb	r3, [r7, #14]
1111:./Hardware/hardware/oled.c **** 			{
 4287              		.loc 1 1111 4
 4288 00a6 08E0     		b	.L235
 4289              	.L236:
1114:./Hardware/hardware/oled.c **** 			}
 4290              		.loc 1 1114 5 discriminator 3
 4291 00a8 BA7B     		ldrb	r2, [r7, #14]	@ zero_extendqisi2
 4292 00aa FB7B     		ldrb	r3, [r7, #15]	@ zero_extendqisi2
 4293 00ac 1146     		mov	r1, r2
ARM GAS  C:\Users\86134\AppData\Local\Temp\ccyB0sod.s 			page 98


 4294 00ae 1846     		mov	r0, r3
 4295 00b0 FFF7FEFF 		bl	OLED_DrawPoint
1111:./Hardware/hardware/oled.c **** 			{
 4296              		.loc 1 1111 34 discriminator 3
 4297 00b4 BB7B     		ldrb	r3, [r7, #14]	@ zero_extendqisi2
 4298 00b6 0133     		adds	r3, r3, #1
 4299 00b8 BB73     		strb	r3, [r7, #14]
 4300              	.L235:
1111:./Hardware/hardware/oled.c **** 			{
 4301              		.loc 1 1111 18 discriminator 1
 4302 00ba BA7B     		ldrb	r2, [r7, #14]	@ zero_extendqisi2
1111:./Hardware/hardware/oled.c **** 			{
 4303              		.loc 1 1111 22 discriminator 1
 4304 00bc B979     		ldrb	r1, [r7, #6]	@ zero_extendqisi2
 4305 00be 3B79     		ldrb	r3, [r7, #4]	@ zero_extendqisi2
 4306 00c0 0B44     		add	r3, r3, r1
1111:./Hardware/hardware/oled.c **** 			{
 4307              		.loc 1 1111 4 discriminator 1
 4308 00c2 9A42     		cmp	r2, r3
 4309 00c4 F0DB     		blt	.L236
1108:./Hardware/hardware/oled.c **** 		{
 4310              		.loc 1 1108 32 discriminator 2
 4311 00c6 FB7B     		ldrb	r3, [r7, #15]	@ zero_extendqisi2
 4312 00c8 0133     		adds	r3, r3, #1
 4313 00ca FB73     		strb	r3, [r7, #15]
 4314              	.L234:
1108:./Hardware/hardware/oled.c **** 		{
 4315              		.loc 1 1108 17 discriminator 1
 4316 00cc FA7B     		ldrb	r2, [r7, #15]	@ zero_extendqisi2
1108:./Hardware/hardware/oled.c **** 		{
 4317              		.loc 1 1108 21 discriminator 1
 4318 00ce F979     		ldrb	r1, [r7, #7]	@ zero_extendqisi2
 4319 00d0 7B79     		ldrb	r3, [r7, #5]	@ zero_extendqisi2
 4320 00d2 0B44     		add	r3, r3, r1
1108:./Hardware/hardware/oled.c **** 		{
 4321              		.loc 1 1108 3 discriminator 1
 4322 00d4 9A42     		cmp	r2, r3
 4323 00d6 E4DB     		blt	.L237
 4324              	.L238:
 4325              		.loc 1 1118 1
 4326 00d8 00BF     		nop
 4327 00da 1437     		adds	r7, r7, #20
 4328              	.LCFI175:
 4329              		.cfi_def_cfa_offset 12
 4330 00dc BD46     		mov	sp, r7
 4331              	.LCFI176:
 4332              		.cfi_def_cfa_register 13
 4333              		@ sp needed
 4334 00de 90BD     		pop	{r4, r7, pc}
 4335              		.cfi_endproc
 4336              	.LFE66:
 4338              		.section	.text.OLED_DrawTriangle,"ax",%progbits
 4339              		.align	1
 4340              		.global	OLED_DrawTriangle
 4341              		.syntax unified
 4342              		.thumb
 4343              		.thumb_func
ARM GAS  C:\Users\86134\AppData\Local\Temp\ccyB0sod.s 			page 99


 4344              		.fpu softvfp
 4346              	OLED_DrawTriangle:
 4347              	.LFB67:
1119:./Hardware/hardware/oled.c **** 
1120:./Hardware/hardware/oled.c **** /**
1121:./Hardware/hardware/oled.c ****   * 函    数：OLED三角形
1122:./Hardware/hardware/oled.c ****   * 参    数：X0 指定第一个端点的横坐标，范围：0~127
1123:./Hardware/hardware/oled.c ****   * 参    数：Y0 指定第一个端点的纵坐标，范围：0~63
1124:./Hardware/hardware/oled.c ****   * 参    数：X1 指定第二个端点的横坐标，范围：0~127
1125:./Hardware/hardware/oled.c ****   * 参    数：Y1 指定第二个端点的纵坐标，范围：0~63
1126:./Hardware/hardware/oled.c ****   * 参    数：X2 指定第三个端点的横坐标，范围：0~127
1127:./Hardware/hardware/oled.c ****   * 参    数：Y2 指定第三个端点的纵坐标，范围：0~63
1128:./Hardware/hardware/oled.c ****   * 参    数：IsFilled 指定三角形是否填充
1129:./Hardware/hardware/oled.c ****   *           范围：OLED_UNFILLED		不填充
1130:./Hardware/hardware/oled.c ****   *                 OLED_FILLED			填充
1131:./Hardware/hardware/oled.c ****   * 返 回 值：无
1132:./Hardware/hardware/oled.c ****   * 说    明：调用此函数后，要想真正地呈现在屏幕上，还需调用更新函数
1133:./Hardware/hardware/oled.c ****   */
1134:./Hardware/hardware/oled.c **** void OLED_DrawTriangle(uint8_t X0, uint8_t Y0, uint8_t X1, uint8_t Y1, uint8_t X2, uint8_t Y2, uint
1135:./Hardware/hardware/oled.c **** {
 4348              		.loc 1 1135 1
 4349              		.cfi_startproc
 4350              		@ args = 12, pretend = 0, frame = 32
 4351              		@ frame_needed = 1, uses_anonymous_args = 0
 4352 0000 90B5     		push	{r4, r7, lr}
 4353              	.LCFI177:
 4354              		.cfi_def_cfa_offset 12
 4355              		.cfi_offset 4, -12
 4356              		.cfi_offset 7, -8
 4357              		.cfi_offset 14, -4
 4358 0002 8BB0     		sub	sp, sp, #44
 4359              	.LCFI178:
 4360              		.cfi_def_cfa_offset 56
 4361 0004 02AF     		add	r7, sp, #8
 4362              	.LCFI179:
 4363              		.cfi_def_cfa 7, 48
 4364 0006 0446     		mov	r4, r0
 4365 0008 0846     		mov	r0, r1
 4366 000a 1146     		mov	r1, r2
 4367 000c 1A46     		mov	r2, r3
 4368 000e 2346     		mov	r3, r4
 4369 0010 FB71     		strb	r3, [r7, #7]
 4370 0012 0346     		mov	r3, r0
 4371 0014 BB71     		strb	r3, [r7, #6]
 4372 0016 0B46     		mov	r3, r1
 4373 0018 7B71     		strb	r3, [r7, #5]
 4374 001a 1346     		mov	r3, r2
 4375 001c 3B71     		strb	r3, [r7, #4]
1136:./Hardware/hardware/oled.c **** 	uint8_t minx = X0, miny = Y0, maxx = X0, maxy = Y0;
 4376              		.loc 1 1136 10
 4377 001e FB79     		ldrb	r3, [r7, #7]
 4378 0020 FB77     		strb	r3, [r7, #31]
 4379              		.loc 1 1136 21
 4380 0022 BB79     		ldrb	r3, [r7, #6]
 4381 0024 BB77     		strb	r3, [r7, #30]
 4382              		.loc 1 1136 32
 4383 0026 FB79     		ldrb	r3, [r7, #7]
ARM GAS  C:\Users\86134\AppData\Local\Temp\ccyB0sod.s 			page 100


 4384 0028 7B77     		strb	r3, [r7, #29]
 4385              		.loc 1 1136 43
 4386 002a BB79     		ldrb	r3, [r7, #6]
 4387 002c 3B77     		strb	r3, [r7, #28]
1137:./Hardware/hardware/oled.c **** 	uint8_t i, j;
1138:./Hardware/hardware/oled.c **** 	int16_t vx[] = {X0, X1, X2};
 4388              		.loc 1 1138 10
 4389 002e FB79     		ldrb	r3, [r7, #7]	@ zero_extendqisi2
 4390 0030 1BB2     		sxth	r3, r3
 4391 0032 BB82     		strh	r3, [r7, #20]	@ movhi
