ARM GAS  C:\Users\86134\AppData\Local\Temp\cckH4Mn9.s 			page 1


   1              		.cpu cortex-m3
   2              		.eabi_attribute 20, 1
   3              		.eabi_attribute 21, 1
   4              		.eabi_attribute 23, 3
   5              		.eabi_attribute 24, 1
   6              		.eabi_attribute 25, 1
   7              		.eabi_attribute 26, 1
   8              		.eabi_attribute 30, 6
   9              		.eabi_attribute 34, 1
  10              		.eabi_attribute 18, 4
  11              		.file	"spi.c"
  12              		.text
  13              	.Ltext0:
  14              		.cfi_sections	.debug_frame
  15              		.global	spi_time_buf
  16              		.section	.bss.spi_time_buf,"aw",%nobits
  17              		.align	2
  20              	spi_time_buf:
  21 0000 00000000 		.space	7
  21      000000
  22              		.global	spi_show_time
  23              		.section	.bss.spi_show_time,"aw",%nobits
  24              		.align	2
  27              	spi_show_time:
  28 0000 00000000 		.space	7
  28      000000
  29              		.global	sd8840_temp
  30              		.section	.bss.sd8840_temp,"aw",%nobits
  33              	sd8840_temp:
  34 0000 00       		.space	1
  35              		.global	sd8902_temp
  36              		.section	.bss.sd8902_temp,"aw",%nobits
  39              	sd8902_temp:
  40 0000 00       		.space	1
  41              		.global	sd8902_vbat
  42              		.section	.bss.sd8902_vbat,"aw",%nobits
  43              		.align	3
  46              	sd8902_vbat:
  47 0000 00000000 		.space	8
  47      00000000 
  48              		.section	.text.SPI_Delay_us,"ax",%progbits
  49              		.align	1
  50              		.arch armv7-m
  51              		.syntax unified
  52              		.thumb
  53              		.thumb_func
  54              		.fpu softvfp
  56              	SPI_Delay_us:
  57              	.LFB32:
  58              		.file 1 "./Hardware/device/spi.c"
   1:./Hardware/device/spi.c **** #include "spi.h"
   2:./Hardware/device/spi.c **** 
   3:./Hardware/device/spi.c **** /*
   4:./Hardware/device/spi.c ****  * MODE 0:CPOL=0，CPHA=0：此时空闲态时，SCLK处于低电平，数据采样是在第 1个边沿，	\
   5:./Hardware/device/spi.c ****  * 			也就是 SCLK由低电平到高电平的跳变，所以数据采样是在上升沿，数据发送是在下降沿。
   6:./Hardware/device/spi.c **** 
   7:./Hardware/device/spi.c ****  * MODE 1:CPOL=0，CPHA=1：此时空闲态时，SCLK处于低电平，数据发送是在第 2个边沿，	\
ARM GAS  C:\Users\86134\AppData\Local\Temp\cckH4Mn9.s 			page 2


   8:./Hardware/device/spi.c ****  * 			也就是 SCLK由高电平到低电平的跳变，所以数据采样是在下降沿，数据发送是在上升沿。
   9:./Hardware/device/spi.c **** 
  10:./Hardware/device/spi.c ****  * MODE 2:CPOL=1，CPHA=0：此时空闲态时，SCLK处于高电平，数据采集是在第 1个边沿，	\
  11:./Hardware/device/spi.c ****  * 			也就是 SCLK由高电平到低电平的跳变，所以数据采集是在下降沿，数据发送是在上升沿。
  12:./Hardware/device/spi.c **** 
  13:./Hardware/device/spi.c ****  * MODE 3:CPOL=1，CPHA=1：此时空闲态时，SCLK处于高电平，数据发送是在第 2个边沿，	\
  14:./Hardware/device/spi.c ****  * 			也就是 SCLK由低电平到高电平的跳变，所以数据采集是在上升沿，数据发送是在下降沿。
  15:./Hardware/device/spi.c **** */
  16:./Hardware/device/spi.c **** 
  17:./Hardware/device/spi.c **** uint8_t spi_time_buf[7];
  18:./Hardware/device/spi.c **** uint8_t spi_show_time[7];
  19:./Hardware/device/spi.c **** 
  20:./Hardware/device/spi.c **** uint8_t  sd8840_temp;
  21:./Hardware/device/spi.c **** 
  22:./Hardware/device/spi.c **** uint8_t  sd8902_temp;
  23:./Hardware/device/spi.c **** double  sd8902_vbat;
  24:./Hardware/device/spi.c **** 
  25:./Hardware/device/spi.c **** #define WAIT_TIME		2
  26:./Hardware/device/spi.c **** 
  27:./Hardware/device/spi.c **** static void SPI_Delay_us( uint32_t Count )
  28:./Hardware/device/spi.c **** {
  59              		.loc 1 28 1
  60              		.cfi_startproc
  61              		@ args = 0, pretend = 0, frame = 8
  62              		@ frame_needed = 1, uses_anonymous_args = 0
  63              		@ link register save eliminated.
  64 0000 80B4     		push	{r7}
  65              	.LCFI0:
  66              		.cfi_def_cfa_offset 4
  67              		.cfi_offset 7, -4
  68 0002 83B0     		sub	sp, sp, #12
  69              	.LCFI1:
  70              		.cfi_def_cfa_offset 16
  71 0004 00AF     		add	r7, sp, #0
  72              	.LCFI2:
  73              		.cfi_def_cfa_register 7
  74 0006 7860     		str	r0, [r7, #4]
  29:./Hardware/device/spi.c ****     while(Count)
  75              		.loc 1 29 10
  76 0008 02E0     		b	.L2
  77              	.L3:
  30:./Hardware/device/spi.c ****     {
  31:./Hardware/device/spi.c ****         Count--;
  78              		.loc 1 31 14
  79 000a 7B68     		ldr	r3, [r7, #4]
  80 000c 013B     		subs	r3, r3, #1
  81 000e 7B60     		str	r3, [r7, #4]
  82              	.L2:
  29:./Hardware/device/spi.c ****     while(Count)
  83              		.loc 1 29 10
  84 0010 7B68     		ldr	r3, [r7, #4]
  85 0012 002B     		cmp	r3, #0
  86 0014 F9D1     		bne	.L3
  32:./Hardware/device/spi.c ****     }
  33:./Hardware/device/spi.c **** }
  87              		.loc 1 33 1
  88 0016 00BF     		nop
ARM GAS  C:\Users\86134\AppData\Local\Temp\cckH4Mn9.s 			page 3


  89 0018 00BF     		nop
  90 001a 0C37     		adds	r7, r7, #12
  91              	.LCFI3:
  92              		.cfi_def_cfa_offset 4
  93 001c BD46     		mov	sp, r7
  94              	.LCFI4:
  95              		.cfi_def_cfa_register 13
  96              		@ sp needed
  97 001e 80BC     		pop	{r7}
  98              	.LCFI5:
  99              		.cfi_restore 7
 100              		.cfi_def_cfa_offset 0
 101 0020 7047     		bx	lr
 102              		.cfi_endproc
 103              	.LFE32:
 105              		.section	.text.SPI_init,"ax",%progbits
 106              		.align	1
 107              		.global	SPI_init
 108              		.syntax unified
 109              		.thumb
 110              		.thumb_func
 111              		.fpu softvfp
 113              	SPI_init:
 114              	.LFB33:
  34:./Hardware/device/spi.c **** 
  35:./Hardware/device/spi.c **** 
  36:./Hardware/device/spi.c **** void SPI_init(void)
  37:./Hardware/device/spi.c **** {	
 115              		.loc 1 37 1
 116              		.cfi_startproc
 117              		@ args = 0, pretend = 0, frame = 8
 118              		@ frame_needed = 1, uses_anonymous_args = 0
 119 0000 80B5     		push	{r7, lr}
 120              	.LCFI6:
 121              		.cfi_def_cfa_offset 8
 122              		.cfi_offset 7, -8
 123              		.cfi_offset 14, -4
 124 0002 82B0     		sub	sp, sp, #8
 125              	.LCFI7:
 126              		.cfi_def_cfa_offset 16
 127 0004 00AF     		add	r7, sp, #0
 128              	.LCFI8:
 129              		.cfi_def_cfa_register 7
  38:./Hardware/device/spi.c **** 	GPIO_InitTypeDef GPIO_InitStructure;
  39:./Hardware/device/spi.c **** 	
  40:./Hardware/device/spi.c **** 	RCC_APB2PeriphClockCmd(RCC_APB2Periph_GPIOA| RCC_APB2Periph_GPIOC,ENABLE);
 130              		.loc 1 40 2
 131 0006 0121     		movs	r1, #1
 132 0008 1420     		movs	r0, #20
 133 000a FFF7FEFF 		bl	RCC_APB2PeriphClockCmd
  41:./Hardware/device/spi.c **** 	GPIO_InitStructure.GPIO_Speed = GPIO_Speed_50MHz;
 134              		.loc 1 41 32
 135 000e 0323     		movs	r3, #3
 136 0010 BB71     		strb	r3, [r7, #6]
  42:./Hardware/device/spi.c **** 
  43:./Hardware/device/spi.c **** 	/* CS */
  44:./Hardware/device/spi.c **** 	GPIO_InitStructure.GPIO_Pin = SL_SPI_CS_PINS;
ARM GAS  C:\Users\86134\AppData\Local\Temp\cckH4Mn9.s 			page 4


 137              		.loc 1 44 30
 138 0012 1023     		movs	r3, #16
 139 0014 BB80     		strh	r3, [r7, #4]	@ movhi
  45:./Hardware/device/spi.c **** 	GPIO_InitStructure.GPIO_Mode = GPIO_Mode_Out_PP;
 140              		.loc 1 45 31
 141 0016 1023     		movs	r3, #16
 142 0018 FB71     		strb	r3, [r7, #7]
  46:./Hardware/device/spi.c **** 	GPIO_Init(SL_SPI_CS_PORT, &GPIO_InitStructure);
 143              		.loc 1 46 2
 144 001a 3B1D     		adds	r3, r7, #4
 145 001c 1946     		mov	r1, r3
 146 001e 1148     		ldr	r0, .L5
 147 0020 FFF7FEFF 		bl	GPIO_Init
  47:./Hardware/device/spi.c **** 	
  48:./Hardware/device/spi.c **** 	/* SCK */
  49:./Hardware/device/spi.c **** 	GPIO_InitStructure.GPIO_Pin = SL_SPI_SCK_PINS;
 148              		.loc 1 49 30
 149 0024 2023     		movs	r3, #32
 150 0026 BB80     		strh	r3, [r7, #4]	@ movhi
  50:./Hardware/device/spi.c **** 	GPIO_InitStructure.GPIO_Mode = GPIO_Mode_Out_PP;
 151              		.loc 1 50 31
 152 0028 1023     		movs	r3, #16
 153 002a FB71     		strb	r3, [r7, #7]
  51:./Hardware/device/spi.c **** 	GPIO_Init(SL_SPI_SCK_PORT, &GPIO_InitStructure);
 154              		.loc 1 51 2
 155 002c 3B1D     		adds	r3, r7, #4
 156 002e 1946     		mov	r1, r3
 157 0030 0C48     		ldr	r0, .L5
 158 0032 FFF7FEFF 		bl	GPIO_Init
  52:./Hardware/device/spi.c **** 	
  53:./Hardware/device/spi.c **** 	/* MISO */
  54:./Hardware/device/spi.c **** 	GPIO_InitStructure.GPIO_Pin = SL_SPI_MISO_PINS;
 159              		.loc 1 54 30
 160 0036 8023     		movs	r3, #128
 161 0038 BB80     		strh	r3, [r7, #4]	@ movhi
  55:./Hardware/device/spi.c **** 	GPIO_InitStructure.GPIO_Mode = GPIO_Mode_IN_FLOATING;
 162              		.loc 1 55 31
 163 003a 0423     		movs	r3, #4
 164 003c FB71     		strb	r3, [r7, #7]
  56:./Hardware/device/spi.c **** 	GPIO_Init(SL_SPI_MISO_PORT, &GPIO_InitStructure);
 165              		.loc 1 56 2
 166 003e 3B1D     		adds	r3, r7, #4
 167 0040 1946     		mov	r1, r3
 168 0042 0848     		ldr	r0, .L5
 169 0044 FFF7FEFF 		bl	GPIO_Init
  57:./Hardware/device/spi.c **** 	
  58:./Hardware/device/spi.c **** 	/* MOSI */
  59:./Hardware/device/spi.c **** 	GPIO_InitStructure.GPIO_Pin = SL_SPI_MOSI_PINS;
 170              		.loc 1 59 30
 171 0048 4023     		movs	r3, #64
 172 004a BB80     		strh	r3, [r7, #4]	@ movhi
  60:./Hardware/device/spi.c **** 	GPIO_InitStructure.GPIO_Mode = GPIO_Mode_Out_PP;
 173              		.loc 1 60 31
 174 004c 1023     		movs	r3, #16
 175 004e FB71     		strb	r3, [r7, #7]
  61:./Hardware/device/spi.c **** 	GPIO_Init(SL_SPI_MOSI_PORT, &GPIO_InitStructure);
 176              		.loc 1 61 2
ARM GAS  C:\Users\86134\AppData\Local\Temp\cckH4Mn9.s 			page 5


 177 0050 3B1D     		adds	r3, r7, #4
 178 0052 1946     		mov	r1, r3
 179 0054 0348     		ldr	r0, .L5
 180 0056 FFF7FEFF 		bl	GPIO_Init
  62:./Hardware/device/spi.c **** 
  63:./Hardware/device/spi.c **** }
 181              		.loc 1 63 1
 182 005a 00BF     		nop
 183 005c 0837     		adds	r7, r7, #8
 184              	.LCFI9:
 185              		.cfi_def_cfa_offset 8
 186 005e BD46     		mov	sp, r7
 187              	.LCFI10:
 188              		.cfi_def_cfa_register 13
 189              		@ sp needed
 190 0060 80BD     		pop	{r7, pc}
 191              	.L6:
 192 0062 00BF     		.align	2
 193              	.L5:
 194 0064 00080140 		.word	1073809408
 195              		.cfi_endproc
 196              	.LFE33:
 198              		.section	.text.spi_send_one_byte,"ax",%progbits
 199              		.align	1
 200              		.global	spi_send_one_byte
 201              		.syntax unified
 202              		.thumb
 203              		.thumb_func
 204              		.fpu softvfp
 206              	spi_send_one_byte:
 207              	.LFB34:
  64:./Hardware/device/spi.c **** 
  65:./Hardware/device/spi.c **** /******************************4线spi****************************************/
  66:./Hardware/device/spi.c **** void spi_send_one_byte(uint8_t buf)
  67:./Hardware/device/spi.c **** {
 208              		.loc 1 67 1
 209              		.cfi_startproc
 210              		@ args = 0, pretend = 0, frame = 16
 211              		@ frame_needed = 1, uses_anonymous_args = 0
 212 0000 80B5     		push	{r7, lr}
 213              	.LCFI11:
 214              		.cfi_def_cfa_offset 8
 215              		.cfi_offset 7, -8
 216              		.cfi_offset 14, -4
 217 0002 84B0     		sub	sp, sp, #16
 218              	.LCFI12:
 219              		.cfi_def_cfa_offset 24
 220 0004 00AF     		add	r7, sp, #0
 221              	.LCFI13:
 222              		.cfi_def_cfa_register 7
 223 0006 0346     		mov	r3, r0
 224 0008 FB71     		strb	r3, [r7, #7]
  68:./Hardware/device/spi.c **** 	uint8_t i;
  69:./Hardware/device/spi.c **** 	
  70:./Hardware/device/spi.c **** 
  71:./Hardware/device/spi.c **** 	for (i = 0; i < 8; i++) 
 225              		.loc 1 71 9
ARM GAS  C:\Users\86134\AppData\Local\Temp\cckH4Mn9.s 			page 6


 226 000a 0023     		movs	r3, #0
 227 000c FB73     		strb	r3, [r7, #15]
 228              		.loc 1 71 2
 229 000e 24E0     		b	.L8
 230              	.L11:
  72:./Hardware/device/spi.c **** 	{
  73:./Hardware/device/spi.c **** 		SPI_SCK(LOW);
 231              		.loc 1 73 3
 232 0010 0022     		movs	r2, #0
 233 0012 2021     		movs	r1, #32
 234 0014 1548     		ldr	r0, .L12
 235 0016 FFF7FEFF 		bl	GPIO_WriteBit
  74:./Hardware/device/spi.c **** 		if (buf & 0x80) 
 236              		.loc 1 74 7
 237 001a 97F90730 		ldrsb	r3, [r7, #7]
 238              		.loc 1 74 6
 239 001e 002B     		cmp	r3, #0
 240 0020 05DA     		bge	.L9
  75:./Hardware/device/spi.c **** 		{
  76:./Hardware/device/spi.c **** 			SPI_MOSI(HIGH);
 241              		.loc 1 76 4
 242 0022 0122     		movs	r2, #1
 243 0024 4021     		movs	r1, #64
 244 0026 1148     		ldr	r0, .L12
 245 0028 FFF7FEFF 		bl	GPIO_WriteBit
 246 002c 04E0     		b	.L10
 247              	.L9:
  77:./Hardware/device/spi.c **** 		} 
  78:./Hardware/device/spi.c **** 		else 
  79:./Hardware/device/spi.c **** 		{
  80:./Hardware/device/spi.c **** 			SPI_MOSI(LOW);
 248              		.loc 1 80 4
 249 002e 0022     		movs	r2, #0
 250 0030 4021     		movs	r1, #64
 251 0032 0E48     		ldr	r0, .L12
 252 0034 FFF7FEFF 		bl	GPIO_WriteBit
 253              	.L10:
  81:./Hardware/device/spi.c **** 		}
  82:./Hardware/device/spi.c **** 		SPI_Delay_us( WAIT_TIME );
 254              		.loc 1 82 3 discriminator 2
 255 0038 0220     		movs	r0, #2
 256 003a FFF7FEFF 		bl	SPI_Delay_us
  83:./Hardware/device/spi.c **** 		SPI_SCK(HIGH);
 257              		.loc 1 83 3 discriminator 2
 258 003e 0122     		movs	r2, #1
 259 0040 2021     		movs	r1, #32
 260 0042 0A48     		ldr	r0, .L12
 261 0044 FFF7FEFF 		bl	GPIO_WriteBit
  84:./Hardware/device/spi.c **** 		SPI_Delay_us( WAIT_TIME );
 262              		.loc 1 84 3 discriminator 2
 263 0048 0220     		movs	r0, #2
 264 004a FFF7FEFF 		bl	SPI_Delay_us
  85:./Hardware/device/spi.c **** 		buf <<= 1;
 265              		.loc 1 85 7 discriminator 2
 266 004e FB79     		ldrb	r3, [r7, #7]
 267 0050 5B00     		lsls	r3, r3, #1
 268 0052 FB71     		strb	r3, [r7, #7]
ARM GAS  C:\Users\86134\AppData\Local\Temp\cckH4Mn9.s 			page 7


  71:./Hardware/device/spi.c **** 	{
 269              		.loc 1 71 22 discriminator 2
 270 0054 FB7B     		ldrb	r3, [r7, #15]	@ zero_extendqisi2
 271 0056 0133     		adds	r3, r3, #1
 272 0058 FB73     		strb	r3, [r7, #15]
 273              	.L8:
  71:./Hardware/device/spi.c **** 	{
 274              		.loc 1 71 2 discriminator 1
 275 005a FB7B     		ldrb	r3, [r7, #15]	@ zero_extendqisi2
 276 005c 072B     		cmp	r3, #7
 277 005e D7D9     		bls	.L11
  86:./Hardware/device/spi.c **** 	}
  87:./Hardware/device/spi.c **** }
 278              		.loc 1 87 1
 279 0060 00BF     		nop
 280 0062 00BF     		nop
 281 0064 1037     		adds	r7, r7, #16
 282              	.LCFI14:
 283              		.cfi_def_cfa_offset 8
 284 0066 BD46     		mov	sp, r7
 285              	.LCFI15:
 286              		.cfi_def_cfa_register 13
 287              		@ sp needed
 288 0068 80BD     		pop	{r7, pc}
 289              	.L13:
 290 006a 00BF     		.align	2
 291              	.L12:
 292 006c 00080140 		.word	1073809408
 293              		.cfi_endproc
 294              	.LFE34:
 296              		.section	.text.spi_receive_one_byte,"ax",%progbits
 297              		.align	1
 298              		.global	spi_receive_one_byte
 299              		.syntax unified
 300              		.thumb
 301              		.thumb_func
 302              		.fpu softvfp
 304              	spi_receive_one_byte:
 305              	.LFB35:
  88:./Hardware/device/spi.c **** 
  89:./Hardware/device/spi.c **** void spi_receive_one_byte(uint8_t *buf)
  90:./Hardware/device/spi.c **** {
 306              		.loc 1 90 1
 307              		.cfi_startproc
 308              		@ args = 0, pretend = 0, frame = 16
 309              		@ frame_needed = 1, uses_anonymous_args = 0
 310 0000 80B5     		push	{r7, lr}
 311              	.LCFI16:
 312              		.cfi_def_cfa_offset 8
 313              		.cfi_offset 7, -8
 314              		.cfi_offset 14, -4
 315 0002 84B0     		sub	sp, sp, #16
 316              	.LCFI17:
 317              		.cfi_def_cfa_offset 24
 318 0004 00AF     		add	r7, sp, #0
 319              	.LCFI18:
 320              		.cfi_def_cfa_register 7
ARM GAS  C:\Users\86134\AppData\Local\Temp\cckH4Mn9.s 			page 8


 321 0006 7860     		str	r0, [r7, #4]
  91:./Hardware/device/spi.c **** 	uint8_t i;
  92:./Hardware/device/spi.c **** 	
  93:./Hardware/device/spi.c **** 	*buf = 0;
 322              		.loc 1 93 7
 323 0008 7B68     		ldr	r3, [r7, #4]
 324 000a 0022     		movs	r2, #0
 325 000c 1A70     		strb	r2, [r3]
  94:./Hardware/device/spi.c **** 	for (i = 0; i < 8; i++) 
 326              		.loc 1 94 9
 327 000e 0023     		movs	r3, #0
 328 0010 FB73     		strb	r3, [r7, #15]
 329              		.loc 1 94 2
 330 0012 26E0     		b	.L15
 331              	.L17:
  95:./Hardware/device/spi.c **** 	{
  96:./Hardware/device/spi.c **** 		SPI_SCK(LOW);
 332              		.loc 1 96 3
 333 0014 0022     		movs	r2, #0
 334 0016 2021     		movs	r1, #32
 335 0018 1648     		ldr	r0, .L18
 336 001a FFF7FEFF 		bl	GPIO_WriteBit
  97:./Hardware/device/spi.c **** 		SPI_Delay_us( WAIT_TIME );
 337              		.loc 1 97 3
 338 001e 0220     		movs	r0, #2
 339 0020 FFF7FEFF 		bl	SPI_Delay_us
  98:./Hardware/device/spi.c **** 		SPI_SCK(HIGH);
 340              		.loc 1 98 3
 341 0024 0122     		movs	r2, #1
 342 0026 2021     		movs	r1, #32
 343 0028 1248     		ldr	r0, .L18
 344 002a FFF7FEFF 		bl	GPIO_WriteBit
  99:./Hardware/device/spi.c **** 		*buf <<= 1;
 345              		.loc 1 99 8
 346 002e 7B68     		ldr	r3, [r7, #4]
 347 0030 1B78     		ldrb	r3, [r3]	@ zero_extendqisi2
 348 0032 5B00     		lsls	r3, r3, #1
 349 0034 DAB2     		uxtb	r2, r3
 350 0036 7B68     		ldr	r3, [r7, #4]
 351 0038 1A70     		strb	r2, [r3]
 100:./Hardware/device/spi.c **** 		if (SPI_MISO) 
 352              		.loc 1 100 7
 353 003a 8021     		movs	r1, #128
 354 003c 0D48     		ldr	r0, .L18
 355 003e FFF7FEFF 		bl	GPIO_ReadInputDataBit
 356 0042 0346     		mov	r3, r0
 357              		.loc 1 100 6
 358 0044 002B     		cmp	r3, #0
 359 0046 06D0     		beq	.L16
 101:./Hardware/device/spi.c **** 		{
 102:./Hardware/device/spi.c **** 			*buf |= 0x01;
 360              		.loc 1 102 9
 361 0048 7B68     		ldr	r3, [r7, #4]
 362 004a 1B78     		ldrb	r3, [r3]	@ zero_extendqisi2
 363 004c 43F00103 		orr	r3, r3, #1
 364 0050 DAB2     		uxtb	r2, r3
 365 0052 7B68     		ldr	r3, [r7, #4]
ARM GAS  C:\Users\86134\AppData\Local\Temp\cckH4Mn9.s 			page 9


 366 0054 1A70     		strb	r2, [r3]
 367              	.L16:
 103:./Hardware/device/spi.c **** 		}
 104:./Hardware/device/spi.c **** 		SPI_Delay_us( WAIT_TIME );
 368              		.loc 1 104 3 discriminator 2
 369 0056 0220     		movs	r0, #2
 370 0058 FFF7FEFF 		bl	SPI_Delay_us
  94:./Hardware/device/spi.c **** 	{
 371              		.loc 1 94 22 discriminator 2
 372 005c FB7B     		ldrb	r3, [r7, #15]	@ zero_extendqisi2
 373 005e 0133     		adds	r3, r3, #1
 374 0060 FB73     		strb	r3, [r7, #15]
 375              	.L15:
  94:./Hardware/device/spi.c **** 	{
 376              		.loc 1 94 2 discriminator 1
 377 0062 FB7B     		ldrb	r3, [r7, #15]	@ zero_extendqisi2
 378 0064 072B     		cmp	r3, #7
 379 0066 D5D9     		bls	.L17
 105:./Hardware/device/spi.c **** 	}
 106:./Hardware/device/spi.c **** }
 380              		.loc 1 106 1
 381 0068 00BF     		nop
 382 006a 00BF     		nop
 383 006c 1037     		adds	r7, r7, #16
 384              	.LCFI19:
 385              		.cfi_def_cfa_offset 8
 386 006e BD46     		mov	sp, r7
 387              	.LCFI20:
 388              		.cfi_def_cfa_register 13
 389              		@ sp needed
 390 0070 80BD     		pop	{r7, pc}
 391              	.L19:
 392 0072 00BF     		.align	2
 393              	.L18:
 394 0074 00080140 		.word	1073809408
 395              		.cfi_endproc
 396              	.LFE35:
 398              		.section	.text.spi_read_multi_bytes,"ax",%progbits
 399              		.align	1
 400              		.global	spi_read_multi_bytes
 401              		.syntax unified
 402              		.thumb
 403              		.thumb_func
 404              		.fpu softvfp
 406              	spi_read_multi_bytes:
 407              	.LFB36:
 107:./Hardware/device/spi.c **** 
 108:./Hardware/device/spi.c **** uint8_t spi_read_multi_bytes(uint8_t reg_addr, uint8_t *buf, uint8_t size)
 109:./Hardware/device/spi.c **** {	
 408              		.loc 1 109 1
 409              		.cfi_startproc
 410              		@ args = 0, pretend = 0, frame = 16
 411              		@ frame_needed = 1, uses_anonymous_args = 0
 412 0000 80B5     		push	{r7, lr}
 413              	.LCFI21:
 414              		.cfi_def_cfa_offset 8
 415              		.cfi_offset 7, -8
ARM GAS  C:\Users\86134\AppData\Local\Temp\cckH4Mn9.s 			page 10


 416              		.cfi_offset 14, -4
 417 0002 84B0     		sub	sp, sp, #16
 418              	.LCFI22:
 419              		.cfi_def_cfa_offset 24
 420 0004 00AF     		add	r7, sp, #0
 421              	.LCFI23:
 422              		.cfi_def_cfa_register 7
 423 0006 0346     		mov	r3, r0
 424 0008 3960     		str	r1, [r7]
 425 000a FB71     		strb	r3, [r7, #7]
 426 000c 1346     		mov	r3, r2
 427 000e BB71     		strb	r3, [r7, #6]
 110:./Hardware/device/spi.c **** 	uint8_t i;
 111:./Hardware/device/spi.c **** 	
 112:./Hardware/device/spi.c **** 	SPI_SCK(HIGH);
 428              		.loc 1 112 2
 429 0010 0122     		movs	r2, #1
 430 0012 2021     		movs	r1, #32
 431 0014 1648     		ldr	r0, .L24
 432 0016 FFF7FEFF 		bl	GPIO_WriteBit
 113:./Hardware/device/spi.c **** 	SPI_CS(HIGH);
 433              		.loc 1 113 2
 434 001a 0122     		movs	r2, #1
 435 001c 1021     		movs	r1, #16
 436 001e 1448     		ldr	r0, .L24
 437 0020 FFF7FEFF 		bl	GPIO_WriteBit
 114:./Hardware/device/spi.c **** 	SPI_Delay_us( WAIT_TIME );
 438              		.loc 1 114 2
 439 0024 0220     		movs	r0, #2
 440 0026 FFF7FEFF 		bl	SPI_Delay_us
 115:./Hardware/device/spi.c **** 	reg_addr |= 0x80;
 441              		.loc 1 115 11
 442 002a FB79     		ldrb	r3, [r7, #7]
 443 002c 63F07F03 		orn	r3, r3, #127
 444 0030 FB71     		strb	r3, [r7, #7]
 116:./Hardware/device/spi.c **** 	spi_send_one_byte(reg_addr);
 445              		.loc 1 116 2
 446 0032 FB79     		ldrb	r3, [r7, #7]	@ zero_extendqisi2
 447 0034 1846     		mov	r0, r3
 448 0036 FFF7FEFF 		bl	spi_send_one_byte
 117:./Hardware/device/spi.c **** 	for (i = 0; i < size; i++) 
 449              		.loc 1 117 9
 450 003a 0023     		movs	r3, #0
 451 003c FB73     		strb	r3, [r7, #15]
 452              		.loc 1 117 2
 453 003e 08E0     		b	.L21
 454              	.L22:
 118:./Hardware/device/spi.c **** 	{
 119:./Hardware/device/spi.c **** 		spi_receive_one_byte(buf + i);
 455              		.loc 1 119 3 discriminator 3
 456 0040 FB7B     		ldrb	r3, [r7, #15]	@ zero_extendqisi2
 457 0042 3A68     		ldr	r2, [r7]
 458 0044 1344     		add	r3, r3, r2
 459 0046 1846     		mov	r0, r3
 460 0048 FFF7FEFF 		bl	spi_receive_one_byte
 117:./Hardware/device/spi.c **** 	for (i = 0; i < size; i++) 
 461              		.loc 1 117 25 discriminator 3
ARM GAS  C:\Users\86134\AppData\Local\Temp\cckH4Mn9.s 			page 11


 462 004c FB7B     		ldrb	r3, [r7, #15]	@ zero_extendqisi2
 463 004e 0133     		adds	r3, r3, #1
 464 0050 FB73     		strb	r3, [r7, #15]
 465              	.L21:
 117:./Hardware/device/spi.c **** 	for (i = 0; i < size; i++) 
 466              		.loc 1 117 2 discriminator 1
 467 0052 FA7B     		ldrb	r2, [r7, #15]	@ zero_extendqisi2
 468 0054 BB79     		ldrb	r3, [r7, #6]	@ zero_extendqisi2
 469 0056 9A42     		cmp	r2, r3
 470 0058 F2D3     		bcc	.L22
 120:./Hardware/device/spi.c **** 	}
 121:./Hardware/device/spi.c **** 	SPI_CS(LOW);
 471              		.loc 1 121 2
 472 005a 0022     		movs	r2, #0
 473 005c 1021     		movs	r1, #16
 474 005e 0448     		ldr	r0, .L24
 475 0060 FFF7FEFF 		bl	GPIO_WriteBit
 122:./Hardware/device/spi.c **** 	
 123:./Hardware/device/spi.c **** 	return TRUE;
 476              		.loc 1 123 9
 477 0064 0123     		movs	r3, #1
 124:./Hardware/device/spi.c **** }
 478              		.loc 1 124 1
 479 0066 1846     		mov	r0, r3
 480 0068 1037     		adds	r7, r7, #16
 481              	.LCFI24:
 482              		.cfi_def_cfa_offset 8
 483 006a BD46     		mov	sp, r7
 484              	.LCFI25:
 485              		.cfi_def_cfa_register 13
 486              		@ sp needed
 487 006c 80BD     		pop	{r7, pc}
 488              	.L25:
 489 006e 00BF     		.align	2
 490              	.L24:
 491 0070 00080140 		.word	1073809408
 492              		.cfi_endproc
 493              	.LFE36:
 495              		.section	.text.spi_write_multi_bytes,"ax",%progbits
 496              		.align	1
 497              		.global	spi_write_multi_bytes
 498              		.syntax unified
 499              		.thumb
 500              		.thumb_func
 501              		.fpu softvfp
 503              	spi_write_multi_bytes:
 504              	.LFB37:
 125:./Hardware/device/spi.c **** 
 126:./Hardware/device/spi.c **** uint8_t spi_write_multi_bytes(uint8_t reg_addr, uint8_t *buf, uint8_t size)
 127:./Hardware/device/spi.c **** {
 505              		.loc 1 127 1
 506              		.cfi_startproc
 507              		@ args = 0, pretend = 0, frame = 16
 508              		@ frame_needed = 1, uses_anonymous_args = 0
 509 0000 80B5     		push	{r7, lr}
 510              	.LCFI26:
 511              		.cfi_def_cfa_offset 8
ARM GAS  C:\Users\86134\AppData\Local\Temp\cckH4Mn9.s 			page 12


 512              		.cfi_offset 7, -8
 513              		.cfi_offset 14, -4
 514 0002 84B0     		sub	sp, sp, #16
 515              	.LCFI27:
 516              		.cfi_def_cfa_offset 24
 517 0004 00AF     		add	r7, sp, #0
 518              	.LCFI28:
 519              		.cfi_def_cfa_register 7
 520 0006 0346     		mov	r3, r0
 521 0008 3960     		str	r1, [r7]
 522 000a FB71     		strb	r3, [r7, #7]
 523 000c 1346     		mov	r3, r2
 524 000e BB71     		strb	r3, [r7, #6]
 128:./Hardware/device/spi.c **** 	uint8_t i;
 129:./Hardware/device/spi.c **** 	
 130:./Hardware/device/spi.c **** 	SPI_SCK(HIGH);
 525              		.loc 1 130 2
 526 0010 0122     		movs	r2, #1
 527 0012 2021     		movs	r1, #32
 528 0014 1648     		ldr	r0, .L30
 529 0016 FFF7FEFF 		bl	GPIO_WriteBit
 131:./Hardware/device/spi.c **** 	SPI_CS(HIGH);
 530              		.loc 1 131 2
 531 001a 0122     		movs	r2, #1
 532 001c 1021     		movs	r1, #16
 533 001e 1448     		ldr	r0, .L30
 534 0020 FFF7FEFF 		bl	GPIO_WriteBit
 132:./Hardware/device/spi.c **** 	SPI_Delay_us( WAIT_TIME );
 535              		.loc 1 132 2
 536 0024 0220     		movs	r0, #2
 537 0026 FFF7FEFF 		bl	SPI_Delay_us
 133:./Hardware/device/spi.c **** 	reg_addr &= 0x7f;
 538              		.loc 1 133 11
 539 002a FB79     		ldrb	r3, [r7, #7]
 540 002c 03F07F03 		and	r3, r3, #127
 541 0030 FB71     		strb	r3, [r7, #7]
 134:./Hardware/device/spi.c **** 	spi_send_one_byte(reg_addr);
 542              		.loc 1 134 2
 543 0032 FB79     		ldrb	r3, [r7, #7]	@ zero_extendqisi2
 544 0034 1846     		mov	r0, r3
 545 0036 FFF7FEFF 		bl	spi_send_one_byte
 135:./Hardware/device/spi.c **** 	for (i = 0; i < size; i++) 
 546              		.loc 1 135 9
 547 003a 0023     		movs	r3, #0
 548 003c FB73     		strb	r3, [r7, #15]
 549              		.loc 1 135 2
 550 003e 09E0     		b	.L27
 551              	.L28:
 136:./Hardware/device/spi.c **** 	{
 137:./Hardware/device/spi.c **** 		spi_send_one_byte(buf[i]);
 552              		.loc 1 137 24 discriminator 3
 553 0040 FB7B     		ldrb	r3, [r7, #15]	@ zero_extendqisi2
 554 0042 3A68     		ldr	r2, [r7]
 555 0044 1344     		add	r3, r3, r2
 556              		.loc 1 137 3 discriminator 3
 557 0046 1B78     		ldrb	r3, [r3]	@ zero_extendqisi2
 558 0048 1846     		mov	r0, r3
ARM GAS  C:\Users\86134\AppData\Local\Temp\cckH4Mn9.s 			page 13


 559 004a FFF7FEFF 		bl	spi_send_one_byte
 135:./Hardware/device/spi.c **** 	for (i = 0; i < size; i++) 
 560              		.loc 1 135 25 discriminator 3
 561 004e FB7B     		ldrb	r3, [r7, #15]	@ zero_extendqisi2
 562 0050 0133     		adds	r3, r3, #1
 563 0052 FB73     		strb	r3, [r7, #15]
 564              	.L27:
 135:./Hardware/device/spi.c **** 	for (i = 0; i < size; i++) 
 565              		.loc 1 135 2 discriminator 1
 566 0054 FA7B     		ldrb	r2, [r7, #15]	@ zero_extendqisi2
 567 0056 BB79     		ldrb	r3, [r7, #6]	@ zero_extendqisi2
 568 0058 9A42     		cmp	r2, r3
 569 005a F1D3     		bcc	.L28
 138:./Hardware/device/spi.c **** 	}
 139:./Hardware/device/spi.c **** 	SPI_CS(LOW);
 570              		.loc 1 139 2
 571 005c 0022     		movs	r2, #0
 572 005e 1021     		movs	r1, #16
 573 0060 0348     		ldr	r0, .L30
 574 0062 FFF7FEFF 		bl	GPIO_WriteBit
 140:./Hardware/device/spi.c **** 	
 141:./Hardware/device/spi.c **** 	return TRUE;
 575              		.loc 1 141 9
 576 0066 0123     		movs	r3, #1
 142:./Hardware/device/spi.c **** }
 577              		.loc 1 142 1
 578 0068 1846     		mov	r0, r3
 579 006a 1037     		adds	r7, r7, #16
 580              	.LCFI29:
 581              		.cfi_def_cfa_offset 8
 582 006c BD46     		mov	sp, r7
 583              	.LCFI30:
 584              		.cfi_def_cfa_register 13
 585              		@ sp needed
 586 006e 80BD     		pop	{r7, pc}
 587              	.L31:
 588              		.align	2
 589              	.L30:
 590 0070 00080140 		.word	1073809408
 591              		.cfi_endproc
 592              	.LFE37:
 594              		.section	.text.SD8840_ReadTimeDate,"ax",%progbits
 595              		.align	1
 596              		.global	SD8840_ReadTimeDate
 597              		.syntax unified
 598              		.thumb
 599              		.thumb_func
 600              		.fpu softvfp
 602              	SD8840_ReadTimeDate:
 603              	.LFB38:
 143:./Hardware/device/spi.c **** 
 144:./Hardware/device/spi.c **** 
 145:./Hardware/device/spi.c **** spi_exit_code SD8840_ReadTimeDate(void)
 146:./Hardware/device/spi.c **** {
 604              		.loc 1 146 1
 605              		.cfi_startproc
 606              		@ args = 0, pretend = 0, frame = 8
ARM GAS  C:\Users\86134\AppData\Local\Temp\cckH4Mn9.s 			page 14


 607              		@ frame_needed = 1, uses_anonymous_args = 0
 608 0000 90B5     		push	{r4, r7, lr}
 609              	.LCFI31:
 610              		.cfi_def_cfa_offset 12
 611              		.cfi_offset 4, -12
 612              		.cfi_offset 7, -8
 613              		.cfi_offset 14, -4
 614 0002 83B0     		sub	sp, sp, #12
 615              	.LCFI32:
 616              		.cfi_def_cfa_offset 24
 617 0004 00AF     		add	r7, sp, #0
 618              	.LCFI33:
 619              		.cfi_def_cfa_register 7
 147:./Hardware/device/spi.c **** 	uint8_t i;
 148:./Hardware/device/spi.c **** 	spi_read_multi_bytes(0x00,spi_time_buf,7);
 620              		.loc 1 148 2
 621 0006 0722     		movs	r2, #7
 622 0008 0F49     		ldr	r1, .L36
 623 000a 0020     		movs	r0, #0
 624 000c FFF7FEFF 		bl	spi_read_multi_bytes
 149:./Hardware/device/spi.c **** 	for(i=0;i<8;i++)
 625              		.loc 1 149 7
 626 0010 0023     		movs	r3, #0
 627 0012 FB71     		strb	r3, [r7, #7]
 628              		.loc 1 149 2
 629 0014 0DE0     		b	.L33
 630              	.L34:
 150:./Hardware/device/spi.c **** 	{
 151:./Hardware/device/spi.c **** 		spi_show_time[i]=bcd_to_dec(spi_time_buf[i]);
 631              		.loc 1 151 20 discriminator 3
 632 0016 FB79     		ldrb	r3, [r7, #7]	@ zero_extendqisi2
 633 0018 0B4A     		ldr	r2, .L36
 634 001a D35C     		ldrb	r3, [r2, r3]	@ zero_extendqisi2
 635              		.loc 1 151 16 discriminator 3
 636 001c FC79     		ldrb	r4, [r7, #7]	@ zero_extendqisi2
 637              		.loc 1 151 20 discriminator 3
 638 001e 1846     		mov	r0, r3
 639 0020 FFF7FEFF 		bl	bcd_to_dec
 640 0024 0346     		mov	r3, r0
 641 0026 1A46     		mov	r2, r3
 642              		.loc 1 151 19 discriminator 3
 643 0028 084B     		ldr	r3, .L36+4
 644 002a 1A55     		strb	r2, [r3, r4]
 149:./Hardware/device/spi.c **** 	for(i=0;i<8;i++)
 645              		.loc 1 149 15 discriminator 3
 646 002c FB79     		ldrb	r3, [r7, #7]	@ zero_extendqisi2
 647 002e 0133     		adds	r3, r3, #1
 648 0030 FB71     		strb	r3, [r7, #7]
 649              	.L33:
 149:./Hardware/device/spi.c **** 	for(i=0;i<8;i++)
 650              		.loc 1 149 2 discriminator 1
 651 0032 FB79     		ldrb	r3, [r7, #7]	@ zero_extendqisi2
 652 0034 072B     		cmp	r3, #7
 653 0036 EED9     		bls	.L34
 152:./Hardware/device/spi.c **** 	}
 153:./Hardware/device/spi.c **** 	spi_readtime(spi_show_time);
 654              		.loc 1 153 2
ARM GAS  C:\Users\86134\AppData\Local\Temp\cckH4Mn9.s 			page 15


 655 0038 0448     		ldr	r0, .L36+4
 656 003a FFF7FEFF 		bl	spi_readtime
 154:./Hardware/device/spi.c **** 	
 155:./Hardware/device/spi.c **** 	return SPI_OK;
 657              		.loc 1 155 9
 658 003e 0023     		movs	r3, #0
 156:./Hardware/device/spi.c **** }
 659              		.loc 1 156 1
 660 0040 1846     		mov	r0, r3
 661 0042 0C37     		adds	r7, r7, #12
 662              	.LCFI34:
 663              		.cfi_def_cfa_offset 12
 664 0044 BD46     		mov	sp, r7
 665              	.LCFI35:
 666              		.cfi_def_cfa_register 13
 667              		@ sp needed
 668 0046 90BD     		pop	{r4, r7, pc}
 669              	.L37:
 670              		.align	2
 671              	.L36:
 672 0048 00000000 		.word	spi_time_buf
 673 004c 00000000 		.word	spi_show_time
 674              		.cfi_endproc
 675              	.LFE38:
 677              		.section	.text.SD8840_WriteTimeDate,"ax",%progbits
 678              		.align	1
 679              		.global	SD8840_WriteTimeDate
 680              		.syntax unified
 681              		.thumb
 682              		.thumb_func
 683              		.fpu softvfp
 685              	SD8840_WriteTimeDate:
 686              	.LFB39:
 157:./Hardware/device/spi.c **** 
 158:./Hardware/device/spi.c **** spi_exit_code SD8840_WriteTimeDate(void)
 159:./Hardware/device/spi.c **** {
 687              		.loc 1 159 1
 688              		.cfi_startproc
 689              		@ args = 0, pretend = 0, frame = 8
 690              		@ frame_needed = 1, uses_anonymous_args = 0
 691 0000 90B5     		push	{r4, r7, lr}
 692              	.LCFI36:
 693              		.cfi_def_cfa_offset 12
 694              		.cfi_offset 4, -12
 695              		.cfi_offset 7, -8
 696              		.cfi_offset 14, -4
 697 0002 83B0     		sub	sp, sp, #12
 698              	.LCFI37:
 699              		.cfi_def_cfa_offset 24
 700 0004 00AF     		add	r7, sp, #0
 701              	.LCFI38:
 702              		.cfi_def_cfa_register 7
 160:./Hardware/device/spi.c **** 	uint8_t i;
 161:./Hardware/device/spi.c **** 	
 162:./Hardware/device/spi.c **** 	for(i=0;i<8;i++)
 703              		.loc 1 162 7
 704 0006 0023     		movs	r3, #0
ARM GAS  C:\Users\86134\AppData\Local\Temp\cckH4Mn9.s 			page 16


 705 0008 FB71     		strb	r3, [r7, #7]
 706              		.loc 1 162 2
 707 000a 0DE0     		b	.L39
 708              	.L40:
 163:./Hardware/device/spi.c **** 	{
 164:./Hardware/device/spi.c **** 		spi_show_time[i]=bcd_to_dec(spi_time_buf[i]);
 709              		.loc 1 164 20 discriminator 3
 710 000c FB79     		ldrb	r3, [r7, #7]	@ zero_extendqisi2
 711 000e 0E4A     		ldr	r2, .L42
 712 0010 D35C     		ldrb	r3, [r2, r3]	@ zero_extendqisi2
 713              		.loc 1 164 16 discriminator 3
 714 0012 FC79     		ldrb	r4, [r7, #7]	@ zero_extendqisi2
 715              		.loc 1 164 20 discriminator 3
 716 0014 1846     		mov	r0, r3
 717 0016 FFF7FEFF 		bl	bcd_to_dec
 718 001a 0346     		mov	r3, r0
 719 001c 1A46     		mov	r2, r3
 720              		.loc 1 164 19 discriminator 3
 721 001e 0B4B     		ldr	r3, .L42+4
 722 0020 1A55     		strb	r2, [r3, r4]
 162:./Hardware/device/spi.c **** 	{
 723              		.loc 1 162 15 discriminator 3
 724 0022 FB79     		ldrb	r3, [r7, #7]	@ zero_extendqisi2
 725 0024 0133     		adds	r3, r3, #1
 726 0026 FB71     		strb	r3, [r7, #7]
 727              	.L39:
 162:./Hardware/device/spi.c **** 	{
 728              		.loc 1 162 2 discriminator 1
 729 0028 FB79     		ldrb	r3, [r7, #7]	@ zero_extendqisi2
 730 002a 072B     		cmp	r3, #7
 731 002c EED9     		bls	.L40
 165:./Hardware/device/spi.c **** 	}
 166:./Hardware/device/spi.c **** 	
 167:./Hardware/device/spi.c **** 	spi_write_multi_bytes(0x00,spi_show_time,7);
 732              		.loc 1 167 2
 733 002e 0722     		movs	r2, #7
 734 0030 0649     		ldr	r1, .L42+4
 735 0032 0020     		movs	r0, #0
 736 0034 FFF7FEFF 		bl	spi_write_multi_bytes
 168:./Hardware/device/spi.c **** 	
 169:./Hardware/device/spi.c **** 	spi_readtime(spi_show_time);
 737              		.loc 1 169 2
 738 0038 0448     		ldr	r0, .L42+4
 739 003a FFF7FEFF 		bl	spi_readtime
 170:./Hardware/device/spi.c **** 	
 171:./Hardware/device/spi.c **** 	return SPI_OK;
 740              		.loc 1 171 9
 741 003e 0023     		movs	r3, #0
 172:./Hardware/device/spi.c **** }
 742              		.loc 1 172 1
 743 0040 1846     		mov	r0, r3
 744 0042 0C37     		adds	r7, r7, #12
 745              	.LCFI39:
 746              		.cfi_def_cfa_offset 12
 747 0044 BD46     		mov	sp, r7
 748              	.LCFI40:
 749              		.cfi_def_cfa_register 13
ARM GAS  C:\Users\86134\AppData\Local\Temp\cckH4Mn9.s 			page 17


 750              		@ sp needed
 751 0046 90BD     		pop	{r4, r7, pc}
 752              	.L43:
 753              		.align	2
 754              	.L42:
 755 0048 00000000 		.word	spi_time_buf
 756 004c 00000000 		.word	spi_show_time
 757              		.cfi_endproc
 758              	.LFE39:
 760              		.section	.text.SD8840_ReadTimeDate_show,"ax",%progbits
 761              		.align	1
 762              		.global	SD8840_ReadTimeDate_show
 763              		.syntax unified
 764              		.thumb
 765              		.thumb_func
 766              		.fpu softvfp
 768              	SD8840_ReadTimeDate_show:
 769              	.LFB40:
 173:./Hardware/device/spi.c **** 
 174:./Hardware/device/spi.c **** 
 175:./Hardware/device/spi.c **** 
 176:./Hardware/device/spi.c **** spi_exit_code SD8840_ReadTimeDate_show(void)
 177:./Hardware/device/spi.c **** {
 770              		.loc 1 177 1
 771              		.cfi_startproc
 772              		@ args = 0, pretend = 0, frame = 8
 773              		@ frame_needed = 1, uses_anonymous_args = 0
 774 0000 90B5     		push	{r4, r7, lr}
 775              	.LCFI41:
 776              		.cfi_def_cfa_offset 12
 777              		.cfi_offset 4, -12
 778              		.cfi_offset 7, -8
 779              		.cfi_offset 14, -4
 780 0002 83B0     		sub	sp, sp, #12
 781              	.LCFI42:
 782              		.cfi_def_cfa_offset 24
 783 0004 00AF     		add	r7, sp, #0
 784              	.LCFI43:
 785              		.cfi_def_cfa_register 7
 178:./Hardware/device/spi.c **** 	uint8_t i;
 179:./Hardware/device/spi.c **** 	spi_read_multi_bytes(0x00,spi_time_buf,7);
 786              		.loc 1 179 2
 787 0006 0722     		movs	r2, #7
 788 0008 0F49     		ldr	r1, .L48
 789 000a 0020     		movs	r0, #0
 790 000c FFF7FEFF 		bl	spi_read_multi_bytes
 180:./Hardware/device/spi.c **** 	for(i=0;i<8;i++)
 791              		.loc 1 180 7
 792 0010 0023     		movs	r3, #0
 793 0012 FB71     		strb	r3, [r7, #7]
 794              		.loc 1 180 2
 795 0014 0DE0     		b	.L45
 796              	.L46:
 181:./Hardware/device/spi.c **** 	{
 182:./Hardware/device/spi.c **** 		spi_show_time[i]=bcd_to_dec(spi_time_buf[i]);
 797              		.loc 1 182 20 discriminator 3
 798 0016 FB79     		ldrb	r3, [r7, #7]	@ zero_extendqisi2
ARM GAS  C:\Users\86134\AppData\Local\Temp\cckH4Mn9.s 			page 18


 799 0018 0B4A     		ldr	r2, .L48
 800 001a D35C     		ldrb	r3, [r2, r3]	@ zero_extendqisi2
 801              		.loc 1 182 16 discriminator 3
 802 001c FC79     		ldrb	r4, [r7, #7]	@ zero_extendqisi2
 803              		.loc 1 182 20 discriminator 3
 804 001e 1846     		mov	r0, r3
 805 0020 FFF7FEFF 		bl	bcd_to_dec
 806 0024 0346     		mov	r3, r0
 807 0026 1A46     		mov	r2, r3
 808              		.loc 1 182 19 discriminator 3
 809 0028 084B     		ldr	r3, .L48+4
 810 002a 1A55     		strb	r2, [r3, r4]
 180:./Hardware/device/spi.c **** 	for(i=0;i<8;i++)
 811              		.loc 1 180 15 discriminator 3
 812 002c FB79     		ldrb	r3, [r7, #7]	@ zero_extendqisi2
 813 002e 0133     		adds	r3, r3, #1
 814 0030 FB71     		strb	r3, [r7, #7]
 815              	.L45:
 180:./Hardware/device/spi.c **** 	for(i=0;i<8;i++)
 816              		.loc 1 180 2 discriminator 1
 817 0032 FB79     		ldrb	r3, [r7, #7]	@ zero_extendqisi2
 818 0034 072B     		cmp	r3, #7
 819 0036 EED9     		bls	.L46
 183:./Hardware/device/spi.c **** 	}
 184:./Hardware/device/spi.c **** 	spi_readtime_show(spi_show_time);
 820              		.loc 1 184 2
 821 0038 0448     		ldr	r0, .L48+4
 822 003a FFF7FEFF 		bl	spi_readtime_show
 185:./Hardware/device/spi.c **** 	
 186:./Hardware/device/spi.c **** 	return SPI_OK;
 823              		.loc 1 186 9
 824 003e 0023     		movs	r3, #0
 187:./Hardware/device/spi.c **** }
 825              		.loc 1 187 1
 826 0040 1846     		mov	r0, r3
 827 0042 0C37     		adds	r7, r7, #12
 828              	.LCFI44:
 829              		.cfi_def_cfa_offset 12
 830 0044 BD46     		mov	sp, r7
 831              	.LCFI45:
 832              		.cfi_def_cfa_register 13
 833              		@ sp needed
 834 0046 90BD     		pop	{r4, r7, pc}
 835              	.L49:
 836              		.align	2
 837              	.L48:
 838 0048 00000000 		.word	spi_time_buf
 839 004c 00000000 		.word	spi_show_time
 840              		.cfi_endproc
 841              	.LFE40:
 843              		.section	.text.spi_readtime,"ax",%progbits
 844              		.align	1
 845              		.global	spi_readtime
 846              		.syntax unified
 847              		.thumb
 848              		.thumb_func
 849              		.fpu softvfp
ARM GAS  C:\Users\86134\AppData\Local\Temp\cckH4Mn9.s 			page 19


 851              	spi_readtime:
 852              	.LFB41:
 188:./Hardware/device/spi.c **** 
 189:./Hardware/device/spi.c **** void spi_readtime(uint8_t *time)
 190:./Hardware/device/spi.c **** {
 853              		.loc 1 190 1
 854              		.cfi_startproc
 855              		@ args = 0, pretend = 0, frame = 24
 856              		@ frame_needed = 1, uses_anonymous_args = 0
 857 0000 80B5     		push	{r7, lr}
 858              	.LCFI46:
 859              		.cfi_def_cfa_offset 8
 860              		.cfi_offset 7, -8
 861              		.cfi_offset 14, -4
 862 0002 88B0     		sub	sp, sp, #32
 863              	.LCFI47:
 864              		.cfi_def_cfa_offset 40
 865 0004 02AF     		add	r7, sp, #8
 866              	.LCFI48:
 867              		.cfi_def_cfa 7, 32
 868 0006 7860     		str	r0, [r7, #4]
 191:./Hardware/device/spi.c **** 	uint8_t year_h,year_l;
 192:./Hardware/device/spi.c **** 	uint8_t month_h,month_l;
 193:./Hardware/device/spi.c **** 	uint8_t day_h,day_l;
 194:./Hardware/device/spi.c **** 	uint8_t week;
 195:./Hardware/device/spi.c **** 	uint8_t hour_h,hour_l;
 196:./Hardware/device/spi.c **** 	uint8_t minute_h,minute_l;
 197:./Hardware/device/spi.c **** 	uint8_t second_h,second_l;
 198:./Hardware/device/spi.c **** 
 199:./Hardware/device/spi.c **** 	year_h = time[6]/ 10;
 869              		.loc 1 199 15
 870 0008 7B68     		ldr	r3, [r7, #4]
 871 000a 0633     		adds	r3, r3, #6
 872 000c 1B78     		ldrb	r3, [r3]	@ zero_extendqisi2
 873              		.loc 1 199 9
 874 000e 834A     		ldr	r2, .L51
 875 0010 A2FB0323 		umull	r2, r3, r2, r3
 876 0014 DB08     		lsrs	r3, r3, #3
 877 0016 FB75     		strb	r3, [r7, #23]
 200:./Hardware/device/spi.c **** 	year_l = time[6] % 10;  //年
 878              		.loc 1 200 15
 879 0018 7B68     		ldr	r3, [r7, #4]
 880 001a 0633     		adds	r3, r3, #6
 881 001c 1A78     		ldrb	r2, [r3]	@ zero_extendqisi2
 882              		.loc 1 200 9
 883 001e 7F4B     		ldr	r3, .L51
 884 0020 A3FB0213 		umull	r1, r3, r3, r2
 885 0024 D908     		lsrs	r1, r3, #3
 886 0026 0B46     		mov	r3, r1
 887 0028 9B00     		lsls	r3, r3, #2
 888 002a 0B44     		add	r3, r3, r1
 889 002c 5B00     		lsls	r3, r3, #1
 890 002e D31A     		subs	r3, r2, r3
 891 0030 BB75     		strb	r3, [r7, #22]
 201:./Hardware/device/spi.c **** 	
 202:./Hardware/device/spi.c **** 	month_h = time[5] / 10;
 892              		.loc 1 202 16
ARM GAS  C:\Users\86134\AppData\Local\Temp\cckH4Mn9.s 			page 20


 893 0032 7B68     		ldr	r3, [r7, #4]
 894 0034 0533     		adds	r3, r3, #5
 895 0036 1B78     		ldrb	r3, [r3]	@ zero_extendqisi2
 896              		.loc 1 202 10
 897 0038 784A     		ldr	r2, .L51
 898 003a A2FB0323 		umull	r2, r3, r2, r3
 899 003e DB08     		lsrs	r3, r3, #3
 900 0040 7B75     		strb	r3, [r7, #21]
 203:./Hardware/device/spi.c **** 	month_l = time[5]% 10;  //月
 901              		.loc 1 203 16
 902 0042 7B68     		ldr	r3, [r7, #4]
 903 0044 0533     		adds	r3, r3, #5
 904 0046 1A78     		ldrb	r2, [r3]	@ zero_extendqisi2
 905              		.loc 1 203 10
 906 0048 744B     		ldr	r3, .L51
 907 004a A3FB0213 		umull	r1, r3, r3, r2
 908 004e D908     		lsrs	r1, r3, #3
 909 0050 0B46     		mov	r3, r1
 910 0052 9B00     		lsls	r3, r3, #2
 911 0054 0B44     		add	r3, r3, r1
 912 0056 5B00     		lsls	r3, r3, #1
 913 0058 D31A     		subs	r3, r2, r3
 914 005a 3B75     		strb	r3, [r7, #20]
 204:./Hardware/device/spi.c **** 	
 205:./Hardware/device/spi.c **** 	day_h = time[4] / 10;
 915              		.loc 1 205 14
 916 005c 7B68     		ldr	r3, [r7, #4]
 917 005e 0433     		adds	r3, r3, #4
 918 0060 1B78     		ldrb	r3, [r3]	@ zero_extendqisi2
 919              		.loc 1 205 8
 920 0062 6E4A     		ldr	r2, .L51
 921 0064 A2FB0323 		umull	r2, r3, r2, r3
 922 0068 DB08     		lsrs	r3, r3, #3
 923 006a FB74     		strb	r3, [r7, #19]
 206:./Hardware/device/spi.c **** 	day_l = time[4] % 10;  //日
 924              		.loc 1 206 14
 925 006c 7B68     		ldr	r3, [r7, #4]
 926 006e 0433     		adds	r3, r3, #4
 927 0070 1A78     		ldrb	r2, [r3]	@ zero_extendqisi2
 928              		.loc 1 206 8
 929 0072 6A4B     		ldr	r3, .L51
 930 0074 A3FB0213 		umull	r1, r3, r3, r2
 931 0078 D908     		lsrs	r1, r3, #3
 932 007a 0B46     		mov	r3, r1
 933 007c 9B00     		lsls	r3, r3, #2
 934 007e 0B44     		add	r3, r3, r1
 935 0080 5B00     		lsls	r3, r3, #1
 936 0082 D31A     		subs	r3, r2, r3
 937 0084 BB74     		strb	r3, [r7, #18]
 207:./Hardware/device/spi.c **** 	
 208:./Hardware/device/spi.c **** 	week = time[3];
 938              		.loc 1 208 7
 939 0086 7B68     		ldr	r3, [r7, #4]
 940 0088 DB78     		ldrb	r3, [r3, #3]
 941 008a 7B74     		strb	r3, [r7, #17]
 209:./Hardware/device/spi.c **** 	
 210:./Hardware/device/spi.c **** 	hour_h = time[2] / 10;
ARM GAS  C:\Users\86134\AppData\Local\Temp\cckH4Mn9.s 			page 21


 942              		.loc 1 210 15
 943 008c 7B68     		ldr	r3, [r7, #4]
 944 008e 0233     		adds	r3, r3, #2
 945 0090 1B78     		ldrb	r3, [r3]	@ zero_extendqisi2
 946              		.loc 1 210 9
 947 0092 624A     		ldr	r2, .L51
 948 0094 A2FB0323 		umull	r2, r3, r2, r3
 949 0098 DB08     		lsrs	r3, r3, #3
 950 009a 3B74     		strb	r3, [r7, #16]
 211:./Hardware/device/spi.c **** 	hour_l = time[2] % 10;  //时
 951              		.loc 1 211 15
 952 009c 7B68     		ldr	r3, [r7, #4]
 953 009e 0233     		adds	r3, r3, #2
 954 00a0 1A78     		ldrb	r2, [r3]	@ zero_extendqisi2
 955              		.loc 1 211 9
 956 00a2 5E4B     		ldr	r3, .L51
 957 00a4 A3FB0213 		umull	r1, r3, r3, r2
 958 00a8 D908     		lsrs	r1, r3, #3
 959 00aa 0B46     		mov	r3, r1
 960 00ac 9B00     		lsls	r3, r3, #2
 961 00ae 0B44     		add	r3, r3, r1
 962 00b0 5B00     		lsls	r3, r3, #1
 963 00b2 D31A     		subs	r3, r2, r3
 964 00b4 FB73     		strb	r3, [r7, #15]
 212:./Hardware/device/spi.c **** 	
 213:./Hardware/device/spi.c **** 	minute_h = time[1] / 10;
 965              		.loc 1 213 17
 966 00b6 7B68     		ldr	r3, [r7, #4]
 967 00b8 0133     		adds	r3, r3, #1
 968 00ba 1B78     		ldrb	r3, [r3]	@ zero_extendqisi2
 969              		.loc 1 213 11
 970 00bc 574A     		ldr	r2, .L51
 971 00be A2FB0323 		umull	r2, r3, r2, r3
 972 00c2 DB08     		lsrs	r3, r3, #3
 973 00c4 BB73     		strb	r3, [r7, #14]
 214:./Hardware/device/spi.c **** 	minute_l = time[1] % 10;  //分
 974              		.loc 1 214 17
 975 00c6 7B68     		ldr	r3, [r7, #4]
 976 00c8 0133     		adds	r3, r3, #1
 977 00ca 1A78     		ldrb	r2, [r3]	@ zero_extendqisi2
 978              		.loc 1 214 11
 979 00cc 534B     		ldr	r3, .L51
 980 00ce A3FB0213 		umull	r1, r3, r3, r2
 981 00d2 D908     		lsrs	r1, r3, #3
 982 00d4 0B46     		mov	r3, r1
 983 00d6 9B00     		lsls	r3, r3, #2
 984 00d8 0B44     		add	r3, r3, r1
 985 00da 5B00     		lsls	r3, r3, #1
 986 00dc D31A     		subs	r3, r2, r3
 987 00de 7B73     		strb	r3, [r7, #13]
 215:./Hardware/device/spi.c **** 	
 216:./Hardware/device/spi.c **** 	second_h = time[0] / 10;
 988              		.loc 1 216 17
 989 00e0 7B68     		ldr	r3, [r7, #4]
 990 00e2 1B78     		ldrb	r3, [r3]	@ zero_extendqisi2
 991              		.loc 1 216 11
 992 00e4 4D4A     		ldr	r2, .L51
ARM GAS  C:\Users\86134\AppData\Local\Temp\cckH4Mn9.s 			page 22


 993 00e6 A2FB0323 		umull	r2, r3, r2, r3
 994 00ea DB08     		lsrs	r3, r3, #3
 995 00ec 3B73     		strb	r3, [r7, #12]
 217:./Hardware/device/spi.c **** 	second_l = time[0] % 10; //秒
 996              		.loc 1 217 17
 997 00ee 7B68     		ldr	r3, [r7, #4]
 998 00f0 1A78     		ldrb	r2, [r3]	@ zero_extendqisi2
 999              		.loc 1 217 11
 1000 00f2 4A4B     		ldr	r3, .L51
 1001 00f4 A3FB0213 		umull	r1, r3, r3, r2
 1002 00f8 D908     		lsrs	r1, r3, #3
 1003 00fa 0B46     		mov	r3, r1
 1004 00fc 9B00     		lsls	r3, r3, #2
 1005 00fe 0B44     		add	r3, r3, r1
 1006 0100 5B00     		lsls	r3, r3, #1
 1007 0102 D31A     		subs	r3, r2, r3
 1008 0104 FB72     		strb	r3, [r7, #11]
 218:./Hardware/device/spi.c **** 
 219:./Hardware/device/spi.c **** 	OLED_ShowNum(30,42,year_h,1,OLED_6X8);//相隔显示的数据X轴间隔7个坐标，相隔显示的数据Y轴间隔15个坐
 1009              		.loc 1 219 2
 1010 0106 FA7D     		ldrb	r2, [r7, #23]	@ zero_extendqisi2
 1011 0108 0623     		movs	r3, #6
 1012 010a 0093     		str	r3, [sp]
 1013 010c 0123     		movs	r3, #1
 1014 010e 2A21     		movs	r1, #42
 1015 0110 1E20     		movs	r0, #30
 1016 0112 FFF7FEFF 		bl	OLED_ShowNum
 220:./Hardware/device/spi.c **** 	OLED_ShowNum(37,42,year_l,1,OLED_6X8);
 1017              		.loc 1 220 2
 1018 0116 BA7D     		ldrb	r2, [r7, #22]	@ zero_extendqisi2
 1019 0118 0623     		movs	r3, #6
 1020 011a 0093     		str	r3, [sp]
 1021 011c 0123     		movs	r3, #1
 1022 011e 2A21     		movs	r1, #42
 1023 0120 2520     		movs	r0, #37
 1024 0122 FFF7FEFF 		bl	OLED_ShowNum
 221:./Hardware/device/spi.c **** 	OLED_ShowChar(44,42,'-',OLED_6X8);
 1025              		.loc 1 221 2
 1026 0126 0623     		movs	r3, #6
 1027 0128 2D22     		movs	r2, #45
 1028 012a 2A21     		movs	r1, #42
 1029 012c 2C20     		movs	r0, #44
 1030 012e FFF7FEFF 		bl	OLED_ShowChar
 222:./Hardware/device/spi.c **** 	OLED_ShowNum(51,42,month_h,1,OLED_6X8);
 1031              		.loc 1 222 2
 1032 0132 7A7D     		ldrb	r2, [r7, #21]	@ zero_extendqisi2
 1033 0134 0623     		movs	r3, #6
 1034 0136 0093     		str	r3, [sp]
 1035 0138 0123     		movs	r3, #1
 1036 013a 2A21     		movs	r1, #42
 1037 013c 3320     		movs	r0, #51
 1038 013e FFF7FEFF 		bl	OLED_ShowNum
 223:./Hardware/device/spi.c **** 	OLED_ShowNum(58,42,month_l,1,OLED_6X8);
 1039              		.loc 1 223 2
 1040 0142 3A7D     		ldrb	r2, [r7, #20]	@ zero_extendqisi2
 1041 0144 0623     		movs	r3, #6
 1042 0146 0093     		str	r3, [sp]
ARM GAS  C:\Users\86134\AppData\Local\Temp\cckH4Mn9.s 			page 23


 1043 0148 0123     		movs	r3, #1
 1044 014a 2A21     		movs	r1, #42
 1045 014c 3A20     		movs	r0, #58
 1046 014e FFF7FEFF 		bl	OLED_ShowNum
 224:./Hardware/device/spi.c **** 	OLED_ShowChar(65,42,'-',OLED_6X8);
 1047              		.loc 1 224 2
 1048 0152 0623     		movs	r3, #6
 1049 0154 2D22     		movs	r2, #45
 1050 0156 2A21     		movs	r1, #42
 1051 0158 4120     		movs	r0, #65
 1052 015a FFF7FEFF 		bl	OLED_ShowChar
 225:./Hardware/device/spi.c **** 	OLED_ShowNum(72,42,day_h,1,OLED_6X8);
 1053              		.loc 1 225 2
 1054 015e FA7C     		ldrb	r2, [r7, #19]	@ zero_extendqisi2
 1055 0160 0623     		movs	r3, #6
 1056 0162 0093     		str	r3, [sp]
 1057 0164 0123     		movs	r3, #1
 1058 0166 2A21     		movs	r1, #42
 1059 0168 4820     		movs	r0, #72
 1060 016a FFF7FEFF 		bl	OLED_ShowNum
 226:./Hardware/device/spi.c **** 	OLED_ShowNum(79,42,day_l,1,OLED_6X8);
 1061              		.loc 1 226 2
 1062 016e BA7C     		ldrb	r2, [r7, #18]	@ zero_extendqisi2
 1063 0170 0623     		movs	r3, #6
 1064 0172 0093     		str	r3, [sp]
 1065 0174 0123     		movs	r3, #1
 1066 0176 2A21     		movs	r1, #42
 1067 0178 4F20     		movs	r0, #79
 1068 017a FFF7FEFF 		bl	OLED_ShowNum
 227:./Hardware/device/spi.c **** 	OLED_ShowChar(90,42,'W',OLED_6X8);
 1069              		.loc 1 227 2
 1070 017e 0623     		movs	r3, #6
 1071 0180 5722     		movs	r2, #87
 1072 0182 2A21     		movs	r1, #42
 1073 0184 5A20     		movs	r0, #90
 1074 0186 FFF7FEFF 		bl	OLED_ShowChar
 228:./Hardware/device/spi.c **** 	OLED_ShowNum(99,42,week,1,OLED_6X8);
 1075              		.loc 1 228 2
 1076 018a 7A7C     		ldrb	r2, [r7, #17]	@ zero_extendqisi2
 1077 018c 0623     		movs	r3, #6
 1078 018e 0093     		str	r3, [sp]
 1079 0190 0123     		movs	r3, #1
 1080 0192 2A21     		movs	r1, #42
 1081 0194 6320     		movs	r0, #99
 1082 0196 FFF7FEFF 		bl	OLED_ShowNum
 229:./Hardware/device/spi.c **** 
 230:./Hardware/device/spi.c **** 	OLED_ShowNum(35,53,hour_h,1,OLED_6X8);
 1083              		.loc 1 230 2
 1084 019a 3A7C     		ldrb	r2, [r7, #16]	@ zero_extendqisi2
 1085 019c 0623     		movs	r3, #6
 1086 019e 0093     		str	r3, [sp]
 1087 01a0 0123     		movs	r3, #1
 1088 01a2 3521     		movs	r1, #53
 1089 01a4 2320     		movs	r0, #35
 1090 01a6 FFF7FEFF 		bl	OLED_ShowNum
 231:./Hardware/device/spi.c **** 	OLED_ShowNum(42,53,hour_l,1,OLED_6X8);
 1091              		.loc 1 231 2
ARM GAS  C:\Users\86134\AppData\Local\Temp\cckH4Mn9.s 			page 24


 1092 01aa FA7B     		ldrb	r2, [r7, #15]	@ zero_extendqisi2
 1093 01ac 0623     		movs	r3, #6
 1094 01ae 0093     		str	r3, [sp]
 1095 01b0 0123     		movs	r3, #1
 1096 01b2 3521     		movs	r1, #53
 1097 01b4 2A20     		movs	r0, #42
 1098 01b6 FFF7FEFF 		bl	OLED_ShowNum
 232:./Hardware/device/spi.c **** 	OLED_ShowChar(49,53,':',OLED_6X8);
 1099              		.loc 1 232 2
 1100 01ba 0623     		movs	r3, #6
 1101 01bc 3A22     		movs	r2, #58
 1102 01be 3521     		movs	r1, #53
 1103 01c0 3120     		movs	r0, #49
 1104 01c2 FFF7FEFF 		bl	OLED_ShowChar
 233:./Hardware/device/spi.c **** 	OLED_ShowNum(56,53,minute_h,1,OLED_6X8);
 1105              		.loc 1 233 2
 1106 01c6 BA7B     		ldrb	r2, [r7, #14]	@ zero_extendqisi2
 1107 01c8 0623     		movs	r3, #6
 1108 01ca 0093     		str	r3, [sp]
 1109 01cc 0123     		movs	r3, #1
 1110 01ce 3521     		movs	r1, #53
 1111 01d0 3820     		movs	r0, #56
 1112 01d2 FFF7FEFF 		bl	OLED_ShowNum
 234:./Hardware/device/spi.c **** 	OLED_ShowNum(63,53,minute_l,1,OLED_6X8);
 1113              		.loc 1 234 2
 1114 01d6 7A7B     		ldrb	r2, [r7, #13]	@ zero_extendqisi2
 1115 01d8 0623     		movs	r3, #6
 1116 01da 0093     		str	r3, [sp]
 1117 01dc 0123     		movs	r3, #1
 1118 01de 3521     		movs	r1, #53
 1119 01e0 3F20     		movs	r0, #63
 1120 01e2 FFF7FEFF 		bl	OLED_ShowNum
 235:./Hardware/device/spi.c **** 	OLED_ShowChar(70,53,':',OLED_6X8);
 1121              		.loc 1 235 2
 1122 01e6 0623     		movs	r3, #6
 1123 01e8 3A22     		movs	r2, #58
 1124 01ea 3521     		movs	r1, #53
 1125 01ec 4620     		movs	r0, #70
 1126 01ee FFF7FEFF 		bl	OLED_ShowChar
 236:./Hardware/device/spi.c **** 	OLED_ShowNum(77,53,second_h,1,OLED_6X8);
 1127              		.loc 1 236 2
 1128 01f2 3A7B     		ldrb	r2, [r7, #12]	@ zero_extendqisi2
 1129 01f4 0623     		movs	r3, #6
 1130 01f6 0093     		str	r3, [sp]
 1131 01f8 0123     		movs	r3, #1
 1132 01fa 3521     		movs	r1, #53
 1133 01fc 4D20     		movs	r0, #77
 1134 01fe FFF7FEFF 		bl	OLED_ShowNum
 237:./Hardware/device/spi.c **** 	OLED_ShowNum(84,53,second_l,1,OLED_6X8);
 1135              		.loc 1 237 2
 1136 0202 FA7A     		ldrb	r2, [r7, #11]	@ zero_extendqisi2
 1137 0204 0623     		movs	r3, #6
 1138 0206 0093     		str	r3, [sp]
 1139 0208 0123     		movs	r3, #1
 1140 020a 3521     		movs	r1, #53
 1141 020c 5420     		movs	r0, #84
 1142 020e FFF7FEFF 		bl	OLED_ShowNum
ARM GAS  C:\Users\86134\AppData\Local\Temp\cckH4Mn9.s 			page 25


 238:./Hardware/device/spi.c **** }
 1143              		.loc 1 238 1
 1144 0212 00BF     		nop
 1145 0214 1837     		adds	r7, r7, #24
 1146              	.LCFI49:
 1147              		.cfi_def_cfa_offset 8
 1148 0216 BD46     		mov	sp, r7
 1149              	.LCFI50:
 1150              		.cfi_def_cfa_register 13
 1151              		@ sp needed
 1152 0218 80BD     		pop	{r7, pc}
 1153              	.L52:
 1154 021a 00BF     		.align	2
 1155              	.L51:
 1156 021c CDCCCCCC 		.word	-858993459
 1157              		.cfi_endproc
 1158              	.LFE41:
 1160              		.section	.text.spi_readtime_show,"ax",%progbits
 1161              		.align	1
 1162              		.global	spi_readtime_show
 1163              		.syntax unified
 1164              		.thumb
 1165              		.thumb_func
 1166              		.fpu softvfp
 1168              	spi_readtime_show:
 1169              	.LFB42:
 239:./Hardware/device/spi.c **** 
 240:./Hardware/device/spi.c **** void spi_readtime_show(uint8_t *time)
 241:./Hardware/device/spi.c **** {
 1170              		.loc 1 241 1
 1171              		.cfi_startproc
 1172              		@ args = 0, pretend = 0, frame = 24
 1173              		@ frame_needed = 1, uses_anonymous_args = 0
 1174 0000 80B5     		push	{r7, lr}
 1175              	.LCFI51:
 1176              		.cfi_def_cfa_offset 8
 1177              		.cfi_offset 7, -8
 1178              		.cfi_offset 14, -4
 1179 0002 88B0     		sub	sp, sp, #32
 1180              	.LCFI52:
 1181              		.cfi_def_cfa_offset 40
 1182 0004 02AF     		add	r7, sp, #8
 1183              	.LCFI53:
 1184              		.cfi_def_cfa 7, 32
 1185 0006 7860     		str	r0, [r7, #4]
 242:./Hardware/device/spi.c **** 	uint8_t year_h,year_l;
 243:./Hardware/device/spi.c **** 	uint8_t month_h,month_l;
 244:./Hardware/device/spi.c **** 	uint8_t day_h,day_l;
 245:./Hardware/device/spi.c **** 	uint8_t week;
 246:./Hardware/device/spi.c **** 	uint8_t hour_h,hour_l;
 247:./Hardware/device/spi.c **** 	uint8_t minute_h,minute_l;
 248:./Hardware/device/spi.c **** 	uint8_t second_h,second_l;
 249:./Hardware/device/spi.c **** 
 250:./Hardware/device/spi.c **** 	year_h = time[6]/ 10;
 1186              		.loc 1 250 15
 1187 0008 7B68     		ldr	r3, [r7, #4]
 1188 000a 0633     		adds	r3, r3, #6
ARM GAS  C:\Users\86134\AppData\Local\Temp\cckH4Mn9.s 			page 26


 1189 000c 1B78     		ldrb	r3, [r3]	@ zero_extendqisi2
 1190              		.loc 1 250 9
 1191 000e 834A     		ldr	r2, .L54
 1192 0010 A2FB0323 		umull	r2, r3, r2, r3
 1193 0014 DB08     		lsrs	r3, r3, #3
 1194 0016 FB75     		strb	r3, [r7, #23]
 251:./Hardware/device/spi.c **** 	year_l = time[6] % 10;  //年
 1195              		.loc 1 251 15
 1196 0018 7B68     		ldr	r3, [r7, #4]
 1197 001a 0633     		adds	r3, r3, #6
 1198 001c 1A78     		ldrb	r2, [r3]	@ zero_extendqisi2
 1199              		.loc 1 251 9
 1200 001e 7F4B     		ldr	r3, .L54
 1201 0020 A3FB0213 		umull	r1, r3, r3, r2
 1202 0024 D908     		lsrs	r1, r3, #3
 1203 0026 0B46     		mov	r3, r1
 1204 0028 9B00     		lsls	r3, r3, #2
 1205 002a 0B44     		add	r3, r3, r1
 1206 002c 5B00     		lsls	r3, r3, #1
 1207 002e D31A     		subs	r3, r2, r3
 1208 0030 BB75     		strb	r3, [r7, #22]
 252:./Hardware/device/spi.c **** 	
 253:./Hardware/device/spi.c **** 	month_h = time[5] / 10;
 1209              		.loc 1 253 16
 1210 0032 7B68     		ldr	r3, [r7, #4]
 1211 0034 0533     		adds	r3, r3, #5
 1212 0036 1B78     		ldrb	r3, [r3]	@ zero_extendqisi2
 1213              		.loc 1 253 10
 1214 0038 784A     		ldr	r2, .L54
 1215 003a A2FB0323 		umull	r2, r3, r2, r3
 1216 003e DB08     		lsrs	r3, r3, #3
 1217 0040 7B75     		strb	r3, [r7, #21]
 254:./Hardware/device/spi.c **** 	month_l = time[5]% 10;  //月
 1218              		.loc 1 254 16
 1219 0042 7B68     		ldr	r3, [r7, #4]
 1220 0044 0533     		adds	r3, r3, #5
 1221 0046 1A78     		ldrb	r2, [r3]	@ zero_extendqisi2
 1222              		.loc 1 254 10
 1223 0048 744B     		ldr	r3, .L54
 1224 004a A3FB0213 		umull	r1, r3, r3, r2
 1225 004e D908     		lsrs	r1, r3, #3
 1226 0050 0B46     		mov	r3, r1
 1227 0052 9B00     		lsls	r3, r3, #2
 1228 0054 0B44     		add	r3, r3, r1
 1229 0056 5B00     		lsls	r3, r3, #1
 1230 0058 D31A     		subs	r3, r2, r3
 1231 005a 3B75     		strb	r3, [r7, #20]
 255:./Hardware/device/spi.c **** 	
 256:./Hardware/device/spi.c **** 	day_h = time[4] / 10;
 1232              		.loc 1 256 14
 1233 005c 7B68     		ldr	r3, [r7, #4]
 1234 005e 0433     		adds	r3, r3, #4
 1235 0060 1B78     		ldrb	r3, [r3]	@ zero_extendqisi2
 1236              		.loc 1 256 8
 1237 0062 6E4A     		ldr	r2, .L54
 1238 0064 A2FB0323 		umull	r2, r3, r2, r3
 1239 0068 DB08     		lsrs	r3, r3, #3
ARM GAS  C:\Users\86134\AppData\Local\Temp\cckH4Mn9.s 			page 27


 1240 006a FB74     		strb	r3, [r7, #19]
 257:./Hardware/device/spi.c **** 	day_l = time[4] % 10;  //日
 1241              		.loc 1 257 14
 1242 006c 7B68     		ldr	r3, [r7, #4]
 1243 006e 0433     		adds	r3, r3, #4
 1244 0070 1A78     		ldrb	r2, [r3]	@ zero_extendqisi2
 1245              		.loc 1 257 8
 1246 0072 6A4B     		ldr	r3, .L54
 1247 0074 A3FB0213 		umull	r1, r3, r3, r2
 1248 0078 D908     		lsrs	r1, r3, #3
 1249 007a 0B46     		mov	r3, r1
 1250 007c 9B00     		lsls	r3, r3, #2
 1251 007e 0B44     		add	r3, r3, r1
 1252 0080 5B00     		lsls	r3, r3, #1
 1253 0082 D31A     		subs	r3, r2, r3
 1254 0084 BB74     		strb	r3, [r7, #18]
 258:./Hardware/device/spi.c **** 	
 259:./Hardware/device/spi.c **** 	week = time[3];
 1255              		.loc 1 259 7
 1256 0086 7B68     		ldr	r3, [r7, #4]
 1257 0088 DB78     		ldrb	r3, [r3, #3]
 1258 008a 7B74     		strb	r3, [r7, #17]
 260:./Hardware/device/spi.c **** 	
 261:./Hardware/device/spi.c **** 	hour_h = time[2] / 10;
 1259              		.loc 1 261 15
 1260 008c 7B68     		ldr	r3, [r7, #4]
 1261 008e 0233     		adds	r3, r3, #2
 1262 0090 1B78     		ldrb	r3, [r3]	@ zero_extendqisi2
 1263              		.loc 1 261 9
 1264 0092 624A     		ldr	r2, .L54
 1265 0094 A2FB0323 		umull	r2, r3, r2, r3
 1266 0098 DB08     		lsrs	r3, r3, #3
 1267 009a 3B74     		strb	r3, [r7, #16]
 262:./Hardware/device/spi.c **** 	hour_l = time[2] % 10;  //时
 1268              		.loc 1 262 15
 1269 009c 7B68     		ldr	r3, [r7, #4]
 1270 009e 0233     		adds	r3, r3, #2
 1271 00a0 1A78     		ldrb	r2, [r3]	@ zero_extendqisi2
 1272              		.loc 1 262 9
 1273 00a2 5E4B     		ldr	r3, .L54
 1274 00a4 A3FB0213 		umull	r1, r3, r3, r2
 1275 00a8 D908     		lsrs	r1, r3, #3
 1276 00aa 0B46     		mov	r3, r1
 1277 00ac 9B00     		lsls	r3, r3, #2
 1278 00ae 0B44     		add	r3, r3, r1
 1279 00b0 5B00     		lsls	r3, r3, #1
 1280 00b2 D31A     		subs	r3, r2, r3
 1281 00b4 FB73     		strb	r3, [r7, #15]
 263:./Hardware/device/spi.c **** 	
 264:./Hardware/device/spi.c **** 	minute_h = time[1] / 10;
 1282              		.loc 1 264 17
 1283 00b6 7B68     		ldr	r3, [r7, #4]
 1284 00b8 0133     		adds	r3, r3, #1
 1285 00ba 1B78     		ldrb	r3, [r3]	@ zero_extendqisi2
 1286              		.loc 1 264 11
 1287 00bc 574A     		ldr	r2, .L54
 1288 00be A2FB0323 		umull	r2, r3, r2, r3
ARM GAS  C:\Users\86134\AppData\Local\Temp\cckH4Mn9.s 			page 28


 1289 00c2 DB08     		lsrs	r3, r3, #3
 1290 00c4 BB73     		strb	r3, [r7, #14]
 265:./Hardware/device/spi.c **** 	minute_l = time[1] % 10;  //分
 1291              		.loc 1 265 17
 1292 00c6 7B68     		ldr	r3, [r7, #4]
 1293 00c8 0133     		adds	r3, r3, #1
 1294 00ca 1A78     		ldrb	r2, [r3]	@ zero_extendqisi2
 1295              		.loc 1 265 11
 1296 00cc 534B     		ldr	r3, .L54
 1297 00ce A3FB0213 		umull	r1, r3, r3, r2
 1298 00d2 D908     		lsrs	r1, r3, #3
 1299 00d4 0B46     		mov	r3, r1
 1300 00d6 9B00     		lsls	r3, r3, #2
 1301 00d8 0B44     		add	r3, r3, r1
 1302 00da 5B00     		lsls	r3, r3, #1
 1303 00dc D31A     		subs	r3, r2, r3
 1304 00de 7B73     		strb	r3, [r7, #13]
 266:./Hardware/device/spi.c **** 	
 267:./Hardware/device/spi.c **** 	second_h = time[0] / 10;
 1305              		.loc 1 267 17
 1306 00e0 7B68     		ldr	r3, [r7, #4]
 1307 00e2 1B78     		ldrb	r3, [r3]	@ zero_extendqisi2
 1308              		.loc 1 267 11
 1309 00e4 4D4A     		ldr	r2, .L54
 1310 00e6 A2FB0323 		umull	r2, r3, r2, r3
 1311 00ea DB08     		lsrs	r3, r3, #3
 1312 00ec 3B73     		strb	r3, [r7, #12]
 268:./Hardware/device/spi.c **** 	second_l = time[0] % 10; //秒
 1313              		.loc 1 268 17
 1314 00ee 7B68     		ldr	r3, [r7, #4]
 1315 00f0 1A78     		ldrb	r2, [r3]	@ zero_extendqisi2
 1316              		.loc 1 268 11
 1317 00f2 4A4B     		ldr	r3, .L54
 1318 00f4 A3FB0213 		umull	r1, r3, r3, r2
 1319 00f8 D908     		lsrs	r1, r3, #3
 1320 00fa 0B46     		mov	r3, r1
 1321 00fc 9B00     		lsls	r3, r3, #2
 1322 00fe 0B44     		add	r3, r3, r1
 1323 0100 5B00     		lsls	r3, r3, #1
 1324 0102 D31A     		subs	r3, r2, r3
 1325 0104 FB72     		strb	r3, [r7, #11]
 269:./Hardware/device/spi.c **** 
 270:./Hardware/device/spi.c **** 	OLED_ShowNum(30,15,year_h,1,8);//相隔显示的数据X轴间隔7个坐标，相隔显示的数据Y轴间隔15个坐标
 1326              		.loc 1 270 2
 1327 0106 FA7D     		ldrb	r2, [r7, #23]	@ zero_extendqisi2
 1328 0108 0823     		movs	r3, #8
 1329 010a 0093     		str	r3, [sp]
 1330 010c 0123     		movs	r3, #1
 1331 010e 0F21     		movs	r1, #15
 1332 0110 1E20     		movs	r0, #30
 1333 0112 FFF7FEFF 		bl	OLED_ShowNum
 271:./Hardware/device/spi.c **** 	OLED_ShowNum(37,15,year_l,1,8);
 1334              		.loc 1 271 2
 1335 0116 BA7D     		ldrb	r2, [r7, #22]	@ zero_extendqisi2
 1336 0118 0823     		movs	r3, #8
 1337 011a 0093     		str	r3, [sp]
 1338 011c 0123     		movs	r3, #1
ARM GAS  C:\Users\86134\AppData\Local\Temp\cckH4Mn9.s 			page 29


 1339 011e 0F21     		movs	r1, #15
 1340 0120 2520     		movs	r0, #37
 1341 0122 FFF7FEFF 		bl	OLED_ShowNum
 272:./Hardware/device/spi.c **** 	OLED_ShowChar(44,15,'-',8);
 1342              		.loc 1 272 2
 1343 0126 0823     		movs	r3, #8
 1344 0128 2D22     		movs	r2, #45
 1345 012a 0F21     		movs	r1, #15
 1346 012c 2C20     		movs	r0, #44
 1347 012e FFF7FEFF 		bl	OLED_ShowChar
 273:./Hardware/device/spi.c **** 	OLED_ShowNum(51,15,month_h,1,8);
 1348              		.loc 1 273 2
 1349 0132 7A7D     		ldrb	r2, [r7, #21]	@ zero_extendqisi2
 1350 0134 0823     		movs	r3, #8
 1351 0136 0093     		str	r3, [sp]
 1352 0138 0123     		movs	r3, #1
 1353 013a 0F21     		movs	r1, #15
 1354 013c 3320     		movs	r0, #51
 1355 013e FFF7FEFF 		bl	OLED_ShowNum
 274:./Hardware/device/spi.c **** 	OLED_ShowNum(58,15,month_l,1,8);
 1356              		.loc 1 274 2
 1357 0142 3A7D     		ldrb	r2, [r7, #20]	@ zero_extendqisi2
 1358 0144 0823     		movs	r3, #8
 1359 0146 0093     		str	r3, [sp]
 1360 0148 0123     		movs	r3, #1
 1361 014a 0F21     		movs	r1, #15
 1362 014c 3A20     		movs	r0, #58
 1363 014e FFF7FEFF 		bl	OLED_ShowNum
 275:./Hardware/device/spi.c **** 	OLED_ShowChar(65,15,'-',8);
 1364              		.loc 1 275 2
 1365 0152 0823     		movs	r3, #8
 1366 0154 2D22     		movs	r2, #45
 1367 0156 0F21     		movs	r1, #15
 1368 0158 4120     		movs	r0, #65
 1369 015a FFF7FEFF 		bl	OLED_ShowChar
 276:./Hardware/device/spi.c **** 	OLED_ShowNum(72,15,day_h,1,8);
 1370              		.loc 1 276 2
 1371 015e FA7C     		ldrb	r2, [r7, #19]	@ zero_extendqisi2
 1372 0160 0823     		movs	r3, #8
 1373 0162 0093     		str	r3, [sp]
 1374 0164 0123     		movs	r3, #1
 1375 0166 0F21     		movs	r1, #15
 1376 0168 4820     		movs	r0, #72
 1377 016a FFF7FEFF 		bl	OLED_ShowNum
 277:./Hardware/device/spi.c **** 	OLED_ShowNum(79,15,day_l,1,8);
 1378              		.loc 1 277 2
 1379 016e BA7C     		ldrb	r2, [r7, #18]	@ zero_extendqisi2
 1380 0170 0823     		movs	r3, #8
 1381 0172 0093     		str	r3, [sp]
 1382 0174 0123     		movs	r3, #1
 1383 0176 0F21     		movs	r1, #15
 1384 0178 4F20     		movs	r0, #79
 1385 017a FFF7FEFF 		bl	OLED_ShowNum
 278:./Hardware/device/spi.c **** 	OLED_ShowChar(90,15,'W',8);
 1386              		.loc 1 278 2
 1387 017e 0823     		movs	r3, #8
 1388 0180 5722     		movs	r2, #87
ARM GAS  C:\Users\86134\AppData\Local\Temp\cckH4Mn9.s 			page 30


 1389 0182 0F21     		movs	r1, #15
 1390 0184 5A20     		movs	r0, #90
 1391 0186 FFF7FEFF 		bl	OLED_ShowChar
 279:./Hardware/device/spi.c **** 	OLED_ShowNum(99,15,week,1,8);
 1392              		.loc 1 279 2
 1393 018a 7A7C     		ldrb	r2, [r7, #17]	@ zero_extendqisi2
 1394 018c 0823     		movs	r3, #8
 1395 018e 0093     		str	r3, [sp]
 1396 0190 0123     		movs	r3, #1
 1397 0192 0F21     		movs	r1, #15
 1398 0194 6320     		movs	r0, #99
 1399 0196 FFF7FEFF 		bl	OLED_ShowNum
 280:./Hardware/device/spi.c **** 
 281:./Hardware/device/spi.c **** 	OLED_ShowNum(35,30,hour_h,1,8);
 1400              		.loc 1 281 2
 1401 019a 3A7C     		ldrb	r2, [r7, #16]	@ zero_extendqisi2
 1402 019c 0823     		movs	r3, #8
 1403 019e 0093     		str	r3, [sp]
 1404 01a0 0123     		movs	r3, #1
 1405 01a2 1E21     		movs	r1, #30
 1406 01a4 2320     		movs	r0, #35
 1407 01a6 FFF7FEFF 		bl	OLED_ShowNum
 282:./Hardware/device/spi.c **** 	OLED_ShowNum(42,30,hour_l,1,8);
 1408              		.loc 1 282 2
 1409 01aa FA7B     		ldrb	r2, [r7, #15]	@ zero_extendqisi2
 1410 01ac 0823     		movs	r3, #8
 1411 01ae 0093     		str	r3, [sp]
 1412 01b0 0123     		movs	r3, #1
 1413 01b2 1E21     		movs	r1, #30
 1414 01b4 2A20     		movs	r0, #42
 1415 01b6 FFF7FEFF 		bl	OLED_ShowNum
 283:./Hardware/device/spi.c **** 	OLED_ShowChar(49,30,':',8);
 1416              		.loc 1 283 2
 1417 01ba 0823     		movs	r3, #8
 1418 01bc 3A22     		movs	r2, #58
 1419 01be 1E21     		movs	r1, #30
 1420 01c0 3120     		movs	r0, #49
 1421 01c2 FFF7FEFF 		bl	OLED_ShowChar
 284:./Hardware/device/spi.c **** 	OLED_ShowNum(56,30,minute_h,1,8);
 1422              		.loc 1 284 2
 1423 01c6 BA7B     		ldrb	r2, [r7, #14]	@ zero_extendqisi2
 1424 01c8 0823     		movs	r3, #8
 1425 01ca 0093     		str	r3, [sp]
 1426 01cc 0123     		movs	r3, #1
 1427 01ce 1E21     		movs	r1, #30
 1428 01d0 3820     		movs	r0, #56
 1429 01d2 FFF7FEFF 		bl	OLED_ShowNum
 285:./Hardware/device/spi.c **** 	OLED_ShowNum(63,30,minute_l,1,8);
 1430              		.loc 1 285 2
 1431 01d6 7A7B     		ldrb	r2, [r7, #13]	@ zero_extendqisi2
 1432 01d8 0823     		movs	r3, #8
 1433 01da 0093     		str	r3, [sp]
 1434 01dc 0123     		movs	r3, #1
 1435 01de 1E21     		movs	r1, #30
 1436 01e0 3F20     		movs	r0, #63
 1437 01e2 FFF7FEFF 		bl	OLED_ShowNum
 286:./Hardware/device/spi.c **** 	OLED_ShowChar(70,30,':',8);
ARM GAS  C:\Users\86134\AppData\Local\Temp\cckH4Mn9.s 			page 31


 1438              		.loc 1 286 2
 1439 01e6 0823     		movs	r3, #8
 1440 01e8 3A22     		movs	r2, #58
 1441 01ea 1E21     		movs	r1, #30
 1442 01ec 4620     		movs	r0, #70
 1443 01ee FFF7FEFF 		bl	OLED_ShowChar
 287:./Hardware/device/spi.c **** 	OLED_ShowNum(77,30,second_h,1,8);
 1444              		.loc 1 287 2
 1445 01f2 3A7B     		ldrb	r2, [r7, #12]	@ zero_extendqisi2
 1446 01f4 0823     		movs	r3, #8
 1447 01f6 0093     		str	r3, [sp]
 1448 01f8 0123     		movs	r3, #1
 1449 01fa 1E21     		movs	r1, #30
 1450 01fc 4D20     		movs	r0, #77
 1451 01fe FFF7FEFF 		bl	OLED_ShowNum
 288:./Hardware/device/spi.c **** 	OLED_ShowNum(84,30,second_l,1,8);
 1452              		.loc 1 288 2
 1453 0202 FA7A     		ldrb	r2, [r7, #11]	@ zero_extendqisi2
 1454 0204 0823     		movs	r3, #8
 1455 0206 0093     		str	r3, [sp]
 1456 0208 0123     		movs	r3, #1
 1457 020a 1E21     		movs	r1, #30
 1458 020c 5420     		movs	r0, #84
 1459 020e FFF7FEFF 		bl	OLED_ShowNum
 289:./Hardware/device/spi.c **** }
 1460              		.loc 1 289 1
 1461 0212 00BF     		nop
 1462 0214 1837     		adds	r7, r7, #24
 1463              	.LCFI54:
 1464              		.cfi_def_cfa_offset 8
 1465 0216 BD46     		mov	sp, r7
 1466              	.LCFI55:
 1467              		.cfi_def_cfa_register 13
 1468              		@ sp needed
 1469 0218 80BD     		pop	{r7, pc}
 1470              	.L55:
 1471 021a 00BF     		.align	2
 1472              	.L54:
 1473 021c CDCCCCCC 		.word	-858993459
 1474              		.cfi_endproc
 1475              	.LFE42:
 1477              		.section	.text.sd8902_readtime_show,"ax",%progbits
 1478              		.align	1
 1479              		.global	sd8902_readtime_show
 1480              		.syntax unified
 1481              		.thumb
 1482              		.thumb_func
 1483              		.fpu softvfp
 1485              	sd8902_readtime_show:
 1486              	.LFB43:
 290:./Hardware/device/spi.c **** 
 291:./Hardware/device/spi.c **** void sd8902_readtime_show(uint8_t *time)
 292:./Hardware/device/spi.c **** {
 1487              		.loc 1 292 1
 1488              		.cfi_startproc
 1489              		@ args = 0, pretend = 0, frame = 24
 1490              		@ frame_needed = 1, uses_anonymous_args = 0
ARM GAS  C:\Users\86134\AppData\Local\Temp\cckH4Mn9.s 			page 32


 1491 0000 80B5     		push	{r7, lr}
 1492              	.LCFI56:
 1493              		.cfi_def_cfa_offset 8
 1494              		.cfi_offset 7, -8
 1495              		.cfi_offset 14, -4
 1496 0002 88B0     		sub	sp, sp, #32
 1497              	.LCFI57:
 1498              		.cfi_def_cfa_offset 40
 1499 0004 02AF     		add	r7, sp, #8
 1500              	.LCFI58:
 1501              		.cfi_def_cfa 7, 32
 1502 0006 7860     		str	r0, [r7, #4]
 293:./Hardware/device/spi.c **** 	uint8_t year_h,year_l;
 294:./Hardware/device/spi.c **** 	uint8_t month_h,month_l;
 295:./Hardware/device/spi.c **** 	uint8_t day_h,day_l;
 296:./Hardware/device/spi.c **** 	uint8_t week;
 297:./Hardware/device/spi.c **** 	uint8_t hour_h,hour_l;
 298:./Hardware/device/spi.c **** 	uint8_t minute_h,minute_l;
 299:./Hardware/device/spi.c **** 	uint8_t second_h,second_l;
 300:./Hardware/device/spi.c **** 
 301:./Hardware/device/spi.c **** 	year_h = time[6]/ 10;
 1503              		.loc 1 301 15
 1504 0008 7B68     		ldr	r3, [r7, #4]
 1505 000a 0633     		adds	r3, r3, #6
 1506 000c 1B78     		ldrb	r3, [r3]	@ zero_extendqisi2
 1507              		.loc 1 301 9
 1508 000e 834A     		ldr	r2, .L57
 1509 0010 A2FB0323 		umull	r2, r3, r2, r3
 1510 0014 DB08     		lsrs	r3, r3, #3
 1511 0016 FB75     		strb	r3, [r7, #23]
 302:./Hardware/device/spi.c **** 	year_l = time[6] % 10;  //年
 1512              		.loc 1 302 15
 1513 0018 7B68     		ldr	r3, [r7, #4]
 1514 001a 0633     		adds	r3, r3, #6
 1515 001c 1A78     		ldrb	r2, [r3]	@ zero_extendqisi2
 1516              		.loc 1 302 9
 1517 001e 7F4B     		ldr	r3, .L57
 1518 0020 A3FB0213 		umull	r1, r3, r3, r2
 1519 0024 D908     		lsrs	r1, r3, #3
 1520 0026 0B46     		mov	r3, r1
 1521 0028 9B00     		lsls	r3, r3, #2
 1522 002a 0B44     		add	r3, r3, r1
 1523 002c 5B00     		lsls	r3, r3, #1
 1524 002e D31A     		subs	r3, r2, r3
 1525 0030 BB75     		strb	r3, [r7, #22]
 303:./Hardware/device/spi.c **** 	
 304:./Hardware/device/spi.c **** 	month_h = time[5] / 10;
 1526              		.loc 1 304 16
 1527 0032 7B68     		ldr	r3, [r7, #4]
 1528 0034 0533     		adds	r3, r3, #5
 1529 0036 1B78     		ldrb	r3, [r3]	@ zero_extendqisi2
 1530              		.loc 1 304 10
 1531 0038 784A     		ldr	r2, .L57
 1532 003a A2FB0323 		umull	r2, r3, r2, r3
 1533 003e DB08     		lsrs	r3, r3, #3
 1534 0040 7B75     		strb	r3, [r7, #21]
 305:./Hardware/device/spi.c **** 	month_l = time[5]% 10;  //月
ARM GAS  C:\Users\86134\AppData\Local\Temp\cckH4Mn9.s 			page 33


 1535              		.loc 1 305 16
 1536 0042 7B68     		ldr	r3, [r7, #4]
 1537 0044 0533     		adds	r3, r3, #5
 1538 0046 1A78     		ldrb	r2, [r3]	@ zero_extendqisi2
 1539              		.loc 1 305 10
 1540 0048 744B     		ldr	r3, .L57
 1541 004a A3FB0213 		umull	r1, r3, r3, r2
 1542 004e D908     		lsrs	r1, r3, #3
 1543 0050 0B46     		mov	r3, r1
 1544 0052 9B00     		lsls	r3, r3, #2
 1545 0054 0B44     		add	r3, r3, r1
 1546 0056 5B00     		lsls	r3, r3, #1
 1547 0058 D31A     		subs	r3, r2, r3
 1548 005a 3B75     		strb	r3, [r7, #20]
 306:./Hardware/device/spi.c **** 	
 307:./Hardware/device/spi.c **** 	day_h = time[4] / 10;
 1549              		.loc 1 307 14
 1550 005c 7B68     		ldr	r3, [r7, #4]
 1551 005e 0433     		adds	r3, r3, #4
 1552 0060 1B78     		ldrb	r3, [r3]	@ zero_extendqisi2
 1553              		.loc 1 307 8
 1554 0062 6E4A     		ldr	r2, .L57
 1555 0064 A2FB0323 		umull	r2, r3, r2, r3
 1556 0068 DB08     		lsrs	r3, r3, #3
 1557 006a FB74     		strb	r3, [r7, #19]
 308:./Hardware/device/spi.c **** 	day_l = time[4] % 10;  //日
 1558              		.loc 1 308 14
 1559 006c 7B68     		ldr	r3, [r7, #4]
 1560 006e 0433     		adds	r3, r3, #4
 1561 0070 1A78     		ldrb	r2, [r3]	@ zero_extendqisi2
 1562              		.loc 1 308 8
 1563 0072 6A4B     		ldr	r3, .L57
 1564 0074 A3FB0213 		umull	r1, r3, r3, r2
 1565 0078 D908     		lsrs	r1, r3, #3
 1566 007a 0B46     		mov	r3, r1
 1567 007c 9B00     		lsls	r3, r3, #2
 1568 007e 0B44     		add	r3, r3, r1
 1569 0080 5B00     		lsls	r3, r3, #1
 1570 0082 D31A     		subs	r3, r2, r3
 1571 0084 BB74     		strb	r3, [r7, #18]
 309:./Hardware/device/spi.c **** 	
 310:./Hardware/device/spi.c **** 	week = time[3];
 1572              		.loc 1 310 7
 1573 0086 7B68     		ldr	r3, [r7, #4]
 1574 0088 DB78     		ldrb	r3, [r3, #3]
 1575 008a 7B74     		strb	r3, [r7, #17]
 311:./Hardware/device/spi.c **** 	
 312:./Hardware/device/spi.c **** 	hour_h = time[2] / 10;
 1576              		.loc 1 312 15
 1577 008c 7B68     		ldr	r3, [r7, #4]
 1578 008e 0233     		adds	r3, r3, #2
 1579 0090 1B78     		ldrb	r3, [r3]	@ zero_extendqisi2
 1580              		.loc 1 312 9
 1581 0092 624A     		ldr	r2, .L57
 1582 0094 A2FB0323 		umull	r2, r3, r2, r3
 1583 0098 DB08     		lsrs	r3, r3, #3
 1584 009a 3B74     		strb	r3, [r7, #16]
ARM GAS  C:\Users\86134\AppData\Local\Temp\cckH4Mn9.s 			page 34


 313:./Hardware/device/spi.c **** 	hour_l = time[2] % 10;  //时
 1585              		.loc 1 313 15
 1586 009c 7B68     		ldr	r3, [r7, #4]
 1587 009e 0233     		adds	r3, r3, #2
 1588 00a0 1A78     		ldrb	r2, [r3]	@ zero_extendqisi2
 1589              		.loc 1 313 9
 1590 00a2 5E4B     		ldr	r3, .L57
 1591 00a4 A3FB0213 		umull	r1, r3, r3, r2
 1592 00a8 D908     		lsrs	r1, r3, #3
 1593 00aa 0B46     		mov	r3, r1
 1594 00ac 9B00     		lsls	r3, r3, #2
 1595 00ae 0B44     		add	r3, r3, r1
 1596 00b0 5B00     		lsls	r3, r3, #1
 1597 00b2 D31A     		subs	r3, r2, r3
 1598 00b4 FB73     		strb	r3, [r7, #15]
 314:./Hardware/device/spi.c **** 	
 315:./Hardware/device/spi.c **** 	minute_h = time[1] / 10;
 1599              		.loc 1 315 17
 1600 00b6 7B68     		ldr	r3, [r7, #4]
 1601 00b8 0133     		adds	r3, r3, #1
 1602 00ba 1B78     		ldrb	r3, [r3]	@ zero_extendqisi2
 1603              		.loc 1 315 11
 1604 00bc 574A     		ldr	r2, .L57
 1605 00be A2FB0323 		umull	r2, r3, r2, r3
 1606 00c2 DB08     		lsrs	r3, r3, #3
 1607 00c4 BB73     		strb	r3, [r7, #14]
 316:./Hardware/device/spi.c **** 	minute_l = time[1] % 10;  //分
 1608              		.loc 1 316 17
 1609 00c6 7B68     		ldr	r3, [r7, #4]
 1610 00c8 0133     		adds	r3, r3, #1
 1611 00ca 1A78     		ldrb	r2, [r3]	@ zero_extendqisi2
 1612              		.loc 1 316 11
 1613 00cc 534B     		ldr	r3, .L57
 1614 00ce A3FB0213 		umull	r1, r3, r3, r2
 1615 00d2 D908     		lsrs	r1, r3, #3
 1616 00d4 0B46     		mov	r3, r1
 1617 00d6 9B00     		lsls	r3, r3, #2
 1618 00d8 0B44     		add	r3, r3, r1
 1619 00da 5B00     		lsls	r3, r3, #1
 1620 00dc D31A     		subs	r3, r2, r3
 1621 00de 7B73     		strb	r3, [r7, #13]
 317:./Hardware/device/spi.c **** 	
 318:./Hardware/device/spi.c **** 	second_h = time[0] / 10;
 1622              		.loc 1 318 17
 1623 00e0 7B68     		ldr	r3, [r7, #4]
 1624 00e2 1B78     		ldrb	r3, [r3]	@ zero_extendqisi2
 1625              		.loc 1 318 11
 1626 00e4 4D4A     		ldr	r2, .L57
 1627 00e6 A2FB0323 		umull	r2, r3, r2, r3
 1628 00ea DB08     		lsrs	r3, r3, #3
 1629 00ec 3B73     		strb	r3, [r7, #12]
 319:./Hardware/device/spi.c **** 	second_l = time[0] % 10; //秒
 1630              		.loc 1 319 17
 1631 00ee 7B68     		ldr	r3, [r7, #4]
 1632 00f0 1A78     		ldrb	r2, [r3]	@ zero_extendqisi2
 1633              		.loc 1 319 11
 1634 00f2 4A4B     		ldr	r3, .L57
ARM GAS  C:\Users\86134\AppData\Local\Temp\cckH4Mn9.s 			page 35


 1635 00f4 A3FB0213 		umull	r1, r3, r3, r2
 1636 00f8 D908     		lsrs	r1, r3, #3
 1637 00fa 0B46     		mov	r3, r1
 1638 00fc 9B00     		lsls	r3, r3, #2
 1639 00fe 0B44     		add	r3, r3, r1
 1640 0100 5B00     		lsls	r3, r3, #1
 1641 0102 D31A     		subs	r3, r2, r3
 1642 0104 FB72     		strb	r3, [r7, #11]
 320:./Hardware/device/spi.c **** 
 321:./Hardware/device/spi.c **** 	OLED_ShowNum(30,8,year_h,1,8);//相隔显示的数据X轴间隔7个坐标，相隔显示的数据Y轴间隔15个坐标
 1643              		.loc 1 321 2
 1644 0106 FA7D     		ldrb	r2, [r7, #23]	@ zero_extendqisi2
 1645 0108 0823     		movs	r3, #8
 1646 010a 0093     		str	r3, [sp]
 1647 010c 0123     		movs	r3, #1
 1648 010e 0821     		movs	r1, #8
 1649 0110 1E20     		movs	r0, #30
 1650 0112 FFF7FEFF 		bl	OLED_ShowNum
 322:./Hardware/device/spi.c **** 	OLED_ShowNum(37,8,year_l,1,8);
 1651              		.loc 1 322 2
 1652 0116 BA7D     		ldrb	r2, [r7, #22]	@ zero_extendqisi2
 1653 0118 0823     		movs	r3, #8
 1654 011a 0093     		str	r3, [sp]
 1655 011c 0123     		movs	r3, #1
 1656 011e 0821     		movs	r1, #8
 1657 0120 2520     		movs	r0, #37
 1658 0122 FFF7FEFF 		bl	OLED_ShowNum
 323:./Hardware/device/spi.c **** 	OLED_ShowChar(44,8,'-',8);
 1659              		.loc 1 323 2
 1660 0126 0823     		movs	r3, #8
 1661 0128 2D22     		movs	r2, #45
 1662 012a 0821     		movs	r1, #8
 1663 012c 2C20     		movs	r0, #44
 1664 012e FFF7FEFF 		bl	OLED_ShowChar
 324:./Hardware/device/spi.c **** 	OLED_ShowNum(51,8,month_h,1,8);
 1665              		.loc 1 324 2
 1666 0132 7A7D     		ldrb	r2, [r7, #21]	@ zero_extendqisi2
 1667 0134 0823     		movs	r3, #8
 1668 0136 0093     		str	r3, [sp]
 1669 0138 0123     		movs	r3, #1
 1670 013a 0821     		movs	r1, #8
 1671 013c 3320     		movs	r0, #51
 1672 013e FFF7FEFF 		bl	OLED_ShowNum
 325:./Hardware/device/spi.c **** 	OLED_ShowNum(58,8,month_l,1,8);
 1673              		.loc 1 325 2
 1674 0142 3A7D     		ldrb	r2, [r7, #20]	@ zero_extendqisi2
 1675 0144 0823     		movs	r3, #8
 1676 0146 0093     		str	r3, [sp]
 1677 0148 0123     		movs	r3, #1
 1678 014a 0821     		movs	r1, #8
 1679 014c 3A20     		movs	r0, #58
 1680 014e FFF7FEFF 		bl	OLED_ShowNum
 326:./Hardware/device/spi.c **** 	OLED_ShowChar(65,8,'-',8);
 1681              		.loc 1 326 2
 1682 0152 0823     		movs	r3, #8
 1683 0154 2D22     		movs	r2, #45
 1684 0156 0821     		movs	r1, #8
ARM GAS  C:\Users\86134\AppData\Local\Temp\cckH4Mn9.s 			page 36


 1685 0158 4120     		movs	r0, #65
 1686 015a FFF7FEFF 		bl	OLED_ShowChar
 327:./Hardware/device/spi.c **** 	OLED_ShowNum(72,8,day_h,1,8);
 1687              		.loc 1 327 2
 1688 015e FA7C     		ldrb	r2, [r7, #19]	@ zero_extendqisi2
 1689 0160 0823     		movs	r3, #8
 1690 0162 0093     		str	r3, [sp]
 1691 0164 0123     		movs	r3, #1
 1692 0166 0821     		movs	r1, #8
 1693 0168 4820     		movs	r0, #72
 1694 016a FFF7FEFF 		bl	OLED_ShowNum
 328:./Hardware/device/spi.c **** 	OLED_ShowNum(79,8,day_l,1,8);
 1695              		.loc 1 328 2
 1696 016e BA7C     		ldrb	r2, [r7, #18]	@ zero_extendqisi2
 1697 0170 0823     		movs	r3, #8
 1698 0172 0093     		str	r3, [sp]
 1699 0174 0123     		movs	r3, #1
 1700 0176 0821     		movs	r1, #8
 1701 0178 4F20     		movs	r0, #79
 1702 017a FFF7FEFF 		bl	OLED_ShowNum
 329:./Hardware/device/spi.c **** 	OLED_ShowChar(90,8,'W',8);
 1703              		.loc 1 329 2
 1704 017e 0823     		movs	r3, #8
 1705 0180 5722     		movs	r2, #87
 1706 0182 0821     		movs	r1, #8
 1707 0184 5A20     		movs	r0, #90
 1708 0186 FFF7FEFF 		bl	OLED_ShowChar
 330:./Hardware/device/spi.c **** 	OLED_ShowNum(99,8,week,1,8);
 1709              		.loc 1 330 2
 1710 018a 7A7C     		ldrb	r2, [r7, #17]	@ zero_extendqisi2
 1711 018c 0823     		movs	r3, #8
 1712 018e 0093     		str	r3, [sp]
 1713 0190 0123     		movs	r3, #1
 1714 0192 0821     		movs	r1, #8
 1715 0194 6320     		movs	r0, #99
 1716 0196 FFF7FEFF 		bl	OLED_ShowNum
 331:./Hardware/device/spi.c **** 	
 332:./Hardware/device/spi.c **** 	OLED_ShowNum(35,22,hour_h,1,8);
 1717              		.loc 1 332 2
 1718 019a 3A7C     		ldrb	r2, [r7, #16]	@ zero_extendqisi2
 1719 019c 0823     		movs	r3, #8
 1720 019e 0093     		str	r3, [sp]
 1721 01a0 0123     		movs	r3, #1
 1722 01a2 1621     		movs	r1, #22
 1723 01a4 2320     		movs	r0, #35
 1724 01a6 FFF7FEFF 		bl	OLED_ShowNum
 333:./Hardware/device/spi.c **** 	OLED_ShowNum(42,22,hour_l,1,8);
 1725              		.loc 1 333 2
 1726 01aa FA7B     		ldrb	r2, [r7, #15]	@ zero_extendqisi2
 1727 01ac 0823     		movs	r3, #8
 1728 01ae 0093     		str	r3, [sp]
 1729 01b0 0123     		movs	r3, #1
 1730 01b2 1621     		movs	r1, #22
 1731 01b4 2A20     		movs	r0, #42
 1732 01b6 FFF7FEFF 		bl	OLED_ShowNum
 334:./Hardware/device/spi.c **** 	OLED_ShowChar(49,22,':',8);
 1733              		.loc 1 334 2
ARM GAS  C:\Users\86134\AppData\Local\Temp\cckH4Mn9.s 			page 37


 1734 01ba 0823     		movs	r3, #8
 1735 01bc 3A22     		movs	r2, #58
 1736 01be 1621     		movs	r1, #22
 1737 01c0 3120     		movs	r0, #49
 1738 01c2 FFF7FEFF 		bl	OLED_ShowChar
 335:./Hardware/device/spi.c **** 	OLED_ShowNum(56,22,minute_h,1,8);
 1739              		.loc 1 335 2
 1740 01c6 BA7B     		ldrb	r2, [r7, #14]	@ zero_extendqisi2
 1741 01c8 0823     		movs	r3, #8
 1742 01ca 0093     		str	r3, [sp]
 1743 01cc 0123     		movs	r3, #1
 1744 01ce 1621     		movs	r1, #22
 1745 01d0 3820     		movs	r0, #56
 1746 01d2 FFF7FEFF 		bl	OLED_ShowNum
 336:./Hardware/device/spi.c **** 	OLED_ShowNum(63,22,minute_l,1,8);
 1747              		.loc 1 336 2
 1748 01d6 7A7B     		ldrb	r2, [r7, #13]	@ zero_extendqisi2
 1749 01d8 0823     		movs	r3, #8
 1750 01da 0093     		str	r3, [sp]
 1751 01dc 0123     		movs	r3, #1
 1752 01de 1621     		movs	r1, #22
 1753 01e0 3F20     		movs	r0, #63
 1754 01e2 FFF7FEFF 		bl	OLED_ShowNum
 337:./Hardware/device/spi.c **** 	OLED_ShowChar(70,22,':',8);
 1755              		.loc 1 337 2
 1756 01e6 0823     		movs	r3, #8
 1757 01e8 3A22     		movs	r2, #58
 1758 01ea 1621     		movs	r1, #22
 1759 01ec 4620     		movs	r0, #70
 1760 01ee FFF7FEFF 		bl	OLED_ShowChar
 338:./Hardware/device/spi.c **** 	OLED_ShowNum(77,22,second_h,1,8);
 1761              		.loc 1 338 2
 1762 01f2 3A7B     		ldrb	r2, [r7, #12]	@ zero_extendqisi2
 1763 01f4 0823     		movs	r3, #8
 1764 01f6 0093     		str	r3, [sp]
 1765 01f8 0123     		movs	r3, #1
 1766 01fa 1621     		movs	r1, #22
 1767 01fc 4D20     		movs	r0, #77
 1768 01fe FFF7FEFF 		bl	OLED_ShowNum
 339:./Hardware/device/spi.c **** 	OLED_ShowNum(84,22,second_l,1,8);
 1769              		.loc 1 339 2
 1770 0202 FA7A     		ldrb	r2, [r7, #11]	@ zero_extendqisi2
 1771 0204 0823     		movs	r3, #8
 1772 0206 0093     		str	r3, [sp]
 1773 0208 0123     		movs	r3, #1
 1774 020a 1621     		movs	r1, #22
 1775 020c 5420     		movs	r0, #84
 1776 020e FFF7FEFF 		bl	OLED_ShowNum
 340:./Hardware/device/spi.c **** }
 1777              		.loc 1 340 1
 1778 0212 00BF     		nop
 1779 0214 1837     		adds	r7, r7, #24
 1780              	.LCFI59:
 1781              		.cfi_def_cfa_offset 8
 1782 0216 BD46     		mov	sp, r7
 1783              	.LCFI60:
 1784              		.cfi_def_cfa_register 13
ARM GAS  C:\Users\86134\AppData\Local\Temp\cckH4Mn9.s 			page 38


 1785              		@ sp needed
 1786 0218 80BD     		pop	{r7, pc}
 1787              	.L58:
 1788 021a 00BF     		.align	2
 1789              	.L57:
 1790 021c CDCCCCCC 		.word	-858993459
 1791              		.cfi_endproc
 1792              	.LFE43:
 1794              		.section	.text.sd8902_set_input_mode,"ax",%progbits
 1795              		.align	1
 1796              		.global	sd8902_set_input_mode
 1797              		.syntax unified
 1798              		.thumb
 1799              		.thumb_func
 1800              		.fpu softvfp
 1802              	sd8902_set_input_mode:
 1803              	.LFB44:
 341:./Hardware/device/spi.c **** 
 342:./Hardware/device/spi.c **** /******************************3线spi****************************************/
 343:./Hardware/device/spi.c **** 
 344:./Hardware/device/spi.c **** /******************************************************************
 345:./Hardware/device/spi.c **** 描述: sd8902 DAT设置成输入模式 函数
 346:./Hardware/device/spi.c **** *******************************************************************/
 347:./Hardware/device/spi.c **** void sd8902_set_input_mode(void)
 348:./Hardware/device/spi.c **** {
 1804              		.loc 1 348 1
 1805              		.cfi_startproc
 1806              		@ args = 0, pretend = 0, frame = 8
 1807              		@ frame_needed = 1, uses_anonymous_args = 0
 1808 0000 80B5     		push	{r7, lr}
 1809              	.LCFI61:
 1810              		.cfi_def_cfa_offset 8
 1811              		.cfi_offset 7, -8
 1812              		.cfi_offset 14, -4
 1813 0002 82B0     		sub	sp, sp, #8
 1814              	.LCFI62:
 1815              		.cfi_def_cfa_offset 16
 1816 0004 00AF     		add	r7, sp, #0
 1817              	.LCFI63:
 1818              		.cfi_def_cfa_register 7
 349:./Hardware/device/spi.c **** 	GPIO_InitTypeDef sd8902_Struction;				//定义结构体成员
 350:./Hardware/device/spi.c **** 	RCC_APB2PeriphClockCmd(sd8902_DAT_RCC, ENABLE);	//打开时钟
 1819              		.loc 1 350 2
 1820 0006 0121     		movs	r1, #1
 1821 0008 1020     		movs	r0, #16
 1822 000a FFF7FEFF 		bl	RCC_APB2PeriphClockCmd
 351:./Hardware/device/spi.c **** 	
 352:./Hardware/device/spi.c **** 	sd8902_Struction.GPIO_Pin  = sd8902_DAT_PIN;		//引脚
 1823              		.loc 1 352 29
 1824 000e 1023     		movs	r3, #16
 1825 0010 BB80     		strh	r3, [r7, #4]	@ movhi
 353:./Hardware/device/spi.c **** 	sd8902_Struction.GPIO_Mode = GPIO_Mode_IPU;			//上拉输入 或者 浮空输入 GPIO_Mode_IN_FLOATING 都可
 1826              		.loc 1 353 29
 1827 0012 4823     		movs	r3, #72
 1828 0014 FB71     		strb	r3, [r7, #7]
 354:./Hardware/device/spi.c **** 		
 355:./Hardware/device/spi.c **** 	GPIO_Init(sd8902_DAT_PORT,&sd8902_Struction);		//对成员进行初始化	
ARM GAS  C:\Users\86134\AppData\Local\Temp\cckH4Mn9.s 			page 39


 1829              		.loc 1 355 2
 1830 0016 3B1D     		adds	r3, r7, #4
 1831 0018 1946     		mov	r1, r3
 1832 001a 0348     		ldr	r0, .L60
 1833 001c FFF7FEFF 		bl	GPIO_Init
 356:./Hardware/device/spi.c **** }
 1834              		.loc 1 356 1
 1835 0020 00BF     		nop
 1836 0022 0837     		adds	r7, r7, #8
 1837              	.LCFI64:
 1838              		.cfi_def_cfa_offset 8
 1839 0024 BD46     		mov	sp, r7
 1840              	.LCFI65:
 1841              		.cfi_def_cfa_register 13
 1842              		@ sp needed
 1843 0026 80BD     		pop	{r7, pc}
 1844              	.L61:
 1845              		.align	2
 1846              	.L60:
 1847 0028 00100140 		.word	1073811456
 1848              		.cfi_endproc
 1849              	.LFE44:
 1851              		.section	.text.sd8902_set_output_mode,"ax",%progbits
 1852              		.align	1
 1853              		.global	sd8902_set_output_mode
 1854              		.syntax unified
 1855              		.thumb
 1856              		.thumb_func
 1857              		.fpu softvfp
 1859              	sd8902_set_output_mode:
 1860              	.LFB45:
 357:./Hardware/device/spi.c **** 
 358:./Hardware/device/spi.c **** 
 359:./Hardware/device/spi.c **** /******************************************************************
 360:./Hardware/device/spi.c **** 描述: sd8902 DAT设置成输出模式 函数
 361:./Hardware/device/spi.c **** *******************************************************************/
 362:./Hardware/device/spi.c **** void sd8902_set_output_mode(void)
 363:./Hardware/device/spi.c **** {
 1861              		.loc 1 363 1
 1862              		.cfi_startproc
 1863              		@ args = 0, pretend = 0, frame = 8
 1864              		@ frame_needed = 1, uses_anonymous_args = 0
 1865 0000 80B5     		push	{r7, lr}
 1866              	.LCFI66:
 1867              		.cfi_def_cfa_offset 8
 1868              		.cfi_offset 7, -8
 1869              		.cfi_offset 14, -4
 1870 0002 82B0     		sub	sp, sp, #8
 1871              	.LCFI67:
 1872              		.cfi_def_cfa_offset 16
 1873 0004 00AF     		add	r7, sp, #0
 1874              	.LCFI68:
 1875              		.cfi_def_cfa_register 7
 364:./Hardware/device/spi.c **** 	GPIO_InitTypeDef sd8902_Struction;				//定义结构体成员
 365:./Hardware/device/spi.c **** 	RCC_APB2PeriphClockCmd(sd8902_DAT_RCC, ENABLE);	//打开时钟
 1876              		.loc 1 365 2
 1877 0006 0121     		movs	r1, #1
ARM GAS  C:\Users\86134\AppData\Local\Temp\cckH4Mn9.s 			page 40


 1878 0008 1020     		movs	r0, #16
 1879 000a FFF7FEFF 		bl	RCC_APB2PeriphClockCmd
 366:./Hardware/device/spi.c **** 	
 367:./Hardware/device/spi.c **** 	sd8902_Struction.GPIO_Pin  = sd8902_DAT_PIN;		//引脚
 1880              		.loc 1 367 29
 1881 000e 1023     		movs	r3, #16
 1882 0010 BB80     		strh	r3, [r7, #4]	@ movhi
 368:./Hardware/device/spi.c **** 	sd8902_Struction.GPIO_Mode = GPIO_Mode_Out_PP;		//推挽输出
 1883              		.loc 1 368 29
 1884 0012 1023     		movs	r3, #16
 1885 0014 FB71     		strb	r3, [r7, #7]
 369:./Hardware/device/spi.c **** 	sd8902_Struction.GPIO_Speed = GPIO_Speed_50MHz;		//速率	
 1886              		.loc 1 369 30
 1887 0016 0323     		movs	r3, #3
 1888 0018 BB71     		strb	r3, [r7, #6]
 370:./Hardware/device/spi.c **** 
 371:./Hardware/device/spi.c **** 	GPIO_Init(sd8902_DAT_PORT,&sd8902_Struction);		//对成员进行初始化	
 1889              		.loc 1 371 2
 1890 001a 3B1D     		adds	r3, r7, #4
 1891 001c 1946     		mov	r1, r3
 1892 001e 0348     		ldr	r0, .L63
 1893 0020 FFF7FEFF 		bl	GPIO_Init
 372:./Hardware/device/spi.c **** }
 1894              		.loc 1 372 1
 1895 0024 00BF     		nop
 1896 0026 0837     		adds	r7, r7, #8
 1897              	.LCFI69:
 1898              		.cfi_def_cfa_offset 8
 1899 0028 BD46     		mov	sp, r7
 1900              	.LCFI70:
 1901              		.cfi_def_cfa_register 13
 1902              		@ sp needed
 1903 002a 80BD     		pop	{r7, pc}
 1904              	.L64:
 1905              		.align	2
 1906              	.L63:
 1907 002c 00100140 		.word	1073811456
 1908              		.cfi_endproc
 1909              	.LFE45:
 1911              		.section	.text.sd8902_config,"ax",%progbits
 1912              		.align	1
 1913              		.global	sd8902_config
 1914              		.syntax unified
 1915              		.thumb
 1916              		.thumb_func
 1917              		.fpu softvfp
 1919              	sd8902_config:
 1920              	.LFB46:
 373:./Hardware/device/spi.c **** 
 374:./Hardware/device/spi.c **** 
 375:./Hardware/device/spi.c **** /******************************************************************
 376:./Hardware/device/spi.c **** 描述: sd8902 配置 函数
 377:./Hardware/device/spi.c **** *******************************************************************/
 378:./Hardware/device/spi.c **** void sd8902_config(void)
 379:./Hardware/device/spi.c **** {
 1921              		.loc 1 379 1
 1922              		.cfi_startproc
ARM GAS  C:\Users\86134\AppData\Local\Temp\cckH4Mn9.s 			page 41


 1923              		@ args = 0, pretend = 0, frame = 8
 1924              		@ frame_needed = 1, uses_anonymous_args = 0
 1925 0000 80B5     		push	{r7, lr}
 1926              	.LCFI71:
 1927              		.cfi_def_cfa_offset 8
 1928              		.cfi_offset 7, -8
 1929              		.cfi_offset 14, -4
 1930 0002 82B0     		sub	sp, sp, #8
 1931              	.LCFI72:
 1932              		.cfi_def_cfa_offset 16
 1933 0004 00AF     		add	r7, sp, #0
 1934              	.LCFI73:
 1935              		.cfi_def_cfa_register 7
 380:./Hardware/device/spi.c **** 	GPIO_InitTypeDef sd8902_Struction;				//定义结构体成员
 381:./Hardware/device/spi.c **** 
 382:./Hardware/device/spi.c **** 	RCC_APB2PeriphClockCmd(sd8902_CLK_RCC, ENABLE);	//打开时钟
 1936              		.loc 1 382 2
 1937 0006 0121     		movs	r1, #1
 1938 0008 0420     		movs	r0, #4
 1939 000a FFF7FEFF 		bl	RCC_APB2PeriphClockCmd
 383:./Hardware/device/spi.c **** 	RCC_APB2PeriphClockCmd(sd8902_DAT_RCC, ENABLE);	//打开时钟
 1940              		.loc 1 383 2
 1941 000e 0121     		movs	r1, #1
 1942 0010 1020     		movs	r0, #16
 1943 0012 FFF7FEFF 		bl	RCC_APB2PeriphClockCmd
 384:./Hardware/device/spi.c **** 	RCC_APB2PeriphClockCmd(sd8902_RST_RCC, ENABLE);	//打开时钟
 1944              		.loc 1 384 2
 1945 0016 0121     		movs	r1, #1
 1946 0018 0420     		movs	r0, #4
 1947 001a FFF7FEFF 		bl	RCC_APB2PeriphClockCmd
 385:./Hardware/device/spi.c **** 
 386:./Hardware/device/spi.c **** 	//sd8902 CLK
 387:./Hardware/device/spi.c **** 	sd8902_Struction.GPIO_Pin  = sd8902_CLK_PIN;		//引脚
 1948              		.loc 1 387 29
 1949 001e 2023     		movs	r3, #32
 1950 0020 BB80     		strh	r3, [r7, #4]	@ movhi
 388:./Hardware/device/spi.c **** 	sd8902_Struction.GPIO_Mode = GPIO_Mode_Out_PP;		//推挽输出	
 1951              		.loc 1 388 29
 1952 0022 1023     		movs	r3, #16
 1953 0024 FB71     		strb	r3, [r7, #7]
 389:./Hardware/device/spi.c **** 	sd8902_Struction.GPIO_Speed = GPIO_Speed_50MHz; 	//50MHz
 1954              		.loc 1 389 30
 1955 0026 0323     		movs	r3, #3
 1956 0028 BB71     		strb	r3, [r7, #6]
 390:./Hardware/device/spi.c **** 	GPIO_Init(sd8902_CLK_PORT,&sd8902_Struction);		//对成员进行初始化		
 1957              		.loc 1 390 2
 1958 002a 3B1D     		adds	r3, r7, #4
 1959 002c 1946     		mov	r1, r3
 1960 002e 0E48     		ldr	r0, .L66
 1961 0030 FFF7FEFF 		bl	GPIO_Init
 391:./Hardware/device/spi.c **** 	//sd8902 DAT
 392:./Hardware/device/spi.c **** 	sd8902_Struction.GPIO_Pin  = sd8902_DAT_PIN;		//引脚
 1962              		.loc 1 392 29
 1963 0034 1023     		movs	r3, #16
 1964 0036 BB80     		strh	r3, [r7, #4]	@ movhi
 393:./Hardware/device/spi.c **** 	sd8902_Struction.GPIO_Mode = GPIO_Mode_Out_PP;		//推挽输出	
 1965              		.loc 1 393 29
ARM GAS  C:\Users\86134\AppData\Local\Temp\cckH4Mn9.s 			page 42


 1966 0038 1023     		movs	r3, #16
 1967 003a FB71     		strb	r3, [r7, #7]
 394:./Hardware/device/spi.c **** 	sd8902_Struction.GPIO_Speed = GPIO_Speed_50MHz; 	//50MHz
 1968              		.loc 1 394 30
 1969 003c 0323     		movs	r3, #3
 1970 003e BB71     		strb	r3, [r7, #6]
 395:./Hardware/device/spi.c **** 	GPIO_Init(sd8902_DAT_PORT,&sd8902_Struction);		//对成员进行初始化	
 1971              		.loc 1 395 2
 1972 0040 3B1D     		adds	r3, r7, #4
 1973 0042 1946     		mov	r1, r3
 1974 0044 0948     		ldr	r0, .L66+4
 1975 0046 FFF7FEFF 		bl	GPIO_Init
 396:./Hardware/device/spi.c **** 	//sd8902 RST
 397:./Hardware/device/spi.c **** 	sd8902_Struction.GPIO_Pin  = sd8902_RST_PIN;		//引脚
 1976              		.loc 1 397 29
 1977 004a 1023     		movs	r3, #16
 1978 004c BB80     		strh	r3, [r7, #4]	@ movhi
 398:./Hardware/device/spi.c **** 	sd8902_Struction.GPIO_Mode = GPIO_Mode_Out_PP;		//推挽输出	
 1979              		.loc 1 398 29
 1980 004e 1023     		movs	r3, #16
 1981 0050 FB71     		strb	r3, [r7, #7]
 399:./Hardware/device/spi.c **** 	sd8902_Struction.GPIO_Speed = GPIO_Speed_50MHz; 	//50MHz
 1982              		.loc 1 399 30
 1983 0052 0323     		movs	r3, #3
 1984 0054 BB71     		strb	r3, [r7, #6]
 400:./Hardware/device/spi.c **** 	GPIO_Init(sd8902_RST_PORT,&sd8902_Struction);		//对成员进行初始化	
 1985              		.loc 1 400 2
 1986 0056 3B1D     		adds	r3, r7, #4
 1987 0058 1946     		mov	r1, r3
 1988 005a 0348     		ldr	r0, .L66
 1989 005c FFF7FEFF 		bl	GPIO_Init
 401:./Hardware/device/spi.c **** 	
 402:./Hardware/device/spi.c **** }
 1990              		.loc 1 402 1
 1991 0060 00BF     		nop
 1992 0062 0837     		adds	r7, r7, #8
 1993              	.LCFI74:
 1994              		.cfi_def_cfa_offset 8
 1995 0064 BD46     		mov	sp, r7
 1996              	.LCFI75:
 1997              		.cfi_def_cfa_register 13
 1998              		@ sp needed
 1999 0066 80BD     		pop	{r7, pc}
 2000              	.L67:
 2001              		.align	2
 2002              	.L66:
 2003 0068 00080140 		.word	1073809408
 2004 006c 00100140 		.word	1073811456
 2005              		.cfi_endproc
 2006              	.LFE46:
 2008              		.section	.text.sd8902_write_byte,"ax",%progbits
 2009              		.align	1
 2010              		.global	sd8902_write_byte
 2011              		.syntax unified
 2012              		.thumb
 2013              		.thumb_func
 2014              		.fpu softvfp
ARM GAS  C:\Users\86134\AppData\Local\Temp\cckH4Mn9.s 			page 43


 2016              	sd8902_write_byte:
 2017              	.LFB47:
 403:./Hardware/device/spi.c **** /******************************************************************
 404:./Hardware/device/spi.c **** 描述: sd8902 写一字节 函数
 405:./Hardware/device/spi.c **** *******************************************************************/
 406:./Hardware/device/spi.c **** void sd8902_write_byte(uint8_t addr_or_data)
 407:./Hardware/device/spi.c **** {
 2018              		.loc 1 407 1
 2019              		.cfi_startproc
 2020              		@ args = 0, pretend = 0, frame = 16
 2021              		@ frame_needed = 1, uses_anonymous_args = 0
 2022 0000 80B5     		push	{r7, lr}
 2023              	.LCFI76:
 2024              		.cfi_def_cfa_offset 8
 2025              		.cfi_offset 7, -8
 2026              		.cfi_offset 14, -4
 2027 0002 84B0     		sub	sp, sp, #16
 2028              	.LCFI77:
 2029              		.cfi_def_cfa_offset 24
 2030 0004 00AF     		add	r7, sp, #0
 2031              	.LCFI78:
 2032              		.cfi_def_cfa_register 7
 2033 0006 0346     		mov	r3, r0
 2034 0008 FB71     		strb	r3, [r7, #7]
 408:./Hardware/device/spi.c **** 	uint8_t i;
 409:./Hardware/device/spi.c **** 	sd8902_SET_OUT;
 2035              		.loc 1 409 2
 2036 000a FFF7FEFF 		bl	sd8902_set_output_mode
 410:./Hardware/device/spi.c **** 	for(i=0;i<8;i++)
 2037              		.loc 1 410 7
 2038 000e 0023     		movs	r3, #0
 2039 0010 FB73     		strb	r3, [r7, #15]
 2040              		.loc 1 410 2
 2041 0012 1BE0     		b	.L69
 2042              	.L72:
 411:./Hardware/device/spi.c **** 	{
 412:./Hardware/device/spi.c **** 		if(addr_or_data & 0x01)		//从低位开始传输
 2043              		.loc 1 412 19
 2044 0014 FB79     		ldrb	r3, [r7, #7]	@ zero_extendqisi2
 2045 0016 03F00103 		and	r3, r3, #1
 2046              		.loc 1 412 5
 2047 001a 002B     		cmp	r3, #0
 2048 001c 04D0     		beq	.L70
 413:./Hardware/device/spi.c **** 		{
 414:./Hardware/device/spi.c **** 			sd8902_DAT_HIGH;
 2049              		.loc 1 414 4
 2050 001e 1021     		movs	r1, #16
 2051 0020 0E48     		ldr	r0, .L73
 2052 0022 FFF7FEFF 		bl	GPIO_SetBits
 2053 0026 03E0     		b	.L71
 2054              	.L70:
 415:./Hardware/device/spi.c **** 		}
 416:./Hardware/device/spi.c **** 		else
 417:./Hardware/device/spi.c **** 		{
 418:./Hardware/device/spi.c **** 			sd8902_DAT_LOW;
 2055              		.loc 1 418 4
 2056 0028 1021     		movs	r1, #16
ARM GAS  C:\Users\86134\AppData\Local\Temp\cckH4Mn9.s 			page 44


 2057 002a 0C48     		ldr	r0, .L73
 2058 002c FFF7FEFF 		bl	GPIO_ResetBits
 2059              	.L71:
 419:./Hardware/device/spi.c **** 		}
 420:./Hardware/device/spi.c **** 		addr_or_data >>= 1;		//右移一位
 2060              		.loc 1 420 16 discriminator 2
 2061 0030 FB79     		ldrb	r3, [r7, #7]	@ zero_extendqisi2
 2062 0032 5B08     		lsrs	r3, r3, #1
 2063 0034 FB71     		strb	r3, [r7, #7]
 421:./Hardware/device/spi.c **** 		sd8902_CLK_HIGH;		//拉高时钟表示已经发送
 2064              		.loc 1 421 3 discriminator 2
 2065 0036 2021     		movs	r1, #32
 2066 0038 0948     		ldr	r0, .L73+4
 2067 003a FFF7FEFF 		bl	GPIO_SetBits
 422:./Hardware/device/spi.c **** 		sd8902_CLK_LOW;			//拉低时钟准备继续放新的数据位
 2068              		.loc 1 422 3 discriminator 2
 2069 003e 2021     		movs	r1, #32
 2070 0040 0748     		ldr	r0, .L73+4
 2071 0042 FFF7FEFF 		bl	GPIO_ResetBits
 410:./Hardware/device/spi.c **** 	{
 2072              		.loc 1 410 15 discriminator 2
 2073 0046 FB7B     		ldrb	r3, [r7, #15]	@ zero_extendqisi2
 2074 0048 0133     		adds	r3, r3, #1
 2075 004a FB73     		strb	r3, [r7, #15]
 2076              	.L69:
 410:./Hardware/device/spi.c **** 	{
 2077              		.loc 1 410 2 discriminator 1
 2078 004c FB7B     		ldrb	r3, [r7, #15]	@ zero_extendqisi2
 2079 004e 072B     		cmp	r3, #7
 2080 0050 E0D9     		bls	.L72
 423:./Hardware/device/spi.c **** 	}
 424:./Hardware/device/spi.c **** }
 2081              		.loc 1 424 1
 2082 0052 00BF     		nop
 2083 0054 00BF     		nop
 2084 0056 1037     		adds	r7, r7, #16
 2085              	.LCFI79:
 2086              		.cfi_def_cfa_offset 8
 2087 0058 BD46     		mov	sp, r7
 2088              	.LCFI80:
 2089              		.cfi_def_cfa_register 13
 2090              		@ sp needed
 2091 005a 80BD     		pop	{r7, pc}
 2092              	.L74:
 2093              		.align	2
 2094              	.L73:
 2095 005c 00100140 		.word	1073811456
 2096 0060 00080140 		.word	1073809408
 2097              		.cfi_endproc
 2098              	.LFE47:
 2100              		.section	.text.sd8902_write_data,"ax",%progbits
 2101              		.align	1
 2102              		.global	sd8902_write_data
 2103              		.syntax unified
 2104              		.thumb
 2105              		.thumb_func
 2106              		.fpu softvfp
ARM GAS  C:\Users\86134\AppData\Local\Temp\cckH4Mn9.s 			page 45


 2108              	sd8902_write_data:
 2109              	.LFB48:
 425:./Hardware/device/spi.c **** 
 426:./Hardware/device/spi.c **** /******************************************************************
 427:./Hardware/device/spi.c **** 描述: sd8902 写命令 函数
 428:./Hardware/device/spi.c **** *******************************************************************/
 429:./Hardware/device/spi.c **** void sd8902_write_data(uint8_t addr,uint8_t dat)
 430:./Hardware/device/spi.c **** {
 2110              		.loc 1 430 1
 2111              		.cfi_startproc
 2112              		@ args = 0, pretend = 0, frame = 8
 2113              		@ frame_needed = 1, uses_anonymous_args = 0
 2114 0000 80B5     		push	{r7, lr}
 2115              	.LCFI81:
 2116              		.cfi_def_cfa_offset 8
 2117              		.cfi_offset 7, -8
 2118              		.cfi_offset 14, -4
 2119 0002 82B0     		sub	sp, sp, #8
 2120              	.LCFI82:
 2121              		.cfi_def_cfa_offset 16
 2122 0004 00AF     		add	r7, sp, #0
 2123              	.LCFI83:
 2124              		.cfi_def_cfa_register 7
 2125 0006 0346     		mov	r3, r0
 2126 0008 0A46     		mov	r2, r1
 2127 000a FB71     		strb	r3, [r7, #7]
 2128 000c 1346     		mov	r3, r2
 2129 000e BB71     		strb	r3, [r7, #6]
 431:./Hardware/device/spi.c **** 	sd8902_RST_LOW;
 2130              		.loc 1 431 2
 2131 0010 1021     		movs	r1, #16
 2132 0012 0D48     		ldr	r0, .L76
 2133 0014 FFF7FEFF 		bl	GPIO_ResetBits
 432:./Hardware/device/spi.c **** 	sd8902_CLK_LOW;
 2134              		.loc 1 432 2
 2135 0018 2021     		movs	r1, #32
 2136 001a 0B48     		ldr	r0, .L76
 2137 001c FFF7FEFF 		bl	GPIO_ResetBits
 433:./Hardware/device/spi.c **** 	sd8902_RST_HIGH;
 2138              		.loc 1 433 2
 2139 0020 1021     		movs	r1, #16
 2140 0022 0948     		ldr	r0, .L76
 2141 0024 FFF7FEFF 		bl	GPIO_SetBits
 434:./Hardware/device/spi.c **** 	sd8902_write_byte(addr);
 2142              		.loc 1 434 2
 2143 0028 FB79     		ldrb	r3, [r7, #7]	@ zero_extendqisi2
 2144 002a 1846     		mov	r0, r3
 2145 002c FFF7FEFF 		bl	sd8902_write_byte
 435:./Hardware/device/spi.c **** 	sd8902_write_byte(dat);
 2146              		.loc 1 435 2
 2147 0030 BB79     		ldrb	r3, [r7, #6]	@ zero_extendqisi2
 2148 0032 1846     		mov	r0, r3
 2149 0034 FFF7FEFF 		bl	sd8902_write_byte
 436:./Hardware/device/spi.c **** 	sd8902_RST_LOW;
 2150              		.loc 1 436 2
 2151 0038 1021     		movs	r1, #16
 2152 003a 0348     		ldr	r0, .L76
ARM GAS  C:\Users\86134\AppData\Local\Temp\cckH4Mn9.s 			page 46


 2153 003c FFF7FEFF 		bl	GPIO_ResetBits
 437:./Hardware/device/spi.c **** }
 2154              		.loc 1 437 1
 2155 0040 00BF     		nop
 2156 0042 0837     		adds	r7, r7, #8
 2157              	.LCFI84:
 2158              		.cfi_def_cfa_offset 8
 2159 0044 BD46     		mov	sp, r7
 2160              	.LCFI85:
 2161              		.cfi_def_cfa_register 13
 2162              		@ sp needed
 2163 0046 80BD     		pop	{r7, pc}
 2164              	.L77:
 2165              		.align	2
 2166              	.L76:
 2167 0048 00080140 		.word	1073809408
 2168              		.cfi_endproc
 2169              	.LFE48:
 2171              		.section	.text.sd8902_read_byte,"ax",%progbits
 2172              		.align	1
 2173              		.global	sd8902_read_byte
 2174              		.syntax unified
 2175              		.thumb
 2176              		.thumb_func
 2177              		.fpu softvfp
 2179              	sd8902_read_byte:
 2180              	.LFB49:
 438:./Hardware/device/spi.c **** 
 439:./Hardware/device/spi.c **** /******************************************************************
 440:./Hardware/device/spi.c **** 描述: sd8902 读一字节 函数
 441:./Hardware/device/spi.c **** *******************************************************************/
 442:./Hardware/device/spi.c **** uint8_t sd8902_read_byte(void)
 443:./Hardware/device/spi.c **** {
 2181              		.loc 1 443 1
 2182              		.cfi_startproc
 2183              		@ args = 0, pretend = 0, frame = 8
 2184              		@ frame_needed = 1, uses_anonymous_args = 0
 2185 0000 80B5     		push	{r7, lr}
 2186              	.LCFI86:
 2187              		.cfi_def_cfa_offset 8
 2188              		.cfi_offset 7, -8
 2189              		.cfi_offset 14, -4
 2190 0002 82B0     		sub	sp, sp, #8
 2191              	.LCFI87:
 2192              		.cfi_def_cfa_offset 16
 2193 0004 00AF     		add	r7, sp, #0
 2194              	.LCFI88:
 2195              		.cfi_def_cfa_register 7
 444:./Hardware/device/spi.c **** 	uint8_t i;
 445:./Hardware/device/spi.c **** 	uint8_t dat = 0;
 2196              		.loc 1 445 10
 2197 0006 0023     		movs	r3, #0
 2198 0008 BB71     		strb	r3, [r7, #6]
 446:./Hardware/device/spi.c **** 	sd8902_SET_IN;
 2199              		.loc 1 446 2
 2200 000a FFF7FEFF 		bl	sd8902_set_input_mode
 447:./Hardware/device/spi.c **** 	for(i=0;i<8;i++)
ARM GAS  C:\Users\86134\AppData\Local\Temp\cckH4Mn9.s 			page 47


 2201              		.loc 1 447 7
 2202 000e 0023     		movs	r3, #0
 2203 0010 FB71     		strb	r3, [r7, #7]
 2204              		.loc 1 447 2
 2205 0012 18E0     		b	.L79
 2206              	.L81:
 448:./Hardware/device/spi.c **** 	{
 449:./Hardware/device/spi.c **** 		dat >>= 1;		//左移一次 低位开始 共有效左移7次
 2207              		.loc 1 449 7
 2208 0014 BB79     		ldrb	r3, [r7, #6]	@ zero_extendqisi2
 2209 0016 5B08     		lsrs	r3, r3, #1
 2210 0018 BB71     		strb	r3, [r7, #6]
 450:./Hardware/device/spi.c **** 		if( GPIO_ReadInputDataBit(sd8902_DAT_PORT, sd8902_DAT_PIN) == SET)
 2211              		.loc 1 450 7
 2212 001a 1021     		movs	r1, #16
 2213 001c 0E48     		ldr	r0, .L83
 2214 001e FFF7FEFF 		bl	GPIO_ReadInputDataBit
 2215 0022 0346     		mov	r3, r0
 2216              		.loc 1 450 5
 2217 0024 012B     		cmp	r3, #1
 2218 0026 03D1     		bne	.L80
 451:./Hardware/device/spi.c **** 		{
 452:./Hardware/device/spi.c **** 			dat = dat | 0x80;
 2219              		.loc 1 452 8
 2220 0028 BB79     		ldrb	r3, [r7, #6]
 2221 002a 63F07F03 		orn	r3, r3, #127
 2222 002e BB71     		strb	r3, [r7, #6]
 2223              	.L80:
 453:./Hardware/device/spi.c **** 		}
 454:./Hardware/device/spi.c **** 		sd8902_CLK_HIGH;
 2224              		.loc 1 454 3 discriminator 2
 2225 0030 2021     		movs	r1, #32
 2226 0032 0A48     		ldr	r0, .L83+4
 2227 0034 FFF7FEFF 		bl	GPIO_SetBits
 455:./Hardware/device/spi.c **** 		sd8902_CLK_LOW;
 2228              		.loc 1 455 3 discriminator 2
 2229 0038 2021     		movs	r1, #32
 2230 003a 0848     		ldr	r0, .L83+4
 2231 003c FFF7FEFF 		bl	GPIO_ResetBits
 447:./Hardware/device/spi.c **** 	{
 2232              		.loc 1 447 15 discriminator 2
 2233 0040 FB79     		ldrb	r3, [r7, #7]	@ zero_extendqisi2
 2234 0042 0133     		adds	r3, r3, #1
 2235 0044 FB71     		strb	r3, [r7, #7]
 2236              	.L79:
 447:./Hardware/device/spi.c **** 	{
 2237              		.loc 1 447 2 discriminator 1
 2238 0046 FB79     		ldrb	r3, [r7, #7]	@ zero_extendqisi2
 2239 0048 072B     		cmp	r3, #7
 2240 004a E3D9     		bls	.L81
 456:./Hardware/device/spi.c **** 	}
 457:./Hardware/device/spi.c **** 	return dat;
 2241              		.loc 1 457 9
 2242 004c BB79     		ldrb	r3, [r7, #6]	@ zero_extendqisi2
 458:./Hardware/device/spi.c **** }
 2243              		.loc 1 458 1
 2244 004e 1846     		mov	r0, r3
ARM GAS  C:\Users\86134\AppData\Local\Temp\cckH4Mn9.s 			page 48


 2245 0050 0837     		adds	r7, r7, #8
 2246              	.LCFI89:
 2247              		.cfi_def_cfa_offset 8
 2248 0052 BD46     		mov	sp, r7
 2249              	.LCFI90:
 2250              		.cfi_def_cfa_register 13
 2251              		@ sp needed
 2252 0054 80BD     		pop	{r7, pc}
 2253              	.L84:
 2254 0056 00BF     		.align	2
 2255              	.L83:
 2256 0058 00100140 		.word	1073811456
 2257 005c 00080140 		.word	1073809408
 2258              		.cfi_endproc
 2259              	.LFE49:
 2261              		.section	.text.sd8902_read_data,"ax",%progbits
 2262              		.align	1
 2263              		.global	sd8902_read_data
 2264              		.syntax unified
 2265              		.thumb
 2266              		.thumb_func
 2267              		.fpu softvfp
 2269              	sd8902_read_data:
 2270              	.LFB50:
 459:./Hardware/device/spi.c **** 
 460:./Hardware/device/spi.c **** 
 461:./Hardware/device/spi.c **** /******************************************************************
 462:./Hardware/device/spi.c **** 描述: sd8902 读数据 函数
 463:./Hardware/device/spi.c **** *******************************************************************/
 464:./Hardware/device/spi.c **** uint8_t sd8902_read_data(uint8_t addr)
 465:./Hardware/device/spi.c **** {
 2271              		.loc 1 465 1
 2272              		.cfi_startproc
 2273              		@ args = 0, pretend = 0, frame = 16
 2274              		@ frame_needed = 1, uses_anonymous_args = 0
 2275 0000 80B5     		push	{r7, lr}
 2276              	.LCFI91:
 2277              		.cfi_def_cfa_offset 8
 2278              		.cfi_offset 7, -8
 2279              		.cfi_offset 14, -4
 2280 0002 84B0     		sub	sp, sp, #16
 2281              	.LCFI92:
 2282              		.cfi_def_cfa_offset 24
 2283 0004 00AF     		add	r7, sp, #0
 2284              	.LCFI93:
 2285              		.cfi_def_cfa_register 7
 2286 0006 0346     		mov	r3, r0
 2287 0008 FB71     		strb	r3, [r7, #7]
 466:./Hardware/device/spi.c **** 	uint8_t dat = 0;
 2288              		.loc 1 466 10
 2289 000a 0023     		movs	r3, #0
 2290 000c FB73     		strb	r3, [r7, #15]
 467:./Hardware/device/spi.c **** 	sd8902_RST_LOW;
 2291              		.loc 1 467 2
 2292 000e 1021     		movs	r1, #16
 2293 0010 0D48     		ldr	r0, .L87
 2294 0012 FFF7FEFF 		bl	GPIO_ResetBits
ARM GAS  C:\Users\86134\AppData\Local\Temp\cckH4Mn9.s 			page 49


 468:./Hardware/device/spi.c **** 	sd8902_CLK_LOW;
 2295              		.loc 1 468 2
 2296 0016 2021     		movs	r1, #32
 2297 0018 0B48     		ldr	r0, .L87
 2298 001a FFF7FEFF 		bl	GPIO_ResetBits
 469:./Hardware/device/spi.c **** 	sd8902_RST_HIGH;
 2299              		.loc 1 469 2
 2300 001e 1021     		movs	r1, #16
 2301 0020 0948     		ldr	r0, .L87
 2302 0022 FFF7FEFF 		bl	GPIO_SetBits
 470:./Hardware/device/spi.c **** 	sd8902_write_byte(addr);
 2303              		.loc 1 470 2
 2304 0026 FB79     		ldrb	r3, [r7, #7]	@ zero_extendqisi2
 2305 0028 1846     		mov	r0, r3
 2306 002a FFF7FEFF 		bl	sd8902_write_byte
 471:./Hardware/device/spi.c **** 	dat = sd8902_read_byte();
 2307              		.loc 1 471 8
 2308 002e FFF7FEFF 		bl	sd8902_read_byte
 2309 0032 0346     		mov	r3, r0
 2310 0034 FB73     		strb	r3, [r7, #15]
 472:./Hardware/device/spi.c **** 	sd8902_RST_LOW;
 2311              		.loc 1 472 2
 2312 0036 1021     		movs	r1, #16
 2313 0038 0348     		ldr	r0, .L87
 2314 003a FFF7FEFF 		bl	GPIO_ResetBits
 473:./Hardware/device/spi.c **** 	return dat;
 2315              		.loc 1 473 9
 2316 003e FB7B     		ldrb	r3, [r7, #15]	@ zero_extendqisi2
 474:./Hardware/device/spi.c **** }
 2317              		.loc 1 474 1
 2318 0040 1846     		mov	r0, r3
 2319 0042 1037     		adds	r7, r7, #16
 2320              	.LCFI94:
 2321              		.cfi_def_cfa_offset 8
 2322 0044 BD46     		mov	sp, r7
 2323              	.LCFI95:
 2324              		.cfi_def_cfa_register 13
 2325              		@ sp needed
 2326 0046 80BD     		pop	{r7, pc}
 2327              	.L88:
 2328              		.align	2
 2329              	.L87:
 2330 0048 00080140 		.word	1073809408
 2331              		.cfi_endproc
 2332              	.LFE50:
 2334              		.section	.text.bcd_to_decimal,"ax",%progbits
 2335              		.align	1
 2336              		.global	bcd_to_decimal
 2337              		.syntax unified
 2338              		.thumb
 2339              		.thumb_func
 2340              		.fpu softvfp
 2342              	bcd_to_decimal:
 2343              	.LFB51:
 475:./Hardware/device/spi.c **** 
 476:./Hardware/device/spi.c **** /******************************************************************
 477:./Hardware/device/spi.c **** 描述: BCD 转 十进制 函数 例如 0X24 转成 24
ARM GAS  C:\Users\86134\AppData\Local\Temp\cckH4Mn9.s 			page 50


 478:./Hardware/device/spi.c **** *******************************************************************/
 479:./Hardware/device/spi.c **** void bcd_to_decimal(uint8_t *bcd,uint8_t times)
 480:./Hardware/device/spi.c **** {
 2344              		.loc 1 480 1
 2345              		.cfi_startproc
 2346              		@ args = 0, pretend = 0, frame = 16
 2347              		@ frame_needed = 1, uses_anonymous_args = 0
 2348              		@ link register save eliminated.
 2349 0000 80B4     		push	{r7}
 2350              	.LCFI96:
 2351              		.cfi_def_cfa_offset 4
 2352              		.cfi_offset 7, -4
 2353 0002 85B0     		sub	sp, sp, #20
 2354              	.LCFI97:
 2355              		.cfi_def_cfa_offset 24
 2356 0004 00AF     		add	r7, sp, #0
 2357              	.LCFI98:
 2358              		.cfi_def_cfa_register 7
 2359 0006 7860     		str	r0, [r7, #4]
 2360 0008 0B46     		mov	r3, r1
 2361 000a FB70     		strb	r3, [r7, #3]
 481:./Hardware/device/spi.c **** 	uint8_t i;
 482:./Hardware/device/spi.c **** 	for(i=0;i<times;i++)
 2362              		.loc 1 482 7
 2363 000c 0023     		movs	r3, #0
 2364 000e FB73     		strb	r3, [r7, #15]
 2365              		.loc 1 482 2
 2366 0010 1AE0     		b	.L90
 2367              	.L91:
 483:./Hardware/device/spi.c **** 	{
 484:./Hardware/device/spi.c **** 		bcd[i] = ((bcd[i]>>4)*10) + (bcd[i]&0x0f);
 2368              		.loc 1 484 17 discriminator 3
 2369 0012 FB7B     		ldrb	r3, [r7, #15]	@ zero_extendqisi2
 2370 0014 7A68     		ldr	r2, [r7, #4]
 2371 0016 1344     		add	r3, r3, r2
 2372 0018 1B78     		ldrb	r3, [r3]	@ zero_extendqisi2
 2373              		.loc 1 484 29 discriminator 3
 2374 001a 1B09     		lsrs	r3, r3, #4
 2375 001c DBB2     		uxtb	r3, r3
 2376 001e 1A46     		mov	r2, r3
 2377 0020 9200     		lsls	r2, r2, #2
 2378 0022 1344     		add	r3, r3, r2
 2379 0024 5B00     		lsls	r3, r3, #1
 2380 0026 D9B2     		uxtb	r1, r3
 2381              		.loc 1 484 35 discriminator 3
 2382 0028 FB7B     		ldrb	r3, [r7, #15]	@ zero_extendqisi2
 2383 002a 7A68     		ldr	r2, [r7, #4]
 2384 002c 1344     		add	r3, r3, r2
 2385 002e 1B78     		ldrb	r3, [r3]	@ zero_extendqisi2
 2386              		.loc 1 484 38 discriminator 3
 2387 0030 03F00F03 		and	r3, r3, #15
 2388 0034 DAB2     		uxtb	r2, r3
 2389              		.loc 1 484 6 discriminator 3
 2390 0036 FB7B     		ldrb	r3, [r7, #15]	@ zero_extendqisi2
 2391 0038 7868     		ldr	r0, [r7, #4]
 2392 003a 0344     		add	r3, r3, r0
 2393              		.loc 1 484 29 discriminator 3
ARM GAS  C:\Users\86134\AppData\Local\Temp\cckH4Mn9.s 			page 51


 2394 003c 0A44     		add	r2, r2, r1
 2395 003e D2B2     		uxtb	r2, r2
 2396              		.loc 1 484 10 discriminator 3
 2397 0040 1A70     		strb	r2, [r3]
 482:./Hardware/device/spi.c **** 	{
 2398              		.loc 1 482 19 discriminator 3
 2399 0042 FB7B     		ldrb	r3, [r7, #15]	@ zero_extendqisi2
 2400 0044 0133     		adds	r3, r3, #1
 2401 0046 FB73     		strb	r3, [r7, #15]
 2402              	.L90:
 482:./Hardware/device/spi.c **** 	{
 2403              		.loc 1 482 2 discriminator 1
 2404 0048 FA7B     		ldrb	r2, [r7, #15]	@ zero_extendqisi2
 2405 004a FB78     		ldrb	r3, [r7, #3]	@ zero_extendqisi2
 2406 004c 9A42     		cmp	r2, r3
 2407 004e E0D3     		bcc	.L91
 485:./Hardware/device/spi.c **** 	}
 486:./Hardware/device/spi.c **** }
 2408              		.loc 1 486 1
 2409 0050 00BF     		nop
 2410 0052 00BF     		nop
 2411 0054 1437     		adds	r7, r7, #20
 2412              	.LCFI99:
 2413              		.cfi_def_cfa_offset 4
 2414 0056 BD46     		mov	sp, r7
 2415              	.LCFI100:
 2416              		.cfi_def_cfa_register 13
 2417              		@ sp needed
 2418 0058 80BC     		pop	{r7}
 2419              	.LCFI101:
 2420              		.cfi_restore 7
 2421              		.cfi_def_cfa_offset 0
 2422 005a 7047     		bx	lr
 2423              		.cfi_endproc
 2424              	.LFE51:
 2426              		.section	.text.decimal_to_bcd,"ax",%progbits
 2427              		.align	1
 2428              		.global	decimal_to_bcd
 2429              		.syntax unified
 2430              		.thumb
 2431              		.thumb_func
 2432              		.fpu softvfp
 2434              	decimal_to_bcd:
 2435              	.LFB52:
 487:./Hardware/device/spi.c **** 
 488:./Hardware/device/spi.c **** /******************************************************************
 489:./Hardware/device/spi.c **** 描述: 十进制 转 BCD 函数 例如 12 转成 0X12
 490:./Hardware/device/spi.c **** *******************************************************************/
 491:./Hardware/device/spi.c **** void decimal_to_bcd(uint8_t *dec,uint8_t times)
 492:./Hardware/device/spi.c **** {
 2436              		.loc 1 492 1
 2437              		.cfi_startproc
 2438              		@ args = 0, pretend = 0, frame = 16
 2439              		@ frame_needed = 1, uses_anonymous_args = 0
 2440              		@ link register save eliminated.
 2441 0000 80B4     		push	{r7}
 2442              	.LCFI102:
ARM GAS  C:\Users\86134\AppData\Local\Temp\cckH4Mn9.s 			page 52


 2443              		.cfi_def_cfa_offset 4
 2444              		.cfi_offset 7, -4
 2445 0002 85B0     		sub	sp, sp, #20
 2446              	.LCFI103:
 2447              		.cfi_def_cfa_offset 24
 2448 0004 00AF     		add	r7, sp, #0
 2449              	.LCFI104:
 2450              		.cfi_def_cfa_register 7
 2451 0006 7860     		str	r0, [r7, #4]
 2452 0008 0B46     		mov	r3, r1
 2453 000a FB70     		strb	r3, [r7, #3]
 493:./Hardware/device/spi.c **** 	uint8_t i;
 494:./Hardware/device/spi.c **** 	for(i=0;i<times;i++)
 2454              		.loc 1 494 7
 2455 000c 0023     		movs	r3, #0
 2456 000e FB73     		strb	r3, [r7, #15]
 2457              		.loc 1 494 2
 2458 0010 23E0     		b	.L93
 2459              	.L94:
 495:./Hardware/device/spi.c **** 	{
 496:./Hardware/device/spi.c **** 		dec[i] = ((dec[i]/10)<<4) | (dec[i]%10);
 2460              		.loc 1 496 17 discriminator 3
 2461 0012 FB7B     		ldrb	r3, [r7, #15]	@ zero_extendqisi2
 2462 0014 7A68     		ldr	r2, [r7, #4]
 2463 0016 1344     		add	r3, r3, r2
 2464 0018 1B78     		ldrb	r3, [r3]	@ zero_extendqisi2
 2465              		.loc 1 496 20 discriminator 3
 2466 001a 154A     		ldr	r2, .L95
 2467 001c A2FB0323 		umull	r2, r3, r2, r3
 2468 0020 DB08     		lsrs	r3, r3, #3
 2469 0022 DBB2     		uxtb	r3, r3
 2470              		.loc 1 496 24 discriminator 3
 2471 0024 1B01     		lsls	r3, r3, #4
 2472              		.loc 1 496 29 discriminator 3
 2473 0026 58B2     		sxtb	r0, r3
 2474              		.loc 1 496 35 discriminator 3
 2475 0028 FB7B     		ldrb	r3, [r7, #15]	@ zero_extendqisi2
 2476 002a 7A68     		ldr	r2, [r7, #4]
 2477 002c 1344     		add	r3, r3, r2
 2478 002e 1A78     		ldrb	r2, [r3]	@ zero_extendqisi2
 2479              		.loc 1 496 29 discriminator 3
 2480 0030 0F4B     		ldr	r3, .L95
 2481 0032 A3FB0213 		umull	r1, r3, r3, r2
 2482 0036 D908     		lsrs	r1, r3, #3
 2483 0038 0B46     		mov	r3, r1
 2484 003a 9B00     		lsls	r3, r3, #2
 2485 003c 0B44     		add	r3, r3, r1
 2486 003e 5B00     		lsls	r3, r3, #1
 2487 0040 D31A     		subs	r3, r2, r3
 2488 0042 DBB2     		uxtb	r3, r3
 2489 0044 5BB2     		sxtb	r3, r3
 2490 0046 0343     		orrs	r3, r3, r0
 2491 0048 59B2     		sxtb	r1, r3
 2492              		.loc 1 496 6 discriminator 3
 2493 004a FB7B     		ldrb	r3, [r7, #15]	@ zero_extendqisi2
 2494 004c 7A68     		ldr	r2, [r7, #4]
 2495 004e 1344     		add	r3, r3, r2
ARM GAS  C:\Users\86134\AppData\Local\Temp\cckH4Mn9.s 			page 53


 2496              		.loc 1 496 29 discriminator 3
 2497 0050 CAB2     		uxtb	r2, r1
 2498              		.loc 1 496 10 discriminator 3
 2499 0052 1A70     		strb	r2, [r3]
 494:./Hardware/device/spi.c **** 	{
 2500              		.loc 1 494 19 discriminator 3
 2501 0054 FB7B     		ldrb	r3, [r7, #15]	@ zero_extendqisi2
 2502 0056 0133     		adds	r3, r3, #1
 2503 0058 FB73     		strb	r3, [r7, #15]
 2504              	.L93:
 494:./Hardware/device/spi.c **** 	{
 2505              		.loc 1 494 2 discriminator 1
 2506 005a FA7B     		ldrb	r2, [r7, #15]	@ zero_extendqisi2
 2507 005c FB78     		ldrb	r3, [r7, #3]	@ zero_extendqisi2
 2508 005e 9A42     		cmp	r2, r3
 2509 0060 D7D3     		bcc	.L94
 497:./Hardware/device/spi.c **** 	}
 498:./Hardware/device/spi.c **** }
 2510              		.loc 1 498 1
 2511 0062 00BF     		nop
 2512 0064 00BF     		nop
 2513 0066 1437     		adds	r7, r7, #20
 2514              	.LCFI105:
 2515              		.cfi_def_cfa_offset 4
 2516 0068 BD46     		mov	sp, r7
 2517              	.LCFI106:
 2518              		.cfi_def_cfa_register 13
 2519              		@ sp needed
 2520 006a 80BC     		pop	{r7}
 2521              	.LCFI107:
 2522              		.cfi_restore 7
 2523              		.cfi_def_cfa_offset 0
 2524 006c 7047     		bx	lr
 2525              	.L96:
 2526 006e 00BF     		.align	2
 2527              	.L95:
 2528 0070 CDCCCCCC 		.word	-858993459
 2529              		.cfi_endproc
 2530              	.LFE52:
 2532              		.section	.text.SD8902_WriteTimeDate,"ax",%progbits
 2533              		.align	1
 2534              		.global	SD8902_WriteTimeDate
 2535              		.syntax unified
 2536              		.thumb
 2537              		.thumb_func
 2538              		.fpu softvfp
 2540              	SD8902_WriteTimeDate:
 2541              	.LFB53:
 499:./Hardware/device/spi.c **** 
 500:./Hardware/device/spi.c **** /******************************************************************
 501:./Hardware/device/spi.c **** 描述: sd8902写时间 函数
 502:./Hardware/device/spi.c **** *******************************************************************/
 503:./Hardware/device/spi.c **** spi_exit_code SD8902_WriteTimeDate(void)
 504:./Hardware/device/spi.c **** {
 2542              		.loc 1 504 1
 2543              		.cfi_startproc
 2544              		@ args = 0, pretend = 0, frame = 8
ARM GAS  C:\Users\86134\AppData\Local\Temp\cckH4Mn9.s 			page 54


 2545              		@ frame_needed = 1, uses_anonymous_args = 0
 2546 0000 80B5     		push	{r7, lr}
 2547              	.LCFI108:
 2548              		.cfi_def_cfa_offset 8
 2549              		.cfi_offset 7, -8
 2550              		.cfi_offset 14, -4
 2551 0002 82B0     		sub	sp, sp, #8
 2552              	.LCFI109:
 2553              		.cfi_def_cfa_offset 16
 2554 0004 00AF     		add	r7, sp, #0
 2555              	.LCFI110:
 2556              		.cfi_def_cfa_register 7
 505:./Hardware/device/spi.c **** 	uint8_t sd8902_buff[7];
 506:./Hardware/device/spi.c **** 
 507:./Hardware/device/spi.c **** 	decimal_to_bcd(sd8902_buff,7);	//十进制转BCD码
 2557              		.loc 1 507 2
 2558 0006 3B46     		mov	r3, r7
 2559 0008 0721     		movs	r1, #7
 2560 000a 1846     		mov	r0, r3
 2561 000c FFF7FEFF 		bl	decimal_to_bcd
 508:./Hardware/device/spi.c **** 	sd8902_write_data(sd8902_WRITE_PROTECT,0x00); //关闭写保护	
 2562              		.loc 1 508 2
 2563 0010 0021     		movs	r1, #0
 2564 0012 8E20     		movs	r0, #142
 2565 0014 FFF7FEFF 		bl	sd8902_write_data
 509:./Hardware/device/spi.c **** 	
 510:./Hardware/device/spi.c **** 	sd8902_write_data(sd8902_WRITE_YEAR,	sd8902_buff[6]);	//年
 2566              		.loc 1 510 2
 2567 0018 BB79     		ldrb	r3, [r7, #6]	@ zero_extendqisi2
 2568 001a 1946     		mov	r1, r3
 2569 001c 8C20     		movs	r0, #140
 2570 001e FFF7FEFF 		bl	sd8902_write_data
 511:./Hardware/device/spi.c **** 	sd8902_write_data(sd8902_WRITE_MONTH,sd8902_buff[5]);	//月
 2571              		.loc 1 511 2
 2572 0022 7B79     		ldrb	r3, [r7, #5]	@ zero_extendqisi2
 2573 0024 1946     		mov	r1, r3
 2574 0026 8820     		movs	r0, #136
 2575 0028 FFF7FEFF 		bl	sd8902_write_data
 512:./Hardware/device/spi.c **** 	sd8902_write_data(sd8902_WRITE_DAY,	sd8902_buff[4]);  	//日
 2576              		.loc 1 512 2
 2577 002c 3B79     		ldrb	r3, [r7, #4]	@ zero_extendqisi2
 2578 002e 1946     		mov	r1, r3
 2579 0030 8620     		movs	r0, #134
 2580 0032 FFF7FEFF 		bl	sd8902_write_data
 513:./Hardware/device/spi.c **** 	sd8902_write_data(sd8902_WRITE_WEEK,	sd8902_buff[3]);  	//周	
 2581              		.loc 1 513 2
 2582 0036 FB78     		ldrb	r3, [r7, #3]	@ zero_extendqisi2
 2583 0038 1946     		mov	r1, r3
 2584 003a 8A20     		movs	r0, #138
 2585 003c FFF7FEFF 		bl	sd8902_write_data
 514:./Hardware/device/spi.c **** 	sd8902_write_data(sd8902_WRITE_HOUR,	sd8902_buff[2]);   	//时
 2586              		.loc 1 514 2
 2587 0040 BB78     		ldrb	r3, [r7, #2]	@ zero_extendqisi2
 2588 0042 1946     		mov	r1, r3
 2589 0044 8420     		movs	r0, #132
 2590 0046 FFF7FEFF 		bl	sd8902_write_data
 515:./Hardware/device/spi.c **** 	sd8902_write_data(sd8902_WRITE_MINUTE,sd8902_buff[1]); 	//分
ARM GAS  C:\Users\86134\AppData\Local\Temp\cckH4Mn9.s 			page 55


 2591              		.loc 1 515 2
 2592 004a 7B78     		ldrb	r3, [r7, #1]	@ zero_extendqisi2
 2593 004c 1946     		mov	r1, r3
 2594 004e 8220     		movs	r0, #130
 2595 0050 FFF7FEFF 		bl	sd8902_write_data
 516:./Hardware/device/spi.c **** 	sd8902_write_data(sd8902_WRITE_SECOND,sd8902_buff[0]);  	//秒
 2596              		.loc 1 516 2
 2597 0054 3B78     		ldrb	r3, [r7]	@ zero_extendqisi2
 2598 0056 1946     		mov	r1, r3
 2599 0058 8020     		movs	r0, #128
 2600 005a FFF7FEFF 		bl	sd8902_write_data
 517:./Hardware/device/spi.c **** 
 518:./Hardware/device/spi.c **** 	sd8902_write_data(sd8902_WRITE_PROTECT,0x80); //开启写保护	
 2601              		.loc 1 518 2
 2602 005e 8021     		movs	r1, #128
 2603 0060 8E20     		movs	r0, #142
 2604 0062 FFF7FEFF 		bl	sd8902_write_data
 519:./Hardware/device/spi.c **** 	
 520:./Hardware/device/spi.c **** 	return SPI_OK;
 2605              		.loc 1 520 9
 2606 0066 0023     		movs	r3, #0
 521:./Hardware/device/spi.c **** 	
 522:./Hardware/device/spi.c **** }
 2607              		.loc 1 522 1
 2608 0068 1846     		mov	r0, r3
 2609 006a 0837     		adds	r7, r7, #8
 2610              	.LCFI111:
 2611              		.cfi_def_cfa_offset 8
 2612 006c BD46     		mov	sp, r7
 2613              	.LCFI112:
 2614              		.cfi_def_cfa_register 13
 2615              		@ sp needed
 2616 006e 80BD     		pop	{r7, pc}
 2617              		.cfi_endproc
 2618              	.LFE53:
 2620              		.section	.text.SD8902_ReadTimeDate,"ax",%progbits
 2621              		.align	1
 2622              		.global	SD8902_ReadTimeDate
 2623              		.syntax unified
 2624              		.thumb
 2625              		.thumb_func
 2626              		.fpu softvfp
 2628              	SD8902_ReadTimeDate:
 2629              	.LFB54:
 523:./Hardware/device/spi.c **** 
 524:./Hardware/device/spi.c **** /******************************************************************
 525:./Hardware/device/spi.c **** 描述: sd8902 读取 日期和时间 函数
 526:./Hardware/device/spi.c **** *******************************************************************/
 527:./Hardware/device/spi.c **** spi_exit_code SD8902_ReadTimeDate(void)
 528:./Hardware/device/spi.c **** {
 2630              		.loc 1 528 1
 2631              		.cfi_startproc
 2632              		@ args = 0, pretend = 0, frame = 8
 2633              		@ frame_needed = 1, uses_anonymous_args = 0
 2634 0000 80B5     		push	{r7, lr}
 2635              	.LCFI113:
 2636              		.cfi_def_cfa_offset 8
ARM GAS  C:\Users\86134\AppData\Local\Temp\cckH4Mn9.s 			page 56


 2637              		.cfi_offset 7, -8
 2638              		.cfi_offset 14, -4
 2639 0002 82B0     		sub	sp, sp, #8
 2640              	.LCFI114:
 2641              		.cfi_def_cfa_offset 16
 2642 0004 00AF     		add	r7, sp, #0
 2643              	.LCFI115:
 2644              		.cfi_def_cfa_register 7
 529:./Hardware/device/spi.c **** 	uint8_t sd8902_buff[7];
 530:./Hardware/device/spi.c **** 
 531:./Hardware/device/spi.c **** 	sd8902_buff[6] = sd8902_read_data(sd8902_READ_YEAR);  //读取年
 2645              		.loc 1 531 19
 2646 0006 8D20     		movs	r0, #141
 2647 0008 FFF7FEFF 		bl	sd8902_read_data
 2648 000c 0346     		mov	r3, r0
 2649              		.loc 1 531 17
 2650 000e BB71     		strb	r3, [r7, #6]
 532:./Hardware/device/spi.c **** 	sd8902_buff[5] = sd8902_read_data(sd8902_READ_MONTH); //读取月
 2651              		.loc 1 532 19
 2652 0010 8920     		movs	r0, #137
 2653 0012 FFF7FEFF 		bl	sd8902_read_data
 2654 0016 0346     		mov	r3, r0
 2655              		.loc 1 532 17
 2656 0018 7B71     		strb	r3, [r7, #5]
 533:./Hardware/device/spi.c **** 	sd8902_buff[4] = sd8902_read_data(sd8902_READ_DAY);   //读取日
 2657              		.loc 1 533 19
 2658 001a 8720     		movs	r0, #135
 2659 001c FFF7FEFF 		bl	sd8902_read_data
 2660 0020 0346     		mov	r3, r0
 2661              		.loc 1 533 17
 2662 0022 3B71     		strb	r3, [r7, #4]
 534:./Hardware/device/spi.c **** 	sd8902_buff[3] = sd8902_read_data(sd8902_READ_WEEK);  //读取周
 2663              		.loc 1 534 19
 2664 0024 8B20     		movs	r0, #139
 2665 0026 FFF7FEFF 		bl	sd8902_read_data
 2666 002a 0346     		mov	r3, r0
 2667              		.loc 1 534 17
 2668 002c FB70     		strb	r3, [r7, #3]
 535:./Hardware/device/spi.c **** 	sd8902_buff[2] = sd8902_read_data(sd8902_READ_HOUR);  //读取时
 2669              		.loc 1 535 19
 2670 002e 8520     		movs	r0, #133
 2671 0030 FFF7FEFF 		bl	sd8902_read_data
 2672 0034 0346     		mov	r3, r0
 2673              		.loc 1 535 17
 2674 0036 BB70     		strb	r3, [r7, #2]
 536:./Hardware/device/spi.c **** 	sd8902_buff[1] = sd8902_read_data(sd8902_READ_MINUTE);//读取分
 2675              		.loc 1 536 19
 2676 0038 8320     		movs	r0, #131
 2677 003a FFF7FEFF 		bl	sd8902_read_data
 2678 003e 0346     		mov	r3, r0
 2679              		.loc 1 536 17
 2680 0040 7B70     		strb	r3, [r7, #1]
 537:./Hardware/device/spi.c **** 	sd8902_buff[0] = sd8902_read_data(sd8902_READ_SECOND);//读取秒
 2681              		.loc 1 537 19
 2682 0042 8120     		movs	r0, #129
 2683 0044 FFF7FEFF 		bl	sd8902_read_data
 2684 0048 0346     		mov	r3, r0
ARM GAS  C:\Users\86134\AppData\Local\Temp\cckH4Mn9.s 			page 57


 2685              		.loc 1 537 17
 2686 004a 3B70     		strb	r3, [r7]
 538:./Hardware/device/spi.c **** 
 539:./Hardware/device/spi.c **** 	bcd_to_decimal(sd8902_buff,7);	//BCD码转成十进制
 2687              		.loc 1 539 2
 2688 004c 3B46     		mov	r3, r7
 2689 004e 0721     		movs	r1, #7
 2690 0050 1846     		mov	r0, r3
 2691 0052 FFF7FEFF 		bl	bcd_to_decimal
 540:./Hardware/device/spi.c **** 	
 541:./Hardware/device/spi.c **** 	spi_readtime(sd8902_buff);
 2692              		.loc 1 541 2
 2693 0056 3B46     		mov	r3, r7
 2694 0058 1846     		mov	r0, r3
 2695 005a FFF7FEFF 		bl	spi_readtime
 542:./Hardware/device/spi.c **** 	
 543:./Hardware/device/spi.c **** 	return SPI_OK;
 2696              		.loc 1 543 9
 2697 005e 0023     		movs	r3, #0
 544:./Hardware/device/spi.c **** 
 545:./Hardware/device/spi.c **** }
 2698              		.loc 1 545 1
 2699 0060 1846     		mov	r0, r3
 2700 0062 0837     		adds	r7, r7, #8
 2701              	.LCFI116:
 2702              		.cfi_def_cfa_offset 8
 2703 0064 BD46     		mov	sp, r7
 2704              	.LCFI117:
 2705              		.cfi_def_cfa_register 13
 2706              		@ sp needed
 2707 0066 80BD     		pop	{r7, pc}
 2708              		.cfi_endproc
 2709              	.LFE54:
 2711              		.section	.rodata
 2712              		.align	2
 2713              	.LC0:
 2714 0000 494400   		.ascii	"ID\000"
 2715 0003 00       		.align	2
 2716              	.LC1:
 2717 0004 3A00     		.ascii	":\000"
 2718              		.section	.text.sd8902_id_show,"ax",%progbits
 2719              		.align	1
 2720              		.global	sd8902_id_show
 2721              		.syntax unified
 2722              		.thumb
 2723              		.thumb_func
 2724              		.fpu softvfp
 2726              	sd8902_id_show:
 2727              	.LFB55:
 546:./Hardware/device/spi.c **** 
 547:./Hardware/device/spi.c **** uint8_t sd8902_id_show(void)
 548:./Hardware/device/spi.c **** {
 2728              		.loc 1 548 1
 2729              		.cfi_startproc
 2730              		@ args = 0, pretend = 0, frame = 8
 2731              		@ frame_needed = 1, uses_anonymous_args = 0
 2732 0000 80B5     		push	{r7, lr}
ARM GAS  C:\Users\86134\AppData\Local\Temp\cckH4Mn9.s 			page 58


 2733              	.LCFI118:
 2734              		.cfi_def_cfa_offset 8
 2735              		.cfi_offset 7, -8
 2736              		.cfi_offset 14, -4
 2737 0002 84B0     		sub	sp, sp, #16
 2738              	.LCFI119:
 2739              		.cfi_def_cfa_offset 24
 2740 0004 02AF     		add	r7, sp, #8
 2741              	.LCFI120:
 2742              		.cfi_def_cfa 7, 16
 549:./Hardware/device/spi.c **** 	uint8_t buf[8];
 550:./Hardware/device/spi.c **** 
 551:./Hardware/device/spi.c **** 	buf[7] = sd8902_read_data(0xA1);
 2743              		.loc 1 551 11
 2744 0006 A120     		movs	r0, #161
 2745 0008 FFF7FEFF 		bl	sd8902_read_data
 2746 000c 0346     		mov	r3, r0
 2747              		.loc 1 551 9
 2748 000e FB71     		strb	r3, [r7, #7]
 552:./Hardware/device/spi.c **** 	buf[6] = sd8902_read_data(0x9F);
 2749              		.loc 1 552 11
 2750 0010 9F20     		movs	r0, #159
 2751 0012 FFF7FEFF 		bl	sd8902_read_data
 2752 0016 0346     		mov	r3, r0
 2753              		.loc 1 552 9
 2754 0018 BB71     		strb	r3, [r7, #6]
 553:./Hardware/device/spi.c **** 	buf[5] = sd8902_read_data(0x9D);
 2755              		.loc 1 553 11
 2756 001a 9D20     		movs	r0, #157
 2757 001c FFF7FEFF 		bl	sd8902_read_data
 2758 0020 0346     		mov	r3, r0
 2759              		.loc 1 553 9
 2760 0022 7B71     		strb	r3, [r7, #5]
 554:./Hardware/device/spi.c **** 	buf[4] = sd8902_read_data(0x9B);
 2761              		.loc 1 554 11
 2762 0024 9B20     		movs	r0, #155
 2763 0026 FFF7FEFF 		bl	sd8902_read_data
 2764 002a 0346     		mov	r3, r0
 2765              		.loc 1 554 9
 2766 002c 3B71     		strb	r3, [r7, #4]
 555:./Hardware/device/spi.c **** 	buf[3] = sd8902_read_data(0x99);
 2767              		.loc 1 555 11
 2768 002e 9920     		movs	r0, #153
 2769 0030 FFF7FEFF 		bl	sd8902_read_data
 2770 0034 0346     		mov	r3, r0
 2771              		.loc 1 555 9
 2772 0036 FB70     		strb	r3, [r7, #3]
 556:./Hardware/device/spi.c **** 	buf[2] = sd8902_read_data(0x97);
 2773              		.loc 1 556 11
 2774 0038 9720     		movs	r0, #151
 2775 003a FFF7FEFF 		bl	sd8902_read_data
 2776 003e 0346     		mov	r3, r0
 2777              		.loc 1 556 9
 2778 0040 BB70     		strb	r3, [r7, #2]
 557:./Hardware/device/spi.c **** 	buf[1] = sd8902_read_data(0x95);
 2779              		.loc 1 557 11
 2780 0042 9520     		movs	r0, #149
ARM GAS  C:\Users\86134\AppData\Local\Temp\cckH4Mn9.s 			page 59


 2781 0044 FFF7FEFF 		bl	sd8902_read_data
 2782 0048 0346     		mov	r3, r0
 2783              		.loc 1 557 9
 2784 004a 7B70     		strb	r3, [r7, #1]
 558:./Hardware/device/spi.c **** 	buf[0] = sd8902_read_data(0x93);
 2785              		.loc 1 558 11
 2786 004c 9320     		movs	r0, #147
 2787 004e FFF7FEFF 		bl	sd8902_read_data
 2788 0052 0346     		mov	r3, r0
 2789              		.loc 1 558 9
 2790 0054 3B70     		strb	r3, [r7]
 559:./Hardware/device/spi.c **** 
 560:./Hardware/device/spi.c **** 	bcd_to_decimal(buf,8);
 2791              		.loc 1 560 2
 2792 0056 3B46     		mov	r3, r7
 2793 0058 0821     		movs	r1, #8
 2794 005a 1846     		mov	r0, r3
 2795 005c FFF7FEFF 		bl	bcd_to_decimal
 561:./Hardware/device/spi.c **** 
 562:./Hardware/device/spi.c **** 	OLED_ShowString(0,55,"ID",6);
 2796              		.loc 1 562 2
 2797 0060 0623     		movs	r3, #6
 2798 0062 2C4A     		ldr	r2, .L103
 2799 0064 3721     		movs	r1, #55
 2800 0066 0020     		movs	r0, #0
 2801 0068 FFF7FEFF 		bl	OLED_ShowString
 563:./Hardware/device/spi.c **** 	OLED_ShowString(12,55,":",6);
 2802              		.loc 1 563 2
 2803 006c 0623     		movs	r3, #6
 2804 006e 2A4A     		ldr	r2, .L103+4
 2805 0070 3721     		movs	r1, #55
 2806 0072 0C20     		movs	r0, #12
 2807 0074 FFF7FEFF 		bl	OLED_ShowString
 564:./Hardware/device/spi.c **** 
 565:./Hardware/device/spi.c **** 	OLED_ShowNum(17,55,buf[0],2,6);
 2808              		.loc 1 565 24
 2809 0078 3B78     		ldrb	r3, [r7]	@ zero_extendqisi2
 2810              		.loc 1 565 2
 2811 007a 1A46     		mov	r2, r3
 2812 007c 0623     		movs	r3, #6
 2813 007e 0093     		str	r3, [sp]
 2814 0080 0223     		movs	r3, #2
 2815 0082 3721     		movs	r1, #55
 2816 0084 1120     		movs	r0, #17
 2817 0086 FFF7FEFF 		bl	OLED_ShowNum
 566:./Hardware/device/spi.c **** 	OLED_ShowNum(31,55,buf[1],2,6);
 2818              		.loc 1 566 24
 2819 008a 7B78     		ldrb	r3, [r7, #1]	@ zero_extendqisi2
 2820              		.loc 1 566 2
 2821 008c 1A46     		mov	r2, r3
 2822 008e 0623     		movs	r3, #6
 2823 0090 0093     		str	r3, [sp]
 2824 0092 0223     		movs	r3, #2
 2825 0094 3721     		movs	r1, #55
 2826 0096 1F20     		movs	r0, #31
 2827 0098 FFF7FEFF 		bl	OLED_ShowNum
 567:./Hardware/device/spi.c **** 	OLED_ShowNum(45,55,buf[2],2,6);
ARM GAS  C:\Users\86134\AppData\Local\Temp\cckH4Mn9.s 			page 60


 2828              		.loc 1 567 24
 2829 009c BB78     		ldrb	r3, [r7, #2]	@ zero_extendqisi2
 2830              		.loc 1 567 2
 2831 009e 1A46     		mov	r2, r3
 2832 00a0 0623     		movs	r3, #6
 2833 00a2 0093     		str	r3, [sp]
 2834 00a4 0223     		movs	r3, #2
 2835 00a6 3721     		movs	r1, #55
 2836 00a8 2D20     		movs	r0, #45
 2837 00aa FFF7FEFF 		bl	OLED_ShowNum
 568:./Hardware/device/spi.c **** 	OLED_ShowNum(60,55,buf[3],2,6);
 2838              		.loc 1 568 24
 2839 00ae FB78     		ldrb	r3, [r7, #3]	@ zero_extendqisi2
 2840              		.loc 1 568 2
 2841 00b0 1A46     		mov	r2, r3
 2842 00b2 0623     		movs	r3, #6
 2843 00b4 0093     		str	r3, [sp]
 2844 00b6 0223     		movs	r3, #2
 2845 00b8 3721     		movs	r1, #55
 2846 00ba 3C20     		movs	r0, #60
 2847 00bc FFF7FEFF 		bl	OLED_ShowNum
 569:./Hardware/device/spi.c **** 	OLED_ShowNum(74,55,buf[4],2,6);
 2848              		.loc 1 569 24
 2849 00c0 3B79     		ldrb	r3, [r7, #4]	@ zero_extendqisi2
 2850              		.loc 1 569 2
 2851 00c2 1A46     		mov	r2, r3
 2852 00c4 0623     		movs	r3, #6
 2853 00c6 0093     		str	r3, [sp]
 2854 00c8 0223     		movs	r3, #2
 2855 00ca 3721     		movs	r1, #55
 2856 00cc 4A20     		movs	r0, #74
 2857 00ce FFF7FEFF 		bl	OLED_ShowNum
 570:./Hardware/device/spi.c **** 	OLED_ShowNum(88,55,buf[5],2,6);
 2858              		.loc 1 570 24
 2859 00d2 7B79     		ldrb	r3, [r7, #5]	@ zero_extendqisi2
 2860              		.loc 1 570 2
 2861 00d4 1A46     		mov	r2, r3
 2862 00d6 0623     		movs	r3, #6
 2863 00d8 0093     		str	r3, [sp]
 2864 00da 0223     		movs	r3, #2
 2865 00dc 3721     		movs	r1, #55
 2866 00de 5820     		movs	r0, #88
 2867 00e0 FFF7FEFF 		bl	OLED_ShowNum
 571:./Hardware/device/spi.c **** 	OLED_ShowNum(102,55,buf[6],2,6);
 2868              		.loc 1 571 25
 2869 00e4 BB79     		ldrb	r3, [r7, #6]	@ zero_extendqisi2
 2870              		.loc 1 571 2
 2871 00e6 1A46     		mov	r2, r3
 2872 00e8 0623     		movs	r3, #6
 2873 00ea 0093     		str	r3, [sp]
 2874 00ec 0223     		movs	r3, #2
 2875 00ee 3721     		movs	r1, #55
 2876 00f0 6620     		movs	r0, #102
 2877 00f2 FFF7FEFF 		bl	OLED_ShowNum
 572:./Hardware/device/spi.c **** 	OLED_ShowNum(116,55,buf[7],2,6);
 2878              		.loc 1 572 25
 2879 00f6 FB79     		ldrb	r3, [r7, #7]	@ zero_extendqisi2
ARM GAS  C:\Users\86134\AppData\Local\Temp\cckH4Mn9.s 			page 61


 2880              		.loc 1 572 2
 2881 00f8 1A46     		mov	r2, r3
 2882 00fa 0623     		movs	r3, #6
 2883 00fc 0093     		str	r3, [sp]
 2884 00fe 0223     		movs	r3, #2
 2885 0100 3721     		movs	r1, #55
 2886 0102 7420     		movs	r0, #116
 2887 0104 FFF7FEFF 		bl	OLED_ShowNum
 573:./Hardware/device/spi.c **** 
 574:./Hardware/device/spi.c **** 	return SPI_OK;
 2888              		.loc 1 574 9
 2889 0108 0023     		movs	r3, #0
 575:./Hardware/device/spi.c **** 	
 576:./Hardware/device/spi.c **** }
 2890              		.loc 1 576 1
 2891 010a 1846     		mov	r0, r3
 2892 010c 0837     		adds	r7, r7, #8
 2893              	.LCFI121:
 2894              		.cfi_def_cfa_offset 8
 2895 010e BD46     		mov	sp, r7
 2896              	.LCFI122:
 2897              		.cfi_def_cfa_register 13
 2898              		@ sp needed
 2899 0110 80BD     		pop	{r7, pc}
 2900              	.L104:
 2901 0112 00BF     		.align	2
 2902              	.L103:
 2903 0114 00000000 		.word	.LC0
 2904 0118 04000000 		.word	.LC1
 2905              		.cfi_endproc
 2906              	.LFE55:
 2908              		.section	.text.SD8902_ReadTimeDate_show,"ax",%progbits
 2909              		.align	1
 2910              		.global	SD8902_ReadTimeDate_show
 2911              		.syntax unified
 2912              		.thumb
 2913              		.thumb_func
 2914              		.fpu softvfp
 2916              	SD8902_ReadTimeDate_show:
 2917              	.LFB56:
 577:./Hardware/device/spi.c **** 
 578:./Hardware/device/spi.c **** spi_exit_code SD8902_ReadTimeDate_show(void)
 579:./Hardware/device/spi.c **** {
 2918              		.loc 1 579 1
 2919              		.cfi_startproc
 2920              		@ args = 0, pretend = 0, frame = 8
 2921              		@ frame_needed = 1, uses_anonymous_args = 0
 2922 0000 80B5     		push	{r7, lr}
 2923              	.LCFI123:
 2924              		.cfi_def_cfa_offset 8
 2925              		.cfi_offset 7, -8
 2926              		.cfi_offset 14, -4
 2927 0002 82B0     		sub	sp, sp, #8
 2928              	.LCFI124:
 2929              		.cfi_def_cfa_offset 16
 2930 0004 00AF     		add	r7, sp, #0
 2931              	.LCFI125:
ARM GAS  C:\Users\86134\AppData\Local\Temp\cckH4Mn9.s 			page 62


 2932              		.cfi_def_cfa_register 7
 580:./Hardware/device/spi.c **** 	uint8_t sd8902_buff[7];
 581:./Hardware/device/spi.c **** 	
 582:./Hardware/device/spi.c **** 	sd8902_buff[6] = sd8902_read_data(sd8902_READ_YEAR);  //读取年
 2933              		.loc 1 582 19
 2934 0006 8D20     		movs	r0, #141
 2935 0008 FFF7FEFF 		bl	sd8902_read_data
 2936 000c 0346     		mov	r3, r0
 2937              		.loc 1 582 17
 2938 000e BB71     		strb	r3, [r7, #6]
 583:./Hardware/device/spi.c **** 	sd8902_buff[5] = sd8902_read_data(sd8902_READ_MONTH); //读取月
 2939              		.loc 1 583 19
 2940 0010 8920     		movs	r0, #137
 2941 0012 FFF7FEFF 		bl	sd8902_read_data
 2942 0016 0346     		mov	r3, r0
 2943              		.loc 1 583 17
 2944 0018 7B71     		strb	r3, [r7, #5]
 584:./Hardware/device/spi.c **** 	sd8902_buff[4] = sd8902_read_data(sd8902_READ_DAY);   //读取日
 2945              		.loc 1 584 19
 2946 001a 8720     		movs	r0, #135
 2947 001c FFF7FEFF 		bl	sd8902_read_data
 2948 0020 0346     		mov	r3, r0
 2949              		.loc 1 584 17
 2950 0022 3B71     		strb	r3, [r7, #4]
 585:./Hardware/device/spi.c **** 	sd8902_buff[3] = sd8902_read_data(sd8902_READ_WEEK);  //读取周
 2951              		.loc 1 585 19
 2952 0024 8B20     		movs	r0, #139
 2953 0026 FFF7FEFF 		bl	sd8902_read_data
 2954 002a 0346     		mov	r3, r0
 2955              		.loc 1 585 17
 2956 002c FB70     		strb	r3, [r7, #3]
 586:./Hardware/device/spi.c **** 	sd8902_buff[2] = sd8902_read_data(sd8902_READ_HOUR);  //读取时
 2957              		.loc 1 586 19
 2958 002e 8520     		movs	r0, #133
 2959 0030 FFF7FEFF 		bl	sd8902_read_data
 2960 0034 0346     		mov	r3, r0
 2961              		.loc 1 586 17
 2962 0036 BB70     		strb	r3, [r7, #2]
 587:./Hardware/device/spi.c **** 	sd8902_buff[1] = sd8902_read_data(sd8902_READ_MINUTE);//读取分
 2963              		.loc 1 587 19
 2964 0038 8320     		movs	r0, #131
 2965 003a FFF7FEFF 		bl	sd8902_read_data
 2966 003e 0346     		mov	r3, r0
 2967              		.loc 1 587 17
 2968 0040 7B70     		strb	r3, [r7, #1]
 588:./Hardware/device/spi.c **** 	sd8902_buff[0] = sd8902_read_data(sd8902_READ_SECOND);//读取秒
 2969              		.loc 1 588 19
 2970 0042 8120     		movs	r0, #129
 2971 0044 FFF7FEFF 		bl	sd8902_read_data
 2972 0048 0346     		mov	r3, r0
 2973              		.loc 1 588 17
 2974 004a 3B70     		strb	r3, [r7]
 589:./Hardware/device/spi.c **** 
 590:./Hardware/device/spi.c **** 	bcd_to_decimal(sd8902_buff,7);	//BCD码转成十进制
 2975              		.loc 1 590 2
 2976 004c 3B46     		mov	r3, r7
 2977 004e 0721     		movs	r1, #7
ARM GAS  C:\Users\86134\AppData\Local\Temp\cckH4Mn9.s 			page 63


 2978 0050 1846     		mov	r0, r3
 2979 0052 FFF7FEFF 		bl	bcd_to_decimal
 591:./Hardware/device/spi.c **** 
 592:./Hardware/device/spi.c **** 	sd8902_readtime_show(sd8902_buff);
 2980              		.loc 1 592 2
 2981 0056 3B46     		mov	r3, r7
 2982 0058 1846     		mov	r0, r3
 2983 005a FFF7FEFF 		bl	sd8902_readtime_show
 593:./Hardware/device/spi.c **** 	
 594:./Hardware/device/spi.c **** 	return SPI_OK;
 2984              		.loc 1 594 9
 2985 005e 0023     		movs	r3, #0
 595:./Hardware/device/spi.c **** 
 596:./Hardware/device/spi.c **** }
 2986              		.loc 1 596 1
 2987 0060 1846     		mov	r0, r3
 2988 0062 0837     		adds	r7, r7, #8
 2989              	.LCFI126:
 2990              		.cfi_def_cfa_offset 8
 2991 0064 BD46     		mov	sp, r7
 2992              	.LCFI127:
 2993              		.cfi_def_cfa_register 13
 2994              		@ sp needed
 2995 0066 80BD     		pop	{r7, pc}
 2996              		.cfi_endproc
 2997              	.LFE56:
 2999              		.section	.text.sd8840_and_std,"ax",%progbits
 3000              		.align	1
 3001              		.global	sd8840_and_std
 3002              		.syntax unified
 3003              		.thumb
 3004              		.thumb_func
 3005              		.fpu softvfp
 3007              	sd8840_and_std:
 3008              	.LFB57:
 597:./Hardware/device/spi.c **** 
 598:./Hardware/device/spi.c **** 
 599:./Hardware/device/spi.c **** uint8_t sd8840_and_std(void)
 600:./Hardware/device/spi.c **** {
 3009              		.loc 1 600 1
 3010              		.cfi_startproc
 3011              		@ args = 0, pretend = 0, frame = 0
 3012              		@ frame_needed = 1, uses_anonymous_args = 0
 3013 0000 80B5     		push	{r7, lr}
 3014              	.LCFI128:
 3015              		.cfi_def_cfa_offset 8
 3016              		.cfi_offset 7, -8
 3017              		.cfi_offset 14, -4
 3018 0002 00AF     		add	r7, sp, #0
 3019              	.LCFI129:
 3020              		.cfi_def_cfa_register 7
 601:./Hardware/device/spi.c **** 	sd2405showtime();
 3021              		.loc 1 601 2
 3022 0004 FFF7FEFF 		bl	sd2405showtime
 602:./Hardware/device/spi.c **** 	Test_Line();
 3023              		.loc 1 602 2
 3024 0008 FFF7FEFF 		bl	Test_Line
ARM GAS  C:\Users\86134\AppData\Local\Temp\cckH4Mn9.s 			page 64


 603:./Hardware/device/spi.c **** 	
 604:./Hardware/device/spi.c **** 	if(SD8840_ReadTimeDate()!=SPI_OK)
 3025              		.loc 1 604 5
 3026 000c FFF7FEFF 		bl	SD8840_ReadTimeDate
 3027 0010 0346     		mov	r3, r0
 3028              		.loc 1 604 4
 3029 0012 002B     		cmp	r3, #0
 3030 0014 03D0     		beq	.L108
 605:./Hardware/device/spi.c **** 	{
 606:./Hardware/device/spi.c **** 		NO_ACK_Test_Line();
 3031              		.loc 1 606 3
 3032 0016 FFF7FEFF 		bl	NO_ACK_Test_Line
 607:./Hardware/device/spi.c **** 	}else{
 608:./Hardware/device/spi.c **** 		SD8840_ReadTimeDate();
 609:./Hardware/device/spi.c **** 		return SPI_OK;
 610:./Hardware/device/spi.c **** 	}
 611:./Hardware/device/spi.c **** 	
 612:./Hardware/device/spi.c **** 	return TRUE;
 3033              		.loc 1 612 9
 3034 001a 0123     		movs	r3, #1
 3035 001c 02E0     		b	.L110
 3036              	.L108:
 608:./Hardware/device/spi.c **** 		return SPI_OK;
 3037              		.loc 1 608 3
 3038 001e FFF7FEFF 		bl	SD8840_ReadTimeDate
 609:./Hardware/device/spi.c **** 	}
 3039              		.loc 1 609 10
 3040 0022 0023     		movs	r3, #0
 3041              	.L110:
 613:./Hardware/device/spi.c **** }
 3042              		.loc 1 613 1
 3043 0024 1846     		mov	r0, r3
 3044 0026 80BD     		pop	{r7, pc}
 3045              		.cfi_endproc
 3046              	.LFE57:
 3048              		.section	.rodata
 3049 0006 0000     		.align	2
 3050              	.LC2:
 3051 0008 54455354 		.ascii	"TEST IC\000"
 3051      20494300 
 3052              		.align	2
 3053              	.LC3:
 3054 0010 54656D70 		.ascii	"Temp:\000"
 3054      3A00
 3055              		.section	.text.sd8840_time_show,"ax",%progbits
 3056              		.align	1
 3057              		.global	sd8840_time_show
 3058              		.syntax unified
 3059              		.thumb
 3060              		.thumb_func
 3061              		.fpu softvfp
 3063              	sd8840_time_show:
 3064              	.LFB58:
 614:./Hardware/device/spi.c **** 
 615:./Hardware/device/spi.c **** uint8_t sd8840_time_show(void)
 616:./Hardware/device/spi.c **** {
 3065              		.loc 1 616 1
ARM GAS  C:\Users\86134\AppData\Local\Temp\cckH4Mn9.s 			page 65


 3066              		.cfi_startproc
 3067              		@ args = 0, pretend = 0, frame = 0
 3068              		@ frame_needed = 1, uses_anonymous_args = 0
 3069 0000 80B5     		push	{r7, lr}
 3070              	.LCFI130:
 3071              		.cfi_def_cfa_offset 8
 3072              		.cfi_offset 7, -8
 3073              		.cfi_offset 14, -4
 3074 0002 82B0     		sub	sp, sp, #8
 3075              	.LCFI131:
 3076              		.cfi_def_cfa_offset 16
 3077 0004 02AF     		add	r7, sp, #8
 3078              	.LCFI132:
 3079              		.cfi_def_cfa 7, 8
 617:./Hardware/device/spi.c **** 	if(SD8840_ReadTimeDate_show()!=SPI_OK)
 3080              		.loc 1 617 5
 3081 0006 FFF7FEFF 		bl	SD8840_ReadTimeDate_show
 3082 000a 0346     		mov	r3, r0
 3083              		.loc 1 617 4
 3084 000c 002B     		cmp	r3, #0
 3085 000e 6DD0     		beq	.L112
 618:./Hardware/device/spi.c **** 	{
 619:./Hardware/device/spi.c **** 		OLED_ShowChar(30,15,'-',8);//相隔显示的数据X轴间隔7个坐标，相隔显示的数据Y轴间隔15个坐标
 3086              		.loc 1 619 3
 3087 0010 0823     		movs	r3, #8
 3088 0012 2D22     		movs	r2, #45
 3089 0014 0F21     		movs	r1, #15
 3090 0016 1E20     		movs	r0, #30
 3091 0018 FFF7FEFF 		bl	OLED_ShowChar
 620:./Hardware/device/spi.c **** 		OLED_ShowChar(37,15,'-',8);
 3092              		.loc 1 620 3
 3093 001c 0823     		movs	r3, #8
 3094 001e 2D22     		movs	r2, #45
 3095 0020 0F21     		movs	r1, #15
 3096 0022 2520     		movs	r0, #37
 3097 0024 FFF7FEFF 		bl	OLED_ShowChar
 621:./Hardware/device/spi.c **** 		OLED_ShowChar(44,15,'-',8);
 3098              		.loc 1 621 3
 3099 0028 0823     		movs	r3, #8
 3100 002a 2D22     		movs	r2, #45
 3101 002c 0F21     		movs	r1, #15
 3102 002e 2C20     		movs	r0, #44
 3103 0030 FFF7FEFF 		bl	OLED_ShowChar
 622:./Hardware/device/spi.c **** 		OLED_ShowChar(51,15,'-',8);
 3104              		.loc 1 622 3
 3105 0034 0823     		movs	r3, #8
 3106 0036 2D22     		movs	r2, #45
 3107 0038 0F21     		movs	r1, #15
 3108 003a 3320     		movs	r0, #51
 3109 003c FFF7FEFF 		bl	OLED_ShowChar
 623:./Hardware/device/spi.c **** 		OLED_ShowChar(58,15,'-',8);
 3110              		.loc 1 623 3
 3111 0040 0823     		movs	r3, #8
 3112 0042 2D22     		movs	r2, #45
 3113 0044 0F21     		movs	r1, #15
 3114 0046 3A20     		movs	r0, #58
 3115 0048 FFF7FEFF 		bl	OLED_ShowChar
ARM GAS  C:\Users\86134\AppData\Local\Temp\cckH4Mn9.s 			page 66


 624:./Hardware/device/spi.c **** 		OLED_ShowChar(65,15,'-',8);
 3116              		.loc 1 624 3
 3117 004c 0823     		movs	r3, #8
 3118 004e 2D22     		movs	r2, #45
 3119 0050 0F21     		movs	r1, #15
 3120 0052 4120     		movs	r0, #65
 3121 0054 FFF7FEFF 		bl	OLED_ShowChar
 625:./Hardware/device/spi.c **** 		OLED_ShowChar(72,15,'-',8);
 3122              		.loc 1 625 3
 3123 0058 0823     		movs	r3, #8
 3124 005a 2D22     		movs	r2, #45
 3125 005c 0F21     		movs	r1, #15
 3126 005e 4820     		movs	r0, #72
 3127 0060 FFF7FEFF 		bl	OLED_ShowChar
 626:./Hardware/device/spi.c **** 		OLED_ShowChar(79,15,'-',8);
 3128              		.loc 1 626 3
 3129 0064 0823     		movs	r3, #8
 3130 0066 2D22     		movs	r2, #45
 3131 0068 0F21     		movs	r1, #15
 3132 006a 4F20     		movs	r0, #79
 3133 006c FFF7FEFF 		bl	OLED_ShowChar
 627:./Hardware/device/spi.c **** 		OLED_ShowChar(90,15,'W',8);
 3134              		.loc 1 627 3
 3135 0070 0823     		movs	r3, #8
 3136 0072 5722     		movs	r2, #87
 3137 0074 0F21     		movs	r1, #15
 3138 0076 5A20     		movs	r0, #90
 3139 0078 FFF7FEFF 		bl	OLED_ShowChar
 628:./Hardware/device/spi.c **** 		OLED_ShowChar(99,15,'-',8);
 3140              		.loc 1 628 3
 3141 007c 0823     		movs	r3, #8
 3142 007e 2D22     		movs	r2, #45
 3143 0080 0F21     		movs	r1, #15
 3144 0082 6320     		movs	r0, #99
 3145 0084 FFF7FEFF 		bl	OLED_ShowChar
 629:./Hardware/device/spi.c **** 		
 630:./Hardware/device/spi.c **** 		OLED_ShowChar(35,30,'-',8);
 3146              		.loc 1 630 3
 3147 0088 0823     		movs	r3, #8
 3148 008a 2D22     		movs	r2, #45
 3149 008c 1E21     		movs	r1, #30
 3150 008e 2320     		movs	r0, #35
 3151 0090 FFF7FEFF 		bl	OLED_ShowChar
 631:./Hardware/device/spi.c **** 		OLED_ShowChar(42,30,'-',8);
 3152              		.loc 1 631 3
 3153 0094 0823     		movs	r3, #8
 3154 0096 2D22     		movs	r2, #45
 3155 0098 1E21     		movs	r1, #30
 3156 009a 2A20     		movs	r0, #42
 3157 009c FFF7FEFF 		bl	OLED_ShowChar
 632:./Hardware/device/spi.c **** 		OLED_ShowChar(49,30,':',8);
 3158              		.loc 1 632 3
 3159 00a0 0823     		movs	r3, #8
 3160 00a2 3A22     		movs	r2, #58
 3161 00a4 1E21     		movs	r1, #30
 3162 00a6 3120     		movs	r0, #49
 3163 00a8 FFF7FEFF 		bl	OLED_ShowChar
ARM GAS  C:\Users\86134\AppData\Local\Temp\cckH4Mn9.s 			page 67


 633:./Hardware/device/spi.c **** 		OLED_ShowChar(56,30,'-',8);
 3164              		.loc 1 633 3
 3165 00ac 0823     		movs	r3, #8
 3166 00ae 2D22     		movs	r2, #45
 3167 00b0 1E21     		movs	r1, #30
 3168 00b2 3820     		movs	r0, #56
 3169 00b4 FFF7FEFF 		bl	OLED_ShowChar
 634:./Hardware/device/spi.c **** 		OLED_ShowChar(63,30,'-',8);
 3170              		.loc 1 634 3
 3171 00b8 0823     		movs	r3, #8
 3172 00ba 2D22     		movs	r2, #45
 3173 00bc 1E21     		movs	r1, #30
 3174 00be 3F20     		movs	r0, #63
 3175 00c0 FFF7FEFF 		bl	OLED_ShowChar
 635:./Hardware/device/spi.c **** 		OLED_ShowChar(70,30,':',8);
 3176              		.loc 1 635 3
 3177 00c4 0823     		movs	r3, #8
 3178 00c6 3A22     		movs	r2, #58
 3179 00c8 1E21     		movs	r1, #30
 3180 00ca 4620     		movs	r0, #70
 3181 00cc FFF7FEFF 		bl	OLED_ShowChar
 636:./Hardware/device/spi.c **** 		OLED_ShowChar(77,30,'-',8);
 3182              		.loc 1 636 3
 3183 00d0 0823     		movs	r3, #8
 3184 00d2 2D22     		movs	r2, #45
 3185 00d4 1E21     		movs	r1, #30
 3186 00d6 4D20     		movs	r0, #77
 3187 00d8 FFF7FEFF 		bl	OLED_ShowChar
 637:./Hardware/device/spi.c **** 		OLED_ShowChar(84,30,'-',8);
 3188              		.loc 1 637 3
 3189 00dc 0823     		movs	r3, #8
 3190 00de 2D22     		movs	r2, #45
 3191 00e0 1E21     		movs	r1, #30
 3192 00e2 5420     		movs	r0, #84
 3193 00e4 FFF7FEFF 		bl	OLED_ShowChar
 638:./Hardware/device/spi.c **** 		
 639:./Hardware/device/spi.c **** 	}else{
 640:./Hardware/device/spi.c **** 		
 641:./Hardware/device/spi.c **** 		SD8840_ReadTimeDate_show();
 642:./Hardware/device/spi.c **** 		
 643:./Hardware/device/spi.c **** 		OLED_ShowChar(0,0,'-',8);
 644:./Hardware/device/spi.c **** 		OLED_ShowChar(5,0,'-',8);
 645:./Hardware/device/spi.c **** 		OLED_ShowChar(10,0,'-',8);
 646:./Hardware/device/spi.c **** 		OLED_ShowChar(15,0,'-',8);
 647:./Hardware/device/spi.c **** 		OLED_ShowChar(20,0,'-',8);
 648:./Hardware/device/spi.c **** 		OLED_ShowChar(25,0,'-',8);
 649:./Hardware/device/spi.c **** 		OLED_ShowChar(30,0,'-',8);
 650:./Hardware/device/spi.c **** 
 651:./Hardware/device/spi.c **** 		OLED_ShowString(40,0,"TEST IC",8);
 652:./Hardware/device/spi.c **** 		
 653:./Hardware/device/spi.c **** 		OLED_ShowChar(95,0,'-',8);
 654:./Hardware/device/spi.c **** 		OLED_ShowChar(100,0,'-',8);
 655:./Hardware/device/spi.c **** 		OLED_ShowChar(105,0,'-',8);
 656:./Hardware/device/spi.c **** 		OLED_ShowChar(110,0,'-',8);
 657:./Hardware/device/spi.c **** 		OLED_ShowChar(115,0,'-',8);
 658:./Hardware/device/spi.c **** 		OLED_ShowChar(120,0,'-',8);
 659:./Hardware/device/spi.c **** 		OLED_ShowChar(125,0,'-',8);
ARM GAS  C:\Users\86134\AppData\Local\Temp\cckH4Mn9.s 			page 68


 660:./Hardware/device/spi.c **** 		
 661:./Hardware/device/spi.c **** 		sd8840_ReadTemp();
 662:./Hardware/device/spi.c **** 		
 663:./Hardware/device/spi.c **** 		OLED_ShowNum(36,50,sd8840_temp,2,6);
 664:./Hardware/device/spi.c **** 		OLED_ShowChar(49,50,'C',6);
 665:./Hardware/device/spi.c **** 		OLED_DrawPoint(49,48);
 666:./Hardware/device/spi.c **** 
 667:./Hardware/device/spi.c **** 		OLED_ShowString(0,50,"Temp:",6);
 668:./Hardware/device/spi.c **** 		
 669:./Hardware/device/spi.c **** 		
 670:./Hardware/device/spi.c **** 		return SPI_OK;
 671:./Hardware/device/spi.c **** 	}
 672:./Hardware/device/spi.c **** 	
 673:./Hardware/device/spi.c **** 	return TRUE;
 3194              		.loc 1 673 9
 3195 00e8 0123     		movs	r3, #1
 3196 00ea 78E0     		b	.L114
 3197              	.L112:
 641:./Hardware/device/spi.c **** 		
 3198              		.loc 1 641 3
 3199 00ec FFF7FEFF 		bl	SD8840_ReadTimeDate_show
 643:./Hardware/device/spi.c **** 		OLED_ShowChar(5,0,'-',8);
 3200              		.loc 1 643 3
 3201 00f0 0823     		movs	r3, #8
 3202 00f2 2D22     		movs	r2, #45
 3203 00f4 0021     		movs	r1, #0
 3204 00f6 0020     		movs	r0, #0
 3205 00f8 FFF7FEFF 		bl	OLED_ShowChar
 644:./Hardware/device/spi.c **** 		OLED_ShowChar(10,0,'-',8);
 3206              		.loc 1 644 3
 3207 00fc 0823     		movs	r3, #8
 3208 00fe 2D22     		movs	r2, #45
 3209 0100 0021     		movs	r1, #0
 3210 0102 0520     		movs	r0, #5
 3211 0104 FFF7FEFF 		bl	OLED_ShowChar
 645:./Hardware/device/spi.c **** 		OLED_ShowChar(15,0,'-',8);
 3212              		.loc 1 645 3
 3213 0108 0823     		movs	r3, #8
 3214 010a 2D22     		movs	r2, #45
 3215 010c 0021     		movs	r1, #0
 3216 010e 0A20     		movs	r0, #10
 3217 0110 FFF7FEFF 		bl	OLED_ShowChar
 646:./Hardware/device/spi.c **** 		OLED_ShowChar(20,0,'-',8);
 3218              		.loc 1 646 3
 3219 0114 0823     		movs	r3, #8
 3220 0116 2D22     		movs	r2, #45
 3221 0118 0021     		movs	r1, #0
 3222 011a 0F20     		movs	r0, #15
 3223 011c FFF7FEFF 		bl	OLED_ShowChar
 647:./Hardware/device/spi.c **** 		OLED_ShowChar(25,0,'-',8);
 3224              		.loc 1 647 3
 3225 0120 0823     		movs	r3, #8
 3226 0122 2D22     		movs	r2, #45
 3227 0124 0021     		movs	r1, #0
 3228 0126 1420     		movs	r0, #20
 3229 0128 FFF7FEFF 		bl	OLED_ShowChar
 648:./Hardware/device/spi.c **** 		OLED_ShowChar(30,0,'-',8);
ARM GAS  C:\Users\86134\AppData\Local\Temp\cckH4Mn9.s 			page 69


 3230              		.loc 1 648 3
 3231 012c 0823     		movs	r3, #8
 3232 012e 2D22     		movs	r2, #45
 3233 0130 0021     		movs	r1, #0
 3234 0132 1920     		movs	r0, #25
 3235 0134 FFF7FEFF 		bl	OLED_ShowChar
 649:./Hardware/device/spi.c **** 
 3236              		.loc 1 649 3
 3237 0138 0823     		movs	r3, #8
 3238 013a 2D22     		movs	r2, #45
 3239 013c 0021     		movs	r1, #0
 3240 013e 1E20     		movs	r0, #30
 3241 0140 FFF7FEFF 		bl	OLED_ShowChar
 651:./Hardware/device/spi.c **** 		
 3242              		.loc 1 651 3
 3243 0144 0823     		movs	r3, #8
 3244 0146 274A     		ldr	r2, .L115
 3245 0148 0021     		movs	r1, #0
 3246 014a 2820     		movs	r0, #40
 3247 014c FFF7FEFF 		bl	OLED_ShowString
 653:./Hardware/device/spi.c **** 		OLED_ShowChar(100,0,'-',8);
 3248              		.loc 1 653 3
 3249 0150 0823     		movs	r3, #8
 3250 0152 2D22     		movs	r2, #45
 3251 0154 0021     		movs	r1, #0
 3252 0156 5F20     		movs	r0, #95
 3253 0158 FFF7FEFF 		bl	OLED_ShowChar
 654:./Hardware/device/spi.c **** 		OLED_ShowChar(105,0,'-',8);
 3254              		.loc 1 654 3
 3255 015c 0823     		movs	r3, #8
 3256 015e 2D22     		movs	r2, #45
 3257 0160 0021     		movs	r1, #0
 3258 0162 6420     		movs	r0, #100
 3259 0164 FFF7FEFF 		bl	OLED_ShowChar
 655:./Hardware/device/spi.c **** 		OLED_ShowChar(110,0,'-',8);
 3260              		.loc 1 655 3
 3261 0168 0823     		movs	r3, #8
 3262 016a 2D22     		movs	r2, #45
 3263 016c 0021     		movs	r1, #0
 3264 016e 6920     		movs	r0, #105
 3265 0170 FFF7FEFF 		bl	OLED_ShowChar
 656:./Hardware/device/spi.c **** 		OLED_ShowChar(115,0,'-',8);
 3266              		.loc 1 656 3
 3267 0174 0823     		movs	r3, #8
 3268 0176 2D22     		movs	r2, #45
 3269 0178 0021     		movs	r1, #0
 3270 017a 6E20     		movs	r0, #110
 3271 017c FFF7FEFF 		bl	OLED_ShowChar
 657:./Hardware/device/spi.c **** 		OLED_ShowChar(120,0,'-',8);
 3272              		.loc 1 657 3
 3273 0180 0823     		movs	r3, #8
 3274 0182 2D22     		movs	r2, #45
 3275 0184 0021     		movs	r1, #0
 3276 0186 7320     		movs	r0, #115
 3277 0188 FFF7FEFF 		bl	OLED_ShowChar
 658:./Hardware/device/spi.c **** 		OLED_ShowChar(125,0,'-',8);
 3278              		.loc 1 658 3
ARM GAS  C:\Users\86134\AppData\Local\Temp\cckH4Mn9.s 			page 70


 3279 018c 0823     		movs	r3, #8
 3280 018e 2D22     		movs	r2, #45
 3281 0190 0021     		movs	r1, #0
 3282 0192 7820     		movs	r0, #120
 3283 0194 FFF7FEFF 		bl	OLED_ShowChar
 659:./Hardware/device/spi.c **** 		
 3284              		.loc 1 659 3
 3285 0198 0823     		movs	r3, #8
 3286 019a 2D22     		movs	r2, #45
 3287 019c 0021     		movs	r1, #0
 3288 019e 7D20     		movs	r0, #125
 3289 01a0 FFF7FEFF 		bl	OLED_ShowChar
 661:./Hardware/device/spi.c **** 		
 3290              		.loc 1 661 3
 3291 01a4 FFF7FEFF 		bl	sd8840_ReadTemp
 663:./Hardware/device/spi.c **** 		OLED_ShowChar(49,50,'C',6);
 3292              		.loc 1 663 3
 3293 01a8 0F4B     		ldr	r3, .L115+4
 3294 01aa 1B78     		ldrb	r3, [r3]	@ zero_extendqisi2
 3295 01ac 1A46     		mov	r2, r3
 3296 01ae 0623     		movs	r3, #6
 3297 01b0 0093     		str	r3, [sp]
 3298 01b2 0223     		movs	r3, #2
 3299 01b4 3221     		movs	r1, #50
 3300 01b6 2420     		movs	r0, #36
 3301 01b8 FFF7FEFF 		bl	OLED_ShowNum
 664:./Hardware/device/spi.c **** 		OLED_DrawPoint(49,48);
 3302              		.loc 1 664 3
 3303 01bc 0623     		movs	r3, #6
 3304 01be 4322     		movs	r2, #67
 3305 01c0 3221     		movs	r1, #50
 3306 01c2 3120     		movs	r0, #49
 3307 01c4 FFF7FEFF 		bl	OLED_ShowChar
 665:./Hardware/device/spi.c **** 
 3308              		.loc 1 665 3
 3309 01c8 3021     		movs	r1, #48
 3310 01ca 3120     		movs	r0, #49
 3311 01cc FFF7FEFF 		bl	OLED_DrawPoint
 667:./Hardware/device/spi.c **** 		
 3312              		.loc 1 667 3
 3313 01d0 0623     		movs	r3, #6
 3314 01d2 064A     		ldr	r2, .L115+8
 3315 01d4 3221     		movs	r1, #50
 3316 01d6 0020     		movs	r0, #0
 3317 01d8 FFF7FEFF 		bl	OLED_ShowString
 670:./Hardware/device/spi.c **** 	}
 3318              		.loc 1 670 10
 3319 01dc 0023     		movs	r3, #0
 3320              	.L114:
 674:./Hardware/device/spi.c **** }
 3321              		.loc 1 674 1
 3322 01de 1846     		mov	r0, r3
 3323 01e0 BD46     		mov	sp, r7
 3324              	.LCFI133:
 3325              		.cfi_def_cfa_register 13
 3326              		@ sp needed
 3327 01e2 80BD     		pop	{r7, pc}
ARM GAS  C:\Users\86134\AppData\Local\Temp\cckH4Mn9.s 			page 71


 3328              	.L116:
 3329              		.align	2
 3330              	.L115:
 3331 01e4 08000000 		.word	.LC2
 3332 01e8 00000000 		.word	sd8840_temp
 3333 01ec 10000000 		.word	.LC3
 3334              		.cfi_endproc
 3335              	.LFE58:
 3337              		.section	.rodata
 3338 0016 0000     		.align	2
 3339              	.LC4:
 3340 0018 74696D65 		.ascii	"time is error\000"
 3340      20697320 
 3340      6572726F 
 3340      7200
 3341              		.section	.text.sd8840_time_copy,"ax",%progbits
 3342              		.align	1
 3343              		.global	sd8840_time_copy
 3344              		.syntax unified
 3345              		.thumb
 3346              		.thumb_func
 3347              		.fpu softvfp
 3349              	sd8840_time_copy:
 3350              	.LFB59:
 675:./Hardware/device/spi.c **** 
 676:./Hardware/device/spi.c **** uint8_t sd8840_time_copy(void)
 677:./Hardware/device/spi.c **** {
 3351              		.loc 1 677 1
 3352              		.cfi_startproc
 3353              		@ args = 0, pretend = 0, frame = 16
 3354              		@ frame_needed = 1, uses_anonymous_args = 0
 3355 0000 80B5     		push	{r7, lr}
 3356              	.LCFI134:
 3357              		.cfi_def_cfa_offset 8
 3358              		.cfi_offset 7, -8
 3359              		.cfi_offset 14, -4
 3360 0002 84B0     		sub	sp, sp, #16
 3361              	.LCFI135:
 3362              		.cfi_def_cfa_offset 24
 3363 0004 00AF     		add	r7, sp, #0
 3364              	.LCFI136:
 3365              		.cfi_def_cfa_register 7
 678:./Hardware/device/spi.c **** 	uint8_t buf[7];
 679:./Hardware/device/spi.c **** 	rtc_time copy_buf;
 680:./Hardware/device/spi.c **** 	
 681:./Hardware/device/spi.c **** 	if(RTC_ReadTimeDate(&copy_buf,IIC_STD)!=RTC_OK)
 3366              		.loc 1 681 5
 3367 0006 3B46     		mov	r3, r7
 3368 0008 0121     		movs	r1, #1
 3369 000a 1846     		mov	r0, r3
 3370 000c FFF7FEFF 		bl	RTC_ReadTimeDate
 3371 0010 0346     		mov	r3, r0
 3372              		.loc 1 681 4
 3373 0012 062B     		cmp	r3, #6
 3374 0014 04D0     		beq	.L118
 682:./Hardware/device/spi.c **** 	{
 683:./Hardware/device/spi.c **** 		Usart_Printf("time is error");
ARM GAS  C:\Users\86134\AppData\Local\Temp\cckH4Mn9.s 			page 72


 3375              		.loc 1 683 3
 3376 0016 2248     		ldr	r0, .L123
 3377 0018 FFF7FEFF 		bl	Usart_Printf
 684:./Hardware/device/spi.c **** 		return FALSE;
 3378              		.loc 1 684 10
 3379 001c 0023     		movs	r3, #0
 3380 001e 3AE0     		b	.L122
 3381              	.L118:
 685:./Hardware/device/spi.c **** 		
 686:./Hardware/device/spi.c **** 	}
 687:./Hardware/device/spi.c **** 
 688:./Hardware/device/spi.c **** 	buf[0]=dec_to_bcd(copy_buf.second);
 3382              		.loc 1 688 9
 3383 0020 3B78     		ldrb	r3, [r7]	@ zero_extendqisi2
 3384 0022 1846     		mov	r0, r3
 3385 0024 FFF7FEFF 		bl	dec_to_bcd
 3386 0028 0346     		mov	r3, r0
 3387              		.loc 1 688 8
 3388 002a 3B72     		strb	r3, [r7, #8]
 689:./Hardware/device/spi.c **** 	buf[1]=dec_to_bcd(copy_buf.minute);
 3389              		.loc 1 689 9
 3390 002c 7B78     		ldrb	r3, [r7, #1]	@ zero_extendqisi2
 3391 002e 1846     		mov	r0, r3
 3392 0030 FFF7FEFF 		bl	dec_to_bcd
 3393 0034 0346     		mov	r3, r0
 3394              		.loc 1 689 8
 3395 0036 7B72     		strb	r3, [r7, #9]
 690:./Hardware/device/spi.c **** 	buf[2]=dec_to_bcd(copy_buf.hour);
 3396              		.loc 1 690 9
 3397 0038 BB78     		ldrb	r3, [r7, #2]	@ zero_extendqisi2
 3398 003a 1846     		mov	r0, r3
 3399 003c FFF7FEFF 		bl	dec_to_bcd
 3400 0040 0346     		mov	r3, r0
 3401              		.loc 1 690 8
 3402 0042 BB72     		strb	r3, [r7, #10]
 691:./Hardware/device/spi.c **** 	buf[3]=dec_to_bcd(copy_buf.week);
 3403              		.loc 1 691 9
 3404 0044 FB78     		ldrb	r3, [r7, #3]	@ zero_extendqisi2
 3405 0046 1846     		mov	r0, r3
 3406 0048 FFF7FEFF 		bl	dec_to_bcd
 3407 004c 0346     		mov	r3, r0
 3408              		.loc 1 691 8
 3409 004e FB72     		strb	r3, [r7, #11]
 692:./Hardware/device/spi.c **** 	buf[4]=dec_to_bcd(copy_buf.day);
 3410              		.loc 1 692 9
 3411 0050 3B79     		ldrb	r3, [r7, #4]	@ zero_extendqisi2
 3412 0052 1846     		mov	r0, r3
 3413 0054 FFF7FEFF 		bl	dec_to_bcd
 3414 0058 0346     		mov	r3, r0
 3415              		.loc 1 692 8
 3416 005a 3B73     		strb	r3, [r7, #12]
 693:./Hardware/device/spi.c **** 	buf[5]=dec_to_bcd(copy_buf.month);
 3417              		.loc 1 693 9
 3418 005c 7B79     		ldrb	r3, [r7, #5]	@ zero_extendqisi2
 3419 005e 1846     		mov	r0, r3
 3420 0060 FFF7FEFF 		bl	dec_to_bcd
 3421 0064 0346     		mov	r3, r0
ARM GAS  C:\Users\86134\AppData\Local\Temp\cckH4Mn9.s 			page 73


 3422              		.loc 1 693 8
 3423 0066 7B73     		strb	r3, [r7, #13]
 694:./Hardware/device/spi.c **** 	buf[6]=dec_to_bcd(copy_buf.year);
 3424              		.loc 1 694 9
 3425 0068 BB79     		ldrb	r3, [r7, #6]	@ zero_extendqisi2
 3426 006a 1846     		mov	r0, r3
 3427 006c FFF7FEFF 		bl	dec_to_bcd
 3428 0070 0346     		mov	r3, r0
 3429              		.loc 1 694 8
 3430 0072 BB73     		strb	r3, [r7, #14]
 695:./Hardware/device/spi.c **** 
 696:./Hardware/device/spi.c **** 	if(SD8840_WriteTimeDate()!=SPI_OK)
 3431              		.loc 1 696 5
 3432 0074 FFF7FEFF 		bl	SD8840_WriteTimeDate
 3433 0078 0346     		mov	r3, r0
 3434              		.loc 1 696 4
 3435 007a 002B     		cmp	r3, #0
 3436 007c 03D0     		beq	.L120
 697:./Hardware/device/spi.c **** 	{
 698:./Hardware/device/spi.c **** 		NO_ACK_Test_Line();
 3437              		.loc 1 698 3
 3438 007e FFF7FEFF 		bl	NO_ACK_Test_Line
 699:./Hardware/device/spi.c **** 	}else{
 700:./Hardware/device/spi.c **** 		spi_write_multi_bytes(0x00,buf,7);
 701:./Hardware/device/spi.c **** 		return SPI_OK;
 702:./Hardware/device/spi.c **** 	}
 703:./Hardware/device/spi.c **** 
 704:./Hardware/device/spi.c **** 	return TRUE;
 3439              		.loc 1 704 9
 3440 0082 0123     		movs	r3, #1
 3441 0084 07E0     		b	.L122
 3442              	.L120:
 700:./Hardware/device/spi.c **** 		return SPI_OK;
 3443              		.loc 1 700 3
 3444 0086 07F10803 		add	r3, r7, #8
 3445 008a 0722     		movs	r2, #7
 3446 008c 1946     		mov	r1, r3
 3447 008e 0020     		movs	r0, #0
 3448 0090 FFF7FEFF 		bl	spi_write_multi_bytes
 701:./Hardware/device/spi.c **** 	}
 3449              		.loc 1 701 10
 3450 0094 0023     		movs	r3, #0
 3451              	.L122:
 705:./Hardware/device/spi.c **** 	
 706:./Hardware/device/spi.c **** }
 3452              		.loc 1 706 1 discriminator 1
 3453 0096 1846     		mov	r0, r3
 3454 0098 1037     		adds	r7, r7, #16
 3455              	.LCFI137:
 3456              		.cfi_def_cfa_offset 8
 3457 009a BD46     		mov	sp, r7
 3458              	.LCFI138:
 3459              		.cfi_def_cfa_register 13
 3460              		@ sp needed
 3461 009c 80BD     		pop	{r7, pc}
 3462              	.L124:
 3463 009e 00BF     		.align	2
ARM GAS  C:\Users\86134\AppData\Local\Temp\cckH4Mn9.s 			page 74


 3464              	.L123:
 3465 00a0 18000000 		.word	.LC4
 3466              		.cfi_endproc
 3467              	.LFE59:
 3469              		.section	.text.sd8840_f32768,"ax",%progbits
 3470              		.align	1
 3471              		.global	sd8840_f32768
 3472              		.syntax unified
 3473              		.thumb
 3474              		.thumb_func
 3475              		.fpu softvfp
 3477              	sd8840_f32768:
 3478              	.LFB60:
 707:./Hardware/device/spi.c **** 
 708:./Hardware/device/spi.c **** spi_exit_code sd8840_f32768(void)
 709:./Hardware/device/spi.c **** {
 3479              		.loc 1 709 1
 3480              		.cfi_startproc
 3481              		@ args = 0, pretend = 0, frame = 8
 3482              		@ frame_needed = 1, uses_anonymous_args = 0
 3483 0000 80B5     		push	{r7, lr}
 3484              	.LCFI139:
 3485              		.cfi_def_cfa_offset 8
 3486              		.cfi_offset 7, -8
 3487              		.cfi_offset 14, -4
 3488 0002 82B0     		sub	sp, sp, #8
 3489              	.LCFI140:
 3490              		.cfi_def_cfa_offset 16
 3491 0004 00AF     		add	r7, sp, #0
 3492              	.LCFI141:
 3493              		.cfi_def_cfa_register 7
 710:./Hardware/device/spi.c **** 		uint8_t buf=0x0E;
 3494              		.loc 1 710 11
 3495 0006 0E23     		movs	r3, #14
 3496 0008 FB71     		strb	r3, [r7, #7]
 711:./Hardware/device/spi.c **** 
 712:./Hardware/device/spi.c **** 		spi_write_multi_bytes(0x0D,&buf,1);
 3497              		.loc 1 712 3
 3498 000a FB1D     		adds	r3, r7, #7
 3499 000c 0122     		movs	r2, #1
 3500 000e 1946     		mov	r1, r3
 3501 0010 0D20     		movs	r0, #13
 3502 0012 FFF7FEFF 		bl	spi_write_multi_bytes
 713:./Hardware/device/spi.c **** 
 714:./Hardware/device/spi.c **** 		return SPI_OK;
 3503              		.loc 1 714 10
 3504 0016 0023     		movs	r3, #0
 715:./Hardware/device/spi.c **** }
 3505              		.loc 1 715 1
 3506 0018 1846     		mov	r0, r3
 3507 001a 0837     		adds	r7, r7, #8
 3508              	.LCFI142:
 3509              		.cfi_def_cfa_offset 8
 3510 001c BD46     		mov	sp, r7
 3511              	.LCFI143:
 3512              		.cfi_def_cfa_register 13
 3513              		@ sp needed
ARM GAS  C:\Users\86134\AppData\Local\Temp\cckH4Mn9.s 			page 75


 3514 001e 80BD     		pop	{r7, pc}
 3515              		.cfi_endproc
 3516              	.LFE60:
 3518              		.section	.text.sd8840_f32768_off,"ax",%progbits
 3519              		.align	1
 3520              		.global	sd8840_f32768_off
 3521              		.syntax unified
 3522              		.thumb
 3523              		.thumb_func
 3524              		.fpu softvfp
 3526              	sd8840_f32768_off:
 3527              	.LFB61:
 716:./Hardware/device/spi.c **** 
 717:./Hardware/device/spi.c **** spi_exit_code sd8840_f32768_off(void)
 718:./Hardware/device/spi.c **** {
 3528              		.loc 1 718 1
 3529              		.cfi_startproc
 3530              		@ args = 0, pretend = 0, frame = 8
 3531              		@ frame_needed = 1, uses_anonymous_args = 0
 3532 0000 80B5     		push	{r7, lr}
 3533              	.LCFI144:
 3534              		.cfi_def_cfa_offset 8
 3535              		.cfi_offset 7, -8
 3536              		.cfi_offset 14, -4
 3537 0002 82B0     		sub	sp, sp, #8
 3538              	.LCFI145:
 3539              		.cfi_def_cfa_offset 16
 3540 0004 00AF     		add	r7, sp, #0
 3541              	.LCFI146:
 3542              		.cfi_def_cfa_register 7
 719:./Hardware/device/spi.c **** 		uint8_t buf=0x00;
 3543              		.loc 1 719 11
 3544 0006 0023     		movs	r3, #0
 3545 0008 FB71     		strb	r3, [r7, #7]
 720:./Hardware/device/spi.c **** 
 721:./Hardware/device/spi.c **** 		spi_write_multi_bytes(0x0D,&buf,1);
 3546              		.loc 1 721 3
 3547 000a FB1D     		adds	r3, r7, #7
 3548 000c 0122     		movs	r2, #1
 3549 000e 1946     		mov	r1, r3
 3550 0010 0D20     		movs	r0, #13
 3551 0012 FFF7FEFF 		bl	spi_write_multi_bytes
 722:./Hardware/device/spi.c **** 
 723:./Hardware/device/spi.c **** 		return SPI_OK;
 3552              		.loc 1 723 10
 3553 0016 0023     		movs	r3, #0
 724:./Hardware/device/spi.c **** }
 3554              		.loc 1 724 1
 3555 0018 1846     		mov	r0, r3
 3556 001a 0837     		adds	r7, r7, #8
 3557              	.LCFI147:
 3558              		.cfi_def_cfa_offset 8
 3559 001c BD46     		mov	sp, r7
 3560              	.LCFI148:
 3561              		.cfi_def_cfa_register 13
 3562              		@ sp needed
 3563 001e 80BD     		pop	{r7, pc}
ARM GAS  C:\Users\86134\AppData\Local\Temp\cckH4Mn9.s 			page 76


 3564              		.cfi_endproc
 3565              	.LFE61:
 3567              		.section	.text.sd8840_f1024,"ax",%progbits
 3568              		.align	1
 3569              		.global	sd8840_f1024
 3570              		.syntax unified
 3571              		.thumb
 3572              		.thumb_func
 3573              		.fpu softvfp
 3575              	sd8840_f1024:
 3576              	.LFB62:
 725:./Hardware/device/spi.c **** 
 726:./Hardware/device/spi.c **** spi_exit_code sd8840_f1024(void)
 727:./Hardware/device/spi.c **** {
 3577              		.loc 1 727 1
 3578              		.cfi_startproc
 3579              		@ args = 0, pretend = 0, frame = 8
 3580              		@ frame_needed = 1, uses_anonymous_args = 0
 3581 0000 80B5     		push	{r7, lr}
 3582              	.LCFI149:
 3583              		.cfi_def_cfa_offset 8
 3584              		.cfi_offset 7, -8
 3585              		.cfi_offset 14, -4
 3586 0002 82B0     		sub	sp, sp, #8
 3587              	.LCFI150:
 3588              		.cfi_def_cfa_offset 16
 3589 0004 00AF     		add	r7, sp, #0
 3590              	.LCFI151:
 3591              		.cfi_def_cfa_register 7
 728:./Hardware/device/spi.c **** 		uint8_t buf=0x0A;
 3592              		.loc 1 728 11
 3593 0006 0A23     		movs	r3, #10
 3594 0008 FB71     		strb	r3, [r7, #7]
 729:./Hardware/device/spi.c **** 
 730:./Hardware/device/spi.c **** 		spi_write_multi_bytes(0x0D,&buf,1);
 3595              		.loc 1 730 3
 3596 000a FB1D     		adds	r3, r7, #7
 3597 000c 0122     		movs	r2, #1
 3598 000e 1946     		mov	r1, r3
 3599 0010 0D20     		movs	r0, #13
 3600 0012 FFF7FEFF 		bl	spi_write_multi_bytes
 731:./Hardware/device/spi.c **** 
 732:./Hardware/device/spi.c **** 		return SPI_OK;
 3601              		.loc 1 732 10
 3602 0016 0023     		movs	r3, #0
 733:./Hardware/device/spi.c **** }
 3603              		.loc 1 733 1
 3604 0018 1846     		mov	r0, r3
 3605 001a 0837     		adds	r7, r7, #8
 3606              	.LCFI152:
 3607              		.cfi_def_cfa_offset 8
 3608 001c BD46     		mov	sp, r7
 3609              	.LCFI153:
 3610              		.cfi_def_cfa_register 13
 3611              		@ sp needed
 3612 001e 80BD     		pop	{r7, pc}
 3613              		.cfi_endproc
ARM GAS  C:\Users\86134\AppData\Local\Temp\cckH4Mn9.s 			page 77


 3614              	.LFE62:
 3616              		.section	.text.sd8840_f1024_off,"ax",%progbits
 3617              		.align	1
 3618              		.global	sd8840_f1024_off
 3619              		.syntax unified
 3620              		.thumb
 3621              		.thumb_func
 3622              		.fpu softvfp
 3624              	sd8840_f1024_off:
 3625              	.LFB63:
 734:./Hardware/device/spi.c **** 
 735:./Hardware/device/spi.c **** spi_exit_code sd8840_f1024_off(void)
 736:./Hardware/device/spi.c **** {
 3626              		.loc 1 736 1
 3627              		.cfi_startproc
 3628              		@ args = 0, pretend = 0, frame = 8
 3629              		@ frame_needed = 1, uses_anonymous_args = 0
 3630 0000 80B5     		push	{r7, lr}
 3631              	.LCFI154:
 3632              		.cfi_def_cfa_offset 8
 3633              		.cfi_offset 7, -8
 3634              		.cfi_offset 14, -4
 3635 0002 82B0     		sub	sp, sp, #8
 3636              	.LCFI155:
 3637              		.cfi_def_cfa_offset 16
 3638 0004 00AF     		add	r7, sp, #0
 3639              	.LCFI156:
 3640              		.cfi_def_cfa_register 7
 737:./Hardware/device/spi.c **** 		uint8_t buf=0x00;
 3641              		.loc 1 737 11
 3642 0006 0023     		movs	r3, #0
 3643 0008 FB71     		strb	r3, [r7, #7]
 738:./Hardware/device/spi.c **** 
 739:./Hardware/device/spi.c **** 		spi_write_multi_bytes(0x0D,&buf,1);
 3644              		.loc 1 739 3
 3645 000a FB1D     		adds	r3, r7, #7
 3646 000c 0122     		movs	r2, #1
 3647 000e 1946     		mov	r1, r3
 3648 0010 0D20     		movs	r0, #13
 3649 0012 FFF7FEFF 		bl	spi_write_multi_bytes
 740:./Hardware/device/spi.c **** 
 741:./Hardware/device/spi.c **** 		return SPI_OK;
 3650              		.loc 1 741 10
 3651 0016 0023     		movs	r3, #0
 742:./Hardware/device/spi.c **** }
 3652              		.loc 1 742 1
 3653 0018 1846     		mov	r0, r3
 3654 001a 0837     		adds	r7, r7, #8
 3655              	.LCFI157:
 3656              		.cfi_def_cfa_offset 8
 3657 001c BD46     		mov	sp, r7
 3658              	.LCFI158:
 3659              		.cfi_def_cfa_register 13
 3660              		@ sp needed
 3661 001e 80BD     		pop	{r7, pc}
 3662              		.cfi_endproc
 3663              	.LFE63:
ARM GAS  C:\Users\86134\AppData\Local\Temp\cckH4Mn9.s 			page 78


 3665              		.section	.text.sd8840_f1,"ax",%progbits
 3666              		.align	1
 3667              		.global	sd8840_f1
 3668              		.syntax unified
 3669              		.thumb
 3670              		.thumb_func
 3671              		.fpu softvfp
 3673              	sd8840_f1:
 3674              	.LFB64:
 743:./Hardware/device/spi.c **** 
 744:./Hardware/device/spi.c **** spi_exit_code sd8840_f1(void)
 745:./Hardware/device/spi.c **** {
 3675              		.loc 1 745 1
 3676              		.cfi_startproc
 3677              		@ args = 0, pretend = 0, frame = 8
 3678              		@ frame_needed = 1, uses_anonymous_args = 0
 3679 0000 80B5     		push	{r7, lr}
 3680              	.LCFI159:
 3681              		.cfi_def_cfa_offset 8
 3682              		.cfi_offset 7, -8
 3683              		.cfi_offset 14, -4
 3684 0002 82B0     		sub	sp, sp, #8
 3685              	.LCFI160:
 3686              		.cfi_def_cfa_offset 16
 3687 0004 00AF     		add	r7, sp, #0
 3688              	.LCFI161:
 3689              		.cfi_def_cfa_register 7
 746:./Hardware/device/spi.c **** 		uint8_t buf=0x06;
 3690              		.loc 1 746 11
 3691 0006 0623     		movs	r3, #6
 3692 0008 FB71     		strb	r3, [r7, #7]
 747:./Hardware/device/spi.c **** 
 748:./Hardware/device/spi.c **** 		spi_write_multi_bytes(0x0D,&buf,1);
 3693              		.loc 1 748 3
 3694 000a FB1D     		adds	r3, r7, #7
 3695 000c 0122     		movs	r2, #1
 3696 000e 1946     		mov	r1, r3
 3697 0010 0D20     		movs	r0, #13
 3698 0012 FFF7FEFF 		bl	spi_write_multi_bytes
 749:./Hardware/device/spi.c **** 
 750:./Hardware/device/spi.c **** 		return SPI_OK;
 3699              		.loc 1 750 10
 3700 0016 0023     		movs	r3, #0
 751:./Hardware/device/spi.c **** }
 3701              		.loc 1 751 1
 3702 0018 1846     		mov	r0, r3
 3703 001a 0837     		adds	r7, r7, #8
 3704              	.LCFI162:
 3705              		.cfi_def_cfa_offset 8
 3706 001c BD46     		mov	sp, r7
 3707              	.LCFI163:
 3708              		.cfi_def_cfa_register 13
 3709              		@ sp needed
 3710 001e 80BD     		pop	{r7, pc}
 3711              		.cfi_endproc
 3712              	.LFE64:
 3714              		.section	.text.sd8840_f1_off,"ax",%progbits
ARM GAS  C:\Users\86134\AppData\Local\Temp\cckH4Mn9.s 			page 79


 3715              		.align	1
 3716              		.global	sd8840_f1_off
 3717              		.syntax unified
 3718              		.thumb
 3719              		.thumb_func
 3720              		.fpu softvfp
 3722              	sd8840_f1_off:
 3723              	.LFB65:
 752:./Hardware/device/spi.c **** 
 753:./Hardware/device/spi.c **** spi_exit_code sd8840_f1_off(void)
 754:./Hardware/device/spi.c **** {
 3724              		.loc 1 754 1
 3725              		.cfi_startproc
 3726              		@ args = 0, pretend = 0, frame = 8
 3727              		@ frame_needed = 1, uses_anonymous_args = 0
 3728 0000 80B5     		push	{r7, lr}
 3729              	.LCFI164:
 3730              		.cfi_def_cfa_offset 8
 3731              		.cfi_offset 7, -8
 3732              		.cfi_offset 14, -4
 3733 0002 82B0     		sub	sp, sp, #8
 3734              	.LCFI165:
 3735              		.cfi_def_cfa_offset 16
 3736 0004 00AF     		add	r7, sp, #0
 3737              	.LCFI166:
 3738              		.cfi_def_cfa_register 7
 755:./Hardware/device/spi.c **** 		uint8_t buf=0x00;
 3739              		.loc 1 755 11
 3740 0006 0023     		movs	r3, #0
 3741 0008 FB71     		strb	r3, [r7, #7]
 756:./Hardware/device/spi.c **** 
 757:./Hardware/device/spi.c **** 		spi_write_multi_bytes(0x0D,&buf,1);
 3742              		.loc 1 757 3
 3743 000a FB1D     		adds	r3, r7, #7
 3744 000c 0122     		movs	r2, #1
 3745 000e 1946     		mov	r1, r3
 3746 0010 0D20     		movs	r0, #13
 3747 0012 FFF7FEFF 		bl	spi_write_multi_bytes
 758:./Hardware/device/spi.c **** 
 759:./Hardware/device/spi.c **** 		return SPI_OK;
 3748              		.loc 1 759 10
 3749 0016 0023     		movs	r3, #0
 760:./Hardware/device/spi.c **** }
 3750              		.loc 1 760 1
 3751 0018 1846     		mov	r0, r3
 3752 001a 0837     		adds	r7, r7, #8
 3753              	.LCFI167:
 3754              		.cfi_def_cfa_offset 8
 3755 001c BD46     		mov	sp, r7
 3756              	.LCFI168:
 3757              		.cfi_def_cfa_register 13
 3758              		@ sp needed
 3759 001e 80BD     		pop	{r7, pc}
 3760              		.cfi_endproc
 3761              	.LFE65:
 3763              		.section	.text.sd8840_ReadTemp,"ax",%progbits
 3764              		.align	1
ARM GAS  C:\Users\86134\AppData\Local\Temp\cckH4Mn9.s 			page 80


 3765              		.global	sd8840_ReadTemp
 3766              		.syntax unified
 3767              		.thumb
 3768              		.thumb_func
 3769              		.fpu softvfp
 3771              	sd8840_ReadTemp:
 3772              	.LFB66:
 761:./Hardware/device/spi.c **** 
 762:./Hardware/device/spi.c **** 
 763:./Hardware/device/spi.c **** uint8_t sd8840_ReadTemp(void)
 764:./Hardware/device/spi.c **** {
 3773              		.loc 1 764 1
 3774              		.cfi_startproc
 3775              		@ args = 0, pretend = 0, frame = 8
 3776              		@ frame_needed = 1, uses_anonymous_args = 0
 3777 0000 80B5     		push	{r7, lr}
 3778              	.LCFI169:
 3779              		.cfi_def_cfa_offset 8
 3780              		.cfi_offset 7, -8
 3781              		.cfi_offset 14, -4
 3782 0002 82B0     		sub	sp, sp, #8
 3783              	.LCFI170:
 3784              		.cfi_def_cfa_offset 16
 3785 0004 00AF     		add	r7, sp, #0
 3786              	.LCFI171:
 3787              		.cfi_def_cfa_register 7
 765:./Hardware/device/spi.c **** 	uint8_t	Temp1;
 766:./Hardware/device/spi.c **** 	uint8_t buf=0x10;
 3788              		.loc 1 766 10
 3789 0006 1023     		movs	r3, #16
 3790 0008 BB71     		strb	r3, [r7, #6]
 767:./Hardware/device/spi.c **** 	
 768:./Hardware/device/spi.c **** 	spi_write_multi_bytes(0x57,&buf,1);
 3791              		.loc 1 768 2
 3792 000a BB1D     		adds	r3, r7, #6
 3793 000c 0122     		movs	r2, #1
 3794 000e 1946     		mov	r1, r3
 3795 0010 5720     		movs	r0, #87
 3796 0012 FFF7FEFF 		bl	spi_write_multi_bytes
 769:./Hardware/device/spi.c **** 	
 770:./Hardware/device/spi.c **** 	spi_read_multi_bytes(0x56,&Temp1,2);
 3797              		.loc 1 770 2
 3798 0016 FB1D     		adds	r3, r7, #7
 3799 0018 0222     		movs	r2, #2
 3800 001a 1946     		mov	r1, r3
 3801 001c 5620     		movs	r0, #86
 3802 001e FFF7FEFF 		bl	spi_read_multi_bytes
 771:./Hardware/device/spi.c **** 	
 772:./Hardware/device/spi.c **** 		if((Temp1 & 0x80))
 3803              		.loc 1 772 6
 3804 0022 FB79     		ldrb	r3, [r7, #7]	@ zero_extendqisi2
 3805 0024 5BB2     		sxtb	r3, r3
 3806              		.loc 1 772 5
 3807 0026 002B     		cmp	r3, #0
 3808 0028 18DA     		bge	.L138
 773:./Hardware/device/spi.c **** 		{
 774:./Hardware/device/spi.c **** 			Temp1 = (~Temp1+1)&0xFF;
ARM GAS  C:\Users\86134\AppData\Local\Temp\cckH4Mn9.s 			page 81


 3809              		.loc 1 774 10
 3810 002a FB79     		ldrb	r3, [r7, #7]	@ zero_extendqisi2
 3811 002c 5B42     		rsbs	r3, r3, #0
 3812 002e DBB2     		uxtb	r3, r3
 3813 0030 FB71     		strb	r3, [r7, #7]
 775:./Hardware/device/spi.c **** 			sd8840_temp = Temp1;
 3814              		.loc 1 775 16
 3815 0032 FA79     		ldrb	r2, [r7, #7]	@ zero_extendqisi2
 3816 0034 134B     		ldr	r3, .L141
 3817 0036 1A70     		strb	r2, [r3]
 776:./Hardware/device/spi.c **** 			bcd_to_dec(sd8840_temp);
 3818              		.loc 1 776 4
 3819 0038 124B     		ldr	r3, .L141
 3820 003a 1B78     		ldrb	r3, [r3]	@ zero_extendqisi2
 3821 003c 1846     		mov	r0, r3
 3822 003e FFF7FEFF 		bl	bcd_to_dec
 777:./Hardware/device/spi.c **** 			sd8840_temp = 256-sd8840_temp;
 3823              		.loc 1 777 21
 3824 0042 104B     		ldr	r3, .L141
 3825 0044 1B78     		ldrb	r3, [r3]	@ zero_extendqisi2
 3826 0046 5B42     		rsbs	r3, r3, #0
 3827 0048 DAB2     		uxtb	r2, r3
 3828              		.loc 1 777 16
 3829 004a 0E4B     		ldr	r3, .L141
 3830 004c 1A70     		strb	r2, [r3]
 778:./Hardware/device/spi.c **** 			OLED_ShowChar(30,43,'-',6);
 3831              		.loc 1 778 4
 3832 004e 0623     		movs	r3, #6
 3833 0050 2D22     		movs	r2, #45
 3834 0052 2B21     		movs	r1, #43
 3835 0054 1E20     		movs	r0, #30
 3836 0056 FFF7FEFF 		bl	OLED_ShowChar
 3837 005a 0CE0     		b	.L139
 3838              	.L138:
 779:./Hardware/device/spi.c **** 		}else{
 780:./Hardware/device/spi.c **** 			Temp1 = Temp1 & 0x7F;
 3839              		.loc 1 780 18
 3840 005c FB79     		ldrb	r3, [r7, #7]	@ zero_extendqisi2
 3841 005e 03F07F03 		and	r3, r3, #127
 3842 0062 DBB2     		uxtb	r3, r3
 3843              		.loc 1 780 10
 3844 0064 FB71     		strb	r3, [r7, #7]
 781:./Hardware/device/spi.c **** 			sd8840_temp = Temp1;
 3845              		.loc 1 781 16
 3846 0066 FA79     		ldrb	r2, [r7, #7]	@ zero_extendqisi2
 3847 0068 064B     		ldr	r3, .L141
 3848 006a 1A70     		strb	r2, [r3]
 782:./Hardware/device/spi.c **** 			bcd_to_dec(sd8840_temp);
 3849              		.loc 1 782 4
 3850 006c 054B     		ldr	r3, .L141
 3851 006e 1B78     		ldrb	r3, [r3]	@ zero_extendqisi2
 3852 0070 1846     		mov	r0, r3
 3853 0072 FFF7FEFF 		bl	bcd_to_dec
 3854              	.L139:
 783:./Hardware/device/spi.c **** 		}
 784:./Hardware/device/spi.c **** 			
 785:./Hardware/device/spi.c **** 	return sd8840_temp;
ARM GAS  C:\Users\86134\AppData\Local\Temp\cckH4Mn9.s 			page 82


 3855              		.loc 1 785 9
 3856 0076 034B     		ldr	r3, .L141
 3857 0078 1B78     		ldrb	r3, [r3]	@ zero_extendqisi2
 786:./Hardware/device/spi.c **** 		
 787:./Hardware/device/spi.c **** }
 3858              		.loc 1 787 1
 3859 007a 1846     		mov	r0, r3
 3860 007c 0837     		adds	r7, r7, #8
 3861              	.LCFI172:
 3862              		.cfi_def_cfa_offset 8
 3863 007e BD46     		mov	sp, r7
 3864              	.LCFI173:
 3865              		.cfi_def_cfa_register 13
 3866              		@ sp needed
 3867 0080 80BD     		pop	{r7, pc}
 3868              	.L142:
 3869 0082 00BF     		.align	2
 3870              	.L141:
 3871 0084 00000000 		.word	sd8840_temp
 3872              		.cfi_endproc
 3873              	.LFE66:
 3875              		.section	.text.sd8902_and_std,"ax",%progbits
 3876              		.align	1
 3877              		.global	sd8902_and_std
 3878              		.syntax unified
 3879              		.thumb
 3880              		.thumb_func
 3881              		.fpu softvfp
 3883              	sd8902_and_std:
 3884              	.LFB67:
 788:./Hardware/device/spi.c **** 
 789:./Hardware/device/spi.c **** 
 790:./Hardware/device/spi.c **** uint8_t sd8902_and_std(void)
 791:./Hardware/device/spi.c **** {
 3885              		.loc 1 791 1
 3886              		.cfi_startproc
 3887              		@ args = 0, pretend = 0, frame = 0
 3888              		@ frame_needed = 1, uses_anonymous_args = 0
 3889 0000 80B5     		push	{r7, lr}
 3890              	.LCFI174:
 3891              		.cfi_def_cfa_offset 8
 3892              		.cfi_offset 7, -8
 3893              		.cfi_offset 14, -4
 3894 0002 00AF     		add	r7, sp, #0
 3895              	.LCFI175:
 3896              		.cfi_def_cfa_register 7
 792:./Hardware/device/spi.c **** 	sd2405showtime();
 3897              		.loc 1 792 2
 3898 0004 FFF7FEFF 		bl	sd2405showtime
 793:./Hardware/device/spi.c **** 	Test_Line();
 3899              		.loc 1 793 2
 3900 0008 FFF7FEFF 		bl	Test_Line
 794:./Hardware/device/spi.c **** 	
 795:./Hardware/device/spi.c **** 	if(SD8902_ReadTimeDate()!=SPI_OK)
 3901              		.loc 1 795 5
 3902 000c FFF7FEFF 		bl	SD8902_ReadTimeDate
 3903 0010 0346     		mov	r3, r0
ARM GAS  C:\Users\86134\AppData\Local\Temp\cckH4Mn9.s 			page 83


 3904              		.loc 1 795 4
 3905 0012 002B     		cmp	r3, #0
 3906 0014 03D0     		beq	.L144
 796:./Hardware/device/spi.c **** 	{
 797:./Hardware/device/spi.c **** 		NO_ACK_Test_Line();
 3907              		.loc 1 797 3
 3908 0016 FFF7FEFF 		bl	NO_ACK_Test_Line
 798:./Hardware/device/spi.c **** 	}else{
 799:./Hardware/device/spi.c **** 		SD8902_ReadTimeDate();
 800:./Hardware/device/spi.c **** 		return SPI_OK;
 801:./Hardware/device/spi.c **** 	}
 802:./Hardware/device/spi.c **** 	
 803:./Hardware/device/spi.c **** 	return TRUE;
 3909              		.loc 1 803 9
 3910 001a 0123     		movs	r3, #1
 3911 001c 02E0     		b	.L146
 3912              	.L144:
 799:./Hardware/device/spi.c **** 		return SPI_OK;
 3913              		.loc 1 799 3
 3914 001e FFF7FEFF 		bl	SD8902_ReadTimeDate
 800:./Hardware/device/spi.c **** 	}
 3915              		.loc 1 800 10
 3916 0022 0023     		movs	r3, #0
 3917              	.L146:
 804:./Hardware/device/spi.c **** 	
 805:./Hardware/device/spi.c **** }
 3918              		.loc 1 805 1
 3919 0024 1846     		mov	r0, r3
 3920 0026 80BD     		pop	{r7, pc}
 3921              		.cfi_endproc
 3922              	.LFE67:
 3924              		.section	.rodata
 3925 0026 0000     		.align	2
 3926              	.LC5:
 3927 0028 56626174 		.ascii	"Vbat:\000"
 3927      3A00
 3928              		.section	.text.sd8902_time_show,"ax",%progbits
 3929              		.align	1
 3930              		.global	sd8902_time_show
 3931              		.syntax unified
 3932              		.thumb
 3933              		.thumb_func
 3934              		.fpu softvfp
 3936              	sd8902_time_show:
 3937              	.LFB68:
 806:./Hardware/device/spi.c **** 
 807:./Hardware/device/spi.c **** uint8_t sd8902_time_show(void)
 808:./Hardware/device/spi.c **** {
 3938              		.loc 1 808 1
 3939              		.cfi_startproc
 3940              		@ args = 0, pretend = 0, frame = 0
 3941              		@ frame_needed = 1, uses_anonymous_args = 0
 3942 0000 80B5     		push	{r7, lr}
 3943              	.LCFI176:
 3944              		.cfi_def_cfa_offset 8
 3945              		.cfi_offset 7, -8
 3946              		.cfi_offset 14, -4
ARM GAS  C:\Users\86134\AppData\Local\Temp\cckH4Mn9.s 			page 84


 3947 0002 84B0     		sub	sp, sp, #16
 3948              	.LCFI177:
 3949              		.cfi_def_cfa_offset 24
 3950 0004 04AF     		add	r7, sp, #16
 3951              	.LCFI178:
 3952              		.cfi_def_cfa 7, 8
 809:./Hardware/device/spi.c **** 	if(SD8902_ReadTimeDate_show()!=SPI_OK)
 3953              		.loc 1 809 5
 3954 0006 FFF7FEFF 		bl	SD8902_ReadTimeDate_show
 3955 000a 0346     		mov	r3, r0
 3956              		.loc 1 809 4
 3957 000c 002B     		cmp	r3, #0
 3958 000e 6DD0     		beq	.L148
 810:./Hardware/device/spi.c **** 	{
 811:./Hardware/device/spi.c **** 		OLED_ShowChar(30,15,'-',8);//相隔显示的数据X轴间隔7个坐标，相隔显示的数据Y轴间隔15个坐标
 3959              		.loc 1 811 3
 3960 0010 0823     		movs	r3, #8
 3961 0012 2D22     		movs	r2, #45
 3962 0014 0F21     		movs	r1, #15
 3963 0016 1E20     		movs	r0, #30
 3964 0018 FFF7FEFF 		bl	OLED_ShowChar
 812:./Hardware/device/spi.c **** 		OLED_ShowChar(37,15,'-',8);
 3965              		.loc 1 812 3
 3966 001c 0823     		movs	r3, #8
 3967 001e 2D22     		movs	r2, #45
 3968 0020 0F21     		movs	r1, #15
 3969 0022 2520     		movs	r0, #37
 3970 0024 FFF7FEFF 		bl	OLED_ShowChar
 813:./Hardware/device/spi.c **** 		OLED_ShowChar(44,15,'-',8);
 3971              		.loc 1 813 3
 3972 0028 0823     		movs	r3, #8
 3973 002a 2D22     		movs	r2, #45
 3974 002c 0F21     		movs	r1, #15
 3975 002e 2C20     		movs	r0, #44
 3976 0030 FFF7FEFF 		bl	OLED_ShowChar
 814:./Hardware/device/spi.c **** 		OLED_ShowChar(51,15,'-',8);
 3977              		.loc 1 814 3
 3978 0034 0823     		movs	r3, #8
 3979 0036 2D22     		movs	r2, #45
 3980 0038 0F21     		movs	r1, #15
 3981 003a 3320     		movs	r0, #51
 3982 003c FFF7FEFF 		bl	OLED_ShowChar
 815:./Hardware/device/spi.c **** 		OLED_ShowChar(58,15,'-',8);
 3983              		.loc 1 815 3
 3984 0040 0823     		movs	r3, #8
 3985 0042 2D22     		movs	r2, #45
 3986 0044 0F21     		movs	r1, #15
 3987 0046 3A20     		movs	r0, #58
 3988 0048 FFF7FEFF 		bl	OLED_ShowChar
 816:./Hardware/device/spi.c **** 		OLED_ShowChar(65,15,'-',8);
 3989              		.loc 1 816 3
 3990 004c 0823     		movs	r3, #8
 3991 004e 2D22     		movs	r2, #45
 3992 0050 0F21     		movs	r1, #15
 3993 0052 4120     		movs	r0, #65
 3994 0054 FFF7FEFF 		bl	OLED_ShowChar
 817:./Hardware/device/spi.c **** 		OLED_ShowChar(72,15,'-',8);
ARM GAS  C:\Users\86134\AppData\Local\Temp\cckH4Mn9.s 			page 85


 3995              		.loc 1 817 3
 3996 0058 0823     		movs	r3, #8
 3997 005a 2D22     		movs	r2, #45
 3998 005c 0F21     		movs	r1, #15
 3999 005e 4820     		movs	r0, #72
 4000 0060 FFF7FEFF 		bl	OLED_ShowChar
 818:./Hardware/device/spi.c **** 		OLED_ShowChar(79,15,'-',8);
 4001              		.loc 1 818 3
 4002 0064 0823     		movs	r3, #8
 4003 0066 2D22     		movs	r2, #45
 4004 0068 0F21     		movs	r1, #15
 4005 006a 4F20     		movs	r0, #79
 4006 006c FFF7FEFF 		bl	OLED_ShowChar
 819:./Hardware/device/spi.c **** 		OLED_ShowChar(90,15,'W',8);
 4007              		.loc 1 819 3
 4008 0070 0823     		movs	r3, #8
 4009 0072 5722     		movs	r2, #87
 4010 0074 0F21     		movs	r1, #15
 4011 0076 5A20     		movs	r0, #90
 4012 0078 FFF7FEFF 		bl	OLED_ShowChar
 820:./Hardware/device/spi.c **** 		OLED_ShowChar(99,15,'-',8);
 4013              		.loc 1 820 3
 4014 007c 0823     		movs	r3, #8
 4015 007e 2D22     		movs	r2, #45
 4016 0080 0F21     		movs	r1, #15
 4017 0082 6320     		movs	r0, #99
 4018 0084 FFF7FEFF 		bl	OLED_ShowChar
 821:./Hardware/device/spi.c **** 		
 822:./Hardware/device/spi.c **** 		OLED_ShowChar(35,30,'-',8);
 4019              		.loc 1 822 3
 4020 0088 0823     		movs	r3, #8
 4021 008a 2D22     		movs	r2, #45
 4022 008c 1E21     		movs	r1, #30
 4023 008e 2320     		movs	r0, #35
 4024 0090 FFF7FEFF 		bl	OLED_ShowChar
 823:./Hardware/device/spi.c **** 		OLED_ShowChar(42,30,'-',8);
 4025              		.loc 1 823 3
 4026 0094 0823     		movs	r3, #8
 4027 0096 2D22     		movs	r2, #45
 4028 0098 1E21     		movs	r1, #30
 4029 009a 2A20     		movs	r0, #42
 4030 009c FFF7FEFF 		bl	OLED_ShowChar
 824:./Hardware/device/spi.c **** 		OLED_ShowChar(49,30,':',8);
 4031              		.loc 1 824 3
 4032 00a0 0823     		movs	r3, #8
 4033 00a2 3A22     		movs	r2, #58
 4034 00a4 1E21     		movs	r1, #30
 4035 00a6 3120     		movs	r0, #49
 4036 00a8 FFF7FEFF 		bl	OLED_ShowChar
 825:./Hardware/device/spi.c **** 		OLED_ShowChar(56,30,'-',8);
 4037              		.loc 1 825 3
 4038 00ac 0823     		movs	r3, #8
 4039 00ae 2D22     		movs	r2, #45
 4040 00b0 1E21     		movs	r1, #30
 4041 00b2 3820     		movs	r0, #56
 4042 00b4 FFF7FEFF 		bl	OLED_ShowChar
 826:./Hardware/device/spi.c **** 		OLED_ShowChar(63,30,'-',8);
ARM GAS  C:\Users\86134\AppData\Local\Temp\cckH4Mn9.s 			page 86


 4043              		.loc 1 826 3
 4044 00b8 0823     		movs	r3, #8
 4045 00ba 2D22     		movs	r2, #45
 4046 00bc 1E21     		movs	r1, #30
 4047 00be 3F20     		movs	r0, #63
 4048 00c0 FFF7FEFF 		bl	OLED_ShowChar
 827:./Hardware/device/spi.c **** 		OLED_ShowChar(70,30,':',8);
 4049              		.loc 1 827 3
 4050 00c4 0823     		movs	r3, #8
 4051 00c6 3A22     		movs	r2, #58
 4052 00c8 1E21     		movs	r1, #30
 4053 00ca 4620     		movs	r0, #70
 4054 00cc FFF7FEFF 		bl	OLED_ShowChar
 828:./Hardware/device/spi.c **** 		OLED_ShowChar(77,30,'-',8);
 4055              		.loc 1 828 3
 4056 00d0 0823     		movs	r3, #8
 4057 00d2 2D22     		movs	r2, #45
 4058 00d4 1E21     		movs	r1, #30
 4059 00d6 4D20     		movs	r0, #77
 4060 00d8 FFF7FEFF 		bl	OLED_ShowChar
 829:./Hardware/device/spi.c **** 		OLED_ShowChar(84,30,'-',8);
 4061              		.loc 1 829 3
 4062 00dc 0823     		movs	r3, #8
 4063 00de 2D22     		movs	r2, #45
 4064 00e0 1E21     		movs	r1, #30
 4065 00e2 5420     		movs	r0, #84
 4066 00e4 FFF7FEFF 		bl	OLED_ShowChar
 830:./Hardware/device/spi.c **** 		
 831:./Hardware/device/spi.c **** 	}else{
 832:./Hardware/device/spi.c **** 		
 833:./Hardware/device/spi.c **** 		SD8902_ReadTimeDate_show();
 834:./Hardware/device/spi.c **** 				
 835:./Hardware/device/spi.c **** 		sd8902_id_show();
 836:./Hardware/device/spi.c **** 		sd8902_ReadTemp();
 837:./Hardware/device/spi.c **** 		sd8902_ReadVbat();
 838:./Hardware/device/spi.c **** 
 839:./Hardware/device/spi.c **** 		OLED_ShowNum(36,43,sd8902_temp,2,6);
 840:./Hardware/device/spi.c **** 		OLED_ShowChar(49,43,'C',6);
 841:./Hardware/device/spi.c **** 		OLED_DrawPoint(49,41);
 842:./Hardware/device/spi.c **** 			
 843:./Hardware/device/spi.c **** 		OLED_ShowFloatNum(92,43,sd8902_vbat,1,2,6);
 844:./Hardware/device/spi.c **** 		OLED_ShowChar(122,43,'V',6);
 845:./Hardware/device/spi.c **** 		
 846:./Hardware/device/spi.c **** 		OLED_ShowString(0,43,"Temp:",6);
 847:./Hardware/device/spi.c **** 		OLED_ShowString(68,43,"Vbat:",6);
 848:./Hardware/device/spi.c **** 			
 849:./Hardware/device/spi.c **** 		OLED_ShowChar(0,0,'-',OLED_6X8);
 850:./Hardware/device/spi.c **** 		OLED_ShowChar(5,0,'-',OLED_6X8);
 851:./Hardware/device/spi.c **** 		OLED_ShowChar(10,0,'-',OLED_6X8);
 852:./Hardware/device/spi.c **** 		OLED_ShowChar(15,0,'-',OLED_6X8);
 853:./Hardware/device/spi.c **** 		OLED_ShowChar(20,0,'-',OLED_6X8);
 854:./Hardware/device/spi.c **** 		OLED_ShowChar(25,0,'-',OLED_6X8);
 855:./Hardware/device/spi.c **** 		OLED_ShowChar(30,0,'-',OLED_6X8);
 856:./Hardware/device/spi.c **** 		OLED_ShowChar(35,0,'-',OLED_6X8);
 857:./Hardware/device/spi.c **** 
 858:./Hardware/device/spi.c **** 		OLED_ShowString(40,0,"TEST IC",OLED_6X8);
 859:./Hardware/device/spi.c **** 		
ARM GAS  C:\Users\86134\AppData\Local\Temp\cckH4Mn9.s 			page 87


 860:./Hardware/device/spi.c **** 		OLED_ShowChar(83,0,'-',OLED_6X8);
 861:./Hardware/device/spi.c **** 		OLED_ShowChar(88,0,'-',OLED_6X8);
 862:./Hardware/device/spi.c **** 		OLED_ShowChar(90,0,'-',OLED_6X8);
 863:./Hardware/device/spi.c **** 		OLED_ShowChar(95,0,'-',OLED_6X8);
 864:./Hardware/device/spi.c **** 		OLED_ShowChar(100,0,'-',OLED_6X8);
 865:./Hardware/device/spi.c **** 		OLED_ShowChar(105,0,'-',OLED_6X8);
 866:./Hardware/device/spi.c **** 		OLED_ShowChar(110,0,'-',OLED_6X8);
 867:./Hardware/device/spi.c **** 		OLED_ShowChar(115,0,'-',OLED_6X8);
 868:./Hardware/device/spi.c **** 		OLED_ShowChar(120,0,'-',OLED_6X8);
 869:./Hardware/device/spi.c **** 		OLED_ShowChar(125,0,'-',OLED_6X8);
 870:./Hardware/device/spi.c **** 		
 871:./Hardware/device/spi.c **** 		return SPI_OK;
 872:./Hardware/device/spi.c **** 	}
 873:./Hardware/device/spi.c **** 	
 874:./Hardware/device/spi.c **** 	return TRUE;
 4067              		.loc 1 874 9
 4068 00e8 0123     		movs	r3, #1
 4069 00ea ADE0     		b	.L150
 4070              	.L148:
 833:./Hardware/device/spi.c **** 				
 4071              		.loc 1 833 3
 4072 00ec FFF7FEFF 		bl	SD8902_ReadTimeDate_show
 835:./Hardware/device/spi.c **** 		sd8902_ReadTemp();
 4073              		.loc 1 835 3
 4074 00f0 FFF7FEFF 		bl	sd8902_id_show
 836:./Hardware/device/spi.c **** 		sd8902_ReadVbat();
 4075              		.loc 1 836 3
 4076 00f4 FFF7FEFF 		bl	sd8902_ReadTemp
 837:./Hardware/device/spi.c **** 
 4077              		.loc 1 837 3
 4078 00f8 FFF7FEFF 		bl	sd8902_ReadVbat
 839:./Hardware/device/spi.c **** 		OLED_ShowChar(49,43,'C',6);
 4079              		.loc 1 839 3
 4080 00fc 544B     		ldr	r3, .L151
 4081 00fe 1B78     		ldrb	r3, [r3]	@ zero_extendqisi2
 4082 0100 1A46     		mov	r2, r3
 4083 0102 0623     		movs	r3, #6
 4084 0104 0093     		str	r3, [sp]
 4085 0106 0223     		movs	r3, #2
 4086 0108 2B21     		movs	r1, #43
 4087 010a 2420     		movs	r0, #36
 4088 010c FFF7FEFF 		bl	OLED_ShowNum
 840:./Hardware/device/spi.c **** 		OLED_DrawPoint(49,41);
 4089              		.loc 1 840 3
 4090 0110 0623     		movs	r3, #6
 4091 0112 4322     		movs	r2, #67
 4092 0114 2B21     		movs	r1, #43
 4093 0116 3120     		movs	r0, #49
 4094 0118 FFF7FEFF 		bl	OLED_ShowChar
 841:./Hardware/device/spi.c **** 			
 4095              		.loc 1 841 3
 4096 011c 2921     		movs	r1, #41
 4097 011e 3120     		movs	r0, #49
 4098 0120 FFF7FEFF 		bl	OLED_DrawPoint
 843:./Hardware/device/spi.c **** 		OLED_ShowChar(122,43,'V',6);
 4099              		.loc 1 843 3
 4100 0124 4B4B     		ldr	r3, .L151+4
ARM GAS  C:\Users\86134\AppData\Local\Temp\cckH4Mn9.s 			page 88


 4101 0126 D3E90023 		ldrd	r2, [r3]
 4102 012a 0621     		movs	r1, #6
 4103 012c 0291     		str	r1, [sp, #8]
 4104 012e 0221     		movs	r1, #2
 4105 0130 0191     		str	r1, [sp, #4]
 4106 0132 0121     		movs	r1, #1
 4107 0134 0091     		str	r1, [sp]
 4108 0136 2B21     		movs	r1, #43
 4109 0138 5C20     		movs	r0, #92
 4110 013a FFF7FEFF 		bl	OLED_ShowFloatNum
 844:./Hardware/device/spi.c **** 		
 4111              		.loc 1 844 3
 4112 013e 0623     		movs	r3, #6
 4113 0140 5622     		movs	r2, #86
 4114 0142 2B21     		movs	r1, #43
 4115 0144 7A20     		movs	r0, #122
 4116 0146 FFF7FEFF 		bl	OLED_ShowChar
 846:./Hardware/device/spi.c **** 		OLED_ShowString(68,43,"Vbat:",6);
 4117              		.loc 1 846 3
 4118 014a 0623     		movs	r3, #6
 4119 014c 424A     		ldr	r2, .L151+8
 4120 014e 2B21     		movs	r1, #43
 4121 0150 0020     		movs	r0, #0
 4122 0152 FFF7FEFF 		bl	OLED_ShowString
 847:./Hardware/device/spi.c **** 			
 4123              		.loc 1 847 3
 4124 0156 0623     		movs	r3, #6
 4125 0158 404A     		ldr	r2, .L151+12
 4126 015a 2B21     		movs	r1, #43
 4127 015c 4420     		movs	r0, #68
 4128 015e FFF7FEFF 		bl	OLED_ShowString
 849:./Hardware/device/spi.c **** 		OLED_ShowChar(5,0,'-',OLED_6X8);
 4129              		.loc 1 849 3
 4130 0162 0623     		movs	r3, #6
 4131 0164 2D22     		movs	r2, #45
 4132 0166 0021     		movs	r1, #0
 4133 0168 0020     		movs	r0, #0
 4134 016a FFF7FEFF 		bl	OLED_ShowChar
 850:./Hardware/device/spi.c **** 		OLED_ShowChar(10,0,'-',OLED_6X8);
 4135              		.loc 1 850 3
 4136 016e 0623     		movs	r3, #6
 4137 0170 2D22     		movs	r2, #45
 4138 0172 0021     		movs	r1, #0
 4139 0174 0520     		movs	r0, #5
 4140 0176 FFF7FEFF 		bl	OLED_ShowChar
 851:./Hardware/device/spi.c **** 		OLED_ShowChar(15,0,'-',OLED_6X8);
 4141              		.loc 1 851 3
 4142 017a 0623     		movs	r3, #6
 4143 017c 2D22     		movs	r2, #45
 4144 017e 0021     		movs	r1, #0
 4145 0180 0A20     		movs	r0, #10
 4146 0182 FFF7FEFF 		bl	OLED_ShowChar
 852:./Hardware/device/spi.c **** 		OLED_ShowChar(20,0,'-',OLED_6X8);
 4147              		.loc 1 852 3
 4148 0186 0623     		movs	r3, #6
 4149 0188 2D22     		movs	r2, #45
 4150 018a 0021     		movs	r1, #0
ARM GAS  C:\Users\86134\AppData\Local\Temp\cckH4Mn9.s 			page 89


 4151 018c 0F20     		movs	r0, #15
 4152 018e FFF7FEFF 		bl	OLED_ShowChar
 853:./Hardware/device/spi.c **** 		OLED_ShowChar(25,0,'-',OLED_6X8);
 4153              		.loc 1 853 3
 4154 0192 0623     		movs	r3, #6
 4155 0194 2D22     		movs	r2, #45
 4156 0196 0021     		movs	r1, #0
 4157 0198 1420     		movs	r0, #20
 4158 019a FFF7FEFF 		bl	OLED_ShowChar
 854:./Hardware/device/spi.c **** 		OLED_ShowChar(30,0,'-',OLED_6X8);
 4159              		.loc 1 854 3
 4160 019e 0623     		movs	r3, #6
 4161 01a0 2D22     		movs	r2, #45
 4162 01a2 0021     		movs	r1, #0
 4163 01a4 1920     		movs	r0, #25
 4164 01a6 FFF7FEFF 		bl	OLED_ShowChar
 855:./Hardware/device/spi.c **** 		OLED_ShowChar(35,0,'-',OLED_6X8);
 4165              		.loc 1 855 3
 4166 01aa 0623     		movs	r3, #6
 4167 01ac 2D22     		movs	r2, #45
 4168 01ae 0021     		movs	r1, #0
 4169 01b0 1E20     		movs	r0, #30
 4170 01b2 FFF7FEFF 		bl	OLED_ShowChar
 856:./Hardware/device/spi.c **** 
 4171              		.loc 1 856 3
 4172 01b6 0623     		movs	r3, #6
 4173 01b8 2D22     		movs	r2, #45
 4174 01ba 0021     		movs	r1, #0
 4175 01bc 2320     		movs	r0, #35
 4176 01be FFF7FEFF 		bl	OLED_ShowChar
 858:./Hardware/device/spi.c **** 		
 4177              		.loc 1 858 3
 4178 01c2 0623     		movs	r3, #6
 4179 01c4 264A     		ldr	r2, .L151+16
 4180 01c6 0021     		movs	r1, #0
 4181 01c8 2820     		movs	r0, #40
 4182 01ca FFF7FEFF 		bl	OLED_ShowString
 860:./Hardware/device/spi.c **** 		OLED_ShowChar(88,0,'-',OLED_6X8);
 4183              		.loc 1 860 3
 4184 01ce 0623     		movs	r3, #6
 4185 01d0 2D22     		movs	r2, #45
 4186 01d2 0021     		movs	r1, #0
 4187 01d4 5320     		movs	r0, #83
 4188 01d6 FFF7FEFF 		bl	OLED_ShowChar
 861:./Hardware/device/spi.c **** 		OLED_ShowChar(90,0,'-',OLED_6X8);
 4189              		.loc 1 861 3
 4190 01da 0623     		movs	r3, #6
 4191 01dc 2D22     		movs	r2, #45
 4192 01de 0021     		movs	r1, #0
 4193 01e0 5820     		movs	r0, #88
 4194 01e2 FFF7FEFF 		bl	OLED_ShowChar
 862:./Hardware/device/spi.c **** 		OLED_ShowChar(95,0,'-',OLED_6X8);
 4195              		.loc 1 862 3
 4196 01e6 0623     		movs	r3, #6
 4197 01e8 2D22     		movs	r2, #45
 4198 01ea 0021     		movs	r1, #0
 4199 01ec 5A20     		movs	r0, #90
ARM GAS  C:\Users\86134\AppData\Local\Temp\cckH4Mn9.s 			page 90


 4200 01ee FFF7FEFF 		bl	OLED_ShowChar
 863:./Hardware/device/spi.c **** 		OLED_ShowChar(100,0,'-',OLED_6X8);
 4201              		.loc 1 863 3
 4202 01f2 0623     		movs	r3, #6
 4203 01f4 2D22     		movs	r2, #45
 4204 01f6 0021     		movs	r1, #0
 4205 01f8 5F20     		movs	r0, #95
 4206 01fa FFF7FEFF 		bl	OLED_ShowChar
 864:./Hardware/device/spi.c **** 		OLED_ShowChar(105,0,'-',OLED_6X8);
 4207              		.loc 1 864 3
 4208 01fe 0623     		movs	r3, #6
 4209 0200 2D22     		movs	r2, #45
 4210 0202 0021     		movs	r1, #0
 4211 0204 6420     		movs	r0, #100
 4212 0206 FFF7FEFF 		bl	OLED_ShowChar
 865:./Hardware/device/spi.c **** 		OLED_ShowChar(110,0,'-',OLED_6X8);
 4213              		.loc 1 865 3
 4214 020a 0623     		movs	r3, #6
 4215 020c 2D22     		movs	r2, #45
 4216 020e 0021     		movs	r1, #0
 4217 0210 6920     		movs	r0, #105
 4218 0212 FFF7FEFF 		bl	OLED_ShowChar
 866:./Hardware/device/spi.c **** 		OLED_ShowChar(115,0,'-',OLED_6X8);
 4219              		.loc 1 866 3
 4220 0216 0623     		movs	r3, #6
 4221 0218 2D22     		movs	r2, #45
 4222 021a 0021     		movs	r1, #0
 4223 021c 6E20     		movs	r0, #110
 4224 021e FFF7FEFF 		bl	OLED_ShowChar
 867:./Hardware/device/spi.c **** 		OLED_ShowChar(120,0,'-',OLED_6X8);
 4225              		.loc 1 867 3
 4226 0222 0623     		movs	r3, #6
 4227 0224 2D22     		movs	r2, #45
 4228 0226 0021     		movs	r1, #0
 4229 0228 7320     		movs	r0, #115
 4230 022a FFF7FEFF 		bl	OLED_ShowChar
 868:./Hardware/device/spi.c **** 		OLED_ShowChar(125,0,'-',OLED_6X8);
 4231              		.loc 1 868 3
 4232 022e 0623     		movs	r3, #6
 4233 0230 2D22     		movs	r2, #45
 4234 0232 0021     		movs	r1, #0
 4235 0234 7820     		movs	r0, #120
 4236 0236 FFF7FEFF 		bl	OLED_ShowChar
 869:./Hardware/device/spi.c **** 		
 4237              		.loc 1 869 3
 4238 023a 0623     		movs	r3, #6
 4239 023c 2D22     		movs	r2, #45
 4240 023e 0021     		movs	r1, #0
 4241 0240 7D20     		movs	r0, #125
 4242 0242 FFF7FEFF 		bl	OLED_ShowChar
 871:./Hardware/device/spi.c **** 	}
 4243              		.loc 1 871 10
 4244 0246 0023     		movs	r3, #0
 4245              	.L150:
 875:./Hardware/device/spi.c **** }
 4246              		.loc 1 875 1
 4247 0248 1846     		mov	r0, r3
ARM GAS  C:\Users\86134\AppData\Local\Temp\cckH4Mn9.s 			page 91


 4248 024a BD46     		mov	sp, r7
 4249              	.LCFI179:
 4250              		.cfi_def_cfa_register 13
 4251              		@ sp needed
 4252 024c 80BD     		pop	{r7, pc}
 4253              	.L152:
 4254 024e 00BF     		.align	2
 4255              	.L151:
 4256 0250 00000000 		.word	sd8902_temp
 4257 0254 00000000 		.word	sd8902_vbat
 4258 0258 10000000 		.word	.LC3
 4259 025c 28000000 		.word	.LC5
 4260 0260 08000000 		.word	.LC2
 4261              		.cfi_endproc
 4262              	.LFE68:
 4264              		.section	.text.sd8902_time_copy,"ax",%progbits
 4265              		.align	1
 4266              		.global	sd8902_time_copy
 4267              		.syntax unified
 4268              		.thumb
 4269              		.thumb_func
 4270              		.fpu softvfp
 4272              	sd8902_time_copy:
 4273              	.LFB69:
 876:./Hardware/device/spi.c **** 
 877:./Hardware/device/spi.c **** uint8_t sd8902_time_copy(void)
 878:./Hardware/device/spi.c **** {
 4274              		.loc 1 878 1
 4275              		.cfi_startproc
 4276              		@ args = 0, pretend = 0, frame = 16
 4277              		@ frame_needed = 1, uses_anonymous_args = 0
 4278 0000 80B5     		push	{r7, lr}
 4279              	.LCFI180:
 4280              		.cfi_def_cfa_offset 8
 4281              		.cfi_offset 7, -8
 4282              		.cfi_offset 14, -4
 4283 0002 84B0     		sub	sp, sp, #16
 4284              	.LCFI181:
 4285              		.cfi_def_cfa_offset 24
 4286 0004 00AF     		add	r7, sp, #0
 4287              	.LCFI182:
 4288              		.cfi_def_cfa_register 7
 879:./Hardware/device/spi.c **** 	uint8_t buf[7];
 880:./Hardware/device/spi.c **** 	rtc_time copy_buf;
 881:./Hardware/device/spi.c **** 	
 882:./Hardware/device/spi.c **** 	if(RTC_ReadTimeDate(&copy_buf,IIC_STD)!=RTC_OK)
 4289              		.loc 1 882 5
 4290 0006 3B46     		mov	r3, r7
 4291 0008 0121     		movs	r1, #1
 4292 000a 1846     		mov	r0, r3
 4293 000c FFF7FEFF 		bl	RTC_ReadTimeDate
 4294 0010 0346     		mov	r3, r0
 4295              		.loc 1 882 4
 4296 0012 062B     		cmp	r3, #6
 4297 0014 04D0     		beq	.L154
 883:./Hardware/device/spi.c **** 	{
 884:./Hardware/device/spi.c **** 		Usart_Printf("time is error");
ARM GAS  C:\Users\86134\AppData\Local\Temp\cckH4Mn9.s 			page 92


 4298              		.loc 1 884 3
 4299 0016 3448     		ldr	r0, .L159
 4300 0018 FFF7FEFF 		bl	Usart_Printf
 885:./Hardware/device/spi.c **** 		return FALSE;
 4301              		.loc 1 885 10
 4302 001c 0023     		movs	r3, #0
 4303 001e 5EE0     		b	.L158
 4304              	.L154:
 886:./Hardware/device/spi.c **** 		
 887:./Hardware/device/spi.c **** 	}
 888:./Hardware/device/spi.c **** 
 889:./Hardware/device/spi.c **** 	buf[0]=dec_to_bcd(copy_buf.second);
 4305              		.loc 1 889 9
 4306 0020 3B78     		ldrb	r3, [r7]	@ zero_extendqisi2
 4307 0022 1846     		mov	r0, r3
 4308 0024 FFF7FEFF 		bl	dec_to_bcd
 4309 0028 0346     		mov	r3, r0
 4310              		.loc 1 889 8
 4311 002a 3B72     		strb	r3, [r7, #8]
 890:./Hardware/device/spi.c **** 	buf[1]=dec_to_bcd(copy_buf.minute);
 4312              		.loc 1 890 9
 4313 002c 7B78     		ldrb	r3, [r7, #1]	@ zero_extendqisi2
 4314 002e 1846     		mov	r0, r3
 4315 0030 FFF7FEFF 		bl	dec_to_bcd
 4316 0034 0346     		mov	r3, r0
 4317              		.loc 1 890 8
 4318 0036 7B72     		strb	r3, [r7, #9]
 891:./Hardware/device/spi.c **** 	buf[2]=dec_to_bcd(copy_buf.hour);
 4319              		.loc 1 891 9
 4320 0038 BB78     		ldrb	r3, [r7, #2]	@ zero_extendqisi2
 4321 003a 1846     		mov	r0, r3
 4322 003c FFF7FEFF 		bl	dec_to_bcd
 4323 0040 0346     		mov	r3, r0
 4324              		.loc 1 891 8
 4325 0042 BB72     		strb	r3, [r7, #10]
 892:./Hardware/device/spi.c **** 	buf[3]=dec_to_bcd(copy_buf.week);
 4326              		.loc 1 892 9
 4327 0044 FB78     		ldrb	r3, [r7, #3]	@ zero_extendqisi2
 4328 0046 1846     		mov	r0, r3
 4329 0048 FFF7FEFF 		bl	dec_to_bcd
 4330 004c 0346     		mov	r3, r0
 4331              		.loc 1 892 8
 4332 004e FB72     		strb	r3, [r7, #11]
 893:./Hardware/device/spi.c **** 	buf[4]=dec_to_bcd(copy_buf.day);
 4333              		.loc 1 893 9
 4334 0050 3B79     		ldrb	r3, [r7, #4]	@ zero_extendqisi2
 4335 0052 1846     		mov	r0, r3
 4336 0054 FFF7FEFF 		bl	dec_to_bcd
 4337 0058 0346     		mov	r3, r0
 4338              		.loc 1 893 8
 4339 005a 3B73     		strb	r3, [r7, #12]
 894:./Hardware/device/spi.c **** 	buf[5]=dec_to_bcd(copy_buf.month);
 4340              		.loc 1 894 9
 4341 005c 7B79     		ldrb	r3, [r7, #5]	@ zero_extendqisi2
 4342 005e 1846     		mov	r0, r3
 4343 0060 FFF7FEFF 		bl	dec_to_bcd
 4344 0064 0346     		mov	r3, r0
ARM GAS  C:\Users\86134\AppData\Local\Temp\cckH4Mn9.s 			page 93


 4345              		.loc 1 894 8
 4346 0066 7B73     		strb	r3, [r7, #13]
 895:./Hardware/device/spi.c **** 	buf[6]=dec_to_bcd(copy_buf.year);
 4347              		.loc 1 895 9
 4348 0068 BB79     		ldrb	r3, [r7, #6]	@ zero_extendqisi2
 4349 006a 1846     		mov	r0, r3
 4350 006c FFF7FEFF 		bl	dec_to_bcd
 4351 0070 0346     		mov	r3, r0
 4352              		.loc 1 895 8
 4353 0072 BB73     		strb	r3, [r7, #14]
 896:./Hardware/device/spi.c **** 
 897:./Hardware/device/spi.c **** 	if(SD8902_WriteTimeDate()!=SPI_OK)
 4354              		.loc 1 897 5
 4355 0074 FFF7FEFF 		bl	SD8902_WriteTimeDate
 4356 0078 0346     		mov	r3, r0
 4357              		.loc 1 897 4
 4358 007a 002B     		cmp	r3, #0
 4359 007c 03D0     		beq	.L156
 898:./Hardware/device/spi.c **** 	{
 899:./Hardware/device/spi.c **** 		NO_ACK_Test_Line();
 4360              		.loc 1 899 3
 4361 007e FFF7FEFF 		bl	NO_ACK_Test_Line
 900:./Hardware/device/spi.c **** 	}else{
 901:./Hardware/device/spi.c **** 		
 902:./Hardware/device/spi.c **** 		sd8902_write_data(sd8902_WRITE_PROTECT,0x00); //关闭写保护	
 903:./Hardware/device/spi.c **** 		
 904:./Hardware/device/spi.c **** 		sd8902_write_data(sd8902_WRITE_SECOND,buf[0]);
 905:./Hardware/device/spi.c **** 		sd8902_write_data(sd8902_WRITE_MINUTE,buf[1]);
 906:./Hardware/device/spi.c **** 		sd8902_write_data(sd8902_WRITE_HOUR,buf[2]);
 907:./Hardware/device/spi.c **** 		sd8902_write_data(sd8902_WRITE_WEEK,buf[3]);
 908:./Hardware/device/spi.c **** 		sd8902_write_data(sd8902_WRITE_DAY,buf[4]);
 909:./Hardware/device/spi.c **** 		sd8902_write_data(sd8902_WRITE_MONTH,buf[5]);
 910:./Hardware/device/spi.c **** 		sd8902_write_data(sd8902_WRITE_YEAR,buf[6]);
 911:./Hardware/device/spi.c **** 				
 912:./Hardware/device/spi.c **** 		sd8902_write_data(sd8902_WRITE_PROTECT,0x80); //开启写保护	
 913:./Hardware/device/spi.c **** 
 914:./Hardware/device/spi.c **** 		return SPI_OK;
 915:./Hardware/device/spi.c **** 	}
 916:./Hardware/device/spi.c **** 
 917:./Hardware/device/spi.c **** 	return TRUE;
 4362              		.loc 1 917 9
 4363 0082 0123     		movs	r3, #1
 4364 0084 2BE0     		b	.L158
 4365              	.L156:
 902:./Hardware/device/spi.c **** 		
 4366              		.loc 1 902 3
 4367 0086 0021     		movs	r1, #0
 4368 0088 8E20     		movs	r0, #142
 4369 008a FFF7FEFF 		bl	sd8902_write_data
 904:./Hardware/device/spi.c **** 		sd8902_write_data(sd8902_WRITE_MINUTE,buf[1]);
 4370              		.loc 1 904 3
 4371 008e 3B7A     		ldrb	r3, [r7, #8]	@ zero_extendqisi2
 4372 0090 1946     		mov	r1, r3
 4373 0092 8020     		movs	r0, #128
 4374 0094 FFF7FEFF 		bl	sd8902_write_data
 905:./Hardware/device/spi.c **** 		sd8902_write_data(sd8902_WRITE_HOUR,buf[2]);
 4375              		.loc 1 905 3
ARM GAS  C:\Users\86134\AppData\Local\Temp\cckH4Mn9.s 			page 94


 4376 0098 7B7A     		ldrb	r3, [r7, #9]	@ zero_extendqisi2
 4377 009a 1946     		mov	r1, r3
 4378 009c 8220     		movs	r0, #130
 4379 009e FFF7FEFF 		bl	sd8902_write_data
 906:./Hardware/device/spi.c **** 		sd8902_write_data(sd8902_WRITE_WEEK,buf[3]);
 4380              		.loc 1 906 3
 4381 00a2 BB7A     		ldrb	r3, [r7, #10]	@ zero_extendqisi2
 4382 00a4 1946     		mov	r1, r3
 4383 00a6 8420     		movs	r0, #132
 4384 00a8 FFF7FEFF 		bl	sd8902_write_data
 907:./Hardware/device/spi.c **** 		sd8902_write_data(sd8902_WRITE_DAY,buf[4]);
 4385              		.loc 1 907 3
 4386 00ac FB7A     		ldrb	r3, [r7, #11]	@ zero_extendqisi2
 4387 00ae 1946     		mov	r1, r3
 4388 00b0 8A20     		movs	r0, #138
 4389 00b2 FFF7FEFF 		bl	sd8902_write_data
 908:./Hardware/device/spi.c **** 		sd8902_write_data(sd8902_WRITE_MONTH,buf[5]);
 4390              		.loc 1 908 3
 4391 00b6 3B7B     		ldrb	r3, [r7, #12]	@ zero_extendqisi2
 4392 00b8 1946     		mov	r1, r3
 4393 00ba 8620     		movs	r0, #134
 4394 00bc FFF7FEFF 		bl	sd8902_write_data
 909:./Hardware/device/spi.c **** 		sd8902_write_data(sd8902_WRITE_YEAR,buf[6]);
 4395              		.loc 1 909 3
 4396 00c0 7B7B     		ldrb	r3, [r7, #13]	@ zero_extendqisi2
 4397 00c2 1946     		mov	r1, r3
 4398 00c4 8820     		movs	r0, #136
 4399 00c6 FFF7FEFF 		bl	sd8902_write_data
 910:./Hardware/device/spi.c **** 				
 4400              		.loc 1 910 3
 4401 00ca BB7B     		ldrb	r3, [r7, #14]	@ zero_extendqisi2
 4402 00cc 1946     		mov	r1, r3
 4403 00ce 8C20     		movs	r0, #140
 4404 00d0 FFF7FEFF 		bl	sd8902_write_data
 912:./Hardware/device/spi.c **** 
 4405              		.loc 1 912 3
 4406 00d4 8021     		movs	r1, #128
 4407 00d6 8E20     		movs	r0, #142
 4408 00d8 FFF7FEFF 		bl	sd8902_write_data
 914:./Hardware/device/spi.c **** 	}
 4409              		.loc 1 914 10
 4410 00dc 0023     		movs	r3, #0
 4411              	.L158:
 918:./Hardware/device/spi.c **** 	
 919:./Hardware/device/spi.c **** }
 4412              		.loc 1 919 1 discriminator 1
 4413 00de 1846     		mov	r0, r3
 4414 00e0 1037     		adds	r7, r7, #16
 4415              	.LCFI183:
 4416              		.cfi_def_cfa_offset 8
 4417 00e2 BD46     		mov	sp, r7
 4418              	.LCFI184:
 4419              		.cfi_def_cfa_register 13
 4420              		@ sp needed
 4421 00e4 80BD     		pop	{r7, pc}
 4422              	.L160:
 4423 00e6 00BF     		.align	2
ARM GAS  C:\Users\86134\AppData\Local\Temp\cckH4Mn9.s 			page 95


 4424              	.L159:
 4425 00e8 18000000 		.word	.LC4
 4426              		.cfi_endproc
 4427              	.LFE69:
 4429              		.section	.text.sd8902_f32768,"ax",%progbits
 4430              		.align	1
 4431              		.global	sd8902_f32768
 4432              		.syntax unified
 4433              		.thumb
 4434              		.thumb_func
 4435              		.fpu softvfp
 4437              	sd8902_f32768:
 4438              	.LFB70:
 920:./Hardware/device/spi.c **** 
 921:./Hardware/device/spi.c **** spi_exit_code sd8902_f32768(void)
 922:./Hardware/device/spi.c **** {
 4439              		.loc 1 922 1
 4440              		.cfi_startproc
 4441              		@ args = 0, pretend = 0, frame = 0
 4442              		@ frame_needed = 1, uses_anonymous_args = 0
 4443 0000 80B5     		push	{r7, lr}
 4444              	.LCFI185:
 4445              		.cfi_def_cfa_offset 8
 4446              		.cfi_offset 7, -8
 4447              		.cfi_offset 14, -4
 4448 0002 00AF     		add	r7, sp, #0
 4449              	.LCFI186:
 4450              		.cfi_def_cfa_register 7
 923:./Hardware/device/spi.c **** //	sd8902_write_data(sd8902_WRITE_PROTECT,0x00); //关闭写保护	
 924:./Hardware/device/spi.c **** 
 925:./Hardware/device/spi.c **** 	
 926:./Hardware/device/spi.c **** 	sd8902_write_data(0xB2,0x01);
 4451              		.loc 1 926 2
 4452 0004 0121     		movs	r1, #1
 4453 0006 B220     		movs	r0, #178
 4454 0008 FFF7FEFF 		bl	sd8902_write_data
 927:./Hardware/device/spi.c **** 	SPI_CS(1);
 4455              		.loc 1 927 2
 4456 000c 0122     		movs	r2, #1
 4457 000e 1021     		movs	r1, #16
 4458 0010 0248     		ldr	r0, .L163
 4459 0012 FFF7FEFF 		bl	GPIO_WriteBit
 928:./Hardware/device/spi.c **** 
 929:./Hardware/device/spi.c **** //	sd8902_write_data(sd8902_WRITE_PROTECT,0x80); //开启写保护	
 930:./Hardware/device/spi.c **** 	
 931:./Hardware/device/spi.c **** 	return SPI_OK;
 4460              		.loc 1 931 9
 4461 0016 0023     		movs	r3, #0
 932:./Hardware/device/spi.c **** }
 4462              		.loc 1 932 1
 4463 0018 1846     		mov	r0, r3
 4464 001a 80BD     		pop	{r7, pc}
 4465              	.L164:
 4466              		.align	2
 4467              	.L163:
 4468 001c 00080140 		.word	1073809408
 4469              		.cfi_endproc
ARM GAS  C:\Users\86134\AppData\Local\Temp\cckH4Mn9.s 			page 96


 4470              	.LFE70:
 4472              		.section	.text.sd8902_f32768_off,"ax",%progbits
 4473              		.align	1
 4474              		.global	sd8902_f32768_off
 4475              		.syntax unified
 4476              		.thumb
 4477              		.thumb_func
 4478              		.fpu softvfp
 4480              	sd8902_f32768_off:
 4481              	.LFB71:
 933:./Hardware/device/spi.c **** 
 934:./Hardware/device/spi.c **** spi_exit_code sd8902_f32768_off(void)
 935:./Hardware/device/spi.c **** {
 4482              		.loc 1 935 1
 4483              		.cfi_startproc
 4484              		@ args = 0, pretend = 0, frame = 0
 4485              		@ frame_needed = 1, uses_anonymous_args = 0
 4486 0000 80B5     		push	{r7, lr}
 4487              	.LCFI187:
 4488              		.cfi_def_cfa_offset 8
 4489              		.cfi_offset 7, -8
 4490              		.cfi_offset 14, -4
 4491 0002 00AF     		add	r7, sp, #0
 4492              	.LCFI188:
 4493              		.cfi_def_cfa_register 7
 936:./Hardware/device/spi.c **** 	sd8902_write_data(sd8902_WRITE_PROTECT,0x00); //关闭写保护	
 4494              		.loc 1 936 2
 4495 0004 0021     		movs	r1, #0
 4496 0006 8E20     		movs	r0, #142
 4497 0008 FFF7FEFF 		bl	sd8902_write_data
 937:./Hardware/device/spi.c **** 
 938:./Hardware/device/spi.c **** 	SPI_CS(0);
 4498              		.loc 1 938 2
 4499 000c 0022     		movs	r2, #0
 4500 000e 1021     		movs	r1, #16
 4501 0010 0648     		ldr	r0, .L167
 4502 0012 FFF7FEFF 		bl	GPIO_WriteBit
 939:./Hardware/device/spi.c **** 	sd8902_write_data(0xB2,0x00);
 4503              		.loc 1 939 2
 4504 0016 0021     		movs	r1, #0
 4505 0018 B220     		movs	r0, #178
 4506 001a FFF7FEFF 		bl	sd8902_write_data
 940:./Hardware/device/spi.c **** 	
 941:./Hardware/device/spi.c **** 	sd8902_write_data(sd8902_WRITE_PROTECT,0x80); //开启写保护	
 4507              		.loc 1 941 2
 4508 001e 8021     		movs	r1, #128
 4509 0020 8E20     		movs	r0, #142
 4510 0022 FFF7FEFF 		bl	sd8902_write_data
 942:./Hardware/device/spi.c **** 
 943:./Hardware/device/spi.c **** 	return SPI_OK;
 4511              		.loc 1 943 9
 4512 0026 0023     		movs	r3, #0
 944:./Hardware/device/spi.c **** }
 4513              		.loc 1 944 1
 4514 0028 1846     		mov	r0, r3
 4515 002a 80BD     		pop	{r7, pc}
 4516              	.L168:
ARM GAS  C:\Users\86134\AppData\Local\Temp\cckH4Mn9.s 			page 97


 4517              		.align	2
 4518              	.L167:
 4519 002c 00080140 		.word	1073809408
 4520              		.cfi_endproc
 4521              	.LFE71:
 4523              		.section	.text.sd8902_ReadTemp,"ax",%progbits
 4524              		.align	1
 4525              		.global	sd8902_ReadTemp
 4526              		.syntax unified
 4527              		.thumb
 4528              		.thumb_func
 4529              		.fpu softvfp
 4531              	sd8902_ReadTemp:
 4532              	.LFB72:
 945:./Hardware/device/spi.c **** 
 946:./Hardware/device/spi.c **** 
 947:./Hardware/device/spi.c **** uint8_t sd8902_ReadTemp(void)
 948:./Hardware/device/spi.c **** {
 4533              		.loc 1 948 1
 4534              		.cfi_startproc
 4535              		@ args = 0, pretend = 0, frame = 8
 4536              		@ frame_needed = 1, uses_anonymous_args = 0
 4537 0000 80B5     		push	{r7, lr}
 4538              	.LCFI189:
 4539              		.cfi_def_cfa_offset 8
 4540              		.cfi_offset 7, -8
 4541              		.cfi_offset 14, -4
 4542 0002 82B0     		sub	sp, sp, #8
 4543              	.LCFI190:
 4544              		.cfi_def_cfa_offset 16
 4545 0004 00AF     		add	r7, sp, #0
 4546              	.LCFI191:
 4547              		.cfi_def_cfa_register 7
 949:./Hardware/device/spi.c **** 	uint8_t	Temp1;	
 950:./Hardware/device/spi.c **** 	Temp1 = sd8902_read_data(0xAF);
 4548              		.loc 1 950 10
 4549 0006 AF20     		movs	r0, #175
 4550 0008 FFF7FEFF 		bl	sd8902_read_data
 4551 000c 0346     		mov	r3, r0
 4552 000e FB71     		strb	r3, [r7, #7]
 951:./Hardware/device/spi.c **** 	
 952:./Hardware/device/spi.c **** 	if(Temp1 & 0x80)
 4553              		.loc 1 952 5
 4554 0010 97F90730 		ldrsb	r3, [r7, #7]
 4555              		.loc 1 952 4
 4556 0014 002B     		cmp	r3, #0
 4557 0016 17DA     		bge	.L170
 953:./Hardware/device/spi.c **** 	{
 954:./Hardware/device/spi.c **** 		Temp1 = (~Temp1+1)&0xFF;
 4558              		.loc 1 954 9
 4559 0018 FB79     		ldrb	r3, [r7, #7]
 4560 001a 5B42     		rsbs	r3, r3, #0
 4561 001c FB71     		strb	r3, [r7, #7]
 955:./Hardware/device/spi.c **** 		sd8902_temp = Temp1;
 4562              		.loc 1 955 15
 4563 001e 134A     		ldr	r2, .L173
 4564 0020 FB79     		ldrb	r3, [r7, #7]
ARM GAS  C:\Users\86134\AppData\Local\Temp\cckH4Mn9.s 			page 98


 4565 0022 1370     		strb	r3, [r2]
 956:./Hardware/device/spi.c **** 		bcd_to_dec(sd8902_temp);
 4566              		.loc 1 956 3
 4567 0024 114B     		ldr	r3, .L173
 4568 0026 1B78     		ldrb	r3, [r3]	@ zero_extendqisi2
 4569 0028 1846     		mov	r0, r3
 4570 002a FFF7FEFF 		bl	bcd_to_dec
 957:./Hardware/device/spi.c **** 		sd8902_temp = 256-sd8902_temp;
 4571              		.loc 1 957 20
 4572 002e 0F4B     		ldr	r3, .L173
 4573 0030 1B78     		ldrb	r3, [r3]	@ zero_extendqisi2
 4574 0032 5B42     		rsbs	r3, r3, #0
 4575 0034 DAB2     		uxtb	r2, r3
 4576              		.loc 1 957 15
 4577 0036 0D4B     		ldr	r3, .L173
 4578 0038 1A70     		strb	r2, [r3]
 958:./Hardware/device/spi.c **** 		OLED_ShowChar(30,43,'-',6);
 4579              		.loc 1 958 3
 4580 003a 0623     		movs	r3, #6
 4581 003c 2D22     		movs	r2, #45
 4582 003e 2B21     		movs	r1, #43
 4583 0040 1E20     		movs	r0, #30
 4584 0042 FFF7FEFF 		bl	OLED_ShowChar
 4585 0046 0BE0     		b	.L171
 4586              	.L170:
 959:./Hardware/device/spi.c **** 	}else{
 960:./Hardware/device/spi.c **** 		Temp1 = Temp1 & 0x7F;
 4587              		.loc 1 960 9
 4588 0048 FB79     		ldrb	r3, [r7, #7]
 4589 004a 03F07F03 		and	r3, r3, #127
 4590 004e FB71     		strb	r3, [r7, #7]
 961:./Hardware/device/spi.c **** 		sd8902_temp = Temp1;
 4591              		.loc 1 961 15
 4592 0050 064A     		ldr	r2, .L173
 4593 0052 FB79     		ldrb	r3, [r7, #7]
 4594 0054 1370     		strb	r3, [r2]
 962:./Hardware/device/spi.c **** 		bcd_to_dec(sd8902_temp);
 4595              		.loc 1 962 3
 4596 0056 054B     		ldr	r3, .L173
 4597 0058 1B78     		ldrb	r3, [r3]	@ zero_extendqisi2
 4598 005a 1846     		mov	r0, r3
 4599 005c FFF7FEFF 		bl	bcd_to_dec
 4600              	.L171:
 963:./Hardware/device/spi.c **** 	}
 964:./Hardware/device/spi.c **** 
 965:./Hardware/device/spi.c **** 	return sd8902_temp;
 4601              		.loc 1 965 9
 4602 0060 024B     		ldr	r3, .L173
 4603 0062 1B78     		ldrb	r3, [r3]	@ zero_extendqisi2
 966:./Hardware/device/spi.c **** 	
 967:./Hardware/device/spi.c **** }
 4604              		.loc 1 967 1
 4605 0064 1846     		mov	r0, r3
 4606 0066 0837     		adds	r7, r7, #8
 4607              	.LCFI192:
 4608              		.cfi_def_cfa_offset 8
 4609 0068 BD46     		mov	sp, r7
ARM GAS  C:\Users\86134\AppData\Local\Temp\cckH4Mn9.s 			page 99


 4610              	.LCFI193:
 4611              		.cfi_def_cfa_register 13
 4612              		@ sp needed
 4613 006a 80BD     		pop	{r7, pc}
 4614              	.L174:
 4615              		.align	2
 4616              	.L173:
 4617 006c 00000000 		.word	sd8902_temp
 4618              		.cfi_endproc
 4619              	.LFE72:
 4621              		.global	__aeabi_i2d
 4622              		.global	__aeabi_ddiv
 4623              		.global	__aeabi_d2uiz
 4624              		.section	.text.sd8902_ReadVbat,"ax",%progbits
 4625              		.align	1
 4626              		.global	sd8902_ReadVbat
 4627              		.syntax unified
 4628              		.thumb
 4629              		.thumb_func
 4630              		.fpu softvfp
 4632              	sd8902_ReadVbat:
 4633              	.LFB73:
 968:./Hardware/device/spi.c **** 
 969:./Hardware/device/spi.c **** uint8_t sd8902_ReadVbat(void)
 970:./Hardware/device/spi.c **** {
 4634              		.loc 1 970 1
 4635              		.cfi_startproc
 4636              		@ args = 0, pretend = 0, frame = 8
 4637              		@ frame_needed = 1, uses_anonymous_args = 0
 4638 0000 80B5     		push	{r7, lr}
 4639              	.LCFI194:
 4640              		.cfi_def_cfa_offset 8
 4641              		.cfi_offset 7, -8
 4642              		.cfi_offset 14, -4
 4643 0002 82B0     		sub	sp, sp, #8
 4644              	.LCFI195:
 4645              		.cfi_def_cfa_offset 16
 4646 0004 00AF     		add	r7, sp, #0
 4647              	.LCFI196:
 4648              		.cfi_def_cfa_register 7
 971:./Hardware/device/spi.c **** 	uint8_t	Vbatbit8,Vbatbit7;	
 972:./Hardware/device/spi.c **** 
 973:./Hardware/device/spi.c **** 	Vbatbit8 = sd8902_read_data(0xB7);
 4649              		.loc 1 973 13
 4650 0006 B720     		movs	r0, #183
 4651 0008 FFF7FEFF 		bl	sd8902_read_data
 4652 000c 0346     		mov	r3, r0
 4653 000e FB71     		strb	r3, [r7, #7]
 974:./Hardware/device/spi.c **** 	Vbatbit7 = sd8902_read_data(0xB9);
 4654              		.loc 1 974 13
 4655 0010 B920     		movs	r0, #185
 4656 0012 FFF7FEFF 		bl	sd8902_read_data
 4657 0016 0346     		mov	r3, r0
 4658 0018 BB71     		strb	r3, [r7, #6]
 975:./Hardware/device/spi.c **** 	
 976:./Hardware/device/spi.c **** 	sd8902_vbat = (Vbatbit8>>7)*255+Vbatbit7;
 4659              		.loc 1 976 25
ARM GAS  C:\Users\86134\AppData\Local\Temp\cckH4Mn9.s 			page 100


 4660 001a FB79     		ldrb	r3, [r7, #7]	@ zero_extendqisi2
 4661 001c DB09     		lsrs	r3, r3, #7
 4662 001e DBB2     		uxtb	r3, r3
 4663 0020 1A46     		mov	r2, r3
 4664              		.loc 1 976 29
 4665 0022 1346     		mov	r3, r2
 4666 0024 1B02     		lsls	r3, r3, #8
 4667 0026 9A1A     		subs	r2, r3, r2
 4668              		.loc 1 976 33
 4669 0028 BB79     		ldrb	r3, [r7, #6]	@ zero_extendqisi2
 4670 002a 1344     		add	r3, r3, r2
 4671              		.loc 1 976 14
 4672 002c 1846     		mov	r0, r3
 4673 002e FFF7FEFF 		bl	__aeabi_i2d
 4674 0032 0246     		mov	r2, r0
 4675 0034 0B46     		mov	r3, r1
 4676 0036 1449     		ldr	r1, .L177
 4677 0038 C1E90023 		strd	r2, [r1]
 977:./Hardware/device/spi.c **** 	
 978:./Hardware/device/spi.c **** 	sd8902_vbat = sd8902_vbat/100;
 4678              		.loc 1 978 27
 4679 003c 124B     		ldr	r3, .L177
 4680 003e D3E90001 		ldrd	r0, [r3]
 4681 0042 4FF00002 		mov	r2, #0
 4682 0046 114B     		ldr	r3, .L177+4
 4683 0048 FFF7FEFF 		bl	__aeabi_ddiv
 4684 004c 0246     		mov	r2, r0
 4685 004e 0B46     		mov	r3, r1
 4686              		.loc 1 978 14
 4687 0050 0D49     		ldr	r1, .L177
 4688 0052 C1E90023 		strd	r2, [r1]
 979:./Hardware/device/spi.c **** 	bcd_to_dec(sd8902_vbat);
 4689              		.loc 1 979 2
 4690 0056 0C4B     		ldr	r3, .L177
 4691 0058 D3E90023 		ldrd	r2, [r3]
 4692 005c 1046     		mov	r0, r2
 4693 005e 1946     		mov	r1, r3
 4694 0060 FFF7FEFF 		bl	__aeabi_d2uiz
 4695 0064 0346     		mov	r3, r0
 4696 0066 DBB2     		uxtb	r3, r3
 4697 0068 1846     		mov	r0, r3
 4698 006a FFF7FEFF 		bl	bcd_to_dec
 980:./Hardware/device/spi.c **** 	
 981:./Hardware/device/spi.c **** 	return sd8902_vbat;
 4699              		.loc 1 981 9
 4700 006e 064B     		ldr	r3, .L177
 4701 0070 D3E90023 		ldrd	r2, [r3]
 4702 0074 1046     		mov	r0, r2
 4703 0076 1946     		mov	r1, r3
 4704 0078 FFF7FEFF 		bl	__aeabi_d2uiz
 4705 007c 0346     		mov	r3, r0
 4706 007e DBB2     		uxtb	r3, r3
 982:./Hardware/device/spi.c **** 	
 983:./Hardware/device/spi.c **** }
 4707              		.loc 1 983 1
 4708 0080 1846     		mov	r0, r3
 4709 0082 0837     		adds	r7, r7, #8
ARM GAS  C:\Users\86134\AppData\Local\Temp\cckH4Mn9.s 			page 101


 4710              	.LCFI197:
 4711              		.cfi_def_cfa_offset 8
 4712 0084 BD46     		mov	sp, r7
 4713              	.LCFI198:
 4714              		.cfi_def_cfa_register 13
 4715              		@ sp needed
 4716 0086 80BD     		pop	{r7, pc}
 4717              	.L178:
 4718              		.align	2
 4719              	.L177:
 4720 0088 00000000 		.word	sd8902_vbat
 4721 008c 00005940 		.word	1079574528
 4722              		.cfi_endproc
 4723              	.LFE73:
 4725              		.section	.text.sd8902_VbatQuan,"ax",%progbits
 4726              		.align	1
 4727              		.global	sd8902_VbatQuan
 4728              		.syntax unified
 4729              		.thumb
 4730              		.thumb_func
 4731              		.fpu softvfp
 4733              	sd8902_VbatQuan:
 4734              	.LFB74:
 984:./Hardware/device/spi.c **** 
 985:./Hardware/device/spi.c **** //读取vbat电压和上位机使用
 986:./Hardware/device/spi.c **** uint8_t sd8902_VbatQuan(uint8_t *data)
 987:./Hardware/device/spi.c **** {
 4735              		.loc 1 987 1
 4736              		.cfi_startproc
 4737              		@ args = 0, pretend = 0, frame = 16
 4738              		@ frame_needed = 1, uses_anonymous_args = 0
 4739 0000 80B5     		push	{r7, lr}
 4740              	.LCFI199:
 4741              		.cfi_def_cfa_offset 8
 4742              		.cfi_offset 7, -8
 4743              		.cfi_offset 14, -4
 4744 0002 84B0     		sub	sp, sp, #16
 4745              	.LCFI200:
 4746              		.cfi_def_cfa_offset 24
 4747 0004 00AF     		add	r7, sp, #0
 4748              	.LCFI201:
 4749              		.cfi_def_cfa_register 7
 4750 0006 7860     		str	r0, [r7, #4]
 988:./Hardware/device/spi.c **** 	uint8_t time = 5;
 4751              		.loc 1 988 10
 4752 0008 0523     		movs	r3, #5
 4753 000a FB73     		strb	r3, [r7, #15]
 989:./Hardware/device/spi.c **** 	
 990:./Hardware/device/spi.c **** 	while(time--)
 4754              		.loc 1 990 7
 4755 000c 00BF     		nop
 4756              		.loc 1 990 12
 4757 000e FB7B     		ldrb	r3, [r7, #15]	@ zero_extendqisi2
 4758 0010 5A1E     		subs	r2, r3, #1
 4759 0012 FA73     		strb	r2, [r7, #15]
 4760              		.loc 1 990 7
 4761 0014 002B     		cmp	r3, #0
ARM GAS  C:\Users\86134\AppData\Local\Temp\cckH4Mn9.s 			page 102


 4762 0016 09D0     		beq	.L183
 991:./Hardware/device/spi.c **** 	{
 992:./Hardware/device/spi.c **** 		Delay_ms(1);
 4763              		.loc 1 992 3
 4764 0018 0120     		movs	r0, #1
 4765 001a FFF7FEFF 		bl	Delay_ms
 993:./Hardware/device/spi.c **** 		
 994:./Hardware/device/spi.c **** 		sd8902_read_multi_bytes(0xB7,data,2);
 4766              		.loc 1 994 3
 4767 001e 0222     		movs	r2, #2
 4768 0020 7968     		ldr	r1, [r7, #4]
 4769 0022 B720     		movs	r0, #183
 4770 0024 FFF7FEFF 		bl	sd8902_read_multi_bytes
 995:./Hardware/device/spi.c **** 			return TRUE;
 4771              		.loc 1 995 11
 4772 0028 0123     		movs	r3, #1
 4773 002a 00E0     		b	.L181
 4774              	.L183:
 996:./Hardware/device/spi.c **** 		
 997:./Hardware/device/spi.c **** 	}
 998:./Hardware/device/spi.c **** 	
 999:./Hardware/device/spi.c **** 	return FALSE;	
 4775              		.loc 1 999 9
 4776 002c 0023     		movs	r3, #0
 4777              	.L181:
1000:./Hardware/device/spi.c **** 
1001:./Hardware/device/spi.c **** }
 4778              		.loc 1 1001 1
 4779 002e 1846     		mov	r0, r3
 4780 0030 1037     		adds	r7, r7, #16
 4781              	.LCFI202:
 4782              		.cfi_def_cfa_offset 8
 4783 0032 BD46     		mov	sp, r7
 4784              	.LCFI203:
 4785              		.cfi_def_cfa_register 13
 4786              		@ sp needed
 4787 0034 80BD     		pop	{r7, pc}
 4788              		.cfi_endproc
 4789              	.LFE74:
 4791              		.section	.text.RTC_ReadRAM_8840,"ax",%progbits
 4792              		.align	1
 4793              		.global	RTC_ReadRAM_8840
 4794              		.syntax unified
 4795              		.thumb
 4796              		.thumb_func
 4797              		.fpu softvfp
 4799              	RTC_ReadRAM_8840:
 4800              	.LFB75:
1002:./Hardware/device/spi.c **** 
1003:./Hardware/device/spi.c **** 
1004:./Hardware/device/spi.c **** 
1005:./Hardware/device/spi.c **** uint8_t RTC_ReadRAM_8840(uint8_t addr,uint8_t *data,uint8_t len)
1006:./Hardware/device/spi.c **** {
 4801              		.loc 1 1006 1
 4802              		.cfi_startproc
 4803              		@ args = 0, pretend = 0, frame = 8
 4804              		@ frame_needed = 1, uses_anonymous_args = 0
ARM GAS  C:\Users\86134\AppData\Local\Temp\cckH4Mn9.s 			page 103


 4805 0000 80B5     		push	{r7, lr}
 4806              	.LCFI204:
 4807              		.cfi_def_cfa_offset 8
 4808              		.cfi_offset 7, -8
 4809              		.cfi_offset 14, -4
 4810 0002 82B0     		sub	sp, sp, #8
 4811              	.LCFI205:
 4812              		.cfi_def_cfa_offset 16
 4813 0004 00AF     		add	r7, sp, #0
 4814              	.LCFI206:
 4815              		.cfi_def_cfa_register 7
 4816 0006 0346     		mov	r3, r0
 4817 0008 3960     		str	r1, [r7]
 4818 000a FB71     		strb	r3, [r7, #7]
 4819 000c 1346     		mov	r3, r2
 4820 000e BB71     		strb	r3, [r7, #6]
1007:./Hardware/device/spi.c **** 
1008:./Hardware/device/spi.c **** 	return spi_read_multi_bytes(addr,data,len);
 4821              		.loc 1 1008 9
 4822 0010 BA79     		ldrb	r2, [r7, #6]	@ zero_extendqisi2
 4823 0012 FB79     		ldrb	r3, [r7, #7]	@ zero_extendqisi2
 4824 0014 3968     		ldr	r1, [r7]
 4825 0016 1846     		mov	r0, r3
 4826 0018 FFF7FEFF 		bl	spi_read_multi_bytes
 4827 001c 0346     		mov	r3, r0
1009:./Hardware/device/spi.c **** 	
1010:./Hardware/device/spi.c **** }
 4828              		.loc 1 1010 1
 4829 001e 1846     		mov	r0, r3
 4830 0020 0837     		adds	r7, r7, #8
 4831              	.LCFI207:
 4832              		.cfi_def_cfa_offset 8
 4833 0022 BD46     		mov	sp, r7
 4834              	.LCFI208:
 4835              		.cfi_def_cfa_register 13
 4836              		@ sp needed
 4837 0024 80BD     		pop	{r7, pc}
 4838              		.cfi_endproc
 4839              	.LFE75:
 4841              		.section	.text.RTC_WriteRAM_8840,"ax",%progbits
 4842              		.align	1
 4843              		.global	RTC_WriteRAM_8840
 4844              		.syntax unified
 4845              		.thumb
 4846              		.thumb_func
 4847              		.fpu softvfp
 4849              	RTC_WriteRAM_8840:
 4850              	.LFB76:
1011:./Hardware/device/spi.c **** 
1012:./Hardware/device/spi.c **** uint8_t RTC_WriteRAM_8840(uint8_t addr,uint8_t *data,uint8_t len)
1013:./Hardware/device/spi.c **** {
 4851              		.loc 1 1013 1
 4852              		.cfi_startproc
 4853              		@ args = 0, pretend = 0, frame = 8
 4854              		@ frame_needed = 1, uses_anonymous_args = 0
 4855 0000 80B5     		push	{r7, lr}
 4856              	.LCFI209:
ARM GAS  C:\Users\86134\AppData\Local\Temp\cckH4Mn9.s 			page 104


 4857              		.cfi_def_cfa_offset 8
 4858              		.cfi_offset 7, -8
 4859              		.cfi_offset 14, -4
 4860 0002 82B0     		sub	sp, sp, #8
 4861              	.LCFI210:
 4862              		.cfi_def_cfa_offset 16
 4863 0004 00AF     		add	r7, sp, #0
 4864              	.LCFI211:
 4865              		.cfi_def_cfa_register 7
 4866 0006 0346     		mov	r3, r0
 4867 0008 3960     		str	r1, [r7]
 4868 000a FB71     		strb	r3, [r7, #7]
 4869 000c 1346     		mov	r3, r2
 4870 000e BB71     		strb	r3, [r7, #6]
1014:./Hardware/device/spi.c **** 		if(spi_write_multi_bytes(addr,data,len)!=TRUE)
 4871              		.loc 1 1014 6
 4872 0010 BA79     		ldrb	r2, [r7, #6]	@ zero_extendqisi2
 4873 0012 FB79     		ldrb	r3, [r7, #7]	@ zero_extendqisi2
 4874 0014 3968     		ldr	r1, [r7]
 4875 0016 1846     		mov	r0, r3
 4876 0018 FFF7FEFF 		bl	spi_write_multi_bytes
 4877 001c 0346     		mov	r3, r0
 4878              		.loc 1 1014 5
 4879 001e 012B     		cmp	r3, #1
 4880 0020 01D0     		beq	.L187
1015:./Hardware/device/spi.c **** 			return FALSE;
 4881              		.loc 1 1015 11
 4882 0022 0023     		movs	r3, #0
 4883 0024 00E0     		b	.L188
 4884              	.L187:
1016:./Hardware/device/spi.c **** 		
1017:./Hardware/device/spi.c **** 		return TRUE;
 4885              		.loc 1 1017 10
 4886 0026 0123     		movs	r3, #1
 4887              	.L188:
1018:./Hardware/device/spi.c **** }
 4888              		.loc 1 1018 1
 4889 0028 1846     		mov	r0, r3
 4890 002a 0837     		adds	r7, r7, #8
 4891              	.LCFI212:
 4892              		.cfi_def_cfa_offset 8
 4893 002c BD46     		mov	sp, r7
 4894              	.LCFI213:
 4895              		.cfi_def_cfa_register 13
 4896              		@ sp needed
 4897 002e 80BD     		pop	{r7, pc}
 4898              		.cfi_endproc
 4899              	.LFE76:
 4901              		.global	sd8902_read_buff
 4902              		.section	.data.sd8902_read_buff,"aw"
 4903              		.align	2
 4906              	sd8902_read_buff:
 4907 0000 81838587 		.ascii	"\201\203\205\207\211\213\215\217\221\223\225\227\231"
 4907      898B8D8F 
 4907      91939597 
 4907      99
 4908 000d 9B9D9FA1 		.ascii	"\233\235\237\241\257\261\263\265\267\271\273\275\301"
ARM GAS  C:\Users\86134\AppData\Local\Temp\cckH4Mn9.s 			page 105


 4908      AFB1B3B5 
 4908      B7B9BBBD 
 4908      C1
 4909 001a C3C5C7C9 		.ascii	"\303\305\307\311\313\315\315\317\321\323\325\327\331"
 4909      CBCDCDCF 
 4909      D1D3D5D7 
 4909      D9
 4910 0027 DBDDDFF1 		.ascii	"\333\335\337\361\363\365\367\371\373\375"
 4910      F3F5F7F9 
 4910      FBFD
 4911              		.global	sd8902_write_buff
 4912              		.section	.data.sd8902_write_buff,"aw"
 4913              		.align	2
 4916              	sd8902_write_buff:
 4917 0000 80828486 		.ascii	"\200\202\204\206\210\212\214\216\220\262\264\272\274"
 4917      888A8C8E 
 4917      90B2B4BA 
 4917      BC
 4918 000d C0C2C4C6 		.ascii	"\300\302\304\306\310\312\314\316\320\322\324\326\330"
 4918      C8CACCCE 
 4918      D0D2D4D6 
 4918      D8
 4919 001a DADCDEE0 		.ascii	"\332\334\336\340\342\344\346\350\352\354\356\360\362"
 4919      E2E4E6E8 
 4919      EAECEEF0 
 4919      F2
 4920 0027 F4F6F8FA 		.ascii	"\364\366\370\372\374"
 4920      FC
 4921              		.section	.text.sd8902_read_multi_bytes,"ax",%progbits
 4922              		.align	1
 4923              		.global	sd8902_read_multi_bytes
 4924              		.syntax unified
 4925              		.thumb
 4926              		.thumb_func
 4927              		.fpu softvfp
 4929              	sd8902_read_multi_bytes:
 4930              	.LFB77:
1019:./Hardware/device/spi.c **** 
1020:./Hardware/device/spi.c **** 
1021:./Hardware/device/spi.c **** uint8_t sd8902_read_buff[]={0x81,0x83,0x85,0x87,0x89,0x8B,0x8D,0x8F,0x91,0x93,0x95,0x97,0x99,0x9B,0
1022:./Hardware/device/spi.c **** uint8_t sd8902_write_buff[]={0x80,0x82,0x84,0x86,0x88,0x8A,0x8C,0x8E,0x90,0xB2,0xB4,0xBA,0xBC,0xC0,
1023:./Hardware/device/spi.c **** 
1024:./Hardware/device/spi.c **** uint8_t sd8902_read_multi_bytes(uint8_t reg_addr, uint8_t *buf, uint8_t len)
1025:./Hardware/device/spi.c **** {
 4931              		.loc 1 1025 1
 4932              		.cfi_startproc
 4933              		@ args = 0, pretend = 0, frame = 16
